	.file	"Group52.cpp"
	.text
	.align 2
	.p2align 4
	.globl	_ZN8opendnp311Group52Var1C2Ev
	.type	_ZN8opendnp311Group52Var1C2Ev, @function
_ZN8opendnp311Group52Var1C2Ev:
.LFB38:
	.cfi_startproc
	xorl	%eax, %eax
	movw	%ax, (%rdi)
	ret
	.cfi_endproc
.LFE38:
	.size	_ZN8opendnp311Group52Var1C2Ev, .-_ZN8opendnp311Group52Var1C2Ev
	.globl	_ZN8opendnp311Group52Var1C1Ev
	.set	_ZN8opendnp311Group52Var1C1Ev,_ZN8opendnp311Group52Var1C2Ev
	.align 2
	.p2align 4
	.globl	_ZN8opendnp311Group52Var14ReadERN7openpal6RSliceERS0_
	.type	_ZN8opendnp311Group52Var14ReadERN7openpal6RSliceERS0_, @function
_ZN8opendnp311Group52Var14ReadERN7openpal6RSliceERS0_:
.LFB40:
	.cfi_startproc
	jmp	_ZN7openpal5Parse4ReadERNS_6RSliceERt@PLT
	.cfi_endproc
.LFE40:
	.size	_ZN8opendnp311Group52Var14ReadERN7openpal6RSliceERS0_, .-_ZN8opendnp311Group52Var14ReadERN7openpal6RSliceERS0_
	.align 2
	.p2align 4
	.globl	_ZN8opendnp311Group52Var15WriteERKS0_RN7openpal6WSliceE
	.type	_ZN8opendnp311Group52Var15WriteERKS0_RN7openpal6WSliceE, @function
_ZN8opendnp311Group52Var15WriteERKS0_RN7openpal6WSliceE:
.LFB41:
	.cfi_startproc
	movq	%rdi, %rax
	movq	%rsi, %rdi
	movq	%rax, %rsi
	jmp	_ZN7openpal6Format5WriteERNS_6WSliceERKt@PLT
	.cfi_endproc
.LFE41:
	.size	_ZN8opendnp311Group52Var15WriteERKS0_RN7openpal6WSliceE, .-_ZN8opendnp311Group52Var15WriteERKS0_RN7openpal6WSliceE
	.align 2
	.p2align 4
	.globl	_ZN8opendnp311Group52Var2C2Ev
	.type	_ZN8opendnp311Group52Var2C2Ev, @function
_ZN8opendnp311Group52Var2C2Ev:
.LFB43:
	.cfi_startproc
	xorl	%eax, %eax
	movw	%ax, (%rdi)
	ret
	.cfi_endproc
.LFE43:
	.size	_ZN8opendnp311Group52Var2C2Ev, .-_ZN8opendnp311Group52Var2C2Ev
	.globl	_ZN8opendnp311Group52Var2C1Ev
	.set	_ZN8opendnp311Group52Var2C1Ev,_ZN8opendnp311Group52Var2C2Ev
	.align 2
	.p2align 4
	.globl	_ZN8opendnp311Group52Var24ReadERN7openpal6RSliceERS0_
	.type	_ZN8opendnp311Group52Var24ReadERN7openpal6RSliceERS0_, @function
_ZN8opendnp311Group52Var24ReadERN7openpal6RSliceERS0_:
.LFB50:
	.cfi_startproc
	jmp	_ZN7openpal5Parse4ReadERNS_6RSliceERt@PLT
	.cfi_endproc
.LFE50:
	.size	_ZN8opendnp311Group52Var24ReadERN7openpal6RSliceERS0_, .-_ZN8opendnp311Group52Var24ReadERN7openpal6RSliceERS0_
	.align 2
	.p2align 4
	.globl	_ZN8opendnp311Group52Var25WriteERKS0_RN7openpal6WSliceE
	.type	_ZN8opendnp311Group52Var25WriteERKS0_RN7openpal6WSliceE, @function
_ZN8opendnp311Group52Var25WriteERKS0_RN7openpal6WSliceE:
.LFB52:
	.cfi_startproc
	movq	%rdi, %rax
	movq	%rsi, %rdi
	movq	%rax, %rsi
	jmp	_ZN7openpal6Format5WriteERNS_6WSliceERKt@PLT
	.cfi_endproc
.LFE52:
	.size	_ZN8opendnp311Group52Var25WriteERKS0_RN7openpal6WSliceE, .-_ZN8opendnp311Group52Var25WriteERKS0_RN7openpal6WSliceE
	.ident	"GCC: (Debian 15.2.0-4) 15.2.0"
	.section	.note.GNU-stack,"",@progbits
