	.file	"Group13.cpp"
	.text
	.align 2
	.p2align 4
	.globl	_ZN8opendnp311Group13Var1C2Ev
	.type	_ZN8opendnp311Group13Var1C2Ev, @function
_ZN8opendnp311Group13Var1C2Ev:
.LFB393:
	.cfi_startproc
	movb	$0, (%rdi)
	ret
	.cfi_endproc
.LFE393:
	.size	_ZN8opendnp311Group13Var1C2Ev, .-_ZN8opendnp311Group13Var1C2Ev
	.globl	_ZN8opendnp311Group13Var1C1Ev
	.set	_ZN8opendnp311Group13Var1C1Ev,_ZN8opendnp311Group13Var1C2Ev
	.align 2
	.p2align 4
	.globl	_ZN8opendnp311Group13Var14ReadERN7openpal6RSliceERS0_
	.type	_ZN8opendnp311Group13Var14ReadERN7openpal6RSliceERS0_, @function
_ZN8opendnp311Group13Var14ReadERN7openpal6RSliceERS0_:
.LFB395:
	.cfi_startproc
	jmp	_ZN7openpal5Parse4ReadERNS_6RSliceERh@PLT
	.cfi_endproc
.LFE395:
	.size	_ZN8opendnp311Group13Var14ReadERN7openpal6RSliceERS0_, .-_ZN8opendnp311Group13Var14ReadERN7openpal6RSliceERS0_
	.align 2
	.p2align 4
	.globl	_ZN8opendnp311Group13Var15WriteERKS0_RN7openpal6WSliceE
	.type	_ZN8opendnp311Group13Var15WriteERKS0_RN7openpal6WSliceE, @function
_ZN8opendnp311Group13Var15WriteERKS0_RN7openpal6WSliceE:
.LFB396:
	.cfi_startproc
	movq	%rdi, %rax
	movq	%rsi, %rdi
	movq	%rax, %rsi
	jmp	_ZN7openpal6Format5WriteERNS_6WSliceERKh@PLT
	.cfi_endproc
.LFE396:
	.size	_ZN8opendnp311Group13Var15WriteERKS0_RN7openpal6WSliceE, .-_ZN8opendnp311Group13Var15WriteERKS0_RN7openpal6WSliceE
	.align 2
	.p2align 4
	.globl	_ZN8opendnp311Group13Var110ReadTargetERN7openpal6RSliceERNS_18BinaryCommandEventE
	.type	_ZN8opendnp311Group13Var110ReadTargetERN7openpal6RSliceERNS_18BinaryCommandEventE, @function
_ZN8opendnp311Group13Var110ReadTargetERN7openpal6RSliceERNS_18BinaryCommandEventE:
.LFB397:
	.cfi_startproc
	pushq	%r12
	.cfi_def_cfa_offset 16
	.cfi_offset 12, -16
	movq	%rsi, %r12
	pushq	%rbp
	.cfi_def_cfa_offset 24
	.cfi_offset 6, -24
	movq	%rdi, %rbp
	pushq	%rbx
	.cfi_def_cfa_offset 32
	.cfi_offset 3, -32
	subq	$48, %rsp
	.cfi_def_cfa_offset 80
	leaq	31(%rsp), %rdi
	call	_ZN8opendnp311Group13Var1C1Ev@PLT
	leaq	31(%rsp), %rsi
	movq	%rbp, %rdi
	call	_ZN8opendnp311Group13Var14ReadERN7openpal6RSliceERS0_@PLT
	testb	%al, %al
	jne	.L11
	addq	$48, %rsp
	.cfi_remember_state
	.cfi_def_cfa_offset 32
	popq	%rbx
	.cfi_def_cfa_offset 24
	popq	%rbp
	.cfi_def_cfa_offset 16
	popq	%r12
	.cfi_def_cfa_offset 8
	ret
	.p2align 4,,10
	.p2align 3
.L11:
	.cfi_restore_state
	movzbl	31(%rsp), %esi
	leaq	32(%rsp), %rdi
	movb	%al, 15(%rsp)
	call	_ZN8opendnp318BinaryCommandEventC1ENS_5FlagsE@PLT
	movzwl	32(%rsp), %edx
	movzbl	15(%rsp), %eax
	movw	%dx, (%r12)
	movq	40(%rsp), %rdx
	movq	%rdx, 8(%r12)
	addq	$48, %rsp
	.cfi_def_cfa_offset 32
	popq	%rbx
	.cfi_def_cfa_offset 24
	popq	%rbp
	.cfi_def_cfa_offset 16
	popq	%r12
	.cfi_def_cfa_offset 8
	ret
	.cfi_endproc
.LFE397:
	.size	_ZN8opendnp311Group13Var110ReadTargetERN7openpal6RSliceERNS_18BinaryCommandEventE, .-_ZN8opendnp311Group13Var110ReadTargetERN7openpal6RSliceERNS_18BinaryCommandEventE
	.align 2
	.p2align 4
	.globl	_ZN8opendnp311Group13Var111WriteTargetERKNS_18BinaryCommandEventERN7openpal6WSliceE
	.type	_ZN8opendnp311Group13Var111WriteTargetERKNS_18BinaryCommandEventERN7openpal6WSliceE, @function
_ZN8opendnp311Group13Var111WriteTargetERKNS_18BinaryCommandEventERN7openpal6WSliceE:
.LFB398:
	.cfi_startproc
	pushq	%rbp
	.cfi_def_cfa_offset 16
	.cfi_offset 6, -16
	movq	%rdi, %rbp
	pushq	%rbx
	.cfi_def_cfa_offset 24
	.cfi_offset 3, -24
	subq	$40, %rsp
	.cfi_def_cfa_offset 64
	leaq	31(%rsp), %rdi
	movq	%rsi, 8(%rsp)
	call	_ZN8opendnp311Group13Var1C1Ev@PLT
	movq	%rbp, %rdi
	call	_ZNK8opendnp318BinaryCommandEvent8GetFlagsEv@PLT
	movq	8(%rsp), %rsi
	leaq	31(%rsp), %rdi
	movb	%al, 31(%rsp)
	call	_ZN8opendnp311Group13Var15WriteERKS0_RN7openpal6WSliceE@PLT
	addq	$40, %rsp
	.cfi_def_cfa_offset 24
	popq	%rbx
	.cfi_def_cfa_offset 16
	popq	%rbp
	.cfi_def_cfa_offset 8
	ret
	.cfi_endproc
.LFE398:
	.size	_ZN8opendnp311Group13Var111WriteTargetERKNS_18BinaryCommandEventERN7openpal6WSliceE, .-_ZN8opendnp311Group13Var111WriteTargetERKNS_18BinaryCommandEventERN7openpal6WSliceE
	.align 2
	.p2align 4
	.globl	_ZN8opendnp311Group13Var2C2Ev
	.type	_ZN8opendnp311Group13Var2C2Ev, @function
_ZN8opendnp311Group13Var2C2Ev:
.LFB400:
	.cfi_startproc
	movq	$0, (%rdi)
	movq	$0, 8(%rdi)
	ret
	.cfi_endproc
.LFE400:
	.size	_ZN8opendnp311Group13Var2C2Ev, .-_ZN8opendnp311Group13Var2C2Ev
	.globl	_ZN8opendnp311Group13Var2C1Ev
	.set	_ZN8opendnp311Group13Var2C1Ev,_ZN8opendnp311Group13Var2C2Ev
	.align 2
	.p2align 4
	.globl	_ZN8opendnp311Group13Var24ReadERN7openpal6RSliceERS0_
	.type	_ZN8opendnp311Group13Var24ReadERN7openpal6RSliceERS0_, @function
_ZN8opendnp311Group13Var24ReadERN7openpal6RSliceERS0_:
.LFB402:
	.cfi_startproc
	pushq	%rbp
	.cfi_def_cfa_offset 16
	.cfi_offset 6, -16
	movq	%rdi, %rbp
	pushq	%rbx
	.cfi_def_cfa_offset 24
	.cfi_offset 3, -24
	movq	%rsi, %rbx
	subq	$8, %rsp
	.cfi_def_cfa_offset 32
	call	_ZN7openpal5Parse4ReadERNS_6RSliceERh@PLT
	testb	%al, %al
	jne	.L18
	addq	$8, %rsp
	.cfi_remember_state
	.cfi_def_cfa_offset 24
	xorl	%eax, %eax
	popq	%rbx
	.cfi_def_cfa_offset 16
	popq	%rbp
	.cfi_def_cfa_offset 8
	ret
	.p2align 4,,10
	.p2align 3
.L18:
	.cfi_restore_state
	addq	$8, %rsp
	.cfi_def_cfa_offset 24
	leaq	8(%rbx), %rsi
	movq	%rbp, %rdi
	popq	%rbx
	.cfi_def_cfa_offset 16
	popq	%rbp
	.cfi_def_cfa_offset 8
	jmp	_ZN7openpal5Parse4ReadERNS_6RSliceERNS_10UInt48TypeE@PLT
	.cfi_endproc
.LFE402:
	.size	_ZN8opendnp311Group13Var24ReadERN7openpal6RSliceERS0_, .-_ZN8opendnp311Group13Var24ReadERN7openpal6RSliceERS0_
	.align 2
	.p2align 4
	.globl	_ZN8opendnp311Group13Var25WriteERKS0_RN7openpal6WSliceE
	.type	_ZN8opendnp311Group13Var25WriteERKS0_RN7openpal6WSliceE, @function
_ZN8opendnp311Group13Var25WriteERKS0_RN7openpal6WSliceE:
.LFB403:
	.cfi_startproc
	pushq	%rbp
	.cfi_def_cfa_offset 16
	.cfi_offset 6, -16
	movq	%rsi, %rbp
	movq	%rdi, %rsi
	pushq	%rbx
	.cfi_def_cfa_offset 24
	.cfi_offset 3, -24
	movq	%rdi, %rbx
	movq	%rbp, %rdi
	subq	$8, %rsp
	.cfi_def_cfa_offset 32
	call	_ZN7openpal6Format5WriteERNS_6WSliceERKh@PLT
	testb	%al, %al
	jne	.L22
	addq	$8, %rsp
	.cfi_remember_state
	.cfi_def_cfa_offset 24
	xorl	%eax, %eax
	popq	%rbx
	.cfi_def_cfa_offset 16
	popq	%rbp
	.cfi_def_cfa_offset 8
	ret
	.p2align 4,,10
	.p2align 3
.L22:
	.cfi_restore_state
	addq	$8, %rsp
	.cfi_def_cfa_offset 24
	leaq	8(%rbx), %rsi
	movq	%rbp, %rdi
	popq	%rbx
	.cfi_def_cfa_offset 16
	popq	%rbp
	.cfi_def_cfa_offset 8
	jmp	_ZN7openpal6Format5WriteERNS_6WSliceERKNS_10UInt48TypeE@PLT
	.cfi_endproc
.LFE403:
	.size	_ZN8opendnp311Group13Var25WriteERKS0_RN7openpal6WSliceE, .-_ZN8opendnp311Group13Var25WriteERKS0_RN7openpal6WSliceE
	.align 2
	.p2align 4
	.globl	_ZN8opendnp311Group13Var210ReadTargetERN7openpal6RSliceERNS_18BinaryCommandEventE
	.type	_ZN8opendnp311Group13Var210ReadTargetERN7openpal6RSliceERNS_18BinaryCommandEventE, @function
_ZN8opendnp311Group13Var210ReadTargetERN7openpal6RSliceERNS_18BinaryCommandEventE:
.LFB404:
	.cfi_startproc
	pushq	%r12
	.cfi_def_cfa_offset 16
	.cfi_offset 12, -16
	movq	%rsi, %r12
	pushq	%rbp
	.cfi_def_cfa_offset 24
	.cfi_offset 6, -24
	movq	%rdi, %rbp
	pushq	%rbx
	.cfi_def_cfa_offset 32
	.cfi_offset 3, -32
	subq	$48, %rsp
	.cfi_def_cfa_offset 80
	leaq	16(%rsp), %rdi
	call	_ZN8opendnp311Group13Var2C1Ev@PLT
	leaq	16(%rsp), %rsi
	movq	%rbp, %rdi
	call	_ZN8opendnp311Group13Var24ReadERN7openpal6RSliceERS0_@PLT
	testb	%al, %al
	jne	.L29
	addq	$48, %rsp
	.cfi_remember_state
	.cfi_def_cfa_offset 32
	popq	%rbx
	.cfi_def_cfa_offset 24
	popq	%rbp
	.cfi_def_cfa_offset 16
	popq	%r12
	.cfi_def_cfa_offset 8
	ret
	.p2align 4,,10
	.p2align 3
.L29:
	.cfi_restore_state
	movq	24(%rsp), %rdx
	movzbl	16(%rsp), %esi
	leaq	32(%rsp), %rdi
	movb	%al, 15(%rsp)
	call	_ZN8opendnp318BinaryCommandEventC1ENS_5FlagsEN7openpal10UInt48TypeE@PLT
	movzwl	32(%rsp), %edx
	movzbl	15(%rsp), %eax
	movw	%dx, (%r12)
	movq	40(%rsp), %rdx
	movq	%rdx, 8(%r12)
	addq	$48, %rsp
	.cfi_def_cfa_offset 32
	popq	%rbx
	.cfi_def_cfa_offset 24
	popq	%rbp
	.cfi_def_cfa_offset 16
	popq	%r12
	.cfi_def_cfa_offset 8
	ret
	.cfi_endproc
.LFE404:
	.size	_ZN8opendnp311Group13Var210ReadTargetERN7openpal6RSliceERNS_18BinaryCommandEventE, .-_ZN8opendnp311Group13Var210ReadTargetERN7openpal6RSliceERNS_18BinaryCommandEventE
	.align 2
	.p2align 4
	.globl	_ZN8opendnp311Group13Var211WriteTargetERKNS_18BinaryCommandEventERN7openpal6WSliceE
	.type	_ZN8opendnp311Group13Var211WriteTargetERKNS_18BinaryCommandEventERN7openpal6WSliceE, @function
_ZN8opendnp311Group13Var211WriteTargetERKNS_18BinaryCommandEventERN7openpal6WSliceE:
.LFB405:
	.cfi_startproc
	pushq	%rbp
	.cfi_def_cfa_offset 16
	.cfi_offset 6, -16
	movq	%rdi, %rbp
	pushq	%rbx
	.cfi_def_cfa_offset 24
	.cfi_offset 3, -24
	subq	$40, %rsp
	.cfi_def_cfa_offset 64
	leaq	16(%rsp), %rdi
	movq	%rsi, 8(%rsp)
	call	_ZN8opendnp311Group13Var2C1Ev@PLT
	movq	%rbp, %rdi
	call	_ZNK8opendnp318BinaryCommandEvent8GetFlagsEv@PLT
	movq	8(%rbp), %rdx
	movq	8(%rsp), %rsi
	leaq	16(%rsp), %rdi
	movb	%al, 16(%rsp)
	movq	%rdx, 24(%rsp)
	call	_ZN8opendnp311Group13Var25WriteERKS0_RN7openpal6WSliceE@PLT
	addq	$40, %rsp
	.cfi_def_cfa_offset 24
	popq	%rbx
	.cfi_def_cfa_offset 16
	popq	%rbp
	.cfi_def_cfa_offset 8
	ret
	.cfi_endproc
.LFE405:
	.size	_ZN8opendnp311Group13Var211WriteTargetERKNS_18BinaryCommandEventERN7openpal6WSliceE, .-_ZN8opendnp311Group13Var211WriteTargetERKNS_18BinaryCommandEventERN7openpal6WSliceE
	.ident	"GCC: (Debian 15.2.0-4) 15.2.0"
	.section	.note.GNU-stack,"",@progbits
