	.file	"Group120.cpp"
	.text
	.section	.text._ZNK8opendnp312Group120Var110InstanceIDEv,"axG",@progbits,_ZNK8opendnp312Group120Var110InstanceIDEv,comdat
	.align 2
	.p2align 4
	.weak	_ZNK8opendnp312Group120Var110InstanceIDEv
	.type	_ZNK8opendnp312Group120Var110InstanceIDEv, @function
_ZNK8opendnp312Group120Var110InstanceIDEv:
.LFB28:
	.cfi_startproc
	movl	$376, %eax
	ret
	.cfi_endproc
.LFE28:
	.size	_ZNK8opendnp312Group120Var110InstanceIDEv, .-_ZNK8opendnp312Group120Var110InstanceIDEv
	.section	.text._ZNK8opendnp312Group120Var210InstanceIDEv,"axG",@progbits,_ZNK8opendnp312Group120Var210InstanceIDEv,comdat
	.align 2
	.p2align 4
	.weak	_ZNK8opendnp312Group120Var210InstanceIDEv
	.type	_ZNK8opendnp312Group120Var210InstanceIDEv, @function
_ZNK8opendnp312Group120Var210InstanceIDEv:
.LFB30:
	.cfi_startproc
	movl	$632, %eax
	ret
	.cfi_endproc
.LFE30:
	.size	_ZNK8opendnp312Group120Var210InstanceIDEv, .-_ZNK8opendnp312Group120Var210InstanceIDEv
	.section	.text._ZNK8opendnp312Group120Var510InstanceIDEv,"axG",@progbits,_ZNK8opendnp312Group120Var510InstanceIDEv,comdat
	.align 2
	.p2align 4
	.weak	_ZNK8opendnp312Group120Var510InstanceIDEv
	.type	_ZNK8opendnp312Group120Var510InstanceIDEv, @function
_ZNK8opendnp312Group120Var510InstanceIDEv:
.LFB36:
	.cfi_startproc
	movl	$1400, %eax
	ret
	.cfi_endproc
.LFE36:
	.size	_ZNK8opendnp312Group120Var510InstanceIDEv, .-_ZNK8opendnp312Group120Var510InstanceIDEv
	.section	.text._ZNK8opendnp312Group120Var610InstanceIDEv,"axG",@progbits,_ZNK8opendnp312Group120Var610InstanceIDEv,comdat
	.align 2
	.p2align 4
	.weak	_ZNK8opendnp312Group120Var610InstanceIDEv
	.type	_ZNK8opendnp312Group120Var610InstanceIDEv, @function
_ZNK8opendnp312Group120Var610InstanceIDEv:
.LFB38:
	.cfi_startproc
	movl	$1656, %eax
	ret
	.cfi_endproc
.LFE38:
	.size	_ZNK8opendnp312Group120Var610InstanceIDEv, .-_ZNK8opendnp312Group120Var610InstanceIDEv
	.section	.text._ZNK8opendnp312Group120Var710InstanceIDEv,"axG",@progbits,_ZNK8opendnp312Group120Var710InstanceIDEv,comdat
	.align 2
	.p2align 4
	.weak	_ZNK8opendnp312Group120Var710InstanceIDEv
	.type	_ZNK8opendnp312Group120Var710InstanceIDEv, @function
_ZNK8opendnp312Group120Var710InstanceIDEv:
.LFB40:
	.cfi_startproc
	movl	$1912, %eax
	ret
	.cfi_endproc
.LFE40:
	.size	_ZNK8opendnp312Group120Var710InstanceIDEv, .-_ZNK8opendnp312Group120Var710InstanceIDEv
	.section	.text._ZNK8opendnp312Group120Var810InstanceIDEv,"axG",@progbits,_ZNK8opendnp312Group120Var810InstanceIDEv,comdat
	.align 2
	.p2align 4
	.weak	_ZNK8opendnp312Group120Var810InstanceIDEv
	.type	_ZNK8opendnp312Group120Var810InstanceIDEv, @function
_ZNK8opendnp312Group120Var810InstanceIDEv:
.LFB42:
	.cfi_startproc
	movl	$2168, %eax
	ret
	.cfi_endproc
.LFE42:
	.size	_ZNK8opendnp312Group120Var810InstanceIDEv, .-_ZNK8opendnp312Group120Var810InstanceIDEv
	.section	.text._ZNK8opendnp312Group120Var910InstanceIDEv,"axG",@progbits,_ZNK8opendnp312Group120Var910InstanceIDEv,comdat
	.align 2
	.p2align 4
	.weak	_ZNK8opendnp312Group120Var910InstanceIDEv
	.type	_ZNK8opendnp312Group120Var910InstanceIDEv, @function
_ZNK8opendnp312Group120Var910InstanceIDEv:
.LFB44:
	.cfi_startproc
	movl	$2424, %eax
	ret
	.cfi_endproc
.LFE44:
	.size	_ZNK8opendnp312Group120Var910InstanceIDEv, .-_ZNK8opendnp312Group120Var910InstanceIDEv
	.section	.text._ZNK8opendnp313Group120Var1010InstanceIDEv,"axG",@progbits,_ZNK8opendnp313Group120Var1010InstanceIDEv,comdat
	.align 2
	.p2align 4
	.weak	_ZNK8opendnp313Group120Var1010InstanceIDEv
	.type	_ZNK8opendnp313Group120Var1010InstanceIDEv, @function
_ZNK8opendnp313Group120Var1010InstanceIDEv:
.LFB46:
	.cfi_startproc
	movl	$2680, %eax
	ret
	.cfi_endproc
.LFE46:
	.size	_ZNK8opendnp313Group120Var1010InstanceIDEv, .-_ZNK8opendnp313Group120Var1010InstanceIDEv
	.section	.text._ZNK8opendnp313Group120Var1110InstanceIDEv,"axG",@progbits,_ZNK8opendnp313Group120Var1110InstanceIDEv,comdat
	.align 2
	.p2align 4
	.weak	_ZNK8opendnp313Group120Var1110InstanceIDEv
	.type	_ZNK8opendnp313Group120Var1110InstanceIDEv, @function
_ZNK8opendnp313Group120Var1110InstanceIDEv:
.LFB48:
	.cfi_startproc
	movl	$2936, %eax
	ret
	.cfi_endproc
.LFE48:
	.size	_ZNK8opendnp313Group120Var1110InstanceIDEv, .-_ZNK8opendnp313Group120Var1110InstanceIDEv
	.section	.text._ZNK8opendnp313Group120Var1210InstanceIDEv,"axG",@progbits,_ZNK8opendnp313Group120Var1210InstanceIDEv,comdat
	.align 2
	.p2align 4
	.weak	_ZNK8opendnp313Group120Var1210InstanceIDEv
	.type	_ZNK8opendnp313Group120Var1210InstanceIDEv, @function
_ZNK8opendnp313Group120Var1210InstanceIDEv:
.LFB50:
	.cfi_startproc
	movl	$3192, %eax
	ret
	.cfi_endproc
.LFE50:
	.size	_ZNK8opendnp313Group120Var1210InstanceIDEv, .-_ZNK8opendnp313Group120Var1210InstanceIDEv
	.section	.text._ZNK8opendnp313Group120Var1310InstanceIDEv,"axG",@progbits,_ZNK8opendnp313Group120Var1310InstanceIDEv,comdat
	.align 2
	.p2align 4
	.weak	_ZNK8opendnp313Group120Var1310InstanceIDEv
	.type	_ZNK8opendnp313Group120Var1310InstanceIDEv, @function
_ZNK8opendnp313Group120Var1310InstanceIDEv:
.LFB52:
	.cfi_startproc
	movl	$3448, %eax
	ret
	.cfi_endproc
.LFE52:
	.size	_ZNK8opendnp313Group120Var1310InstanceIDEv, .-_ZNK8opendnp313Group120Var1310InstanceIDEv
	.section	.text._ZNK8opendnp313Group120Var1410InstanceIDEv,"axG",@progbits,_ZNK8opendnp313Group120Var1410InstanceIDEv,comdat
	.align 2
	.p2align 4
	.weak	_ZNK8opendnp313Group120Var1410InstanceIDEv
	.type	_ZNK8opendnp313Group120Var1410InstanceIDEv, @function
_ZNK8opendnp313Group120Var1410InstanceIDEv:
.LFB54:
	.cfi_startproc
	movl	$3704, %eax
	ret
	.cfi_endproc
.LFE54:
	.size	_ZNK8opendnp313Group120Var1410InstanceIDEv, .-_ZNK8opendnp313Group120Var1410InstanceIDEv
	.section	.text._ZNK8opendnp313Group120Var1510InstanceIDEv,"axG",@progbits,_ZNK8opendnp313Group120Var1510InstanceIDEv,comdat
	.align 2
	.p2align 4
	.weak	_ZNK8opendnp313Group120Var1510InstanceIDEv
	.type	_ZNK8opendnp313Group120Var1510InstanceIDEv, @function
_ZNK8opendnp313Group120Var1510InstanceIDEv:
.LFB56:
	.cfi_startproc
	movl	$3960, %eax
	ret
	.cfi_endproc
.LFE56:
	.size	_ZNK8opendnp313Group120Var1510InstanceIDEv, .-_ZNK8opendnp313Group120Var1510InstanceIDEv
	.text
	.align 2
	.p2align 4
	.globl	_ZNK8opendnp312Group120Var14SizeEv
	.type	_ZNK8opendnp312Group120Var14SizeEv, @function
_ZNK8opendnp312Group120Var14SizeEv:
.LFB116:
	.cfi_startproc
	movl	16(%rdi), %eax
	addl	$8, %eax
	ret
	.cfi_endproc
.LFE116:
	.size	_ZNK8opendnp312Group120Var14SizeEv, .-_ZNK8opendnp312Group120Var14SizeEv
	.globl	_ZNK8opendnp313Group120Var134SizeEv
	.set	_ZNK8opendnp313Group120Var134SizeEv,_ZNK8opendnp312Group120Var14SizeEv
	.globl	_ZNK8opendnp313Group120Var124SizeEv
	.set	_ZNK8opendnp313Group120Var124SizeEv,_ZNK8opendnp312Group120Var14SizeEv
	.align 2
	.p2align 4
	.globl	_ZNK8opendnp312Group120Var24SizeEv
	.type	_ZNK8opendnp312Group120Var24SizeEv, @function
_ZNK8opendnp312Group120Var24SizeEv:
.LFB125:
	.cfi_startproc
	movl	16(%rdi), %eax
	addl	$6, %eax
	ret
	.cfi_endproc
.LFE125:
	.size	_ZNK8opendnp312Group120Var24SizeEv, .-_ZNK8opendnp312Group120Var24SizeEv
	.globl	_ZNK8opendnp312Group120Var64SizeEv
	.set	_ZNK8opendnp312Group120Var64SizeEv,_ZNK8opendnp312Group120Var24SizeEv
	.align 2
	.p2align 4
	.globl	_ZNK8opendnp312Group120Var54SizeEv
	.type	_ZNK8opendnp312Group120Var54SizeEv, @function
_ZNK8opendnp312Group120Var54SizeEv:
.LFB144:
	.cfi_startproc
	movl	24(%rdi), %eax
	addl	40(%rdi), %eax
	addl	$11, %eax
	ret
	.cfi_endproc
.LFE144:
	.size	_ZNK8opendnp312Group120Var54SizeEv, .-_ZNK8opendnp312Group120Var54SizeEv
	.align 2
	.p2align 4
	.globl	_ZNK8opendnp312Group120Var74SizeEv
	.type	_ZNK8opendnp312Group120Var74SizeEv, @function
_ZNK8opendnp312Group120Var74SizeEv:
.LFB162:
	.cfi_startproc
	movl	32(%rdi), %eax
	addl	$15, %eax
	ret
	.cfi_endproc
.LFE162:
	.size	_ZNK8opendnp312Group120Var74SizeEv, .-_ZNK8opendnp312Group120Var74SizeEv
	.align 2
	.p2align 4
	.globl	_ZNK8opendnp312Group120Var84SizeEv
	.type	_ZNK8opendnp312Group120Var84SizeEv, @function
_ZNK8opendnp312Group120Var84SizeEv:
.LFB171:
	.cfi_startproc
	movl	16(%rdi), %eax
	addl	$2, %eax
	ret
	.cfi_endproc
.LFE171:
	.size	_ZNK8opendnp312Group120Var84SizeEv, .-_ZNK8opendnp312Group120Var84SizeEv
	.align 2
	.p2align 4
	.globl	_ZNK8opendnp312Group120Var94SizeEv
	.type	_ZNK8opendnp312Group120Var94SizeEv, @function
_ZNK8opendnp312Group120Var94SizeEv:
.LFB180:
	.cfi_startproc
	movl	8(%rdi), %eax
	ret
	.cfi_endproc
.LFE180:
	.size	_ZNK8opendnp312Group120Var94SizeEv, .-_ZNK8opendnp312Group120Var94SizeEv
	.globl	_ZNK8opendnp313Group120Var154SizeEv
	.set	_ZNK8opendnp313Group120Var154SizeEv,_ZNK8opendnp312Group120Var94SizeEv
	.globl	_ZNK8opendnp313Group120Var144SizeEv
	.set	_ZNK8opendnp313Group120Var144SizeEv,_ZNK8opendnp312Group120Var94SizeEv
	.align 2
	.p2align 4
	.globl	_ZN8opendnp312Group120Var94ReadERKN7openpal6RSliceE
	.type	_ZN8opendnp312Group120Var94ReadERKN7openpal6RSliceE, @function
_ZN8opendnp312Group120Var94ReadERKN7openpal6RSliceE:
.LFB181:
	.cfi_startproc
	movdqu	(%rsi), %xmm0
	movl	$1, %eax
	movups	%xmm0, 8(%rdi)
	ret
	.cfi_endproc
.LFE181:
	.size	_ZN8opendnp312Group120Var94ReadERKN7openpal6RSliceE, .-_ZN8opendnp312Group120Var94ReadERKN7openpal6RSliceE
	.align 2
	.p2align 4
	.globl	_ZNK8opendnp313Group120Var104SizeEv
	.type	_ZNK8opendnp313Group120Var104SizeEv, @function
_ZNK8opendnp313Group120Var104SizeEv:
.LFB189:
	.cfi_startproc
	movl	56(%rdi), %edx
	movl	40(%rdi), %eax
	addl	24(%rdi), %eax
	leal	16(%rax,%rdx), %eax
	ret
	.cfi_endproc
.LFE189:
	.size	_ZNK8opendnp313Group120Var104SizeEv, .-_ZNK8opendnp313Group120Var104SizeEv
	.align 2
	.p2align 4
	.globl	_ZNK8opendnp313Group120Var114SizeEv
	.type	_ZNK8opendnp313Group120Var114SizeEv, @function
_ZNK8opendnp313Group120Var114SizeEv:
.LFB198:
	.cfi_startproc
	movl	16(%rdi), %eax
	addl	32(%rdi), %eax
	addl	$5, %eax
	ret
	.cfi_endproc
.LFE198:
	.size	_ZNK8opendnp313Group120Var114SizeEv, .-_ZNK8opendnp313Group120Var114SizeEv
	.align 2
	.p2align 4
	.globl	_ZN8opendnp313Group120Var144ReadERKN7openpal6RSliceE
	.type	_ZN8opendnp313Group120Var144ReadERKN7openpal6RSliceE, @function
_ZN8opendnp313Group120Var144ReadERKN7openpal6RSliceE:
.LFB226:
	.cfi_startproc
	movdqu	(%rsi), %xmm0
	movl	$1, %eax
	movups	%xmm0, 8(%rdi)
	ret
	.cfi_endproc
.LFE226:
	.size	_ZN8opendnp313Group120Var144ReadERKN7openpal6RSliceE, .-_ZN8opendnp313Group120Var144ReadERKN7openpal6RSliceE
	.align 2
	.p2align 4
	.globl	_ZN8opendnp313Group120Var154ReadERKN7openpal6RSliceE
	.type	_ZN8opendnp313Group120Var154ReadERKN7openpal6RSliceE, @function
_ZN8opendnp313Group120Var154ReadERKN7openpal6RSliceE:
.LFB235:
	.cfi_startproc
	movdqu	(%rsi), %xmm0
	movl	$1, %eax
	movups	%xmm0, 8(%rdi)
	ret
	.cfi_endproc
.LFE235:
	.size	_ZN8opendnp313Group120Var154ReadERKN7openpal6RSliceE, .-_ZN8opendnp313Group120Var154ReadERKN7openpal6RSliceE
	.section	.text._ZN8opendnp313Group120Var15D2Ev,"axG",@progbits,_ZN8opendnp313Group120Var15D5Ev,comdat
	.align 2
	.p2align 4
	.weak	_ZN8opendnp313Group120Var15D2Ev
	.type	_ZN8opendnp313Group120Var15D2Ev, @function
_ZN8opendnp313Group120Var15D2Ev:
.LFB273:
	.cfi_startproc
	ret
	.cfi_endproc
.LFE273:
	.size	_ZN8opendnp313Group120Var15D2Ev, .-_ZN8opendnp313Group120Var15D2Ev
	.weak	_ZN8opendnp313Group120Var15D1Ev
	.set	_ZN8opendnp313Group120Var15D1Ev,_ZN8opendnp313Group120Var15D2Ev
	.section	.text._ZN8opendnp313Group120Var14D2Ev,"axG",@progbits,_ZN8opendnp313Group120Var14D5Ev,comdat
	.align 2
	.p2align 4
	.weak	_ZN8opendnp313Group120Var14D2Ev
	.type	_ZN8opendnp313Group120Var14D2Ev, @function
_ZN8opendnp313Group120Var14D2Ev:
.LFB277:
	.cfi_startproc
	ret
	.cfi_endproc
.LFE277:
	.size	_ZN8opendnp313Group120Var14D2Ev, .-_ZN8opendnp313Group120Var14D2Ev
	.weak	_ZN8opendnp313Group120Var14D1Ev
	.set	_ZN8opendnp313Group120Var14D1Ev,_ZN8opendnp313Group120Var14D2Ev
	.section	.text._ZN8opendnp313Group120Var13D2Ev,"axG",@progbits,_ZN8opendnp313Group120Var13D5Ev,comdat
	.align 2
	.p2align 4
	.weak	_ZN8opendnp313Group120Var13D2Ev
	.type	_ZN8opendnp313Group120Var13D2Ev, @function
_ZN8opendnp313Group120Var13D2Ev:
.LFB281:
	.cfi_startproc
	ret
	.cfi_endproc
.LFE281:
	.size	_ZN8opendnp313Group120Var13D2Ev, .-_ZN8opendnp313Group120Var13D2Ev
	.weak	_ZN8opendnp313Group120Var13D1Ev
	.set	_ZN8opendnp313Group120Var13D1Ev,_ZN8opendnp313Group120Var13D2Ev
	.section	.text._ZN8opendnp313Group120Var12D2Ev,"axG",@progbits,_ZN8opendnp313Group120Var12D5Ev,comdat
	.align 2
	.p2align 4
	.weak	_ZN8opendnp313Group120Var12D2Ev
	.type	_ZN8opendnp313Group120Var12D2Ev, @function
_ZN8opendnp313Group120Var12D2Ev:
.LFB285:
	.cfi_startproc
	ret
	.cfi_endproc
.LFE285:
	.size	_ZN8opendnp313Group120Var12D2Ev, .-_ZN8opendnp313Group120Var12D2Ev
	.weak	_ZN8opendnp313Group120Var12D1Ev
	.set	_ZN8opendnp313Group120Var12D1Ev,_ZN8opendnp313Group120Var12D2Ev
	.section	.text._ZN8opendnp313Group120Var11D2Ev,"axG",@progbits,_ZN8opendnp313Group120Var11D5Ev,comdat
	.align 2
	.p2align 4
	.weak	_ZN8opendnp313Group120Var11D2Ev
	.type	_ZN8opendnp313Group120Var11D2Ev, @function
_ZN8opendnp313Group120Var11D2Ev:
.LFB289:
	.cfi_startproc
	ret
	.cfi_endproc
.LFE289:
	.size	_ZN8opendnp313Group120Var11D2Ev, .-_ZN8opendnp313Group120Var11D2Ev
	.weak	_ZN8opendnp313Group120Var11D1Ev
	.set	_ZN8opendnp313Group120Var11D1Ev,_ZN8opendnp313Group120Var11D2Ev
	.section	.text._ZN8opendnp313Group120Var10D2Ev,"axG",@progbits,_ZN8opendnp313Group120Var10D5Ev,comdat
	.align 2
	.p2align 4
	.weak	_ZN8opendnp313Group120Var10D2Ev
	.type	_ZN8opendnp313Group120Var10D2Ev, @function
_ZN8opendnp313Group120Var10D2Ev:
.LFB293:
	.cfi_startproc
	ret
	.cfi_endproc
.LFE293:
	.size	_ZN8opendnp313Group120Var10D2Ev, .-_ZN8opendnp313Group120Var10D2Ev
	.weak	_ZN8opendnp313Group120Var10D1Ev
	.set	_ZN8opendnp313Group120Var10D1Ev,_ZN8opendnp313Group120Var10D2Ev
	.section	.text._ZN8opendnp312Group120Var9D2Ev,"axG",@progbits,_ZN8opendnp312Group120Var9D5Ev,comdat
	.align 2
	.p2align 4
	.weak	_ZN8opendnp312Group120Var9D2Ev
	.type	_ZN8opendnp312Group120Var9D2Ev, @function
_ZN8opendnp312Group120Var9D2Ev:
.LFB297:
	.cfi_startproc
	ret
	.cfi_endproc
.LFE297:
	.size	_ZN8opendnp312Group120Var9D2Ev, .-_ZN8opendnp312Group120Var9D2Ev
	.weak	_ZN8opendnp312Group120Var9D1Ev
	.set	_ZN8opendnp312Group120Var9D1Ev,_ZN8opendnp312Group120Var9D2Ev
	.section	.text._ZN8opendnp312Group120Var8D2Ev,"axG",@progbits,_ZN8opendnp312Group120Var8D5Ev,comdat
	.align 2
	.p2align 4
	.weak	_ZN8opendnp312Group120Var8D2Ev
	.type	_ZN8opendnp312Group120Var8D2Ev, @function
_ZN8opendnp312Group120Var8D2Ev:
.LFB301:
	.cfi_startproc
	ret
	.cfi_endproc
.LFE301:
	.size	_ZN8opendnp312Group120Var8D2Ev, .-_ZN8opendnp312Group120Var8D2Ev
	.weak	_ZN8opendnp312Group120Var8D1Ev
	.set	_ZN8opendnp312Group120Var8D1Ev,_ZN8opendnp312Group120Var8D2Ev
	.section	.text._ZN8opendnp312Group120Var7D2Ev,"axG",@progbits,_ZN8opendnp312Group120Var7D5Ev,comdat
	.align 2
	.p2align 4
	.weak	_ZN8opendnp312Group120Var7D2Ev
	.type	_ZN8opendnp312Group120Var7D2Ev, @function
_ZN8opendnp312Group120Var7D2Ev:
.LFB305:
	.cfi_startproc
	ret
	.cfi_endproc
.LFE305:
	.size	_ZN8opendnp312Group120Var7D2Ev, .-_ZN8opendnp312Group120Var7D2Ev
	.weak	_ZN8opendnp312Group120Var7D1Ev
	.set	_ZN8opendnp312Group120Var7D1Ev,_ZN8opendnp312Group120Var7D2Ev
	.section	.text._ZN8opendnp312Group120Var6D2Ev,"axG",@progbits,_ZN8opendnp312Group120Var6D5Ev,comdat
	.align 2
	.p2align 4
	.weak	_ZN8opendnp312Group120Var6D2Ev
	.type	_ZN8opendnp312Group120Var6D2Ev, @function
_ZN8opendnp312Group120Var6D2Ev:
.LFB309:
	.cfi_startproc
	ret
	.cfi_endproc
.LFE309:
	.size	_ZN8opendnp312Group120Var6D2Ev, .-_ZN8opendnp312Group120Var6D2Ev
	.weak	_ZN8opendnp312Group120Var6D1Ev
	.set	_ZN8opendnp312Group120Var6D1Ev,_ZN8opendnp312Group120Var6D2Ev
	.section	.text._ZN8opendnp312Group120Var5D2Ev,"axG",@progbits,_ZN8opendnp312Group120Var5D5Ev,comdat
	.align 2
	.p2align 4
	.weak	_ZN8opendnp312Group120Var5D2Ev
	.type	_ZN8opendnp312Group120Var5D2Ev, @function
_ZN8opendnp312Group120Var5D2Ev:
.LFB313:
	.cfi_startproc
	ret
	.cfi_endproc
.LFE313:
	.size	_ZN8opendnp312Group120Var5D2Ev, .-_ZN8opendnp312Group120Var5D2Ev
	.weak	_ZN8opendnp312Group120Var5D1Ev
	.set	_ZN8opendnp312Group120Var5D1Ev,_ZN8opendnp312Group120Var5D2Ev
	.section	.text._ZN8opendnp312Group120Var2D2Ev,"axG",@progbits,_ZN8opendnp312Group120Var2D5Ev,comdat
	.align 2
	.p2align 4
	.weak	_ZN8opendnp312Group120Var2D2Ev
	.type	_ZN8opendnp312Group120Var2D2Ev, @function
_ZN8opendnp312Group120Var2D2Ev:
.LFB317:
	.cfi_startproc
	ret
	.cfi_endproc
.LFE317:
	.size	_ZN8opendnp312Group120Var2D2Ev, .-_ZN8opendnp312Group120Var2D2Ev
	.weak	_ZN8opendnp312Group120Var2D1Ev
	.set	_ZN8opendnp312Group120Var2D1Ev,_ZN8opendnp312Group120Var2D2Ev
	.section	.text._ZN8opendnp312Group120Var1D2Ev,"axG",@progbits,_ZN8opendnp312Group120Var1D5Ev,comdat
	.align 2
	.p2align 4
	.weak	_ZN8opendnp312Group120Var1D2Ev
	.type	_ZN8opendnp312Group120Var1D2Ev, @function
_ZN8opendnp312Group120Var1D2Ev:
.LFB321:
	.cfi_startproc
	ret
	.cfi_endproc
.LFE321:
	.size	_ZN8opendnp312Group120Var1D2Ev, .-_ZN8opendnp312Group120Var1D2Ev
	.weak	_ZN8opendnp312Group120Var1D1Ev
	.set	_ZN8opendnp312Group120Var1D1Ev,_ZN8opendnp312Group120Var1D2Ev
	.section	.text._ZN8opendnp313Group120Var15D0Ev,"axG",@progbits,_ZN8opendnp313Group120Var15D5Ev,comdat
	.align 2
	.p2align 4
	.weak	_ZN8opendnp313Group120Var15D0Ev
	.type	_ZN8opendnp313Group120Var15D0Ev, @function
_ZN8opendnp313Group120Var15D0Ev:
.LFB275:
	.cfi_startproc
	movl	$24, %esi
	jmp	_ZdlPvm@PLT
	.cfi_endproc
.LFE275:
	.size	_ZN8opendnp313Group120Var15D0Ev, .-_ZN8opendnp313Group120Var15D0Ev
	.section	.text._ZN8opendnp313Group120Var14D0Ev,"axG",@progbits,_ZN8opendnp313Group120Var14D5Ev,comdat
	.align 2
	.p2align 4
	.weak	_ZN8opendnp313Group120Var14D0Ev
	.type	_ZN8opendnp313Group120Var14D0Ev, @function
_ZN8opendnp313Group120Var14D0Ev:
.LFB279:
	.cfi_startproc
	movl	$24, %esi
	jmp	_ZdlPvm@PLT
	.cfi_endproc
.LFE279:
	.size	_ZN8opendnp313Group120Var14D0Ev, .-_ZN8opendnp313Group120Var14D0Ev
	.section	.text._ZN8opendnp313Group120Var13D0Ev,"axG",@progbits,_ZN8opendnp313Group120Var13D5Ev,comdat
	.align 2
	.p2align 4
	.weak	_ZN8opendnp313Group120Var13D0Ev
	.type	_ZN8opendnp313Group120Var13D0Ev, @function
_ZN8opendnp313Group120Var13D0Ev:
.LFB283:
	.cfi_startproc
	movl	$32, %esi
	jmp	_ZdlPvm@PLT
	.cfi_endproc
.LFE283:
	.size	_ZN8opendnp313Group120Var13D0Ev, .-_ZN8opendnp313Group120Var13D0Ev
	.section	.text._ZN8opendnp313Group120Var12D0Ev,"axG",@progbits,_ZN8opendnp313Group120Var12D5Ev,comdat
	.align 2
	.p2align 4
	.weak	_ZN8opendnp313Group120Var12D0Ev
	.type	_ZN8opendnp313Group120Var12D0Ev, @function
_ZN8opendnp313Group120Var12D0Ev:
.LFB287:
	.cfi_startproc
	movl	$32, %esi
	jmp	_ZdlPvm@PLT
	.cfi_endproc
.LFE287:
	.size	_ZN8opendnp313Group120Var12D0Ev, .-_ZN8opendnp313Group120Var12D0Ev
	.section	.text._ZN8opendnp313Group120Var11D0Ev,"axG",@progbits,_ZN8opendnp313Group120Var11D5Ev,comdat
	.align 2
	.p2align 4
	.weak	_ZN8opendnp313Group120Var11D0Ev
	.type	_ZN8opendnp313Group120Var11D0Ev, @function
_ZN8opendnp313Group120Var11D0Ev:
.LFB291:
	.cfi_startproc
	movl	$48, %esi
	jmp	_ZdlPvm@PLT
	.cfi_endproc
.LFE291:
	.size	_ZN8opendnp313Group120Var11D0Ev, .-_ZN8opendnp313Group120Var11D0Ev
	.section	.text._ZN8opendnp313Group120Var10D0Ev,"axG",@progbits,_ZN8opendnp313Group120Var10D5Ev,comdat
	.align 2
	.p2align 4
	.weak	_ZN8opendnp313Group120Var10D0Ev
	.type	_ZN8opendnp313Group120Var10D0Ev, @function
_ZN8opendnp313Group120Var10D0Ev:
.LFB295:
	.cfi_startproc
	movl	$72, %esi
	jmp	_ZdlPvm@PLT
	.cfi_endproc
.LFE295:
	.size	_ZN8opendnp313Group120Var10D0Ev, .-_ZN8opendnp313Group120Var10D0Ev
	.section	.text._ZN8opendnp312Group120Var9D0Ev,"axG",@progbits,_ZN8opendnp312Group120Var9D5Ev,comdat
	.align 2
	.p2align 4
	.weak	_ZN8opendnp312Group120Var9D0Ev
	.type	_ZN8opendnp312Group120Var9D0Ev, @function
_ZN8opendnp312Group120Var9D0Ev:
.LFB299:
	.cfi_startproc
	movl	$24, %esi
	jmp	_ZdlPvm@PLT
	.cfi_endproc
.LFE299:
	.size	_ZN8opendnp312Group120Var9D0Ev, .-_ZN8opendnp312Group120Var9D0Ev
	.section	.text._ZN8opendnp312Group120Var8D0Ev,"axG",@progbits,_ZN8opendnp312Group120Var8D5Ev,comdat
	.align 2
	.p2align 4
	.weak	_ZN8opendnp312Group120Var8D0Ev
	.type	_ZN8opendnp312Group120Var8D0Ev, @function
_ZN8opendnp312Group120Var8D0Ev:
.LFB303:
	.cfi_startproc
	movl	$32, %esi
	jmp	_ZdlPvm@PLT
	.cfi_endproc
.LFE303:
	.size	_ZN8opendnp312Group120Var8D0Ev, .-_ZN8opendnp312Group120Var8D0Ev
	.section	.text._ZN8opendnp312Group120Var7D0Ev,"axG",@progbits,_ZN8opendnp312Group120Var7D5Ev,comdat
	.align 2
	.p2align 4
	.weak	_ZN8opendnp312Group120Var7D0Ev
	.type	_ZN8opendnp312Group120Var7D0Ev, @function
_ZN8opendnp312Group120Var7D0Ev:
.LFB307:
	.cfi_startproc
	movl	$48, %esi
	jmp	_ZdlPvm@PLT
	.cfi_endproc
.LFE307:
	.size	_ZN8opendnp312Group120Var7D0Ev, .-_ZN8opendnp312Group120Var7D0Ev
	.section	.text._ZN8opendnp312Group120Var6D0Ev,"axG",@progbits,_ZN8opendnp312Group120Var6D5Ev,comdat
	.align 2
	.p2align 4
	.weak	_ZN8opendnp312Group120Var6D0Ev
	.type	_ZN8opendnp312Group120Var6D0Ev, @function
_ZN8opendnp312Group120Var6D0Ev:
.LFB311:
	.cfi_startproc
	movl	$32, %esi
	jmp	_ZdlPvm@PLT
	.cfi_endproc
.LFE311:
	.size	_ZN8opendnp312Group120Var6D0Ev, .-_ZN8opendnp312Group120Var6D0Ev
	.section	.text._ZN8opendnp312Group120Var5D0Ev,"axG",@progbits,_ZN8opendnp312Group120Var5D5Ev,comdat
	.align 2
	.p2align 4
	.weak	_ZN8opendnp312Group120Var5D0Ev
	.type	_ZN8opendnp312Group120Var5D0Ev, @function
_ZN8opendnp312Group120Var5D0Ev:
.LFB315:
	.cfi_startproc
	movl	$56, %esi
	jmp	_ZdlPvm@PLT
	.cfi_endproc
.LFE315:
	.size	_ZN8opendnp312Group120Var5D0Ev, .-_ZN8opendnp312Group120Var5D0Ev
	.section	.text._ZN8opendnp312Group120Var2D0Ev,"axG",@progbits,_ZN8opendnp312Group120Var2D5Ev,comdat
	.align 2
	.p2align 4
	.weak	_ZN8opendnp312Group120Var2D0Ev
	.type	_ZN8opendnp312Group120Var2D0Ev, @function
_ZN8opendnp312Group120Var2D0Ev:
.LFB319:
	.cfi_startproc
	movl	$32, %esi
	jmp	_ZdlPvm@PLT
	.cfi_endproc
.LFE319:
	.size	_ZN8opendnp312Group120Var2D0Ev, .-_ZN8opendnp312Group120Var2D0Ev
	.section	.text._ZN8opendnp312Group120Var1D0Ev,"axG",@progbits,_ZN8opendnp312Group120Var1D5Ev,comdat
	.align 2
	.p2align 4
	.weak	_ZN8opendnp312Group120Var1D0Ev
	.type	_ZN8opendnp312Group120Var1D0Ev, @function
_ZN8opendnp312Group120Var1D0Ev:
.LFB323:
	.cfi_startproc
	movl	$32, %esi
	jmp	_ZdlPvm@PLT
	.cfi_endproc
.LFE323:
	.size	_ZN8opendnp312Group120Var1D0Ev, .-_ZN8opendnp312Group120Var1D0Ev
	.text
	.align 2
	.p2align 4
	.globl	_ZNK8opendnp312Group120Var95WriteERN7openpal6WSliceE
	.type	_ZNK8opendnp312Group120Var95WriteERN7openpal6WSliceE, @function
_ZNK8opendnp312Group120Var95WriteERN7openpal6WSliceE:
.LFB182:
	.cfi_startproc
	pushq	%rbp
	.cfi_def_cfa_offset 16
	.cfi_offset 6, -16
	movq	%rsi, %rbp
	pushq	%rbx
	.cfi_def_cfa_offset 24
	.cfi_offset 3, -24
	movq	%rdi, %rbx
	subq	$8, %rsp
	.cfi_def_cfa_offset 32
	call	_ZNK8opendnp312Group120Var94SizeEv@PLT
	movl	%eax, %edx
	xorl	%eax, %eax
	cmpl	%edx, 0(%rbp)
	jb	.L52
	leaq	8(%rbx), %rdi
	movq	%rbp, %rsi
	call	_ZNK7openpal6RSlice6CopyToERNS_6WSliceE@PLT
	movl	$1, %eax
.L52:
	addq	$8, %rsp
	.cfi_def_cfa_offset 24
	popq	%rbx
	.cfi_def_cfa_offset 16
	popq	%rbp
	.cfi_def_cfa_offset 8
	ret
	.cfi_endproc
.LFE182:
	.size	_ZNK8opendnp312Group120Var95WriteERN7openpal6WSliceE, .-_ZNK8opendnp312Group120Var95WriteERN7openpal6WSliceE
	.align 2
	.p2align 4
	.globl	_ZNK8opendnp313Group120Var145WriteERN7openpal6WSliceE
	.type	_ZNK8opendnp313Group120Var145WriteERN7openpal6WSliceE, @function
_ZNK8opendnp313Group120Var145WriteERN7openpal6WSliceE:
.LFB227:
	.cfi_startproc
	pushq	%rbp
	.cfi_def_cfa_offset 16
	.cfi_offset 6, -16
	movq	%rsi, %rbp
	pushq	%rbx
	.cfi_def_cfa_offset 24
	.cfi_offset 3, -24
	movq	%rdi, %rbx
	subq	$8, %rsp
	.cfi_def_cfa_offset 32
	call	_ZNK8opendnp313Group120Var144SizeEv@PLT
	movl	%eax, %edx
	xorl	%eax, %eax
	cmpl	%edx, 0(%rbp)
	jb	.L57
	leaq	8(%rbx), %rdi
	movq	%rbp, %rsi
	call	_ZNK7openpal6RSlice6CopyToERNS_6WSliceE@PLT
	movl	$1, %eax
.L57:
	addq	$8, %rsp
	.cfi_def_cfa_offset 24
	popq	%rbx
	.cfi_def_cfa_offset 16
	popq	%rbp
	.cfi_def_cfa_offset 8
	ret
	.cfi_endproc
.LFE227:
	.size	_ZNK8opendnp313Group120Var145WriteERN7openpal6WSliceE, .-_ZNK8opendnp313Group120Var145WriteERN7openpal6WSliceE
	.align 2
	.p2align 4
	.globl	_ZNK8opendnp313Group120Var155WriteERN7openpal6WSliceE
	.type	_ZNK8opendnp313Group120Var155WriteERN7openpal6WSliceE, @function
_ZNK8opendnp313Group120Var155WriteERN7openpal6WSliceE:
.LFB236:
	.cfi_startproc
	pushq	%rbp
	.cfi_def_cfa_offset 16
	.cfi_offset 6, -16
	movq	%rsi, %rbp
	pushq	%rbx
	.cfi_def_cfa_offset 24
	.cfi_offset 3, -24
	movq	%rdi, %rbx
	subq	$8, %rsp
	.cfi_def_cfa_offset 32
	call	_ZNK8opendnp313Group120Var154SizeEv@PLT
	movl	%eax, %edx
	xorl	%eax, %eax
	cmpl	%edx, 0(%rbp)
	jb	.L62
	leaq	8(%rbx), %rdi
	movq	%rbp, %rsi
	call	_ZNK7openpal6RSlice6CopyToERNS_6WSliceE@PLT
	movl	$1, %eax
.L62:
	addq	$8, %rsp
	.cfi_def_cfa_offset 24
	popq	%rbx
	.cfi_def_cfa_offset 16
	popq	%rbp
	.cfi_def_cfa_offset 8
	ret
	.cfi_endproc
.LFE236:
	.size	_ZNK8opendnp313Group120Var155WriteERN7openpal6WSliceE, .-_ZNK8opendnp313Group120Var155WriteERN7openpal6WSliceE
	.align 2
	.p2align 4
	.globl	_ZN8opendnp313Group120Var104ReadERKN7openpal6RSliceE
	.type	_ZN8opendnp313Group120Var104ReadERKN7openpal6RSliceE, @function
_ZN8opendnp313Group120Var104ReadERKN7openpal6RSliceE:
.LFB190:
	.cfi_startproc
	cmpl	$15, (%rsi)
	ja	.L79
	xorl	%eax, %eax
	ret
	.p2align 4,,10
	.p2align 3
.L79:
	pushq	%r13
	.cfi_def_cfa_offset 16
	.cfi_offset 13, -16
	pushq	%r12
	.cfi_def_cfa_offset 24
	.cfi_offset 12, -24
	pushq	%rbp
	.cfi_def_cfa_offset 32
	.cfi_offset 6, -32
	pushq	%rbx
	.cfi_def_cfa_offset 40
	.cfi_offset 3, -40
	movq	%rdi, %rbx
	subq	$56, %rsp
	.cfi_def_cfa_offset 96
	movdqu	(%rsi), %xmm0
	movl	$1, %esi
	leaq	32(%rsp), %r12
	movaps	%xmm0, 32(%rsp)
	movq	40(%rsp), %rax
	movq	%r12, %rdi
	movzbl	(%rax), %ebp
	call	_ZN7openpal6RSlice7AdvanceEj@PLT
	movzbl	%bpl, %edi
	call	_ZN8opendnp323KeyChangeMethodFromTypeEh@PLT
	movl	$1, %esi
	movq	%r12, %rdi
	movb	%al, 8(%rbx)
	movq	40(%rsp), %rax
	movzbl	(%rax), %ebp
	call	_ZN7openpal6RSlice7AdvanceEj@PLT
	movzbl	%bpl, %edi
	call	_ZN8opendnp321UserOperationFromTypeEh@PLT
	movl	$4, %esi
	movq	%r12, %rdi
	movb	%al, 9(%rbx)
	movq	40(%rsp), %rax
	movl	(%rax), %ebp
	call	_ZN7openpal6RSlice7AdvanceEj@PLT
	movq	40(%rsp), %rax
	movl	$2, %esi
	movq	%r12, %rdi
	movl	%ebp, 12(%rbx)
	movzwl	(%rax), %ebp
	call	_ZN7openpal6RSlice7AdvanceEj@PLT
	movq	40(%rsp), %rax
	movw	%bp, 16(%rbx)
	movq	%r12, %rdi
	movl	$2, %esi
	movzwl	(%rax), %ebp
	call	_ZN7openpal6RSlice7AdvanceEj@PLT
	movw	%bp, 18(%rbx)
	leaq	26(%rsp), %rbp
	cmpl	$5, 32(%rsp)
	jbe	.L68
.L71:
	movq	40(%rsp), %rax
	movl	$2, %esi
	movq	%r12, %rdi
	addq	$2, %rbp
	movzwl	(%rax), %r13d
	call	_ZN7openpal6RSlice7AdvanceEj@PLT
	movw	%r13w, -2(%rbp)
	cmpq	%r12, %rbp
	jne	.L71
	movzwl	26(%rsp), %esi
	movzwl	28(%rsp), %r13d
	movzwl	30(%rsp), %r12d
	leal	(%rsi,%r13), %eax
	addl	%r12d, %eax
	cmpl	%eax, 32(%rsp)
	jnb	.L80
.L68:
	addq	$56, %rsp
	.cfi_remember_state
	.cfi_def_cfa_offset 40
	xorl	%eax, %eax
	popq	%rbx
	.cfi_def_cfa_offset 32
	popq	%rbp
	.cfi_def_cfa_offset 24
	popq	%r12
	.cfi_def_cfa_offset 16
	popq	%r13
	.cfi_def_cfa_offset 8
	ret
	.p2align 4,,10
	.p2align 3
.L80:
	.cfi_restore_state
	movq	%rbp, %rdi
	movl	%esi, 12(%rsp)
	call	_ZNK7openpal6RSlice4TakeEj@PLT
	movl	12(%rsp), %esi
	movq	%rbp, %rdi
	movl	%eax, 24(%rbx)
	movq	%rdx, 32(%rbx)
	call	_ZN7openpal6RSlice7AdvanceEj@PLT
	movl	%r13d, %esi
	movq	%rbp, %rdi
	call	_ZNK7openpal6RSlice4TakeEj@PLT
	movl	%r13d, %esi
	movq	%rbp, %rdi
	movl	%eax, 40(%rbx)
	movq	%rdx, 48(%rbx)
	call	_ZN7openpal6RSlice7AdvanceEj@PLT
	movl	%r12d, %esi
	movq	%rbp, %rdi
	call	_ZNK7openpal6RSlice4TakeEj@PLT
	movl	%r12d, %esi
	movq	%rbp, %rdi
	movl	%eax, 56(%rbx)
	movq	%rdx, 64(%rbx)
	call	_ZN7openpal6RSlice7AdvanceEj@PLT
	movl	32(%rsp), %eax
	testl	%eax, %eax
	sete	%al
	addq	$56, %rsp
	.cfi_def_cfa_offset 40
	popq	%rbx
	.cfi_def_cfa_offset 32
	popq	%rbp
	.cfi_def_cfa_offset 24
	popq	%r12
	.cfi_def_cfa_offset 16
	popq	%r13
	.cfi_def_cfa_offset 8
	ret
	.cfi_endproc
.LFE190:
	.size	_ZN8opendnp313Group120Var104ReadERKN7openpal6RSliceE, .-_ZN8opendnp313Group120Var104ReadERKN7openpal6RSliceE
	.align 2
	.p2align 4
	.globl	_ZNK8opendnp312Group120Var85WriteERN7openpal6WSliceE
	.type	_ZNK8opendnp312Group120Var85WriteERN7openpal6WSliceE, @function
_ZNK8opendnp312Group120Var85WriteERN7openpal6WSliceE:
.LFB173:
	.cfi_startproc
	pushq	%rbp
	.cfi_def_cfa_offset 16
	.cfi_offset 6, -16
	movq	%rsi, %rbp
	pushq	%rbx
	.cfi_def_cfa_offset 24
	.cfi_offset 3, -24
	movq	%rdi, %rbx
	subq	$8, %rsp
	.cfi_def_cfa_offset 32
	call	_ZNK8opendnp312Group120Var84SizeEv@PLT
	movl	%eax, %edx
	xorl	%eax, %eax
	cmpl	%edx, 0(%rbp)
	jb	.L81
	movzbl	8(%rbx), %edi
	call	_ZN8opendnp321KeyChangeMethodToTypeENS_15KeyChangeMethodE@PLT
	movq	8(%rbp), %rdx
	movl	$1, %esi
	movq	%rbp, %rdi
	movb	%al, (%rdx)
	call	_ZN7openpal6WSlice7AdvanceEj@PLT
	movzbl	9(%rbx), %edi
	call	_ZN8opendnp321CertificateTypeToTypeENS_15CertificateTypeE@PLT
	movq	8(%rbp), %rdx
	movl	$1, %esi
	movq	%rbp, %rdi
	movb	%al, (%rdx)
	call	_ZN7openpal6WSlice7AdvanceEj@PLT
	leaq	16(%rbx), %rdi
	movq	%rbp, %rsi
	call	_ZNK7openpal6RSlice6CopyToERNS_6WSliceE@PLT
	movl	$1, %eax
.L81:
	addq	$8, %rsp
	.cfi_def_cfa_offset 24
	popq	%rbx
	.cfi_def_cfa_offset 16
	popq	%rbp
	.cfi_def_cfa_offset 8
	ret
	.cfi_endproc
.LFE173:
	.size	_ZNK8opendnp312Group120Var85WriteERN7openpal6WSliceE, .-_ZNK8opendnp312Group120Var85WriteERN7openpal6WSliceE
	.align 2
	.p2align 4
	.globl	_ZN8opendnp312Group120Var84ReadERKN7openpal6RSliceE
	.type	_ZN8opendnp312Group120Var84ReadERKN7openpal6RSliceE, @function
_ZN8opendnp312Group120Var84ReadERKN7openpal6RSliceE:
.LFB172:
	.cfi_startproc
	movl	(%rsi), %edx
	cmpl	$1, %edx
	jbe	.L89
	pushq	%r14
	.cfi_def_cfa_offset 16
	.cfi_offset 14, -16
	pushq	%rbx
	.cfi_def_cfa_offset 24
	.cfi_offset 3, -24
	movq	%rdi, %rbx
	subq	$40, %rsp
	.cfi_def_cfa_offset 64
	movq	8(%rsi), %rax
	movl	$1, %esi
	movl	%edx, 16(%rsp)
	leaq	16(%rsp), %rdx
	movq	%rax, 24(%rsp)
	movzbl	(%rax), %r14d
	movq	%rdx, %rdi
	movq	%rdx, 8(%rsp)
	call	_ZN7openpal6RSlice7AdvanceEj@PLT
	movzbl	%r14b, %edi
	call	_ZN8opendnp323KeyChangeMethodFromTypeEh@PLT
	movq	8(%rsp), %rdi
	movl	$1, %esi
	movb	%al, 8(%rbx)
	movq	24(%rsp), %rax
	movzbl	(%rax), %r14d
	call	_ZN7openpal6RSlice7AdvanceEj@PLT
	movzbl	%r14b, %edi
	call	_ZN8opendnp323CertificateTypeFromTypeEh@PLT
	movdqa	16(%rsp), %xmm0
	movb	%al, 9(%rbx)
	movl	$1, %eax
	movups	%xmm0, 16(%rbx)
	addq	$40, %rsp
	.cfi_def_cfa_offset 24
	popq	%rbx
	.cfi_def_cfa_offset 16
	popq	%r14
	.cfi_def_cfa_offset 8
	ret
	.p2align 4,,10
	.p2align 3
.L89:
	.cfi_restore 3
	.cfi_restore 14
	xorl	%eax, %eax
	ret
	.cfi_endproc
.LFE172:
	.size	_ZN8opendnp312Group120Var84ReadERKN7openpal6RSliceE, .-_ZN8opendnp312Group120Var84ReadERKN7openpal6RSliceE
	.align 2
	.p2align 4
	.globl	_ZNK8opendnp313Group120Var105WriteERN7openpal6WSliceE
	.type	_ZNK8opendnp313Group120Var105WriteERN7openpal6WSliceE, @function
_ZNK8opendnp313Group120Var105WriteERN7openpal6WSliceE:
.LFB191:
	.cfi_startproc
	pushq	%rbp
	.cfi_def_cfa_offset 16
	.cfi_offset 6, -16
	movq	%rdi, %rbp
	pushq	%rbx
	.cfi_def_cfa_offset 24
	.cfi_offset 3, -24
	movq	%rsi, %rbx
	subq	$24, %rsp
	.cfi_def_cfa_offset 48
	call	_ZNK8opendnp313Group120Var104SizeEv@PLT
	cmpl	%eax, (%rbx)
	jnb	.L95
.L97:
	addq	$24, %rsp
	.cfi_remember_state
	.cfi_def_cfa_offset 24
	xorl	%eax, %eax
	popq	%rbx
	.cfi_def_cfa_offset 16
	popq	%rbp
	.cfi_def_cfa_offset 8
	ret
	.p2align 4,,10
	.p2align 3
.L95:
	.cfi_restore_state
	movl	24(%rbp), %edx
	movl	%edx, 12(%rsp)
	call	_ZN7openpal8MaxValueItEET_v@PLT
	movzwl	%ax, %eax
	cmpl	12(%rsp), %eax
	jb	.L97
	movl	40(%rbp), %edx
	movl	%edx, 12(%rsp)
	call	_ZN7openpal8MaxValueItEET_v@PLT
	movzwl	%ax, %eax
	cmpl	12(%rsp), %eax
	jb	.L97
	movl	56(%rbp), %edx
	movl	%edx, 12(%rsp)
	call	_ZN7openpal8MaxValueItEET_v@PLT
	movzwl	%ax, %eax
	cmpl	12(%rsp), %eax
	jb	.L97
	movzbl	8(%rbp), %edi
	call	_ZN8opendnp321KeyChangeMethodToTypeENS_15KeyChangeMethodE@PLT
	movq	8(%rbx), %rdx
	movl	$1, %esi
	movq	%rbx, %rdi
	movb	%al, (%rdx)
	call	_ZN7openpal6WSlice7AdvanceEj@PLT
	movzbl	9(%rbp), %edi
	call	_ZN8opendnp319UserOperationToTypeENS_13UserOperationE@PLT
	movq	8(%rbx), %rdx
	movl	$1, %esi
	movq	%rbx, %rdi
	movb	%al, (%rdx)
	call	_ZN7openpal6WSlice7AdvanceEj@PLT
	movl	12(%rbp), %edx
	movq	8(%rbx), %rax
	movq	%rbx, %rdi
	movl	$4, %esi
	movl	%edx, (%rax)
	call	_ZN7openpal6WSlice7AdvanceEj@PLT
	movzwl	16(%rbp), %edx
	movq	8(%rbx), %rax
	movq	%rbx, %rdi
	movl	$2, %esi
	movw	%dx, (%rax)
	call	_ZN7openpal6WSlice7AdvanceEj@PLT
	movzwl	18(%rbp), %edx
	movq	8(%rbx), %rax
	movq	%rbx, %rdi
	movl	$2, %esi
	movw	%dx, (%rax)
	call	_ZN7openpal6WSlice7AdvanceEj@PLT
	movl	56(%rbp), %edx
	movl	40(%rbp), %eax
	addl	24(%rbp), %eax
	movzwl	24(%rbp), %ecx
	leal	6(%rax,%rdx), %eax
	cmpl	%eax, (%rbx)
	jb	.L97
	movq	8(%rbx), %rax
	movq	%rbx, %rdi
	movl	$2, %esi
	movw	%cx, (%rax)
	call	_ZN7openpal6WSlice7AdvanceEj@PLT
	movzwl	40(%rbp), %edx
	movq	8(%rbx), %rax
	movq	%rbx, %rdi
	movl	$2, %esi
	movw	%dx, (%rax)
	call	_ZN7openpal6WSlice7AdvanceEj@PLT
	movzwl	56(%rbp), %edx
	movq	8(%rbx), %rax
	movq	%rbx, %rdi
	movl	$2, %esi
	movw	%dx, (%rax)
	call	_ZN7openpal6WSlice7AdvanceEj@PLT
	leaq	24(%rbp), %rdi
	movq	%rbx, %rsi
	call	_ZNK7openpal6RSlice6CopyToERNS_6WSliceE@PLT
	leaq	40(%rbp), %rdi
	movq	%rbx, %rsi
	call	_ZNK7openpal6RSlice6CopyToERNS_6WSliceE@PLT
	leaq	56(%rbp), %rdi
	movq	%rbx, %rsi
	call	_ZNK7openpal6RSlice6CopyToERNS_6WSliceE@PLT
	addq	$24, %rsp
	.cfi_def_cfa_offset 24
	movl	$1, %eax
	popq	%rbx
	.cfi_def_cfa_offset 16
	popq	%rbp
	.cfi_def_cfa_offset 8
	ret
	.cfi_endproc
.LFE191:
	.size	_ZNK8opendnp313Group120Var105WriteERN7openpal6WSliceE, .-_ZNK8opendnp313Group120Var105WriteERN7openpal6WSliceE
	.align 2
	.p2align 4
	.globl	_ZN8opendnp313Group120Var114ReadERKN7openpal6RSliceE
	.type	_ZN8opendnp313Group120Var114ReadERKN7openpal6RSliceE, @function
_ZN8opendnp313Group120Var114ReadERKN7openpal6RSliceE:
.LFB199:
	.cfi_startproc
	cmpl	$4, (%rsi)
	ja	.L108
	xorl	%eax, %eax
	ret
	.p2align 4,,10
	.p2align 3
.L108:
	pushq	%r15
	.cfi_def_cfa_offset 16
	.cfi_offset 15, -16
	pushq	%r14
	.cfi_def_cfa_offset 24
	.cfi_offset 14, -24
	pushq	%rbp
	.cfi_def_cfa_offset 32
	.cfi_offset 6, -32
	pushq	%rbx
	.cfi_def_cfa_offset 40
	.cfi_offset 3, -40
	movq	%rdi, %rbx
	subq	$40, %rsp
	.cfi_def_cfa_offset 80
	movdqu	(%rsi), %xmm0
	movl	$1, %esi
	leaq	16(%rsp), %rbp
	movaps	%xmm0, 16(%rsp)
	movq	24(%rsp), %rax
	movq	%rbp, %rdi
	movzbl	(%rax), %r14d
	call	_ZN7openpal6RSlice7AdvanceEj@PLT
	movzbl	%r14b, %edi
	call	_ZN8opendnp323KeyChangeMethodFromTypeEh@PLT
	movb	%al, 8(%rbx)
	cmpl	$3, 16(%rsp)
	jbe	.L100
	movq	24(%rsp), %rax
	movl	$2, %esi
	movq	%rbp, %rdi
	movzwl	(%rax), %r14d
	call	_ZN7openpal6RSlice7AdvanceEj@PLT
	movq	24(%rsp), %rax
	movl	$2, %esi
	movq	%rbp, %rdi
	movzwl	(%rax), %r15d
	call	_ZN7openpal6RSlice7AdvanceEj@PLT
	movzwl	%r14w, %esi
	movzwl	%r15w, %r14d
	leal	(%rsi,%r14), %eax
	cmpl	%eax, 16(%rsp)
	jnb	.L109
.L100:
	addq	$40, %rsp
	.cfi_remember_state
	.cfi_def_cfa_offset 40
	xorl	%eax, %eax
	popq	%rbx
	.cfi_def_cfa_offset 32
	popq	%rbp
	.cfi_def_cfa_offset 24
	popq	%r14
	.cfi_def_cfa_offset 16
	popq	%r15
	.cfi_def_cfa_offset 8
	ret
	.p2align 4,,10
	.p2align 3
.L109:
	.cfi_restore_state
	movq	%rbp, %rdi
	movl	%esi, 12(%rsp)
	call	_ZNK7openpal6RSlice4TakeEj@PLT
	movl	12(%rsp), %esi
	movq	%rbp, %rdi
	movl	%eax, 16(%rbx)
	movq	%rdx, 24(%rbx)
	call	_ZN7openpal6RSlice7AdvanceEj@PLT
	movl	%r14d, %esi
	movq	%rbp, %rdi
	call	_ZNK7openpal6RSlice4TakeEj@PLT
	movl	%r14d, %esi
	movq	%rbp, %rdi
	movl	%eax, 32(%rbx)
	movq	%rdx, 40(%rbx)
	call	_ZN7openpal6RSlice7AdvanceEj@PLT
	movl	16(%rsp), %eax
	testl	%eax, %eax
	sete	%al
	addq	$40, %rsp
	.cfi_def_cfa_offset 40
	popq	%rbx
	.cfi_def_cfa_offset 32
	popq	%rbp
	.cfi_def_cfa_offset 24
	popq	%r14
	.cfi_def_cfa_offset 16
	popq	%r15
	.cfi_def_cfa_offset 8
	ret
	.cfi_endproc
.LFE199:
	.size	_ZN8opendnp313Group120Var114ReadERKN7openpal6RSliceE, .-_ZN8opendnp313Group120Var114ReadERKN7openpal6RSliceE
	.align 2
	.p2align 4
	.globl	_ZNK8opendnp313Group120Var115WriteERN7openpal6WSliceE
	.type	_ZNK8opendnp313Group120Var115WriteERN7openpal6WSliceE, @function
_ZNK8opendnp313Group120Var115WriteERN7openpal6WSliceE:
.LFB200:
	.cfi_startproc
	pushq	%rbp
	.cfi_def_cfa_offset 16
	.cfi_offset 6, -16
	movq	%rsi, %rbp
	pushq	%rbx
	.cfi_def_cfa_offset 24
	.cfi_offset 3, -24
	movq	%rdi, %rbx
	subq	$24, %rsp
	.cfi_def_cfa_offset 48
	call	_ZNK8opendnp313Group120Var114SizeEv@PLT
	cmpl	%eax, 0(%rbp)
	jnb	.L111
.L113:
	addq	$24, %rsp
	.cfi_remember_state
	.cfi_def_cfa_offset 24
	xorl	%eax, %eax
	popq	%rbx
	.cfi_def_cfa_offset 16
	popq	%rbp
	.cfi_def_cfa_offset 8
	ret
	.p2align 4,,10
	.p2align 3
.L111:
	.cfi_restore_state
	movl	16(%rbx), %edx
	movl	%edx, 12(%rsp)
	call	_ZN7openpal8MaxValueItEET_v@PLT
	movzwl	%ax, %eax
	cmpl	12(%rsp), %eax
	jb	.L113
	movl	32(%rbx), %edx
	movl	%edx, 12(%rsp)
	call	_ZN7openpal8MaxValueItEET_v@PLT
	movzwl	%ax, %eax
	cmpl	12(%rsp), %eax
	jb	.L113
	movzbl	8(%rbx), %edi
	call	_ZN8opendnp321KeyChangeMethodToTypeENS_15KeyChangeMethodE@PLT
	movq	8(%rbp), %rdx
	movl	$1, %esi
	movq	%rbp, %rdi
	movb	%al, (%rdx)
	call	_ZN7openpal6WSlice7AdvanceEj@PLT
	movl	32(%rbx), %eax
	addl	16(%rbx), %eax
	movzwl	16(%rbx), %edx
	addl	$4, %eax
	cmpl	%eax, 0(%rbp)
	jb	.L113
	movq	8(%rbp), %rax
	movq	%rbp, %rdi
	movl	$2, %esi
	movw	%dx, (%rax)
	call	_ZN7openpal6WSlice7AdvanceEj@PLT
	movzwl	32(%rbx), %edx
	movq	8(%rbp), %rax
	movq	%rbp, %rdi
	movl	$2, %esi
	movw	%dx, (%rax)
	call	_ZN7openpal6WSlice7AdvanceEj@PLT
	leaq	16(%rbx), %rdi
	movq	%rbp, %rsi
	call	_ZNK7openpal6RSlice6CopyToERNS_6WSliceE@PLT
	leaq	32(%rbx), %rdi
	movq	%rbp, %rsi
	call	_ZNK7openpal6RSlice6CopyToERNS_6WSliceE@PLT
	addq	$24, %rsp
	.cfi_def_cfa_offset 24
	movl	$1, %eax
	popq	%rbx
	.cfi_def_cfa_offset 16
	popq	%rbp
	.cfi_def_cfa_offset 8
	ret
	.cfi_endproc
.LFE200:
	.size	_ZNK8opendnp313Group120Var115WriteERN7openpal6WSliceE, .-_ZNK8opendnp313Group120Var115WriteERN7openpal6WSliceE
	.align 2
	.p2align 4
	.globl	_ZNK8opendnp312Group120Var25WriteERN7openpal6WSliceE
	.type	_ZNK8opendnp312Group120Var25WriteERN7openpal6WSliceE, @function
_ZNK8opendnp312Group120Var25WriteERN7openpal6WSliceE:
.LFB127:
	.cfi_startproc
	pushq	%rbp
	.cfi_def_cfa_offset 16
	.cfi_offset 6, -16
	movq	%rsi, %rbp
	pushq	%rbx
	.cfi_def_cfa_offset 24
	.cfi_offset 3, -24
	movq	%rdi, %rbx
	subq	$8, %rsp
	.cfi_def_cfa_offset 32
	call	_ZNK8opendnp312Group120Var24SizeEv@PLT
	movl	%eax, %edx
	xorl	%eax, %eax
	cmpl	%edx, 0(%rbp)
	jb	.L115
	movl	8(%rbx), %edx
	movq	8(%rbp), %rax
	movl	$4, %esi
	movq	%rbp, %rdi
	movl	%edx, (%rax)
	call	_ZN7openpal6WSlice7AdvanceEj@PLT
	movzwl	12(%rbx), %edx
	movq	8(%rbp), %rax
	movq	%rbp, %rdi
	movl	$2, %esi
	movw	%dx, (%rax)
	call	_ZN7openpal6WSlice7AdvanceEj@PLT
	leaq	16(%rbx), %rdi
	movq	%rbp, %rsi
	call	_ZNK7openpal6RSlice6CopyToERNS_6WSliceE@PLT
	movl	$1, %eax
.L115:
	addq	$8, %rsp
	.cfi_def_cfa_offset 24
	popq	%rbx
	.cfi_def_cfa_offset 16
	popq	%rbp
	.cfi_def_cfa_offset 8
	ret
	.cfi_endproc
.LFE127:
	.size	_ZNK8opendnp312Group120Var25WriteERN7openpal6WSliceE, .-_ZNK8opendnp312Group120Var25WriteERN7openpal6WSliceE
	.align 2
	.p2align 4
	.globl	_ZNK8opendnp312Group120Var65WriteERN7openpal6WSliceE
	.type	_ZNK8opendnp312Group120Var65WriteERN7openpal6WSliceE, @function
_ZNK8opendnp312Group120Var65WriteERN7openpal6WSliceE:
.LFB155:
	.cfi_startproc
	pushq	%rbp
	.cfi_def_cfa_offset 16
	.cfi_offset 6, -16
	movq	%rsi, %rbp
	pushq	%rbx
	.cfi_def_cfa_offset 24
	.cfi_offset 3, -24
	movq	%rdi, %rbx
	subq	$8, %rsp
	.cfi_def_cfa_offset 32
	call	_ZNK8opendnp312Group120Var64SizeEv@PLT
	movl	%eax, %edx
	xorl	%eax, %eax
	cmpl	%edx, 0(%rbp)
	jb	.L120
	movl	8(%rbx), %edx
	movq	8(%rbp), %rax
	movl	$4, %esi
	movq	%rbp, %rdi
	movl	%edx, (%rax)
	call	_ZN7openpal6WSlice7AdvanceEj@PLT
	movzwl	12(%rbx), %edx
	movq	8(%rbp), %rax
	movq	%rbp, %rdi
	movl	$2, %esi
	movw	%dx, (%rax)
	call	_ZN7openpal6WSlice7AdvanceEj@PLT
	leaq	16(%rbx), %rdi
	movq	%rbp, %rsi
	call	_ZNK7openpal6RSlice6CopyToERNS_6WSliceE@PLT
	movl	$1, %eax
.L120:
	addq	$8, %rsp
	.cfi_def_cfa_offset 24
	popq	%rbx
	.cfi_def_cfa_offset 16
	popq	%rbp
	.cfi_def_cfa_offset 8
	ret
	.cfi_endproc
.LFE155:
	.size	_ZNK8opendnp312Group120Var65WriteERN7openpal6WSliceE, .-_ZNK8opendnp312Group120Var65WriteERN7openpal6WSliceE
	.align 2
	.p2align 4
	.globl	_ZNK8opendnp312Group120Var15WriteERN7openpal6WSliceE
	.type	_ZNK8opendnp312Group120Var15WriteERN7openpal6WSliceE, @function
_ZNK8opendnp312Group120Var15WriteERN7openpal6WSliceE:
.LFB118:
	.cfi_startproc
	pushq	%rbp
	.cfi_def_cfa_offset 16
	.cfi_offset 6, -16
	movq	%rdi, %rbp
	pushq	%rbx
	.cfi_def_cfa_offset 24
	.cfi_offset 3, -24
	movq	%rsi, %rbx
	subq	$8, %rsp
	.cfi_def_cfa_offset 32
	call	_ZNK8opendnp312Group120Var14SizeEv@PLT
	movl	%eax, %edx
	xorl	%eax, %eax
	cmpl	%edx, (%rbx)
	jb	.L125
	movl	8(%rbp), %edx
	movq	8(%rbx), %rax
	movl	$4, %esi
	movq	%rbx, %rdi
	movl	%edx, (%rax)
	call	_ZN7openpal6WSlice7AdvanceEj@PLT
	movzwl	12(%rbp), %edx
	movq	8(%rbx), %rax
	movq	%rbx, %rdi
	movl	$2, %esi
	movw	%dx, (%rax)
	call	_ZN7openpal6WSlice7AdvanceEj@PLT
	movzbl	14(%rbp), %edi
	call	_ZN8opendnp314HMACTypeToTypeENS_8HMACTypeE@PLT
	movq	8(%rbx), %rdx
	movl	$1, %esi
	movq	%rbx, %rdi
	movb	%al, (%rdx)
	call	_ZN7openpal6WSlice7AdvanceEj@PLT
	movzbl	15(%rbp), %edi
	call	_ZN8opendnp321ChallengeReasonToTypeENS_15ChallengeReasonE@PLT
	movq	8(%rbx), %rdx
	movl	$1, %esi
	movq	%rbx, %rdi
	movb	%al, (%rdx)
	call	_ZN7openpal6WSlice7AdvanceEj@PLT
	leaq	16(%rbp), %rdi
	movq	%rbx, %rsi
	call	_ZNK7openpal6RSlice6CopyToERNS_6WSliceE@PLT
	movl	$1, %eax
.L125:
	addq	$8, %rsp
	.cfi_def_cfa_offset 24
	popq	%rbx
	.cfi_def_cfa_offset 16
	popq	%rbp
	.cfi_def_cfa_offset 8
	ret
	.cfi_endproc
.LFE118:
	.size	_ZNK8opendnp312Group120Var15WriteERN7openpal6WSliceE, .-_ZNK8opendnp312Group120Var15WriteERN7openpal6WSliceE
	.align 2
	.p2align 4
	.globl	_ZNK8opendnp312Group120Var75WriteERN7openpal6WSliceE
	.type	_ZNK8opendnp312Group120Var75WriteERN7openpal6WSliceE, @function
_ZNK8opendnp312Group120Var75WriteERN7openpal6WSliceE:
.LFB164:
	.cfi_startproc
	pushq	%rbp
	.cfi_def_cfa_offset 16
	.cfi_offset 6, -16
	movq	%rdi, %rbp
	pushq	%rbx
	.cfi_def_cfa_offset 24
	.cfi_offset 3, -24
	movq	%rsi, %rbx
	subq	$8, %rsp
	.cfi_def_cfa_offset 32
	call	_ZNK8opendnp312Group120Var74SizeEv@PLT
	movl	%eax, %edx
	xorl	%eax, %eax
	cmpl	%edx, (%rbx)
	jb	.L130
	movl	8(%rbp), %edx
	movq	8(%rbx), %rax
	movl	$4, %esi
	movq	%rbx, %rdi
	movl	%edx, (%rax)
	call	_ZN7openpal6WSlice7AdvanceEj@PLT
	movzwl	12(%rbp), %edx
	movq	8(%rbx), %rax
	movq	%rbx, %rdi
	movl	$2, %esi
	movw	%dx, (%rax)
	call	_ZN7openpal6WSlice7AdvanceEj@PLT
	movzwl	14(%rbp), %edx
	movq	8(%rbx), %rax
	movq	%rbx, %rdi
	movl	$2, %esi
	movw	%dx, (%rax)
	call	_ZN7openpal6WSlice7AdvanceEj@PLT
	movzbl	16(%rbp), %edi
	call	_ZN8opendnp319AuthErrorCodeToTypeENS_13AuthErrorCodeE@PLT
	movq	8(%rbx), %rdx
	movl	$1, %esi
	movq	%rbx, %rdi
	movb	%al, (%rdx)
	call	_ZN7openpal6WSlice7AdvanceEj@PLT
	movq	24(%rbp), %rsi
	movq	8(%rbx), %rdi
	call	_ZN7openpal8UInt48LE5WriteEPhNS_10UInt48TypeE@PLT
	movl	$6, %esi
	movq	%rbx, %rdi
	call	_ZN7openpal6WSlice7AdvanceEj@PLT
	leaq	32(%rbp), %rdi
	movq	%rbx, %rsi
	call	_ZNK7openpal6RSlice6CopyToERNS_6WSliceE@PLT
	movl	$1, %eax
.L130:
	addq	$8, %rsp
	.cfi_def_cfa_offset 24
	popq	%rbx
	.cfi_def_cfa_offset 16
	popq	%rbp
	.cfi_def_cfa_offset 8
	ret
	.cfi_endproc
.LFE164:
	.size	_ZNK8opendnp312Group120Var75WriteERN7openpal6WSliceE, .-_ZNK8opendnp312Group120Var75WriteERN7openpal6WSliceE
	.align 2
	.p2align 4
	.globl	_ZN8opendnp312Group120Var64ReadERKN7openpal6RSliceE
	.type	_ZN8opendnp312Group120Var64ReadERKN7openpal6RSliceE, @function
_ZN8opendnp312Group120Var64ReadERKN7openpal6RSliceE:
.LFB154:
	.cfi_startproc
	movl	(%rsi), %edx
	cmpl	$5, %edx
	ja	.L143
	xorl	%eax, %eax
	ret
	.p2align 4,,10
	.p2align 3
.L143:
	pushq	%rbx
	.cfi_def_cfa_offset 16
	.cfi_offset 3, -16
	movq	%rdi, %rbx
	subq	$32, %rsp
	.cfi_def_cfa_offset 48
	movq	8(%rsi), %rax
	movl	$4, %esi
	movl	%edx, 16(%rsp)
	leaq	16(%rsp), %rdi
	movq	%rax, 24(%rsp)
	movl	(%rax), %eax
	movq	%rdi, 8(%rsp)
	movl	%eax, 4(%rsp)
	call	_ZN7openpal6RSlice7AdvanceEj@PLT
	movl	4(%rsp), %eax
	movq	8(%rsp), %rdi
	movl	$2, %esi
	movl	%eax, 8(%rbx)
	movq	24(%rsp), %rax
	movzwl	(%rax), %eax
	movl	%eax, 4(%rsp)
	call	_ZN7openpal6RSlice7AdvanceEj@PLT
	movl	4(%rsp), %eax
	movdqa	16(%rsp), %xmm0
	movw	%ax, 12(%rbx)
	movl	$1, %eax
	movups	%xmm0, 16(%rbx)
	addq	$32, %rsp
	.cfi_def_cfa_offset 16
	popq	%rbx
	.cfi_def_cfa_offset 8
	ret
	.cfi_endproc
.LFE154:
	.size	_ZN8opendnp312Group120Var64ReadERKN7openpal6RSliceE, .-_ZN8opendnp312Group120Var64ReadERKN7openpal6RSliceE
	.align 2
	.p2align 4
	.globl	_ZN8opendnp312Group120Var24ReadERKN7openpal6RSliceE
	.type	_ZN8opendnp312Group120Var24ReadERKN7openpal6RSliceE, @function
_ZN8opendnp312Group120Var24ReadERKN7openpal6RSliceE:
.LFB126:
	.cfi_startproc
	movl	(%rsi), %edx
	cmpl	$5, %edx
	ja	.L152
	xorl	%eax, %eax
	ret
	.p2align 4,,10
	.p2align 3
.L152:
	pushq	%rbx
	.cfi_def_cfa_offset 16
	.cfi_offset 3, -16
	movq	%rdi, %rbx
	subq	$32, %rsp
	.cfi_def_cfa_offset 48
	movq	8(%rsi), %rax
	movl	$4, %esi
	movl	%edx, 16(%rsp)
	leaq	16(%rsp), %rdi
	movq	%rax, 24(%rsp)
	movl	(%rax), %eax
	movq	%rdi, 8(%rsp)
	movl	%eax, 4(%rsp)
	call	_ZN7openpal6RSlice7AdvanceEj@PLT
	movl	4(%rsp), %eax
	movq	8(%rsp), %rdi
	movl	$2, %esi
	movl	%eax, 8(%rbx)
	movq	24(%rsp), %rax
	movzwl	(%rax), %eax
	movl	%eax, 4(%rsp)
	call	_ZN7openpal6RSlice7AdvanceEj@PLT
	movl	4(%rsp), %eax
	movdqa	16(%rsp), %xmm0
	movw	%ax, 12(%rbx)
	movl	$1, %eax
	movups	%xmm0, 16(%rbx)
	addq	$32, %rsp
	.cfi_def_cfa_offset 16
	popq	%rbx
	.cfi_def_cfa_offset 8
	ret
	.cfi_endproc
.LFE126:
	.size	_ZN8opendnp312Group120Var24ReadERKN7openpal6RSliceE, .-_ZN8opendnp312Group120Var24ReadERKN7openpal6RSliceE
	.align 2
	.p2align 4
	.globl	_ZN8opendnp312Group120Var14ReadERKN7openpal6RSliceE
	.type	_ZN8opendnp312Group120Var14ReadERKN7openpal6RSliceE, @function
_ZN8opendnp312Group120Var14ReadERKN7openpal6RSliceE:
.LFB117:
	.cfi_startproc
	movl	(%rsi), %edx
	cmpl	$7, %edx
	ja	.L161
	xorl	%eax, %eax
	ret
	.p2align 4,,10
	.p2align 3
.L161:
	pushq	%r14
	.cfi_def_cfa_offset 16
	.cfi_offset 14, -16
	pushq	%rbp
	.cfi_def_cfa_offset 24
	.cfi_offset 6, -24
	pushq	%rbx
	.cfi_def_cfa_offset 32
	.cfi_offset 3, -32
	movq	%rdi, %rbx
	subq	$32, %rsp
	.cfi_def_cfa_offset 64
	movq	8(%rsi), %rax
	movl	$4, %esi
	movl	%edx, 16(%rsp)
	leaq	16(%rsp), %rbp
	movq	%rax, 24(%rsp)
	movl	(%rax), %eax
	movq	%rbp, %rdi
	movl	%eax, 12(%rsp)
	call	_ZN7openpal6RSlice7AdvanceEj@PLT
	movl	12(%rsp), %eax
	movq	%rbp, %rdi
	movl	$2, %esi
	movl	%eax, 8(%rbx)
	movq	24(%rsp), %rax
	movzwl	(%rax), %eax
	movl	%eax, 12(%rsp)
	call	_ZN7openpal6RSlice7AdvanceEj@PLT
	movl	12(%rsp), %eax
	movl	$1, %esi
	movq	%rbp, %rdi
	movw	%ax, 12(%rbx)
	movq	24(%rsp), %rax
	movzbl	(%rax), %r14d
	call	_ZN7openpal6RSlice7AdvanceEj@PLT
	movzbl	%r14b, %edi
	call	_ZN8opendnp316HMACTypeFromTypeEh@PLT
	movq	%rbp, %rdi
	movl	$1, %esi
	movb	%al, 14(%rbx)
	movq	24(%rsp), %rax
	movzbl	(%rax), %r14d
	call	_ZN7openpal6RSlice7AdvanceEj@PLT
	movzbl	%r14b, %edi
	call	_ZN8opendnp323ChallengeReasonFromTypeEh@PLT
	movdqa	16(%rsp), %xmm0
	movb	%al, 15(%rbx)
	movl	$1, %eax
	movups	%xmm0, 16(%rbx)
	addq	$32, %rsp
	.cfi_def_cfa_offset 32
	popq	%rbx
	.cfi_def_cfa_offset 24
	popq	%rbp
	.cfi_def_cfa_offset 16
	popq	%r14
	.cfi_def_cfa_offset 8
	ret
	.cfi_endproc
.LFE117:
	.size	_ZN8opendnp312Group120Var14ReadERKN7openpal6RSliceE, .-_ZN8opendnp312Group120Var14ReadERKN7openpal6RSliceE
	.align 2
	.p2align 4
	.globl	_ZNK8opendnp313Group120Var125WriteERN7openpal6WSliceE
	.type	_ZNK8opendnp313Group120Var125WriteERN7openpal6WSliceE, @function
_ZNK8opendnp313Group120Var125WriteERN7openpal6WSliceE:
.LFB209:
	.cfi_startproc
	pushq	%rbp
	.cfi_def_cfa_offset 16
	.cfi_offset 6, -16
	movq	%rsi, %rbp
	pushq	%rbx
	.cfi_def_cfa_offset 24
	.cfi_offset 3, -24
	movq	%rdi, %rbx
	subq	$24, %rsp
	.cfi_def_cfa_offset 48
	call	_ZNK8opendnp313Group120Var124SizeEv@PLT
	cmpl	%eax, 0(%rbp)
	jnb	.L163
.L165:
	addq	$24, %rsp
	.cfi_remember_state
	.cfi_def_cfa_offset 24
	xorl	%eax, %eax
	popq	%rbx
	.cfi_def_cfa_offset 16
	popq	%rbp
	.cfi_def_cfa_offset 8
	ret
	.p2align 4,,10
	.p2align 3
.L163:
	.cfi_restore_state
	movl	16(%rbx), %edx
	movl	%edx, 12(%rsp)
	call	_ZN7openpal8MaxValueItEET_v@PLT
	movzwl	%ax, %eax
	cmpl	12(%rsp), %eax
	jb	.L165
	movl	8(%rbx), %edx
	movq	8(%rbp), %rax
	movl	$4, %esi
	movq	%rbp, %rdi
	movl	%edx, (%rax)
	call	_ZN7openpal6WSlice7AdvanceEj@PLT
	movzwl	12(%rbx), %edx
	movq	8(%rbp), %rax
	movq	%rbp, %rdi
	movl	$2, %esi
	movw	%dx, (%rax)
	call	_ZN7openpal6WSlice7AdvanceEj@PLT
	movl	16(%rbx), %eax
	movzwl	16(%rbx), %edx
	addl	$2, %eax
	cmpl	%eax, 0(%rbp)
	jb	.L165
	movq	8(%rbp), %rax
	movq	%rbp, %rdi
	movl	$2, %esi
	movw	%dx, (%rax)
	call	_ZN7openpal6WSlice7AdvanceEj@PLT
	leaq	16(%rbx), %rdi
	movq	%rbp, %rsi
	call	_ZNK7openpal6RSlice6CopyToERNS_6WSliceE@PLT
	addq	$24, %rsp
	.cfi_def_cfa_offset 24
	movl	$1, %eax
	popq	%rbx
	.cfi_def_cfa_offset 16
	popq	%rbp
	.cfi_def_cfa_offset 8
	ret
	.cfi_endproc
.LFE209:
	.size	_ZNK8opendnp313Group120Var125WriteERN7openpal6WSliceE, .-_ZNK8opendnp313Group120Var125WriteERN7openpal6WSliceE
	.align 2
	.p2align 4
	.globl	_ZNK8opendnp313Group120Var135WriteERN7openpal6WSliceE
	.type	_ZNK8opendnp313Group120Var135WriteERN7openpal6WSliceE, @function
_ZNK8opendnp313Group120Var135WriteERN7openpal6WSliceE:
.LFB218:
	.cfi_startproc
	pushq	%rbp
	.cfi_def_cfa_offset 16
	.cfi_offset 6, -16
	movq	%rsi, %rbp
	pushq	%rbx
	.cfi_def_cfa_offset 24
	.cfi_offset 3, -24
	movq	%rdi, %rbx
	subq	$24, %rsp
	.cfi_def_cfa_offset 48
	call	_ZNK8opendnp313Group120Var134SizeEv@PLT
	cmpl	%eax, 0(%rbp)
	jnb	.L168
.L170:
	addq	$24, %rsp
	.cfi_remember_state
	.cfi_def_cfa_offset 24
	xorl	%eax, %eax
	popq	%rbx
	.cfi_def_cfa_offset 16
	popq	%rbp
	.cfi_def_cfa_offset 8
	ret
	.p2align 4,,10
	.p2align 3
.L168:
	.cfi_restore_state
	movl	16(%rbx), %edx
	movl	%edx, 12(%rsp)
	call	_ZN7openpal8MaxValueItEET_v@PLT
	movzwl	%ax, %eax
	cmpl	12(%rsp), %eax
	jb	.L170
	movl	8(%rbx), %edx
	movq	8(%rbp), %rax
	movl	$4, %esi
	movq	%rbp, %rdi
	movl	%edx, (%rax)
	call	_ZN7openpal6WSlice7AdvanceEj@PLT
	movzwl	12(%rbx), %edx
	movq	8(%rbp), %rax
	movq	%rbp, %rdi
	movl	$2, %esi
	movw	%dx, (%rax)
	call	_ZN7openpal6WSlice7AdvanceEj@PLT
	movl	16(%rbx), %eax
	movzwl	16(%rbx), %edx
	addl	$2, %eax
	cmpl	%eax, 0(%rbp)
	jb	.L170
	movq	8(%rbp), %rax
	movq	%rbp, %rdi
	movl	$2, %esi
	movw	%dx, (%rax)
	call	_ZN7openpal6WSlice7AdvanceEj@PLT
	leaq	16(%rbx), %rdi
	movq	%rbp, %rsi
	call	_ZNK7openpal6RSlice6CopyToERNS_6WSliceE@PLT
	addq	$24, %rsp
	.cfi_def_cfa_offset 24
	movl	$1, %eax
	popq	%rbx
	.cfi_def_cfa_offset 16
	popq	%rbp
	.cfi_def_cfa_offset 8
	ret
	.cfi_endproc
.LFE218:
	.size	_ZNK8opendnp313Group120Var135WriteERN7openpal6WSliceE, .-_ZNK8opendnp313Group120Var135WriteERN7openpal6WSliceE
	.align 2
	.p2align 4
	.globl	_ZN8opendnp312Group120Var74ReadERKN7openpal6RSliceE
	.type	_ZN8opendnp312Group120Var74ReadERKN7openpal6RSliceE, @function
_ZN8opendnp312Group120Var74ReadERKN7openpal6RSliceE:
.LFB163:
	.cfi_startproc
	movl	(%rsi), %edx
	cmpl	$14, %edx
	ja	.L180
	xorl	%eax, %eax
	ret
	.p2align 4,,10
	.p2align 3
.L180:
	pushq	%r14
	.cfi_def_cfa_offset 16
	.cfi_offset 14, -16
	pushq	%rbp
	.cfi_def_cfa_offset 24
	.cfi_offset 6, -24
	pushq	%rbx
	.cfi_def_cfa_offset 32
	.cfi_offset 3, -32
	movq	%rdi, %rbx
	subq	$32, %rsp
	.cfi_def_cfa_offset 64
	movq	8(%rsi), %rax
	movl	$4, %esi
	movl	%edx, 16(%rsp)
	leaq	16(%rsp), %rbp
	movq	%rax, 24(%rsp)
	movl	(%rax), %eax
	movq	%rbp, %rdi
	movl	%eax, 8(%rsp)
	call	_ZN7openpal6RSlice7AdvanceEj@PLT
	movl	8(%rsp), %eax
	movq	%rbp, %rdi
	movl	$2, %esi
	movl	%eax, 8(%rbx)
	movq	24(%rsp), %rax
	movzwl	(%rax), %eax
	movl	%eax, 8(%rsp)
	call	_ZN7openpal6RSlice7AdvanceEj@PLT
	movl	8(%rsp), %eax
	movq	%rbp, %rdi
	movl	$2, %esi
	movw	%ax, 12(%rbx)
	movq	24(%rsp), %rax
	movzwl	(%rax), %eax
	movl	%eax, 8(%rsp)
	call	_ZN7openpal6RSlice7AdvanceEj@PLT
	movl	8(%rsp), %eax
	movl	$1, %esi
	movq	%rbp, %rdi
	movw	%ax, 14(%rbx)
	movq	24(%rsp), %rax
	movzbl	(%rax), %r14d
	call	_ZN7openpal6RSlice7AdvanceEj@PLT
	movzbl	%r14b, %edi
	call	_ZN8opendnp321AuthErrorCodeFromTypeEh@PLT
	movq	24(%rsp), %rdi
	movb	%al, 16(%rbx)
	call	_ZN7openpal8UInt48LE4ReadEPKh@PLT
	movq	%rbp, %rdi
	movl	$6, %esi
	movq	%rax, 8(%rsp)
	call	_ZN7openpal6RSlice7AdvanceEj@PLT
	movq	8(%rsp), %rax
	movdqa	16(%rsp), %xmm0
	movq	%rax, 24(%rbx)
	movl	$1, %eax
	movups	%xmm0, 32(%rbx)
	addq	$32, %rsp
	.cfi_def_cfa_offset 32
	popq	%rbx
	.cfi_def_cfa_offset 24
	popq	%rbp
	.cfi_def_cfa_offset 16
	popq	%r14
	.cfi_def_cfa_offset 8
	ret
	.cfi_endproc
.LFE163:
	.size	_ZN8opendnp312Group120Var74ReadERKN7openpal6RSliceE, .-_ZN8opendnp312Group120Var74ReadERKN7openpal6RSliceE
	.align 2
	.p2align 4
	.globl	_ZN8opendnp313Group120Var124ReadERKN7openpal6RSliceE
	.type	_ZN8opendnp313Group120Var124ReadERKN7openpal6RSliceE, @function
_ZN8opendnp313Group120Var124ReadERKN7openpal6RSliceE:
.LFB208:
	.cfi_startproc
	cmpl	$7, (%rsi)
	ja	.L182
	xorl	%eax, %eax
	ret
	.p2align 4,,10
	.p2align 3
.L182:
	pushq	%r14
	.cfi_def_cfa_offset 16
	.cfi_offset 14, -16
	pushq	%rbp
	.cfi_def_cfa_offset 24
	.cfi_offset 6, -24
	pushq	%rbx
	.cfi_def_cfa_offset 32
	.cfi_offset 3, -32
	movq	%rdi, %rbx
	subq	$32, %rsp
	.cfi_def_cfa_offset 64
	movdqu	(%rsi), %xmm0
	movl	$4, %esi
	leaq	16(%rsp), %rbp
	movaps	%xmm0, 16(%rsp)
	movq	24(%rsp), %rax
	movq	%rbp, %rdi
	movl	(%rax), %eax
	movl	%eax, 12(%rsp)
	call	_ZN7openpal6RSlice7AdvanceEj@PLT
	movl	12(%rsp), %eax
	movl	$2, %esi
	movq	%rbp, %rdi
	movl	%eax, 8(%rbx)
	movq	24(%rsp), %rax
	movzwl	(%rax), %eax
	movl	%eax, 12(%rsp)
	call	_ZN7openpal6RSlice7AdvanceEj@PLT
	movl	12(%rsp), %eax
	movw	%ax, 12(%rbx)
	cmpl	$1, 16(%rsp)
	jbe	.L184
	movq	24(%rsp), %rax
	movl	$2, %esi
	movq	%rbp, %rdi
	movzwl	(%rax), %r14d
	call	_ZN7openpal6RSlice7AdvanceEj@PLT
	movzwl	%r14w, %esi
	cmpl	%esi, 16(%rsp)
	jnb	.L188
.L184:
	addq	$32, %rsp
	.cfi_remember_state
	.cfi_def_cfa_offset 32
	xorl	%eax, %eax
	popq	%rbx
	.cfi_def_cfa_offset 24
	popq	%rbp
	.cfi_def_cfa_offset 16
	popq	%r14
	.cfi_def_cfa_offset 8
	ret
	.p2align 4,,10
	.p2align 3
.L188:
	.cfi_restore_state
	movq	%rbp, %rdi
	movl	%esi, 12(%rsp)
	call	_ZNK7openpal6RSlice4TakeEj@PLT
	movl	12(%rsp), %esi
	movq	%rbp, %rdi
	movl	%eax, 16(%rbx)
	movq	%rdx, 24(%rbx)
	call	_ZN7openpal6RSlice7AdvanceEj@PLT
	movl	16(%rsp), %eax
	testl	%eax, %eax
	sete	%al
	addq	$32, %rsp
	.cfi_def_cfa_offset 32
	popq	%rbx
	.cfi_def_cfa_offset 24
	popq	%rbp
	.cfi_def_cfa_offset 16
	popq	%r14
	.cfi_def_cfa_offset 8
	ret
	.cfi_endproc
.LFE208:
	.size	_ZN8opendnp313Group120Var124ReadERKN7openpal6RSliceE, .-_ZN8opendnp313Group120Var124ReadERKN7openpal6RSliceE
	.align 2
	.p2align 4
	.globl	_ZN8opendnp313Group120Var134ReadERKN7openpal6RSliceE
	.type	_ZN8opendnp313Group120Var134ReadERKN7openpal6RSliceE, @function
_ZN8opendnp313Group120Var134ReadERKN7openpal6RSliceE:
.LFB217:
	.cfi_startproc
	cmpl	$7, (%rsi)
	ja	.L190
	xorl	%eax, %eax
	ret
	.p2align 4,,10
	.p2align 3
.L190:
	pushq	%r14
	.cfi_def_cfa_offset 16
	.cfi_offset 14, -16
	pushq	%rbp
	.cfi_def_cfa_offset 24
	.cfi_offset 6, -24
	pushq	%rbx
	.cfi_def_cfa_offset 32
	.cfi_offset 3, -32
	movq	%rdi, %rbx
	subq	$32, %rsp
	.cfi_def_cfa_offset 64
	movdqu	(%rsi), %xmm0
	movl	$4, %esi
	leaq	16(%rsp), %rbp
	movaps	%xmm0, 16(%rsp)
	movq	24(%rsp), %rax
	movq	%rbp, %rdi
	movl	(%rax), %eax
	movl	%eax, 12(%rsp)
	call	_ZN7openpal6RSlice7AdvanceEj@PLT
	movl	12(%rsp), %eax
	movl	$2, %esi
	movq	%rbp, %rdi
	movl	%eax, 8(%rbx)
	movq	24(%rsp), %rax
	movzwl	(%rax), %eax
	movl	%eax, 12(%rsp)
	call	_ZN7openpal6RSlice7AdvanceEj@PLT
	movl	12(%rsp), %eax
	movw	%ax, 12(%rbx)
	cmpl	$1, 16(%rsp)
	jbe	.L192
	movq	24(%rsp), %rax
	movl	$2, %esi
	movq	%rbp, %rdi
	movzwl	(%rax), %r14d
	call	_ZN7openpal6RSlice7AdvanceEj@PLT
	movzwl	%r14w, %esi
	cmpl	%esi, 16(%rsp)
	jnb	.L196
.L192:
	addq	$32, %rsp
	.cfi_remember_state
	.cfi_def_cfa_offset 32
	xorl	%eax, %eax
	popq	%rbx
	.cfi_def_cfa_offset 24
	popq	%rbp
	.cfi_def_cfa_offset 16
	popq	%r14
	.cfi_def_cfa_offset 8
	ret
	.p2align 4,,10
	.p2align 3
.L196:
	.cfi_restore_state
	movq	%rbp, %rdi
	movl	%esi, 12(%rsp)
	call	_ZNK7openpal6RSlice4TakeEj@PLT
	movl	12(%rsp), %esi
	movq	%rbp, %rdi
	movl	%eax, 16(%rbx)
	movq	%rdx, 24(%rbx)
	call	_ZN7openpal6RSlice7AdvanceEj@PLT
	movl	16(%rsp), %eax
	testl	%eax, %eax
	sete	%al
	addq	$32, %rsp
	.cfi_def_cfa_offset 32
	popq	%rbx
	.cfi_def_cfa_offset 24
	popq	%rbp
	.cfi_def_cfa_offset 16
	popq	%r14
	.cfi_def_cfa_offset 8
	ret
	.cfi_endproc
.LFE217:
	.size	_ZN8opendnp313Group120Var134ReadERKN7openpal6RSliceE, .-_ZN8opendnp313Group120Var134ReadERKN7openpal6RSliceE
	.align 2
	.p2align 4
	.globl	_ZN8opendnp312Group120Var54ReadERKN7openpal6RSliceE
	.type	_ZN8opendnp312Group120Var54ReadERKN7openpal6RSliceE, @function
_ZN8opendnp312Group120Var54ReadERKN7openpal6RSliceE:
.LFB145:
	.cfi_startproc
	cmpl	$10, (%rsi)
	ja	.L198
	xorl	%eax, %eax
	ret
	.p2align 4,,10
	.p2align 3
.L198:
	pushq	%r14
	.cfi_def_cfa_offset 16
	.cfi_offset 14, -16
	pushq	%rbp
	.cfi_def_cfa_offset 24
	.cfi_offset 6, -24
	pushq	%rbx
	.cfi_def_cfa_offset 32
	.cfi_offset 3, -32
	movq	%rdi, %rbx
	subq	$32, %rsp
	.cfi_def_cfa_offset 64
	movdqu	(%rsi), %xmm0
	movl	$4, %esi
	leaq	16(%rsp), %rbp
	movaps	%xmm0, 16(%rsp)
	movq	24(%rsp), %rax
	movq	%rbp, %rdi
	movl	(%rax), %eax
	movl	%eax, 12(%rsp)
	call	_ZN7openpal6RSlice7AdvanceEj@PLT
	movl	12(%rsp), %eax
	movl	$2, %esi
	movq	%rbp, %rdi
	movl	%eax, 8(%rbx)
	movq	24(%rsp), %rax
	movzwl	(%rax), %eax
	movl	%eax, 12(%rsp)
	call	_ZN7openpal6RSlice7AdvanceEj@PLT
	movl	12(%rsp), %eax
	movl	$1, %esi
	movq	%rbp, %rdi
	movw	%ax, 12(%rbx)
	movq	24(%rsp), %rax
	movzbl	(%rax), %r14d
	call	_ZN7openpal6RSlice7AdvanceEj@PLT
	movzbl	%r14b, %edi
	call	_ZN8opendnp324KeyWrapAlgorithmFromTypeEh@PLT
	movl	$1, %esi
	movq	%rbp, %rdi
	movb	%al, 14(%rbx)
	movq	24(%rsp), %rax
	movzbl	(%rax), %r14d
	call	_ZN7openpal6RSlice7AdvanceEj@PLT
	movzbl	%r14b, %edi
	call	_ZN8opendnp317KeyStatusFromTypeEh@PLT
	movl	$1, %esi
	movq	%rbp, %rdi
	movb	%al, 15(%rbx)
	movq	24(%rsp), %rax
	movzbl	(%rax), %r14d
	call	_ZN7openpal6RSlice7AdvanceEj@PLT
	movzbl	%r14b, %edi
	call	_ZN8opendnp316HMACTypeFromTypeEh@PLT
	movb	%al, 16(%rbx)
	cmpl	$1, 16(%rsp)
	jbe	.L200
	movq	24(%rsp), %rax
	movl	$2, %esi
	movq	%rbp, %rdi
	movzwl	(%rax), %r14d
	call	_ZN7openpal6RSlice7AdvanceEj@PLT
	movzwl	%r14w, %esi
	cmpl	%esi, 16(%rsp)
	jnb	.L204
.L200:
	addq	$32, %rsp
	.cfi_remember_state
	.cfi_def_cfa_offset 32
	xorl	%eax, %eax
	popq	%rbx
	.cfi_def_cfa_offset 24
	popq	%rbp
	.cfi_def_cfa_offset 16
	popq	%r14
	.cfi_def_cfa_offset 8
	ret
	.p2align 4,,10
	.p2align 3
.L204:
	.cfi_restore_state
	movq	%rbp, %rdi
	movl	%esi, 12(%rsp)
	call	_ZNK7openpal6RSlice4TakeEj@PLT
	movl	12(%rsp), %esi
	movq	%rbp, %rdi
	movl	%eax, 24(%rbx)
	movq	%rdx, 32(%rbx)
	call	_ZN7openpal6RSlice7AdvanceEj@PLT
	movdqa	16(%rsp), %xmm0
	movl	$1, %eax
	movups	%xmm0, 40(%rbx)
	addq	$32, %rsp
	.cfi_def_cfa_offset 32
	popq	%rbx
	.cfi_def_cfa_offset 24
	popq	%rbp
	.cfi_def_cfa_offset 16
	popq	%r14
	.cfi_def_cfa_offset 8
	ret
	.cfi_endproc
.LFE145:
	.size	_ZN8opendnp312Group120Var54ReadERKN7openpal6RSliceE, .-_ZN8opendnp312Group120Var54ReadERKN7openpal6RSliceE
	.align 2
	.p2align 4
	.globl	_ZNK8opendnp312Group120Var55WriteERN7openpal6WSliceE
	.type	_ZNK8opendnp312Group120Var55WriteERN7openpal6WSliceE, @function
_ZNK8opendnp312Group120Var55WriteERN7openpal6WSliceE:
.LFB146:
	.cfi_startproc
	pushq	%rbp
	.cfi_def_cfa_offset 16
	.cfi_offset 6, -16
	movq	%rdi, %rbp
	pushq	%rbx
	.cfi_def_cfa_offset 24
	.cfi_offset 3, -24
	movq	%rsi, %rbx
	subq	$24, %rsp
	.cfi_def_cfa_offset 48
	call	_ZNK8opendnp312Group120Var54SizeEv@PLT
	cmpl	%eax, (%rbx)
	jnb	.L206
.L208:
	addq	$24, %rsp
	.cfi_remember_state
	.cfi_def_cfa_offset 24
	xorl	%eax, %eax
	popq	%rbx
	.cfi_def_cfa_offset 16
	popq	%rbp
	.cfi_def_cfa_offset 8
	ret
	.p2align 4,,10
	.p2align 3
.L206:
	.cfi_restore_state
	movl	24(%rbp), %edx
	movl	%edx, 12(%rsp)
	call	_ZN7openpal8MaxValueItEET_v@PLT
	movzwl	%ax, %eax
	cmpl	12(%rsp), %eax
	jb	.L208
	movl	8(%rbp), %edx
	movq	8(%rbx), %rax
	movl	$4, %esi
	movq	%rbx, %rdi
	movl	%edx, (%rax)
	call	_ZN7openpal6WSlice7AdvanceEj@PLT
	movzwl	12(%rbp), %edx
	movq	8(%rbx), %rax
	movq	%rbx, %rdi
	movl	$2, %esi
	movw	%dx, (%rax)
	call	_ZN7openpal6WSlice7AdvanceEj@PLT
	movzbl	14(%rbp), %edi
	call	_ZN8opendnp322KeyWrapAlgorithmToTypeENS_16KeyWrapAlgorithmE@PLT
	movq	8(%rbx), %rdx
	movl	$1, %esi
	movq	%rbx, %rdi
	movb	%al, (%rdx)
	call	_ZN7openpal6WSlice7AdvanceEj@PLT
	movzbl	15(%rbp), %edi
	call	_ZN8opendnp315KeyStatusToTypeENS_9KeyStatusE@PLT
	movq	8(%rbx), %rdx
	movl	$1, %esi
	movq	%rbx, %rdi
	movb	%al, (%rdx)
	call	_ZN7openpal6WSlice7AdvanceEj@PLT
	movzbl	16(%rbp), %edi
	call	_ZN8opendnp314HMACTypeToTypeENS_8HMACTypeE@PLT
	movq	8(%rbx), %rdx
	movl	$1, %esi
	movq	%rbx, %rdi
	movb	%al, (%rdx)
	call	_ZN7openpal6WSlice7AdvanceEj@PLT
	movl	24(%rbp), %eax
	movzwl	24(%rbp), %edx
	addl	$2, %eax
	cmpl	%eax, (%rbx)
	jb	.L208
	movq	8(%rbx), %rax
	movq	%rbx, %rdi
	movl	$2, %esi
	movw	%dx, (%rax)
	call	_ZN7openpal6WSlice7AdvanceEj@PLT
	leaq	24(%rbp), %rdi
	movq	%rbx, %rsi
	call	_ZNK7openpal6RSlice6CopyToERNS_6WSliceE@PLT
	leaq	40(%rbp), %rdi
	movq	%rbx, %rsi
	call	_ZNK7openpal6RSlice6CopyToERNS_6WSliceE@PLT
	addq	$24, %rsp
	.cfi_def_cfa_offset 24
	movl	$1, %eax
	popq	%rbx
	.cfi_def_cfa_offset 16
	popq	%rbp
	.cfi_def_cfa_offset 8
	ret
	.cfi_endproc
.LFE146:
	.size	_ZNK8opendnp312Group120Var55WriteERN7openpal6WSliceE, .-_ZNK8opendnp312Group120Var55WriteERN7openpal6WSliceE
	.align 2
	.p2align 4
	.globl	_ZN8opendnp312Group120Var1C2Ev
	.type	_ZN8opendnp312Group120Var1C2Ev, @function
_ZN8opendnp312Group120Var1C2Ev:
.LFB111:
	.cfi_startproc
	movq	_ZTVN8opendnp312Group120Var1E@GOTPCREL(%rip), %rax
	addq	$16, %rdi
	addq	$16, %rax
	movq	%rax, -16(%rdi)
	movabsq	$-281474976710656, %rax
	movq	%rax, -8(%rdi)
	jmp	_ZN7openpal6RSliceC1Ev@PLT
	.cfi_endproc
.LFE111:
	.size	_ZN8opendnp312Group120Var1C2Ev, .-_ZN8opendnp312Group120Var1C2Ev
	.globl	_ZN8opendnp312Group120Var1C1Ev
	.set	_ZN8opendnp312Group120Var1C1Ev,_ZN8opendnp312Group120Var1C2Ev
	.align 2
	.p2align 4
	.globl	_ZN8opendnp312Group120Var1C2EjtNS_8HMACTypeENS_15ChallengeReasonERKN7openpal6RSliceE
	.type	_ZN8opendnp312Group120Var1C2EjtNS_8HMACTypeENS_15ChallengeReasonERKN7openpal6RSliceE, @function
_ZN8opendnp312Group120Var1C2EjtNS_8HMACTypeENS_15ChallengeReasonERKN7openpal6RSliceE:
.LFB114:
	.cfi_startproc
	movq	_ZTVN8opendnp312Group120Var1E@GOTPCREL(%rip), %rax
	movdqu	(%r9), %xmm0
	movl	%esi, 8(%rdi)
	movw	%dx, 12(%rdi)
	addq	$16, %rax
	movb	%cl, 14(%rdi)
	movq	%rax, (%rdi)
	movb	%r8b, 15(%rdi)
	movups	%xmm0, 16(%rdi)
	ret
	.cfi_endproc
.LFE114:
	.size	_ZN8opendnp312Group120Var1C2EjtNS_8HMACTypeENS_15ChallengeReasonERKN7openpal6RSliceE, .-_ZN8opendnp312Group120Var1C2EjtNS_8HMACTypeENS_15ChallengeReasonERKN7openpal6RSliceE
	.globl	_ZN8opendnp312Group120Var1C1EjtNS_8HMACTypeENS_15ChallengeReasonERKN7openpal6RSliceE
	.set	_ZN8opendnp312Group120Var1C1EjtNS_8HMACTypeENS_15ChallengeReasonERKN7openpal6RSliceE,_ZN8opendnp312Group120Var1C2EjtNS_8HMACTypeENS_15ChallengeReasonERKN7openpal6RSliceE
	.align 2
	.p2align 4
	.globl	_ZN8opendnp312Group120Var2C2Ev
	.type	_ZN8opendnp312Group120Var2C2Ev, @function
_ZN8opendnp312Group120Var2C2Ev:
.LFB120:
	.cfi_startproc
	movq	_ZTVN8opendnp312Group120Var2E@GOTPCREL(%rip), %rax
	movl	$0, 8(%rdi)
	addq	$16, %rdi
	addq	$16, %rax
	movq	%rax, -16(%rdi)
	xorl	%eax, %eax
	movw	%ax, -4(%rdi)
	jmp	_ZN7openpal6RSliceC1Ev@PLT
	.cfi_endproc
.LFE120:
	.size	_ZN8opendnp312Group120Var2C2Ev, .-_ZN8opendnp312Group120Var2C2Ev
	.globl	_ZN8opendnp312Group120Var2C1Ev
	.set	_ZN8opendnp312Group120Var2C1Ev,_ZN8opendnp312Group120Var2C2Ev
	.align 2
	.p2align 4
	.globl	_ZN8opendnp312Group120Var2C2EjtRKN7openpal6RSliceE
	.type	_ZN8opendnp312Group120Var2C2EjtRKN7openpal6RSliceE, @function
_ZN8opendnp312Group120Var2C2EjtRKN7openpal6RSliceE:
.LFB123:
	.cfi_startproc
	movq	_ZTVN8opendnp312Group120Var2E@GOTPCREL(%rip), %rax
	movdqu	(%rcx), %xmm0
	movl	%esi, 8(%rdi)
	movw	%dx, 12(%rdi)
	addq	$16, %rax
	movups	%xmm0, 16(%rdi)
	movq	%rax, (%rdi)
	ret
	.cfi_endproc
.LFE123:
	.size	_ZN8opendnp312Group120Var2C2EjtRKN7openpal6RSliceE, .-_ZN8opendnp312Group120Var2C2EjtRKN7openpal6RSliceE
	.globl	_ZN8opendnp312Group120Var2C1EjtRKN7openpal6RSliceE
	.set	_ZN8opendnp312Group120Var2C1EjtRKN7openpal6RSliceE,_ZN8opendnp312Group120Var2C2EjtRKN7openpal6RSliceE
	.align 2
	.p2align 4
	.globl	_ZN8opendnp312Group120Var3C2Ev
	.type	_ZN8opendnp312Group120Var3C2Ev, @function
_ZN8opendnp312Group120Var3C2Ev:
.LFB129:
	.cfi_startproc
	xorl	%eax, %eax
	movl	$0, (%rdi)
	movw	%ax, 4(%rdi)
	ret
	.cfi_endproc
.LFE129:
	.size	_ZN8opendnp312Group120Var3C2Ev, .-_ZN8opendnp312Group120Var3C2Ev
	.globl	_ZN8opendnp312Group120Var3C1Ev
	.set	_ZN8opendnp312Group120Var3C1Ev,_ZN8opendnp312Group120Var3C2Ev
	.align 2
	.p2align 4
	.globl	_ZN8opendnp312Group120Var34ReadERN7openpal6RSliceERS0_
	.type	_ZN8opendnp312Group120Var34ReadERN7openpal6RSliceERS0_, @function
_ZN8opendnp312Group120Var34ReadERN7openpal6RSliceERS0_:
.LFB131:
	.cfi_startproc
	pushq	%rbp
	.cfi_def_cfa_offset 16
	.cfi_offset 6, -16
	movq	%rdi, %rbp
	pushq	%rbx
	.cfi_def_cfa_offset 24
	.cfi_offset 3, -24
	movq	%rsi, %rbx
	subq	$8, %rsp
	.cfi_def_cfa_offset 32
	call	_ZN7openpal5Parse4ReadERNS_6RSliceERj@PLT
	testb	%al, %al
	jne	.L218
	addq	$8, %rsp
	.cfi_remember_state
	.cfi_def_cfa_offset 24
	xorl	%eax, %eax
	popq	%rbx
	.cfi_def_cfa_offset 16
	popq	%rbp
	.cfi_def_cfa_offset 8
	ret
	.p2align 4,,10
	.p2align 3
.L218:
	.cfi_restore_state
	addq	$8, %rsp
	.cfi_def_cfa_offset 24
	leaq	4(%rbx), %rsi
	movq	%rbp, %rdi
	popq	%rbx
	.cfi_def_cfa_offset 16
	popq	%rbp
	.cfi_def_cfa_offset 8
	jmp	_ZN7openpal5Parse4ReadERNS_6RSliceERt@PLT
	.cfi_endproc
.LFE131:
	.size	_ZN8opendnp312Group120Var34ReadERN7openpal6RSliceERS0_, .-_ZN8opendnp312Group120Var34ReadERN7openpal6RSliceERS0_
	.align 2
	.p2align 4
	.globl	_ZN8opendnp312Group120Var35WriteERKS0_RN7openpal6WSliceE
	.type	_ZN8opendnp312Group120Var35WriteERKS0_RN7openpal6WSliceE, @function
_ZN8opendnp312Group120Var35WriteERKS0_RN7openpal6WSliceE:
.LFB132:
	.cfi_startproc
	pushq	%rbp
	.cfi_def_cfa_offset 16
	.cfi_offset 6, -16
	movq	%rsi, %rbp
	movq	%rdi, %rsi
	pushq	%rbx
	.cfi_def_cfa_offset 24
	.cfi_offset 3, -24
	movq	%rdi, %rbx
	movq	%rbp, %rdi
	subq	$8, %rsp
	.cfi_def_cfa_offset 32
	call	_ZN7openpal6Format5WriteERNS_6WSliceERKj@PLT
	testb	%al, %al
	jne	.L222
	addq	$8, %rsp
	.cfi_remember_state
	.cfi_def_cfa_offset 24
	xorl	%eax, %eax
	popq	%rbx
	.cfi_def_cfa_offset 16
	popq	%rbp
	.cfi_def_cfa_offset 8
	ret
	.p2align 4,,10
	.p2align 3
.L222:
	.cfi_restore_state
	addq	$8, %rsp
	.cfi_def_cfa_offset 24
	leaq	4(%rbx), %rsi
	movq	%rbp, %rdi
	popq	%rbx
	.cfi_def_cfa_offset 16
	popq	%rbp
	.cfi_def_cfa_offset 8
	jmp	_ZN7openpal6Format5WriteERNS_6WSliceERKt@PLT
	.cfi_endproc
.LFE132:
	.size	_ZN8opendnp312Group120Var35WriteERKS0_RN7openpal6WSliceE, .-_ZN8opendnp312Group120Var35WriteERKS0_RN7openpal6WSliceE
	.align 2
	.p2align 4
	.globl	_ZN8opendnp312Group120Var4C2Ev
	.type	_ZN8opendnp312Group120Var4C2Ev, @function
_ZN8opendnp312Group120Var4C2Ev:
.LFB134:
	.cfi_startproc
	xorl	%eax, %eax
	movw	%ax, (%rdi)
	ret
	.cfi_endproc
.LFE134:
	.size	_ZN8opendnp312Group120Var4C2Ev, .-_ZN8opendnp312Group120Var4C2Ev
	.globl	_ZN8opendnp312Group120Var4C1Ev
	.set	_ZN8opendnp312Group120Var4C1Ev,_ZN8opendnp312Group120Var4C2Ev
	.align 2
	.p2align 4
	.globl	_ZN8opendnp312Group120Var44ReadERN7openpal6RSliceERS0_
	.type	_ZN8opendnp312Group120Var44ReadERN7openpal6RSliceERS0_, @function
_ZN8opendnp312Group120Var44ReadERN7openpal6RSliceERS0_:
.LFB136:
	.cfi_startproc
	jmp	_ZN7openpal5Parse4ReadERNS_6RSliceERt@PLT
	.cfi_endproc
.LFE136:
	.size	_ZN8opendnp312Group120Var44ReadERN7openpal6RSliceERS0_, .-_ZN8opendnp312Group120Var44ReadERN7openpal6RSliceERS0_
	.align 2
	.p2align 4
	.globl	_ZN8opendnp312Group120Var45WriteERKS0_RN7openpal6WSliceE
	.type	_ZN8opendnp312Group120Var45WriteERKS0_RN7openpal6WSliceE, @function
_ZN8opendnp312Group120Var45WriteERKS0_RN7openpal6WSliceE:
.LFB137:
	.cfi_startproc
	movq	%rdi, %rax
	movq	%rsi, %rdi
	movq	%rax, %rsi
	jmp	_ZN7openpal6Format5WriteERNS_6WSliceERKt@PLT
	.cfi_endproc
.LFE137:
	.size	_ZN8opendnp312Group120Var45WriteERKS0_RN7openpal6WSliceE, .-_ZN8opendnp312Group120Var45WriteERKS0_RN7openpal6WSliceE
	.align 2
	.p2align 4
	.globl	_ZN8opendnp312Group120Var5C2Ev
	.type	_ZN8opendnp312Group120Var5C2Ev, @function
_ZN8opendnp312Group120Var5C2Ev:
.LFB139:
	.cfi_startproc
	movq	_ZTVN8opendnp312Group120Var5E@GOTPCREL(%rip), %rax
	pushq	%rbx
	.cfi_def_cfa_offset 16
	.cfi_offset 3, -16
	movq	%rdi, %rbx
	leaq	24(%rdi), %rdi
	movq	$0, -16(%rdi)
	addq	$16, %rax
	movb	$-1, -8(%rdi)
	movq	%rax, -24(%rdi)
	call	_ZN7openpal6RSliceC1Ev@PLT
	leaq	40(%rbx), %rdi
	popq	%rbx
	.cfi_def_cfa_offset 8
	jmp	_ZN7openpal6RSliceC1Ev@PLT
	.cfi_endproc
.LFE139:
	.size	_ZN8opendnp312Group120Var5C2Ev, .-_ZN8opendnp312Group120Var5C2Ev
	.globl	_ZN8opendnp312Group120Var5C1Ev
	.set	_ZN8opendnp312Group120Var5C1Ev,_ZN8opendnp312Group120Var5C2Ev
	.align 2
	.p2align 4
	.globl	_ZN8opendnp312Group120Var5C2EjtNS_16KeyWrapAlgorithmENS_9KeyStatusENS_8HMACTypeERKN7openpal6RSliceES7_
	.type	_ZN8opendnp312Group120Var5C2EjtNS_16KeyWrapAlgorithmENS_9KeyStatusENS_8HMACTypeERKN7openpal6RSliceES7_, @function
_ZN8opendnp312Group120Var5C2EjtNS_16KeyWrapAlgorithmENS_9KeyStatusENS_8HMACTypeERKN7openpal6RSliceES7_:
.LFB142:
	.cfi_startproc
	movq	_ZTVN8opendnp312Group120Var5E@GOTPCREL(%rip), %rax
	movl	%esi, 8(%rdi)
	movw	%dx, 12(%rdi)
	addq	$16, %rax
	movb	%cl, 14(%rdi)
	movq	%rax, (%rdi)
	movq	8(%rsp), %rax
	movb	%r8b, 15(%rdi)
	movdqu	(%rax), %xmm0
	movq	16(%rsp), %rax
	movb	%r9b, 16(%rdi)
	movups	%xmm0, 24(%rdi)
	movdqu	(%rax), %xmm0
	movups	%xmm0, 40(%rdi)
	ret
	.cfi_endproc
.LFE142:
	.size	_ZN8opendnp312Group120Var5C2EjtNS_16KeyWrapAlgorithmENS_9KeyStatusENS_8HMACTypeERKN7openpal6RSliceES7_, .-_ZN8opendnp312Group120Var5C2EjtNS_16KeyWrapAlgorithmENS_9KeyStatusENS_8HMACTypeERKN7openpal6RSliceES7_
	.globl	_ZN8opendnp312Group120Var5C1EjtNS_16KeyWrapAlgorithmENS_9KeyStatusENS_8HMACTypeERKN7openpal6RSliceES7_
	.set	_ZN8opendnp312Group120Var5C1EjtNS_16KeyWrapAlgorithmENS_9KeyStatusENS_8HMACTypeERKN7openpal6RSliceES7_,_ZN8opendnp312Group120Var5C2EjtNS_16KeyWrapAlgorithmENS_9KeyStatusENS_8HMACTypeERKN7openpal6RSliceES7_
	.align 2
	.p2align 4
	.globl	_ZN8opendnp312Group120Var6C2Ev
	.type	_ZN8opendnp312Group120Var6C2Ev, @function
_ZN8opendnp312Group120Var6C2Ev:
.LFB148:
	.cfi_startproc
	movq	_ZTVN8opendnp312Group120Var6E@GOTPCREL(%rip), %rax
	movl	$0, 8(%rdi)
	addq	$16, %rdi
	addq	$16, %rax
	movq	%rax, -16(%rdi)
	xorl	%eax, %eax
	movw	%ax, -4(%rdi)
	jmp	_ZN7openpal6RSliceC1Ev@PLT
	.cfi_endproc
.LFE148:
	.size	_ZN8opendnp312Group120Var6C2Ev, .-_ZN8opendnp312Group120Var6C2Ev
	.globl	_ZN8opendnp312Group120Var6C1Ev
	.set	_ZN8opendnp312Group120Var6C1Ev,_ZN8opendnp312Group120Var6C2Ev
	.align 2
	.p2align 4
	.globl	_ZN8opendnp312Group120Var6C2EjtRKN7openpal6RSliceE
	.type	_ZN8opendnp312Group120Var6C2EjtRKN7openpal6RSliceE, @function
_ZN8opendnp312Group120Var6C2EjtRKN7openpal6RSliceE:
.LFB151:
	.cfi_startproc
	movq	_ZTVN8opendnp312Group120Var6E@GOTPCREL(%rip), %rax
	movdqu	(%rcx), %xmm0
	movl	%esi, 8(%rdi)
	movw	%dx, 12(%rdi)
	addq	$16, %rax
	movups	%xmm0, 16(%rdi)
	movq	%rax, (%rdi)
	ret
	.cfi_endproc
.LFE151:
	.size	_ZN8opendnp312Group120Var6C2EjtRKN7openpal6RSliceE, .-_ZN8opendnp312Group120Var6C2EjtRKN7openpal6RSliceE
	.globl	_ZN8opendnp312Group120Var6C1EjtRKN7openpal6RSliceE
	.set	_ZN8opendnp312Group120Var6C1EjtRKN7openpal6RSliceE,_ZN8opendnp312Group120Var6C2EjtRKN7openpal6RSliceE
	.align 2
	.p2align 4
	.globl	_ZN8opendnp312Group120Var7C2Ev
	.type	_ZN8opendnp312Group120Var7C2Ev, @function
_ZN8opendnp312Group120Var7C2Ev:
.LFB157:
	.cfi_startproc
	movq	_ZTVN8opendnp312Group120Var7E@GOTPCREL(%rip), %rax
	movb	$0, 16(%rdi)
	addq	$32, %rdi
	movq	$0, -24(%rdi)
	addq	$16, %rax
	movq	$0, -8(%rdi)
	movq	%rax, -32(%rdi)
	jmp	_ZN7openpal6RSliceC1Ev@PLT
	.cfi_endproc
.LFE157:
	.size	_ZN8opendnp312Group120Var7C2Ev, .-_ZN8opendnp312Group120Var7C2Ev
	.globl	_ZN8opendnp312Group120Var7C1Ev
	.set	_ZN8opendnp312Group120Var7C1Ev,_ZN8opendnp312Group120Var7C2Ev
	.align 2
	.p2align 4
	.globl	_ZN8opendnp312Group120Var7C2EjttNS_13AuthErrorCodeEN7openpal10UInt48TypeERKNS2_6RSliceE
	.type	_ZN8opendnp312Group120Var7C2EjttNS_13AuthErrorCodeEN7openpal10UInt48TypeERKNS2_6RSliceE, @function
_ZN8opendnp312Group120Var7C2EjttNS_13AuthErrorCodeEN7openpal10UInt48TypeERKNS2_6RSliceE:
.LFB160:
	.cfi_startproc
	movq	_ZTVN8opendnp312Group120Var7E@GOTPCREL(%rip), %rax
	movl	%esi, 8(%rdi)
	movw	%dx, 12(%rdi)
	addq	$16, %rax
	movw	%cx, 14(%rdi)
	movq	%rax, (%rdi)
	movq	8(%rsp), %rax
	movb	%r8b, 16(%rdi)
	movdqu	(%rax), %xmm0
	movq	%r9, 24(%rdi)
	movups	%xmm0, 32(%rdi)
	ret
	.cfi_endproc
.LFE160:
	.size	_ZN8opendnp312Group120Var7C2EjttNS_13AuthErrorCodeEN7openpal10UInt48TypeERKNS2_6RSliceE, .-_ZN8opendnp312Group120Var7C2EjttNS_13AuthErrorCodeEN7openpal10UInt48TypeERKNS2_6RSliceE
	.globl	_ZN8opendnp312Group120Var7C1EjttNS_13AuthErrorCodeEN7openpal10UInt48TypeERKNS2_6RSliceE
	.set	_ZN8opendnp312Group120Var7C1EjttNS_13AuthErrorCodeEN7openpal10UInt48TypeERKNS2_6RSliceE,_ZN8opendnp312Group120Var7C2EjttNS_13AuthErrorCodeEN7openpal10UInt48TypeERKNS2_6RSliceE
	.align 2
	.p2align 4
	.globl	_ZN8opendnp312Group120Var8C2Ev
	.type	_ZN8opendnp312Group120Var8C2Ev, @function
_ZN8opendnp312Group120Var8C2Ev:
.LFB166:
	.cfi_startproc
	movq	_ZTVN8opendnp312Group120Var8E@GOTPCREL(%rip), %rax
	addq	$16, %rdi
	addq	$16, %rax
	movq	%rax, -16(%rdi)
	xorl	%eax, %eax
	movw	%ax, -8(%rdi)
	jmp	_ZN7openpal6RSliceC1Ev@PLT
	.cfi_endproc
.LFE166:
	.size	_ZN8opendnp312Group120Var8C2Ev, .-_ZN8opendnp312Group120Var8C2Ev
	.globl	_ZN8opendnp312Group120Var8C1Ev
	.set	_ZN8opendnp312Group120Var8C1Ev,_ZN8opendnp312Group120Var8C2Ev
	.align 2
	.p2align 4
	.globl	_ZN8opendnp312Group120Var8C2ENS_15KeyChangeMethodENS_15CertificateTypeERKN7openpal6RSliceE
	.type	_ZN8opendnp312Group120Var8C2ENS_15KeyChangeMethodENS_15CertificateTypeERKN7openpal6RSliceE, @function
_ZN8opendnp312Group120Var8C2ENS_15KeyChangeMethodENS_15CertificateTypeERKN7openpal6RSliceE:
.LFB169:
	.cfi_startproc
	movq	_ZTVN8opendnp312Group120Var8E@GOTPCREL(%rip), %rax
	movdqu	(%rcx), %xmm0
	movb	%sil, 8(%rdi)
	movb	%dl, 9(%rdi)
	addq	$16, %rax
	movups	%xmm0, 16(%rdi)
	movq	%rax, (%rdi)
	ret
	.cfi_endproc
.LFE169:
	.size	_ZN8opendnp312Group120Var8C2ENS_15KeyChangeMethodENS_15CertificateTypeERKN7openpal6RSliceE, .-_ZN8opendnp312Group120Var8C2ENS_15KeyChangeMethodENS_15CertificateTypeERKN7openpal6RSliceE
	.globl	_ZN8opendnp312Group120Var8C1ENS_15KeyChangeMethodENS_15CertificateTypeERKN7openpal6RSliceE
	.set	_ZN8opendnp312Group120Var8C1ENS_15KeyChangeMethodENS_15CertificateTypeERKN7openpal6RSliceE,_ZN8opendnp312Group120Var8C2ENS_15KeyChangeMethodENS_15CertificateTypeERKN7openpal6RSliceE
	.align 2
	.p2align 4
	.globl	_ZN8opendnp312Group120Var9C2Ev
	.type	_ZN8opendnp312Group120Var9C2Ev, @function
_ZN8opendnp312Group120Var9C2Ev:
.LFB175:
	.cfi_startproc
	movq	_ZTVN8opendnp312Group120Var9E@GOTPCREL(%rip), %rax
	addq	$8, %rdi
	addq	$16, %rax
	movq	%rax, -8(%rdi)
	jmp	_ZN7openpal6RSliceC1Ev@PLT
	.cfi_endproc
.LFE175:
	.size	_ZN8opendnp312Group120Var9C2Ev, .-_ZN8opendnp312Group120Var9C2Ev
	.globl	_ZN8opendnp312Group120Var9C1Ev
	.set	_ZN8opendnp312Group120Var9C1Ev,_ZN8opendnp312Group120Var9C2Ev
	.align 2
	.p2align 4
	.globl	_ZN8opendnp312Group120Var9C2ERKN7openpal6RSliceE
	.type	_ZN8opendnp312Group120Var9C2ERKN7openpal6RSliceE, @function
_ZN8opendnp312Group120Var9C2ERKN7openpal6RSliceE:
.LFB178:
	.cfi_startproc
	movq	_ZTVN8opendnp312Group120Var9E@GOTPCREL(%rip), %rax
	movdqu	(%rsi), %xmm0
	addq	$16, %rax
	movups	%xmm0, 8(%rdi)
	movq	%rax, (%rdi)
	ret
	.cfi_endproc
.LFE178:
	.size	_ZN8opendnp312Group120Var9C2ERKN7openpal6RSliceE, .-_ZN8opendnp312Group120Var9C2ERKN7openpal6RSliceE
	.globl	_ZN8opendnp312Group120Var9C1ERKN7openpal6RSliceE
	.set	_ZN8opendnp312Group120Var9C1ERKN7openpal6RSliceE,_ZN8opendnp312Group120Var9C2ERKN7openpal6RSliceE
	.align 2
	.p2align 4
	.globl	_ZN8opendnp313Group120Var10C2Ev
	.type	_ZN8opendnp313Group120Var10C2Ev, @function
_ZN8opendnp313Group120Var10C2Ev:
.LFB184:
	.cfi_startproc
	movq	_ZTVN8opendnp313Group120Var10E@GOTPCREL(%rip), %rax
	pushq	%rbx
	.cfi_def_cfa_offset 16
	.cfi_offset 3, -16
	movq	%rdi, %rbx
	leaq	24(%rdi), %rdi
	movq	$0, -12(%rdi)
	addq	$16, %rax
	movq	%rax, -24(%rdi)
	movl	$-256, %eax
	movw	%ax, -16(%rdi)
	call	_ZN7openpal6RSliceC1Ev@PLT
	leaq	40(%rbx), %rdi
	call	_ZN7openpal6RSliceC1Ev@PLT
	leaq	56(%rbx), %rdi
	popq	%rbx
	.cfi_def_cfa_offset 8
	jmp	_ZN7openpal6RSliceC1Ev@PLT
	.cfi_endproc
.LFE184:
	.size	_ZN8opendnp313Group120Var10C2Ev, .-_ZN8opendnp313Group120Var10C2Ev
	.globl	_ZN8opendnp313Group120Var10C1Ev
	.set	_ZN8opendnp313Group120Var10C1Ev,_ZN8opendnp313Group120Var10C2Ev
	.align 2
	.p2align 4
	.globl	_ZN8opendnp313Group120Var10C2ENS_15KeyChangeMethodENS_13UserOperationEjttRKN7openpal6RSliceES6_S6_
	.type	_ZN8opendnp313Group120Var10C2ENS_15KeyChangeMethodENS_13UserOperationEjttRKN7openpal6RSliceES6_S6_, @function
_ZN8opendnp313Group120Var10C2ENS_15KeyChangeMethodENS_13UserOperationEjttRKN7openpal6RSliceES6_S6_:
.LFB187:
	.cfi_startproc
	movq	_ZTVN8opendnp313Group120Var10E@GOTPCREL(%rip), %rax
	movb	%sil, 8(%rdi)
	movb	%dl, 9(%rdi)
	addq	$16, %rax
	movl	%ecx, 12(%rdi)
	movq	%rax, (%rdi)
	movq	8(%rsp), %rax
	movw	%r8w, 16(%rdi)
	movdqu	(%rax), %xmm0
	movq	16(%rsp), %rax
	movw	%r9w, 18(%rdi)
	movups	%xmm0, 24(%rdi)
	movdqu	(%rax), %xmm0
	movq	24(%rsp), %rax
	movups	%xmm0, 40(%rdi)
	movdqu	(%rax), %xmm0
	movups	%xmm0, 56(%rdi)
	ret
	.cfi_endproc
.LFE187:
	.size	_ZN8opendnp313Group120Var10C2ENS_15KeyChangeMethodENS_13UserOperationEjttRKN7openpal6RSliceES6_S6_, .-_ZN8opendnp313Group120Var10C2ENS_15KeyChangeMethodENS_13UserOperationEjttRKN7openpal6RSliceES6_S6_
	.globl	_ZN8opendnp313Group120Var10C1ENS_15KeyChangeMethodENS_13UserOperationEjttRKN7openpal6RSliceES6_S6_
	.set	_ZN8opendnp313Group120Var10C1ENS_15KeyChangeMethodENS_13UserOperationEjttRKN7openpal6RSliceES6_S6_,_ZN8opendnp313Group120Var10C2ENS_15KeyChangeMethodENS_13UserOperationEjttRKN7openpal6RSliceES6_S6_
	.align 2
	.p2align 4
	.globl	_ZN8opendnp313Group120Var11C2Ev
	.type	_ZN8opendnp313Group120Var11C2Ev, @function
_ZN8opendnp313Group120Var11C2Ev:
.LFB193:
	.cfi_startproc
	movq	_ZTVN8opendnp313Group120Var11E@GOTPCREL(%rip), %rax
	pushq	%rbx
	.cfi_def_cfa_offset 16
	.cfi_offset 3, -16
	movq	%rdi, %rbx
	leaq	16(%rdi), %rdi
	movb	$0, -8(%rdi)
	addq	$16, %rax
	movq	%rax, -16(%rdi)
	call	_ZN7openpal6RSliceC1Ev@PLT
	leaq	32(%rbx), %rdi
	popq	%rbx
	.cfi_def_cfa_offset 8
	jmp	_ZN7openpal6RSliceC1Ev@PLT
	.cfi_endproc
.LFE193:
	.size	_ZN8opendnp313Group120Var11C2Ev, .-_ZN8opendnp313Group120Var11C2Ev
	.globl	_ZN8opendnp313Group120Var11C1Ev
	.set	_ZN8opendnp313Group120Var11C1Ev,_ZN8opendnp313Group120Var11C2Ev
	.align 2
	.p2align 4
	.globl	_ZN8opendnp313Group120Var11C2ENS_15KeyChangeMethodERKN7openpal6RSliceES5_
	.type	_ZN8opendnp313Group120Var11C2ENS_15KeyChangeMethodERKN7openpal6RSliceES5_, @function
_ZN8opendnp313Group120Var11C2ENS_15KeyChangeMethodERKN7openpal6RSliceES5_:
.LFB196:
	.cfi_startproc
	movdqu	(%rdx), %xmm0
	movq	_ZTVN8opendnp313Group120Var11E@GOTPCREL(%rip), %rax
	movb	%sil, 8(%rdi)
	movups	%xmm0, 16(%rdi)
	movdqu	(%rcx), %xmm0
	addq	$16, %rax
	movq	%rax, (%rdi)
	movups	%xmm0, 32(%rdi)
	ret
	.cfi_endproc
.LFE196:
	.size	_ZN8opendnp313Group120Var11C2ENS_15KeyChangeMethodERKN7openpal6RSliceES5_, .-_ZN8opendnp313Group120Var11C2ENS_15KeyChangeMethodERKN7openpal6RSliceES5_
	.globl	_ZN8opendnp313Group120Var11C1ENS_15KeyChangeMethodERKN7openpal6RSliceES5_
	.set	_ZN8opendnp313Group120Var11C1ENS_15KeyChangeMethodERKN7openpal6RSliceES5_,_ZN8opendnp313Group120Var11C2ENS_15KeyChangeMethodERKN7openpal6RSliceES5_
	.align 2
	.p2align 4
	.globl	_ZN8opendnp313Group120Var12C2Ev
	.type	_ZN8opendnp313Group120Var12C2Ev, @function
_ZN8opendnp313Group120Var12C2Ev:
.LFB202:
	.cfi_startproc
	movq	_ZTVN8opendnp313Group120Var12E@GOTPCREL(%rip), %rax
	movl	$0, 8(%rdi)
	addq	$16, %rdi
	addq	$16, %rax
	movq	%rax, -16(%rdi)
	xorl	%eax, %eax
	movw	%ax, -4(%rdi)
	jmp	_ZN7openpal6RSliceC1Ev@PLT
	.cfi_endproc
.LFE202:
	.size	_ZN8opendnp313Group120Var12C2Ev, .-_ZN8opendnp313Group120Var12C2Ev
	.globl	_ZN8opendnp313Group120Var12C1Ev
	.set	_ZN8opendnp313Group120Var12C1Ev,_ZN8opendnp313Group120Var12C2Ev
	.align 2
	.p2align 4
	.globl	_ZN8opendnp313Group120Var12C2EjtRKN7openpal6RSliceE
	.type	_ZN8opendnp313Group120Var12C2EjtRKN7openpal6RSliceE, @function
_ZN8opendnp313Group120Var12C2EjtRKN7openpal6RSliceE:
.LFB205:
	.cfi_startproc
	movq	_ZTVN8opendnp313Group120Var12E@GOTPCREL(%rip), %rax
	movdqu	(%rcx), %xmm0
	movl	%esi, 8(%rdi)
	movw	%dx, 12(%rdi)
	addq	$16, %rax
	movups	%xmm0, 16(%rdi)
	movq	%rax, (%rdi)
	ret
	.cfi_endproc
.LFE205:
	.size	_ZN8opendnp313Group120Var12C2EjtRKN7openpal6RSliceE, .-_ZN8opendnp313Group120Var12C2EjtRKN7openpal6RSliceE
	.globl	_ZN8opendnp313Group120Var12C1EjtRKN7openpal6RSliceE
	.set	_ZN8opendnp313Group120Var12C1EjtRKN7openpal6RSliceE,_ZN8opendnp313Group120Var12C2EjtRKN7openpal6RSliceE
	.align 2
	.p2align 4
	.globl	_ZN8opendnp313Group120Var13C2Ev
	.type	_ZN8opendnp313Group120Var13C2Ev, @function
_ZN8opendnp313Group120Var13C2Ev:
.LFB211:
	.cfi_startproc
	movq	_ZTVN8opendnp313Group120Var13E@GOTPCREL(%rip), %rax
	movl	$0, 8(%rdi)
	addq	$16, %rdi
	addq	$16, %rax
	movq	%rax, -16(%rdi)
	xorl	%eax, %eax
	movw	%ax, -4(%rdi)
	jmp	_ZN7openpal6RSliceC1Ev@PLT
	.cfi_endproc
.LFE211:
	.size	_ZN8opendnp313Group120Var13C2Ev, .-_ZN8opendnp313Group120Var13C2Ev
	.globl	_ZN8opendnp313Group120Var13C1Ev
	.set	_ZN8opendnp313Group120Var13C1Ev,_ZN8opendnp313Group120Var13C2Ev
	.align 2
	.p2align 4
	.globl	_ZN8opendnp313Group120Var13C2EjtRKN7openpal6RSliceE
	.type	_ZN8opendnp313Group120Var13C2EjtRKN7openpal6RSliceE, @function
_ZN8opendnp313Group120Var13C2EjtRKN7openpal6RSliceE:
.LFB214:
	.cfi_startproc
	movq	_ZTVN8opendnp313Group120Var13E@GOTPCREL(%rip), %rax
	movdqu	(%rcx), %xmm0
	movl	%esi, 8(%rdi)
	movw	%dx, 12(%rdi)
	addq	$16, %rax
	movups	%xmm0, 16(%rdi)
	movq	%rax, (%rdi)
	ret
	.cfi_endproc
.LFE214:
	.size	_ZN8opendnp313Group120Var13C2EjtRKN7openpal6RSliceE, .-_ZN8opendnp313Group120Var13C2EjtRKN7openpal6RSliceE
	.globl	_ZN8opendnp313Group120Var13C1EjtRKN7openpal6RSliceE
	.set	_ZN8opendnp313Group120Var13C1EjtRKN7openpal6RSliceE,_ZN8opendnp313Group120Var13C2EjtRKN7openpal6RSliceE
	.align 2
	.p2align 4
	.globl	_ZN8opendnp313Group120Var14C2Ev
	.type	_ZN8opendnp313Group120Var14C2Ev, @function
_ZN8opendnp313Group120Var14C2Ev:
.LFB220:
	.cfi_startproc
	movq	_ZTVN8opendnp313Group120Var14E@GOTPCREL(%rip), %rax
	addq	$8, %rdi
	addq	$16, %rax
	movq	%rax, -8(%rdi)
	jmp	_ZN7openpal6RSliceC1Ev@PLT
	.cfi_endproc
.LFE220:
	.size	_ZN8opendnp313Group120Var14C2Ev, .-_ZN8opendnp313Group120Var14C2Ev
	.globl	_ZN8opendnp313Group120Var14C1Ev
	.set	_ZN8opendnp313Group120Var14C1Ev,_ZN8opendnp313Group120Var14C2Ev
	.align 2
	.p2align 4
	.globl	_ZN8opendnp313Group120Var14C2ERKN7openpal6RSliceE
	.type	_ZN8opendnp313Group120Var14C2ERKN7openpal6RSliceE, @function
_ZN8opendnp313Group120Var14C2ERKN7openpal6RSliceE:
.LFB223:
	.cfi_startproc
	movq	_ZTVN8opendnp313Group120Var14E@GOTPCREL(%rip), %rax
	movdqu	(%rsi), %xmm0
	addq	$16, %rax
	movups	%xmm0, 8(%rdi)
	movq	%rax, (%rdi)
	ret
	.cfi_endproc
.LFE223:
	.size	_ZN8opendnp313Group120Var14C2ERKN7openpal6RSliceE, .-_ZN8opendnp313Group120Var14C2ERKN7openpal6RSliceE
	.globl	_ZN8opendnp313Group120Var14C1ERKN7openpal6RSliceE
	.set	_ZN8opendnp313Group120Var14C1ERKN7openpal6RSliceE,_ZN8opendnp313Group120Var14C2ERKN7openpal6RSliceE
	.align 2
	.p2align 4
	.globl	_ZN8opendnp313Group120Var15C2Ev
	.type	_ZN8opendnp313Group120Var15C2Ev, @function
_ZN8opendnp313Group120Var15C2Ev:
.LFB229:
	.cfi_startproc
	movq	_ZTVN8opendnp313Group120Var15E@GOTPCREL(%rip), %rax
	addq	$8, %rdi
	addq	$16, %rax
	movq	%rax, -8(%rdi)
	jmp	_ZN7openpal6RSliceC1Ev@PLT
	.cfi_endproc
.LFE229:
	.size	_ZN8opendnp313Group120Var15C2Ev, .-_ZN8opendnp313Group120Var15C2Ev
	.globl	_ZN8opendnp313Group120Var15C1Ev
	.set	_ZN8opendnp313Group120Var15C1Ev,_ZN8opendnp313Group120Var15C2Ev
	.align 2
	.p2align 4
	.globl	_ZN8opendnp313Group120Var15C2ERKN7openpal6RSliceE
	.type	_ZN8opendnp313Group120Var15C2ERKN7openpal6RSliceE, @function
_ZN8opendnp313Group120Var15C2ERKN7openpal6RSliceE:
.LFB232:
	.cfi_startproc
	movq	_ZTVN8opendnp313Group120Var15E@GOTPCREL(%rip), %rax
	movdqu	(%rsi), %xmm0
	addq	$16, %rax
	movups	%xmm0, 8(%rdi)
	movq	%rax, (%rdi)
	ret
	.cfi_endproc
.LFE232:
	.size	_ZN8opendnp313Group120Var15C2ERKN7openpal6RSliceE, .-_ZN8opendnp313Group120Var15C2ERKN7openpal6RSliceE
	.globl	_ZN8opendnp313Group120Var15C1ERKN7openpal6RSliceE
	.set	_ZN8opendnp313Group120Var15C1ERKN7openpal6RSliceE,_ZN8opendnp313Group120Var15C2ERKN7openpal6RSliceE
	.weak	_ZTSN8opendnp315IVariableLengthE
	.section	.rodata._ZTSN8opendnp315IVariableLengthE,"aG",@progbits,_ZTSN8opendnp315IVariableLengthE,comdat
	.align 16
	.type	_ZTSN8opendnp315IVariableLengthE, @object
	.size	_ZTSN8opendnp315IVariableLengthE, 29
_ZTSN8opendnp315IVariableLengthE:
	.string	"N8opendnp315IVariableLengthE"
	.weak	_ZTIN8opendnp315IVariableLengthE
	.section	.data.rel.ro._ZTIN8opendnp315IVariableLengthE,"awG",@progbits,_ZTIN8opendnp315IVariableLengthE,comdat
	.align 8
	.type	_ZTIN8opendnp315IVariableLengthE, @object
	.size	_ZTIN8opendnp315IVariableLengthE, 16
_ZTIN8opendnp315IVariableLengthE:
	.quad	_ZTVN10__cxxabiv117__class_type_infoE+16
	.quad	_ZTSN8opendnp315IVariableLengthE
	.weak	_ZTSN8opendnp312Group120Var1E
	.section	.rodata._ZTSN8opendnp312Group120Var1E,"aG",@progbits,_ZTSN8opendnp312Group120Var1E,comdat
	.align 16
	.type	_ZTSN8opendnp312Group120Var1E, @object
	.size	_ZTSN8opendnp312Group120Var1E, 26
_ZTSN8opendnp312Group120Var1E:
	.string	"N8opendnp312Group120Var1E"
	.weak	_ZTIN8opendnp312Group120Var1E
	.section	.data.rel.ro._ZTIN8opendnp312Group120Var1E,"awG",@progbits,_ZTIN8opendnp312Group120Var1E,comdat
	.align 8
	.type	_ZTIN8opendnp312Group120Var1E, @object
	.size	_ZTIN8opendnp312Group120Var1E, 24
_ZTIN8opendnp312Group120Var1E:
	.quad	_ZTVN10__cxxabiv120__si_class_type_infoE+16
	.quad	_ZTSN8opendnp312Group120Var1E
	.quad	_ZTIN8opendnp315IVariableLengthE
	.weak	_ZTSN8opendnp312Group120Var2E
	.section	.rodata._ZTSN8opendnp312Group120Var2E,"aG",@progbits,_ZTSN8opendnp312Group120Var2E,comdat
	.align 16
	.type	_ZTSN8opendnp312Group120Var2E, @object
	.size	_ZTSN8opendnp312Group120Var2E, 26
_ZTSN8opendnp312Group120Var2E:
	.string	"N8opendnp312Group120Var2E"
	.weak	_ZTIN8opendnp312Group120Var2E
	.section	.data.rel.ro._ZTIN8opendnp312Group120Var2E,"awG",@progbits,_ZTIN8opendnp312Group120Var2E,comdat
	.align 8
	.type	_ZTIN8opendnp312Group120Var2E, @object
	.size	_ZTIN8opendnp312Group120Var2E, 24
_ZTIN8opendnp312Group120Var2E:
	.quad	_ZTVN10__cxxabiv120__si_class_type_infoE+16
	.quad	_ZTSN8opendnp312Group120Var2E
	.quad	_ZTIN8opendnp315IVariableLengthE
	.weak	_ZTSN8opendnp312Group120Var5E
	.section	.rodata._ZTSN8opendnp312Group120Var5E,"aG",@progbits,_ZTSN8opendnp312Group120Var5E,comdat
	.align 16
	.type	_ZTSN8opendnp312Group120Var5E, @object
	.size	_ZTSN8opendnp312Group120Var5E, 26
_ZTSN8opendnp312Group120Var5E:
	.string	"N8opendnp312Group120Var5E"
	.weak	_ZTIN8opendnp312Group120Var5E
	.section	.data.rel.ro._ZTIN8opendnp312Group120Var5E,"awG",@progbits,_ZTIN8opendnp312Group120Var5E,comdat
	.align 8
	.type	_ZTIN8opendnp312Group120Var5E, @object
	.size	_ZTIN8opendnp312Group120Var5E, 24
_ZTIN8opendnp312Group120Var5E:
	.quad	_ZTVN10__cxxabiv120__si_class_type_infoE+16
	.quad	_ZTSN8opendnp312Group120Var5E
	.quad	_ZTIN8opendnp315IVariableLengthE
	.weak	_ZTSN8opendnp312Group120Var6E
	.section	.rodata._ZTSN8opendnp312Group120Var6E,"aG",@progbits,_ZTSN8opendnp312Group120Var6E,comdat
	.align 16
	.type	_ZTSN8opendnp312Group120Var6E, @object
	.size	_ZTSN8opendnp312Group120Var6E, 26
_ZTSN8opendnp312Group120Var6E:
	.string	"N8opendnp312Group120Var6E"
	.weak	_ZTIN8opendnp312Group120Var6E
	.section	.data.rel.ro._ZTIN8opendnp312Group120Var6E,"awG",@progbits,_ZTIN8opendnp312Group120Var6E,comdat
	.align 8
	.type	_ZTIN8opendnp312Group120Var6E, @object
	.size	_ZTIN8opendnp312Group120Var6E, 24
_ZTIN8opendnp312Group120Var6E:
	.quad	_ZTVN10__cxxabiv120__si_class_type_infoE+16
	.quad	_ZTSN8opendnp312Group120Var6E
	.quad	_ZTIN8opendnp315IVariableLengthE
	.weak	_ZTSN8opendnp312Group120Var7E
	.section	.rodata._ZTSN8opendnp312Group120Var7E,"aG",@progbits,_ZTSN8opendnp312Group120Var7E,comdat
	.align 16
	.type	_ZTSN8opendnp312Group120Var7E, @object
	.size	_ZTSN8opendnp312Group120Var7E, 26
_ZTSN8opendnp312Group120Var7E:
	.string	"N8opendnp312Group120Var7E"
	.weak	_ZTIN8opendnp312Group120Var7E
	.section	.data.rel.ro._ZTIN8opendnp312Group120Var7E,"awG",@progbits,_ZTIN8opendnp312Group120Var7E,comdat
	.align 8
	.type	_ZTIN8opendnp312Group120Var7E, @object
	.size	_ZTIN8opendnp312Group120Var7E, 24
_ZTIN8opendnp312Group120Var7E:
	.quad	_ZTVN10__cxxabiv120__si_class_type_infoE+16
	.quad	_ZTSN8opendnp312Group120Var7E
	.quad	_ZTIN8opendnp315IVariableLengthE
	.weak	_ZTSN8opendnp312Group120Var8E
	.section	.rodata._ZTSN8opendnp312Group120Var8E,"aG",@progbits,_ZTSN8opendnp312Group120Var8E,comdat
	.align 16
	.type	_ZTSN8opendnp312Group120Var8E, @object
	.size	_ZTSN8opendnp312Group120Var8E, 26
_ZTSN8opendnp312Group120Var8E:
	.string	"N8opendnp312Group120Var8E"
	.weak	_ZTIN8opendnp312Group120Var8E
	.section	.data.rel.ro._ZTIN8opendnp312Group120Var8E,"awG",@progbits,_ZTIN8opendnp312Group120Var8E,comdat
	.align 8
	.type	_ZTIN8opendnp312Group120Var8E, @object
	.size	_ZTIN8opendnp312Group120Var8E, 24
_ZTIN8opendnp312Group120Var8E:
	.quad	_ZTVN10__cxxabiv120__si_class_type_infoE+16
	.quad	_ZTSN8opendnp312Group120Var8E
	.quad	_ZTIN8opendnp315IVariableLengthE
	.weak	_ZTSN8opendnp312Group120Var9E
	.section	.rodata._ZTSN8opendnp312Group120Var9E,"aG",@progbits,_ZTSN8opendnp312Group120Var9E,comdat
	.align 16
	.type	_ZTSN8opendnp312Group120Var9E, @object
	.size	_ZTSN8opendnp312Group120Var9E, 26
_ZTSN8opendnp312Group120Var9E:
	.string	"N8opendnp312Group120Var9E"
	.weak	_ZTIN8opendnp312Group120Var9E
	.section	.data.rel.ro._ZTIN8opendnp312Group120Var9E,"awG",@progbits,_ZTIN8opendnp312Group120Var9E,comdat
	.align 8
	.type	_ZTIN8opendnp312Group120Var9E, @object
	.size	_ZTIN8opendnp312Group120Var9E, 24
_ZTIN8opendnp312Group120Var9E:
	.quad	_ZTVN10__cxxabiv120__si_class_type_infoE+16
	.quad	_ZTSN8opendnp312Group120Var9E
	.quad	_ZTIN8opendnp315IVariableLengthE
	.weak	_ZTSN8opendnp313Group120Var10E
	.section	.rodata._ZTSN8opendnp313Group120Var10E,"aG",@progbits,_ZTSN8opendnp313Group120Var10E,comdat
	.align 16
	.type	_ZTSN8opendnp313Group120Var10E, @object
	.size	_ZTSN8opendnp313Group120Var10E, 27
_ZTSN8opendnp313Group120Var10E:
	.string	"N8opendnp313Group120Var10E"
	.weak	_ZTIN8opendnp313Group120Var10E
	.section	.data.rel.ro._ZTIN8opendnp313Group120Var10E,"awG",@progbits,_ZTIN8opendnp313Group120Var10E,comdat
	.align 8
	.type	_ZTIN8opendnp313Group120Var10E, @object
	.size	_ZTIN8opendnp313Group120Var10E, 24
_ZTIN8opendnp313Group120Var10E:
	.quad	_ZTVN10__cxxabiv120__si_class_type_infoE+16
	.quad	_ZTSN8opendnp313Group120Var10E
	.quad	_ZTIN8opendnp315IVariableLengthE
	.weak	_ZTSN8opendnp313Group120Var11E
	.section	.rodata._ZTSN8opendnp313Group120Var11E,"aG",@progbits,_ZTSN8opendnp313Group120Var11E,comdat
	.align 16
	.type	_ZTSN8opendnp313Group120Var11E, @object
	.size	_ZTSN8opendnp313Group120Var11E, 27
_ZTSN8opendnp313Group120Var11E:
	.string	"N8opendnp313Group120Var11E"
	.weak	_ZTIN8opendnp313Group120Var11E
	.section	.data.rel.ro._ZTIN8opendnp313Group120Var11E,"awG",@progbits,_ZTIN8opendnp313Group120Var11E,comdat
	.align 8
	.type	_ZTIN8opendnp313Group120Var11E, @object
	.size	_ZTIN8opendnp313Group120Var11E, 24
_ZTIN8opendnp313Group120Var11E:
	.quad	_ZTVN10__cxxabiv120__si_class_type_infoE+16
	.quad	_ZTSN8opendnp313Group120Var11E
	.quad	_ZTIN8opendnp315IVariableLengthE
	.weak	_ZTSN8opendnp313Group120Var12E
	.section	.rodata._ZTSN8opendnp313Group120Var12E,"aG",@progbits,_ZTSN8opendnp313Group120Var12E,comdat
	.align 16
	.type	_ZTSN8opendnp313Group120Var12E, @object
	.size	_ZTSN8opendnp313Group120Var12E, 27
_ZTSN8opendnp313Group120Var12E:
	.string	"N8opendnp313Group120Var12E"
	.weak	_ZTIN8opendnp313Group120Var12E
	.section	.data.rel.ro._ZTIN8opendnp313Group120Var12E,"awG",@progbits,_ZTIN8opendnp313Group120Var12E,comdat
	.align 8
	.type	_ZTIN8opendnp313Group120Var12E, @object
	.size	_ZTIN8opendnp313Group120Var12E, 24
_ZTIN8opendnp313Group120Var12E:
	.quad	_ZTVN10__cxxabiv120__si_class_type_infoE+16
	.quad	_ZTSN8opendnp313Group120Var12E
	.quad	_ZTIN8opendnp315IVariableLengthE
	.weak	_ZTSN8opendnp313Group120Var13E
	.section	.rodata._ZTSN8opendnp313Group120Var13E,"aG",@progbits,_ZTSN8opendnp313Group120Var13E,comdat
	.align 16
	.type	_ZTSN8opendnp313Group120Var13E, @object
	.size	_ZTSN8opendnp313Group120Var13E, 27
_ZTSN8opendnp313Group120Var13E:
	.string	"N8opendnp313Group120Var13E"
	.weak	_ZTIN8opendnp313Group120Var13E
	.section	.data.rel.ro._ZTIN8opendnp313Group120Var13E,"awG",@progbits,_ZTIN8opendnp313Group120Var13E,comdat
	.align 8
	.type	_ZTIN8opendnp313Group120Var13E, @object
	.size	_ZTIN8opendnp313Group120Var13E, 24
_ZTIN8opendnp313Group120Var13E:
	.quad	_ZTVN10__cxxabiv120__si_class_type_infoE+16
	.quad	_ZTSN8opendnp313Group120Var13E
	.quad	_ZTIN8opendnp315IVariableLengthE
	.weak	_ZTSN8opendnp313Group120Var14E
	.section	.rodata._ZTSN8opendnp313Group120Var14E,"aG",@progbits,_ZTSN8opendnp313Group120Var14E,comdat
	.align 16
	.type	_ZTSN8opendnp313Group120Var14E, @object
	.size	_ZTSN8opendnp313Group120Var14E, 27
_ZTSN8opendnp313Group120Var14E:
	.string	"N8opendnp313Group120Var14E"
	.weak	_ZTIN8opendnp313Group120Var14E
	.section	.data.rel.ro._ZTIN8opendnp313Group120Var14E,"awG",@progbits,_ZTIN8opendnp313Group120Var14E,comdat
	.align 8
	.type	_ZTIN8opendnp313Group120Var14E, @object
	.size	_ZTIN8opendnp313Group120Var14E, 24
_ZTIN8opendnp313Group120Var14E:
	.quad	_ZTVN10__cxxabiv120__si_class_type_infoE+16
	.quad	_ZTSN8opendnp313Group120Var14E
	.quad	_ZTIN8opendnp315IVariableLengthE
	.weak	_ZTSN8opendnp313Group120Var15E
	.section	.rodata._ZTSN8opendnp313Group120Var15E,"aG",@progbits,_ZTSN8opendnp313Group120Var15E,comdat
	.align 16
	.type	_ZTSN8opendnp313Group120Var15E, @object
	.size	_ZTSN8opendnp313Group120Var15E, 27
_ZTSN8opendnp313Group120Var15E:
	.string	"N8opendnp313Group120Var15E"
	.weak	_ZTIN8opendnp313Group120Var15E
	.section	.data.rel.ro._ZTIN8opendnp313Group120Var15E,"awG",@progbits,_ZTIN8opendnp313Group120Var15E,comdat
	.align 8
	.type	_ZTIN8opendnp313Group120Var15E, @object
	.size	_ZTIN8opendnp313Group120Var15E, 24
_ZTIN8opendnp313Group120Var15E:
	.quad	_ZTVN10__cxxabiv120__si_class_type_infoE+16
	.quad	_ZTSN8opendnp313Group120Var15E
	.quad	_ZTIN8opendnp315IVariableLengthE
	.weak	_ZTVN8opendnp312Group120Var1E
	.section	.data.rel.ro._ZTVN8opendnp312Group120Var1E,"awG",@progbits,_ZTVN8opendnp312Group120Var1E,comdat
	.align 8
	.type	_ZTVN8opendnp312Group120Var1E, @object
	.size	_ZTVN8opendnp312Group120Var1E, 64
_ZTVN8opendnp312Group120Var1E:
	.quad	0
	.quad	_ZTIN8opendnp312Group120Var1E
	.quad	_ZN8opendnp312Group120Var1D1Ev
	.quad	_ZN8opendnp312Group120Var1D0Ev
	.quad	_ZNK8opendnp312Group120Var110InstanceIDEv
	.quad	_ZNK8opendnp312Group120Var14SizeEv
	.quad	_ZNK8opendnp312Group120Var15WriteERN7openpal6WSliceE
	.quad	_ZN8opendnp312Group120Var14ReadERKN7openpal6RSliceE
	.weak	_ZTVN8opendnp312Group120Var2E
	.section	.data.rel.ro._ZTVN8opendnp312Group120Var2E,"awG",@progbits,_ZTVN8opendnp312Group120Var2E,comdat
	.align 8
	.type	_ZTVN8opendnp312Group120Var2E, @object
	.size	_ZTVN8opendnp312Group120Var2E, 64
_ZTVN8opendnp312Group120Var2E:
	.quad	0
	.quad	_ZTIN8opendnp312Group120Var2E
	.quad	_ZN8opendnp312Group120Var2D1Ev
	.quad	_ZN8opendnp312Group120Var2D0Ev
	.quad	_ZNK8opendnp312Group120Var210InstanceIDEv
	.quad	_ZNK8opendnp312Group120Var24SizeEv
	.quad	_ZNK8opendnp312Group120Var25WriteERN7openpal6WSliceE
	.quad	_ZN8opendnp312Group120Var24ReadERKN7openpal6RSliceE
	.weak	_ZTVN8opendnp312Group120Var5E
	.section	.data.rel.ro._ZTVN8opendnp312Group120Var5E,"awG",@progbits,_ZTVN8opendnp312Group120Var5E,comdat
	.align 8
	.type	_ZTVN8opendnp312Group120Var5E, @object
	.size	_ZTVN8opendnp312Group120Var5E, 64
_ZTVN8opendnp312Group120Var5E:
	.quad	0
	.quad	_ZTIN8opendnp312Group120Var5E
	.quad	_ZN8opendnp312Group120Var5D1Ev
	.quad	_ZN8opendnp312Group120Var5D0Ev
	.quad	_ZNK8opendnp312Group120Var510InstanceIDEv
	.quad	_ZNK8opendnp312Group120Var54SizeEv
	.quad	_ZNK8opendnp312Group120Var55WriteERN7openpal6WSliceE
	.quad	_ZN8opendnp312Group120Var54ReadERKN7openpal6RSliceE
	.weak	_ZTVN8opendnp312Group120Var6E
	.section	.data.rel.ro._ZTVN8opendnp312Group120Var6E,"awG",@progbits,_ZTVN8opendnp312Group120Var6E,comdat
	.align 8
	.type	_ZTVN8opendnp312Group120Var6E, @object
	.size	_ZTVN8opendnp312Group120Var6E, 64
_ZTVN8opendnp312Group120Var6E:
	.quad	0
	.quad	_ZTIN8opendnp312Group120Var6E
	.quad	_ZN8opendnp312Group120Var6D1Ev
	.quad	_ZN8opendnp312Group120Var6D0Ev
	.quad	_ZNK8opendnp312Group120Var610InstanceIDEv
	.quad	_ZNK8opendnp312Group120Var64SizeEv
	.quad	_ZNK8opendnp312Group120Var65WriteERN7openpal6WSliceE
	.quad	_ZN8opendnp312Group120Var64ReadERKN7openpal6RSliceE
	.weak	_ZTVN8opendnp312Group120Var7E
	.section	.data.rel.ro._ZTVN8opendnp312Group120Var7E,"awG",@progbits,_ZTVN8opendnp312Group120Var7E,comdat
	.align 8
	.type	_ZTVN8opendnp312Group120Var7E, @object
	.size	_ZTVN8opendnp312Group120Var7E, 64
_ZTVN8opendnp312Group120Var7E:
	.quad	0
	.quad	_ZTIN8opendnp312Group120Var7E
	.quad	_ZN8opendnp312Group120Var7D1Ev
	.quad	_ZN8opendnp312Group120Var7D0Ev
	.quad	_ZNK8opendnp312Group120Var710InstanceIDEv
	.quad	_ZNK8opendnp312Group120Var74SizeEv
	.quad	_ZNK8opendnp312Group120Var75WriteERN7openpal6WSliceE
	.quad	_ZN8opendnp312Group120Var74ReadERKN7openpal6RSliceE
	.weak	_ZTVN8opendnp312Group120Var8E
	.section	.data.rel.ro._ZTVN8opendnp312Group120Var8E,"awG",@progbits,_ZTVN8opendnp312Group120Var8E,comdat
	.align 8
	.type	_ZTVN8opendnp312Group120Var8E, @object
	.size	_ZTVN8opendnp312Group120Var8E, 64
_ZTVN8opendnp312Group120Var8E:
	.quad	0
	.quad	_ZTIN8opendnp312Group120Var8E
	.quad	_ZN8opendnp312Group120Var8D1Ev
	.quad	_ZN8opendnp312Group120Var8D0Ev
	.quad	_ZNK8opendnp312Group120Var810InstanceIDEv
	.quad	_ZNK8opendnp312Group120Var84SizeEv
	.quad	_ZNK8opendnp312Group120Var85WriteERN7openpal6WSliceE
	.quad	_ZN8opendnp312Group120Var84ReadERKN7openpal6RSliceE
	.weak	_ZTVN8opendnp312Group120Var9E
	.section	.data.rel.ro._ZTVN8opendnp312Group120Var9E,"awG",@progbits,_ZTVN8opendnp312Group120Var9E,comdat
	.align 8
	.type	_ZTVN8opendnp312Group120Var9E, @object
	.size	_ZTVN8opendnp312Group120Var9E, 64
_ZTVN8opendnp312Group120Var9E:
	.quad	0
	.quad	_ZTIN8opendnp312Group120Var9E
	.quad	_ZN8opendnp312Group120Var9D1Ev
	.quad	_ZN8opendnp312Group120Var9D0Ev
	.quad	_ZNK8opendnp312Group120Var910InstanceIDEv
	.quad	_ZNK8opendnp312Group120Var94SizeEv
	.quad	_ZNK8opendnp312Group120Var95WriteERN7openpal6WSliceE
	.quad	_ZN8opendnp312Group120Var94ReadERKN7openpal6RSliceE
	.weak	_ZTVN8opendnp313Group120Var10E
	.section	.data.rel.ro._ZTVN8opendnp313Group120Var10E,"awG",@progbits,_ZTVN8opendnp313Group120Var10E,comdat
	.align 8
	.type	_ZTVN8opendnp313Group120Var10E, @object
	.size	_ZTVN8opendnp313Group120Var10E, 64
_ZTVN8opendnp313Group120Var10E:
	.quad	0
	.quad	_ZTIN8opendnp313Group120Var10E
	.quad	_ZN8opendnp313Group120Var10D1Ev
	.quad	_ZN8opendnp313Group120Var10D0Ev
	.quad	_ZNK8opendnp313Group120Var1010InstanceIDEv
	.quad	_ZNK8opendnp313Group120Var104SizeEv
	.quad	_ZNK8opendnp313Group120Var105WriteERN7openpal6WSliceE
	.quad	_ZN8opendnp313Group120Var104ReadERKN7openpal6RSliceE
	.weak	_ZTVN8opendnp313Group120Var11E
	.section	.data.rel.ro._ZTVN8opendnp313Group120Var11E,"awG",@progbits,_ZTVN8opendnp313Group120Var11E,comdat
	.align 8
	.type	_ZTVN8opendnp313Group120Var11E, @object
	.size	_ZTVN8opendnp313Group120Var11E, 64
_ZTVN8opendnp313Group120Var11E:
	.quad	0
	.quad	_ZTIN8opendnp313Group120Var11E
	.quad	_ZN8opendnp313Group120Var11D1Ev
	.quad	_ZN8opendnp313Group120Var11D0Ev
	.quad	_ZNK8opendnp313Group120Var1110InstanceIDEv
	.quad	_ZNK8opendnp313Group120Var114SizeEv
	.quad	_ZNK8opendnp313Group120Var115WriteERN7openpal6WSliceE
	.quad	_ZN8opendnp313Group120Var114ReadERKN7openpal6RSliceE
	.weak	_ZTVN8opendnp313Group120Var12E
	.section	.data.rel.ro._ZTVN8opendnp313Group120Var12E,"awG",@progbits,_ZTVN8opendnp313Group120Var12E,comdat
	.align 8
	.type	_ZTVN8opendnp313Group120Var12E, @object
	.size	_ZTVN8opendnp313Group120Var12E, 64
_ZTVN8opendnp313Group120Var12E:
	.quad	0
	.quad	_ZTIN8opendnp313Group120Var12E
	.quad	_ZN8opendnp313Group120Var12D1Ev
	.quad	_ZN8opendnp313Group120Var12D0Ev
	.quad	_ZNK8opendnp313Group120Var1210InstanceIDEv
	.quad	_ZNK8opendnp313Group120Var124SizeEv
	.quad	_ZNK8opendnp313Group120Var125WriteERN7openpal6WSliceE
	.quad	_ZN8opendnp313Group120Var124ReadERKN7openpal6RSliceE
	.weak	_ZTVN8opendnp313Group120Var13E
	.section	.data.rel.ro._ZTVN8opendnp313Group120Var13E,"awG",@progbits,_ZTVN8opendnp313Group120Var13E,comdat
	.align 8
	.type	_ZTVN8opendnp313Group120Var13E, @object
	.size	_ZTVN8opendnp313Group120Var13E, 64
_ZTVN8opendnp313Group120Var13E:
	.quad	0
	.quad	_ZTIN8opendnp313Group120Var13E
	.quad	_ZN8opendnp313Group120Var13D1Ev
	.quad	_ZN8opendnp313Group120Var13D0Ev
	.quad	_ZNK8opendnp313Group120Var1310InstanceIDEv
	.quad	_ZNK8opendnp313Group120Var134SizeEv
	.quad	_ZNK8opendnp313Group120Var135WriteERN7openpal6WSliceE
	.quad	_ZN8opendnp313Group120Var134ReadERKN7openpal6RSliceE
	.weak	_ZTVN8opendnp313Group120Var14E
	.section	.data.rel.ro._ZTVN8opendnp313Group120Var14E,"awG",@progbits,_ZTVN8opendnp313Group120Var14E,comdat
	.align 8
	.type	_ZTVN8opendnp313Group120Var14E, @object
	.size	_ZTVN8opendnp313Group120Var14E, 64
_ZTVN8opendnp313Group120Var14E:
	.quad	0
	.quad	_ZTIN8opendnp313Group120Var14E
	.quad	_ZN8opendnp313Group120Var14D1Ev
	.quad	_ZN8opendnp313Group120Var14D0Ev
	.quad	_ZNK8opendnp313Group120Var1410InstanceIDEv
	.quad	_ZNK8opendnp313Group120Var144SizeEv
	.quad	_ZNK8opendnp313Group120Var145WriteERN7openpal6WSliceE
	.quad	_ZN8opendnp313Group120Var144ReadERKN7openpal6RSliceE
	.weak	_ZTVN8opendnp313Group120Var15E
	.section	.data.rel.ro._ZTVN8opendnp313Group120Var15E,"awG",@progbits,_ZTVN8opendnp313Group120Var15E,comdat
	.align 8
	.type	_ZTVN8opendnp313Group120Var15E, @object
	.size	_ZTVN8opendnp313Group120Var15E, 64
_ZTVN8opendnp313Group120Var15E:
	.quad	0
	.quad	_ZTIN8opendnp313Group120Var15E
	.quad	_ZN8opendnp313Group120Var15D1Ev
	.quad	_ZN8opendnp313Group120Var15D0Ev
	.quad	_ZNK8opendnp313Group120Var1510InstanceIDEv
	.quad	_ZNK8opendnp313Group120Var154SizeEv
	.quad	_ZNK8opendnp313Group120Var155WriteERN7openpal6WSliceE
	.quad	_ZN8opendnp313Group120Var154ReadERKN7openpal6RSliceE
	.ident	"GCC: (Debian 15.2.0-4) 15.2.0"
	.section	.note.GNU-stack,"",@progbits
