	.file	"Group50.cpp"
	.text
	.align 2
	.p2align 4
	.globl	_ZN8opendnp311Group50Var1C2Ev
	.type	_ZN8opendnp311Group50Var1C2Ev, @function
_ZN8opendnp311Group50Var1C2Ev:
.LFB393:
	.cfi_startproc
	movq	$0, (%rdi)
	ret
	.cfi_endproc
.LFE393:
	.size	_ZN8opendnp311Group50Var1C2Ev, .-_ZN8opendnp311Group50Var1C2Ev
	.globl	_ZN8opendnp311Group50Var1C1Ev
	.set	_ZN8opendnp311Group50Var1C1Ev,_ZN8opendnp311Group50Var1C2Ev
	.align 2
	.p2align 4
	.globl	_ZN8opendnp311Group50Var14ReadERN7openpal6RSliceERS0_
	.type	_ZN8opendnp311Group50Var14ReadERN7openpal6RSliceERS0_, @function
_ZN8opendnp311Group50Var14ReadERN7openpal6RSliceERS0_:
.LFB395:
	.cfi_startproc
	jmp	_ZN7openpal5Parse4ReadERNS_6RSliceERNS_10UInt48TypeE@PLT
	.cfi_endproc
.LFE395:
	.size	_ZN8opendnp311Group50Var14ReadERN7openpal6RSliceERS0_, .-_ZN8opendnp311Group50Var14ReadERN7openpal6RSliceERS0_
	.align 2
	.p2align 4
	.globl	_ZN8opendnp311Group50Var15WriteERKS0_RN7openpal6WSliceE
	.type	_ZN8opendnp311Group50Var15WriteERKS0_RN7openpal6WSliceE, @function
_ZN8opendnp311Group50Var15WriteERKS0_RN7openpal6WSliceE:
.LFB396:
	.cfi_startproc
	movq	%rdi, %rax
	movq	%rsi, %rdi
	movq	%rax, %rsi
	jmp	_ZN7openpal6Format5WriteERNS_6WSliceERKNS_10UInt48TypeE@PLT
	.cfi_endproc
.LFE396:
	.size	_ZN8opendnp311Group50Var15WriteERKS0_RN7openpal6WSliceE, .-_ZN8opendnp311Group50Var15WriteERKS0_RN7openpal6WSliceE
	.align 2
	.p2align 4
	.globl	_ZN8opendnp311Group50Var4C2Ev
	.type	_ZN8opendnp311Group50Var4C2Ev, @function
_ZN8opendnp311Group50Var4C2Ev:
.LFB398:
	.cfi_startproc
	movq	$0, (%rdi)
	movl	$0, 8(%rdi)
	movb	$0, 12(%rdi)
	ret
	.cfi_endproc
.LFE398:
	.size	_ZN8opendnp311Group50Var4C2Ev, .-_ZN8opendnp311Group50Var4C2Ev
	.globl	_ZN8opendnp311Group50Var4C1Ev
	.set	_ZN8opendnp311Group50Var4C1Ev,_ZN8opendnp311Group50Var4C2Ev
	.align 2
	.p2align 4
	.globl	_ZN8opendnp311Group50Var44ReadERN7openpal6RSliceERS0_
	.type	_ZN8opendnp311Group50Var44ReadERN7openpal6RSliceERS0_, @function
_ZN8opendnp311Group50Var44ReadERN7openpal6RSliceERS0_:
.LFB400:
	.cfi_startproc
	pushq	%rbp
	.cfi_def_cfa_offset 16
	.cfi_offset 6, -16
	movq	%rdi, %rbp
	pushq	%rbx
	.cfi_def_cfa_offset 24
	.cfi_offset 3, -24
	movq	%rsi, %rbx
	subq	$8, %rsp
	.cfi_def_cfa_offset 32
	call	_ZN7openpal5Parse4ReadERNS_6RSliceERNS_10UInt48TypeE@PLT
	testb	%al, %al
	jne	.L14
.L8:
	addq	$8, %rsp
	.cfi_remember_state
	.cfi_def_cfa_offset 24
	xorl	%eax, %eax
	popq	%rbx
	.cfi_def_cfa_offset 16
	popq	%rbp
	.cfi_def_cfa_offset 8
	ret
	.p2align 4,,10
	.p2align 3
.L14:
	.cfi_restore_state
	leaq	8(%rbx), %rsi
	movq	%rbp, %rdi
	call	_ZN7openpal5Parse4ReadERNS_6RSliceERj@PLT
	testb	%al, %al
	je	.L8
	addq	$8, %rsp
	.cfi_def_cfa_offset 24
	leaq	12(%rbx), %rsi
	movq	%rbp, %rdi
	popq	%rbx
	.cfi_def_cfa_offset 16
	popq	%rbp
	.cfi_def_cfa_offset 8
	jmp	_ZN7openpal5Parse4ReadERNS_6RSliceERh@PLT
	.cfi_endproc
.LFE400:
	.size	_ZN8opendnp311Group50Var44ReadERN7openpal6RSliceERS0_, .-_ZN8opendnp311Group50Var44ReadERN7openpal6RSliceERS0_
	.align 2
	.p2align 4
	.globl	_ZN8opendnp311Group50Var45WriteERKS0_RN7openpal6WSliceE
	.type	_ZN8opendnp311Group50Var45WriteERKS0_RN7openpal6WSliceE, @function
_ZN8opendnp311Group50Var45WriteERKS0_RN7openpal6WSliceE:
.LFB401:
	.cfi_startproc
	pushq	%rbp
	.cfi_def_cfa_offset 16
	.cfi_offset 6, -16
	movq	%rsi, %rbp
	movq	%rdi, %rsi
	pushq	%rbx
	.cfi_def_cfa_offset 24
	.cfi_offset 3, -24
	movq	%rdi, %rbx
	movq	%rbp, %rdi
	subq	$8, %rsp
	.cfi_def_cfa_offset 32
	call	_ZN7openpal6Format5WriteERNS_6WSliceERKNS_10UInt48TypeE@PLT
	testb	%al, %al
	jne	.L23
.L17:
	addq	$8, %rsp
	.cfi_remember_state
	.cfi_def_cfa_offset 24
	xorl	%eax, %eax
	popq	%rbx
	.cfi_def_cfa_offset 16
	popq	%rbp
	.cfi_def_cfa_offset 8
	ret
	.p2align 4,,10
	.p2align 3
.L23:
	.cfi_restore_state
	leaq	8(%rbx), %rsi
	movq	%rbp, %rdi
	call	_ZN7openpal6Format5WriteERNS_6WSliceERKj@PLT
	testb	%al, %al
	je	.L17
	addq	$8, %rsp
	.cfi_def_cfa_offset 24
	leaq	12(%rbx), %rsi
	movq	%rbp, %rdi
	popq	%rbx
	.cfi_def_cfa_offset 16
	popq	%rbp
	.cfi_def_cfa_offset 8
	jmp	_ZN7openpal6Format5WriteERNS_6WSliceERKh@PLT
	.cfi_endproc
.LFE401:
	.size	_ZN8opendnp311Group50Var45WriteERKS0_RN7openpal6WSliceE, .-_ZN8opendnp311Group50Var45WriteERKS0_RN7openpal6WSliceE
	.align 2
	.p2align 4
	.globl	_ZN8opendnp311Group50Var410ReadTargetERN7openpal6RSliceERNS_15TimeAndIntervalE
	.type	_ZN8opendnp311Group50Var410ReadTargetERN7openpal6RSliceERNS_15TimeAndIntervalE, @function
_ZN8opendnp311Group50Var410ReadTargetERN7openpal6RSliceERNS_15TimeAndIntervalE:
.LFB402:
	.cfi_startproc
	pushq	%r12
	.cfi_def_cfa_offset 16
	.cfi_offset 12, -16
	movq	%rsi, %r12
	pushq	%rbp
	.cfi_def_cfa_offset 24
	.cfi_offset 6, -24
	movq	%rdi, %rbp
	pushq	%rbx
	.cfi_def_cfa_offset 32
	.cfi_offset 3, -32
	subq	$64, %rsp
	.cfi_def_cfa_offset 96
	leaq	32(%rsp), %rdi
	call	_ZN8opendnp311Group50Var4C1Ev@PLT
	leaq	32(%rsp), %rsi
	movq	%rbp, %rdi
	call	_ZN8opendnp311Group50Var44ReadERN7openpal6RSliceERS0_@PLT
	testb	%al, %al
	jne	.L30
	addq	$64, %rsp
	.cfi_remember_state
	.cfi_def_cfa_offset 32
	popq	%rbx
	.cfi_def_cfa_offset 24
	popq	%rbp
	.cfi_def_cfa_offset 16
	popq	%r12
	.cfi_def_cfa_offset 8
	ret
	.p2align 4,,10
	.p2align 3
.L30:
	.cfi_restore_state
	movl	40(%rsp), %edx
	movzbl	44(%rsp), %ecx
	leaq	48(%rsp), %rdi
	movb	%al, 15(%rsp)
	movq	32(%rsp), %rsi
	call	_ZN8opendnp315TimeAndIntervalC1EN7openpal10UInt48TypeEjh@PLT
	movdqa	48(%rsp), %xmm0
	movzbl	15(%rsp), %eax
	movaps	%xmm0, 16(%rsp)
	movq	%xmm0, (%r12)
	movq	21(%rsp), %rdx
	movq	%rdx, 5(%r12)
	addq	$64, %rsp
	.cfi_def_cfa_offset 32
	popq	%rbx
	.cfi_def_cfa_offset 24
	popq	%rbp
	.cfi_def_cfa_offset 16
	popq	%r12
	.cfi_def_cfa_offset 8
	ret
	.cfi_endproc
.LFE402:
	.size	_ZN8opendnp311Group50Var410ReadTargetERN7openpal6RSliceERNS_15TimeAndIntervalE, .-_ZN8opendnp311Group50Var410ReadTargetERN7openpal6RSliceERNS_15TimeAndIntervalE
	.align 2
	.p2align 4
	.globl	_ZN8opendnp311Group50Var411WriteTargetERKNS_15TimeAndIntervalERN7openpal6WSliceE
	.type	_ZN8opendnp311Group50Var411WriteTargetERKNS_15TimeAndIntervalERN7openpal6WSliceE, @function
_ZN8opendnp311Group50Var411WriteTargetERKNS_15TimeAndIntervalERN7openpal6WSliceE:
.LFB403:
	.cfi_startproc
	pushq	%rbp
	.cfi_def_cfa_offset 16
	.cfi_offset 6, -16
	pushq	%rbx
	.cfi_def_cfa_offset 24
	.cfi_offset 3, -24
	movq	%rdi, %rbx
	subq	$40, %rsp
	.cfi_def_cfa_offset 64
	leaq	16(%rsp), %rbp
	movq	%rsi, 8(%rsp)
	movq	%rbp, %rdi
	call	_ZN8opendnp311Group50Var4C1Ev@PLT
	movq	(%rbx), %rcx
	movl	8(%rbx), %edx
	movq	%rbp, %rdi
	movzbl	12(%rbx), %eax
	movq	8(%rsp), %rsi
	movq	%rcx, 16(%rsp)
	movl	%edx, 24(%rsp)
	movb	%al, 28(%rsp)
	call	_ZN8opendnp311Group50Var45WriteERKS0_RN7openpal6WSliceE@PLT
	addq	$40, %rsp
	.cfi_def_cfa_offset 24
	popq	%rbx
	.cfi_def_cfa_offset 16
	popq	%rbp
	.cfi_def_cfa_offset 8
	ret
	.cfi_endproc
.LFE403:
	.size	_ZN8opendnp311Group50Var411WriteTargetERKNS_15TimeAndIntervalERN7openpal6WSliceE, .-_ZN8opendnp311Group50Var411WriteTargetERKNS_15TimeAndIntervalERN7openpal6WSliceE
	.ident	"GCC: (Debian 15.2.0-4) 15.2.0"
	.section	.note.GNU-stack,"",@progbits
