	.file	"LinkContext.cpp"
	.text
	.section	.text._ZN8opendnp313ILinkListener13OnStateChangeENS_10LinkStatusE,"axG",@progbits,_ZN8opendnp313ILinkListener13OnStateChangeENS_10LinkStatusE,comdat
	.align 2
	.p2align 4
	.weak	_ZN8opendnp313ILinkListener13OnStateChangeENS_10LinkStatusE
	.type	_ZN8opendnp313ILinkListener13OnStateChangeENS_10LinkStatusE, @function
_ZN8opendnp313ILinkListener13OnStateChangeENS_10LinkStatusE:
.LFB2229:
	.cfi_startproc
	ret
	.cfi_endproc
.LFE2229:
	.size	_ZN8opendnp313ILinkListener13OnStateChangeENS_10LinkStatusE, .-_ZN8opendnp313ILinkListener13OnStateChangeENS_10LinkStatusE
	.section	.text._ZN8opendnp313ILinkListener18OnKeepAliveFailureEv,"axG",@progbits,_ZN8opendnp313ILinkListener18OnKeepAliveFailureEv,comdat
	.align 2
	.p2align 4
	.weak	_ZN8opendnp313ILinkListener18OnKeepAliveFailureEv
	.type	_ZN8opendnp313ILinkListener18OnKeepAliveFailureEv, @function
_ZN8opendnp313ILinkListener18OnKeepAliveFailureEv:
.LFB2231:
	.cfi_startproc
	ret
	.cfi_endproc
.LFE2231:
	.size	_ZN8opendnp313ILinkListener18OnKeepAliveFailureEv, .-_ZN8opendnp313ILinkListener18OnKeepAliveFailureEv
	.section	.text._ZN8opendnp313ILinkListener18OnKeepAliveSuccessEv,"axG",@progbits,_ZN8opendnp313ILinkListener18OnKeepAliveSuccessEv,comdat
	.align 2
	.p2align 4
	.weak	_ZN8opendnp313ILinkListener18OnKeepAliveSuccessEv
	.type	_ZN8opendnp313ILinkListener18OnKeepAliveSuccessEv, @function
_ZN8opendnp313ILinkListener18OnKeepAliveSuccessEv:
.LFB2232:
	.cfi_startproc
	ret
	.cfi_endproc
.LFE2232:
	.size	_ZN8opendnp313ILinkListener18OnKeepAliveSuccessEv, .-_ZN8opendnp313ILinkListener18OnKeepAliveSuccessEv
	.section	.text._ZN7openpal12StaticBufferILj292EED2Ev,"axG",@progbits,_ZN7openpal12StaticBufferILj292EED5Ev,comdat
	.align 2
	.p2align 4
	.weak	_ZN7openpal12StaticBufferILj292EED2Ev
	.type	_ZN7openpal12StaticBufferILj292EED2Ev, @function
_ZN7openpal12StaticBufferILj292EED2Ev:
.LFB2700:
	.cfi_startproc
	ret
	.cfi_endproc
.LFE2700:
	.size	_ZN7openpal12StaticBufferILj292EED2Ev, .-_ZN7openpal12StaticBufferILj292EED2Ev
	.weak	_ZN7openpal12StaticBufferILj292EED1Ev
	.set	_ZN7openpal12StaticBufferILj292EED1Ev,_ZN7openpal12StaticBufferILj292EED2Ev
	.section	.text._ZN7openpal12StaticBufferILj10EED2Ev,"axG",@progbits,_ZN7openpal12StaticBufferILj10EED5Ev,comdat
	.align 2
	.p2align 4
	.weak	_ZN7openpal12StaticBufferILj10EED2Ev
	.type	_ZN7openpal12StaticBufferILj10EED2Ev, @function
_ZN7openpal12StaticBufferILj10EED2Ev:
.LFB2707:
	.cfi_startproc
	ret
	.cfi_endproc
.LFE2707:
	.size	_ZN7openpal12StaticBufferILj10EED2Ev, .-_ZN7openpal12StaticBufferILj10EED2Ev
	.weak	_ZN7openpal12StaticBufferILj10EED1Ev
	.set	_ZN7openpal12StaticBufferILj10EED1Ev,_ZN7openpal12StaticBufferILj10EED2Ev
	.text
	.p2align 4
	.type	_ZNSt17_Function_handlerIFvvEZN8opendnp311LinkContext21CompleteSendOperationEbEUlvE_E9_M_invokeERKSt9_Any_data, @function
_ZNSt17_Function_handlerIFvvEZN8opendnp311LinkContext21CompleteSendOperationEbEUlvE_E9_M_invokeERKSt9_Any_data:
.LFB2927:
	.cfi_startproc
	movq	(%rdi), %rax
	movq	(%rax), %rdi
	movzbl	16(%rax), %esi
	movq	(%rdi), %rax
	jmp	*40(%rax)
	.cfi_endproc
.LFE2927:
	.size	_ZNSt17_Function_handlerIFvvEZN8opendnp311LinkContext21CompleteSendOperationEbEUlvE_E9_M_invokeERKSt9_Any_data, .-_ZNSt17_Function_handlerIFvvEZN8opendnp311LinkContext21CompleteSendOperationEbEUlvE_E9_M_invokeERKSt9_Any_data
	.section	.text._ZN7openpal12StaticBufferILj292EED0Ev,"axG",@progbits,_ZN7openpal12StaticBufferILj292EED5Ev,comdat
	.align 2
	.p2align 4
	.weak	_ZN7openpal12StaticBufferILj292EED0Ev
	.type	_ZN7openpal12StaticBufferILj292EED0Ev, @function
_ZN7openpal12StaticBufferILj292EED0Ev:
.LFB2702:
	.cfi_startproc
	movl	$304, %esi
	jmp	_ZdlPvm@PLT
	.cfi_endproc
.LFE2702:
	.size	_ZN7openpal12StaticBufferILj292EED0Ev, .-_ZN7openpal12StaticBufferILj292EED0Ev
	.section	.text._ZN7openpal12StaticBufferILj10EED0Ev,"axG",@progbits,_ZN7openpal12StaticBufferILj10EED5Ev,comdat
	.align 2
	.p2align 4
	.weak	_ZN7openpal12StaticBufferILj10EED0Ev
	.type	_ZN7openpal12StaticBufferILj10EED0Ev, @function
_ZN7openpal12StaticBufferILj10EED0Ev:
.LFB2709:
	.cfi_startproc
	movl	$24, %esi
	jmp	_ZdlPvm@PLT
	.cfi_endproc
.LFE2709:
	.size	_ZN7openpal12StaticBufferILj10EED0Ev, .-_ZN7openpal12StaticBufferILj10EED0Ev
	.text
	.p2align 4
	.type	_ZNSt17_Function_handlerIFvvEZN7openpal8TimerRef5StartIZN8opendnp311LinkContext18StartResponseTimerEvEUlvE_EEbRKNS1_12TimeDurationERKT_EUlvE_E10_M_managerERSt9_Any_dataRKSF_St18_Manager_operation, @function
_ZNSt17_Function_handlerIFvvEZN7openpal8TimerRef5StartIZN8opendnp311LinkContext18StartResponseTimerEvEUlvE_EEbRKNS1_12TimeDurationERKT_EUlvE_E10_M_managerERSt9_Any_dataRKSF_St18_Manager_operation:
.LFB3025:
	.cfi_startproc
	testl	%edx, %edx
	je	.L11
	cmpl	$1, %edx
	jne	.L16
	movq	%rsi, (%rdi)
.L14:
	xorl	%eax, %eax
	ret
	.p2align 4,,10
	.p2align 3
.L16:
	cmpl	$2, %edx
	jne	.L14
	movdqu	(%rsi), %xmm0
	movups	%xmm0, (%rdi)
	jmp	.L14
	.p2align 4,,10
	.p2align 3
.L11:
	leaq	_ZTIZN7openpal8TimerRef5StartIZN8opendnp311LinkContext18StartResponseTimerEvEUlvE_EEbRKNS_12TimeDurationERKT_EUlvE_(%rip), %rax
	movq	%rax, (%rdi)
	xorl	%eax, %eax
	ret
	.cfi_endproc
.LFE3025:
	.size	_ZNSt17_Function_handlerIFvvEZN7openpal8TimerRef5StartIZN8opendnp311LinkContext18StartResponseTimerEvEUlvE_EEbRKNS1_12TimeDurationERKT_EUlvE_E10_M_managerERSt9_Any_dataRKSF_St18_Manager_operation, .-_ZNSt17_Function_handlerIFvvEZN7openpal8TimerRef5StartIZN8opendnp311LinkContext18StartResponseTimerEvEUlvE_EEbRKNS1_12TimeDurationERKT_EUlvE_E10_M_managerERSt9_Any_dataRKSF_St18_Manager_operation
	.p2align 4
	.type	_ZNSt17_Function_handlerIFvvEZN7openpal8TimerRef5StartIZN8opendnp311LinkContext19StartKeepAliveTimerERKNS1_18MonotonicTimestampEEUlvE_EEbS8_RKT_EUlvE_E10_M_managerERSt9_Any_dataRKSF_St18_Manager_operation, @function
_ZNSt17_Function_handlerIFvvEZN7openpal8TimerRef5StartIZN8opendnp311LinkContext19StartKeepAliveTimerERKNS1_18MonotonicTimestampEEUlvE_EEbS8_RKT_EUlvE_E10_M_managerERSt9_Any_dataRKSF_St18_Manager_operation:
.LFB3030:
	.cfi_startproc
	testl	%edx, %edx
	je	.L18
	cmpl	$1, %edx
	jne	.L23
	movq	%rsi, (%rdi)
.L21:
	xorl	%eax, %eax
	ret
	.p2align 4,,10
	.p2align 3
.L23:
	cmpl	$2, %edx
	jne	.L21
	movdqu	(%rsi), %xmm0
	movups	%xmm0, (%rdi)
	jmp	.L21
	.p2align 4,,10
	.p2align 3
.L18:
	leaq	_ZTIZN7openpal8TimerRef5StartIZN8opendnp311LinkContext19StartKeepAliveTimerERKNS_18MonotonicTimestampEEUlvE_EEbS6_RKT_EUlvE_(%rip), %rax
	movq	%rax, (%rdi)
	xorl	%eax, %eax
	ret
	.cfi_endproc
.LFE3030:
	.size	_ZNSt17_Function_handlerIFvvEZN7openpal8TimerRef5StartIZN8opendnp311LinkContext19StartKeepAliveTimerERKNS1_18MonotonicTimestampEEUlvE_EEbS8_RKT_EUlvE_E10_M_managerERSt9_Any_dataRKSF_St18_Manager_operation, .-_ZNSt17_Function_handlerIFvvEZN7openpal8TimerRef5StartIZN8opendnp311LinkContext19StartKeepAliveTimerERKNS1_18MonotonicTimestampEEUlvE_EEbS8_RKT_EUlvE_E10_M_managerERSt9_Any_dataRKSF_St18_Manager_operation
	.section	.rodata.str1.1,"aMS",@progbits,1
.LC0:
	.string	"Layer is not online"
	.section	.rodata.str1.8,"aMS",@progbits,1
	.align 8
.LC1:
	.string	"/opt/PLC/OpenPLC_v3/utils/dnp3_src/cpp/libs/src/opendnp3/link/LinkContext.cpp(90)"
	.text
	.align 2
	.p2align 4
	.globl	_ZN8opendnp311LinkContext16OnLowerLayerDownEv
	.type	_ZN8opendnp311LinkContext16OnLowerLayerDownEv, @function
_ZN8opendnp311LinkContext16OnLowerLayerDownEv:
.LFB2370:
	.cfi_startproc
	pushq	%r14
	.cfi_def_cfa_offset 16
	.cfi_offset 14, -16
	pushq	%rbp
	.cfi_def_cfa_offset 24
	.cfi_offset 6, -24
	pushq	%rbx
	.cfi_def_cfa_offset 32
	.cfi_offset 3, -32
	movq	%rdi, %rbx
	subq	$32, %rsp
	.cfi_def_cfa_offset 64
	movzbl	506(%rdi), %ebp
	testb	%bpl, %bpl
	je	.L33
	xorl	%eax, %eax
	movb	$0, 508(%rdi)
	leaq	472(%rdi), %rdi
	movq	_ZN8opendnp39PLLS_Idle8instanceE@GOTPCREL(%rip), %xmm0
	movw	%ax, 34(%rdi)
	movhps	_ZN8opendnp313SLLS_NotReset8instanceE@GOTPCREL(%rip), %xmm0
	movq	$0, -32(%rdi)
	movb	$0, -24(%rdi)
	movb	$0, -144(%rdi)
	movb	$0, -120(%rdi)
	movaps	%xmm0, (%rsp)
	call	_ZN7openpal8TimerRef6CancelEv@PLT
	leaq	488(%rbx), %rdi
	call	_ZN7openpal8TimerRef6CancelEv@PLT
	movdqa	(%rsp), %xmm0
	movq	560(%rbx), %rdi
	movups	%xmm0, 544(%rbx)
	movq	(%rdi), %rax
	movq	(%rax), %rax
	cmpq	_ZN8opendnp313ILinkListener13OnStateChangeENS_10LinkStatusE@GOTPCREL(%rip), %rax
	jne	.L34
.L28:
	movq	576(%rbx), %rdi
	movq	(%rdi), %rax
	call	*24(%rax)
.L24:
	addq	$32, %rsp
	.cfi_remember_state
	.cfi_def_cfa_offset 32
	movl	%ebp, %eax
	popq	%rbx
	.cfi_def_cfa_offset 24
	popq	%rbp
	.cfi_def_cfa_offset 16
	popq	%r14
	.cfi_def_cfa_offset 8
	ret
	.p2align 4,,10
	.p2align 3
.L33:
	.cfi_restore_state
	leaq	376(%rdi), %r14
	leaq	28(%rsp), %rsi
	movl	$2, 28(%rsp)
	leaq	376(%rdi), %rdi
	call	_ZNK7openpal6Logger9IsEnabledERKNS_10LogFiltersE@PLT
	testb	%al, %al
	je	.L24
	leaq	28(%rsp), %rsi
	movq	%r14, %rdi
	leaq	.LC0(%rip), %rcx
	movl	$2, 28(%rsp)
	leaq	.LC1(%rip), %rdx
	call	_ZN7openpal6Logger3LogERKNS_10LogFiltersEPKcS5_@PLT
	addq	$32, %rsp
	.cfi_remember_state
	.cfi_def_cfa_offset 32
	movl	%ebp, %eax
	popq	%rbx
	.cfi_def_cfa_offset 24
	popq	%rbp
	.cfi_def_cfa_offset 16
	popq	%r14
	.cfi_def_cfa_offset 8
	ret
	.p2align 4,,10
	.p2align 3
.L34:
	.cfi_restore_state
	xorl	%esi, %esi
	call	*%rax
	jmp	.L28
	.cfi_endproc
.LFE2370:
	.size	_ZN8opendnp311LinkContext16OnLowerLayerDownEv, .-_ZN8opendnp311LinkContext16OnLowerLayerDownEv
	.section	.rodata.str1.8
	.align 8
.LC2:
	.string	"/opt/PLC/OpenPLC_v3/utils/dnp3_src/cpp/libs/src/opendnp3/link/LinkContext.cpp(118)"
	.align 8
.LC3:
	.string	"Already transmitting a segment"
	.align 8
.LC4:
	.string	"/opt/PLC/OpenPLC_v3/utils/dnp3_src/cpp/libs/src/opendnp3/link/LinkContext.cpp(124)"
	.text
	.align 2
	.p2align 4
	.globl	_ZN8opendnp311LinkContext12SetTxSegmentERNS_17ITransportSegmentE
	.type	_ZN8opendnp311LinkContext12SetTxSegmentERNS_17ITransportSegmentE, @function
_ZN8opendnp311LinkContext12SetTxSegmentERNS_17ITransportSegmentE:
.LFB2371:
	.cfi_startproc
	pushq	%rbx
	.cfi_def_cfa_offset 16
	.cfi_offset 3, -16
	subq	$32, %rsp
	.cfi_def_cfa_offset 48
	movzbl	506(%rdi), %eax
	testb	%al, %al
	je	.L46
	cmpq	$0, 440(%rdi)
	jne	.L47
	movq	%rsi, 440(%rdi)
	addq	$32, %rsp
	.cfi_remember_state
	.cfi_def_cfa_offset 16
	popq	%rbx
	.cfi_def_cfa_offset 8
	ret
	.p2align 4,,10
	.p2align 3
.L47:
	.cfi_restore_state
	addq	$376, %rdi
	leaq	28(%rsp), %rsi
	movl	$2, 28(%rsp)
	movq	%rsi, 8(%rsp)
	movq	%rdi, %rbx
	call	_ZNK7openpal6Logger9IsEnabledERKNS_10LogFiltersE@PLT
	movq	8(%rsp), %rsi
	testb	%al, %al
	jne	.L48
.L38:
	xorl	%eax, %eax
.L49:
	addq	$32, %rsp
	.cfi_remember_state
	.cfi_def_cfa_offset 16
	popq	%rbx
	.cfi_def_cfa_offset 8
	ret
	.p2align 4,,10
	.p2align 3
.L46:
	.cfi_restore_state
	addq	$376, %rdi
	leaq	28(%rsp), %rsi
	movl	$2, 28(%rsp)
	movq	%rsi, 8(%rsp)
	movq	%rdi, %rbx
	call	_ZNK7openpal6Logger9IsEnabledERKNS_10LogFiltersE@PLT
	movq	8(%rsp), %rsi
	testb	%al, %al
	je	.L38
	leaq	.LC0(%rip), %rcx
	leaq	.LC2(%rip), %rdx
	movq	%rbx, %rdi
	movl	$2, 28(%rsp)
	call	_ZN7openpal6Logger3LogERKNS_10LogFiltersEPKcS5_@PLT
	xorl	%eax, %eax
	jmp	.L49
	.p2align 4,,10
	.p2align 3
.L48:
	leaq	.LC3(%rip), %rcx
	leaq	.LC4(%rip), %rdx
	movq	%rbx, %rdi
	movl	$2, 28(%rsp)
	call	_ZN7openpal6Logger3LogERKNS_10LogFiltersEPKcS5_@PLT
	xorl	%eax, %eax
	jmp	.L49
	.cfi_endproc
.LFE2371:
	.size	_ZN8opendnp311LinkContext12SetTxSegmentERNS_17ITransportSegmentE, .-_ZN8opendnp311LinkContext12SetTxSegmentERNS_17ITransportSegmentE
	.align 2
	.p2align 4
	.globl	_ZN8opendnp311LinkContext32FormatPrimaryBufferWithConfirmedERKN7openpal6RSliceEb
	.type	_ZN8opendnp311LinkContext32FormatPrimaryBufferWithConfirmedERKN7openpal6RSliceEb, @function
_ZN8opendnp311LinkContext32FormatPrimaryBufferWithConfirmedERKN7openpal6RSliceEb:
.LFB2373:
	.cfi_startproc
	pushq	%r14
	.cfi_def_cfa_offset 16
	.cfi_offset 14, -16
	pushq	%r13
	.cfi_def_cfa_offset 24
	.cfi_offset 13, -24
	movq	%rsi, %r13
	leaq	8(%rdi), %rsi
	pushq	%r12
	.cfi_def_cfa_offset 32
	.cfi_offset 12, -32
	pushq	%rbp
	.cfi_def_cfa_offset 40
	.cfi_offset 6, -40
	movl	%edx, %ebp
	movl	$292, %edx
	pushq	%rbx
	.cfi_def_cfa_offset 48
	.cfi_offset 3, -48
	movq	%rdi, %rbx
	leaq	376(%rbx), %r12
	subq	$48, %rsp
	.cfi_def_cfa_offset 96
	leaq	32(%rsp), %r14
	movq	%r14, %rdi
	call	_ZN7openpal6WSliceC1EPhj@PLT
	movl	32(%rsp), %eax
	movq	8(%r13), %r9
	leaq	16(%rsp), %rdi
	movzbl	408(%rbx), %esi
	movzwl	418(%rbx), %ecx
	movzbl	%bpl, %edx
	movl	%eax, 16(%rsp)
	movq	40(%rsp), %rax
	movzwl	416(%rbx), %r8d
	movq	%rax, 24(%rsp)
	movzbl	0(%r13), %eax
	pushq	%r12
	.cfi_def_cfa_offset 104
	pushq	%rax
	.cfi_def_cfa_offset 112
	call	_ZN8opendnp39LinkFrame23FormatConfirmedUserDataERN7openpal6WSliceEbbttPKhhPNS1_6LoggerE@PLT
	movl	$256, 28(%rsp)
	movq	%r12, %rdi
	movl	%eax, 48(%rsp)
	movq	%rdx, 56(%rsp)
	popq	%rax
	.cfi_def_cfa_offset 104
	popq	%rdx
	.cfi_def_cfa_offset 96
	leaq	12(%rsp), %rsi
	call	_ZNK7openpal6Logger9IsEnabledERKNS_10LogFiltersE@PLT
	testb	%al, %al
	jne	.L56
.L51:
	movl	32(%rsp), %eax
	movq	40(%rsp), %rdx
	addq	$48, %rsp
	.cfi_remember_state
	.cfi_def_cfa_offset 48
	popq	%rbx
	.cfi_def_cfa_offset 40
	popq	%rbp
	.cfi_def_cfa_offset 32
	popq	%r12
	.cfi_def_cfa_offset 24
	popq	%r13
	.cfi_def_cfa_offset 16
	popq	%r14
	.cfi_def_cfa_offset 8
	ret
	.p2align 4,,10
	.p2align 3
.L56:
	.cfi_restore_state
	movl	$10, %ecx
	movq	%r14, %rdx
	leaq	12(%rsp), %rsi
	movq	%r12, %rdi
	movl	$18, %r8d
	movl	$256, 12(%rsp)
	call	_ZN7openpal6LogHexERNS_6LoggerERKNS_10LogFiltersERKNS_6RSliceEjj@PLT
	jmp	.L51
	.cfi_endproc
.LFE2373:
	.size	_ZN8opendnp311LinkContext32FormatPrimaryBufferWithConfirmedERKN7openpal6RSliceEb, .-_ZN8opendnp311LinkContext32FormatPrimaryBufferWithConfirmedERKN7openpal6RSliceEb
	.align 2
	.p2align 4
	.globl	_ZN8opendnp311LinkContext34FormatPrimaryBufferWithUnconfirmedERKN7openpal6RSliceE
	.type	_ZN8opendnp311LinkContext34FormatPrimaryBufferWithUnconfirmedERKN7openpal6RSliceE, @function
_ZN8opendnp311LinkContext34FormatPrimaryBufferWithUnconfirmedERKN7openpal6RSliceE:
.LFB2374:
	.cfi_startproc
	pushq	%r13
	.cfi_def_cfa_offset 16
	.cfi_offset 13, -16
	movl	$292, %edx
	pushq	%r12
	.cfi_def_cfa_offset 24
	.cfi_offset 12, -24
	movq	%rsi, %r12
	leaq	8(%rdi), %rsi
	pushq	%rbp
	.cfi_def_cfa_offset 32
	.cfi_offset 6, -32
	pushq	%rbx
	.cfi_def_cfa_offset 40
	.cfi_offset 3, -40
	movq	%rdi, %rbx
	leaq	376(%rbx), %rbp
	subq	$56, %rsp
	.cfi_def_cfa_offset 96
	leaq	32(%rsp), %r13
	movq	%r13, %rdi
	call	_ZN7openpal6WSliceC1EPhj@PLT
	movl	32(%rsp), %eax
	leaq	16(%rsp), %rdi
	subq	$8, %rsp
	.cfi_def_cfa_offset 104
	movzwl	418(%rbx), %edx
	movzbl	408(%rbx), %esi
	movzwl	416(%rbx), %ecx
	movzbl	(%r12), %r9d
	movl	%eax, 24(%rsp)
	movq	48(%rsp), %rax
	movq	8(%r12), %r8
	movq	%rax, 32(%rsp)
	pushq	%rbp
	.cfi_def_cfa_offset 112
	call	_ZN8opendnp39LinkFrame25FormatUnconfirmedUserDataERN7openpal6WSliceEbttPKhhPNS1_6LoggerE@PLT
	movl	$256, 28(%rsp)
	movq	%rbp, %rdi
	movl	%eax, 48(%rsp)
	movq	%rdx, 56(%rsp)
	popq	%rax
	.cfi_def_cfa_offset 104
	popq	%rdx
	.cfi_def_cfa_offset 96
	leaq	12(%rsp), %rsi
	call	_ZNK7openpal6Logger9IsEnabledERKNS_10LogFiltersE@PLT
	testb	%al, %al
	jne	.L63
.L58:
	movl	32(%rsp), %eax
	movq	40(%rsp), %rdx
	addq	$56, %rsp
	.cfi_remember_state
	.cfi_def_cfa_offset 40
	popq	%rbx
	.cfi_def_cfa_offset 32
	popq	%rbp
	.cfi_def_cfa_offset 24
	popq	%r12
	.cfi_def_cfa_offset 16
	popq	%r13
	.cfi_def_cfa_offset 8
	ret
	.p2align 4,,10
	.p2align 3
.L63:
	.cfi_restore_state
	movl	$10, %ecx
	movq	%r13, %rdx
	leaq	12(%rsp), %rsi
	movq	%rbp, %rdi
	movl	$18, %r8d
	movl	$256, 12(%rsp)
	call	_ZN7openpal6LogHexERNS_6LoggerERKNS_10LogFiltersERKNS_6RSliceEjj@PLT
	jmp	.L58
	.cfi_endproc
.LFE2374:
	.size	_ZN8opendnp311LinkContext34FormatPrimaryBufferWithUnconfirmedERKN7openpal6RSliceE, .-_ZN8opendnp311LinkContext34FormatPrimaryBufferWithUnconfirmedERKN7openpal6RSliceE
	.align 2
	.p2align 4
	.globl	_ZN8opendnp311LinkContext13QueueTransmitERKN7openpal6RSliceEb
	.type	_ZN8opendnp311LinkContext13QueueTransmitERKN7openpal6RSliceEb, @function
_ZN8opendnp311LinkContext13QueueTransmitERKN7openpal6RSliceEb:
.LFB2375:
	.cfi_startproc
	cmpb	$0, 448(%rdi)
	jne	.L65
	movl	$2, %eax
	subl	%edx, %eax
	movq	592(%rdi), %rdx
	movb	%al, 448(%rdi)
	movq	536(%rdi), %rax
	movq	(%rax), %rcx
	movq	%rax, %rdi
	movq	16(%rcx), %rcx
	jmp	*%rcx
	.p2align 4,,10
	.p2align 3
.L65:
	movdqu	(%rsi), %xmm0
	testb	%dl, %dl
	je	.L66
	movb	$1, 328(%rdi)
	movups	%xmm0, 336(%rdi)
	ret
	.p2align 4,,10
	.p2align 3
.L66:
	movb	$1, 352(%rdi)
	movups	%xmm0, 360(%rdi)
	ret
	.cfi_endproc
.LFE2375:
	.size	_ZN8opendnp311LinkContext13QueueTransmitERKN7openpal6RSliceEb, .-_ZN8opendnp311LinkContext13QueueTransmitERKN7openpal6RSliceEb
	.align 2
	.p2align 4
	.globl	_ZN8opendnp311LinkContext8QueueAckEv
	.type	_ZN8opendnp311LinkContext8QueueAckEv, @function
_ZN8opendnp311LinkContext8QueueAckEv:
.LFB2376:
	.cfi_startproc
	pushq	%r13
	.cfi_def_cfa_offset 16
	.cfi_offset 13, -16
	leaq	312(%rdi), %rsi
	movl	$10, %edx
	pushq	%r12
	.cfi_def_cfa_offset 24
	.cfi_offset 12, -24
	pushq	%rbp
	.cfi_def_cfa_offset 32
	.cfi_offset 6, -32
	pushq	%rbx
	.cfi_def_cfa_offset 40
	.cfi_offset 3, -40
	movq	%rdi, %rbx
	subq	$56, %rsp
	.cfi_def_cfa_offset 96
	leaq	32(%rsp), %rbp
	movq	%rbp, %rdi
	call	_ZN7openpal6WSliceC1EPhj@PLT
	movl	32(%rsp), %eax
	xorl	%edx, %edx
	leaq	16(%rsp), %rdi
	movzbl	408(%rbx), %esi
	movzwl	418(%rbx), %ecx
	leaq	376(%rbx), %r9
	movl	%eax, 16(%rsp)
	movzwl	416(%rbx), %r8d
	movq	40(%rsp), %rax
	movq	%rax, 24(%rsp)
	call	_ZN8opendnp39LinkFrame9FormatAckERN7openpal6WSliceEbbttPNS1_6LoggerE@PLT
	leaq	12(%rsp), %rsi
	leaq	376(%rbx), %rdi
	movl	$256, 12(%rsp)
	movl	%eax, 32(%rsp)
	movq	%rdx, 40(%rsp)
	call	_ZNK7openpal6Logger9IsEnabledERKNS_10LogFiltersE@PLT
	testb	%al, %al
	jne	.L74
.L69:
	movq	%rbp, %rsi
	movq	%rbx, %rdi
	xorl	%edx, %edx
	call	_ZN8opendnp311LinkContext13QueueTransmitERKN7openpal6RSliceEb@PLT
	addq	$56, %rsp
	.cfi_remember_state
	.cfi_def_cfa_offset 40
	popq	%rbx
	.cfi_def_cfa_offset 32
	popq	%rbp
	.cfi_def_cfa_offset 24
	popq	%r12
	.cfi_def_cfa_offset 16
	popq	%r13
	.cfi_def_cfa_offset 8
	ret
	.p2align 4,,10
	.p2align 3
.L74:
	.cfi_restore_state
	movl	$18, %r8d
	movl	$10, %ecx
	movq	%rbp, %rdx
	movl	$256, 12(%rsp)
	leaq	12(%rsp), %rsi
	leaq	376(%rbx), %rdi
	call	_ZN7openpal6LogHexERNS_6LoggerERKNS_10LogFiltersERKNS_6RSliceEjj@PLT
	jmp	.L69
	.cfi_endproc
.LFE2376:
	.size	_ZN8opendnp311LinkContext8QueueAckEv, .-_ZN8opendnp311LinkContext8QueueAckEv
	.align 2
	.p2align 4
	.globl	_ZN8opendnp311LinkContext15QueueLinkStatusEv
	.type	_ZN8opendnp311LinkContext15QueueLinkStatusEv, @function
_ZN8opendnp311LinkContext15QueueLinkStatusEv:
.LFB2377:
	.cfi_startproc
	pushq	%r13
	.cfi_def_cfa_offset 16
	.cfi_offset 13, -16
	leaq	312(%rdi), %rsi
	movl	$10, %edx
	pushq	%r12
	.cfi_def_cfa_offset 24
	.cfi_offset 12, -24
	pushq	%rbp
	.cfi_def_cfa_offset 32
	.cfi_offset 6, -32
	pushq	%rbx
	.cfi_def_cfa_offset 40
	.cfi_offset 3, -40
	movq	%rdi, %rbx
	subq	$56, %rsp
	.cfi_def_cfa_offset 96
	leaq	32(%rsp), %rbp
	movq	%rbp, %rdi
	call	_ZN7openpal6WSliceC1EPhj@PLT
	movl	32(%rsp), %eax
	xorl	%edx, %edx
	leaq	16(%rsp), %rdi
	movzbl	408(%rbx), %esi
	movzwl	418(%rbx), %ecx
	leaq	376(%rbx), %r9
	movl	%eax, 16(%rsp)
	movzwl	416(%rbx), %r8d
	movq	40(%rsp), %rax
	movq	%rax, 24(%rsp)
	call	_ZN8opendnp39LinkFrame16FormatLinkStatusERN7openpal6WSliceEbbttPNS1_6LoggerE@PLT
	leaq	12(%rsp), %rsi
	leaq	376(%rbx), %rdi
	movl	$256, 12(%rsp)
	movl	%eax, 32(%rsp)
	movq	%rdx, 40(%rsp)
	call	_ZNK7openpal6Logger9IsEnabledERKNS_10LogFiltersE@PLT
	testb	%al, %al
	jne	.L81
.L76:
	movq	%rbp, %rsi
	movq	%rbx, %rdi
	xorl	%edx, %edx
	call	_ZN8opendnp311LinkContext13QueueTransmitERKN7openpal6RSliceEb@PLT
	addq	$56, %rsp
	.cfi_remember_state
	.cfi_def_cfa_offset 40
	popq	%rbx
	.cfi_def_cfa_offset 32
	popq	%rbp
	.cfi_def_cfa_offset 24
	popq	%r12
	.cfi_def_cfa_offset 16
	popq	%r13
	.cfi_def_cfa_offset 8
	ret
	.p2align 4,,10
	.p2align 3
.L81:
	.cfi_restore_state
	movl	$18, %r8d
	movl	$10, %ecx
	movq	%rbp, %rdx
	movl	$256, 12(%rsp)
	leaq	12(%rsp), %rsi
	leaq	376(%rbx), %rdi
	call	_ZN7openpal6LogHexERNS_6LoggerERKNS_10LogFiltersERKNS_6RSliceEjj@PLT
	jmp	.L76
	.cfi_endproc
.LFE2377:
	.size	_ZN8opendnp311LinkContext15QueueLinkStatusEv, .-_ZN8opendnp311LinkContext15QueueLinkStatusEv
	.align 2
	.p2align 4
	.globl	_ZN8opendnp311LinkContext15QueueResetLinksEv
	.type	_ZN8opendnp311LinkContext15QueueResetLinksEv, @function
_ZN8opendnp311LinkContext15QueueResetLinksEv:
.LFB2378:
	.cfi_startproc
	pushq	%r13
	.cfi_def_cfa_offset 16
	.cfi_offset 13, -16
	leaq	8(%rdi), %rsi
	movl	$292, %edx
	pushq	%r12
	.cfi_def_cfa_offset 24
	.cfi_offset 12, -24
	pushq	%rbp
	.cfi_def_cfa_offset 32
	.cfi_offset 6, -32
	pushq	%rbx
	.cfi_def_cfa_offset 40
	.cfi_offset 3, -40
	movq	%rdi, %rbx
	subq	$56, %rsp
	.cfi_def_cfa_offset 96
	leaq	32(%rsp), %rbp
	movq	%rbp, %rdi
	call	_ZN7openpal6WSliceC1EPhj@PLT
	movl	32(%rsp), %eax
	movzwl	418(%rbx), %edx
	leaq	16(%rsp), %rdi
	movzbl	408(%rbx), %esi
	movzwl	416(%rbx), %ecx
	leaq	376(%rbx), %r8
	movl	%eax, 16(%rsp)
	movq	40(%rsp), %rax
	movq	%rax, 24(%rsp)
	call	_ZN8opendnp39LinkFrame21FormatResetLinkStatesERN7openpal6WSliceEbttPNS1_6LoggerE@PLT
	leaq	12(%rsp), %rsi
	leaq	376(%rbx), %rdi
	movl	$256, 12(%rsp)
	movl	%eax, 32(%rsp)
	movq	%rdx, 40(%rsp)
	call	_ZNK7openpal6Logger9IsEnabledERKNS_10LogFiltersE@PLT
	testb	%al, %al
	jne	.L88
.L83:
	movq	%rbp, %rsi
	movq	%rbx, %rdi
	movl	$1, %edx
	call	_ZN8opendnp311LinkContext13QueueTransmitERKN7openpal6RSliceEb@PLT
	addq	$56, %rsp
	.cfi_remember_state
	.cfi_def_cfa_offset 40
	popq	%rbx
	.cfi_def_cfa_offset 32
	popq	%rbp
	.cfi_def_cfa_offset 24
	popq	%r12
	.cfi_def_cfa_offset 16
	popq	%r13
	.cfi_def_cfa_offset 8
	ret
	.p2align 4,,10
	.p2align 3
.L88:
	.cfi_restore_state
	movl	$18, %r8d
	movl	$10, %ecx
	movq	%rbp, %rdx
	movl	$256, 12(%rsp)
	leaq	12(%rsp), %rsi
	leaq	376(%rbx), %rdi
	call	_ZN7openpal6LogHexERNS_6LoggerERKNS_10LogFiltersERKNS_6RSliceEjj@PLT
	jmp	.L83
	.cfi_endproc
.LFE2378:
	.size	_ZN8opendnp311LinkContext15QueueResetLinksEv, .-_ZN8opendnp311LinkContext15QueueResetLinksEv
	.align 2
	.p2align 4
	.globl	_ZN8opendnp311LinkContext22QueueRequestLinkStatusEv
	.type	_ZN8opendnp311LinkContext22QueueRequestLinkStatusEv, @function
_ZN8opendnp311LinkContext22QueueRequestLinkStatusEv:
.LFB2379:
	.cfi_startproc
	pushq	%r13
	.cfi_def_cfa_offset 16
	.cfi_offset 13, -16
	leaq	8(%rdi), %rsi
	movl	$292, %edx
	pushq	%r12
	.cfi_def_cfa_offset 24
	.cfi_offset 12, -24
	pushq	%rbp
	.cfi_def_cfa_offset 32
	.cfi_offset 6, -32
	pushq	%rbx
	.cfi_def_cfa_offset 40
	.cfi_offset 3, -40
	movq	%rdi, %rbx
	subq	$56, %rsp
	.cfi_def_cfa_offset 96
	leaq	32(%rsp), %rbp
	movq	%rbp, %rdi
	call	_ZN7openpal6WSliceC1EPhj@PLT
	movl	32(%rsp), %eax
	movzwl	418(%rbx), %edx
	leaq	16(%rsp), %rdi
	movzbl	408(%rbx), %esi
	movzwl	416(%rbx), %ecx
	leaq	376(%rbx), %r8
	movl	%eax, 16(%rsp)
	movq	40(%rsp), %rax
	movq	%rax, 24(%rsp)
	call	_ZN8opendnp39LinkFrame23FormatRequestLinkStatusERN7openpal6WSliceEbttPNS1_6LoggerE@PLT
	leaq	12(%rsp), %rsi
	leaq	376(%rbx), %rdi
	movl	$256, 12(%rsp)
	movl	%eax, 32(%rsp)
	movq	%rdx, 40(%rsp)
	call	_ZNK7openpal6Logger9IsEnabledERKNS_10LogFiltersE@PLT
	testb	%al, %al
	jne	.L95
.L90:
	movq	%rbp, %rsi
	movq	%rbx, %rdi
	movl	$1, %edx
	call	_ZN8opendnp311LinkContext13QueueTransmitERKN7openpal6RSliceEb@PLT
	addq	$56, %rsp
	.cfi_remember_state
	.cfi_def_cfa_offset 40
	popq	%rbx
	.cfi_def_cfa_offset 32
	popq	%rbp
	.cfi_def_cfa_offset 24
	popq	%r12
	.cfi_def_cfa_offset 16
	popq	%r13
	.cfi_def_cfa_offset 8
	ret
	.p2align 4,,10
	.p2align 3
.L95:
	.cfi_restore_state
	movl	$18, %r8d
	movl	$10, %ecx
	movq	%rbp, %rdx
	movl	$256, 12(%rsp)
	leaq	12(%rsp), %rsi
	leaq	376(%rbx), %rdi
	call	_ZN7openpal6LogHexERNS_6LoggerERKNS_10LogFiltersERKNS_6RSliceEjj@PLT
	jmp	.L90
	.cfi_endproc
.LFE2379:
	.size	_ZN8opendnp311LinkContext22QueueRequestLinkStatusEv, .-_ZN8opendnp311LinkContext22QueueRequestLinkStatusEv
	.align 2
	.p2align 4
	.globl	_ZN8opendnp311LinkContext10ResetRetryEv
	.type	_ZN8opendnp311LinkContext10ResetRetryEv, @function
_ZN8opendnp311LinkContext10ResetRetryEv:
.LFB2380:
	.cfi_startproc
	movl	412(%rdi), %eax
	movl	%eax, 452(%rdi)
	ret
	.cfi_endproc
.LFE2380:
	.size	_ZN8opendnp311LinkContext10ResetRetryEv, .-_ZN8opendnp311LinkContext10ResetRetryEv
	.align 2
	.p2align 4
	.globl	_ZN8opendnp311LinkContext5RetryEv
	.type	_ZN8opendnp311LinkContext5RetryEv, @function
_ZN8opendnp311LinkContext5RetryEv:
.LFB2381:
	.cfi_startproc
	movl	452(%rdi), %eax
	xorl	%edx, %edx
	testl	%eax, %eax
	je	.L97
	subl	$1, %eax
	movl	$1, %edx
	movl	%eax, 452(%rdi)
.L97:
	movl	%edx, %eax
	ret
	.cfi_endproc
.LFE2381:
	.size	_ZN8opendnp311LinkContext5RetryEv, .-_ZN8opendnp311LinkContext5RetryEv
	.align 2
	.p2align 4
	.globl	_ZN8opendnp311LinkContext10PushDataUpERKN7openpal6RSliceE
	.type	_ZN8opendnp311LinkContext10PushDataUpERKN7openpal6RSliceE, @function
_ZN8opendnp311LinkContext10PushDataUpERKN7openpal6RSliceE:
.LFB2382:
	.cfi_startproc
	movq	576(%rdi), %rdi
	movq	(%rdi), %rax
	jmp	*32(%rax)
	.cfi_endproc
.LFE2382:
	.size	_ZN8opendnp311LinkContext10PushDataUpERKN7openpal6RSliceE, .-_ZN8opendnp311LinkContext10PushDataUpERKN7openpal6RSliceE
	.align 2
	.p2align 4
	.globl	_ZN8opendnp311LinkContext20TryStartTransmissionEv
	.type	_ZN8opendnp311LinkContext20TryStartTransmissionEv, @function
_ZN8opendnp311LinkContext20TryStartTransmissionEv:
.LFB2396:
	.cfi_startproc
	pushq	%rbx
	.cfi_def_cfa_offset 16
	.cfi_offset 3, -16
	movq	%rdi, %rbx
	cmpb	$0, 508(%rdi)
	je	.L103
	movq	544(%rdi), %rdi
	movq	%rbx, %rsi
	movq	(%rdi), %rax
	call	*64(%rax)
	movq	%rax, 544(%rbx)
.L103:
	movq	440(%rbx), %rdx
	testq	%rdx, %rdx
	je	.L102
	movq	544(%rbx), %rdi
	movq	%rbx, %rsi
	movq	(%rdi), %rax
	cmpb	$0, 409(%rbx)
	jne	.L111
	call	*56(%rax)
.L106:
	movq	%rax, 544(%rbx)
.L102:
	popq	%rbx
	.cfi_remember_state
	.cfi_def_cfa_offset 8
	ret
	.p2align 4,,10
	.p2align 3
.L111:
	.cfi_restore_state
	call	*48(%rax)
	jmp	.L106
	.cfi_endproc
.LFE2396:
	.size	_ZN8opendnp311LinkContext20TryStartTransmissionEv, .-_ZN8opendnp311LinkContext20TryStartTransmissionEv
	.align 2
	.p2align 4
	.globl	_ZN8opendnp311LinkContext17OnResponseTimeoutEv
	.type	_ZN8opendnp311LinkContext17OnResponseTimeoutEv, @function
_ZN8opendnp311LinkContext17OnResponseTimeoutEv:
.LFB2398:
	.cfi_startproc
	pushq	%rbx
	.cfi_def_cfa_offset 16
	.cfi_offset 3, -16
	movq	%rdi, %rbx
	movq	544(%rdi), %rdi
	movq	%rbx, %rsi
	movq	(%rdi), %rax
	call	*40(%rax)
	movq	%rbx, %rdi
	movq	%rax, 544(%rbx)
	popq	%rbx
	.cfi_def_cfa_offset 8
	jmp	_ZN8opendnp311LinkContext20TryStartTransmissionEv@PLT
	.cfi_endproc
.LFE2398:
	.size	_ZN8opendnp311LinkContext17OnResponseTimeoutEv, .-_ZN8opendnp311LinkContext17OnResponseTimeoutEv
	.p2align 4
	.type	_ZNSt17_Function_handlerIFvvEZN7openpal8TimerRef5StartIZN8opendnp311LinkContext18StartResponseTimerEvEUlvE_EEbRKNS1_12TimeDurationERKT_EUlvE_E9_M_invokeERKSt9_Any_data, @function
_ZNSt17_Function_handlerIFvvEZN7openpal8TimerRef5StartIZN8opendnp311LinkContext18StartResponseTimerEvEUlvE_EEbRKNS1_12TimeDurationERKT_EUlvE_E9_M_invokeERKSt9_Any_data:
.LFB3024:
	.cfi_startproc
	movq	(%rdi), %rax
	movq	8(%rdi), %rdi
	movq	$0, 8(%rax)
	jmp	_ZN8opendnp311LinkContext17OnResponseTimeoutEv@PLT
	.cfi_endproc
.LFE3024:
	.size	_ZNSt17_Function_handlerIFvvEZN7openpal8TimerRef5StartIZN8opendnp311LinkContext18StartResponseTimerEvEUlvE_EEbRKNS1_12TimeDurationERKT_EUlvE_E9_M_invokeERKSt9_Any_data, .-_ZNSt17_Function_handlerIFvvEZN7openpal8TimerRef5StartIZN8opendnp311LinkContext18StartResponseTimerEvEUlvE_EEbRKNS1_12TimeDurationERKT_EUlvE_E9_M_invokeERKSt9_Any_data
	.section	.text.unlikely,"ax",@progbits
	.align 2
.LCOLDB6:
	.text
.LHOTB6:
	.align 2
	.p2align 4
	.globl	_ZN8opendnp311LinkContext18StartResponseTimerEv
	.type	_ZN8opendnp311LinkContext18StartResponseTimerEv, @function
_ZN8opendnp311LinkContext18StartResponseTimerEv:
.LFB2399:
	.cfi_startproc
	.cfi_personality 0x9b,DW.ref.__gxx_personality_v0
	.cfi_lsda 0x1b,.LLSDA2399
	pushq	%r14
	.cfi_def_cfa_offset 16
	.cfi_offset 14, -16
	leaq	472(%rdi), %rax
	pushq	%rbx
	.cfi_def_cfa_offset 24
	.cfi_offset 3, -24
	subq	$56, %rsp
	.cfi_def_cfa_offset 80
	movq	424(%rdi), %rdx
	movq	.LC5(%rip), %xmm0
	movq	%rdi, 24(%rsp)
	leaq	8(%rsp), %rsi
	movq	%rax, %rdi
	movq	%rdx, 8(%rsp)
	leaq	_ZNSt17_Function_handlerIFvvEZN7openpal8TimerRef5StartIZN8opendnp311LinkContext18StartResponseTimerEvEUlvE_EEbRKNS1_12TimeDurationERKT_EUlvE_E9_M_invokeERKSt9_Any_data(%rip), %rdx
	movq	%rdx, %xmm1
	leaq	16(%rsp), %rdx
	movq	%rax, 16(%rsp)
	punpcklqdq	%xmm1, %xmm0
	movaps	%xmm0, 32(%rsp)
.LEHB0:
	call	_ZN7openpal8TimerRef11StartActionERKNS_12TimeDurationERKSt8functionIFvvEE@PLT
.LEHE0:
	movq	32(%rsp), %rax
	testq	%rax, %rax
	je	.L115
	movl	$3, %edx
	leaq	16(%rsp), %rsi
	leaq	16(%rsp), %rdi
	call	*%rax
.L115:
	addq	$56, %rsp
	.cfi_remember_state
	.cfi_def_cfa_offset 24
	popq	%rbx
	.cfi_def_cfa_offset 16
	popq	%r14
	.cfi_def_cfa_offset 8
	ret
.L119:
	.cfi_restore_state
	movq	%rax, %r14
	jmp	.L117
	.section	.gcc_except_table,"a",@progbits
.LLSDA2399:
	.byte	0xff
	.byte	0xff
	.byte	0x1
	.uleb128 .LLSDACSE2399-.LLSDACSB2399
.LLSDACSB2399:
	.uleb128 .LEHB0-.LFB2399
	.uleb128 .LEHE0-.LEHB0
	.uleb128 .L119-.LFB2399
	.uleb128 0
.LLSDACSE2399:
	.text
	.cfi_endproc
	.section	.text.unlikely
	.cfi_startproc
	.cfi_personality 0x9b,DW.ref.__gxx_personality_v0
	.cfi_lsda 0x1b,.LLSDAC2399
	.type	_ZN8opendnp311LinkContext18StartResponseTimerEv.cold, @function
_ZN8opendnp311LinkContext18StartResponseTimerEv.cold:
.LFSB2399:
.L117:
	.cfi_def_cfa_offset 80
	.cfi_offset 3, -24
	.cfi_offset 14, -16
	movq	32(%rsp), %rax
	testq	%rax, %rax
	je	.L118
	movl	$3, %edx
	leaq	16(%rsp), %rsi
	leaq	16(%rsp), %rdi
	call	*%rax
.L118:
	movq	%r14, %rdi
.LEHB1:
	call	_Unwind_Resume@PLT
.LEHE1:
	.cfi_endproc
.LFE2399:
	.section	.gcc_except_table
.LLSDAC2399:
	.byte	0xff
	.byte	0xff
	.byte	0x1
	.uleb128 .LLSDACSEC2399-.LLSDACSBC2399
.LLSDACSBC2399:
	.uleb128 .LEHB1-.LCOLDB6
	.uleb128 .LEHE1-.LEHB1
	.uleb128 0
	.uleb128 0
.LLSDACSEC2399:
	.section	.text.unlikely
	.text
	.size	_ZN8opendnp311LinkContext18StartResponseTimerEv, .-_ZN8opendnp311LinkContext18StartResponseTimerEv
	.section	.text.unlikely
	.size	_ZN8opendnp311LinkContext18StartResponseTimerEv.cold, .-_ZN8opendnp311LinkContext18StartResponseTimerEv.cold
.LCOLDE6:
	.text
.LHOTE6:
	.section	.text.unlikely
	.align 2
.LCOLDB8:
	.text
.LHOTB8:
	.align 2
	.p2align 4
	.globl	_ZN8opendnp311LinkContext19StartKeepAliveTimerERKN7openpal18MonotonicTimestampE
	.type	_ZN8opendnp311LinkContext19StartKeepAliveTimerERKN7openpal18MonotonicTimestampE, @function
_ZN8opendnp311LinkContext19StartKeepAliveTimerERKN7openpal18MonotonicTimestampE:
.LFB2401:
	.cfi_startproc
	.cfi_personality 0x9b,DW.ref.__gxx_personality_v0
	.cfi_lsda 0x1b,.LLSDA2401
	pushq	%r14
	.cfi_def_cfa_offset 16
	.cfi_offset 14, -16
	movq	%rdi, %rax
	leaq	488(%rdi), %rdi
	pushq	%rbx
	.cfi_def_cfa_offset 24
	.cfi_offset 3, -24
	subq	$40, %rsp
	.cfi_def_cfa_offset 64
	movq	.LC7(%rip), %xmm0
	movq	%rax, 8(%rsp)
	leaq	_ZNSt17_Function_handlerIFvvEZN7openpal8TimerRef5StartIZN8opendnp311LinkContext19StartKeepAliveTimerERKNS1_18MonotonicTimestampEEUlvE_EEbS8_RKT_EUlvE_E9_M_invokeERKSt9_Any_data(%rip), %rax
	movq	%rsp, %rdx
	movq	%rax, %xmm1
	movq	%rdi, (%rsp)
	punpcklqdq	%xmm1, %xmm0
	movaps	%xmm0, 16(%rsp)
.LEHB2:
	call	_ZN7openpal8TimerRef11StartActionERKNS_18MonotonicTimestampERKSt8functionIFvvEE@PLT
.LEHE2:
	movq	16(%rsp), %rax
	testq	%rax, %rax
	je	.L127
	movl	$3, %edx
	movq	%rsp, %rsi
	movq	%rsp, %rdi
	call	*%rax
.L127:
	addq	$40, %rsp
	.cfi_remember_state
	.cfi_def_cfa_offset 24
	popq	%rbx
	.cfi_def_cfa_offset 16
	popq	%r14
	.cfi_def_cfa_offset 8
	ret
.L131:
	.cfi_restore_state
	movq	%rax, %r14
	jmp	.L129
	.section	.gcc_except_table
.LLSDA2401:
	.byte	0xff
	.byte	0xff
	.byte	0x1
	.uleb128 .LLSDACSE2401-.LLSDACSB2401
.LLSDACSB2401:
	.uleb128 .LEHB2-.LFB2401
	.uleb128 .LEHE2-.LEHB2
	.uleb128 .L131-.LFB2401
	.uleb128 0
.LLSDACSE2401:
	.text
	.cfi_endproc
	.section	.text.unlikely
	.cfi_startproc
	.cfi_personality 0x9b,DW.ref.__gxx_personality_v0
	.cfi_lsda 0x1b,.LLSDAC2401
	.type	_ZN8opendnp311LinkContext19StartKeepAliveTimerERKN7openpal18MonotonicTimestampE.cold, @function
_ZN8opendnp311LinkContext19StartKeepAliveTimerERKN7openpal18MonotonicTimestampE.cold:
.LFSB2401:
.L129:
	.cfi_def_cfa_offset 64
	.cfi_offset 3, -24
	.cfi_offset 14, -16
	movq	16(%rsp), %rax
	testq	%rax, %rax
	je	.L130
	movl	$3, %edx
	movq	%rsp, %rsi
	movq	%rsp, %rdi
	call	*%rax
.L130:
	movq	%r14, %rdi
.LEHB3:
	call	_Unwind_Resume@PLT
.LEHE3:
	.cfi_endproc
.LFE2401:
	.section	.gcc_except_table
.LLSDAC2401:
	.byte	0xff
	.byte	0xff
	.byte	0x1
	.uleb128 .LLSDACSEC2401-.LLSDACSBC2401
.LLSDACSBC2401:
	.uleb128 .LEHB3-.LCOLDB8
	.uleb128 .LEHE3-.LEHB3
	.uleb128 0
	.uleb128 0
.LLSDACSEC2401:
	.section	.text.unlikely
	.text
	.size	_ZN8opendnp311LinkContext19StartKeepAliveTimerERKN7openpal18MonotonicTimestampE, .-_ZN8opendnp311LinkContext19StartKeepAliveTimerERKN7openpal18MonotonicTimestampE
	.section	.text.unlikely
	.size	_ZN8opendnp311LinkContext19StartKeepAliveTimerERKN7openpal18MonotonicTimestampE.cold, .-_ZN8opendnp311LinkContext19StartKeepAliveTimerERKN7openpal18MonotonicTimestampE.cold
.LCOLDE8:
	.text
.LHOTE8:
	.align 2
	.p2align 4
	.globl	_ZN8opendnp311LinkContext18OnKeepAliveTimeoutEv
	.type	_ZN8opendnp311LinkContext18OnKeepAliveTimeoutEv, @function
_ZN8opendnp311LinkContext18OnKeepAliveTimeoutEv:
.LFB2397:
	.cfi_startproc
	pushq	%rbx
	.cfi_def_cfa_offset 16
	.cfi_offset 3, -16
	movq	%rdi, %rbx
	subq	$16, %rsp
	.cfi_def_cfa_offset 32
	movq	456(%rdi), %rdi
	movq	(%rdi), %rax
	call	*16(%rax)
	movq	%rax, %rdx
	movq	%rax, (%rsp)
	subq	512(%rbx), %rdx
	cmpq	%rdx, 432(%rbx)
	jg	.L140
	movq	%rax, 512(%rbx)
	movb	$1, 508(%rbx)
.L140:
	leaq	432(%rbx), %rsi
	movq	%rsp, %rdi
	call	_ZNK7openpal18MonotonicTimestamp3AddERKNS_12TimeDurationE@PLT
	leaq	8(%rsp), %rsi
	movq	%rbx, %rdi
	movq	%rax, 8(%rsp)
	call	_ZN8opendnp311LinkContext19StartKeepAliveTimerERKN7openpal18MonotonicTimestampE@PLT
	movq	%rbx, %rdi
	call	_ZN8opendnp311LinkContext20TryStartTransmissionEv@PLT
	addq	$16, %rsp
	.cfi_def_cfa_offset 16
	popq	%rbx
	.cfi_def_cfa_offset 8
	ret
	.cfi_endproc
.LFE2397:
	.size	_ZN8opendnp311LinkContext18OnKeepAliveTimeoutEv, .-_ZN8opendnp311LinkContext18OnKeepAliveTimeoutEv
	.p2align 4
	.type	_ZNSt17_Function_handlerIFvvEZN7openpal8TimerRef5StartIZN8opendnp311LinkContext19StartKeepAliveTimerERKNS1_18MonotonicTimestampEEUlvE_EEbS8_RKT_EUlvE_E9_M_invokeERKSt9_Any_data, @function
_ZNSt17_Function_handlerIFvvEZN7openpal8TimerRef5StartIZN8opendnp311LinkContext19StartKeepAliveTimerERKNS1_18MonotonicTimestampEEUlvE_EEbS8_RKT_EUlvE_E9_M_invokeERKSt9_Any_data:
.LFB3029:
	.cfi_startproc
	movq	(%rdi), %rax
	movq	8(%rdi), %rdi
	movq	$0, 8(%rax)
	jmp	_ZN8opendnp311LinkContext18OnKeepAliveTimeoutEv@PLT
	.cfi_endproc
.LFE3029:
	.size	_ZNSt17_Function_handlerIFvvEZN7openpal8TimerRef5StartIZN8opendnp311LinkContext19StartKeepAliveTimerERKNS1_18MonotonicTimestampEEUlvE_EEbS8_RKT_EUlvE_E9_M_invokeERKSt9_Any_data, .-_ZNSt17_Function_handlerIFvvEZN7openpal8TimerRef5StartIZN8opendnp311LinkContext19StartKeepAliveTimerERKNS1_18MonotonicTimestampEEUlvE_EEbS8_RKT_EUlvE_E9_M_invokeERKSt9_Any_data
	.section	.rodata.str1.1
.LC9:
	.string	"Layer already online"
	.section	.rodata.str1.8
	.align 8
.LC10:
	.string	"/opt/PLC/OpenPLC_v3/utils/dnp3_src/cpp/libs/src/opendnp3/link/LinkContext.cpp(68)"
	.text
	.align 2
	.p2align 4
	.globl	_ZN8opendnp311LinkContext14OnLowerLayerUpEv
	.type	_ZN8opendnp311LinkContext14OnLowerLayerUpEv, @function
_ZN8opendnp311LinkContext14OnLowerLayerUpEv:
.LFB2369:
	.cfi_startproc
	pushq	%r14
	.cfi_def_cfa_offset 16
	.cfi_offset 14, -16
	pushq	%rbx
	.cfi_def_cfa_offset 24
	.cfi_offset 3, -24
	movq	%rdi, %rbx
	subq	$24, %rsp
	.cfi_def_cfa_offset 48
	cmpb	$0, 506(%rdi)
	jne	.L152
	movq	456(%rdi), %rdi
	movq	(%rdi), %rax
	call	*16(%rax)
	movb	$1, 506(%rbx)
	leaq	432(%rbx), %rsi
	movq	%rsp, %rdi
	movq	%rax, 512(%rbx)
	movq	%rax, (%rsp)
	call	_ZNK7openpal18MonotonicTimestamp3AddERKNS_12TimeDurationE@PLT
	movq	%rbx, %rdi
	leaq	8(%rsp), %rsi
	movq	%rax, 8(%rsp)
	call	_ZN8opendnp311LinkContext19StartKeepAliveTimerERKN7openpal18MonotonicTimestampE@PLT
	movq	560(%rbx), %rdi
	movq	(%rdi), %rax
	movq	(%rax), %rax
	cmpq	_ZN8opendnp313ILinkListener13OnStateChangeENS_10LinkStatusE@GOTPCREL(%rip), %rax
	jne	.L153
.L147:
	movq	576(%rbx), %rdi
	movq	(%rdi), %rax
	call	*16(%rax)
	addq	$24, %rsp
	.cfi_remember_state
	.cfi_def_cfa_offset 24
	movl	$1, %eax
	popq	%rbx
	.cfi_def_cfa_offset 16
	popq	%r14
	.cfi_def_cfa_offset 8
	ret
	.p2align 4,,10
	.p2align 3
.L152:
	.cfi_restore_state
	leaq	376(%rdi), %r14
	leaq	8(%rsp), %rsi
	movl	$2, 8(%rsp)
	leaq	376(%rdi), %rdi
	call	_ZNK7openpal6Logger9IsEnabledERKNS_10LogFiltersE@PLT
	testb	%al, %al
	jne	.L154
	xorl	%eax, %eax
.L155:
	addq	$24, %rsp
	.cfi_remember_state
	.cfi_def_cfa_offset 24
	popq	%rbx
	.cfi_def_cfa_offset 16
	popq	%r14
	.cfi_def_cfa_offset 8
	ret
	.p2align 4,,10
	.p2align 3
.L154:
	.cfi_restore_state
	leaq	.LC9(%rip), %rcx
	leaq	.LC10(%rip), %rdx
	movq	%r14, %rdi
	movl	$2, 8(%rsp)
	leaq	8(%rsp), %rsi
	call	_ZN7openpal6Logger3LogERKNS_10LogFiltersEPKcS5_@PLT
	xorl	%eax, %eax
	jmp	.L155
	.p2align 4,,10
	.p2align 3
.L153:
	xorl	%esi, %esi
	call	*%rax
	jmp	.L147
	.cfi_endproc
.LFE2369:
	.size	_ZN8opendnp311LinkContext14OnLowerLayerUpEv, .-_ZN8opendnp311LinkContext14OnLowerLayerUpEv
	.align 2
	.p2align 4
	.globl	_ZN8opendnp311LinkContext11CancelTimerEv
	.type	_ZN8opendnp311LinkContext11CancelTimerEv, @function
_ZN8opendnp311LinkContext11CancelTimerEv:
.LFB2403:
	.cfi_startproc
	addq	$472, %rdi
	jmp	_ZN7openpal8TimerRef6CancelEv@PLT
	.cfi_endproc
.LFE2403:
	.size	_ZN8opendnp311LinkContext11CancelTimerEv, .-_ZN8opendnp311LinkContext11CancelTimerEv
	.align 2
	.p2align 4
	.globl	_ZN8opendnp311LinkContext13FailKeepAliveEb
	.type	_ZN8opendnp311LinkContext13FailKeepAliveEb, @function
_ZN8opendnp311LinkContext13FailKeepAliveEb:
.LFB2404:
	.cfi_startproc
	testb	%sil, %sil
	je	.L157
	movq	560(%rdi), %rdi
	movq	(%rdi), %rax
	movq	16(%rax), %rax
	cmpq	_ZN8opendnp313ILinkListener18OnKeepAliveFailureEv@GOTPCREL(%rip), %rax
	jne	.L159
.L157:
	ret
	.p2align 4,,10
	.p2align 3
.L159:
	jmp	*%rax
	.cfi_endproc
.LFE2404:
	.size	_ZN8opendnp311LinkContext13FailKeepAliveEb, .-_ZN8opendnp311LinkContext13FailKeepAliveEb
	.align 2
	.p2align 4
	.globl	_ZN8opendnp311LinkContext17CompleteKeepAliveEv
	.type	_ZN8opendnp311LinkContext17CompleteKeepAliveEv, @function
_ZN8opendnp311LinkContext17CompleteKeepAliveEv:
.LFB2405:
	.cfi_startproc
	movq	560(%rdi), %rdi
	movq	(%rdi), %rax
	movq	24(%rax), %rax
	cmpq	_ZN8opendnp313ILinkListener18OnKeepAliveSuccessEv@GOTPCREL(%rip), %rax
	jne	.L162
	ret
	.p2align 4,,10
	.p2align 3
.L162:
	jmp	*%rax
	.cfi_endproc
.LFE2405:
	.size	_ZN8opendnp311LinkContext17CompleteKeepAliveEv, .-_ZN8opendnp311LinkContext17CompleteKeepAliveEv
	.section	.rodata.str1.8
	.align 8
.LC11:
	.string	"Master frame received for master"
	.align 8
.LC12:
	.string	"Outstation frame received for outstation"
	.align 8
.LC13:
	.string	"/opt/PLC/OpenPLC_v3/utils/dnp3_src/cpp/libs/src/opendnp3/link/LinkContext.cpp(395)"
	.align 8
.LC14:
	.string	"Frame for unknown destintation"
	.align 8
.LC15:
	.string	"/opt/PLC/OpenPLC_v3/utils/dnp3_src/cpp/libs/src/opendnp3/link/LinkContext.cpp(402)"
	.section	.rodata.str1.1
.LC16:
	.string	"Frame from unknwon source"
	.section	.rodata.str1.8
	.align 8
.LC17:
	.string	"/opt/PLC/OpenPLC_v3/utils/dnp3_src/cpp/libs/src/opendnp3/link/LinkContext.cpp(409)"
	.text
	.align 2
	.p2align 4
	.globl	_ZN8opendnp311LinkContext8ValidateEbtt
	.type	_ZN8opendnp311LinkContext8ValidateEbtt, @function
_ZN8opendnp311LinkContext8ValidateEbtt:
.LFB2407:
	.cfi_startproc
	pushq	%rbx
	.cfi_def_cfa_offset 16
	.cfi_offset 3, -16
	subq	$48, %rsp
	.cfi_def_cfa_offset 64
	cmpb	%sil, 408(%rdi)
	je	.L180
	cmpw	%cx, 416(%rdi)
	jne	.L181
	movl	$1, %eax
	cmpw	%dx, 418(%rdi)
	jne	.L182
	addq	$48, %rsp
	.cfi_remember_state
	.cfi_def_cfa_offset 16
	popq	%rbx
	.cfi_def_cfa_offset 8
	ret
	.p2align 4,,10
	.p2align 3
.L181:
	.cfi_restore_state
	addl	$1, 528(%rdi)
	leaq	44(%rsp), %rsi
	addq	$376, %rdi
	movq	%rsi, 8(%rsp)
	movq	%rdi, %rbx
	movl	$4, 44(%rsp)
	call	_ZNK7openpal6Logger9IsEnabledERKNS_10LogFiltersE@PLT
	movq	8(%rsp), %rsi
	testb	%al, %al
	jne	.L183
.L166:
	xorl	%eax, %eax
.L184:
	addq	$48, %rsp
	.cfi_remember_state
	.cfi_def_cfa_offset 16
	popq	%rbx
	.cfi_def_cfa_offset 8
	ret
	.p2align 4,,10
	.p2align 3
.L182:
	.cfi_restore_state
	addl	$1, 532(%rdi)
	leaq	44(%rsp), %rsi
	addq	$376, %rdi
	movq	%rsi, 8(%rsp)
	movq	%rdi, %rbx
	movl	$4, 44(%rsp)
	call	_ZNK7openpal6Logger9IsEnabledERKNS_10LogFiltersE@PLT
	movq	8(%rsp), %rsi
	testb	%al, %al
	je	.L166
	leaq	.LC16(%rip), %rcx
	leaq	.LC17(%rip), %rdx
	movq	%rbx, %rdi
	movl	$4, 44(%rsp)
	call	_ZN7openpal6Logger3LogERKNS_10LogFiltersEPKcS5_@PLT
	xorl	%eax, %eax
	jmp	.L184
	.p2align 4,,10
	.p2align 3
.L183:
	leaq	.LC14(%rip), %rcx
	leaq	.LC15(%rip), %rdx
	movq	%rbx, %rdi
	movl	$4, 44(%rsp)
	call	_ZN7openpal6Logger3LogERKNS_10LogFiltersEPKcS5_@PLT
	xorl	%eax, %eax
	jmp	.L184
	.p2align 4,,10
	.p2align 3
.L180:
	addl	$1, 524(%rdi)
	addq	$376, %rdi
	movl	%esi, 28(%rsp)
	leaq	44(%rsp), %rsi
	movl	$4, 44(%rsp)
	movq	%rsi, 16(%rsp)
	movq	%rdi, 8(%rsp)
	call	_ZNK7openpal6Logger9IsEnabledERKNS_10LogFiltersE@PLT
	testb	%al, %al
	je	.L166
	cmpb	$0, 28(%rsp)
	leaq	.LC11(%rip), %rax
	movq	16(%rsp), %rsi
	leaq	.LC12(%rip), %rcx
	cmovne	%rax, %rcx
	movq	8(%rsp), %rdi
	leaq	.LC13(%rip), %rdx
	movl	$4, 44(%rsp)
	call	_ZN7openpal6Logger3LogERKNS_10LogFiltersEPKcS5_@PLT
	xorl	%eax, %eax
	jmp	.L184
	.cfi_endproc
.LFE2407:
	.size	_ZN8opendnp311LinkContext8ValidateEbtt, .-_ZN8opendnp311LinkContext8ValidateEbtt
	.section	.rodata.str1.8
	.align 8
.LC18:
	.string	"/opt/PLC/OpenPLC_v3/utils/dnp3_src/cpp/libs/src/opendnp3/link/LinkContext.cpp(344)"
	.text
	.align 2
	.p2align 4
	.globl	_ZN8opendnp311LinkContext7OnFrameERKNS_16LinkHeaderFieldsERKN7openpal6RSliceE
	.type	_ZN8opendnp311LinkContext7OnFrameERKNS_16LinkHeaderFieldsERKN7openpal6RSliceE, @function
_ZN8opendnp311LinkContext7OnFrameERKNS_16LinkHeaderFieldsERKN7openpal6RSliceE:
.LFB2406:
	.cfi_startproc
	pushq	%r14
	.cfi_def_cfa_offset 16
	.cfi_offset 14, -16
	pushq	%r12
	.cfi_def_cfa_offset 24
	.cfi_offset 12, -24
	pushq	%rbp
	.cfi_def_cfa_offset 32
	.cfi_offset 6, -32
	pushq	%rbx
	.cfi_def_cfa_offset 40
	.cfi_offset 3, -40
	movq	%rdi, %rbx
	subq	$24, %rsp
	.cfi_def_cfa_offset 64
	cmpb	$0, 506(%rdi)
	je	.L208
	movzwl	4(%rsi), %ecx
	movq	%rsi, %r12
	movq	%rdx, %r14
	movzwl	6(%rsi), %edx
	movzbl	1(%rsi), %esi
	call	_ZN8opendnp311LinkContext8ValidateEbtt@PLT
	movl	%eax, %ebp
	testb	%al, %al
	je	.L188
	movq	456(%rbx), %rdi
	movq	(%rdi), %rax
	call	*16(%rax)
	movq	%rax, 512(%rbx)
	movzbl	(%r12), %eax
	cmpb	$73, %al
	ja	.L188
	cmpb	$63, %al
	jbe	.L209
	subl	$64, %eax
	cmpb	$9, %al
	ja	.L188
	leaq	.L197(%rip), %rdx
	movzbl	%al, %eax
	movslq	(%rdx,%rax,4), %rax
	addq	%rdx, %rax
	jmp	*%rax
	.section	.rodata
	.align 4
	.align 4
.L197:
	.long	.L201-.L197
	.long	.L188-.L197
	.long	.L200-.L197
	.long	.L199-.L197
	.long	.L198-.L197
	.long	.L188-.L197
	.long	.L188-.L197
	.long	.L188-.L197
	.long	.L188-.L197
	.long	.L196-.L197
	.text
	.p2align 4,,10
	.p2align 3
.L208:
	leaq	12(%rsp), %rbp
	leaq	376(%rdi), %rdi
	movl	$2, 12(%rsp)
	movq	%rbp, %rsi
	call	_ZNK7openpal6Logger9IsEnabledERKNS_10LogFiltersE@PLT
	testb	%al, %al
	jne	.L187
.L188:
	xorl	%ebp, %ebp
.L185:
	addq	$24, %rsp
	.cfi_remember_state
	.cfi_def_cfa_offset 40
	movl	%ebp, %eax
	popq	%rbx
	.cfi_def_cfa_offset 32
	popq	%rbp
	.cfi_def_cfa_offset 24
	popq	%r12
	.cfi_def_cfa_offset 16
	popq	%r14
	.cfi_def_cfa_offset 8
	ret
	.p2align 4,,10
	.p2align 3
.L187:
	.cfi_restore_state
	leaq	.LC0(%rip), %rcx
	leaq	.LC18(%rip), %rdx
	movq	%rbp, %rsi
	movl	$2, 12(%rsp)
	leaq	376(%rbx), %rdi
	call	_ZN7openpal6Logger3LogERKNS_10LogFiltersEPKcS5_@PLT
	jmp	.L188
	.p2align 4,,10
	.p2align 3
.L209:
	cmpb	$11, %al
	je	.L192
	ja	.L193
	testb	%al, %al
	je	.L194
	cmpb	$1, %al
	jne	.L188
	movq	544(%rbx), %rdi
	movzbl	3(%r12), %edx
	movq	%rbx, %rsi
	movq	(%rdi), %rax
	call	*8(%rax)
	movq	%rax, 544(%rbx)
	jmp	.L185
	.p2align 4,,10
	.p2align 3
.L193:
	cmpb	$15, %al
	jne	.L188
	movq	544(%rbx), %rdi
	movzbl	3(%r12), %edx
	movq	%rbx, %rsi
	movq	(%rdi), %rax
	call	*24(%rax)
	movq	%rax, 544(%rbx)
	jmp	.L185
	.p2align 4,,10
	.p2align 3
.L196:
	movq	552(%rbx), %rdi
	movq	%rbx, %rsi
	movq	(%rdi), %rax
	call	*8(%rax)
	movq	%rax, 552(%rbx)
	jmp	.L185
	.p2align 4,,10
	.p2align 3
.L198:
	movq	%r14, %rsi
	movq	%rbx, %rdi
	call	_ZN8opendnp311LinkContext10PushDataUpERKN7openpal6RSliceE@PLT
	jmp	.L185
	.p2align 4,,10
	.p2align 3
.L199:
	movq	552(%rbx), %rdi
	movzbl	2(%r12), %edx
	movq	%r14, %rcx
	movq	%rbx, %rsi
	movq	(%rdi), %rax
	call	*24(%rax)
	movq	%rax, 552(%rbx)
	jmp	.L185
	.p2align 4,,10
	.p2align 3
.L200:
	movq	552(%rbx), %rdi
	movzbl	2(%r12), %edx
	movq	%rbx, %rsi
	movq	(%rdi), %rax
	call	*16(%rax)
	movq	%rax, 552(%rbx)
	jmp	.L185
	.p2align 4,,10
	.p2align 3
.L201:
	movq	552(%rbx), %rdi
	movq	%rbx, %rsi
	movq	(%rdi), %rax
	call	*(%rax)
	movq	%rax, 552(%rbx)
	jmp	.L185
	.p2align 4,,10
	.p2align 3
.L194:
	movq	544(%rbx), %rdi
	movzbl	3(%r12), %edx
	movq	%rbx, %rsi
	movq	(%rdi), %rax
	call	*(%rax)
	movq	%rax, 544(%rbx)
	jmp	.L185
	.p2align 4,,10
	.p2align 3
.L192:
	movq	544(%rbx), %rdi
	movzbl	3(%r12), %edx
	movq	%rbx, %rsi
	movq	(%rdi), %rax
	call	*16(%rax)
	movq	%rax, 544(%rbx)
	jmp	.L185
	.cfi_endproc
.LFE2406:
	.size	_ZN8opendnp311LinkContext7OnFrameERKNS_16LinkHeaderFieldsERKN7openpal6RSliceE, .-_ZN8opendnp311LinkContext7OnFrameERKNS_16LinkHeaderFieldsERKN7openpal6RSliceE
	.align 2
	.p2align 4
	.globl	_ZN8opendnp311LinkContext12TryPendingTxERN7openpal8SettableINS1_6RSliceEEEb
	.type	_ZN8opendnp311LinkContext12TryPendingTxERN7openpal8SettableINS1_6RSliceEEEb, @function
_ZN8opendnp311LinkContext12TryPendingTxERN7openpal8SettableINS1_6RSliceEEEb:
.LFB2408:
	.cfi_startproc
	xorl	%eax, %eax
	cmpb	$0, 448(%rdi)
	jne	.L217
	movzbl	(%rsi), %eax
	testb	%al, %al
	jne	.L220
.L217:
	ret
	.p2align 4,,10
	.p2align 3
.L220:
	subq	$56, %rsp
	.cfi_def_cfa_offset 64
	movq	%rdi, %rcx
	movq	536(%rdi), %rdi
	movq	%rsi, %r8
	movl	8(%r8), %r11d
	movq	16(%rsi), %rsi
	movb	%al, 31(%rsp)
	movq	(%rdi), %r10
	movl	%edx, 24(%rsp)
	movq	%rcx, 16(%rsp)
	movq	592(%rcx), %rdx
	movq	%r8, 8(%rsp)
	movq	%rsi, 40(%rsp)
	leaq	32(%rsp), %rsi
	movl	%r11d, 32(%rsp)
	call	*16(%r10)
	movq	8(%rsp), %r8
	movq	16(%rsp), %rcx
	movl	$2, %edx
	subb	24(%rsp), %dl
	movzbl	31(%rsp), %eax
	movb	$0, (%r8)
	movb	%dl, 448(%rcx)
	addq	$56, %rsp
	.cfi_def_cfa_offset 8
	ret
	.cfi_endproc
.LFE2408:
	.size	_ZN8opendnp311LinkContext12TryPendingTxERN7openpal8SettableINS1_6RSliceEEEb, .-_ZN8opendnp311LinkContext12TryPendingTxERN7openpal8SettableINS1_6RSliceEEEb
	.section	.rodata.str1.1
.LC19:
	.string	"Unknown transmission callback"
	.section	.rodata.str1.8
	.align 8
.LC20:
	.string	"/opt/PLC/OpenPLC_v3/utils/dnp3_src/cpp/libs/src/opendnp3/link/LinkContext.cpp(136)"
	.text
	.align 2
	.p2align 4
	.globl	_ZN8opendnp311LinkContext16OnTransmitResultEb
	.type	_ZN8opendnp311LinkContext16OnTransmitResultEb, @function
_ZN8opendnp311LinkContext16OnTransmitResultEb:
.LFB2372:
	.cfi_startproc
	pushq	%r12
	.cfi_def_cfa_offset 16
	.cfi_offset 12, -16
	pushq	%rbp
	.cfi_def_cfa_offset 24
	.cfi_offset 6, -24
	pushq	%rbx
	.cfi_def_cfa_offset 32
	.cfi_offset 3, -32
	movq	%rdi, %rbx
	subq	$16, %rsp
	.cfi_def_cfa_offset 48
	movzbl	448(%rdi), %r12d
	testb	%r12b, %r12b
	je	.L231
	movb	$0, 448(%rdi)
	movl	%esi, %ebp
	xorl	%edx, %edx
	leaq	352(%rdi), %rsi
	call	_ZN8opendnp311LinkContext12TryPendingTxERN7openpal8SettableINS1_6RSliceEEEb@PLT
	movl	$1, %edx
	leaq	328(%rbx), %rsi
	movq	%rbx, %rdi
	call	_ZN8opendnp311LinkContext12TryPendingTxERN7openpal8SettableINS1_6RSliceEEEb@PLT
	movzbl	%bpl, %edx
	cmpb	$1, %r12b
	je	.L232
	movq	552(%rbx), %rdi
	movq	%rbx, %rsi
	movq	(%rdi), %rax
	call	*32(%rax)
	movq	%rax, 552(%rbx)
.L226:
	addq	$16, %rsp
	.cfi_remember_state
	.cfi_def_cfa_offset 32
	movl	$1, %eax
	popq	%rbx
	.cfi_def_cfa_offset 24
	popq	%rbp
	.cfi_def_cfa_offset 16
	popq	%r12
	.cfi_def_cfa_offset 8
	ret
	.p2align 4,,10
	.p2align 3
.L232:
	.cfi_restore_state
	movq	544(%rbx), %rdi
	movq	%rbx, %rsi
	movq	(%rdi), %rax
	call	*32(%rax)
	movq	%rax, 544(%rbx)
	jmp	.L226
	.p2align 4,,10
	.p2align 3
.L231:
	leaq	12(%rsp), %rbp
	leaq	376(%rdi), %rdi
	movl	$2, 12(%rsp)
	movq	%rbp, %rsi
	call	_ZNK7openpal6Logger9IsEnabledERKNS_10LogFiltersE@PLT
	testb	%al, %al
	jne	.L233
	xorl	%eax, %eax
.L234:
	addq	$16, %rsp
	.cfi_remember_state
	.cfi_def_cfa_offset 32
	popq	%rbx
	.cfi_def_cfa_offset 24
	popq	%rbp
	.cfi_def_cfa_offset 16
	popq	%r12
	.cfi_def_cfa_offset 8
	ret
	.p2align 4,,10
	.p2align 3
.L233:
	.cfi_restore_state
	leaq	.LC19(%rip), %rcx
	leaq	.LC20(%rip), %rdx
	movq	%rbp, %rsi
	movl	$2, 12(%rsp)
	leaq	376(%rbx), %rdi
	call	_ZN7openpal6Logger3LogERKNS_10LogFiltersEPKcS5_@PLT
	xorl	%eax, %eax
	jmp	.L234
	.cfi_endproc
.LFE2372:
	.size	_ZN8opendnp311LinkContext16OnTransmitResultEb, .-_ZN8opendnp311LinkContext16OnTransmitResultEb
	.section	.text._ZNSt16_Sp_counted_baseILN9__gnu_cxx12_Lock_policyE2EE24_M_release_last_use_coldEv,"axG",@progbits,_ZNSt16_Sp_counted_baseILN9__gnu_cxx12_Lock_policyE2EE24_M_release_last_use_coldEv,comdat
	.align 2
	.p2align 4
	.weak	_ZNSt16_Sp_counted_baseILN9__gnu_cxx12_Lock_policyE2EE24_M_release_last_use_coldEv
	.type	_ZNSt16_Sp_counted_baseILN9__gnu_cxx12_Lock_policyE2EE24_M_release_last_use_coldEv, @function
_ZNSt16_Sp_counted_baseILN9__gnu_cxx12_Lock_policyE2EE24_M_release_last_use_coldEv:
.LFB2415:
	.cfi_startproc
	pushq	%rbx
	.cfi_def_cfa_offset 16
	.cfi_offset 3, -16
	movq	(%rdi), %rax
	movq	%rdi, %rbx
	call	*16(%rax)
	movq	__libc_single_threaded@GOTPCREL(%rip), %rax
	cmpb	$0, (%rax)
	je	.L236
	movl	12(%rbx), %eax
	leal	-1(%rax), %edx
	movl	%edx, 12(%rbx)
.L237:
	cmpl	$1, %eax
	je	.L240
	popq	%rbx
	.cfi_remember_state
	.cfi_def_cfa_offset 8
	ret
	.p2align 4,,10
	.p2align 3
.L240:
	.cfi_restore_state
	movq	(%rbx), %rax
	movq	%rbx, %rdi
	popq	%rbx
	.cfi_remember_state
	.cfi_def_cfa_offset 8
	movq	24(%rax), %rax
	jmp	*%rax
	.p2align 4,,10
	.p2align 3
.L236:
	.cfi_restore_state
	movl	$-1, %eax
	lock xaddl	%eax, 12(%rbx)
	jmp	.L237
	.cfi_endproc
.LFE2415:
	.size	_ZNSt16_Sp_counted_baseILN9__gnu_cxx12_Lock_policyE2EE24_M_release_last_use_coldEv, .-_ZNSt16_Sp_counted_baseILN9__gnu_cxx12_Lock_policyE2EE24_M_release_last_use_coldEv
	.section	.text._ZNSt16_Sp_counted_baseILN9__gnu_cxx12_Lock_policyE2EE10_M_releaseEv,"axG",@progbits,_ZNSt16_Sp_counted_baseILN9__gnu_cxx12_Lock_policyE2EE10_M_releaseEv,comdat
	.align 2
	.p2align 4
	.weak	_ZNSt16_Sp_counted_baseILN9__gnu_cxx12_Lock_policyE2EE10_M_releaseEv
	.type	_ZNSt16_Sp_counted_baseILN9__gnu_cxx12_Lock_policyE2EE10_M_releaseEv, @function
_ZNSt16_Sp_counted_baseILN9__gnu_cxx12_Lock_policyE2EE10_M_releaseEv:
.LFB1188:
	.cfi_startproc
	movabsq	$4294967297, %rax
	movq	8(%rdi), %rdx
	cmpq	%rax, %rdx
	je	.L249
	movq	__libc_single_threaded@GOTPCREL(%rip), %rax
	cmpb	$0, (%rax)
	je	.L243
	movl	8(%rdi), %eax
	leal	-1(%rax), %edx
	movl	%edx, 8(%rdi)
.L244:
	cmpl	$1, %eax
	je	.L250
	ret
	.p2align 4,,10
	.p2align 3
.L243:
	leaq	8(%rdi), %rcx
	movl	$-1, %eax
	lock xaddl	%eax, (%rcx)
	jmp	.L244
	.p2align 4,,10
	.p2align 3
.L249:
	subq	$24, %rsp
	.cfi_def_cfa_offset 32
	movq	(%rdi), %rax
	movq	$0, 8(%rdi)
	movq	%rdi, 8(%rsp)
	call	*16(%rax)
	movq	8(%rsp), %rdi
	movq	(%rdi), %rax
	movq	24(%rax), %rax
	addq	$24, %rsp
	.cfi_def_cfa_offset 8
	jmp	*%rax
	.p2align 4,,10
	.p2align 3
.L250:
	jmp	_ZNSt16_Sp_counted_baseILN9__gnu_cxx12_Lock_policyE2EE24_M_release_last_use_coldEv@PLT
	.cfi_endproc
.LFE1188:
	.size	_ZNSt16_Sp_counted_baseILN9__gnu_cxx12_Lock_policyE2EE10_M_releaseEv, .-_ZNSt16_Sp_counted_baseILN9__gnu_cxx12_Lock_policyE2EE10_M_releaseEv
	.section	.text.unlikely
	.align 2
.LCOLDB21:
	.text
.LHOTB21:
	.align 2
	.p2align 4
	.globl	_ZN8opendnp311LinkContextC2ERKN7openpal6LoggerERKSt10shared_ptrINS1_9IExecutorEERKS5_INS_11IUpperLayerEERKS5_INS_13ILinkListenerEERNS_12ILinkSessionERKNS_10LinkConfigE
	.type	_ZN8opendnp311LinkContextC2ERKN7openpal6LoggerERKSt10shared_ptrINS1_9IExecutorEERKS5_INS_11IUpperLayerEERKS5_INS_13ILinkListenerEERNS_12ILinkSessionERKNS_10LinkConfigE, @function
_ZN8opendnp311LinkContextC2ERKN7openpal6LoggerERKSt10shared_ptrINS1_9IExecutorEERKS5_INS_11IUpperLayerEERKS5_INS_13ILinkListenerEERNS_12ILinkSessionERKNS_10LinkConfigE:
.LFB2367:
	.cfi_startproc
	.cfi_personality 0x9b,DW.ref.__gxx_personality_v0
	.cfi_lsda 0x1b,.LLSDA2367
	pushq	%r15
	.cfi_def_cfa_offset 16
	.cfi_offset 15, -16
	movq	%rcx, %r15
	pushq	%r14
	.cfi_def_cfa_offset 24
	.cfi_offset 14, -24
	movq	%rdx, %r14
	pushq	%r13
	.cfi_def_cfa_offset 32
	.cfi_offset 13, -32
	movq	%rsi, %r13
	pushq	%r12
	.cfi_def_cfa_offset 40
	.cfi_offset 12, -40
	pushq	%rbp
	.cfi_def_cfa_offset 48
	.cfi_offset 6, -48
	movq	%r8, %rbp
	pushq	%rbx
	.cfi_def_cfa_offset 56
	.cfi_offset 3, -56
	movq	%rdi, %rbx
	addq	$336, %rdi
	subq	$24, %rsp
	.cfi_def_cfa_offset 80
	movq	_ZTVN7openpal12StaticBufferILj292EEE@GOTPCREL(%rip), %rax
	movb	$0, -8(%rdi)
	movq	%r9, 8(%rsp)
	movq	80(%rsp), %r12
	addq	$16, %rax
	movq	%rax, -336(%rdi)
	movq	_ZTVN7openpal12StaticBufferILj10EEE@GOTPCREL(%rip), %rax
	addq	$16, %rax
	movq	%rax, -32(%rdi)
.LEHB4:
	call	_ZN7openpal6RSliceC1Ev@PLT
	movb	$0, 352(%rbx)
	leaq	360(%rbx), %rdi
	call	_ZN7openpal6RSliceC1Ev@PLT
.LEHE4:
	movdqu	0(%r13), %xmm0
	movhlps	%xmm0, %xmm1
	movups	%xmm0, 376(%rbx)
	movq	%xmm1, %rax
	testq	%rax, %rax
	je	.L252
	movq	__libc_single_threaded@GOTPCREL(%rip), %rcx
	cmpb	$0, (%rcx)
	je	.L253
	addl	$1, 8(%rax)
.L252:
	movdqu	16(%r13), %xmm0
	movhlps	%xmm0, %xmm2
	movups	%xmm0, 392(%rbx)
	movq	%xmm2, %rax
	testq	%rax, %rax
	je	.L254
	movq	__libc_single_threaded@GOTPCREL(%rip), %rcx
	cmpb	$0, (%rcx)
	je	.L255
	addl	$1, 8(%rax)
.L254:
	movdqu	(%r12), %xmm0
	movq	$0, 440(%rbx)
	movb	$0, 448(%rbx)
	movups	%xmm0, 408(%rbx)
	movdqu	16(%r12), %xmm0
	movl	$0, 452(%rbx)
	movups	%xmm0, 424(%rbx)
	movdqu	(%r14), %xmm0
	movhlps	%xmm0, %xmm3
	movups	%xmm0, 456(%rbx)
	movq	%xmm3, %rax
	testq	%rax, %rax
	je	.L256
	movq	__libc_single_threaded@GOTPCREL(%rip), %rcx
	cmpb	$0, (%rcx)
	je	.L257
	addl	$1, 8(%rax)
.L256:
	movq	(%r14), %rsi
	leaq	472(%rbx), %rdi
.LEHB5:
	call	_ZN7openpal8TimerRefC1ERNS_9IExecutorE@PLT
.LEHE5:
	movq	(%r14), %rsi
	leaq	488(%rbx), %rdi
.LEHB6:
	call	_ZN7openpal8TimerRefC1ERNS_9IExecutorE@PLT
.LEHE6:
	movq	(%r14), %rdi
	movb	$0, 508(%rbx)
	movl	$0, 504(%rbx)
	movq	(%rdi), %rax
.LEHB7:
	call	*16(%rax)
.LEHE7:
	movq	%rax, 512(%rbx)
	movq	_ZN8opendnp313SLLS_NotReset8instanceE@GOTPCREL(%rip), %rax
	pxor	%xmm0, %xmm0
	movups	%xmm0, 520(%rbx)
	pxor	%xmm0, %xmm0
	movhps	_ZN8opendnp39PLLS_Idle8instanceE@GOTPCREL(%rip), %xmm0
	movq	%rax, 552(%rbx)
	movups	%xmm0, 536(%rbx)
	movq	0(%rbp), %rax
	movq	%rax, 560(%rbx)
	movq	8(%rbp), %rax
	movq	%rax, 568(%rbx)
	testq	%rax, %rax
	je	.L258
	movq	__libc_single_threaded@GOTPCREL(%rip), %rdx
	cmpb	$0, (%rdx)
	je	.L259
	addl	$1, 8(%rax)
.L258:
	movdqu	(%r15), %xmm0
	movhlps	%xmm0, %xmm4
	movups	%xmm0, 576(%rbx)
	movq	%xmm4, %rax
	testq	%rax, %rax
	je	.L260
	movq	__libc_single_threaded@GOTPCREL(%rip), %rdx
	cmpb	$0, (%rdx)
	je	.L261
	addl	$1, 8(%rax)
.L260:
	movq	8(%rsp), %rax
	movq	%rax, 592(%rbx)
	addq	$24, %rsp
	.cfi_remember_state
	.cfi_def_cfa_offset 56
	popq	%rbx
	.cfi_def_cfa_offset 48
	popq	%rbp
	.cfi_def_cfa_offset 40
	popq	%r12
	.cfi_def_cfa_offset 32
	popq	%r13
	.cfi_def_cfa_offset 24
	popq	%r14
	.cfi_def_cfa_offset 16
	popq	%r15
	.cfi_def_cfa_offset 8
	ret
	.p2align 4,,10
	.p2align 3
.L253:
	.cfi_restore_state
	lock addl	$1, 8(%rax)
	jmp	.L252
	.p2align 4,,10
	.p2align 3
.L261:
	lock addl	$1, 8(%rax)
	jmp	.L260
	.p2align 4,,10
	.p2align 3
.L259:
	lock addl	$1, 8(%rax)
	jmp	.L258
	.p2align 4,,10
	.p2align 3
.L255:
	lock addl	$1, 8(%rax)
	jmp	.L254
	.p2align 4,,10
	.p2align 3
.L257:
	lock addl	$1, 8(%rax)
	jmp	.L256
.L268:
	movq	%rax, %rbp
	jmp	.L264
.L270:
	movq	%rax, %rbp
	jmp	.L262
.L269:
	movq	%rax, %rbp
	jmp	.L263
	.section	.gcc_except_table
.LLSDA2367:
	.byte	0xff
	.byte	0xff
	.byte	0x1
	.uleb128 .LLSDACSE2367-.LLSDACSB2367
.LLSDACSB2367:
	.uleb128 .LEHB4-.LFB2367
	.uleb128 .LEHE4-.LEHB4
	.uleb128 0
	.uleb128 0
	.uleb128 .LEHB5-.LFB2367
	.uleb128 .LEHE5-.LEHB5
	.uleb128 .L268-.LFB2367
	.uleb128 0
	.uleb128 .LEHB6-.LFB2367
	.uleb128 .LEHE6-.LEHB6
	.uleb128 .L269-.LFB2367
	.uleb128 0
	.uleb128 .LEHB7-.LFB2367
	.uleb128 .LEHE7-.LEHB7
	.uleb128 .L270-.LFB2367
	.uleb128 0
.LLSDACSE2367:
	.text
	.cfi_endproc
	.section	.text.unlikely
	.cfi_startproc
	.cfi_personality 0x9b,DW.ref.__gxx_personality_v0
	.cfi_lsda 0x1b,.LLSDAC2367
	.type	_ZN8opendnp311LinkContextC2ERKN7openpal6LoggerERKSt10shared_ptrINS1_9IExecutorEERKS5_INS_11IUpperLayerEERKS5_INS_13ILinkListenerEERNS_12ILinkSessionERKNS_10LinkConfigE.cold, @function
_ZN8opendnp311LinkContextC2ERKN7openpal6LoggerERKSt10shared_ptrINS1_9IExecutorEERKS5_INS_11IUpperLayerEERKS5_INS_13ILinkListenerEERNS_12ILinkSessionERKNS_10LinkConfigE.cold:
.LFSB2367:
.L262:
	.cfi_def_cfa_offset 80
	.cfi_offset 3, -56
	.cfi_offset 6, -48
	.cfi_offset 12, -40
	.cfi_offset 13, -32
	.cfi_offset 14, -24
	.cfi_offset 15, -16
	leaq	488(%rbx), %rdi
	call	_ZN7openpal8TimerRefD1Ev@PLT
.L263:
	leaq	472(%rbx), %rdi
	call	_ZN7openpal8TimerRefD1Ev@PLT
.L264:
	movq	464(%rbx), %rdi
	testq	%rdi, %rdi
	je	.L265
	call	_ZNSt16_Sp_counted_baseILN9__gnu_cxx12_Lock_policyE2EE10_M_releaseEv@PLT
.L265:
	movq	400(%rbx), %rdi
	testq	%rdi, %rdi
	je	.L266
	call	_ZNSt16_Sp_counted_baseILN9__gnu_cxx12_Lock_policyE2EE10_M_releaseEv@PLT
.L266:
	movq	384(%rbx), %rdi
	testq	%rdi, %rdi
	je	.L267
	call	_ZNSt16_Sp_counted_baseILN9__gnu_cxx12_Lock_policyE2EE10_M_releaseEv@PLT
.L267:
	movq	%rbp, %rdi
.LEHB8:
	call	_Unwind_Resume@PLT
.LEHE8:
	.cfi_endproc
.LFE2367:
	.section	.gcc_except_table
.LLSDAC2367:
	.byte	0xff
	.byte	0xff
	.byte	0x1
	.uleb128 .LLSDACSEC2367-.LLSDACSBC2367
.LLSDACSBC2367:
	.uleb128 .LEHB8-.LCOLDB21
	.uleb128 .LEHE8-.LEHB8
	.uleb128 0
	.uleb128 0
.LLSDACSEC2367:
	.section	.text.unlikely
	.text
	.size	_ZN8opendnp311LinkContextC2ERKN7openpal6LoggerERKSt10shared_ptrINS1_9IExecutorEERKS5_INS_11IUpperLayerEERKS5_INS_13ILinkListenerEERNS_12ILinkSessionERKNS_10LinkConfigE, .-_ZN8opendnp311LinkContextC2ERKN7openpal6LoggerERKSt10shared_ptrINS1_9IExecutorEERKS5_INS_11IUpperLayerEERKS5_INS_13ILinkListenerEERNS_12ILinkSessionERKNS_10LinkConfigE
	.section	.text.unlikely
	.size	_ZN8opendnp311LinkContextC2ERKN7openpal6LoggerERKSt10shared_ptrINS1_9IExecutorEERKS5_INS_11IUpperLayerEERKS5_INS_13ILinkListenerEERNS_12ILinkSessionERKNS_10LinkConfigE.cold, .-_ZN8opendnp311LinkContextC2ERKN7openpal6LoggerERKSt10shared_ptrINS1_9IExecutorEERKS5_INS_11IUpperLayerEERKS5_INS_13ILinkListenerEERNS_12ILinkSessionERKNS_10LinkConfigE.cold
.LCOLDE21:
	.text
.LHOTE21:
	.globl	_ZN8opendnp311LinkContextC1ERKN7openpal6LoggerERKSt10shared_ptrINS1_9IExecutorEERKS5_INS_11IUpperLayerEERKS5_INS_13ILinkListenerEERNS_12ILinkSessionERKNS_10LinkConfigE
	.set	_ZN8opendnp311LinkContextC1ERKN7openpal6LoggerERKSt10shared_ptrINS1_9IExecutorEERKS5_INS_11IUpperLayerEERKS5_INS_13ILinkListenerEERNS_12ILinkSessionERKNS_10LinkConfigE,_ZN8opendnp311LinkContextC2ERKN7openpal6LoggerERKSt10shared_ptrINS1_9IExecutorEERKS5_INS_11IUpperLayerEERKS5_INS_13ILinkListenerEERNS_12ILinkSessionERKNS_10LinkConfigE
	.section	.text.unlikely
	.align 2
.LCOLDB23:
	.text
.LHOTB23:
	.align 2
	.p2align 4
	.globl	_ZN8opendnp311LinkContext21CompleteSendOperationEb
	.type	_ZN8opendnp311LinkContext21CompleteSendOperationEb, @function
_ZN8opendnp311LinkContext21CompleteSendOperationEb:
.LFB2383:
	.cfi_startproc
	.cfi_personality 0x9b,DW.ref.__gxx_personality_v0
	.cfi_lsda 0x1b,.LLSDA2383
	pushq	%r13
	.cfi_def_cfa_offset 16
	.cfi_offset 13, -16
	pushq	%r12
	.cfi_def_cfa_offset 24
	.cfi_offset 12, -24
	pushq	%rbp
	.cfi_def_cfa_offset 32
	.cfi_offset 6, -32
	movl	%esi, %ebp
	pushq	%rbx
	.cfi_def_cfa_offset 40
	.cfi_offset 3, -40
	subq	$56, %rsp
	.cfi_def_cfa_offset 96
	movq	584(%rdi), %rbx
	movq	$0, 440(%rdi)
	movq	576(%rdi), %xmm0
	testq	%rbx, %rbx
	je	.L298
	movq	__libc_single_threaded@GOTPCREL(%rip), %rax
	cmpb	$0, (%rax)
	je	.L299
	addl	$1, 8(%rbx)
.L298:
	movq	456(%rdi), %r12
	pxor	%xmm1, %xmm1
	movl	$24, %edi
	movq	%xmm0, 8(%rsp)
	movq	(%r12), %rax
	movaps	%xmm1, 16(%rsp)
	movq	$0, 32(%rsp)
	movq	$0, 40(%rsp)
	movq	40(%rax), %r13
.LEHB9:
	call	_Znwm@PLT
.LEHE9:
	movq	8(%rsp), %xmm0
	movq	%rbx, %xmm2
	punpcklqdq	%xmm2, %xmm0
	movups	%xmm0, (%rax)
	testq	%rbx, %rbx
	je	.L300
	movq	__libc_single_threaded@GOTPCREL(%rip), %rdx
	cmpb	$0, (%rdx)
	je	.L301
	addl	$1, 8(%rbx)
.L300:
	movq	.LC22(%rip), %xmm0
	movb	%bpl, 16(%rax)
	leaq	16(%rsp), %rbp
	movq	%r12, %rdi
	movq	%rax, 16(%rsp)
	leaq	_ZNSt17_Function_handlerIFvvEZN8opendnp311LinkContext21CompleteSendOperationEbEUlvE_E9_M_invokeERKSt9_Any_data(%rip), %rax
	movq	%rbp, %rsi
	movq	%rax, %xmm3
	punpcklqdq	%xmm3, %xmm0
	movaps	%xmm0, 32(%rsp)
.LEHB10:
	call	*%r13
.LEHE10:
	movq	32(%rsp), %rax
	testq	%rax, %rax
	je	.L302
	movl	$3, %edx
	movq	%rbp, %rsi
	movq	%rbp, %rdi
	call	*%rax
.L302:
	testq	%rbx, %rbx
	je	.L297
	movq	8(%rbx), %rdx
	leaq	8(%rbx), %rcx
	movabsq	$4294967297, %rax
	cmpq	%rax, %rdx
	je	.L331
	movq	__libc_single_threaded@GOTPCREL(%rip), %rax
	cmpb	$0, (%rax)
	je	.L306
	movl	8(%rbx), %eax
	leal	-1(%rax), %edx
	movl	%edx, 8(%rbx)
.L307:
	cmpl	$1, %eax
	je	.L332
.L297:
	addq	$56, %rsp
	.cfi_remember_state
	.cfi_def_cfa_offset 40
	popq	%rbx
	.cfi_def_cfa_offset 32
	popq	%rbp
	.cfi_def_cfa_offset 24
	popq	%r12
	.cfi_def_cfa_offset 16
	popq	%r13
	.cfi_def_cfa_offset 8
	ret
	.p2align 4,,10
	.p2align 3
.L299:
	.cfi_restore_state
	lock addl	$1, 8(%rbx)
	jmp	.L298
	.p2align 4,,10
	.p2align 3
.L301:
	lock addl	$1, 8(%rbx)
	jmp	.L300
	.p2align 4,,10
	.p2align 3
.L331:
	movq	(%rbx), %rax
	movq	%rbx, %rdi
	movq	$0, 8(%rbx)
	call	*16(%rax)
	movq	(%rbx), %rax
	movq	%rbx, %rdi
	movq	24(%rax), %rax
	addq	$56, %rsp
	.cfi_remember_state
	.cfi_def_cfa_offset 40
	popq	%rbx
	.cfi_def_cfa_offset 32
	popq	%rbp
	.cfi_def_cfa_offset 24
	popq	%r12
	.cfi_def_cfa_offset 16
	popq	%r13
	.cfi_def_cfa_offset 8
.LEHB11:
	jmp	*%rax
	.p2align 4,,10
	.p2align 3
.L306:
	.cfi_restore_state
	movl	$-1, %eax
	lock xaddl	%eax, (%rcx)
	jmp	.L307
	.p2align 4,,10
	.p2align 3
.L332:
	addq	$56, %rsp
	.cfi_remember_state
	.cfi_def_cfa_offset 40
	movq	%rbx, %rdi
	popq	%rbx
	.cfi_def_cfa_offset 32
	popq	%rbp
	.cfi_def_cfa_offset 24
	popq	%r12
	.cfi_def_cfa_offset 16
	popq	%r13
	.cfi_def_cfa_offset 8
	jmp	_ZNSt16_Sp_counted_baseILN9__gnu_cxx12_Lock_policyE2EE24_M_release_last_use_coldEv@PLT
.LEHE11:
.L314:
	.cfi_restore_state
	movq	%rax, %r12
	jmp	.L309
.L313:
	movq	%rax, %r12
	jmp	.L311
	.section	.gcc_except_table
.LLSDA2383:
	.byte	0xff
	.byte	0xff
	.byte	0x1
	.uleb128 .LLSDACSE2383-.LLSDACSB2383
.LLSDACSB2383:
	.uleb128 .LEHB9-.LFB2383
	.uleb128 .LEHE9-.LEHB9
	.uleb128 .L313-.LFB2383
	.uleb128 0
	.uleb128 .LEHB10-.LFB2383
	.uleb128 .LEHE10-.LEHB10
	.uleb128 .L314-.LFB2383
	.uleb128 0
	.uleb128 .LEHB11-.LFB2383
	.uleb128 .LEHE11-.LEHB11
	.uleb128 0
	.uleb128 0
.LLSDACSE2383:
	.text
	.cfi_endproc
	.section	.text.unlikely
	.cfi_startproc
	.cfi_personality 0x9b,DW.ref.__gxx_personality_v0
	.cfi_lsda 0x1b,.LLSDAC2383
	.type	_ZN8opendnp311LinkContext21CompleteSendOperationEb.cold, @function
_ZN8opendnp311LinkContext21CompleteSendOperationEb.cold:
.LFSB2383:
.L309:
	.cfi_def_cfa_offset 96
	.cfi_offset 3, -40
	.cfi_offset 6, -32
	.cfi_offset 12, -24
	.cfi_offset 13, -16
	movq	32(%rsp), %rax
	testq	%rax, %rax
	je	.L311
	movl	$3, %edx
	movq	%rbp, %rsi
	movq	%rbp, %rdi
	call	*%rax
.L311:
	testq	%rbx, %rbx
	je	.L312
	movq	%rbx, %rdi
	call	_ZNSt16_Sp_counted_baseILN9__gnu_cxx12_Lock_policyE2EE10_M_releaseEv@PLT
.L312:
	movq	%r12, %rdi
.LEHB12:
	call	_Unwind_Resume@PLT
.LEHE12:
	.cfi_endproc
.LFE2383:
	.section	.gcc_except_table
.LLSDAC2383:
	.byte	0xff
	.byte	0xff
	.byte	0x1
	.uleb128 .LLSDACSEC2383-.LLSDACSBC2383
.LLSDACSBC2383:
	.uleb128 .LEHB12-.LCOLDB23
	.uleb128 .LEHE12-.LEHB12
	.uleb128 0
	.uleb128 0
.LLSDACSEC2383:
	.section	.text.unlikely
	.text
	.size	_ZN8opendnp311LinkContext21CompleteSendOperationEb, .-_ZN8opendnp311LinkContext21CompleteSendOperationEb
	.section	.text.unlikely
	.size	_ZN8opendnp311LinkContext21CompleteSendOperationEb.cold, .-_ZN8opendnp311LinkContext21CompleteSendOperationEb.cold
.LCOLDE23:
	.text
.LHOTE23:
	.p2align 4
	.type	_ZNSt17_Function_handlerIFvvEZN8opendnp311LinkContext21CompleteSendOperationEbEUlvE_E10_M_managerERSt9_Any_dataRKS5_St18_Manager_operation, @function
_ZNSt17_Function_handlerIFvvEZN8opendnp311LinkContext21CompleteSendOperationEbEUlvE_E10_M_managerERSt9_Any_dataRKS5_St18_Manager_operation:
.LFB2928:
	.cfi_startproc
	testl	%edx, %edx
	je	.L334
	cmpl	$1, %edx
	je	.L335
	subq	$24, %rsp
	.cfi_def_cfa_offset 32
	cmpl	$2, %edx
	je	.L338
	cmpl	$3, %edx
	je	.L339
.L337:
	xorl	%eax, %eax
	addq	$24, %rsp
	.cfi_def_cfa_offset 8
	ret
	.p2align 4,,10
	.p2align 3
.L335:
	movq	(%rsi), %rax
	movq	%rax, (%rdi)
	xorl	%eax, %eax
	ret
	.p2align 4,,10
	.p2align 3
.L334:
	leaq	_ZTIZN8opendnp311LinkContext21CompleteSendOperationEbEUlvE_(%rip), %rax
	movq	%rax, (%rdi)
	xorl	%eax, %eax
	ret
	.p2align 4,,10
	.p2align 3
.L339:
	.cfi_def_cfa_offset 32
	movq	(%rdi), %rax
	testq	%rax, %rax
	je	.L337
	movq	8(%rax), %rdi
	testq	%rdi, %rdi
	je	.L343
	movq	8(%rdi), %rcx
	leaq	8(%rdi), %rsi
	movabsq	$4294967297, %rdx
	cmpq	%rdx, %rcx
	je	.L359
	movq	__libc_single_threaded@GOTPCREL(%rip), %rdx
	cmpb	$0, (%rdx)
	je	.L345
	movl	8(%rdi), %edx
	leal	-1(%rdx), %ecx
	movl	%ecx, 8(%rdi)
.L346:
	cmpl	$1, %edx
	je	.L360
.L343:
	movl	$24, %esi
	movq	%rax, %rdi
	call	_ZdlPvm@PLT
	jmp	.L337
	.p2align 4,,10
	.p2align 3
.L338:
	movq	(%rsi), %rsi
	movq	%rdi, 8(%rsp)
	movl	$24, %edi
	movq	%rsi, (%rsp)
	call	_Znwm@PLT
	movq	(%rsp), %rsi
	movq	8(%rsp), %rcx
	movdqu	(%rsi), %xmm0
	movhlps	%xmm0, %xmm1
	movups	%xmm0, (%rax)
	movq	%xmm1, %rdx
	testq	%rdx, %rdx
	je	.L340
	movq	__libc_single_threaded@GOTPCREL(%rip), %rdi
	cmpb	$0, (%rdi)
	je	.L341
	addl	$1, 8(%rdx)
.L340:
	movzbl	16(%rsi), %edx
	movq	%rax, (%rcx)
	movb	%dl, 16(%rax)
	jmp	.L337
	.p2align 4,,10
	.p2align 3
.L341:
	lock addl	$1, 8(%rdx)
	jmp	.L340
.L345:
	movl	$-1, %edx
	lock xaddl	%edx, (%rsi)
	jmp	.L346
.L359:
	movq	(%rdi), %rdx
	movq	%rax, 8(%rsp)
	movq	$0, 8(%rdi)
	movq	%rdi, (%rsp)
	call	*16(%rdx)
	movq	(%rsp), %rdi
	movq	(%rdi), %rdx
	call	*24(%rdx)
	movq	8(%rsp), %rax
	jmp	.L343
.L360:
	movq	%rax, (%rsp)
	call	_ZNSt16_Sp_counted_baseILN9__gnu_cxx12_Lock_policyE2EE24_M_release_last_use_coldEv@PLT
	movq	(%rsp), %rax
	jmp	.L343
	.cfi_endproc
.LFE2928:
	.size	_ZNSt17_Function_handlerIFvvEZN8opendnp311LinkContext21CompleteSendOperationEbEUlvE_E10_M_managerERSt9_Any_dataRKS5_St18_Manager_operation, .-_ZNSt17_Function_handlerIFvvEZN8opendnp311LinkContext21CompleteSendOperationEbEUlvE_E10_M_managerERSt9_Any_dataRKS5_St18_Manager_operation
	.weak	_ZTSN7openpal12StaticBufferILj292EEE
	.section	.rodata._ZTSN7openpal12StaticBufferILj292EEE,"aG",@progbits,_ZTSN7openpal12StaticBufferILj292EEE,comdat
	.align 32
	.type	_ZTSN7openpal12StaticBufferILj292EEE, @object
	.size	_ZTSN7openpal12StaticBufferILj292EEE, 33
_ZTSN7openpal12StaticBufferILj292EEE:
	.string	"N7openpal12StaticBufferILj292EEE"
	.weak	_ZTIN7openpal12StaticBufferILj292EEE
	.section	.data.rel.ro._ZTIN7openpal12StaticBufferILj292EEE,"awG",@progbits,_ZTIN7openpal12StaticBufferILj292EEE,comdat
	.align 8
	.type	_ZTIN7openpal12StaticBufferILj292EEE, @object
	.size	_ZTIN7openpal12StaticBufferILj292EEE, 16
_ZTIN7openpal12StaticBufferILj292EEE:
	.quad	_ZTVN10__cxxabiv117__class_type_infoE+16
	.quad	_ZTSN7openpal12StaticBufferILj292EEE
	.weak	_ZTSN7openpal12StaticBufferILj10EEE
	.section	.rodata._ZTSN7openpal12StaticBufferILj10EEE,"aG",@progbits,_ZTSN7openpal12StaticBufferILj10EEE,comdat
	.align 32
	.type	_ZTSN7openpal12StaticBufferILj10EEE, @object
	.size	_ZTSN7openpal12StaticBufferILj10EEE, 32
_ZTSN7openpal12StaticBufferILj10EEE:
	.string	"N7openpal12StaticBufferILj10EEE"
	.weak	_ZTIN7openpal12StaticBufferILj10EEE
	.section	.data.rel.ro._ZTIN7openpal12StaticBufferILj10EEE,"awG",@progbits,_ZTIN7openpal12StaticBufferILj10EEE,comdat
	.align 8
	.type	_ZTIN7openpal12StaticBufferILj10EEE, @object
	.size	_ZTIN7openpal12StaticBufferILj10EEE, 16
_ZTIN7openpal12StaticBufferILj10EEE:
	.quad	_ZTVN10__cxxabiv117__class_type_infoE+16
	.quad	_ZTSN7openpal12StaticBufferILj10EEE
	.section	.data.rel.ro,"aw"
	.align 8
	.type	_ZTIZN8opendnp311LinkContext21CompleteSendOperationEbEUlvE_, @object
	.size	_ZTIZN8opendnp311LinkContext21CompleteSendOperationEbEUlvE_, 16
_ZTIZN8opendnp311LinkContext21CompleteSendOperationEbEUlvE_:
	.quad	_ZTVN10__cxxabiv117__class_type_infoE+16
	.quad	_ZTSZN8opendnp311LinkContext21CompleteSendOperationEbEUlvE_
	.section	.rodata
	.align 32
	.type	_ZTSZN8opendnp311LinkContext21CompleteSendOperationEbEUlvE_, @object
	.size	_ZTSZN8opendnp311LinkContext21CompleteSendOperationEbEUlvE_, 57
_ZTSZN8opendnp311LinkContext21CompleteSendOperationEbEUlvE_:
	.string	"*ZN8opendnp311LinkContext21CompleteSendOperationEbEUlvE_"
	.section	.data.rel.ro
	.align 8
	.type	_ZTIZN7openpal8TimerRef5StartIZN8opendnp311LinkContext18StartResponseTimerEvEUlvE_EEbRKNS_12TimeDurationERKT_EUlvE_, @object
	.size	_ZTIZN7openpal8TimerRef5StartIZN8opendnp311LinkContext18StartResponseTimerEvEUlvE_EEbRKNS_12TimeDurationERKT_EUlvE_, 16
_ZTIZN7openpal8TimerRef5StartIZN8opendnp311LinkContext18StartResponseTimerEvEUlvE_EEbRKNS_12TimeDurationERKT_EUlvE_:
	.quad	_ZTVN10__cxxabiv117__class_type_infoE+16
	.quad	_ZTSZN7openpal8TimerRef5StartIZN8opendnp311LinkContext18StartResponseTimerEvEUlvE_EEbRKNS_12TimeDurationERKT_EUlvE_
	.section	.rodata
	.align 32
	.type	_ZTSZN7openpal8TimerRef5StartIZN8opendnp311LinkContext18StartResponseTimerEvEUlvE_EEbRKNS_12TimeDurationERKT_EUlvE_, @object
	.size	_ZTSZN7openpal8TimerRef5StartIZN8opendnp311LinkContext18StartResponseTimerEvEUlvE_EEbRKNS_12TimeDurationERKT_EUlvE_, 113
_ZTSZN7openpal8TimerRef5StartIZN8opendnp311LinkContext18StartResponseTimerEvEUlvE_EEbRKNS_12TimeDurationERKT_EUlvE_:
	.string	"*ZN7openpal8TimerRef5StartIZN8opendnp311LinkContext18StartResponseTimerEvEUlvE_EEbRKNS_12TimeDurationERKT_EUlvE_"
	.section	.data.rel.ro
	.align 8
	.type	_ZTIZN7openpal8TimerRef5StartIZN8opendnp311LinkContext19StartKeepAliveTimerERKNS_18MonotonicTimestampEEUlvE_EEbS6_RKT_EUlvE_, @object
	.size	_ZTIZN7openpal8TimerRef5StartIZN8opendnp311LinkContext19StartKeepAliveTimerERKNS_18MonotonicTimestampEEUlvE_EEbS6_RKT_EUlvE_, 16
_ZTIZN7openpal8TimerRef5StartIZN8opendnp311LinkContext19StartKeepAliveTimerERKNS_18MonotonicTimestampEEUlvE_EEbS6_RKT_EUlvE_:
	.quad	_ZTVN10__cxxabiv117__class_type_infoE+16
	.quad	_ZTSZN7openpal8TimerRef5StartIZN8opendnp311LinkContext19StartKeepAliveTimerERKNS_18MonotonicTimestampEEUlvE_EEbS6_RKT_EUlvE_
	.section	.rodata
	.align 32
	.type	_ZTSZN7openpal8TimerRef5StartIZN8opendnp311LinkContext19StartKeepAliveTimerERKNS_18MonotonicTimestampEEUlvE_EEbS6_RKT_EUlvE_, @object
	.size	_ZTSZN7openpal8TimerRef5StartIZN8opendnp311LinkContext19StartKeepAliveTimerERKNS_18MonotonicTimestampEEUlvE_EEbS6_RKT_EUlvE_, 122
_ZTSZN7openpal8TimerRef5StartIZN8opendnp311LinkContext19StartKeepAliveTimerERKNS_18MonotonicTimestampEEUlvE_EEbS6_RKT_EUlvE_:
	.string	"*ZN7openpal8TimerRef5StartIZN8opendnp311LinkContext19StartKeepAliveTimerERKNS_18MonotonicTimestampEEUlvE_EEbS6_RKT_EUlvE_"
	.weak	_ZTVN7openpal12StaticBufferILj292EEE
	.section	.data.rel.ro._ZTVN7openpal12StaticBufferILj292EEE,"awG",@progbits,_ZTVN7openpal12StaticBufferILj292EEE,comdat
	.align 8
	.type	_ZTVN7openpal12StaticBufferILj292EEE, @object
	.size	_ZTVN7openpal12StaticBufferILj292EEE, 32
_ZTVN7openpal12StaticBufferILj292EEE:
	.quad	0
	.quad	_ZTIN7openpal12StaticBufferILj292EEE
	.quad	_ZN7openpal12StaticBufferILj292EED1Ev
	.quad	_ZN7openpal12StaticBufferILj292EED0Ev
	.weak	_ZTVN7openpal12StaticBufferILj10EEE
	.section	.data.rel.ro._ZTVN7openpal12StaticBufferILj10EEE,"awG",@progbits,_ZTVN7openpal12StaticBufferILj10EEE,comdat
	.align 8
	.type	_ZTVN7openpal12StaticBufferILj10EEE, @object
	.size	_ZTVN7openpal12StaticBufferILj10EEE, 32
_ZTVN7openpal12StaticBufferILj10EEE:
	.quad	0
	.quad	_ZTIN7openpal12StaticBufferILj10EEE
	.quad	_ZN7openpal12StaticBufferILj10EED1Ev
	.quad	_ZN7openpal12StaticBufferILj10EED0Ev
	.section	.data.rel.ro.local,"aw"
	.align 8
.LC5:
	.quad	_ZNSt17_Function_handlerIFvvEZN7openpal8TimerRef5StartIZN8opendnp311LinkContext18StartResponseTimerEvEUlvE_EEbRKNS1_12TimeDurationERKT_EUlvE_E10_M_managerERSt9_Any_dataRKSF_St18_Manager_operation
	.align 8
.LC7:
	.quad	_ZNSt17_Function_handlerIFvvEZN7openpal8TimerRef5StartIZN8opendnp311LinkContext19StartKeepAliveTimerERKNS1_18MonotonicTimestampEEUlvE_EEbS8_RKT_EUlvE_E10_M_managerERSt9_Any_dataRKSF_St18_Manager_operation
	.align 8
.LC22:
	.quad	_ZNSt17_Function_handlerIFvvEZN8opendnp311LinkContext21CompleteSendOperationEbEUlvE_E10_M_managerERSt9_Any_dataRKS5_St18_Manager_operation
	.hidden	DW.ref.__gxx_personality_v0
	.weak	DW.ref.__gxx_personality_v0
	.section	.data.rel.local.DW.ref.__gxx_personality_v0,"awG",@progbits,DW.ref.__gxx_personality_v0,comdat
	.align 8
	.type	DW.ref.__gxx_personality_v0, @object
	.size	DW.ref.__gxx_personality_v0, 8
DW.ref.__gxx_personality_v0:
	.quad	__gxx_personality_v0
	.globl	__gxx_personality_v0
	.ident	"GCC: (Debian 15.2.0-4) 15.2.0"
	.section	.note.GNU-stack,"",@progbits
