	.file	"PriLinkLayerStates.cpp"
	.text
	.section	.rodata._ZNK8opendnp39PLLS_Idle4NameEv.str1.1,"aMS",@progbits,1
.LC0:
	.string	"PLLS_Idle"
	.section	.text._ZNK8opendnp39PLLS_Idle4NameEv,"axG",@progbits,_ZNK8opendnp39PLLS_Idle4NameEv,comdat
	.align 2
	.p2align 4
	.weak	_ZNK8opendnp39PLLS_Idle4NameEv
	.type	_ZNK8opendnp39PLLS_Idle4NameEv, @function
_ZNK8opendnp39PLLS_Idle4NameEv:
.LFB7:
	.cfi_startproc
	leaq	.LC0(%rip), %rax
	ret
	.cfi_endproc
.LFE7:
	.size	_ZNK8opendnp39PLLS_Idle4NameEv, .-_ZNK8opendnp39PLLS_Idle4NameEv
	.section	.rodata._ZNK8opendnp332PLLS_SendUnconfirmedTransmitWait4NameEv.str1.8,"aMS",@progbits,1
	.align 8
.LC1:
	.string	"PLLS_SendUnconfirmedTransmitWait"
	.section	.text._ZNK8opendnp332PLLS_SendUnconfirmedTransmitWait4NameEv,"axG",@progbits,_ZNK8opendnp332PLLS_SendUnconfirmedTransmitWait4NameEv,comdat
	.align 2
	.p2align 4
	.weak	_ZNK8opendnp332PLLS_SendUnconfirmedTransmitWait4NameEv
	.type	_ZNK8opendnp332PLLS_SendUnconfirmedTransmitWait4NameEv, @function
_ZNK8opendnp332PLLS_SendUnconfirmedTransmitWait4NameEv:
.LFB12:
	.cfi_startproc
	leaq	.LC1(%rip), %rax
	ret
	.cfi_endproc
.LFE12:
	.size	_ZNK8opendnp332PLLS_SendUnconfirmedTransmitWait4NameEv, .-_ZNK8opendnp332PLLS_SendUnconfirmedTransmitWait4NameEv
	.section	.rodata._ZNK8opendnp326PLLS_LinkResetTransmitWait4NameEv.str1.1,"aMS",@progbits,1
.LC2:
	.string	"PLLS_LinkResetTransmitWait"
	.section	.text._ZNK8opendnp326PLLS_LinkResetTransmitWait4NameEv,"axG",@progbits,_ZNK8opendnp326PLLS_LinkResetTransmitWait4NameEv,comdat
	.align 2
	.p2align 4
	.weak	_ZNK8opendnp326PLLS_LinkResetTransmitWait4NameEv
	.type	_ZNK8opendnp326PLLS_LinkResetTransmitWait4NameEv, @function
_ZNK8opendnp326PLLS_LinkResetTransmitWait4NameEv:
.LFB17:
	.cfi_startproc
	leaq	.LC2(%rip), %rax
	ret
	.cfi_endproc
.LFE17:
	.size	_ZNK8opendnp326PLLS_LinkResetTransmitWait4NameEv, .-_ZNK8opendnp326PLLS_LinkResetTransmitWait4NameEv
	.section	.rodata._ZNK8opendnp329PLLS_ConfUserDataTransmitWait4NameEv.str1.1,"aMS",@progbits,1
.LC3:
	.string	"PLLS_ConfUserDataTransmitWait"
	.section	.text._ZNK8opendnp329PLLS_ConfUserDataTransmitWait4NameEv,"axG",@progbits,_ZNK8opendnp329PLLS_ConfUserDataTransmitWait4NameEv,comdat
	.align 2
	.p2align 4
	.weak	_ZNK8opendnp329PLLS_ConfUserDataTransmitWait4NameEv
	.type	_ZNK8opendnp329PLLS_ConfUserDataTransmitWait4NameEv, @function
_ZNK8opendnp329PLLS_ConfUserDataTransmitWait4NameEv:
.LFB22:
	.cfi_startproc
	leaq	.LC3(%rip), %rax
	ret
	.cfi_endproc
.LFE22:
	.size	_ZNK8opendnp329PLLS_ConfUserDataTransmitWait4NameEv, .-_ZNK8opendnp329PLLS_ConfUserDataTransmitWait4NameEv
	.section	.rodata._ZNK8opendnp334PLLS_RequestLinkStatusTransmitWait4NameEv.str1.8,"aMS",@progbits,1
	.align 8
.LC4:
	.string	"PLLS_RequestLinkStatusTransmitWait"
	.section	.text._ZNK8opendnp334PLLS_RequestLinkStatusTransmitWait4NameEv,"axG",@progbits,_ZNK8opendnp334PLLS_RequestLinkStatusTransmitWait4NameEv,comdat
	.align 2
	.p2align 4
	.weak	_ZNK8opendnp334PLLS_RequestLinkStatusTransmitWait4NameEv
	.type	_ZNK8opendnp334PLLS_RequestLinkStatusTransmitWait4NameEv, @function
_ZNK8opendnp334PLLS_RequestLinkStatusTransmitWait4NameEv:
.LFB27:
	.cfi_startproc
	leaq	.LC4(%rip), %rax
	ret
	.cfi_endproc
.LFE27:
	.size	_ZNK8opendnp334PLLS_RequestLinkStatusTransmitWait4NameEv, .-_ZNK8opendnp334PLLS_RequestLinkStatusTransmitWait4NameEv
	.section	.rodata._ZNK8opendnp318PLLS_ResetLinkWait4NameEv.str1.1,"aMS",@progbits,1
.LC5:
	.string	"PLLS_ResetLinkWait"
	.section	.text._ZNK8opendnp318PLLS_ResetLinkWait4NameEv,"axG",@progbits,_ZNK8opendnp318PLLS_ResetLinkWait4NameEv,comdat
	.align 2
	.p2align 4
	.weak	_ZNK8opendnp318PLLS_ResetLinkWait4NameEv
	.type	_ZNK8opendnp318PLLS_ResetLinkWait4NameEv, @function
_ZNK8opendnp318PLLS_ResetLinkWait4NameEv:
.LFB32:
	.cfi_startproc
	leaq	.LC5(%rip), %rax
	ret
	.cfi_endproc
.LFE32:
	.size	_ZNK8opendnp318PLLS_ResetLinkWait4NameEv, .-_ZNK8opendnp318PLLS_ResetLinkWait4NameEv
	.section	.rodata._ZNK8opendnp317PLLS_ConfDataWait4NameEv.str1.1,"aMS",@progbits,1
.LC6:
	.string	"PLLS_ConfDataWait"
	.section	.text._ZNK8opendnp317PLLS_ConfDataWait4NameEv,"axG",@progbits,_ZNK8opendnp317PLLS_ConfDataWait4NameEv,comdat
	.align 2
	.p2align 4
	.weak	_ZNK8opendnp317PLLS_ConfDataWait4NameEv
	.type	_ZNK8opendnp317PLLS_ConfDataWait4NameEv, @function
_ZNK8opendnp317PLLS_ConfDataWait4NameEv:
.LFB40:
	.cfi_startproc
	leaq	.LC6(%rip), %rax
	ret
	.cfi_endproc
.LFE40:
	.size	_ZNK8opendnp317PLLS_ConfDataWait4NameEv, .-_ZNK8opendnp317PLLS_ConfDataWait4NameEv
	.section	.rodata._ZNK8opendnp326PLLS_RequestLinkStatusWait4NameEv.str1.1,"aMS",@progbits,1
.LC7:
	.string	"PLLS_RequestLinkStatusWait"
	.section	.text._ZNK8opendnp326PLLS_RequestLinkStatusWait4NameEv,"axG",@progbits,_ZNK8opendnp326PLLS_RequestLinkStatusWait4NameEv,comdat
	.align 2
	.p2align 4
	.weak	_ZNK8opendnp326PLLS_RequestLinkStatusWait4NameEv
	.type	_ZNK8opendnp326PLLS_RequestLinkStatusWait4NameEv, @function
_ZNK8opendnp326PLLS_RequestLinkStatusWait4NameEv:
.LFB47:
	.cfi_startproc
	leaq	.LC7(%rip), %rax
	ret
	.cfi_endproc
.LFE47:
	.size	_ZNK8opendnp326PLLS_RequestLinkStatusWait4NameEv, .-_ZNK8opendnp326PLLS_RequestLinkStatusWait4NameEv
	.section	.text._ZN8opendnp313ILinkListener13OnStateChangeENS_10LinkStatusE,"axG",@progbits,_ZN8opendnp313ILinkListener13OnStateChangeENS_10LinkStatusE,comdat
	.align 2
	.p2align 4
	.weak	_ZN8opendnp313ILinkListener13OnStateChangeENS_10LinkStatusE
	.type	_ZN8opendnp313ILinkListener13OnStateChangeENS_10LinkStatusE, @function
_ZN8opendnp313ILinkListener13OnStateChangeENS_10LinkStatusE:
.LFB2277:
	.cfi_startproc
	ret
	.cfi_endproc
.LFE2277:
	.size	_ZN8opendnp313ILinkListener13OnStateChangeENS_10LinkStatusE, .-_ZN8opendnp313ILinkListener13OnStateChangeENS_10LinkStatusE
	.section	.text._ZN8opendnp313ILinkListener20OnKeepAliveInitiatedEv,"axG",@progbits,_ZN8opendnp313ILinkListener20OnKeepAliveInitiatedEv,comdat
	.align 2
	.p2align 4
	.weak	_ZN8opendnp313ILinkListener20OnKeepAliveInitiatedEv
	.type	_ZN8opendnp313ILinkListener20OnKeepAliveInitiatedEv, @function
_ZN8opendnp313ILinkListener20OnKeepAliveInitiatedEv:
.LFB2278:
	.cfi_startproc
	ret
	.cfi_endproc
.LFE2278:
	.size	_ZN8opendnp313ILinkListener20OnKeepAliveInitiatedEv, .-_ZN8opendnp313ILinkListener20OnKeepAliveInitiatedEv
	.text
	.align 2
	.p2align 4
	.globl	_ZN8opendnp312PriStateBase16TrySendConfirmedERNS_11LinkContextERNS_17ITransportSegmentE
	.type	_ZN8opendnp312PriStateBase16TrySendConfirmedERNS_11LinkContextERNS_17ITransportSegmentE, @function
_ZN8opendnp312PriStateBase16TrySendConfirmedERNS_11LinkContextERNS_17ITransportSegmentE:
.LFB2301:
	.cfi_startproc
	movq	%rdi, %rax
	ret
	.cfi_endproc
.LFE2301:
	.size	_ZN8opendnp312PriStateBase16TrySendConfirmedERNS_11LinkContextERNS_17ITransportSegmentE, .-_ZN8opendnp312PriStateBase16TrySendConfirmedERNS_11LinkContextERNS_17ITransportSegmentE
	.globl	_ZN8opendnp312PriStateBase18TrySendUnconfirmedERNS_11LinkContextERNS_17ITransportSegmentE
	.set	_ZN8opendnp312PriStateBase18TrySendUnconfirmedERNS_11LinkContextERNS_17ITransportSegmentE,_ZN8opendnp312PriStateBase16TrySendConfirmedERNS_11LinkContextERNS_17ITransportSegmentE
	.align 2
	.p2align 4
	.globl	_ZN8opendnp312PriStateBase24TrySendRequestLinkStatusERNS_11LinkContextE
	.type	_ZN8opendnp312PriStateBase24TrySendRequestLinkStatusERNS_11LinkContextE, @function
_ZN8opendnp312PriStateBase24TrySendRequestLinkStatusERNS_11LinkContextE:
.LFB2303:
	.cfi_startproc
	movq	%rdi, %rax
	ret
	.cfi_endproc
.LFE2303:
	.size	_ZN8opendnp312PriStateBase24TrySendRequestLinkStatusERNS_11LinkContextE, .-_ZN8opendnp312PriStateBase24TrySendRequestLinkStatusERNS_11LinkContextE
	.section	.rodata.str1.1,"aMS",@progbits,1
.LC8:
	.string	"Frame context not understood"
	.section	.rodata.str1.8,"aMS",@progbits,1
	.align 8
.LC9:
	.string	"/opt/PLC/OpenPLC_v3/utils/dnp3_src/cpp/libs/src/opendnp3/link/PriLinkLayerStates.cpp(40)"
	.text
	.align 2
	.p2align 4
	.globl	_ZN8opendnp312PriStateBase5OnAckERNS_11LinkContextEb
	.type	_ZN8opendnp312PriStateBase5OnAckERNS_11LinkContextEb, @function
_ZN8opendnp312PriStateBase5OnAckERNS_11LinkContextEb:
.LFB2295:
	.cfi_startproc
	pushq	%r12
	.cfi_def_cfa_offset 16
	.cfi_offset 12, -16
	movq	%rdi, %r12
	pushq	%rbp
	.cfi_def_cfa_offset 24
	.cfi_offset 6, -24
	pushq	%rbx
	.cfi_def_cfa_offset 32
	.cfi_offset 3, -32
	leaq	376(%rsi), %rbx
	movq	%rbx, %rdi
	subq	$16, %rsp
	.cfi_def_cfa_offset 48
	addl	$1, 520(%rsi)
	leaq	12(%rsp), %rbp
	movl	$4, 12(%rsp)
	movq	%rbp, %rsi
	call	_ZNK7openpal6Logger9IsEnabledERKNS_10LogFiltersE@PLT
	testb	%al, %al
	jne	.L20
	addq	$16, %rsp
	.cfi_remember_state
	.cfi_def_cfa_offset 32
	movq	%r12, %rax
	popq	%rbx
	.cfi_def_cfa_offset 24
	popq	%rbp
	.cfi_def_cfa_offset 16
	popq	%r12
	.cfi_def_cfa_offset 8
	ret
	.p2align 4,,10
	.p2align 3
.L20:
	.cfi_restore_state
	movq	%rbp, %rsi
	movq	%rbx, %rdi
	leaq	.LC8(%rip), %rcx
	movl	$4, 12(%rsp)
	leaq	.LC9(%rip), %rdx
	call	_ZN7openpal6Logger3LogERKNS_10LogFiltersEPKcS5_@PLT
	addq	$16, %rsp
	.cfi_def_cfa_offset 32
	movq	%r12, %rax
	popq	%rbx
	.cfi_def_cfa_offset 24
	popq	%rbp
	.cfi_def_cfa_offset 16
	popq	%r12
	.cfi_def_cfa_offset 8
	ret
	.cfi_endproc
.LFE2295:
	.size	_ZN8opendnp312PriStateBase5OnAckERNS_11LinkContextEb, .-_ZN8opendnp312PriStateBase5OnAckERNS_11LinkContextEb
	.section	.rodata.str1.8
	.align 8
.LC10:
	.string	"/opt/PLC/OpenPLC_v3/utils/dnp3_src/cpp/libs/src/opendnp3/link/PriLinkLayerStates.cpp(47)"
	.text
	.align 2
	.p2align 4
	.globl	_ZN8opendnp312PriStateBase6OnNackERNS_11LinkContextEb
	.type	_ZN8opendnp312PriStateBase6OnNackERNS_11LinkContextEb, @function
_ZN8opendnp312PriStateBase6OnNackERNS_11LinkContextEb:
.LFB2296:
	.cfi_startproc
	pushq	%r12
	.cfi_def_cfa_offset 16
	.cfi_offset 12, -16
	movq	%rdi, %r12
	pushq	%rbp
	.cfi_def_cfa_offset 24
	.cfi_offset 6, -24
	pushq	%rbx
	.cfi_def_cfa_offset 32
	.cfi_offset 3, -32
	leaq	376(%rsi), %rbx
	movq	%rbx, %rdi
	subq	$16, %rsp
	.cfi_def_cfa_offset 48
	addl	$1, 520(%rsi)
	leaq	12(%rsp), %rbp
	movl	$4, 12(%rsp)
	movq	%rbp, %rsi
	call	_ZNK7openpal6Logger9IsEnabledERKNS_10LogFiltersE@PLT
	testb	%al, %al
	jne	.L27
	addq	$16, %rsp
	.cfi_remember_state
	.cfi_def_cfa_offset 32
	movq	%r12, %rax
	popq	%rbx
	.cfi_def_cfa_offset 24
	popq	%rbp
	.cfi_def_cfa_offset 16
	popq	%r12
	.cfi_def_cfa_offset 8
	ret
	.p2align 4,,10
	.p2align 3
.L27:
	.cfi_restore_state
	movq	%rbp, %rsi
	movq	%rbx, %rdi
	leaq	.LC8(%rip), %rcx
	movl	$4, 12(%rsp)
	leaq	.LC10(%rip), %rdx
	call	_ZN7openpal6Logger3LogERKNS_10LogFiltersEPKcS5_@PLT
	addq	$16, %rsp
	.cfi_def_cfa_offset 32
	movq	%r12, %rax
	popq	%rbx
	.cfi_def_cfa_offset 24
	popq	%rbp
	.cfi_def_cfa_offset 16
	popq	%r12
	.cfi_def_cfa_offset 8
	ret
	.cfi_endproc
.LFE2296:
	.size	_ZN8opendnp312PriStateBase6OnNackERNS_11LinkContextEb, .-_ZN8opendnp312PriStateBase6OnNackERNS_11LinkContextEb
	.section	.rodata.str1.8
	.align 8
.LC11:
	.string	"/opt/PLC/OpenPLC_v3/utils/dnp3_src/cpp/libs/src/opendnp3/link/PriLinkLayerStates.cpp(54)"
	.text
	.align 2
	.p2align 4
	.globl	_ZN8opendnp312PriStateBase12OnLinkStatusERNS_11LinkContextEb
	.type	_ZN8opendnp312PriStateBase12OnLinkStatusERNS_11LinkContextEb, @function
_ZN8opendnp312PriStateBase12OnLinkStatusERNS_11LinkContextEb:
.LFB2297:
	.cfi_startproc
	pushq	%r12
	.cfi_def_cfa_offset 16
	.cfi_offset 12, -16
	movq	%rdi, %r12
	pushq	%rbp
	.cfi_def_cfa_offset 24
	.cfi_offset 6, -24
	pushq	%rbx
	.cfi_def_cfa_offset 32
	.cfi_offset 3, -32
	leaq	376(%rsi), %rbx
	movq	%rbx, %rdi
	subq	$16, %rsp
	.cfi_def_cfa_offset 48
	addl	$1, 520(%rsi)
	leaq	12(%rsp), %rbp
	movl	$4, 12(%rsp)
	movq	%rbp, %rsi
	call	_ZNK7openpal6Logger9IsEnabledERKNS_10LogFiltersE@PLT
	testb	%al, %al
	jne	.L34
	addq	$16, %rsp
	.cfi_remember_state
	.cfi_def_cfa_offset 32
	movq	%r12, %rax
	popq	%rbx
	.cfi_def_cfa_offset 24
	popq	%rbp
	.cfi_def_cfa_offset 16
	popq	%r12
	.cfi_def_cfa_offset 8
	ret
	.p2align 4,,10
	.p2align 3
.L34:
	.cfi_restore_state
	movq	%rbp, %rsi
	movq	%rbx, %rdi
	leaq	.LC8(%rip), %rcx
	movl	$4, 12(%rsp)
	leaq	.LC11(%rip), %rdx
	call	_ZN7openpal6Logger3LogERKNS_10LogFiltersEPKcS5_@PLT
	addq	$16, %rsp
	.cfi_def_cfa_offset 32
	movq	%r12, %rax
	popq	%rbx
	.cfi_def_cfa_offset 24
	popq	%rbp
	.cfi_def_cfa_offset 16
	popq	%r12
	.cfi_def_cfa_offset 8
	ret
	.cfi_endproc
.LFE2297:
	.size	_ZN8opendnp312PriStateBase12OnLinkStatusERNS_11LinkContextEb, .-_ZN8opendnp312PriStateBase12OnLinkStatusERNS_11LinkContextEb
	.section	.rodata.str1.8
	.align 8
.LC12:
	.string	"/opt/PLC/OpenPLC_v3/utils/dnp3_src/cpp/libs/src/opendnp3/link/PriLinkLayerStates.cpp(61)"
	.text
	.align 2
	.p2align 4
	.globl	_ZN8opendnp312PriStateBase14OnNotSupportedERNS_11LinkContextEb
	.type	_ZN8opendnp312PriStateBase14OnNotSupportedERNS_11LinkContextEb, @function
_ZN8opendnp312PriStateBase14OnNotSupportedERNS_11LinkContextEb:
.LFB2298:
	.cfi_startproc
	pushq	%r12
	.cfi_def_cfa_offset 16
	.cfi_offset 12, -16
	movq	%rdi, %r12
	pushq	%rbp
	.cfi_def_cfa_offset 24
	.cfi_offset 6, -24
	pushq	%rbx
	.cfi_def_cfa_offset 32
	.cfi_offset 3, -32
	leaq	376(%rsi), %rbx
	movq	%rbx, %rdi
	subq	$16, %rsp
	.cfi_def_cfa_offset 48
	addl	$1, 520(%rsi)
	leaq	12(%rsp), %rbp
	movl	$4, 12(%rsp)
	movq	%rbp, %rsi
	call	_ZNK7openpal6Logger9IsEnabledERKNS_10LogFiltersE@PLT
	testb	%al, %al
	jne	.L41
	addq	$16, %rsp
	.cfi_remember_state
	.cfi_def_cfa_offset 32
	movq	%r12, %rax
	popq	%rbx
	.cfi_def_cfa_offset 24
	popq	%rbp
	.cfi_def_cfa_offset 16
	popq	%r12
	.cfi_def_cfa_offset 8
	ret
	.p2align 4,,10
	.p2align 3
.L41:
	.cfi_restore_state
	movq	%rbp, %rsi
	movq	%rbx, %rdi
	leaq	.LC8(%rip), %rcx
	movl	$4, 12(%rsp)
	leaq	.LC12(%rip), %rdx
	call	_ZN7openpal6Logger3LogERKNS_10LogFiltersEPKcS5_@PLT
	addq	$16, %rsp
	.cfi_def_cfa_offset 32
	movq	%r12, %rax
	popq	%rbx
	.cfi_def_cfa_offset 24
	popq	%rbp
	.cfi_def_cfa_offset 16
	popq	%r12
	.cfi_def_cfa_offset 8
	ret
	.cfi_endproc
.LFE2298:
	.size	_ZN8opendnp312PriStateBase14OnNotSupportedERNS_11LinkContextEb, .-_ZN8opendnp312PriStateBase14OnNotSupportedERNS_11LinkContextEb
	.section	.rodata.str1.1
.LC13:
	.string	"Invalid action for state: %s"
	.section	.rodata.str1.8
	.align 8
.LC14:
	.string	"/opt/PLC/OpenPLC_v3/utils/dnp3_src/cpp/libs/src/opendnp3/link/PriLinkLayerStates.cpp(67)"
	.text
	.align 2
	.p2align 4
	.globl	_ZN8opendnp312PriStateBase16OnTransmitResultERNS_11LinkContextEb
	.type	_ZN8opendnp312PriStateBase16OnTransmitResultERNS_11LinkContextEb, @function
_ZN8opendnp312PriStateBase16OnTransmitResultERNS_11LinkContextEb:
.LFB2299:
	.cfi_startproc
	pushq	%r12
	.cfi_def_cfa_offset 16
	.cfi_offset 12, -16
	pushq	%rbp
	.cfi_def_cfa_offset 24
	.cfi_offset 6, -24
	movq	%rdi, %rbp
	pushq	%rbx
	.cfi_def_cfa_offset 32
	.cfi_offset 3, -32
	leaq	376(%rsi), %rbx
	movq	%rbx, %rdi
	subq	$144, %rsp
	.cfi_def_cfa_offset 176
	leaq	16(%rsp), %rsi
	movl	$2, 16(%rsp)
	call	_ZNK7openpal6Logger9IsEnabledERKNS_10LogFiltersE@PLT
	testb	%al, %al
	je	.L43
	movq	0(%rbp), %rax
	movq	%rbp, %rdi
	call	*72(%rax)
	leaq	.LC13(%rip), %rdx
	movl	$120, %esi
	leaq	16(%rsp), %rdi
	movq	%rax, %rcx
	xorl	%eax, %eax
	call	snprintf@PLT
	leaq	12(%rsp), %rsi
	leaq	16(%rsp), %rcx
	movq	%rbx, %rdi
	leaq	.LC14(%rip), %rdx
	movl	$2, 12(%rsp)
	call	_ZN7openpal6Logger3LogERKNS_10LogFiltersEPKcS5_@PLT
.L43:
	addq	$144, %rsp
	.cfi_def_cfa_offset 32
	movq	%rbp, %rax
	popq	%rbx
	.cfi_def_cfa_offset 24
	popq	%rbp
	.cfi_def_cfa_offset 16
	popq	%r12
	.cfi_def_cfa_offset 8
	ret
	.cfi_endproc
.LFE2299:
	.size	_ZN8opendnp312PriStateBase16OnTransmitResultERNS_11LinkContextEb, .-_ZN8opendnp312PriStateBase16OnTransmitResultERNS_11LinkContextEb
	.section	.rodata.str1.8
	.align 8
.LC15:
	.string	"/opt/PLC/OpenPLC_v3/utils/dnp3_src/cpp/libs/src/opendnp3/link/PriLinkLayerStates.cpp(73)"
	.text
	.align 2
	.p2align 4
	.globl	_ZN8opendnp312PriStateBase9OnTimeoutERNS_11LinkContextE
	.type	_ZN8opendnp312PriStateBase9OnTimeoutERNS_11LinkContextE, @function
_ZN8opendnp312PriStateBase9OnTimeoutERNS_11LinkContextE:
.LFB2300:
	.cfi_startproc
	pushq	%r12
	.cfi_def_cfa_offset 16
	.cfi_offset 12, -16
	pushq	%rbp
	.cfi_def_cfa_offset 24
	.cfi_offset 6, -24
	movq	%rdi, %rbp
	pushq	%rbx
	.cfi_def_cfa_offset 32
	.cfi_offset 3, -32
	leaq	376(%rsi), %rbx
	movq	%rbx, %rdi
	subq	$144, %rsp
	.cfi_def_cfa_offset 176
	leaq	16(%rsp), %rsi
	movl	$2, 16(%rsp)
	call	_ZNK7openpal6Logger9IsEnabledERKNS_10LogFiltersE@PLT
	testb	%al, %al
	je	.L49
	movq	0(%rbp), %rax
	movq	%rbp, %rdi
	call	*72(%rax)
	leaq	.LC13(%rip), %rdx
	movl	$120, %esi
	leaq	16(%rsp), %rdi
	movq	%rax, %rcx
	xorl	%eax, %eax
	call	snprintf@PLT
	leaq	12(%rsp), %rsi
	leaq	16(%rsp), %rcx
	movq	%rbx, %rdi
	leaq	.LC15(%rip), %rdx
	movl	$2, 12(%rsp)
	call	_ZN7openpal6Logger3LogERKNS_10LogFiltersEPKcS5_@PLT
.L49:
	addq	$144, %rsp
	.cfi_def_cfa_offset 32
	movq	%rbp, %rax
	popq	%rbx
	.cfi_def_cfa_offset 24
	popq	%rbp
	.cfi_def_cfa_offset 16
	popq	%r12
	.cfi_def_cfa_offset 8
	ret
	.cfi_endproc
.LFE2300:
	.size	_ZN8opendnp312PriStateBase9OnTimeoutERNS_11LinkContextE, .-_ZN8opendnp312PriStateBase9OnTimeoutERNS_11LinkContextE
	.align 2
	.p2align 4
	.globl	_ZN8opendnp39PLLS_Idle18TrySendUnconfirmedERNS_11LinkContextERNS_17ITransportSegmentE
	.type	_ZN8opendnp39PLLS_Idle18TrySendUnconfirmedERNS_11LinkContextERNS_17ITransportSegmentE, @function
_ZN8opendnp39PLLS_Idle18TrySendUnconfirmedERNS_11LinkContextERNS_17ITransportSegmentE:
.LFB2304:
	.cfi_startproc
	pushq	%rbx
	.cfi_def_cfa_offset 16
	.cfi_offset 3, -16
	movq	%rsi, %rbx
	movq	%rdx, %rdi
	subq	$32, %rsp
	.cfi_def_cfa_offset 48
	movq	(%rdx), %rax
	call	*24(%rax)
	movq	%rsp, %rsi
	movq	%rbx, %rdi
	movl	%eax, (%rsp)
	movq	%rdx, 8(%rsp)
	call	_ZN8opendnp311LinkContext34FormatPrimaryBufferWithUnconfirmedERKN7openpal6RSliceE@PLT
	leaq	16(%rsp), %rsi
	movq	%rbx, %rdi
	movq	%rdx, 24(%rsp)
	movl	$1, %edx
	movl	%eax, 16(%rsp)
	call	_ZN8opendnp311LinkContext13QueueTransmitERKN7openpal6RSliceEb@PLT
	movq	_ZN8opendnp332PLLS_SendUnconfirmedTransmitWait8instanceE@GOTPCREL(%rip), %rax
	addq	$32, %rsp
	.cfi_def_cfa_offset 16
	popq	%rbx
	.cfi_def_cfa_offset 8
	ret
	.cfi_endproc
.LFE2304:
	.size	_ZN8opendnp39PLLS_Idle18TrySendUnconfirmedERNS_11LinkContextERNS_17ITransportSegmentE, .-_ZN8opendnp39PLLS_Idle18TrySendUnconfirmedERNS_11LinkContextERNS_17ITransportSegmentE
	.align 2
	.p2align 4
	.globl	_ZN8opendnp326PLLS_LinkResetTransmitWait16OnTransmitResultERNS_11LinkContextEb
	.type	_ZN8opendnp326PLLS_LinkResetTransmitWait16OnTransmitResultERNS_11LinkContextEb, @function
_ZN8opendnp326PLLS_LinkResetTransmitWait16OnTransmitResultERNS_11LinkContextEb:
.LFB2308:
	.cfi_startproc
	subq	$8, %rsp
	.cfi_def_cfa_offset 16
	movq	%rsi, %rdi
	testb	%dl, %dl
	je	.L57
	call	_ZN8opendnp311LinkContext18StartResponseTimerEv@PLT
	movq	_ZN8opendnp318PLLS_ResetLinkWait8instanceE@GOTPCREL(%rip), %rax
	addq	$8, %rsp
	.cfi_remember_state
	.cfi_def_cfa_offset 8
	ret
	.p2align 4,,10
	.p2align 3
.L57:
	.cfi_restore_state
	xorl	%esi, %esi
	call	_ZN8opendnp311LinkContext21CompleteSendOperationEb@PLT
	movq	_ZN8opendnp39PLLS_Idle8instanceE@GOTPCREL(%rip), %rax
	addq	$8, %rsp
	.cfi_def_cfa_offset 8
	ret
	.cfi_endproc
.LFE2308:
	.size	_ZN8opendnp326PLLS_LinkResetTransmitWait16OnTransmitResultERNS_11LinkContextEb, .-_ZN8opendnp326PLLS_LinkResetTransmitWait16OnTransmitResultERNS_11LinkContextEb
	.align 2
	.p2align 4
	.globl	_ZN8opendnp329PLLS_ConfUserDataTransmitWait16OnTransmitResultERNS_11LinkContextEb
	.type	_ZN8opendnp329PLLS_ConfUserDataTransmitWait16OnTransmitResultERNS_11LinkContextEb, @function
_ZN8opendnp329PLLS_ConfUserDataTransmitWait16OnTransmitResultERNS_11LinkContextEb:
.LFB2309:
	.cfi_startproc
	subq	$8, %rsp
	.cfi_def_cfa_offset 16
	movq	%rsi, %rdi
	testb	%dl, %dl
	je	.L61
	call	_ZN8opendnp311LinkContext18StartResponseTimerEv@PLT
	movq	_ZN8opendnp317PLLS_ConfDataWait8instanceE@GOTPCREL(%rip), %rax
	addq	$8, %rsp
	.cfi_remember_state
	.cfi_def_cfa_offset 8
	ret
	.p2align 4,,10
	.p2align 3
.L61:
	.cfi_restore_state
	xorl	%esi, %esi
	call	_ZN8opendnp311LinkContext21CompleteSendOperationEb@PLT
	movq	_ZN8opendnp39PLLS_Idle8instanceE@GOTPCREL(%rip), %rax
	addq	$8, %rsp
	.cfi_def_cfa_offset 8
	ret
	.cfi_endproc
.LFE2309:
	.size	_ZN8opendnp329PLLS_ConfUserDataTransmitWait16OnTransmitResultERNS_11LinkContextEb, .-_ZN8opendnp329PLLS_ConfUserDataTransmitWait16OnTransmitResultERNS_11LinkContextEb
	.align 2
	.p2align 4
	.globl	_ZN8opendnp334PLLS_RequestLinkStatusTransmitWait16OnTransmitResultERNS_11LinkContextEb
	.type	_ZN8opendnp334PLLS_RequestLinkStatusTransmitWait16OnTransmitResultERNS_11LinkContextEb, @function
_ZN8opendnp334PLLS_RequestLinkStatusTransmitWait16OnTransmitResultERNS_11LinkContextEb:
.LFB2310:
	.cfi_startproc
	subq	$8, %rsp
	.cfi_def_cfa_offset 16
	movq	%rsi, %rdi
	testb	%dl, %dl
	je	.L65
	call	_ZN8opendnp311LinkContext18StartResponseTimerEv@PLT
	movq	_ZN8opendnp326PLLS_RequestLinkStatusWait8instanceE@GOTPCREL(%rip), %rax
	addq	$8, %rsp
	.cfi_remember_state
	.cfi_def_cfa_offset 8
	ret
	.p2align 4,,10
	.p2align 3
.L65:
	.cfi_restore_state
	xorl	%esi, %esi
	call	_ZN8opendnp311LinkContext13FailKeepAliveEb@PLT
	movq	_ZN8opendnp39PLLS_Idle8instanceE@GOTPCREL(%rip), %rax
	addq	$8, %rsp
	.cfi_def_cfa_offset 8
	ret
	.cfi_endproc
.LFE2310:
	.size	_ZN8opendnp334PLLS_RequestLinkStatusTransmitWait16OnTransmitResultERNS_11LinkContextEb, .-_ZN8opendnp334PLLS_RequestLinkStatusTransmitWait16OnTransmitResultERNS_11LinkContextEb
	.section	.rodata.str1.8
	.align 8
.LC16:
	.string	"Link status request - response timeout"
	.align 8
.LC17:
	.string	"/opt/PLC/OpenPLC_v3/utils/dnp3_src/cpp/libs/src/opendnp3/link/PriLinkLayerStates.cpp(353)"
	.text
	.align 2
	.p2align 4
	.globl	_ZN8opendnp326PLLS_RequestLinkStatusWait9OnTimeoutERNS_11LinkContextE
	.type	_ZN8opendnp326PLLS_RequestLinkStatusWait9OnTimeoutERNS_11LinkContextE, @function
_ZN8opendnp326PLLS_RequestLinkStatusWait9OnTimeoutERNS_11LinkContextE:
.LFB2321:
	.cfi_startproc
	pushq	%r12
	.cfi_def_cfa_offset 16
	.cfi_offset 12, -16
	pushq	%rbp
	.cfi_def_cfa_offset 24
	.cfi_offset 6, -24
	leaq	376(%rsi), %rbp
	pushq	%rbx
	.cfi_def_cfa_offset 32
	.cfi_offset 3, -32
	movq	%rbp, %rdi
	movq	%rsi, %rbx
	subq	$16, %rsp
	.cfi_def_cfa_offset 48
	leaq	12(%rsp), %rsi
	movl	$4, 12(%rsp)
	call	_ZNK7openpal6Logger9IsEnabledERKNS_10LogFiltersE@PLT
	testb	%al, %al
	jne	.L74
.L69:
	movq	%rbx, %rdi
	movl	$1, %esi
	call	_ZN8opendnp311LinkContext13FailKeepAliveEb@PLT
	movq	_ZN8opendnp39PLLS_Idle8instanceE@GOTPCREL(%rip), %rax
	addq	$16, %rsp
	.cfi_remember_state
	.cfi_def_cfa_offset 32
	popq	%rbx
	.cfi_def_cfa_offset 24
	popq	%rbp
	.cfi_def_cfa_offset 16
	popq	%r12
	.cfi_def_cfa_offset 8
	ret
	.p2align 4,,10
	.p2align 3
.L74:
	.cfi_restore_state
	leaq	.LC16(%rip), %rcx
	leaq	.LC17(%rip), %rdx
	movq	%rbp, %rdi
	movl	$4, 12(%rsp)
	leaq	12(%rsp), %rsi
	call	_ZN7openpal6Logger3LogERKNS_10LogFiltersEPKcS5_@PLT
	jmp	.L69
	.cfi_endproc
.LFE2321:
	.size	_ZN8opendnp326PLLS_RequestLinkStatusWait9OnTimeoutERNS_11LinkContextE, .-_ZN8opendnp326PLLS_RequestLinkStatusWait9OnTimeoutERNS_11LinkContextE
	.align 2
	.p2align 4
	.globl	_ZN8opendnp326PLLS_RequestLinkStatusWait6OnNackERNS_11LinkContextEb
	.type	_ZN8opendnp326PLLS_RequestLinkStatusWait6OnNackERNS_11LinkContextEb, @function
_ZN8opendnp326PLLS_RequestLinkStatusWait6OnNackERNS_11LinkContextEb:
.LFB2318:
	.cfi_startproc
	pushq	%rbx
	.cfi_def_cfa_offset 16
	.cfi_offset 3, -16
	movq	%rsi, %rdi
	movq	%rsi, %rbx
	call	_ZN8opendnp311LinkContext11CancelTimerEv@PLT
	movq	%rbx, %rdi
	xorl	%esi, %esi
	call	_ZN8opendnp311LinkContext13FailKeepAliveEb@PLT
	movq	_ZN8opendnp39PLLS_Idle8instanceE@GOTPCREL(%rip), %rax
	popq	%rbx
	.cfi_def_cfa_offset 8
	ret
	.cfi_endproc
.LFE2318:
	.size	_ZN8opendnp326PLLS_RequestLinkStatusWait6OnNackERNS_11LinkContextEb, .-_ZN8opendnp326PLLS_RequestLinkStatusWait6OnNackERNS_11LinkContextEb
	.globl	_ZN8opendnp326PLLS_RequestLinkStatusWait14OnNotSupportedERNS_11LinkContextEb
	.set	_ZN8opendnp326PLLS_RequestLinkStatusWait14OnNotSupportedERNS_11LinkContextEb,_ZN8opendnp326PLLS_RequestLinkStatusWait6OnNackERNS_11LinkContextEb
	.align 2
	.p2align 4
	.globl	_ZN8opendnp326PLLS_RequestLinkStatusWait12OnLinkStatusERNS_11LinkContextEb
	.type	_ZN8opendnp326PLLS_RequestLinkStatusWait12OnLinkStatusERNS_11LinkContextEb, @function
_ZN8opendnp326PLLS_RequestLinkStatusWait12OnLinkStatusERNS_11LinkContextEb:
.LFB2319:
	.cfi_startproc
	pushq	%rbx
	.cfi_def_cfa_offset 16
	.cfi_offset 3, -16
	movq	%rsi, %rdi
	movq	%rsi, %rbx
	call	_ZN8opendnp311LinkContext11CancelTimerEv@PLT
	movq	%rbx, %rdi
	call	_ZN8opendnp311LinkContext17CompleteKeepAliveEv@PLT
	movq	_ZN8opendnp39PLLS_Idle8instanceE@GOTPCREL(%rip), %rax
	popq	%rbx
	.cfi_def_cfa_offset 8
	ret
	.cfi_endproc
.LFE2319:
	.size	_ZN8opendnp326PLLS_RequestLinkStatusWait12OnLinkStatusERNS_11LinkContextEb, .-_ZN8opendnp326PLLS_RequestLinkStatusWait12OnLinkStatusERNS_11LinkContextEb
	.align 2
	.p2align 4
	.globl	_ZN8opendnp332PLLS_SendUnconfirmedTransmitWait16OnTransmitResultERNS_11LinkContextEb
	.type	_ZN8opendnp332PLLS_SendUnconfirmedTransmitWait16OnTransmitResultERNS_11LinkContextEb, @function
_ZN8opendnp332PLLS_SendUnconfirmedTransmitWait16OnTransmitResultERNS_11LinkContextEb:
.LFB2307:
	.cfi_startproc
	pushq	%r15
	.cfi_def_cfa_offset 16
	.cfi_offset 15, -16
	movl	%edx, %r15d
	pushq	%r14
	.cfi_def_cfa_offset 24
	.cfi_offset 14, -24
	movq	%rdi, %r14
	pushq	%rbx
	.cfi_def_cfa_offset 32
	.cfi_offset 3, -32
	movq	%rsi, %rbx
	subq	$32, %rsp
	.cfi_def_cfa_offset 64
	movq	440(%rsi), %rdi
	movq	(%rdi), %rax
	call	*32(%rax)
	testb	%al, %al
	je	.L80
	movq	440(%rbx), %rdi
	movq	(%rdi), %rax
	call	*24(%rax)
	leaq	16(%rsp), %rsi
	movq	%rbx, %rdi
	movl	%eax, 16(%rsp)
	movq	%rdx, 24(%rsp)
	call	_ZN8opendnp311LinkContext34FormatPrimaryBufferWithUnconfirmedERKN7openpal6RSliceE@PLT
	movq	%rsp, %rsi
	movq	%rbx, %rdi
	movq	%rdx, 8(%rsp)
	movl	$1, %edx
	movl	%eax, (%rsp)
	call	_ZN8opendnp311LinkContext13QueueTransmitERKN7openpal6RSliceEb@PLT
	addq	$32, %rsp
	.cfi_remember_state
	.cfi_def_cfa_offset 32
	movq	%r14, %rax
	popq	%rbx
	.cfi_def_cfa_offset 24
	popq	%r14
	.cfi_def_cfa_offset 16
	popq	%r15
	.cfi_def_cfa_offset 8
	ret
	.p2align 4,,10
	.p2align 3
.L80:
	.cfi_restore_state
	movzbl	%r15b, %esi
	movq	%rbx, %rdi
	call	_ZN8opendnp311LinkContext21CompleteSendOperationEb@PLT
	movq	_ZN8opendnp39PLLS_Idle8instanceE@GOTPCREL(%rip), %rax
	addq	$32, %rsp
	.cfi_def_cfa_offset 32
	popq	%rbx
	.cfi_def_cfa_offset 24
	popq	%r14
	.cfi_def_cfa_offset 16
	popq	%r15
	.cfi_def_cfa_offset 8
	ret
	.cfi_endproc
.LFE2307:
	.size	_ZN8opendnp332PLLS_SendUnconfirmedTransmitWait16OnTransmitResultERNS_11LinkContextEb, .-_ZN8opendnp332PLLS_SendUnconfirmedTransmitWait16OnTransmitResultERNS_11LinkContextEb
	.align 2
	.p2align 4
	.globl	_ZN8opendnp39PLLS_Idle16TrySendConfirmedERNS_11LinkContextERNS_17ITransportSegmentE
	.type	_ZN8opendnp39PLLS_Idle16TrySendConfirmedERNS_11LinkContextERNS_17ITransportSegmentE, @function
_ZN8opendnp39PLLS_Idle16TrySendConfirmedERNS_11LinkContextERNS_17ITransportSegmentE:
.LFB2305:
	.cfi_startproc
	pushq	%r14
	.cfi_def_cfa_offset 16
	.cfi_offset 14, -16
	movq	%rsi, %rdi
	pushq	%rbx
	.cfi_def_cfa_offset 24
	.cfi_offset 3, -24
	movq	%rsi, %rbx
	subq	$56, %rsp
	.cfi_def_cfa_offset 80
	cmpb	$0, 507(%rsi)
	je	.L84
	movq	%rdx, 8(%rsp)
	call	_ZN8opendnp311LinkContext10ResetRetryEv@PLT
	movq	8(%rsp), %rdx
	movzbl	505(%rbx), %r14d
	movq	(%rdx), %rax
	movq	%rdx, %rdi
	call	*24(%rax)
	leaq	32(%rsp), %rsi
	movq	%rbx, %rdi
	movq	%rdx, 40(%rsp)
	movl	%r14d, %edx
	movl	%eax, 32(%rsp)
	call	_ZN8opendnp311LinkContext32FormatPrimaryBufferWithConfirmedERKN7openpal6RSliceEb@PLT
	leaq	16(%rsp), %rsi
	movq	%rbx, %rdi
	movq	%rdx, 24(%rsp)
	movl	$1, %edx
	movl	%eax, 16(%rsp)
	call	_ZN8opendnp311LinkContext13QueueTransmitERKN7openpal6RSliceEb@PLT
	movq	_ZN8opendnp329PLLS_ConfUserDataTransmitWait8instanceE@GOTPCREL(%rip), %rax
	addq	$56, %rsp
	.cfi_remember_state
	.cfi_def_cfa_offset 24
	popq	%rbx
	.cfi_def_cfa_offset 16
	popq	%r14
	.cfi_def_cfa_offset 8
	ret
	.p2align 4,,10
	.p2align 3
.L84:
	.cfi_restore_state
	call	_ZN8opendnp311LinkContext10ResetRetryEv@PLT
	movq	%rbx, %rdi
	call	_ZN8opendnp311LinkContext15QueueResetLinksEv@PLT
	movq	_ZN8opendnp326PLLS_LinkResetTransmitWait8instanceE@GOTPCREL(%rip), %rax
	addq	$56, %rsp
	.cfi_def_cfa_offset 24
	popq	%rbx
	.cfi_def_cfa_offset 16
	popq	%r14
	.cfi_def_cfa_offset 8
	ret
	.cfi_endproc
.LFE2305:
	.size	_ZN8opendnp39PLLS_Idle16TrySendConfirmedERNS_11LinkContextERNS_17ITransportSegmentE, .-_ZN8opendnp39PLLS_Idle16TrySendConfirmedERNS_11LinkContextERNS_17ITransportSegmentE
	.section	.rodata.str1.8
	.align 8
.LC18:
	.string	"Link reset timeout, retrying %i remaining"
	.align 8
.LC19:
	.string	"/opt/PLC/OpenPLC_v3/utils/dnp3_src/cpp/libs/src/opendnp3/link/PriLinkLayerStates.cpp(238)"
	.align 8
.LC20:
	.string	"Link reset final timeout, no retries remain"
	.align 8
.LC21:
	.string	"/opt/PLC/OpenPLC_v3/utils/dnp3_src/cpp/libs/src/opendnp3/link/PriLinkLayerStates.cpp(244)"
	.text
	.align 2
	.p2align 4
	.globl	_ZN8opendnp318PLLS_ResetLinkWait9OnTimeoutERNS_11LinkContextE
	.type	_ZN8opendnp318PLLS_ResetLinkWait9OnTimeoutERNS_11LinkContextE, @function
_ZN8opendnp318PLLS_ResetLinkWait9OnTimeoutERNS_11LinkContextE:
.LFB2312:
	.cfi_startproc
	pushq	%r15
	.cfi_def_cfa_offset 16
	.cfi_offset 15, -16
	movq	%rsi, %rdi
	pushq	%r14
	.cfi_def_cfa_offset 24
	.cfi_offset 14, -24
	pushq	%rbx
	.cfi_def_cfa_offset 32
	.cfi_offset 3, -32
	movq	%rsi, %rbx
	subq	$160, %rsp
	.cfi_def_cfa_offset 192
	call	_ZN8opendnp311LinkContext5RetryEv@PLT
	leaq	376(%rbx), %rdi
	testb	%al, %al
	je	.L88
	leaq	32(%rsp), %rsi
	movl	$4, 32(%rsp)
	movq	%rdi, %r15
	call	_ZNK7openpal6Logger9IsEnabledERKNS_10LogFiltersE@PLT
	testb	%al, %al
	jne	.L99
.L89:
	movq	%rbx, %rdi
	call	_ZN8opendnp311LinkContext15QueueResetLinksEv@PLT
	movq	_ZN8opendnp326PLLS_LinkResetTransmitWait8instanceE@GOTPCREL(%rip), %rax
	addq	$160, %rsp
	.cfi_remember_state
	.cfi_def_cfa_offset 32
	popq	%rbx
	.cfi_def_cfa_offset 24
	popq	%r14
	.cfi_def_cfa_offset 16
	popq	%r15
	.cfi_def_cfa_offset 8
	ret
	.p2align 4,,10
	.p2align 3
.L88:
	.cfi_restore_state
	leaq	32(%rsp), %rsi
	movq	%rdi, (%rsp)
	movq	%rsi, 8(%rsp)
	movl	$4, 32(%rsp)
	call	_ZNK7openpal6Logger9IsEnabledERKNS_10LogFiltersE@PLT
	movq	(%rsp), %rdi
	movq	8(%rsp), %rsi
	testb	%al, %al
	jne	.L100
.L91:
	movq	%rbx, %rdi
	xorl	%esi, %esi
	call	_ZN8opendnp311LinkContext21CompleteSendOperationEb@PLT
	movq	_ZN8opendnp39PLLS_Idle8instanceE@GOTPCREL(%rip), %rax
	addq	$160, %rsp
	.cfi_remember_state
	.cfi_def_cfa_offset 32
	popq	%rbx
	.cfi_def_cfa_offset 24
	popq	%r14
	.cfi_def_cfa_offset 16
	popq	%r15
	.cfi_def_cfa_offset 8
	ret
	.p2align 4,,10
	.p2align 3
.L100:
	.cfi_restore_state
	leaq	.LC20(%rip), %rcx
	leaq	.LC21(%rip), %rdx
	movl	$4, 32(%rsp)
	call	_ZN7openpal6Logger3LogERKNS_10LogFiltersEPKcS5_@PLT
	jmp	.L91
	.p2align 4,,10
	.p2align 3
.L99:
	movl	452(%rbx), %ecx
	leaq	32(%rsp), %rdi
	leaq	.LC18(%rip), %rdx
	xorl	%eax, %eax
	movl	$120, %esi
	call	snprintf@PLT
	leaq	28(%rsp), %rsi
	leaq	32(%rsp), %rcx
	movq	%r15, %rdi
	leaq	.LC19(%rip), %rdx
	movl	$4, 28(%rsp)
	call	_ZN7openpal6Logger3LogERKNS_10LogFiltersEPKcS5_@PLT
	jmp	.L89
	.cfi_endproc
.LFE2312:
	.size	_ZN8opendnp318PLLS_ResetLinkWait9OnTimeoutERNS_11LinkContextE, .-_ZN8opendnp318PLLS_ResetLinkWait9OnTimeoutERNS_11LinkContextE
	.align 2
	.p2align 4
	.globl	_ZN8opendnp317PLLS_ConfDataWait5OnAckERNS_11LinkContextEb
	.type	_ZN8opendnp317PLLS_ConfDataWait5OnAckERNS_11LinkContextEb, @function
_ZN8opendnp317PLLS_ConfDataWait5OnAckERNS_11LinkContextEb:
.LFB2314:
	.cfi_startproc
	pushq	%r14
	.cfi_def_cfa_offset 16
	.cfi_offset 14, -16
	movq	%rsi, %rdi
	pushq	%rbx
	.cfi_def_cfa_offset 24
	.cfi_offset 3, -24
	movq	%rsi, %rbx
	subq	$40, %rsp
	.cfi_def_cfa_offset 64
	xorb	$1, 505(%rsi)
	call	_ZN8opendnp311LinkContext11CancelTimerEv@PLT
	movq	440(%rbx), %rdi
	movq	(%rdi), %rax
	call	*32(%rax)
	testb	%al, %al
	je	.L102
	movq	440(%rbx), %rdi
	movzbl	505(%rbx), %r14d
	movq	(%rdi), %rax
	call	*24(%rax)
	leaq	16(%rsp), %rsi
	movq	%rbx, %rdi
	movq	%rdx, 24(%rsp)
	movl	%r14d, %edx
	movl	%eax, 16(%rsp)
	call	_ZN8opendnp311LinkContext32FormatPrimaryBufferWithConfirmedERKN7openpal6RSliceEb@PLT
	movq	%rsp, %rsi
	movq	%rbx, %rdi
	movq	%rdx, 8(%rsp)
	movl	$1, %edx
	movl	%eax, (%rsp)
	call	_ZN8opendnp311LinkContext13QueueTransmitERKN7openpal6RSliceEb@PLT
	movq	_ZN8opendnp329PLLS_ConfUserDataTransmitWait8instanceE@GOTPCREL(%rip), %rax
	addq	$40, %rsp
	.cfi_remember_state
	.cfi_def_cfa_offset 24
	popq	%rbx
	.cfi_def_cfa_offset 16
	popq	%r14
	.cfi_def_cfa_offset 8
	ret
	.p2align 4,,10
	.p2align 3
.L102:
	.cfi_restore_state
	movq	%rbx, %rdi
	movl	$1, %esi
	call	_ZN8opendnp311LinkContext21CompleteSendOperationEb@PLT
	movq	_ZN8opendnp39PLLS_Idle8instanceE@GOTPCREL(%rip), %rax
	addq	$40, %rsp
	.cfi_def_cfa_offset 24
	popq	%rbx
	.cfi_def_cfa_offset 16
	popq	%r14
	.cfi_def_cfa_offset 8
	ret
	.cfi_endproc
.LFE2314:
	.size	_ZN8opendnp317PLLS_ConfDataWait5OnAckERNS_11LinkContextEb, .-_ZN8opendnp317PLLS_ConfDataWait5OnAckERNS_11LinkContextEb
	.align 2
	.p2align 4
	.globl	_ZN8opendnp318PLLS_ResetLinkWait5OnAckERNS_11LinkContextEb
	.type	_ZN8opendnp318PLLS_ResetLinkWait5OnAckERNS_11LinkContextEb, @function
_ZN8opendnp318PLLS_ResetLinkWait5OnAckERNS_11LinkContextEb:
.LFB2311:
	.cfi_startproc
	pushq	%rbp
	.cfi_def_cfa_offset 16
	.cfi_offset 6, -16
	movq	%rsi, %rdi
	pushq	%rbx
	.cfi_def_cfa_offset 24
	.cfi_offset 3, -24
	movq	%rsi, %rbx
	subq	$40, %rsp
	.cfi_def_cfa_offset 64
	movb	$1, 507(%rsi)
	movb	$1, 505(%rsi)
	call	_ZN8opendnp311LinkContext11CancelTimerEv@PLT
	movq	440(%rbx), %rdi
	movzbl	505(%rbx), %ebp
	movq	(%rdi), %rax
	call	*24(%rax)
	leaq	16(%rsp), %rsi
	movq	%rbx, %rdi
	movq	%rdx, 24(%rsp)
	movl	%ebp, %edx
	movl	%eax, 16(%rsp)
	call	_ZN8opendnp311LinkContext32FormatPrimaryBufferWithConfirmedERKN7openpal6RSliceEb@PLT
	movq	%rbx, %rdi
	movq	%rsp, %rsi
	movq	%rdx, 8(%rsp)
	movl	$1, %edx
	movl	%eax, (%rsp)
	call	_ZN8opendnp311LinkContext13QueueTransmitERKN7openpal6RSliceEb@PLT
	movq	560(%rbx), %rdi
	movq	(%rdi), %rax
	movq	(%rax), %rax
	cmpq	_ZN8opendnp313ILinkListener13OnStateChangeENS_10LinkStatusE@GOTPCREL(%rip), %rax
	jne	.L108
	movq	_ZN8opendnp329PLLS_ConfUserDataTransmitWait8instanceE@GOTPCREL(%rip), %rax
	addq	$40, %rsp
	.cfi_remember_state
	.cfi_def_cfa_offset 24
	popq	%rbx
	.cfi_def_cfa_offset 16
	popq	%rbp
	.cfi_def_cfa_offset 8
	ret
	.p2align 4,,10
	.p2align 3
.L108:
	.cfi_restore_state
	movl	$1, %esi
	call	*%rax
	movq	_ZN8opendnp329PLLS_ConfUserDataTransmitWait8instanceE@GOTPCREL(%rip), %rax
	addq	$40, %rsp
	.cfi_def_cfa_offset 24
	popq	%rbx
	.cfi_def_cfa_offset 16
	popq	%rbp
	.cfi_def_cfa_offset 8
	ret
	.cfi_endproc
.LFE2311:
	.size	_ZN8opendnp318PLLS_ResetLinkWait5OnAckERNS_11LinkContextEb, .-_ZN8opendnp318PLLS_ResetLinkWait5OnAckERNS_11LinkContextEb
	.section	.rodata.str1.8
	.align 8
.LC22:
	.string	"confirmed data timeout, retrying %u remaining"
	.align 8
.LC23:
	.string	"/opt/PLC/OpenPLC_v3/utils/dnp3_src/cpp/libs/src/opendnp3/link/PriLinkLayerStates.cpp(310)"
	.align 8
.LC24:
	.string	"Confirmed data final timeout, no retries remain"
	.align 8
.LC25:
	.string	"/opt/PLC/OpenPLC_v3/utils/dnp3_src/cpp/libs/src/opendnp3/link/PriLinkLayerStates.cpp(317)"
	.text
	.align 2
	.p2align 4
	.globl	_ZN8opendnp317PLLS_ConfDataWait9OnTimeoutERNS_11LinkContextE
	.type	_ZN8opendnp317PLLS_ConfDataWait9OnTimeoutERNS_11LinkContextE, @function
_ZN8opendnp317PLLS_ConfDataWait9OnTimeoutERNS_11LinkContextE:
.LFB2317:
	.cfi_startproc
	pushq	%r15
	.cfi_def_cfa_offset 16
	.cfi_offset 15, -16
	movq	%rsi, %rdi
	pushq	%r14
	.cfi_def_cfa_offset 24
	.cfi_offset 14, -24
	pushq	%rbp
	.cfi_def_cfa_offset 32
	.cfi_offset 6, -32
	pushq	%rbx
	.cfi_def_cfa_offset 40
	.cfi_offset 3, -40
	movq	%rsi, %rbx
	subq	$168, %rsp
	.cfi_def_cfa_offset 208
	call	_ZN8opendnp311LinkContext5RetryEv@PLT
	testb	%al, %al
	je	.L110
	leaq	32(%rsp), %rbp
	leaq	376(%rbx), %rdi
	movl	$4, 32(%rsp)
	movq	%rbp, %rsi
	call	_ZNK7openpal6Logger9IsEnabledERKNS_10LogFiltersE@PLT
	testb	%al, %al
	jne	.L122
.L111:
	movq	440(%rbx), %rdi
	movzbl	505(%rbx), %r14d
	movq	(%rdi), %rax
	call	*24(%rax)
	movq	%rbp, %rsi
	movq	%rbx, %rdi
	movq	%rdx, 40(%rsp)
	movl	%r14d, %edx
	movl	%eax, 32(%rsp)
	call	_ZN8opendnp311LinkContext32FormatPrimaryBufferWithConfirmedERKN7openpal6RSliceEb@PLT
	leaq	16(%rsp), %rsi
	movq	%rbx, %rdi
	movq	%rdx, 24(%rsp)
	movl	$1, %edx
	movl	%eax, 16(%rsp)
	call	_ZN8opendnp311LinkContext13QueueTransmitERKN7openpal6RSliceEb@PLT
	movq	_ZN8opendnp329PLLS_ConfUserDataTransmitWait8instanceE@GOTPCREL(%rip), %rax
	addq	$168, %rsp
	.cfi_remember_state
	.cfi_def_cfa_offset 40
	popq	%rbx
	.cfi_def_cfa_offset 32
	popq	%rbp
	.cfi_def_cfa_offset 24
	popq	%r14
	.cfi_def_cfa_offset 16
	popq	%r15
	.cfi_def_cfa_offset 8
	ret
	.p2align 4,,10
	.p2align 3
.L110:
	.cfi_restore_state
	leaq	376(%rbx), %rbp
	leaq	32(%rsp), %rsi
	movl	$4, 32(%rsp)
	movq	%rbp, %rdi
	movq	%rsi, 8(%rsp)
	call	_ZNK7openpal6Logger9IsEnabledERKNS_10LogFiltersE@PLT
	movq	8(%rsp), %rsi
	testb	%al, %al
	jne	.L123
.L113:
	movq	560(%rbx), %rdi
	movq	(%rdi), %rax
	movq	(%rax), %rax
	cmpq	_ZN8opendnp313ILinkListener13OnStateChangeENS_10LinkStatusE@GOTPCREL(%rip), %rax
	jne	.L124
.L114:
	movq	%rbx, %rdi
	xorl	%esi, %esi
	call	_ZN8opendnp311LinkContext21CompleteSendOperationEb@PLT
	movq	_ZN8opendnp39PLLS_Idle8instanceE@GOTPCREL(%rip), %rax
	addq	$168, %rsp
	.cfi_remember_state
	.cfi_def_cfa_offset 40
	popq	%rbx
	.cfi_def_cfa_offset 32
	popq	%rbp
	.cfi_def_cfa_offset 24
	popq	%r14
	.cfi_def_cfa_offset 16
	popq	%r15
	.cfi_def_cfa_offset 8
	ret
	.p2align 4,,10
	.p2align 3
.L123:
	.cfi_restore_state
	leaq	.LC24(%rip), %rcx
	leaq	.LC25(%rip), %rdx
	movq	%rbp, %rdi
	movl	$4, 32(%rsp)
	call	_ZN7openpal6Logger3LogERKNS_10LogFiltersEPKcS5_@PLT
	jmp	.L113
	.p2align 4,,10
	.p2align 3
.L122:
	movl	452(%rbx), %ecx
	movq	%rbp, %rdi
	movl	$120, %esi
	xorl	%eax, %eax
	leaq	.LC22(%rip), %rdx
	call	snprintf@PLT
	movq	%rbp, %rcx
	leaq	.LC23(%rip), %rdx
	leaq	16(%rsp), %rsi
	leaq	376(%rbx), %rdi
	movl	$4, 16(%rsp)
	call	_ZN7openpal6Logger3LogERKNS_10LogFiltersEPKcS5_@PLT
	jmp	.L111
	.p2align 4,,10
	.p2align 3
.L124:
	xorl	%esi, %esi
	call	*%rax
	jmp	.L114
	.cfi_endproc
.LFE2317:
	.size	_ZN8opendnp317PLLS_ConfDataWait9OnTimeoutERNS_11LinkContextE, .-_ZN8opendnp317PLLS_ConfDataWait9OnTimeoutERNS_11LinkContextE
	.align 2
	.p2align 4
	.globl	_ZN8opendnp39PLLS_Idle24TrySendRequestLinkStatusERNS_11LinkContextE
	.type	_ZN8opendnp39PLLS_Idle24TrySendRequestLinkStatusERNS_11LinkContextE, @function
_ZN8opendnp39PLLS_Idle24TrySendRequestLinkStatusERNS_11LinkContextE:
.LFB2306:
	.cfi_startproc
	pushq	%rbx
	.cfi_def_cfa_offset 16
	.cfi_offset 3, -16
	movq	%rsi, %rdi
	movq	%rsi, %rbx
	movb	$0, 508(%rsi)
	call	_ZN8opendnp311LinkContext22QueueRequestLinkStatusEv@PLT
	movq	560(%rbx), %rdi
	movq	(%rdi), %rax
	movq	8(%rax), %rax
	cmpq	_ZN8opendnp313ILinkListener20OnKeepAliveInitiatedEv@GOTPCREL(%rip), %rax
	jne	.L128
	movq	_ZN8opendnp334PLLS_RequestLinkStatusTransmitWait8instanceE@GOTPCREL(%rip), %rax
	popq	%rbx
	.cfi_remember_state
	.cfi_def_cfa_offset 8
	ret
	.p2align 4,,10
	.p2align 3
.L128:
	.cfi_restore_state
	call	*%rax
	movq	_ZN8opendnp334PLLS_RequestLinkStatusTransmitWait8instanceE@GOTPCREL(%rip), %rax
	popq	%rbx
	.cfi_def_cfa_offset 8
	ret
	.cfi_endproc
.LFE2306:
	.size	_ZN8opendnp39PLLS_Idle24TrySendRequestLinkStatusERNS_11LinkContextE, .-_ZN8opendnp39PLLS_Idle24TrySendRequestLinkStatusERNS_11LinkContextE
	.align 2
	.p2align 4
	.globl	_ZN8opendnp318PLLS_ResetLinkWait7FailureERNS_11LinkContextE
	.type	_ZN8opendnp318PLLS_ResetLinkWait7FailureERNS_11LinkContextE, @function
_ZN8opendnp318PLLS_ResetLinkWait7FailureERNS_11LinkContextE:
.LFB2313:
	.cfi_startproc
	pushq	%rbx
	.cfi_def_cfa_offset 16
	.cfi_offset 3, -16
	movq	%rsi, %rdi
	movq	%rsi, %rbx
	call	_ZN8opendnp311LinkContext11CancelTimerEv@PLT
	movq	%rbx, %rdi
	xorl	%esi, %esi
	call	_ZN8opendnp311LinkContext21CompleteSendOperationEb@PLT
	movq	_ZN8opendnp39PLLS_Idle8instanceE@GOTPCREL(%rip), %rax
	popq	%rbx
	.cfi_def_cfa_offset 8
	ret
	.cfi_endproc
.LFE2313:
	.size	_ZN8opendnp318PLLS_ResetLinkWait7FailureERNS_11LinkContextE, .-_ZN8opendnp318PLLS_ResetLinkWait7FailureERNS_11LinkContextE
	.section	.text._ZN8opendnp318PLLS_ResetLinkWait14OnNotSupportedERNS_11LinkContextEb,"axG",@progbits,_ZN8opendnp318PLLS_ResetLinkWait14OnNotSupportedERNS_11LinkContextEb,comdat
	.align 2
	.p2align 4
	.weak	_ZN8opendnp318PLLS_ResetLinkWait14OnNotSupportedERNS_11LinkContextEb
	.type	_ZN8opendnp318PLLS_ResetLinkWait14OnNotSupportedERNS_11LinkContextEb, @function
_ZN8opendnp318PLLS_ResetLinkWait14OnNotSupportedERNS_11LinkContextEb:
.LFB35:
	.cfi_startproc
	jmp	_ZN8opendnp318PLLS_ResetLinkWait7FailureERNS_11LinkContextE@PLT
	.cfi_endproc
.LFE35:
	.size	_ZN8opendnp318PLLS_ResetLinkWait14OnNotSupportedERNS_11LinkContextEb, .-_ZN8opendnp318PLLS_ResetLinkWait14OnNotSupportedERNS_11LinkContextEb
	.section	.text._ZN8opendnp318PLLS_ResetLinkWait12OnLinkStatusERNS_11LinkContextEb,"axG",@progbits,_ZN8opendnp318PLLS_ResetLinkWait12OnLinkStatusERNS_11LinkContextEb,comdat
	.align 2
	.p2align 4
	.weak	_ZN8opendnp318PLLS_ResetLinkWait12OnLinkStatusERNS_11LinkContextEb
	.type	_ZN8opendnp318PLLS_ResetLinkWait12OnLinkStatusERNS_11LinkContextEb, @function
_ZN8opendnp318PLLS_ResetLinkWait12OnLinkStatusERNS_11LinkContextEb:
.LFB34:
	.cfi_startproc
	jmp	_ZN8opendnp318PLLS_ResetLinkWait7FailureERNS_11LinkContextE@PLT
	.cfi_endproc
.LFE34:
	.size	_ZN8opendnp318PLLS_ResetLinkWait12OnLinkStatusERNS_11LinkContextEb, .-_ZN8opendnp318PLLS_ResetLinkWait12OnLinkStatusERNS_11LinkContextEb
	.section	.text._ZN8opendnp318PLLS_ResetLinkWait6OnNackERNS_11LinkContextEb,"axG",@progbits,_ZN8opendnp318PLLS_ResetLinkWait6OnNackERNS_11LinkContextEb,comdat
	.align 2
	.p2align 4
	.weak	_ZN8opendnp318PLLS_ResetLinkWait6OnNackERNS_11LinkContextEb
	.type	_ZN8opendnp318PLLS_ResetLinkWait6OnNackERNS_11LinkContextEb, @function
_ZN8opendnp318PLLS_ResetLinkWait6OnNackERNS_11LinkContextEb:
.LFB33:
	.cfi_startproc
	jmp	_ZN8opendnp318PLLS_ResetLinkWait7FailureERNS_11LinkContextE@PLT
	.cfi_endproc
.LFE33:
	.size	_ZN8opendnp318PLLS_ResetLinkWait6OnNackERNS_11LinkContextEb, .-_ZN8opendnp318PLLS_ResetLinkWait6OnNackERNS_11LinkContextEb
	.text
	.align 2
	.p2align 4
	.globl	_ZN8opendnp317PLLS_ConfDataWait7FailureERNS_11LinkContextE
	.type	_ZN8opendnp317PLLS_ConfDataWait7FailureERNS_11LinkContextE, @function
_ZN8opendnp317PLLS_ConfDataWait7FailureERNS_11LinkContextE:
.LFB3019:
	.cfi_startproc
	pushq	%rbx
	.cfi_def_cfa_offset 16
	.cfi_offset 3, -16
	movq	%rsi, %rdi
	movq	%rsi, %rbx
	call	_ZN8opendnp311LinkContext11CancelTimerEv@PLT
	movq	%rbx, %rdi
	xorl	%esi, %esi
	call	_ZN8opendnp311LinkContext21CompleteSendOperationEb@PLT
	movq	_ZN8opendnp39PLLS_Idle8instanceE@GOTPCREL(%rip), %rax
	popq	%rbx
	.cfi_def_cfa_offset 8
	ret
	.cfi_endproc
.LFE3019:
	.size	_ZN8opendnp317PLLS_ConfDataWait7FailureERNS_11LinkContextE, .-_ZN8opendnp317PLLS_ConfDataWait7FailureERNS_11LinkContextE
	.section	.text._ZN8opendnp317PLLS_ConfDataWait14OnNotSupportedERNS_11LinkContextEb,"axG",@progbits,_ZN8opendnp317PLLS_ConfDataWait14OnNotSupportedERNS_11LinkContextEb,comdat
	.align 2
	.p2align 4
	.weak	_ZN8opendnp317PLLS_ConfDataWait14OnNotSupportedERNS_11LinkContextEb
	.type	_ZN8opendnp317PLLS_ConfDataWait14OnNotSupportedERNS_11LinkContextEb, @function
_ZN8opendnp317PLLS_ConfDataWait14OnNotSupportedERNS_11LinkContextEb:
.LFB42:
	.cfi_startproc
	jmp	_ZN8opendnp317PLLS_ConfDataWait7FailureERNS_11LinkContextE@PLT
	.cfi_endproc
.LFE42:
	.size	_ZN8opendnp317PLLS_ConfDataWait14OnNotSupportedERNS_11LinkContextEb, .-_ZN8opendnp317PLLS_ConfDataWait14OnNotSupportedERNS_11LinkContextEb
	.section	.text._ZN8opendnp317PLLS_ConfDataWait12OnLinkStatusERNS_11LinkContextEb,"axG",@progbits,_ZN8opendnp317PLLS_ConfDataWait12OnLinkStatusERNS_11LinkContextEb,comdat
	.align 2
	.p2align 4
	.weak	_ZN8opendnp317PLLS_ConfDataWait12OnLinkStatusERNS_11LinkContextEb
	.type	_ZN8opendnp317PLLS_ConfDataWait12OnLinkStatusERNS_11LinkContextEb, @function
_ZN8opendnp317PLLS_ConfDataWait12OnLinkStatusERNS_11LinkContextEb:
.LFB41:
	.cfi_startproc
	jmp	_ZN8opendnp317PLLS_ConfDataWait7FailureERNS_11LinkContextE@PLT
	.cfi_endproc
.LFE41:
	.size	_ZN8opendnp317PLLS_ConfDataWait12OnLinkStatusERNS_11LinkContextEb, .-_ZN8opendnp317PLLS_ConfDataWait12OnLinkStatusERNS_11LinkContextEb
	.text
	.align 2
	.p2align 4
	.globl	_ZN8opendnp317PLLS_ConfDataWait6OnNackERNS_11LinkContextEb
	.type	_ZN8opendnp317PLLS_ConfDataWait6OnNackERNS_11LinkContextEb, @function
_ZN8opendnp317PLLS_ConfDataWait6OnNackERNS_11LinkContextEb:
.LFB2315:
	.cfi_startproc
	pushq	%rbx
	.cfi_def_cfa_offset 16
	.cfi_offset 3, -16
	movq	%rdi, %rcx
	movq	%rsi, %rbx
	subq	$16, %rsp
	.cfi_def_cfa_offset 32
	movq	560(%rsi), %rdi
	movq	(%rdi), %rax
	movq	(%rax), %rax
	cmpq	_ZN8opendnp313ILinkListener13OnStateChangeENS_10LinkStatusE@GOTPCREL(%rip), %rax
	jne	.L142
.L139:
	testb	%dl, %dl
	je	.L140
	addq	$16, %rsp
	.cfi_remember_state
	.cfi_def_cfa_offset 16
	movq	%rbx, %rsi
	movq	%rcx, %rdi
	popq	%rbx
	.cfi_def_cfa_offset 8
	jmp	_ZN8opendnp317PLLS_ConfDataWait7FailureERNS_11LinkContextE@PLT
	.p2align 4,,10
	.p2align 3
.L140:
	.cfi_restore_state
	movq	%rbx, %rdi
	call	_ZN8opendnp311LinkContext10ResetRetryEv@PLT
	movq	%rbx, %rdi
	call	_ZN8opendnp311LinkContext11CancelTimerEv@PLT
	movq	%rbx, %rdi
	call	_ZN8opendnp311LinkContext15QueueResetLinksEv@PLT
	movq	_ZN8opendnp326PLLS_LinkResetTransmitWait8instanceE@GOTPCREL(%rip), %rax
	addq	$16, %rsp
	.cfi_remember_state
	.cfi_def_cfa_offset 16
	popq	%rbx
	.cfi_def_cfa_offset 8
	ret
	.p2align 4,,10
	.p2align 3
.L142:
	.cfi_restore_state
	movl	%edx, 12(%rsp)
	xorl	%esi, %esi
	movq	%rcx, (%rsp)
	call	*%rax
	movl	12(%rsp), %edx
	movq	(%rsp), %rcx
	jmp	.L139
	.cfi_endproc
.LFE2315:
	.size	_ZN8opendnp317PLLS_ConfDataWait6OnNackERNS_11LinkContextEb, .-_ZN8opendnp317PLLS_ConfDataWait6OnNackERNS_11LinkContextEb
	.section	.text.startup,"ax",@progbits
	.p2align 4
	.type	_GLOBAL__sub_I_PriLinkLayerStates.cpp, @function
_GLOBAL__sub_I_PriLinkLayerStates.cpp:
.LFB3011:
	.cfi_startproc
	movq	_ZTVN8opendnp39PLLS_IdleE@GOTPCREL(%rip), %rdx
	movq	_ZN8opendnp39PLLS_Idle8instanceE@GOTPCREL(%rip), %rax
	addq	$16, %rdx
	movq	%rdx, (%rax)
	movq	_ZTVN8opendnp332PLLS_SendUnconfirmedTransmitWaitE@GOTPCREL(%rip), %rdx
	movq	_ZN8opendnp332PLLS_SendUnconfirmedTransmitWait8instanceE@GOTPCREL(%rip), %rax
	addq	$16, %rdx
	movq	%rdx, (%rax)
	movq	_ZTVN8opendnp326PLLS_LinkResetTransmitWaitE@GOTPCREL(%rip), %rdx
	movq	_ZN8opendnp326PLLS_LinkResetTransmitWait8instanceE@GOTPCREL(%rip), %rax
	addq	$16, %rdx
	movq	%rdx, (%rax)
	movq	_ZTVN8opendnp329PLLS_ConfUserDataTransmitWaitE@GOTPCREL(%rip), %rdx
	movq	_ZN8opendnp329PLLS_ConfUserDataTransmitWait8instanceE@GOTPCREL(%rip), %rax
	addq	$16, %rdx
	movq	%rdx, (%rax)
	movq	_ZTVN8opendnp334PLLS_RequestLinkStatusTransmitWaitE@GOTPCREL(%rip), %rdx
	movq	_ZN8opendnp334PLLS_RequestLinkStatusTransmitWait8instanceE@GOTPCREL(%rip), %rax
	addq	$16, %rdx
	movq	%rdx, (%rax)
	movq	_ZTVN8opendnp318PLLS_ResetLinkWaitE@GOTPCREL(%rip), %rdx
	movq	_ZN8opendnp318PLLS_ResetLinkWait8instanceE@GOTPCREL(%rip), %rax
	addq	$16, %rdx
	movq	%rdx, (%rax)
	movq	_ZTVN8opendnp317PLLS_ConfDataWaitE@GOTPCREL(%rip), %rdx
	movq	_ZN8opendnp317PLLS_ConfDataWait8instanceE@GOTPCREL(%rip), %rax
	addq	$16, %rdx
	movq	%rdx, (%rax)
	movq	_ZTVN8opendnp326PLLS_RequestLinkStatusWaitE@GOTPCREL(%rip), %rdx
	movq	_ZN8opendnp326PLLS_RequestLinkStatusWait8instanceE@GOTPCREL(%rip), %rax
	addq	$16, %rdx
	movq	%rdx, (%rax)
	ret
	.cfi_endproc
.LFE3011:
	.size	_GLOBAL__sub_I_PriLinkLayerStates.cpp, .-_GLOBAL__sub_I_PriLinkLayerStates.cpp
	.section	.init_array,"aw"
	.align 8
	.quad	_GLOBAL__sub_I_PriLinkLayerStates.cpp
	.weak	_ZTSN8opendnp312PriStateBaseE
	.section	.rodata._ZTSN8opendnp312PriStateBaseE,"aG",@progbits,_ZTSN8opendnp312PriStateBaseE,comdat
	.align 16
	.type	_ZTSN8opendnp312PriStateBaseE, @object
	.size	_ZTSN8opendnp312PriStateBaseE, 26
_ZTSN8opendnp312PriStateBaseE:
	.string	"N8opendnp312PriStateBaseE"
	.weak	_ZTIN8opendnp312PriStateBaseE
	.section	.data.rel.ro._ZTIN8opendnp312PriStateBaseE,"awG",@progbits,_ZTIN8opendnp312PriStateBaseE,comdat
	.align 8
	.type	_ZTIN8opendnp312PriStateBaseE, @object
	.size	_ZTIN8opendnp312PriStateBaseE, 16
_ZTIN8opendnp312PriStateBaseE:
	.quad	_ZTVN10__cxxabiv117__class_type_infoE+16
	.quad	_ZTSN8opendnp312PriStateBaseE
	.weak	_ZTSN8opendnp39PLLS_IdleE
	.section	.rodata._ZTSN8opendnp39PLLS_IdleE,"aG",@progbits,_ZTSN8opendnp39PLLS_IdleE,comdat
	.align 16
	.type	_ZTSN8opendnp39PLLS_IdleE, @object
	.size	_ZTSN8opendnp39PLLS_IdleE, 22
_ZTSN8opendnp39PLLS_IdleE:
	.string	"N8opendnp39PLLS_IdleE"
	.weak	_ZTIN8opendnp39PLLS_IdleE
	.section	.data.rel.ro._ZTIN8opendnp39PLLS_IdleE,"awG",@progbits,_ZTIN8opendnp39PLLS_IdleE,comdat
	.align 8
	.type	_ZTIN8opendnp39PLLS_IdleE, @object
	.size	_ZTIN8opendnp39PLLS_IdleE, 24
_ZTIN8opendnp39PLLS_IdleE:
	.quad	_ZTVN10__cxxabiv120__si_class_type_infoE+16
	.quad	_ZTSN8opendnp39PLLS_IdleE
	.quad	_ZTIN8opendnp312PriStateBaseE
	.weak	_ZTSN8opendnp332PLLS_SendUnconfirmedTransmitWaitE
	.section	.rodata._ZTSN8opendnp332PLLS_SendUnconfirmedTransmitWaitE,"aG",@progbits,_ZTSN8opendnp332PLLS_SendUnconfirmedTransmitWaitE,comdat
	.align 32
	.type	_ZTSN8opendnp332PLLS_SendUnconfirmedTransmitWaitE, @object
	.size	_ZTSN8opendnp332PLLS_SendUnconfirmedTransmitWaitE, 46
_ZTSN8opendnp332PLLS_SendUnconfirmedTransmitWaitE:
	.string	"N8opendnp332PLLS_SendUnconfirmedTransmitWaitE"
	.weak	_ZTIN8opendnp332PLLS_SendUnconfirmedTransmitWaitE
	.section	.data.rel.ro._ZTIN8opendnp332PLLS_SendUnconfirmedTransmitWaitE,"awG",@progbits,_ZTIN8opendnp332PLLS_SendUnconfirmedTransmitWaitE,comdat
	.align 8
	.type	_ZTIN8opendnp332PLLS_SendUnconfirmedTransmitWaitE, @object
	.size	_ZTIN8opendnp332PLLS_SendUnconfirmedTransmitWaitE, 24
_ZTIN8opendnp332PLLS_SendUnconfirmedTransmitWaitE:
	.quad	_ZTVN10__cxxabiv120__si_class_type_infoE+16
	.quad	_ZTSN8opendnp332PLLS_SendUnconfirmedTransmitWaitE
	.quad	_ZTIN8opendnp312PriStateBaseE
	.weak	_ZTSN8opendnp326PLLS_LinkResetTransmitWaitE
	.section	.rodata._ZTSN8opendnp326PLLS_LinkResetTransmitWaitE,"aG",@progbits,_ZTSN8opendnp326PLLS_LinkResetTransmitWaitE,comdat
	.align 32
	.type	_ZTSN8opendnp326PLLS_LinkResetTransmitWaitE, @object
	.size	_ZTSN8opendnp326PLLS_LinkResetTransmitWaitE, 40
_ZTSN8opendnp326PLLS_LinkResetTransmitWaitE:
	.string	"N8opendnp326PLLS_LinkResetTransmitWaitE"
	.weak	_ZTIN8opendnp326PLLS_LinkResetTransmitWaitE
	.section	.data.rel.ro._ZTIN8opendnp326PLLS_LinkResetTransmitWaitE,"awG",@progbits,_ZTIN8opendnp326PLLS_LinkResetTransmitWaitE,comdat
	.align 8
	.type	_ZTIN8opendnp326PLLS_LinkResetTransmitWaitE, @object
	.size	_ZTIN8opendnp326PLLS_LinkResetTransmitWaitE, 24
_ZTIN8opendnp326PLLS_LinkResetTransmitWaitE:
	.quad	_ZTVN10__cxxabiv120__si_class_type_infoE+16
	.quad	_ZTSN8opendnp326PLLS_LinkResetTransmitWaitE
	.quad	_ZTIN8opendnp312PriStateBaseE
	.weak	_ZTSN8opendnp329PLLS_ConfUserDataTransmitWaitE
	.section	.rodata._ZTSN8opendnp329PLLS_ConfUserDataTransmitWaitE,"aG",@progbits,_ZTSN8opendnp329PLLS_ConfUserDataTransmitWaitE,comdat
	.align 32
	.type	_ZTSN8opendnp329PLLS_ConfUserDataTransmitWaitE, @object
	.size	_ZTSN8opendnp329PLLS_ConfUserDataTransmitWaitE, 43
_ZTSN8opendnp329PLLS_ConfUserDataTransmitWaitE:
	.string	"N8opendnp329PLLS_ConfUserDataTransmitWaitE"
	.weak	_ZTIN8opendnp329PLLS_ConfUserDataTransmitWaitE
	.section	.data.rel.ro._ZTIN8opendnp329PLLS_ConfUserDataTransmitWaitE,"awG",@progbits,_ZTIN8opendnp329PLLS_ConfUserDataTransmitWaitE,comdat
	.align 8
	.type	_ZTIN8opendnp329PLLS_ConfUserDataTransmitWaitE, @object
	.size	_ZTIN8opendnp329PLLS_ConfUserDataTransmitWaitE, 24
_ZTIN8opendnp329PLLS_ConfUserDataTransmitWaitE:
	.quad	_ZTVN10__cxxabiv120__si_class_type_infoE+16
	.quad	_ZTSN8opendnp329PLLS_ConfUserDataTransmitWaitE
	.quad	_ZTIN8opendnp312PriStateBaseE
	.weak	_ZTSN8opendnp334PLLS_RequestLinkStatusTransmitWaitE
	.section	.rodata._ZTSN8opendnp334PLLS_RequestLinkStatusTransmitWaitE,"aG",@progbits,_ZTSN8opendnp334PLLS_RequestLinkStatusTransmitWaitE,comdat
	.align 32
	.type	_ZTSN8opendnp334PLLS_RequestLinkStatusTransmitWaitE, @object
	.size	_ZTSN8opendnp334PLLS_RequestLinkStatusTransmitWaitE, 48
_ZTSN8opendnp334PLLS_RequestLinkStatusTransmitWaitE:
	.string	"N8opendnp334PLLS_RequestLinkStatusTransmitWaitE"
	.weak	_ZTIN8opendnp334PLLS_RequestLinkStatusTransmitWaitE
	.section	.data.rel.ro._ZTIN8opendnp334PLLS_RequestLinkStatusTransmitWaitE,"awG",@progbits,_ZTIN8opendnp334PLLS_RequestLinkStatusTransmitWaitE,comdat
	.align 8
	.type	_ZTIN8opendnp334PLLS_RequestLinkStatusTransmitWaitE, @object
	.size	_ZTIN8opendnp334PLLS_RequestLinkStatusTransmitWaitE, 24
_ZTIN8opendnp334PLLS_RequestLinkStatusTransmitWaitE:
	.quad	_ZTVN10__cxxabiv120__si_class_type_infoE+16
	.quad	_ZTSN8opendnp334PLLS_RequestLinkStatusTransmitWaitE
	.quad	_ZTIN8opendnp312PriStateBaseE
	.weak	_ZTSN8opendnp318PLLS_ResetLinkWaitE
	.section	.rodata._ZTSN8opendnp318PLLS_ResetLinkWaitE,"aG",@progbits,_ZTSN8opendnp318PLLS_ResetLinkWaitE,comdat
	.align 32
	.type	_ZTSN8opendnp318PLLS_ResetLinkWaitE, @object
	.size	_ZTSN8opendnp318PLLS_ResetLinkWaitE, 32
_ZTSN8opendnp318PLLS_ResetLinkWaitE:
	.string	"N8opendnp318PLLS_ResetLinkWaitE"
	.weak	_ZTIN8opendnp318PLLS_ResetLinkWaitE
	.section	.data.rel.ro._ZTIN8opendnp318PLLS_ResetLinkWaitE,"awG",@progbits,_ZTIN8opendnp318PLLS_ResetLinkWaitE,comdat
	.align 8
	.type	_ZTIN8opendnp318PLLS_ResetLinkWaitE, @object
	.size	_ZTIN8opendnp318PLLS_ResetLinkWaitE, 24
_ZTIN8opendnp318PLLS_ResetLinkWaitE:
	.quad	_ZTVN10__cxxabiv120__si_class_type_infoE+16
	.quad	_ZTSN8opendnp318PLLS_ResetLinkWaitE
	.quad	_ZTIN8opendnp312PriStateBaseE
	.weak	_ZTSN8opendnp317PLLS_ConfDataWaitE
	.section	.rodata._ZTSN8opendnp317PLLS_ConfDataWaitE,"aG",@progbits,_ZTSN8opendnp317PLLS_ConfDataWaitE,comdat
	.align 16
	.type	_ZTSN8opendnp317PLLS_ConfDataWaitE, @object
	.size	_ZTSN8opendnp317PLLS_ConfDataWaitE, 31
_ZTSN8opendnp317PLLS_ConfDataWaitE:
	.string	"N8opendnp317PLLS_ConfDataWaitE"
	.weak	_ZTIN8opendnp317PLLS_ConfDataWaitE
	.section	.data.rel.ro._ZTIN8opendnp317PLLS_ConfDataWaitE,"awG",@progbits,_ZTIN8opendnp317PLLS_ConfDataWaitE,comdat
	.align 8
	.type	_ZTIN8opendnp317PLLS_ConfDataWaitE, @object
	.size	_ZTIN8opendnp317PLLS_ConfDataWaitE, 24
_ZTIN8opendnp317PLLS_ConfDataWaitE:
	.quad	_ZTVN10__cxxabiv120__si_class_type_infoE+16
	.quad	_ZTSN8opendnp317PLLS_ConfDataWaitE
	.quad	_ZTIN8opendnp312PriStateBaseE
	.weak	_ZTSN8opendnp326PLLS_RequestLinkStatusWaitE
	.section	.rodata._ZTSN8opendnp326PLLS_RequestLinkStatusWaitE,"aG",@progbits,_ZTSN8opendnp326PLLS_RequestLinkStatusWaitE,comdat
	.align 32
	.type	_ZTSN8opendnp326PLLS_RequestLinkStatusWaitE, @object
	.size	_ZTSN8opendnp326PLLS_RequestLinkStatusWaitE, 40
_ZTSN8opendnp326PLLS_RequestLinkStatusWaitE:
	.string	"N8opendnp326PLLS_RequestLinkStatusWaitE"
	.weak	_ZTIN8opendnp326PLLS_RequestLinkStatusWaitE
	.section	.data.rel.ro._ZTIN8opendnp326PLLS_RequestLinkStatusWaitE,"awG",@progbits,_ZTIN8opendnp326PLLS_RequestLinkStatusWaitE,comdat
	.align 8
	.type	_ZTIN8opendnp326PLLS_RequestLinkStatusWaitE, @object
	.size	_ZTIN8opendnp326PLLS_RequestLinkStatusWaitE, 24
_ZTIN8opendnp326PLLS_RequestLinkStatusWaitE:
	.quad	_ZTVN10__cxxabiv120__si_class_type_infoE+16
	.quad	_ZTSN8opendnp326PLLS_RequestLinkStatusWaitE
	.quad	_ZTIN8opendnp312PriStateBaseE
	.weak	_ZTVN8opendnp312PriStateBaseE
	.section	.data.rel.ro._ZTVN8opendnp312PriStateBaseE,"awG",@progbits,_ZTVN8opendnp312PriStateBaseE,comdat
	.align 8
	.type	_ZTVN8opendnp312PriStateBaseE, @object
	.size	_ZTVN8opendnp312PriStateBaseE, 96
_ZTVN8opendnp312PriStateBaseE:
	.quad	0
	.quad	_ZTIN8opendnp312PriStateBaseE
	.quad	_ZN8opendnp312PriStateBase5OnAckERNS_11LinkContextEb
	.quad	_ZN8opendnp312PriStateBase6OnNackERNS_11LinkContextEb
	.quad	_ZN8opendnp312PriStateBase12OnLinkStatusERNS_11LinkContextEb
	.quad	_ZN8opendnp312PriStateBase14OnNotSupportedERNS_11LinkContextEb
	.quad	_ZN8opendnp312PriStateBase16OnTransmitResultERNS_11LinkContextEb
	.quad	_ZN8opendnp312PriStateBase9OnTimeoutERNS_11LinkContextE
	.quad	_ZN8opendnp312PriStateBase16TrySendConfirmedERNS_11LinkContextERNS_17ITransportSegmentE
	.quad	_ZN8opendnp312PriStateBase18TrySendUnconfirmedERNS_11LinkContextERNS_17ITransportSegmentE
	.quad	_ZN8opendnp312PriStateBase24TrySendRequestLinkStatusERNS_11LinkContextE
	.quad	__cxa_pure_virtual
	.weak	_ZTVN8opendnp39PLLS_IdleE
	.section	.data.rel.ro._ZTVN8opendnp39PLLS_IdleE,"awG",@progbits,_ZTVN8opendnp39PLLS_IdleE,comdat
	.align 8
	.type	_ZTVN8opendnp39PLLS_IdleE, @object
	.size	_ZTVN8opendnp39PLLS_IdleE, 96
_ZTVN8opendnp39PLLS_IdleE:
	.quad	0
	.quad	_ZTIN8opendnp39PLLS_IdleE
	.quad	_ZN8opendnp312PriStateBase5OnAckERNS_11LinkContextEb
	.quad	_ZN8opendnp312PriStateBase6OnNackERNS_11LinkContextEb
	.quad	_ZN8opendnp312PriStateBase12OnLinkStatusERNS_11LinkContextEb
	.quad	_ZN8opendnp312PriStateBase14OnNotSupportedERNS_11LinkContextEb
	.quad	_ZN8opendnp312PriStateBase16OnTransmitResultERNS_11LinkContextEb
	.quad	_ZN8opendnp312PriStateBase9OnTimeoutERNS_11LinkContextE
	.quad	_ZN8opendnp39PLLS_Idle16TrySendConfirmedERNS_11LinkContextERNS_17ITransportSegmentE
	.quad	_ZN8opendnp39PLLS_Idle18TrySendUnconfirmedERNS_11LinkContextERNS_17ITransportSegmentE
	.quad	_ZN8opendnp39PLLS_Idle24TrySendRequestLinkStatusERNS_11LinkContextE
	.quad	_ZNK8opendnp39PLLS_Idle4NameEv
	.weak	_ZTVN8opendnp332PLLS_SendUnconfirmedTransmitWaitE
	.section	.data.rel.ro._ZTVN8opendnp332PLLS_SendUnconfirmedTransmitWaitE,"awG",@progbits,_ZTVN8opendnp332PLLS_SendUnconfirmedTransmitWaitE,comdat
	.align 8
	.type	_ZTVN8opendnp332PLLS_SendUnconfirmedTransmitWaitE, @object
	.size	_ZTVN8opendnp332PLLS_SendUnconfirmedTransmitWaitE, 96
_ZTVN8opendnp332PLLS_SendUnconfirmedTransmitWaitE:
	.quad	0
	.quad	_ZTIN8opendnp332PLLS_SendUnconfirmedTransmitWaitE
	.quad	_ZN8opendnp312PriStateBase5OnAckERNS_11LinkContextEb
	.quad	_ZN8opendnp312PriStateBase6OnNackERNS_11LinkContextEb
	.quad	_ZN8opendnp312PriStateBase12OnLinkStatusERNS_11LinkContextEb
	.quad	_ZN8opendnp312PriStateBase14OnNotSupportedERNS_11LinkContextEb
	.quad	_ZN8opendnp332PLLS_SendUnconfirmedTransmitWait16OnTransmitResultERNS_11LinkContextEb
	.quad	_ZN8opendnp312PriStateBase9OnTimeoutERNS_11LinkContextE
	.quad	_ZN8opendnp312PriStateBase16TrySendConfirmedERNS_11LinkContextERNS_17ITransportSegmentE
	.quad	_ZN8opendnp312PriStateBase18TrySendUnconfirmedERNS_11LinkContextERNS_17ITransportSegmentE
	.quad	_ZN8opendnp312PriStateBase24TrySendRequestLinkStatusERNS_11LinkContextE
	.quad	_ZNK8opendnp332PLLS_SendUnconfirmedTransmitWait4NameEv
	.weak	_ZTVN8opendnp326PLLS_LinkResetTransmitWaitE
	.section	.data.rel.ro._ZTVN8opendnp326PLLS_LinkResetTransmitWaitE,"awG",@progbits,_ZTVN8opendnp326PLLS_LinkResetTransmitWaitE,comdat
	.align 8
	.type	_ZTVN8opendnp326PLLS_LinkResetTransmitWaitE, @object
	.size	_ZTVN8opendnp326PLLS_LinkResetTransmitWaitE, 96
_ZTVN8opendnp326PLLS_LinkResetTransmitWaitE:
	.quad	0
	.quad	_ZTIN8opendnp326PLLS_LinkResetTransmitWaitE
	.quad	_ZN8opendnp312PriStateBase5OnAckERNS_11LinkContextEb
	.quad	_ZN8opendnp312PriStateBase6OnNackERNS_11LinkContextEb
	.quad	_ZN8opendnp312PriStateBase12OnLinkStatusERNS_11LinkContextEb
	.quad	_ZN8opendnp312PriStateBase14OnNotSupportedERNS_11LinkContextEb
	.quad	_ZN8opendnp326PLLS_LinkResetTransmitWait16OnTransmitResultERNS_11LinkContextEb
	.quad	_ZN8opendnp312PriStateBase9OnTimeoutERNS_11LinkContextE
	.quad	_ZN8opendnp312PriStateBase16TrySendConfirmedERNS_11LinkContextERNS_17ITransportSegmentE
	.quad	_ZN8opendnp312PriStateBase18TrySendUnconfirmedERNS_11LinkContextERNS_17ITransportSegmentE
	.quad	_ZN8opendnp312PriStateBase24TrySendRequestLinkStatusERNS_11LinkContextE
	.quad	_ZNK8opendnp326PLLS_LinkResetTransmitWait4NameEv
	.weak	_ZTVN8opendnp329PLLS_ConfUserDataTransmitWaitE
	.section	.data.rel.ro._ZTVN8opendnp329PLLS_ConfUserDataTransmitWaitE,"awG",@progbits,_ZTVN8opendnp329PLLS_ConfUserDataTransmitWaitE,comdat
	.align 8
	.type	_ZTVN8opendnp329PLLS_ConfUserDataTransmitWaitE, @object
	.size	_ZTVN8opendnp329PLLS_ConfUserDataTransmitWaitE, 96
_ZTVN8opendnp329PLLS_ConfUserDataTransmitWaitE:
	.quad	0
	.quad	_ZTIN8opendnp329PLLS_ConfUserDataTransmitWaitE
	.quad	_ZN8opendnp312PriStateBase5OnAckERNS_11LinkContextEb
	.quad	_ZN8opendnp312PriStateBase6OnNackERNS_11LinkContextEb
	.quad	_ZN8opendnp312PriStateBase12OnLinkStatusERNS_11LinkContextEb
	.quad	_ZN8opendnp312PriStateBase14OnNotSupportedERNS_11LinkContextEb
	.quad	_ZN8opendnp329PLLS_ConfUserDataTransmitWait16OnTransmitResultERNS_11LinkContextEb
	.quad	_ZN8opendnp312PriStateBase9OnTimeoutERNS_11LinkContextE
	.quad	_ZN8opendnp312PriStateBase16TrySendConfirmedERNS_11LinkContextERNS_17ITransportSegmentE
	.quad	_ZN8opendnp312PriStateBase18TrySendUnconfirmedERNS_11LinkContextERNS_17ITransportSegmentE
	.quad	_ZN8opendnp312PriStateBase24TrySendRequestLinkStatusERNS_11LinkContextE
	.quad	_ZNK8opendnp329PLLS_ConfUserDataTransmitWait4NameEv
	.weak	_ZTVN8opendnp334PLLS_RequestLinkStatusTransmitWaitE
	.section	.data.rel.ro._ZTVN8opendnp334PLLS_RequestLinkStatusTransmitWaitE,"awG",@progbits,_ZTVN8opendnp334PLLS_RequestLinkStatusTransmitWaitE,comdat
	.align 8
	.type	_ZTVN8opendnp334PLLS_RequestLinkStatusTransmitWaitE, @object
	.size	_ZTVN8opendnp334PLLS_RequestLinkStatusTransmitWaitE, 96
_ZTVN8opendnp334PLLS_RequestLinkStatusTransmitWaitE:
	.quad	0
	.quad	_ZTIN8opendnp334PLLS_RequestLinkStatusTransmitWaitE
	.quad	_ZN8opendnp312PriStateBase5OnAckERNS_11LinkContextEb
	.quad	_ZN8opendnp312PriStateBase6OnNackERNS_11LinkContextEb
	.quad	_ZN8opendnp312PriStateBase12OnLinkStatusERNS_11LinkContextEb
	.quad	_ZN8opendnp312PriStateBase14OnNotSupportedERNS_11LinkContextEb
	.quad	_ZN8opendnp334PLLS_RequestLinkStatusTransmitWait16OnTransmitResultERNS_11LinkContextEb
	.quad	_ZN8opendnp312PriStateBase9OnTimeoutERNS_11LinkContextE
	.quad	_ZN8opendnp312PriStateBase16TrySendConfirmedERNS_11LinkContextERNS_17ITransportSegmentE
	.quad	_ZN8opendnp312PriStateBase18TrySendUnconfirmedERNS_11LinkContextERNS_17ITransportSegmentE
	.quad	_ZN8opendnp312PriStateBase24TrySendRequestLinkStatusERNS_11LinkContextE
	.quad	_ZNK8opendnp334PLLS_RequestLinkStatusTransmitWait4NameEv
	.weak	_ZTVN8opendnp318PLLS_ResetLinkWaitE
	.section	.data.rel.ro._ZTVN8opendnp318PLLS_ResetLinkWaitE,"awG",@progbits,_ZTVN8opendnp318PLLS_ResetLinkWaitE,comdat
	.align 8
	.type	_ZTVN8opendnp318PLLS_ResetLinkWaitE, @object
	.size	_ZTVN8opendnp318PLLS_ResetLinkWaitE, 96
_ZTVN8opendnp318PLLS_ResetLinkWaitE:
	.quad	0
	.quad	_ZTIN8opendnp318PLLS_ResetLinkWaitE
	.quad	_ZN8opendnp318PLLS_ResetLinkWait5OnAckERNS_11LinkContextEb
	.quad	_ZN8opendnp318PLLS_ResetLinkWait6OnNackERNS_11LinkContextEb
	.quad	_ZN8opendnp318PLLS_ResetLinkWait12OnLinkStatusERNS_11LinkContextEb
	.quad	_ZN8opendnp318PLLS_ResetLinkWait14OnNotSupportedERNS_11LinkContextEb
	.quad	_ZN8opendnp312PriStateBase16OnTransmitResultERNS_11LinkContextEb
	.quad	_ZN8opendnp318PLLS_ResetLinkWait9OnTimeoutERNS_11LinkContextE
	.quad	_ZN8opendnp312PriStateBase16TrySendConfirmedERNS_11LinkContextERNS_17ITransportSegmentE
	.quad	_ZN8opendnp312PriStateBase18TrySendUnconfirmedERNS_11LinkContextERNS_17ITransportSegmentE
	.quad	_ZN8opendnp312PriStateBase24TrySendRequestLinkStatusERNS_11LinkContextE
	.quad	_ZNK8opendnp318PLLS_ResetLinkWait4NameEv
	.weak	_ZTVN8opendnp317PLLS_ConfDataWaitE
	.section	.data.rel.ro._ZTVN8opendnp317PLLS_ConfDataWaitE,"awG",@progbits,_ZTVN8opendnp317PLLS_ConfDataWaitE,comdat
	.align 8
	.type	_ZTVN8opendnp317PLLS_ConfDataWaitE, @object
	.size	_ZTVN8opendnp317PLLS_ConfDataWaitE, 96
_ZTVN8opendnp317PLLS_ConfDataWaitE:
	.quad	0
	.quad	_ZTIN8opendnp317PLLS_ConfDataWaitE
	.quad	_ZN8opendnp317PLLS_ConfDataWait5OnAckERNS_11LinkContextEb
	.quad	_ZN8opendnp317PLLS_ConfDataWait6OnNackERNS_11LinkContextEb
	.quad	_ZN8opendnp317PLLS_ConfDataWait12OnLinkStatusERNS_11LinkContextEb
	.quad	_ZN8opendnp317PLLS_ConfDataWait14OnNotSupportedERNS_11LinkContextEb
	.quad	_ZN8opendnp312PriStateBase16OnTransmitResultERNS_11LinkContextEb
	.quad	_ZN8opendnp317PLLS_ConfDataWait9OnTimeoutERNS_11LinkContextE
	.quad	_ZN8opendnp312PriStateBase16TrySendConfirmedERNS_11LinkContextERNS_17ITransportSegmentE
	.quad	_ZN8opendnp312PriStateBase18TrySendUnconfirmedERNS_11LinkContextERNS_17ITransportSegmentE
	.quad	_ZN8opendnp312PriStateBase24TrySendRequestLinkStatusERNS_11LinkContextE
	.quad	_ZNK8opendnp317PLLS_ConfDataWait4NameEv
	.weak	_ZTVN8opendnp326PLLS_RequestLinkStatusWaitE
	.section	.data.rel.ro._ZTVN8opendnp326PLLS_RequestLinkStatusWaitE,"awG",@progbits,_ZTVN8opendnp326PLLS_RequestLinkStatusWaitE,comdat
	.align 8
	.type	_ZTVN8opendnp326PLLS_RequestLinkStatusWaitE, @object
	.size	_ZTVN8opendnp326PLLS_RequestLinkStatusWaitE, 96
_ZTVN8opendnp326PLLS_RequestLinkStatusWaitE:
	.quad	0
	.quad	_ZTIN8opendnp326PLLS_RequestLinkStatusWaitE
	.quad	_ZN8opendnp312PriStateBase5OnAckERNS_11LinkContextEb
	.quad	_ZN8opendnp326PLLS_RequestLinkStatusWait6OnNackERNS_11LinkContextEb
	.quad	_ZN8opendnp326PLLS_RequestLinkStatusWait12OnLinkStatusERNS_11LinkContextEb
	.quad	_ZN8opendnp326PLLS_RequestLinkStatusWait14OnNotSupportedERNS_11LinkContextEb
	.quad	_ZN8opendnp312PriStateBase16OnTransmitResultERNS_11LinkContextEb
	.quad	_ZN8opendnp326PLLS_RequestLinkStatusWait9OnTimeoutERNS_11LinkContextE
	.quad	_ZN8opendnp312PriStateBase16TrySendConfirmedERNS_11LinkContextERNS_17ITransportSegmentE
	.quad	_ZN8opendnp312PriStateBase18TrySendUnconfirmedERNS_11LinkContextERNS_17ITransportSegmentE
	.quad	_ZN8opendnp312PriStateBase24TrySendRequestLinkStatusERNS_11LinkContextE
	.quad	_ZNK8opendnp326PLLS_RequestLinkStatusWait4NameEv
	.globl	_ZN8opendnp326PLLS_RequestLinkStatusWait8instanceE
	.bss
	.align 8
	.type	_ZN8opendnp326PLLS_RequestLinkStatusWait8instanceE, @object
	.size	_ZN8opendnp326PLLS_RequestLinkStatusWait8instanceE, 8
_ZN8opendnp326PLLS_RequestLinkStatusWait8instanceE:
	.zero	8
	.globl	_ZN8opendnp317PLLS_ConfDataWait8instanceE
	.align 8
	.type	_ZN8opendnp317PLLS_ConfDataWait8instanceE, @object
	.size	_ZN8opendnp317PLLS_ConfDataWait8instanceE, 8
_ZN8opendnp317PLLS_ConfDataWait8instanceE:
	.zero	8
	.globl	_ZN8opendnp318PLLS_ResetLinkWait8instanceE
	.align 8
	.type	_ZN8opendnp318PLLS_ResetLinkWait8instanceE, @object
	.size	_ZN8opendnp318PLLS_ResetLinkWait8instanceE, 8
_ZN8opendnp318PLLS_ResetLinkWait8instanceE:
	.zero	8
	.globl	_ZN8opendnp334PLLS_RequestLinkStatusTransmitWait8instanceE
	.align 8
	.type	_ZN8opendnp334PLLS_RequestLinkStatusTransmitWait8instanceE, @object
	.size	_ZN8opendnp334PLLS_RequestLinkStatusTransmitWait8instanceE, 8
_ZN8opendnp334PLLS_RequestLinkStatusTransmitWait8instanceE:
	.zero	8
	.globl	_ZN8opendnp329PLLS_ConfUserDataTransmitWait8instanceE
	.align 8
	.type	_ZN8opendnp329PLLS_ConfUserDataTransmitWait8instanceE, @object
	.size	_ZN8opendnp329PLLS_ConfUserDataTransmitWait8instanceE, 8
_ZN8opendnp329PLLS_ConfUserDataTransmitWait8instanceE:
	.zero	8
	.globl	_ZN8opendnp326PLLS_LinkResetTransmitWait8instanceE
	.align 8
	.type	_ZN8opendnp326PLLS_LinkResetTransmitWait8instanceE, @object
	.size	_ZN8opendnp326PLLS_LinkResetTransmitWait8instanceE, 8
_ZN8opendnp326PLLS_LinkResetTransmitWait8instanceE:
	.zero	8
	.globl	_ZN8opendnp332PLLS_SendUnconfirmedTransmitWait8instanceE
	.align 8
	.type	_ZN8opendnp332PLLS_SendUnconfirmedTransmitWait8instanceE, @object
	.size	_ZN8opendnp332PLLS_SendUnconfirmedTransmitWait8instanceE, 8
_ZN8opendnp332PLLS_SendUnconfirmedTransmitWait8instanceE:
	.zero	8
	.globl	_ZN8opendnp39PLLS_Idle8instanceE
	.align 8
	.type	_ZN8opendnp39PLLS_Idle8instanceE, @object
	.size	_ZN8opendnp39PLLS_Idle8instanceE, 8
_ZN8opendnp39PLLS_Idle8instanceE:
	.zero	8
	.weak	__cxa_pure_virtual
	.ident	"GCC: (Debian 15.2.0-4) 15.2.0"
	.section	.note.GNU-stack,"",@progbits
