	.file	"SecLinkLayerStates.cpp"
	.text
	.section	.rodata._ZNK8opendnp313SLLS_NotReset4NameEv.str1.1,"aMS",@progbits,1
.LC0:
	.string	"SLLS_NotReset"
	.section	.text._ZNK8opendnp313SLLS_NotReset4NameEv,"axG",@progbits,_ZNK8opendnp313SLLS_NotReset4NameEv,comdat
	.align 2
	.p2align 4
	.weak	_ZNK8opendnp313SLLS_NotReset4NameEv
	.type	_ZNK8opendnp313SLLS_NotReset4NameEv, @function
_ZNK8opendnp313SLLS_NotReset4NameEv:
.LFB2260:
	.cfi_startproc
	leaq	.LC0(%rip), %rax
	ret
	.cfi_endproc
.LFE2260:
	.size	_ZNK8opendnp313SLLS_NotReset4NameEv, .-_ZNK8opendnp313SLLS_NotReset4NameEv
	.section	.rodata._ZNK8opendnp310SLLS_Reset4NameEv.str1.1,"aMS",@progbits,1
.LC1:
	.string	"SLLS_Reset"
	.section	.text._ZNK8opendnp310SLLS_Reset4NameEv,"axG",@progbits,_ZNK8opendnp310SLLS_Reset4NameEv,comdat
	.align 2
	.p2align 4
	.weak	_ZNK8opendnp310SLLS_Reset4NameEv
	.type	_ZNK8opendnp310SLLS_Reset4NameEv, @function
_ZNK8opendnp310SLLS_Reset4NameEv:
.LFB2265:
	.cfi_startproc
	leaq	.LC1(%rip), %rax
	ret
	.cfi_endproc
.LFE2265:
	.size	_ZNK8opendnp310SLLS_Reset4NameEv, .-_ZNK8opendnp310SLLS_Reset4NameEv
	.section	.rodata._ZNK8opendnp322SLLS_TransmitWaitReset4NameEv.str1.1,"aMS",@progbits,1
.LC2:
	.string	"SLLS_TransmitWaitReset"
	.section	.text._ZNK8opendnp322SLLS_TransmitWaitReset4NameEv,"axG",@progbits,_ZNK8opendnp322SLLS_TransmitWaitReset4NameEv,comdat
	.align 2
	.p2align 4
	.weak	_ZNK8opendnp322SLLS_TransmitWaitReset4NameEv
	.type	_ZNK8opendnp322SLLS_TransmitWaitReset4NameEv, @function
_ZNK8opendnp322SLLS_TransmitWaitReset4NameEv:
.LFB2270:
	.cfi_startproc
	leaq	.LC2(%rip), %rax
	ret
	.cfi_endproc
.LFE2270:
	.size	_ZNK8opendnp322SLLS_TransmitWaitReset4NameEv, .-_ZNK8opendnp322SLLS_TransmitWaitReset4NameEv
	.section	.rodata._ZNK8opendnp325SLLS_TransmitWaitNotReset4NameEv.str1.1,"aMS",@progbits,1
.LC3:
	.string	"SLLS_TransmitWaitNotReset"
	.section	.text._ZNK8opendnp325SLLS_TransmitWaitNotReset4NameEv,"axG",@progbits,_ZNK8opendnp325SLLS_TransmitWaitNotReset4NameEv,comdat
	.align 2
	.p2align 4
	.weak	_ZNK8opendnp325SLLS_TransmitWaitNotReset4NameEv
	.type	_ZNK8opendnp325SLLS_TransmitWaitNotReset4NameEv, @function
_ZNK8opendnp325SLLS_TransmitWaitNotReset4NameEv:
.LFB2275:
	.cfi_startproc
	leaq	.LC3(%rip), %rax
	ret
	.cfi_endproc
.LFE2275:
	.size	_ZNK8opendnp325SLLS_TransmitWaitNotReset4NameEv, .-_ZNK8opendnp325SLLS_TransmitWaitNotReset4NameEv
	.section	.text._ZN8opendnp321SLLS_TransmitWaitBaseINS_13SLLS_NotResetEE16OnTransmitResultERNS_11LinkContextEb,"axG",@progbits,_ZN8opendnp321SLLS_TransmitWaitBaseINS_13SLLS_NotResetEE16OnTransmitResultERNS_11LinkContextEb,comdat
	.align 2
	.p2align 4
	.weak	_ZN8opendnp321SLLS_TransmitWaitBaseINS_13SLLS_NotResetEE16OnTransmitResultERNS_11LinkContextEb
	.type	_ZN8opendnp321SLLS_TransmitWaitBaseINS_13SLLS_NotResetEE16OnTransmitResultERNS_11LinkContextEb, @function
_ZN8opendnp321SLLS_TransmitWaitBaseINS_13SLLS_NotResetEE16OnTransmitResultERNS_11LinkContextEb:
.LFB2974:
	.cfi_startproc
	movq	_ZN8opendnp313SLLS_NotReset8instanceE@GOTPCREL(%rip), %rax
	ret
	.cfi_endproc
.LFE2974:
	.size	_ZN8opendnp321SLLS_TransmitWaitBaseINS_13SLLS_NotResetEE16OnTransmitResultERNS_11LinkContextEb, .-_ZN8opendnp321SLLS_TransmitWaitBaseINS_13SLLS_NotResetEE16OnTransmitResultERNS_11LinkContextEb
	.section	.text._ZN8opendnp321SLLS_TransmitWaitBaseINS_10SLLS_ResetEE16OnTransmitResultERNS_11LinkContextEb,"axG",@progbits,_ZN8opendnp321SLLS_TransmitWaitBaseINS_10SLLS_ResetEE16OnTransmitResultERNS_11LinkContextEb,comdat
	.align 2
	.p2align 4
	.weak	_ZN8opendnp321SLLS_TransmitWaitBaseINS_10SLLS_ResetEE16OnTransmitResultERNS_11LinkContextEb
	.type	_ZN8opendnp321SLLS_TransmitWaitBaseINS_10SLLS_ResetEE16OnTransmitResultERNS_11LinkContextEb, @function
_ZN8opendnp321SLLS_TransmitWaitBaseINS_10SLLS_ResetEE16OnTransmitResultERNS_11LinkContextEb:
.LFB2979:
	.cfi_startproc
	movq	_ZN8opendnp310SLLS_Reset8instanceE@GOTPCREL(%rip), %rax
	ret
	.cfi_endproc
.LFE2979:
	.size	_ZN8opendnp321SLLS_TransmitWaitBaseINS_10SLLS_ResetEE16OnTransmitResultERNS_11LinkContextEb, .-_ZN8opendnp321SLLS_TransmitWaitBaseINS_10SLLS_ResetEE16OnTransmitResultERNS_11LinkContextEb
	.section	.rodata.str1.1,"aMS",@progbits,1
.LC4:
	.string	"Invalid event for state: %s"
	.section	.rodata.str1.8,"aMS",@progbits,1
	.align 8
.LC5:
	.string	"/opt/PLC/OpenPLC_v3/utils/dnp3_src/cpp/libs/src/opendnp3/link/SecLinkLayerStates.cpp(39)"
	.text
	.align 2
	.p2align 4
	.globl	_ZN8opendnp312SecStateBase16OnTransmitResultERNS_11LinkContextEb
	.type	_ZN8opendnp312SecStateBase16OnTransmitResultERNS_11LinkContextEb, @function
_ZN8opendnp312SecStateBase16OnTransmitResultERNS_11LinkContextEb:
.LFB2276:
	.cfi_startproc
	pushq	%r12
	.cfi_def_cfa_offset 16
	.cfi_offset 12, -16
	pushq	%rbp
	.cfi_def_cfa_offset 24
	.cfi_offset 6, -24
	movq	%rdi, %rbp
	pushq	%rbx
	.cfi_def_cfa_offset 32
	.cfi_offset 3, -32
	leaq	376(%rsi), %rbx
	movq	%rbx, %rdi
	subq	$144, %rsp
	.cfi_def_cfa_offset 176
	leaq	16(%rsp), %rsi
	movl	$2, 16(%rsp)
	call	_ZNK7openpal6Logger9IsEnabledERKNS_10LogFiltersE@PLT
	testb	%al, %al
	je	.L9
	movq	0(%rbp), %rax
	movq	%rbp, %rdi
	call	*40(%rax)
	leaq	.LC4(%rip), %rdx
	movl	$120, %esi
	leaq	16(%rsp), %rdi
	movq	%rax, %rcx
	xorl	%eax, %eax
	call	snprintf@PLT
	leaq	12(%rsp), %rsi
	leaq	16(%rsp), %rcx
	movq	%rbx, %rdi
	leaq	.LC5(%rip), %rdx
	movl	$2, 12(%rsp)
	call	_ZN7openpal6Logger3LogERKNS_10LogFiltersEPKcS5_@PLT
.L9:
	addq	$144, %rsp
	.cfi_def_cfa_offset 32
	movq	%rbp, %rax
	popq	%rbx
	.cfi_def_cfa_offset 24
	popq	%rbp
	.cfi_def_cfa_offset 16
	popq	%r12
	.cfi_def_cfa_offset 8
	ret
	.cfi_endproc
.LFE2276:
	.size	_ZN8opendnp312SecStateBase16OnTransmitResultERNS_11LinkContextEb, .-_ZN8opendnp312SecStateBase16OnTransmitResultERNS_11LinkContextEb
	.section	.rodata.str1.1
.LC6:
	.string	"TestLinkStatus ignored"
	.section	.rodata.str1.8
	.align 8
.LC7:
	.string	"/opt/PLC/OpenPLC_v3/utils/dnp3_src/cpp/libs/src/opendnp3/link/SecLinkLayerStates.cpp(51)"
	.text
	.align 2
	.p2align 4
	.globl	_ZN8opendnp313SLLS_NotReset16OnTestLinkStatusERNS_11LinkContextEb
	.type	_ZN8opendnp313SLLS_NotReset16OnTestLinkStatusERNS_11LinkContextEb, @function
_ZN8opendnp313SLLS_NotReset16OnTestLinkStatusERNS_11LinkContextEb:
.LFB2277:
	.cfi_startproc
	pushq	%r12
	.cfi_def_cfa_offset 16
	.cfi_offset 12, -16
	movq	%rdi, %r12
	pushq	%rbp
	.cfi_def_cfa_offset 24
	.cfi_offset 6, -24
	pushq	%rbx
	.cfi_def_cfa_offset 32
	.cfi_offset 3, -32
	leaq	376(%rsi), %rbx
	movq	%rbx, %rdi
	subq	$16, %rsp
	.cfi_def_cfa_offset 48
	addl	$1, 520(%rsi)
	leaq	12(%rsp), %rbp
	movl	$4, 12(%rsp)
	movq	%rbp, %rsi
	call	_ZNK7openpal6Logger9IsEnabledERKNS_10LogFiltersE@PLT
	testb	%al, %al
	jne	.L20
	addq	$16, %rsp
	.cfi_remember_state
	.cfi_def_cfa_offset 32
	movq	%r12, %rax
	popq	%rbx
	.cfi_def_cfa_offset 24
	popq	%rbp
	.cfi_def_cfa_offset 16
	popq	%r12
	.cfi_def_cfa_offset 8
	ret
	.p2align 4,,10
	.p2align 3
.L20:
	.cfi_restore_state
	movq	%rbp, %rsi
	movq	%rbx, %rdi
	leaq	.LC6(%rip), %rcx
	movl	$4, 12(%rsp)
	leaq	.LC7(%rip), %rdx
	call	_ZN7openpal6Logger3LogERKNS_10LogFiltersEPKcS5_@PLT
	addq	$16, %rsp
	.cfi_def_cfa_offset 32
	movq	%r12, %rax
	popq	%rbx
	.cfi_def_cfa_offset 24
	popq	%rbp
	.cfi_def_cfa_offset 16
	popq	%r12
	.cfi_def_cfa_offset 8
	ret
	.cfi_endproc
.LFE2277:
	.size	_ZN8opendnp313SLLS_NotReset16OnTestLinkStatusERNS_11LinkContextEb, .-_ZN8opendnp313SLLS_NotReset16OnTestLinkStatusERNS_11LinkContextEb
	.section	.rodata.str1.1
.LC8:
	.string	"ConfirmedUserData ignored"
	.section	.rodata.str1.8
	.align 8
.LC9:
	.string	"/opt/PLC/OpenPLC_v3/utils/dnp3_src/cpp/libs/src/opendnp3/link/SecLinkLayerStates.cpp(58)"
	.text
	.align 2
	.p2align 4
	.globl	_ZN8opendnp313SLLS_NotReset19OnConfirmedUserDataERNS_11LinkContextEbRKN7openpal6RSliceE
	.type	_ZN8opendnp313SLLS_NotReset19OnConfirmedUserDataERNS_11LinkContextEbRKN7openpal6RSliceE, @function
_ZN8opendnp313SLLS_NotReset19OnConfirmedUserDataERNS_11LinkContextEbRKN7openpal6RSliceE:
.LFB2278:
	.cfi_startproc
	pushq	%r12
	.cfi_def_cfa_offset 16
	.cfi_offset 12, -16
	movq	%rdi, %r12
	pushq	%rbp
	.cfi_def_cfa_offset 24
	.cfi_offset 6, -24
	pushq	%rbx
	.cfi_def_cfa_offset 32
	.cfi_offset 3, -32
	leaq	376(%rsi), %rbx
	movq	%rbx, %rdi
	subq	$16, %rsp
	.cfi_def_cfa_offset 48
	addl	$1, 520(%rsi)
	leaq	12(%rsp), %rbp
	movl	$4, 12(%rsp)
	movq	%rbp, %rsi
	call	_ZNK7openpal6Logger9IsEnabledERKNS_10LogFiltersE@PLT
	testb	%al, %al
	jne	.L27
	addq	$16, %rsp
	.cfi_remember_state
	.cfi_def_cfa_offset 32
	movq	%r12, %rax
	popq	%rbx
	.cfi_def_cfa_offset 24
	popq	%rbp
	.cfi_def_cfa_offset 16
	popq	%r12
	.cfi_def_cfa_offset 8
	ret
	.p2align 4,,10
	.p2align 3
.L27:
	.cfi_restore_state
	movq	%rbp, %rsi
	movq	%rbx, %rdi
	leaq	.LC8(%rip), %rcx
	movl	$4, 12(%rsp)
	leaq	.LC9(%rip), %rdx
	call	_ZN7openpal6Logger3LogERKNS_10LogFiltersEPKcS5_@PLT
	addq	$16, %rsp
	.cfi_def_cfa_offset 32
	movq	%r12, %rax
	popq	%rbx
	.cfi_def_cfa_offset 24
	popq	%rbp
	.cfi_def_cfa_offset 16
	popq	%r12
	.cfi_def_cfa_offset 8
	ret
	.cfi_endproc
.LFE2278:
	.size	_ZN8opendnp313SLLS_NotReset19OnConfirmedUserDataERNS_11LinkContextEbRKN7openpal6RSliceE, .-_ZN8opendnp313SLLS_NotReset19OnConfirmedUserDataERNS_11LinkContextEbRKN7openpal6RSliceE
	.section	.rodata._ZN8opendnp321SLLS_TransmitWaitBaseINS_10SLLS_ResetEE19OnConfirmedUserDataERNS_11LinkContextEbRKN7openpal6RSliceE.str1.8,"aMS",@progbits,1
	.align 8
.LC10:
	.string	"Ignoring link frame, remote is flooding"
	.align 8
.LC11:
	.string	"/opt/PLC/OpenPLC_v3/utils/dnp3_src/cpp/libs/src/opendnp3/link/SecLinkLayerStates.h(104)"
	.section	.text._ZN8opendnp321SLLS_TransmitWaitBaseINS_10SLLS_ResetEE19OnConfirmedUserDataERNS_11LinkContextEbRKN7openpal6RSliceE,"axG",@progbits,_ZN8opendnp321SLLS_TransmitWaitBaseINS_10SLLS_ResetEE19OnConfirmedUserDataERNS_11LinkContextEbRKN7openpal6RSliceE,comdat
	.align 2
	.p2align 4
	.weak	_ZN8opendnp321SLLS_TransmitWaitBaseINS_10SLLS_ResetEE19OnConfirmedUserDataERNS_11LinkContextEbRKN7openpal6RSliceE
	.type	_ZN8opendnp321SLLS_TransmitWaitBaseINS_10SLLS_ResetEE19OnConfirmedUserDataERNS_11LinkContextEbRKN7openpal6RSliceE, @function
_ZN8opendnp321SLLS_TransmitWaitBaseINS_10SLLS_ResetEE19OnConfirmedUserDataERNS_11LinkContextEbRKN7openpal6RSliceE:
.LFB2978:
	.cfi_startproc
	pushq	%r12
	.cfi_def_cfa_offset 16
	.cfi_offset 12, -16
	movq	%rdi, %r12
	pushq	%rbp
	.cfi_def_cfa_offset 24
	.cfi_offset 6, -24
	pushq	%rbx
	.cfi_def_cfa_offset 32
	.cfi_offset 3, -32
	leaq	376(%rsi), %rbx
	movq	%rbx, %rdi
	subq	$16, %rsp
	.cfi_def_cfa_offset 48
	leaq	12(%rsp), %rbp
	movl	$4, 12(%rsp)
	movq	%rbp, %rsi
	call	_ZNK7openpal6Logger9IsEnabledERKNS_10LogFiltersE@PLT
	testb	%al, %al
	jne	.L34
	addq	$16, %rsp
	.cfi_remember_state
	.cfi_def_cfa_offset 32
	movq	%r12, %rax
	popq	%rbx
	.cfi_def_cfa_offset 24
	popq	%rbp
	.cfi_def_cfa_offset 16
	popq	%r12
	.cfi_def_cfa_offset 8
	ret
	.p2align 4,,10
	.p2align 3
.L34:
	.cfi_restore_state
	movq	%rbp, %rsi
	movq	%rbx, %rdi
	leaq	.LC10(%rip), %rcx
	movl	$4, 12(%rsp)
	leaq	.LC11(%rip), %rdx
	call	_ZN7openpal6Logger3LogERKNS_10LogFiltersEPKcS5_@PLT
	addq	$16, %rsp
	.cfi_def_cfa_offset 32
	movq	%r12, %rax
	popq	%rbx
	.cfi_def_cfa_offset 24
	popq	%rbp
	.cfi_def_cfa_offset 16
	popq	%r12
	.cfi_def_cfa_offset 8
	ret
	.cfi_endproc
.LFE2978:
	.size	_ZN8opendnp321SLLS_TransmitWaitBaseINS_10SLLS_ResetEE19OnConfirmedUserDataERNS_11LinkContextEbRKN7openpal6RSliceE, .-_ZN8opendnp321SLLS_TransmitWaitBaseINS_10SLLS_ResetEE19OnConfirmedUserDataERNS_11LinkContextEbRKN7openpal6RSliceE
	.section	.rodata._ZN8opendnp321SLLS_TransmitWaitBaseINS_10SLLS_ResetEE16OnTestLinkStatusERNS_11LinkContextEb.str1.8,"aMS",@progbits,1
	.align 8
.LC12:
	.string	"/opt/PLC/OpenPLC_v3/utils/dnp3_src/cpp/libs/src/opendnp3/link/SecLinkLayerStates.h(97)"
	.section	.text._ZN8opendnp321SLLS_TransmitWaitBaseINS_10SLLS_ResetEE16OnTestLinkStatusERNS_11LinkContextEb,"axG",@progbits,_ZN8opendnp321SLLS_TransmitWaitBaseINS_10SLLS_ResetEE16OnTestLinkStatusERNS_11LinkContextEb,comdat
	.align 2
	.p2align 4
	.weak	_ZN8opendnp321SLLS_TransmitWaitBaseINS_10SLLS_ResetEE16OnTestLinkStatusERNS_11LinkContextEb
	.type	_ZN8opendnp321SLLS_TransmitWaitBaseINS_10SLLS_ResetEE16OnTestLinkStatusERNS_11LinkContextEb, @function
_ZN8opendnp321SLLS_TransmitWaitBaseINS_10SLLS_ResetEE16OnTestLinkStatusERNS_11LinkContextEb:
.LFB2977:
	.cfi_startproc
	pushq	%r12
	.cfi_def_cfa_offset 16
	.cfi_offset 12, -16
	movq	%rdi, %r12
	pushq	%rbp
	.cfi_def_cfa_offset 24
	.cfi_offset 6, -24
	pushq	%rbx
	.cfi_def_cfa_offset 32
	.cfi_offset 3, -32
	leaq	376(%rsi), %rbx
	movq	%rbx, %rdi
	subq	$16, %rsp
	.cfi_def_cfa_offset 48
	leaq	12(%rsp), %rbp
	movl	$4, 12(%rsp)
	movq	%rbp, %rsi
	call	_ZNK7openpal6Logger9IsEnabledERKNS_10LogFiltersE@PLT
	testb	%al, %al
	jne	.L41
	addq	$16, %rsp
	.cfi_remember_state
	.cfi_def_cfa_offset 32
	movq	%r12, %rax
	popq	%rbx
	.cfi_def_cfa_offset 24
	popq	%rbp
	.cfi_def_cfa_offset 16
	popq	%r12
	.cfi_def_cfa_offset 8
	ret
	.p2align 4,,10
	.p2align 3
.L41:
	.cfi_restore_state
	movq	%rbp, %rsi
	movq	%rbx, %rdi
	leaq	.LC10(%rip), %rcx
	movl	$4, 12(%rsp)
	leaq	.LC12(%rip), %rdx
	call	_ZN7openpal6Logger3LogERKNS_10LogFiltersEPKcS5_@PLT
	addq	$16, %rsp
	.cfi_def_cfa_offset 32
	movq	%r12, %rax
	popq	%rbx
	.cfi_def_cfa_offset 24
	popq	%rbp
	.cfi_def_cfa_offset 16
	popq	%r12
	.cfi_def_cfa_offset 8
	ret
	.cfi_endproc
.LFE2977:
	.size	_ZN8opendnp321SLLS_TransmitWaitBaseINS_10SLLS_ResetEE16OnTestLinkStatusERNS_11LinkContextEb, .-_ZN8opendnp321SLLS_TransmitWaitBaseINS_10SLLS_ResetEE16OnTestLinkStatusERNS_11LinkContextEb
	.section	.rodata._ZN8opendnp321SLLS_TransmitWaitBaseINS_10SLLS_ResetEE19OnRequestLinkStatusERNS_11LinkContextE.str1.8,"aMS",@progbits,1
	.align 8
.LC13:
	.string	"/opt/PLC/OpenPLC_v3/utils/dnp3_src/cpp/libs/src/opendnp3/link/SecLinkLayerStates.h(90)"
	.section	.text._ZN8opendnp321SLLS_TransmitWaitBaseINS_10SLLS_ResetEE19OnRequestLinkStatusERNS_11LinkContextE,"axG",@progbits,_ZN8opendnp321SLLS_TransmitWaitBaseINS_10SLLS_ResetEE19OnRequestLinkStatusERNS_11LinkContextE,comdat
	.align 2
	.p2align 4
	.weak	_ZN8opendnp321SLLS_TransmitWaitBaseINS_10SLLS_ResetEE19OnRequestLinkStatusERNS_11LinkContextE
	.type	_ZN8opendnp321SLLS_TransmitWaitBaseINS_10SLLS_ResetEE19OnRequestLinkStatusERNS_11LinkContextE, @function
_ZN8opendnp321SLLS_TransmitWaitBaseINS_10SLLS_ResetEE19OnRequestLinkStatusERNS_11LinkContextE:
.LFB2976:
	.cfi_startproc
	pushq	%r12
	.cfi_def_cfa_offset 16
	.cfi_offset 12, -16
	movq	%rdi, %r12
	pushq	%rbp
	.cfi_def_cfa_offset 24
	.cfi_offset 6, -24
	pushq	%rbx
	.cfi_def_cfa_offset 32
	.cfi_offset 3, -32
	leaq	376(%rsi), %rbx
	movq	%rbx, %rdi
	subq	$16, %rsp
	.cfi_def_cfa_offset 48
	leaq	12(%rsp), %rbp
	movl	$4, 12(%rsp)
	movq	%rbp, %rsi
	call	_ZNK7openpal6Logger9IsEnabledERKNS_10LogFiltersE@PLT
	testb	%al, %al
	jne	.L48
	addq	$16, %rsp
	.cfi_remember_state
	.cfi_def_cfa_offset 32
	movq	%r12, %rax
	popq	%rbx
	.cfi_def_cfa_offset 24
	popq	%rbp
	.cfi_def_cfa_offset 16
	popq	%r12
	.cfi_def_cfa_offset 8
	ret
	.p2align 4,,10
	.p2align 3
.L48:
	.cfi_restore_state
	movq	%rbp, %rsi
	movq	%rbx, %rdi
	leaq	.LC10(%rip), %rcx
	movl	$4, 12(%rsp)
	leaq	.LC13(%rip), %rdx
	call	_ZN7openpal6Logger3LogERKNS_10LogFiltersEPKcS5_@PLT
	addq	$16, %rsp
	.cfi_def_cfa_offset 32
	movq	%r12, %rax
	popq	%rbx
	.cfi_def_cfa_offset 24
	popq	%rbp
	.cfi_def_cfa_offset 16
	popq	%r12
	.cfi_def_cfa_offset 8
	ret
	.cfi_endproc
.LFE2976:
	.size	_ZN8opendnp321SLLS_TransmitWaitBaseINS_10SLLS_ResetEE19OnRequestLinkStatusERNS_11LinkContextE, .-_ZN8opendnp321SLLS_TransmitWaitBaseINS_10SLLS_ResetEE19OnRequestLinkStatusERNS_11LinkContextE
	.section	.rodata._ZN8opendnp321SLLS_TransmitWaitBaseINS_10SLLS_ResetEE17OnResetLinkStatesERNS_11LinkContextE.str1.8,"aMS",@progbits,1
	.align 8
.LC14:
	.string	"/opt/PLC/OpenPLC_v3/utils/dnp3_src/cpp/libs/src/opendnp3/link/SecLinkLayerStates.h(83)"
	.section	.text._ZN8opendnp321SLLS_TransmitWaitBaseINS_10SLLS_ResetEE17OnResetLinkStatesERNS_11LinkContextE,"axG",@progbits,_ZN8opendnp321SLLS_TransmitWaitBaseINS_10SLLS_ResetEE17OnResetLinkStatesERNS_11LinkContextE,comdat
	.align 2
	.p2align 4
	.weak	_ZN8opendnp321SLLS_TransmitWaitBaseINS_10SLLS_ResetEE17OnResetLinkStatesERNS_11LinkContextE
	.type	_ZN8opendnp321SLLS_TransmitWaitBaseINS_10SLLS_ResetEE17OnResetLinkStatesERNS_11LinkContextE, @function
_ZN8opendnp321SLLS_TransmitWaitBaseINS_10SLLS_ResetEE17OnResetLinkStatesERNS_11LinkContextE:
.LFB2975:
	.cfi_startproc
	pushq	%r12
	.cfi_def_cfa_offset 16
	.cfi_offset 12, -16
	movq	%rdi, %r12
	pushq	%rbp
	.cfi_def_cfa_offset 24
	.cfi_offset 6, -24
	pushq	%rbx
	.cfi_def_cfa_offset 32
	.cfi_offset 3, -32
	leaq	376(%rsi), %rbx
	movq	%rbx, %rdi
	subq	$16, %rsp
	.cfi_def_cfa_offset 48
	leaq	12(%rsp), %rbp
	movl	$4, 12(%rsp)
	movq	%rbp, %rsi
	call	_ZNK7openpal6Logger9IsEnabledERKNS_10LogFiltersE@PLT
	testb	%al, %al
	jne	.L55
	addq	$16, %rsp
	.cfi_remember_state
	.cfi_def_cfa_offset 32
	movq	%r12, %rax
	popq	%rbx
	.cfi_def_cfa_offset 24
	popq	%rbp
	.cfi_def_cfa_offset 16
	popq	%r12
	.cfi_def_cfa_offset 8
	ret
	.p2align 4,,10
	.p2align 3
.L55:
	.cfi_restore_state
	movq	%rbp, %rsi
	movq	%rbx, %rdi
	leaq	.LC10(%rip), %rcx
	movl	$4, 12(%rsp)
	leaq	.LC14(%rip), %rdx
	call	_ZN7openpal6Logger3LogERKNS_10LogFiltersEPKcS5_@PLT
	addq	$16, %rsp
	.cfi_def_cfa_offset 32
	movq	%r12, %rax
	popq	%rbx
	.cfi_def_cfa_offset 24
	popq	%rbp
	.cfi_def_cfa_offset 16
	popq	%r12
	.cfi_def_cfa_offset 8
	ret
	.cfi_endproc
.LFE2975:
	.size	_ZN8opendnp321SLLS_TransmitWaitBaseINS_10SLLS_ResetEE17OnResetLinkStatesERNS_11LinkContextE, .-_ZN8opendnp321SLLS_TransmitWaitBaseINS_10SLLS_ResetEE17OnResetLinkStatesERNS_11LinkContextE
	.section	.text._ZN8opendnp321SLLS_TransmitWaitBaseINS_13SLLS_NotResetEE19OnConfirmedUserDataERNS_11LinkContextEbRKN7openpal6RSliceE,"axG",@progbits,_ZN8opendnp321SLLS_TransmitWaitBaseINS_13SLLS_NotResetEE19OnConfirmedUserDataERNS_11LinkContextEbRKN7openpal6RSliceE,comdat
	.align 2
	.p2align 4
	.weak	_ZN8opendnp321SLLS_TransmitWaitBaseINS_13SLLS_NotResetEE19OnConfirmedUserDataERNS_11LinkContextEbRKN7openpal6RSliceE
	.type	_ZN8opendnp321SLLS_TransmitWaitBaseINS_13SLLS_NotResetEE19OnConfirmedUserDataERNS_11LinkContextEbRKN7openpal6RSliceE, @function
_ZN8opendnp321SLLS_TransmitWaitBaseINS_13SLLS_NotResetEE19OnConfirmedUserDataERNS_11LinkContextEbRKN7openpal6RSliceE:
.LFB2973:
	.cfi_startproc
	pushq	%r12
	.cfi_def_cfa_offset 16
	.cfi_offset 12, -16
	movq	%rdi, %r12
	pushq	%rbp
	.cfi_def_cfa_offset 24
	.cfi_offset 6, -24
	pushq	%rbx
	.cfi_def_cfa_offset 32
	.cfi_offset 3, -32
	leaq	376(%rsi), %rbx
	movq	%rbx, %rdi
	subq	$16, %rsp
	.cfi_def_cfa_offset 48
	leaq	12(%rsp), %rbp
	movl	$4, 12(%rsp)
	movq	%rbp, %rsi
	call	_ZNK7openpal6Logger9IsEnabledERKNS_10LogFiltersE@PLT
	testb	%al, %al
	jne	.L62
	addq	$16, %rsp
	.cfi_remember_state
	.cfi_def_cfa_offset 32
	movq	%r12, %rax
	popq	%rbx
	.cfi_def_cfa_offset 24
	popq	%rbp
	.cfi_def_cfa_offset 16
	popq	%r12
	.cfi_def_cfa_offset 8
	ret
	.p2align 4,,10
	.p2align 3
.L62:
	.cfi_restore_state
	movq	%rbp, %rsi
	movq	%rbx, %rdi
	leaq	.LC10(%rip), %rcx
	movl	$4, 12(%rsp)
	leaq	.LC11(%rip), %rdx
	call	_ZN7openpal6Logger3LogERKNS_10LogFiltersEPKcS5_@PLT
	addq	$16, %rsp
	.cfi_def_cfa_offset 32
	movq	%r12, %rax
	popq	%rbx
	.cfi_def_cfa_offset 24
	popq	%rbp
	.cfi_def_cfa_offset 16
	popq	%r12
	.cfi_def_cfa_offset 8
	ret
	.cfi_endproc
.LFE2973:
	.size	_ZN8opendnp321SLLS_TransmitWaitBaseINS_13SLLS_NotResetEE19OnConfirmedUserDataERNS_11LinkContextEbRKN7openpal6RSliceE, .-_ZN8opendnp321SLLS_TransmitWaitBaseINS_13SLLS_NotResetEE19OnConfirmedUserDataERNS_11LinkContextEbRKN7openpal6RSliceE
	.section	.text._ZN8opendnp321SLLS_TransmitWaitBaseINS_13SLLS_NotResetEE16OnTestLinkStatusERNS_11LinkContextEb,"axG",@progbits,_ZN8opendnp321SLLS_TransmitWaitBaseINS_13SLLS_NotResetEE16OnTestLinkStatusERNS_11LinkContextEb,comdat
	.align 2
	.p2align 4
	.weak	_ZN8opendnp321SLLS_TransmitWaitBaseINS_13SLLS_NotResetEE16OnTestLinkStatusERNS_11LinkContextEb
	.type	_ZN8opendnp321SLLS_TransmitWaitBaseINS_13SLLS_NotResetEE16OnTestLinkStatusERNS_11LinkContextEb, @function
_ZN8opendnp321SLLS_TransmitWaitBaseINS_13SLLS_NotResetEE16OnTestLinkStatusERNS_11LinkContextEb:
.LFB2972:
	.cfi_startproc
	pushq	%r12
	.cfi_def_cfa_offset 16
	.cfi_offset 12, -16
	movq	%rdi, %r12
	pushq	%rbp
	.cfi_def_cfa_offset 24
	.cfi_offset 6, -24
	pushq	%rbx
	.cfi_def_cfa_offset 32
	.cfi_offset 3, -32
	leaq	376(%rsi), %rbx
	movq	%rbx, %rdi
	subq	$16, %rsp
	.cfi_def_cfa_offset 48
	leaq	12(%rsp), %rbp
	movl	$4, 12(%rsp)
	movq	%rbp, %rsi
	call	_ZNK7openpal6Logger9IsEnabledERKNS_10LogFiltersE@PLT
	testb	%al, %al
	jne	.L69
	addq	$16, %rsp
	.cfi_remember_state
	.cfi_def_cfa_offset 32
	movq	%r12, %rax
	popq	%rbx
	.cfi_def_cfa_offset 24
	popq	%rbp
	.cfi_def_cfa_offset 16
	popq	%r12
	.cfi_def_cfa_offset 8
	ret
	.p2align 4,,10
	.p2align 3
.L69:
	.cfi_restore_state
	movq	%rbp, %rsi
	movq	%rbx, %rdi
	leaq	.LC10(%rip), %rcx
	movl	$4, 12(%rsp)
	leaq	.LC12(%rip), %rdx
	call	_ZN7openpal6Logger3LogERKNS_10LogFiltersEPKcS5_@PLT
	addq	$16, %rsp
	.cfi_def_cfa_offset 32
	movq	%r12, %rax
	popq	%rbx
	.cfi_def_cfa_offset 24
	popq	%rbp
	.cfi_def_cfa_offset 16
	popq	%r12
	.cfi_def_cfa_offset 8
	ret
	.cfi_endproc
.LFE2972:
	.size	_ZN8opendnp321SLLS_TransmitWaitBaseINS_13SLLS_NotResetEE16OnTestLinkStatusERNS_11LinkContextEb, .-_ZN8opendnp321SLLS_TransmitWaitBaseINS_13SLLS_NotResetEE16OnTestLinkStatusERNS_11LinkContextEb
	.section	.text._ZN8opendnp321SLLS_TransmitWaitBaseINS_13SLLS_NotResetEE19OnRequestLinkStatusERNS_11LinkContextE,"axG",@progbits,_ZN8opendnp321SLLS_TransmitWaitBaseINS_13SLLS_NotResetEE19OnRequestLinkStatusERNS_11LinkContextE,comdat
	.align 2
	.p2align 4
	.weak	_ZN8opendnp321SLLS_TransmitWaitBaseINS_13SLLS_NotResetEE19OnRequestLinkStatusERNS_11LinkContextE
	.type	_ZN8opendnp321SLLS_TransmitWaitBaseINS_13SLLS_NotResetEE19OnRequestLinkStatusERNS_11LinkContextE, @function
_ZN8opendnp321SLLS_TransmitWaitBaseINS_13SLLS_NotResetEE19OnRequestLinkStatusERNS_11LinkContextE:
.LFB2971:
	.cfi_startproc
	pushq	%r12
	.cfi_def_cfa_offset 16
	.cfi_offset 12, -16
	movq	%rdi, %r12
	pushq	%rbp
	.cfi_def_cfa_offset 24
	.cfi_offset 6, -24
	pushq	%rbx
	.cfi_def_cfa_offset 32
	.cfi_offset 3, -32
	leaq	376(%rsi), %rbx
	movq	%rbx, %rdi
	subq	$16, %rsp
	.cfi_def_cfa_offset 48
	leaq	12(%rsp), %rbp
	movl	$4, 12(%rsp)
	movq	%rbp, %rsi
	call	_ZNK7openpal6Logger9IsEnabledERKNS_10LogFiltersE@PLT
	testb	%al, %al
	jne	.L76
	addq	$16, %rsp
	.cfi_remember_state
	.cfi_def_cfa_offset 32
	movq	%r12, %rax
	popq	%rbx
	.cfi_def_cfa_offset 24
	popq	%rbp
	.cfi_def_cfa_offset 16
	popq	%r12
	.cfi_def_cfa_offset 8
	ret
	.p2align 4,,10
	.p2align 3
.L76:
	.cfi_restore_state
	movq	%rbp, %rsi
	movq	%rbx, %rdi
	leaq	.LC10(%rip), %rcx
	movl	$4, 12(%rsp)
	leaq	.LC13(%rip), %rdx
	call	_ZN7openpal6Logger3LogERKNS_10LogFiltersEPKcS5_@PLT
	addq	$16, %rsp
	.cfi_def_cfa_offset 32
	movq	%r12, %rax
	popq	%rbx
	.cfi_def_cfa_offset 24
	popq	%rbp
	.cfi_def_cfa_offset 16
	popq	%r12
	.cfi_def_cfa_offset 8
	ret
	.cfi_endproc
.LFE2971:
	.size	_ZN8opendnp321SLLS_TransmitWaitBaseINS_13SLLS_NotResetEE19OnRequestLinkStatusERNS_11LinkContextE, .-_ZN8opendnp321SLLS_TransmitWaitBaseINS_13SLLS_NotResetEE19OnRequestLinkStatusERNS_11LinkContextE
	.section	.text._ZN8opendnp321SLLS_TransmitWaitBaseINS_13SLLS_NotResetEE17OnResetLinkStatesERNS_11LinkContextE,"axG",@progbits,_ZN8opendnp321SLLS_TransmitWaitBaseINS_13SLLS_NotResetEE17OnResetLinkStatesERNS_11LinkContextE,comdat
	.align 2
	.p2align 4
	.weak	_ZN8opendnp321SLLS_TransmitWaitBaseINS_13SLLS_NotResetEE17OnResetLinkStatesERNS_11LinkContextE
	.type	_ZN8opendnp321SLLS_TransmitWaitBaseINS_13SLLS_NotResetEE17OnResetLinkStatesERNS_11LinkContextE, @function
_ZN8opendnp321SLLS_TransmitWaitBaseINS_13SLLS_NotResetEE17OnResetLinkStatesERNS_11LinkContextE:
.LFB2970:
	.cfi_startproc
	pushq	%r12
	.cfi_def_cfa_offset 16
	.cfi_offset 12, -16
	movq	%rdi, %r12
	pushq	%rbp
	.cfi_def_cfa_offset 24
	.cfi_offset 6, -24
	pushq	%rbx
	.cfi_def_cfa_offset 32
	.cfi_offset 3, -32
	leaq	376(%rsi), %rbx
	movq	%rbx, %rdi
	subq	$16, %rsp
	.cfi_def_cfa_offset 48
	leaq	12(%rsp), %rbp
	movl	$4, 12(%rsp)
	movq	%rbp, %rsi
	call	_ZNK7openpal6Logger9IsEnabledERKNS_10LogFiltersE@PLT
	testb	%al, %al
	jne	.L83
	addq	$16, %rsp
	.cfi_remember_state
	.cfi_def_cfa_offset 32
	movq	%r12, %rax
	popq	%rbx
	.cfi_def_cfa_offset 24
	popq	%rbp
	.cfi_def_cfa_offset 16
	popq	%r12
	.cfi_def_cfa_offset 8
	ret
	.p2align 4,,10
	.p2align 3
.L83:
	.cfi_restore_state
	movq	%rbp, %rsi
	movq	%rbx, %rdi
	leaq	.LC10(%rip), %rcx
	movl	$4, 12(%rsp)
	leaq	.LC14(%rip), %rdx
	call	_ZN7openpal6Logger3LogERKNS_10LogFiltersEPKcS5_@PLT
	addq	$16, %rsp
	.cfi_def_cfa_offset 32
	movq	%r12, %rax
	popq	%rbx
	.cfi_def_cfa_offset 24
	popq	%rbp
	.cfi_def_cfa_offset 16
	popq	%r12
	.cfi_def_cfa_offset 8
	ret
	.cfi_endproc
.LFE2970:
	.size	_ZN8opendnp321SLLS_TransmitWaitBaseINS_13SLLS_NotResetEE17OnResetLinkStatesERNS_11LinkContextE, .-_ZN8opendnp321SLLS_TransmitWaitBaseINS_13SLLS_NotResetEE17OnResetLinkStatesERNS_11LinkContextE
	.text
	.align 2
	.p2align 4
	.globl	_ZN8opendnp313SLLS_NotReset17OnResetLinkStatesERNS_11LinkContextE
	.type	_ZN8opendnp313SLLS_NotReset17OnResetLinkStatesERNS_11LinkContextE, @function
_ZN8opendnp313SLLS_NotReset17OnResetLinkStatesERNS_11LinkContextE:
.LFB2279:
	.cfi_startproc
	pushq	%rbx
	.cfi_def_cfa_offset 16
	.cfi_offset 3, -16
	movq	%rsi, %rdi
	movq	%rsi, %rbx
	call	_ZN8opendnp311LinkContext8QueueAckEv@PLT
	movb	$1, 504(%rbx)
	popq	%rbx
	.cfi_def_cfa_offset 8
	movq	_ZN8opendnp322SLLS_TransmitWaitReset8instanceE@GOTPCREL(%rip), %rax
	ret
	.cfi_endproc
.LFE2279:
	.size	_ZN8opendnp313SLLS_NotReset17OnResetLinkStatesERNS_11LinkContextE, .-_ZN8opendnp313SLLS_NotReset17OnResetLinkStatesERNS_11LinkContextE
	.globl	_ZN8opendnp310SLLS_Reset17OnResetLinkStatesERNS_11LinkContextE
	.set	_ZN8opendnp310SLLS_Reset17OnResetLinkStatesERNS_11LinkContextE,_ZN8opendnp313SLLS_NotReset17OnResetLinkStatesERNS_11LinkContextE
	.align 2
	.p2align 4
	.globl	_ZN8opendnp310SLLS_Reset19OnRequestLinkStatusERNS_11LinkContextE
	.type	_ZN8opendnp310SLLS_Reset19OnRequestLinkStatusERNS_11LinkContextE, @function
_ZN8opendnp310SLLS_Reset19OnRequestLinkStatusERNS_11LinkContextE:
.LFB2284:
	.cfi_startproc
	subq	$8, %rsp
	.cfi_def_cfa_offset 16
	movq	%rsi, %rdi
	call	_ZN8opendnp311LinkContext15QueueLinkStatusEv@PLT
	movq	_ZN8opendnp322SLLS_TransmitWaitReset8instanceE@GOTPCREL(%rip), %rax
	addq	$8, %rsp
	.cfi_def_cfa_offset 8
	ret
	.cfi_endproc
.LFE2284:
	.size	_ZN8opendnp310SLLS_Reset19OnRequestLinkStatusERNS_11LinkContextE, .-_ZN8opendnp310SLLS_Reset19OnRequestLinkStatusERNS_11LinkContextE
	.align 2
	.p2align 4
	.globl	_ZN8opendnp313SLLS_NotReset19OnRequestLinkStatusERNS_11LinkContextE
	.type	_ZN8opendnp313SLLS_NotReset19OnRequestLinkStatusERNS_11LinkContextE, @function
_ZN8opendnp313SLLS_NotReset19OnRequestLinkStatusERNS_11LinkContextE:
.LFB2280:
	.cfi_startproc
	subq	$8, %rsp
	.cfi_def_cfa_offset 16
	movq	%rsi, %rdi
	call	_ZN8opendnp311LinkContext15QueueLinkStatusEv@PLT
	movq	_ZN8opendnp325SLLS_TransmitWaitNotReset8instanceE@GOTPCREL(%rip), %rax
	addq	$8, %rsp
	.cfi_def_cfa_offset 8
	ret
	.cfi_endproc
.LFE2280:
	.size	_ZN8opendnp313SLLS_NotReset19OnRequestLinkStatusERNS_11LinkContextE, .-_ZN8opendnp313SLLS_NotReset19OnRequestLinkStatusERNS_11LinkContextE
	.section	.rodata.str1.8
	.align 8
.LC15:
	.string	"Received TestLinkStatus with invalid FCB"
	.align 8
.LC16:
	.string	"/opt/PLC/OpenPLC_v3/utils/dnp3_src/cpp/libs/src/opendnp3/link/SecLinkLayerStates.cpp(93)"
	.text
	.align 2
	.p2align 4
	.globl	_ZN8opendnp310SLLS_Reset16OnTestLinkStatusERNS_11LinkContextEb
	.type	_ZN8opendnp310SLLS_Reset16OnTestLinkStatusERNS_11LinkContextEb, @function
_ZN8opendnp310SLLS_Reset16OnTestLinkStatusERNS_11LinkContextEb:
.LFB2281:
	.cfi_startproc
	pushq	%r14
	.cfi_def_cfa_offset 16
	.cfi_offset 14, -16
	pushq	%rbx
	.cfi_def_cfa_offset 24
	.cfi_offset 3, -24
	subq	$40, %rsp
	.cfi_def_cfa_offset 64
	cmpb	%dl, 504(%rsi)
	jne	.L91
	movq	%rsi, %rdi
	movq	%rsi, 8(%rsp)
	call	_ZN8opendnp311LinkContext8QueueAckEv@PLT
	movq	8(%rsp), %rsi
	movq	_ZN8opendnp322SLLS_TransmitWaitReset8instanceE@GOTPCREL(%rip), %rax
	xorb	$1, 504(%rsi)
	addq	$40, %rsp
	.cfi_remember_state
	.cfi_def_cfa_offset 24
	popq	%rbx
	.cfi_def_cfa_offset 16
	popq	%r14
	.cfi_def_cfa_offset 8
	ret
	.p2align 4,,10
	.p2align 3
.L91:
	.cfi_restore_state
	movq	%rdi, %rbx
	leaq	376(%rsi), %rdi
	leaq	28(%rsp), %rsi
	movl	$4, 28(%rsp)
	movq	%rsi, 8(%rsp)
	movq	%rdi, %r14
	call	_ZNK7openpal6Logger9IsEnabledERKNS_10LogFiltersE@PLT
	movq	8(%rsp), %rsi
	testb	%al, %al
	jne	.L98
	movq	%rbx, %rax
.L99:
	addq	$40, %rsp
	.cfi_remember_state
	.cfi_def_cfa_offset 24
	popq	%rbx
	.cfi_def_cfa_offset 16
	popq	%r14
	.cfi_def_cfa_offset 8
	ret
	.p2align 4,,10
	.p2align 3
.L98:
	.cfi_restore_state
	leaq	.LC15(%rip), %rcx
	leaq	.LC16(%rip), %rdx
	movq	%r14, %rdi
	movl	$4, 28(%rsp)
	call	_ZN7openpal6Logger3LogERKNS_10LogFiltersEPKcS5_@PLT
	movq	%rbx, %rax
	jmp	.L99
	.cfi_endproc
.LFE2281:
	.size	_ZN8opendnp310SLLS_Reset16OnTestLinkStatusERNS_11LinkContextEb, .-_ZN8opendnp310SLLS_Reset16OnTestLinkStatusERNS_11LinkContextEb
	.section	.rodata.str1.1
.LC17:
	.string	"Confirmed data w/ wrong FCB"
	.section	.rodata.str1.8
	.align 8
.LC18:
	.string	"/opt/PLC/OpenPLC_v3/utils/dnp3_src/cpp/libs/src/opendnp3/link/SecLinkLayerStates.cpp(109)"
	.text
	.align 2
	.p2align 4
	.globl	_ZN8opendnp310SLLS_Reset19OnConfirmedUserDataERNS_11LinkContextEbRKN7openpal6RSliceE
	.type	_ZN8opendnp310SLLS_Reset19OnConfirmedUserDataERNS_11LinkContextEbRKN7openpal6RSliceE, @function
_ZN8opendnp310SLLS_Reset19OnConfirmedUserDataERNS_11LinkContextEbRKN7openpal6RSliceE:
.LFB2282:
	.cfi_startproc
	pushq	%r14
	.cfi_def_cfa_offset 16
	.cfi_offset 14, -16
	movq	%rsi, %rdi
	movq	%rcx, %r14
	pushq	%rbp
	.cfi_def_cfa_offset 24
	.cfi_offset 6, -24
	movl	%edx, %ebp
	pushq	%rbx
	.cfi_def_cfa_offset 32
	.cfi_offset 3, -32
	movq	%rsi, %rbx
	subq	$16, %rsp
	.cfi_def_cfa_offset 48
	call	_ZN8opendnp311LinkContext8QueueAckEv@PLT
	movzbl	504(%rbx), %eax
	cmpb	%bpl, %al
	je	.L107
	leaq	12(%rsp), %rbp
	leaq	376(%rbx), %rdi
	movl	$4, 12(%rsp)
	movq	%rbp, %rsi
	call	_ZNK7openpal6Logger9IsEnabledERKNS_10LogFiltersE@PLT
	testb	%al, %al
	jne	.L108
	movq	_ZN8opendnp322SLLS_TransmitWaitReset8instanceE@GOTPCREL(%rip), %rax
	addq	$16, %rsp
	.cfi_remember_state
	.cfi_def_cfa_offset 32
	popq	%rbx
	.cfi_def_cfa_offset 24
	popq	%rbp
	.cfi_def_cfa_offset 16
	popq	%r14
	.cfi_def_cfa_offset 8
	ret
	.p2align 4,,10
	.p2align 3
.L108:
	.cfi_restore_state
	movq	%rbp, %rsi
	leaq	376(%rbx), %rdi
	leaq	.LC17(%rip), %rcx
	movl	$4, 12(%rsp)
	leaq	.LC18(%rip), %rdx
	call	_ZN7openpal6Logger3LogERKNS_10LogFiltersEPKcS5_@PLT
	movq	_ZN8opendnp322SLLS_TransmitWaitReset8instanceE@GOTPCREL(%rip), %rax
	addq	$16, %rsp
	.cfi_remember_state
	.cfi_def_cfa_offset 32
	popq	%rbx
	.cfi_def_cfa_offset 24
	popq	%rbp
	.cfi_def_cfa_offset 16
	popq	%r14
	.cfi_def_cfa_offset 8
	ret
	.p2align 4,,10
	.p2align 3
.L107:
	.cfi_restore_state
	xorl	$1, %eax
	movq	%r14, %rsi
	movq	%rbx, %rdi
	movb	%al, 504(%rbx)
	call	_ZN8opendnp311LinkContext10PushDataUpERKN7openpal6RSliceE@PLT
	movq	_ZN8opendnp322SLLS_TransmitWaitReset8instanceE@GOTPCREL(%rip), %rax
	addq	$16, %rsp
	.cfi_def_cfa_offset 32
	popq	%rbx
	.cfi_def_cfa_offset 24
	popq	%rbp
	.cfi_def_cfa_offset 16
	popq	%r14
	.cfi_def_cfa_offset 8
	ret
	.cfi_endproc
.LFE2282:
	.size	_ZN8opendnp310SLLS_Reset19OnConfirmedUserDataERNS_11LinkContextEbRKN7openpal6RSliceE, .-_ZN8opendnp310SLLS_Reset19OnConfirmedUserDataERNS_11LinkContextEbRKN7openpal6RSliceE
	.section	.text.startup,"ax",@progbits
	.p2align 4
	.type	_GLOBAL__sub_I_SecLinkLayerStates.cpp, @function
_GLOBAL__sub_I_SecLinkLayerStates.cpp:
.LFB2987:
	.cfi_startproc
	movq	_ZTVN8opendnp313SLLS_NotResetE@GOTPCREL(%rip), %rdx
	movq	_ZN8opendnp313SLLS_NotReset8instanceE@GOTPCREL(%rip), %rax
	addq	$16, %rdx
	movq	%rdx, (%rax)
	movq	_ZTVN8opendnp310SLLS_ResetE@GOTPCREL(%rip), %rdx
	movq	_ZN8opendnp310SLLS_Reset8instanceE@GOTPCREL(%rip), %rax
	addq	$16, %rdx
	movq	%rdx, (%rax)
	movq	_ZTVN8opendnp322SLLS_TransmitWaitResetE@GOTPCREL(%rip), %rdx
	movq	_ZN8opendnp322SLLS_TransmitWaitReset8instanceE@GOTPCREL(%rip), %rax
	addq	$16, %rdx
	movq	%rdx, (%rax)
	movq	_ZTVN8opendnp325SLLS_TransmitWaitNotResetE@GOTPCREL(%rip), %rdx
	movq	_ZN8opendnp325SLLS_TransmitWaitNotReset8instanceE@GOTPCREL(%rip), %rax
	addq	$16, %rdx
	movq	%rdx, (%rax)
	ret
	.cfi_endproc
.LFE2987:
	.size	_GLOBAL__sub_I_SecLinkLayerStates.cpp, .-_GLOBAL__sub_I_SecLinkLayerStates.cpp
	.section	.init_array,"aw"
	.align 8
	.quad	_GLOBAL__sub_I_SecLinkLayerStates.cpp
	.weak	_ZTSN8opendnp312SecStateBaseE
	.section	.rodata._ZTSN8opendnp312SecStateBaseE,"aG",@progbits,_ZTSN8opendnp312SecStateBaseE,comdat
	.align 16
	.type	_ZTSN8opendnp312SecStateBaseE, @object
	.size	_ZTSN8opendnp312SecStateBaseE, 26
_ZTSN8opendnp312SecStateBaseE:
	.string	"N8opendnp312SecStateBaseE"
	.weak	_ZTIN8opendnp312SecStateBaseE
	.section	.data.rel.ro._ZTIN8opendnp312SecStateBaseE,"awG",@progbits,_ZTIN8opendnp312SecStateBaseE,comdat
	.align 8
	.type	_ZTIN8opendnp312SecStateBaseE, @object
	.size	_ZTIN8opendnp312SecStateBaseE, 16
_ZTIN8opendnp312SecStateBaseE:
	.quad	_ZTVN10__cxxabiv117__class_type_infoE+16
	.quad	_ZTSN8opendnp312SecStateBaseE
	.weak	_ZTSN8opendnp313SLLS_NotResetE
	.section	.rodata._ZTSN8opendnp313SLLS_NotResetE,"aG",@progbits,_ZTSN8opendnp313SLLS_NotResetE,comdat
	.align 16
	.type	_ZTSN8opendnp313SLLS_NotResetE, @object
	.size	_ZTSN8opendnp313SLLS_NotResetE, 27
_ZTSN8opendnp313SLLS_NotResetE:
	.string	"N8opendnp313SLLS_NotResetE"
	.weak	_ZTIN8opendnp313SLLS_NotResetE
	.section	.data.rel.ro._ZTIN8opendnp313SLLS_NotResetE,"awG",@progbits,_ZTIN8opendnp313SLLS_NotResetE,comdat
	.align 8
	.type	_ZTIN8opendnp313SLLS_NotResetE, @object
	.size	_ZTIN8opendnp313SLLS_NotResetE, 24
_ZTIN8opendnp313SLLS_NotResetE:
	.quad	_ZTVN10__cxxabiv120__si_class_type_infoE+16
	.quad	_ZTSN8opendnp313SLLS_NotResetE
	.quad	_ZTIN8opendnp312SecStateBaseE
	.weak	_ZTSN8opendnp310SLLS_ResetE
	.section	.rodata._ZTSN8opendnp310SLLS_ResetE,"aG",@progbits,_ZTSN8opendnp310SLLS_ResetE,comdat
	.align 16
	.type	_ZTSN8opendnp310SLLS_ResetE, @object
	.size	_ZTSN8opendnp310SLLS_ResetE, 24
_ZTSN8opendnp310SLLS_ResetE:
	.string	"N8opendnp310SLLS_ResetE"
	.weak	_ZTIN8opendnp310SLLS_ResetE
	.section	.data.rel.ro._ZTIN8opendnp310SLLS_ResetE,"awG",@progbits,_ZTIN8opendnp310SLLS_ResetE,comdat
	.align 8
	.type	_ZTIN8opendnp310SLLS_ResetE, @object
	.size	_ZTIN8opendnp310SLLS_ResetE, 24
_ZTIN8opendnp310SLLS_ResetE:
	.quad	_ZTVN10__cxxabiv120__si_class_type_infoE+16
	.quad	_ZTSN8opendnp310SLLS_ResetE
	.quad	_ZTIN8opendnp312SecStateBaseE
	.weak	_ZTSN8opendnp321SLLS_TransmitWaitBaseINS_10SLLS_ResetEEE
	.section	.rodata._ZTSN8opendnp321SLLS_TransmitWaitBaseINS_10SLLS_ResetEEE,"aG",@progbits,_ZTSN8opendnp321SLLS_TransmitWaitBaseINS_10SLLS_ResetEEE,comdat
	.align 32
	.type	_ZTSN8opendnp321SLLS_TransmitWaitBaseINS_10SLLS_ResetEEE, @object
	.size	_ZTSN8opendnp321SLLS_TransmitWaitBaseINS_10SLLS_ResetEEE, 53
_ZTSN8opendnp321SLLS_TransmitWaitBaseINS_10SLLS_ResetEEE:
	.string	"N8opendnp321SLLS_TransmitWaitBaseINS_10SLLS_ResetEEE"
	.weak	_ZTIN8opendnp321SLLS_TransmitWaitBaseINS_10SLLS_ResetEEE
	.section	.data.rel.ro._ZTIN8opendnp321SLLS_TransmitWaitBaseINS_10SLLS_ResetEEE,"awG",@progbits,_ZTIN8opendnp321SLLS_TransmitWaitBaseINS_10SLLS_ResetEEE,comdat
	.align 8
	.type	_ZTIN8opendnp321SLLS_TransmitWaitBaseINS_10SLLS_ResetEEE, @object
	.size	_ZTIN8opendnp321SLLS_TransmitWaitBaseINS_10SLLS_ResetEEE, 24
_ZTIN8opendnp321SLLS_TransmitWaitBaseINS_10SLLS_ResetEEE:
	.quad	_ZTVN10__cxxabiv120__si_class_type_infoE+16
	.quad	_ZTSN8opendnp321SLLS_TransmitWaitBaseINS_10SLLS_ResetEEE
	.quad	_ZTIN8opendnp312SecStateBaseE
	.weak	_ZTSN8opendnp322SLLS_TransmitWaitResetE
	.section	.rodata._ZTSN8opendnp322SLLS_TransmitWaitResetE,"aG",@progbits,_ZTSN8opendnp322SLLS_TransmitWaitResetE,comdat
	.align 32
	.type	_ZTSN8opendnp322SLLS_TransmitWaitResetE, @object
	.size	_ZTSN8opendnp322SLLS_TransmitWaitResetE, 36
_ZTSN8opendnp322SLLS_TransmitWaitResetE:
	.string	"N8opendnp322SLLS_TransmitWaitResetE"
	.weak	_ZTIN8opendnp322SLLS_TransmitWaitResetE
	.section	.data.rel.ro._ZTIN8opendnp322SLLS_TransmitWaitResetE,"awG",@progbits,_ZTIN8opendnp322SLLS_TransmitWaitResetE,comdat
	.align 8
	.type	_ZTIN8opendnp322SLLS_TransmitWaitResetE, @object
	.size	_ZTIN8opendnp322SLLS_TransmitWaitResetE, 24
_ZTIN8opendnp322SLLS_TransmitWaitResetE:
	.quad	_ZTVN10__cxxabiv120__si_class_type_infoE+16
	.quad	_ZTSN8opendnp322SLLS_TransmitWaitResetE
	.quad	_ZTIN8opendnp321SLLS_TransmitWaitBaseINS_10SLLS_ResetEEE
	.weak	_ZTSN8opendnp321SLLS_TransmitWaitBaseINS_13SLLS_NotResetEEE
	.section	.rodata._ZTSN8opendnp321SLLS_TransmitWaitBaseINS_13SLLS_NotResetEEE,"aG",@progbits,_ZTSN8opendnp321SLLS_TransmitWaitBaseINS_13SLLS_NotResetEEE,comdat
	.align 32
	.type	_ZTSN8opendnp321SLLS_TransmitWaitBaseINS_13SLLS_NotResetEEE, @object
	.size	_ZTSN8opendnp321SLLS_TransmitWaitBaseINS_13SLLS_NotResetEEE, 56
_ZTSN8opendnp321SLLS_TransmitWaitBaseINS_13SLLS_NotResetEEE:
	.string	"N8opendnp321SLLS_TransmitWaitBaseINS_13SLLS_NotResetEEE"
	.weak	_ZTIN8opendnp321SLLS_TransmitWaitBaseINS_13SLLS_NotResetEEE
	.section	.data.rel.ro._ZTIN8opendnp321SLLS_TransmitWaitBaseINS_13SLLS_NotResetEEE,"awG",@progbits,_ZTIN8opendnp321SLLS_TransmitWaitBaseINS_13SLLS_NotResetEEE,comdat
	.align 8
	.type	_ZTIN8opendnp321SLLS_TransmitWaitBaseINS_13SLLS_NotResetEEE, @object
	.size	_ZTIN8opendnp321SLLS_TransmitWaitBaseINS_13SLLS_NotResetEEE, 24
_ZTIN8opendnp321SLLS_TransmitWaitBaseINS_13SLLS_NotResetEEE:
	.quad	_ZTVN10__cxxabiv120__si_class_type_infoE+16
	.quad	_ZTSN8opendnp321SLLS_TransmitWaitBaseINS_13SLLS_NotResetEEE
	.quad	_ZTIN8opendnp312SecStateBaseE
	.weak	_ZTSN8opendnp325SLLS_TransmitWaitNotResetE
	.section	.rodata._ZTSN8opendnp325SLLS_TransmitWaitNotResetE,"aG",@progbits,_ZTSN8opendnp325SLLS_TransmitWaitNotResetE,comdat
	.align 32
	.type	_ZTSN8opendnp325SLLS_TransmitWaitNotResetE, @object
	.size	_ZTSN8opendnp325SLLS_TransmitWaitNotResetE, 39
_ZTSN8opendnp325SLLS_TransmitWaitNotResetE:
	.string	"N8opendnp325SLLS_TransmitWaitNotResetE"
	.weak	_ZTIN8opendnp325SLLS_TransmitWaitNotResetE
	.section	.data.rel.ro._ZTIN8opendnp325SLLS_TransmitWaitNotResetE,"awG",@progbits,_ZTIN8opendnp325SLLS_TransmitWaitNotResetE,comdat
	.align 8
	.type	_ZTIN8opendnp325SLLS_TransmitWaitNotResetE, @object
	.size	_ZTIN8opendnp325SLLS_TransmitWaitNotResetE, 24
_ZTIN8opendnp325SLLS_TransmitWaitNotResetE:
	.quad	_ZTVN10__cxxabiv120__si_class_type_infoE+16
	.quad	_ZTSN8opendnp325SLLS_TransmitWaitNotResetE
	.quad	_ZTIN8opendnp321SLLS_TransmitWaitBaseINS_13SLLS_NotResetEEE
	.weak	_ZTVN8opendnp322SLLS_TransmitWaitResetE
	.section	.data.rel.ro._ZTVN8opendnp322SLLS_TransmitWaitResetE,"awG",@progbits,_ZTVN8opendnp322SLLS_TransmitWaitResetE,comdat
	.align 8
	.type	_ZTVN8opendnp322SLLS_TransmitWaitResetE, @object
	.size	_ZTVN8opendnp322SLLS_TransmitWaitResetE, 64
_ZTVN8opendnp322SLLS_TransmitWaitResetE:
	.quad	0
	.quad	_ZTIN8opendnp322SLLS_TransmitWaitResetE
	.quad	_ZN8opendnp321SLLS_TransmitWaitBaseINS_10SLLS_ResetEE17OnResetLinkStatesERNS_11LinkContextE
	.quad	_ZN8opendnp321SLLS_TransmitWaitBaseINS_10SLLS_ResetEE19OnRequestLinkStatusERNS_11LinkContextE
	.quad	_ZN8opendnp321SLLS_TransmitWaitBaseINS_10SLLS_ResetEE16OnTestLinkStatusERNS_11LinkContextEb
	.quad	_ZN8opendnp321SLLS_TransmitWaitBaseINS_10SLLS_ResetEE19OnConfirmedUserDataERNS_11LinkContextEbRKN7openpal6RSliceE
	.quad	_ZN8opendnp321SLLS_TransmitWaitBaseINS_10SLLS_ResetEE16OnTransmitResultERNS_11LinkContextEb
	.quad	_ZNK8opendnp322SLLS_TransmitWaitReset4NameEv
	.weak	_ZTVN8opendnp325SLLS_TransmitWaitNotResetE
	.section	.data.rel.ro._ZTVN8opendnp325SLLS_TransmitWaitNotResetE,"awG",@progbits,_ZTVN8opendnp325SLLS_TransmitWaitNotResetE,comdat
	.align 8
	.type	_ZTVN8opendnp325SLLS_TransmitWaitNotResetE, @object
	.size	_ZTVN8opendnp325SLLS_TransmitWaitNotResetE, 64
_ZTVN8opendnp325SLLS_TransmitWaitNotResetE:
	.quad	0
	.quad	_ZTIN8opendnp325SLLS_TransmitWaitNotResetE
	.quad	_ZN8opendnp321SLLS_TransmitWaitBaseINS_13SLLS_NotResetEE17OnResetLinkStatesERNS_11LinkContextE
	.quad	_ZN8opendnp321SLLS_TransmitWaitBaseINS_13SLLS_NotResetEE19OnRequestLinkStatusERNS_11LinkContextE
	.quad	_ZN8opendnp321SLLS_TransmitWaitBaseINS_13SLLS_NotResetEE16OnTestLinkStatusERNS_11LinkContextEb
	.quad	_ZN8opendnp321SLLS_TransmitWaitBaseINS_13SLLS_NotResetEE19OnConfirmedUserDataERNS_11LinkContextEbRKN7openpal6RSliceE
	.quad	_ZN8opendnp321SLLS_TransmitWaitBaseINS_13SLLS_NotResetEE16OnTransmitResultERNS_11LinkContextEb
	.quad	_ZNK8opendnp325SLLS_TransmitWaitNotReset4NameEv
	.weak	_ZTVN8opendnp312SecStateBaseE
	.section	.data.rel.ro._ZTVN8opendnp312SecStateBaseE,"awG",@progbits,_ZTVN8opendnp312SecStateBaseE,comdat
	.align 8
	.type	_ZTVN8opendnp312SecStateBaseE, @object
	.size	_ZTVN8opendnp312SecStateBaseE, 64
_ZTVN8opendnp312SecStateBaseE:
	.quad	0
	.quad	_ZTIN8opendnp312SecStateBaseE
	.quad	__cxa_pure_virtual
	.quad	__cxa_pure_virtual
	.quad	__cxa_pure_virtual
	.quad	__cxa_pure_virtual
	.quad	_ZN8opendnp312SecStateBase16OnTransmitResultERNS_11LinkContextEb
	.quad	__cxa_pure_virtual
	.weak	_ZTVN8opendnp313SLLS_NotResetE
	.section	.data.rel.ro._ZTVN8opendnp313SLLS_NotResetE,"awG",@progbits,_ZTVN8opendnp313SLLS_NotResetE,comdat
	.align 8
	.type	_ZTVN8opendnp313SLLS_NotResetE, @object
	.size	_ZTVN8opendnp313SLLS_NotResetE, 64
_ZTVN8opendnp313SLLS_NotResetE:
	.quad	0
	.quad	_ZTIN8opendnp313SLLS_NotResetE
	.quad	_ZN8opendnp313SLLS_NotReset17OnResetLinkStatesERNS_11LinkContextE
	.quad	_ZN8opendnp313SLLS_NotReset19OnRequestLinkStatusERNS_11LinkContextE
	.quad	_ZN8opendnp313SLLS_NotReset16OnTestLinkStatusERNS_11LinkContextEb
	.quad	_ZN8opendnp313SLLS_NotReset19OnConfirmedUserDataERNS_11LinkContextEbRKN7openpal6RSliceE
	.quad	_ZN8opendnp312SecStateBase16OnTransmitResultERNS_11LinkContextEb
	.quad	_ZNK8opendnp313SLLS_NotReset4NameEv
	.weak	_ZTVN8opendnp310SLLS_ResetE
	.section	.data.rel.ro._ZTVN8opendnp310SLLS_ResetE,"awG",@progbits,_ZTVN8opendnp310SLLS_ResetE,comdat
	.align 8
	.type	_ZTVN8opendnp310SLLS_ResetE, @object
	.size	_ZTVN8opendnp310SLLS_ResetE, 64
_ZTVN8opendnp310SLLS_ResetE:
	.quad	0
	.quad	_ZTIN8opendnp310SLLS_ResetE
	.quad	_ZN8opendnp310SLLS_Reset17OnResetLinkStatesERNS_11LinkContextE
	.quad	_ZN8opendnp310SLLS_Reset19OnRequestLinkStatusERNS_11LinkContextE
	.quad	_ZN8opendnp310SLLS_Reset16OnTestLinkStatusERNS_11LinkContextEb
	.quad	_ZN8opendnp310SLLS_Reset19OnConfirmedUserDataERNS_11LinkContextEbRKN7openpal6RSliceE
	.quad	_ZN8opendnp312SecStateBase16OnTransmitResultERNS_11LinkContextEb
	.quad	_ZNK8opendnp310SLLS_Reset4NameEv
	.globl	_ZN8opendnp325SLLS_TransmitWaitNotReset8instanceE
	.bss
	.align 8
	.type	_ZN8opendnp325SLLS_TransmitWaitNotReset8instanceE, @object
	.size	_ZN8opendnp325SLLS_TransmitWaitNotReset8instanceE, 8
_ZN8opendnp325SLLS_TransmitWaitNotReset8instanceE:
	.zero	8
	.globl	_ZN8opendnp322SLLS_TransmitWaitReset8instanceE
	.align 8
	.type	_ZN8opendnp322SLLS_TransmitWaitReset8instanceE, @object
	.size	_ZN8opendnp322SLLS_TransmitWaitReset8instanceE, 8
_ZN8opendnp322SLLS_TransmitWaitReset8instanceE:
	.zero	8
	.globl	_ZN8opendnp310SLLS_Reset8instanceE
	.align 8
	.type	_ZN8opendnp310SLLS_Reset8instanceE, @object
	.size	_ZN8opendnp310SLLS_Reset8instanceE, 8
_ZN8opendnp310SLLS_Reset8instanceE:
	.zero	8
	.globl	_ZN8opendnp313SLLS_NotReset8instanceE
	.align 8
	.type	_ZN8opendnp313SLLS_NotReset8instanceE, @object
	.size	_ZN8opendnp313SLLS_NotReset8instanceE, 8
_ZN8opendnp313SLLS_NotReset8instanceE:
	.zero	8
	.weak	__cxa_pure_virtual
	.ident	"GCC: (Debian 15.2.0-4) 15.2.0"
	.section	.note.GNU-stack,"",@progbits
