	.file	"DatabaseConfigView.cpp"
	.text
	.align 2
	.p2align 4
	.globl	_ZN8opendnp318DatabaseConfigViewC2EN7openpal9ArrayViewINS_4CellINS_10BinarySpecEEEtEENS2_INS3_INS_19DoubleBitBinarySpecEEEtEENS2_INS3_INS_10AnalogSpecEEEtEENS2_INS3_INS_11CounterSpecEEEtEENS2_INS3_INS_17FrozenCounterSpecEEEtEENS2_INS3_INS_22BinaryOutputStatusSpecEEEtEENS2_INS3_INS_22AnalogOutputStatusSpecEEEtEENS2_INS3_INS_19TimeAndIntervalSpecEEEtEE
	.type	_ZN8opendnp318DatabaseConfigViewC2EN7openpal9ArrayViewINS_4CellINS_10BinarySpecEEEtEENS2_INS3_INS_19DoubleBitBinarySpecEEEtEENS2_INS3_INS_10AnalogSpecEEEtEENS2_INS3_INS_11CounterSpecEEEtEENS2_INS3_INS_17FrozenCounterSpecEEEtEENS2_INS3_INS_22BinaryOutputStatusSpecEEEtEENS2_INS3_INS_22AnalogOutputStatusSpecEEEtEENS2_INS3_INS_19TimeAndIntervalSpecEEEtEE, @function
_ZN8opendnp318DatabaseConfigViewC2EN7openpal9ArrayViewINS_4CellINS_10BinarySpecEEEtEENS2_INS3_INS_19DoubleBitBinarySpecEEEtEENS2_INS3_INS_10AnalogSpecEEEtEENS2_INS3_INS_11CounterSpecEEEtEENS2_INS3_INS_17FrozenCounterSpecEEEtEENS2_INS3_INS_22BinaryOutputStatusSpecEEEtEENS2_INS3_INS_22AnalogOutputStatusSpecEEEtEENS2_INS3_INS_19TimeAndIntervalSpecEEEtEE:
.LFB78:
	.cfi_startproc
	pushq	%r14
	.cfi_def_cfa_offset 16
	.cfi_offset 14, -16
	pushq	%rbx
	.cfi_def_cfa_offset 24
	.cfi_offset 3, -24
	movdqu	24(%rsp), %xmm0
	movq	%rsi, (%rdi)
	movups	%xmm0, 32(%rdi)
	movdqu	40(%rsp), %xmm0
	movq	%rdx, 8(%rdi)
	movups	%xmm0, 48(%rdi)
	movdqu	56(%rsp), %xmm0
	movq	%rcx, 16(%rdi)
	movups	%xmm0, 64(%rdi)
	movdqu	72(%rsp), %xmm0
	movq	%r8, 24(%rdi)
	movups	%xmm0, 80(%rdi)
	movdqu	88(%rsp), %xmm0
	movups	%xmm0, 96(%rdi)
	movdqu	104(%rsp), %xmm0
	popq	%rbx
	.cfi_def_cfa_offset 16
	popq	%r14
	.cfi_def_cfa_offset 8
	movups	%xmm0, 112(%rdi)
	ret
	.cfi_endproc
.LFE78:
	.size	_ZN8opendnp318DatabaseConfigViewC2EN7openpal9ArrayViewINS_4CellINS_10BinarySpecEEEtEENS2_INS3_INS_19DoubleBitBinarySpecEEEtEENS2_INS3_INS_10AnalogSpecEEEtEENS2_INS3_INS_11CounterSpecEEEtEENS2_INS3_INS_17FrozenCounterSpecEEEtEENS2_INS3_INS_22BinaryOutputStatusSpecEEEtEENS2_INS3_INS_22AnalogOutputStatusSpecEEEtEENS2_INS3_INS_19TimeAndIntervalSpecEEEtEE, .-_ZN8opendnp318DatabaseConfigViewC2EN7openpal9ArrayViewINS_4CellINS_10BinarySpecEEEtEENS2_INS3_INS_19DoubleBitBinarySpecEEEtEENS2_INS3_INS_10AnalogSpecEEEtEENS2_INS3_INS_11CounterSpecEEEtEENS2_INS3_INS_17FrozenCounterSpecEEEtEENS2_INS3_INS_22BinaryOutputStatusSpecEEEtEENS2_INS3_INS_22AnalogOutputStatusSpecEEEtEENS2_INS3_INS_19TimeAndIntervalSpecEEEtEE
	.globl	_ZN8opendnp318DatabaseConfigViewC1EN7openpal9ArrayViewINS_4CellINS_10BinarySpecEEEtEENS2_INS3_INS_19DoubleBitBinarySpecEEEtEENS2_INS3_INS_10AnalogSpecEEEtEENS2_INS3_INS_11CounterSpecEEEtEENS2_INS3_INS_17FrozenCounterSpecEEEtEENS2_INS3_INS_22BinaryOutputStatusSpecEEEtEENS2_INS3_INS_22AnalogOutputStatusSpecEEEtEENS2_INS3_INS_19TimeAndIntervalSpecEEEtEE
	.set	_ZN8opendnp318DatabaseConfigViewC1EN7openpal9ArrayViewINS_4CellINS_10BinarySpecEEEtEENS2_INS3_INS_19DoubleBitBinarySpecEEEtEENS2_INS3_INS_10AnalogSpecEEEtEENS2_INS3_INS_11CounterSpecEEEtEENS2_INS3_INS_17FrozenCounterSpecEEEtEENS2_INS3_INS_22BinaryOutputStatusSpecEEEtEENS2_INS3_INS_22AnalogOutputStatusSpecEEEtEENS2_INS3_INS_19TimeAndIntervalSpecEEEtEE,_ZN8opendnp318DatabaseConfigViewC2EN7openpal9ArrayViewINS_4CellINS_10BinarySpecEEEtEENS2_INS3_INS_19DoubleBitBinarySpecEEEtEENS2_INS3_INS_10AnalogSpecEEEtEENS2_INS3_INS_11CounterSpecEEEtEENS2_INS3_INS_17FrozenCounterSpecEEEtEENS2_INS3_INS_22BinaryOutputStatusSpecEEEtEENS2_INS3_INS_22AnalogOutputStatusSpecEEEtEENS2_INS3_INS_19TimeAndIntervalSpecEEEtEE
	.ident	"GCC: (Debian 15.2.0-4) 15.2.0"
	.section	.note.GNU-stack,"",@progbits
