	.file	"OutstationStates.cpp"
	.text
	.section	.text._ZN8opendnp315OutstationState6IsIdleEv,"axG",@progbits,_ZN8opendnp315OutstationState6IsIdleEv,comdat
	.align 2
	.p2align 4
	.weak	_ZN8opendnp315OutstationState6IsIdleEv
	.type	_ZN8opendnp315OutstationState6IsIdleEv, @function
_ZN8opendnp315OutstationState6IsIdleEv:
.LFB56:
	.cfi_startproc
	xorl	%eax, %eax
	ret
	.cfi_endproc
.LFE56:
	.size	_ZN8opendnp315OutstationState6IsIdleEv, .-_ZN8opendnp315OutstationState6IsIdleEv
	.section	.text._ZN8opendnp39StateIdle6IsIdleEv,"axG",@progbits,_ZN8opendnp39StateIdle6IsIdleEv,comdat
	.align 2
	.p2align 4
	.weak	_ZN8opendnp39StateIdle6IsIdleEv
	.type	_ZN8opendnp39StateIdle6IsIdleEv, @function
_ZN8opendnp39StateIdle6IsIdleEv:
.LFB57:
	.cfi_startproc
	movl	$1, %eax
	ret
	.cfi_endproc
.LFE57:
	.size	_ZN8opendnp39StateIdle6IsIdleEv, .-_ZN8opendnp39StateIdle6IsIdleEv
	.section	.rodata._ZN8opendnp39StateIdle4NameEv.str1.1,"aMS",@progbits,1
.LC0:
	.string	"Idle"
	.section	.text._ZN8opendnp39StateIdle4NameEv,"axG",@progbits,_ZN8opendnp39StateIdle4NameEv,comdat
	.align 2
	.p2align 4
	.weak	_ZN8opendnp39StateIdle4NameEv
	.type	_ZN8opendnp39StateIdle4NameEv, @function
_ZN8opendnp39StateIdle4NameEv:
.LFB58:
	.cfi_startproc
	leaq	.LC0(%rip), %rax
	ret
	.cfi_endproc
.LFE58:
	.size	_ZN8opendnp39StateIdle4NameEv, .-_ZN8opendnp39StateIdle4NameEv
	.section	.rodata._ZN8opendnp325StateSolicitedConfirmWait4NameEv.str1.1,"aMS",@progbits,1
.LC1:
	.string	"SolicitedConfirmWait"
	.section	.text._ZN8opendnp325StateSolicitedConfirmWait4NameEv,"axG",@progbits,_ZN8opendnp325StateSolicitedConfirmWait4NameEv,comdat
	.align 2
	.p2align 4
	.weak	_ZN8opendnp325StateSolicitedConfirmWait4NameEv
	.type	_ZN8opendnp325StateSolicitedConfirmWait4NameEv, @function
_ZN8opendnp325StateSolicitedConfirmWait4NameEv:
.LFB70:
	.cfi_startproc
	leaq	.LC1(%rip), %rax
	ret
	.cfi_endproc
.LFE70:
	.size	_ZN8opendnp325StateSolicitedConfirmWait4NameEv, .-_ZN8opendnp325StateSolicitedConfirmWait4NameEv
	.section	.rodata._ZN8opendnp327StateUnsolicitedConfirmWait4NameEv.str1.1,"aMS",@progbits,1
.LC2:
	.string	"UnsolicitedConfirmWait"
	.section	.text._ZN8opendnp327StateUnsolicitedConfirmWait4NameEv,"axG",@progbits,_ZN8opendnp327StateUnsolicitedConfirmWait4NameEv,comdat
	.align 2
	.p2align 4
	.weak	_ZN8opendnp327StateUnsolicitedConfirmWait4NameEv
	.type	_ZN8opendnp327StateUnsolicitedConfirmWait4NameEv, @function
_ZN8opendnp327StateUnsolicitedConfirmWait4NameEv:
.LFB75:
	.cfi_startproc
	leaq	.LC2(%rip), %rax
	ret
	.cfi_endproc
.LFE75:
	.size	_ZN8opendnp327StateUnsolicitedConfirmWait4NameEv, .-_ZN8opendnp327StateUnsolicitedConfirmWait4NameEv
	.section	.text._ZN8opendnp39StateIdleD2Ev,"axG",@progbits,_ZN8opendnp39StateIdleD5Ev,comdat
	.align 2
	.p2align 4
	.weak	_ZN8opendnp39StateIdleD2Ev
	.type	_ZN8opendnp39StateIdleD2Ev, @function
_ZN8opendnp39StateIdleD2Ev:
.LFB3510:
	.cfi_startproc
	ret
	.cfi_endproc
.LFE3510:
	.size	_ZN8opendnp39StateIdleD2Ev, .-_ZN8opendnp39StateIdleD2Ev
	.weak	_ZN8opendnp39StateIdleD1Ev
	.set	_ZN8opendnp39StateIdleD1Ev,_ZN8opendnp39StateIdleD2Ev
	.section	.text._ZN8opendnp325StateSolicitedConfirmWaitD2Ev,"axG",@progbits,_ZN8opendnp325StateSolicitedConfirmWaitD5Ev,comdat
	.align 2
	.p2align 4
	.weak	_ZN8opendnp325StateSolicitedConfirmWaitD2Ev
	.type	_ZN8opendnp325StateSolicitedConfirmWaitD2Ev, @function
_ZN8opendnp325StateSolicitedConfirmWaitD2Ev:
.LFB3513:
	.cfi_startproc
	ret
	.cfi_endproc
.LFE3513:
	.size	_ZN8opendnp325StateSolicitedConfirmWaitD2Ev, .-_ZN8opendnp325StateSolicitedConfirmWaitD2Ev
	.weak	_ZN8opendnp325StateSolicitedConfirmWaitD1Ev
	.set	_ZN8opendnp325StateSolicitedConfirmWaitD1Ev,_ZN8opendnp325StateSolicitedConfirmWaitD2Ev
	.section	.text._ZN8opendnp327StateUnsolicitedConfirmWaitD2Ev,"axG",@progbits,_ZN8opendnp327StateUnsolicitedConfirmWaitD5Ev,comdat
	.align 2
	.p2align 4
	.weak	_ZN8opendnp327StateUnsolicitedConfirmWaitD2Ev
	.type	_ZN8opendnp327StateUnsolicitedConfirmWaitD2Ev, @function
_ZN8opendnp327StateUnsolicitedConfirmWaitD2Ev:
.LFB3516:
	.cfi_startproc
	ret
	.cfi_endproc
.LFE3516:
	.size	_ZN8opendnp327StateUnsolicitedConfirmWaitD2Ev, .-_ZN8opendnp327StateUnsolicitedConfirmWaitD2Ev
	.weak	_ZN8opendnp327StateUnsolicitedConfirmWaitD1Ev
	.set	_ZN8opendnp327StateUnsolicitedConfirmWaitD1Ev,_ZN8opendnp327StateUnsolicitedConfirmWaitD2Ev
	.section	.rodata.str1.8,"aMS",@progbits,1
	.align 8
.LC3:
	.string	"unexpected confirm while IDLE with sequence: %u"
	.align 8
.LC4:
	.string	"/opt/PLC/OpenPLC_v3/utils/dnp3_src/cpp/libs/src/opendnp3/outstation/OutstationStates.cpp(40)"
	.text
	.align 2
	.p2align 4
	.globl	_ZN8opendnp39StateIdle9OnConfirmERNS_8OContextERKNS_10APDUHeaderE
	.type	_ZN8opendnp39StateIdle9OnConfirmERNS_8OContextERKNS_10APDUHeaderE, @function
_ZN8opendnp39StateIdle9OnConfirmERNS_8OContextERKNS_10APDUHeaderE:
.LFB2689:
	.cfi_startproc
	pushq	%r14
	.cfi_def_cfa_offset 16
	.cfi_offset 14, -16
	movq	%rdx, %r14
	pushq	%rbp
	.cfi_def_cfa_offset 24
	.cfi_offset 6, -24
	pushq	%rbx
	.cfi_def_cfa_offset 32
	.cfi_offset 3, -32
	leaq	8(%rsi), %rbx
	movq	%rbx, %rdi
	subq	$144, %rsp
	.cfi_def_cfa_offset 176
	leaq	16(%rsp), %rbp
	movl	$4, 16(%rsp)
	movq	%rbp, %rsi
	call	_ZNK7openpal6Logger9IsEnabledERKNS_10LogFiltersE@PLT
	testb	%al, %al
	jne	.L16
.L11:
	movq	_ZN8opendnp39StateIdle8instanceE@GOTPCREL(%rip), %rax
	addq	$144, %rsp
	.cfi_remember_state
	.cfi_def_cfa_offset 32
	popq	%rbx
	.cfi_def_cfa_offset 24
	popq	%rbp
	.cfi_def_cfa_offset 16
	popq	%r14
	.cfi_def_cfa_offset 8
	ret
	.p2align 4,,10
	.p2align 3
.L16:
	.cfi_restore_state
	movzbl	5(%r14), %ecx
	movq	%rbp, %rdi
	movl	$120, %esi
	xorl	%eax, %eax
	leaq	.LC3(%rip), %rdx
	call	snprintf@PLT
	leaq	12(%rsp), %rsi
	movq	%rbp, %rcx
	movq	%rbx, %rdi
	leaq	.LC4(%rip), %rdx
	movl	$4, 12(%rsp)
	call	_ZN7openpal6Logger3LogERKNS_10LogFiltersEPKcS5_@PLT
	jmp	.L11
	.cfi_endproc
.LFE2689:
	.size	_ZN8opendnp39StateIdle9OnConfirmERNS_8OContextERKNS_10APDUHeaderE, .-_ZN8opendnp39StateIdle9OnConfirmERNS_8OContextERKNS_10APDUHeaderE
	.section	.rodata.str1.1,"aMS",@progbits,1
.LC5:
	.string	"unexpected confirm timeout"
	.section	.rodata.str1.8
	.align 8
.LC6:
	.string	"/opt/PLC/OpenPLC_v3/utils/dnp3_src/cpp/libs/src/opendnp3/outstation/OutstationStates.cpp(46)"
	.text
	.align 2
	.p2align 4
	.globl	_ZN8opendnp39StateIdle16OnConfirmTimeoutERNS_8OContextE
	.type	_ZN8opendnp39StateIdle16OnConfirmTimeoutERNS_8OContextE, @function
_ZN8opendnp39StateIdle16OnConfirmTimeoutERNS_8OContextE:
.LFB2690:
	.cfi_startproc
	pushq	%rbp
	.cfi_def_cfa_offset 16
	.cfi_offset 6, -16
	pushq	%rbx
	.cfi_def_cfa_offset 24
	.cfi_offset 3, -24
	leaq	8(%rsi), %rbx
	movq	%rbx, %rdi
	subq	$24, %rsp
	.cfi_def_cfa_offset 48
	leaq	12(%rsp), %rbp
	movl	$4, 12(%rsp)
	movq	%rbp, %rsi
	call	_ZNK7openpal6Logger9IsEnabledERKNS_10LogFiltersE@PLT
	testb	%al, %al
	jne	.L23
	movq	_ZN8opendnp39StateIdle8instanceE@GOTPCREL(%rip), %rax
	addq	$24, %rsp
	.cfi_remember_state
	.cfi_def_cfa_offset 24
	popq	%rbx
	.cfi_def_cfa_offset 16
	popq	%rbp
	.cfi_def_cfa_offset 8
	ret
	.p2align 4,,10
	.p2align 3
.L23:
	.cfi_restore_state
	movq	%rbp, %rsi
	movq	%rbx, %rdi
	leaq	.LC5(%rip), %rcx
	movl	$4, 12(%rsp)
	leaq	.LC6(%rip), %rdx
	call	_ZN7openpal6Logger3LogERKNS_10LogFiltersEPKcS5_@PLT
	movq	_ZN8opendnp39StateIdle8instanceE@GOTPCREL(%rip), %rax
	addq	$24, %rsp
	.cfi_def_cfa_offset 24
	popq	%rbx
	.cfi_def_cfa_offset 16
	popq	%rbp
	.cfi_def_cfa_offset 8
	ret
	.cfi_endproc
.LFE2690:
	.size	_ZN8opendnp39StateIdle16OnConfirmTimeoutERNS_8OContextE, .-_ZN8opendnp39StateIdle16OnConfirmTimeoutERNS_8OContextE
	.section	.rodata.str1.1
.LC7:
	.string	"solicited confirm timeout"
	.section	.rodata.str1.8
	.align 8
.LC8:
	.string	"/opt/PLC/OpenPLC_v3/utils/dnp3_src/cpp/libs/src/opendnp3/outstation/OutstationStates.cpp(108)"
	.text
	.align 2
	.p2align 4
	.globl	_ZN8opendnp325StateSolicitedConfirmWait16OnConfirmTimeoutERNS_8OContextE
	.type	_ZN8opendnp325StateSolicitedConfirmWait16OnConfirmTimeoutERNS_8OContextE, @function
_ZN8opendnp325StateSolicitedConfirmWait16OnConfirmTimeoutERNS_8OContextE:
.LFB2696:
	.cfi_startproc
	pushq	%rbp
	.cfi_def_cfa_offset 16
	.cfi_offset 6, -16
	pushq	%rbx
	.cfi_def_cfa_offset 24
	.cfi_offset 3, -24
	leaq	8(%rsi), %rbx
	movq	%rbx, %rdi
	subq	$24, %rsp
	.cfi_def_cfa_offset 48
	leaq	12(%rsp), %rbp
	movl	$4, 12(%rsp)
	movq	%rbp, %rsi
	call	_ZNK7openpal6Logger9IsEnabledERKNS_10LogFiltersE@PLT
	testb	%al, %al
	jne	.L30
	movq	_ZN8opendnp39StateIdle8instanceE@GOTPCREL(%rip), %rax
	addq	$24, %rsp
	.cfi_remember_state
	.cfi_def_cfa_offset 24
	popq	%rbx
	.cfi_def_cfa_offset 16
	popq	%rbp
	.cfi_def_cfa_offset 8
	ret
	.p2align 4,,10
	.p2align 3
.L30:
	.cfi_restore_state
	movq	%rbp, %rsi
	movq	%rbx, %rdi
	leaq	.LC7(%rip), %rcx
	movl	$4, 12(%rsp)
	leaq	.LC8(%rip), %rdx
	call	_ZN7openpal6Logger3LogERKNS_10LogFiltersEPKcS5_@PLT
	movq	_ZN8opendnp39StateIdle8instanceE@GOTPCREL(%rip), %rax
	addq	$24, %rsp
	.cfi_def_cfa_offset 24
	popq	%rbx
	.cfi_def_cfa_offset 16
	popq	%rbp
	.cfi_def_cfa_offset 8
	ret
	.cfi_endproc
.LFE2696:
	.size	_ZN8opendnp325StateSolicitedConfirmWait16OnConfirmTimeoutERNS_8OContextE, .-_ZN8opendnp325StateSolicitedConfirmWait16OnConfirmTimeoutERNS_8OContextE
	.align 2
	.p2align 4
	.globl	_ZN8opendnp39StateIdle16OnNewReadRequestERNS_8OContextERKNS_10APDUHeaderERKN7openpal6RSliceE
	.type	_ZN8opendnp39StateIdle16OnNewReadRequestERNS_8OContextERKNS_10APDUHeaderERKN7openpal6RSliceE, @function
_ZN8opendnp39StateIdle16OnNewReadRequestERNS_8OContextERKNS_10APDUHeaderERKN7openpal6RSliceE:
.LFB2691:
	.cfi_startproc
	movq	%rsi, %rdi
	movq	%rdx, %rsi
	movq	%rcx, %rdx
	jmp	_ZN8opendnp38OContext20RespondToReadRequestERKNS_10APDUHeaderERKN7openpal6RSliceE@PLT
	.cfi_endproc
.LFE2691:
	.size	_ZN8opendnp39StateIdle16OnNewReadRequestERNS_8OContextERKNS_10APDUHeaderERKN7openpal6RSliceE, .-_ZN8opendnp39StateIdle16OnNewReadRequestERNS_8OContextERKNS_10APDUHeaderERKN7openpal6RSliceE
	.align 2
	.p2align 4
	.globl	_ZN8opendnp39StateIdle19OnNewNonReadRequestERNS_8OContextERKNS_10APDUHeaderERKN7openpal6RSliceE
	.type	_ZN8opendnp39StateIdle19OnNewNonReadRequestERNS_8OContextERKNS_10APDUHeaderERKN7openpal6RSliceE, @function
_ZN8opendnp39StateIdle19OnNewNonReadRequestERNS_8OContextERKNS_10APDUHeaderERKN7openpal6RSliceE:
.LFB2692:
	.cfi_startproc
	pushq	%rbx
	.cfi_def_cfa_offset 16
	.cfi_offset 3, -16
	movq	%rdi, %rbx
	movq	%rsi, %rdi
	movq	%rdx, %rsi
	movq	%rcx, %rdx
	call	_ZN8opendnp38OContext23RespondToNonReadRequestERKNS_10APDUHeaderERKN7openpal6RSliceE@PLT
	movq	%rbx, %rax
	popq	%rbx
	.cfi_def_cfa_offset 8
	ret
	.cfi_endproc
.LFE2692:
	.size	_ZN8opendnp39StateIdle19OnNewNonReadRequestERNS_8OContextERKNS_10APDUHeaderERKN7openpal6RSliceE, .-_ZN8opendnp39StateIdle19OnNewNonReadRequestERNS_8OContextERKNS_10APDUHeaderERKN7openpal6RSliceE
	.align 2
	.p2align 4
	.globl	_ZN8opendnp39StateIdle22OnRepeatNonReadRequestERNS_8OContextERKNS_10APDUHeaderERKN7openpal6RSliceE
	.type	_ZN8opendnp39StateIdle22OnRepeatNonReadRequestERNS_8OContextERKNS_10APDUHeaderERKN7openpal6RSliceE, @function
_ZN8opendnp39StateIdle22OnRepeatNonReadRequestERNS_8OContextERKNS_10APDUHeaderERKN7openpal6RSliceE:
.LFB2693:
	.cfi_startproc
	pushq	%rbx
	.cfi_def_cfa_offset 16
	.cfi_offset 3, -16
	leaq	840(%rsi), %rdx
	movq	%rdi, %rbx
	movq	%rsi, %rdi
	leaq	856(%rsi), %rsi
	call	_ZN8opendnp38OContext15BeginResponseTxERKNS_15AppControlFieldERKN7openpal6RSliceE@PLT
	movq	%rbx, %rax
	popq	%rbx
	.cfi_def_cfa_offset 8
	ret
	.cfi_endproc
.LFE2693:
	.size	_ZN8opendnp39StateIdle22OnRepeatNonReadRequestERNS_8OContextERKNS_10APDUHeaderERKN7openpal6RSliceE, .-_ZN8opendnp39StateIdle22OnRepeatNonReadRequestERNS_8OContextERKNS_10APDUHeaderERKN7openpal6RSliceE
	.globl	_ZN8opendnp327StateUnsolicitedConfirmWait22OnRepeatNonReadRequestERNS_8OContextERKNS_10APDUHeaderERKN7openpal6RSliceE
	.set	_ZN8opendnp327StateUnsolicitedConfirmWait22OnRepeatNonReadRequestERNS_8OContextERKNS_10APDUHeaderERKN7openpal6RSliceE,_ZN8opendnp39StateIdle22OnRepeatNonReadRequestERNS_8OContextERKNS_10APDUHeaderERKN7openpal6RSliceE
	.globl	_ZN8opendnp39StateIdle19OnRepeatReadRequestERNS_8OContextERKNS_10APDUHeaderERKN7openpal6RSliceE
	.set	_ZN8opendnp39StateIdle19OnRepeatReadRequestERNS_8OContextERKNS_10APDUHeaderERKN7openpal6RSliceE,_ZN8opendnp39StateIdle22OnRepeatNonReadRequestERNS_8OContextERKNS_10APDUHeaderERKN7openpal6RSliceE
	.align 2
	.p2align 4
	.globl	_ZN8opendnp325StateSolicitedConfirmWait16OnNewReadRequestERNS_8OContextERKNS_10APDUHeaderERKN7openpal6RSliceE
	.type	_ZN8opendnp325StateSolicitedConfirmWait16OnNewReadRequestERNS_8OContextERKNS_10APDUHeaderERKN7openpal6RSliceE, @function
_ZN8opendnp325StateSolicitedConfirmWait16OnNewReadRequestERNS_8OContextERKNS_10APDUHeaderERKN7openpal6RSliceE:
.LFB2697:
	.cfi_startproc
	pushq	%r12
	.cfi_def_cfa_offset 16
	.cfi_offset 12, -16
	leaq	728(%rsi), %rdi
	movq	%rcx, %r12
	pushq	%rbp
	.cfi_def_cfa_offset 24
	.cfi_offset 6, -24
	movq	%rdx, %rbp
	pushq	%rbx
	.cfi_def_cfa_offset 32
	.cfi_offset 3, -32
	movq	%rsi, %rbx
	call	_ZN7openpal8TimerRef6CancelEv@PLT
	movq	%r12, %rdx
	movq	%rbp, %rsi
	movq	%rbx, %rdi
	popq	%rbx
	.cfi_def_cfa_offset 24
	popq	%rbp
	.cfi_def_cfa_offset 16
	popq	%r12
	.cfi_def_cfa_offset 8
	jmp	_ZN8opendnp38OContext20RespondToReadRequestERKNS_10APDUHeaderERKN7openpal6RSliceE@PLT
	.cfi_endproc
.LFE2697:
	.size	_ZN8opendnp325StateSolicitedConfirmWait16OnNewReadRequestERNS_8OContextERKNS_10APDUHeaderERKN7openpal6RSliceE, .-_ZN8opendnp325StateSolicitedConfirmWait16OnNewReadRequestERNS_8OContextERKNS_10APDUHeaderERKN7openpal6RSliceE
	.align 2
	.p2align 4
	.globl	_ZN8opendnp325StateSolicitedConfirmWait19OnNewNonReadRequestERNS_8OContextERKNS_10APDUHeaderERKN7openpal6RSliceE
	.type	_ZN8opendnp325StateSolicitedConfirmWait19OnNewNonReadRequestERNS_8OContextERKNS_10APDUHeaderERKN7openpal6RSliceE, @function
_ZN8opendnp325StateSolicitedConfirmWait19OnNewNonReadRequestERNS_8OContextERKNS_10APDUHeaderERKN7openpal6RSliceE:
.LFB2698:
	.cfi_startproc
	pushq	%r12
	.cfi_def_cfa_offset 16
	.cfi_offset 12, -16
	leaq	728(%rsi), %rdi
	movq	%rcx, %r12
	pushq	%rbp
	.cfi_def_cfa_offset 24
	.cfi_offset 6, -24
	movq	%rdx, %rbp
	pushq	%rbx
	.cfi_def_cfa_offset 32
	.cfi_offset 3, -32
	movq	%rsi, %rbx
	call	_ZN7openpal8TimerRef6CancelEv@PLT
	movq	%r12, %rdx
	movq	%rbp, %rsi
	movq	%rbx, %rdi
	call	_ZN8opendnp38OContext23RespondToNonReadRequestERKNS_10APDUHeaderERKN7openpal6RSliceE@PLT
	popq	%rbx
	.cfi_def_cfa_offset 24
	movq	_ZN8opendnp39StateIdle8instanceE@GOTPCREL(%rip), %rax
	popq	%rbp
	.cfi_def_cfa_offset 16
	popq	%r12
	.cfi_def_cfa_offset 8
	ret
	.cfi_endproc
.LFE2698:
	.size	_ZN8opendnp325StateSolicitedConfirmWait19OnNewNonReadRequestERNS_8OContextERKNS_10APDUHeaderERKN7openpal6RSliceE, .-_ZN8opendnp325StateSolicitedConfirmWait19OnNewNonReadRequestERNS_8OContextERKNS_10APDUHeaderERKN7openpal6RSliceE
	.align 2
	.p2align 4
	.globl	_ZN8opendnp325StateSolicitedConfirmWait22OnRepeatNonReadRequestERNS_8OContextERKNS_10APDUHeaderERKN7openpal6RSliceE
	.type	_ZN8opendnp325StateSolicitedConfirmWait22OnRepeatNonReadRequestERNS_8OContextERKNS_10APDUHeaderERKN7openpal6RSliceE, @function
_ZN8opendnp325StateSolicitedConfirmWait22OnRepeatNonReadRequestERNS_8OContextERKNS_10APDUHeaderERKN7openpal6RSliceE:
.LFB2699:
	.cfi_startproc
	pushq	%rbp
	.cfi_def_cfa_offset 16
	.cfi_offset 6, -16
	movq	%rdi, %rbp
	leaq	728(%rsi), %rdi
	pushq	%rbx
	.cfi_def_cfa_offset 24
	.cfi_offset 3, -24
	movq	%rsi, %rbx
	subq	$8, %rsp
	.cfi_def_cfa_offset 32
	call	_ZN7openpal8TimerRef6CancelEv@PLT
	leaq	840(%rbx), %rdx
	leaq	856(%rbx), %rsi
	movq	%rbx, %rdi
	call	_ZN8opendnp38OContext15BeginResponseTxERKNS_15AppControlFieldERKN7openpal6RSliceE@PLT
	addq	$8, %rsp
	.cfi_def_cfa_offset 24
	movq	%rbp, %rax
	popq	%rbx
	.cfi_def_cfa_offset 16
	popq	%rbp
	.cfi_def_cfa_offset 8
	ret
	.cfi_endproc
.LFE2699:
	.size	_ZN8opendnp325StateSolicitedConfirmWait22OnRepeatNonReadRequestERNS_8OContextERKNS_10APDUHeaderERKN7openpal6RSliceE, .-_ZN8opendnp325StateSolicitedConfirmWait22OnRepeatNonReadRequestERNS_8OContextERKNS_10APDUHeaderERKN7openpal6RSliceE
	.section	.rodata.str1.8
	.align 8
.LC9:
	.string	"received solicited confirm while waiting for unsolicited confirm (seq: %u)"
	.align 8
.LC10:
	.string	"/opt/PLC/OpenPLC_v3/utils/dnp3_src/cpp/libs/src/opendnp3/outstation/OutstationStates.cpp(148)"
	.align 8
.LC11:
	.string	"unsolicited confirm with wrong seq: %u, expected: %u"
	.align 8
.LC12:
	.string	"/opt/PLC/OpenPLC_v3/utils/dnp3_src/cpp/libs/src/opendnp3/outstation/OutstationStates.cpp(154)"
	.text
	.align 2
	.p2align 4
	.globl	_ZN8opendnp327StateUnsolicitedConfirmWait9OnConfirmERNS_8OContextERKNS_10APDUHeaderE
	.type	_ZN8opendnp327StateUnsolicitedConfirmWait9OnConfirmERNS_8OContextERKNS_10APDUHeaderE, @function
_ZN8opendnp327StateUnsolicitedConfirmWait9OnConfirmERNS_8OContextERKNS_10APDUHeaderE:
.LFB2701:
	.cfi_startproc
	pushq	%r15
	.cfi_def_cfa_offset 16
	.cfi_offset 15, -16
	pushq	%r14
	.cfi_def_cfa_offset 24
	.cfi_offset 14, -24
	pushq	%rbp
	.cfi_def_cfa_offset 32
	.cfi_offset 6, -32
	movq	%rdi, %rbp
	pushq	%rbx
	.cfi_def_cfa_offset 40
	.cfi_offset 3, -40
	movq	%rsi, %rbx
	subq	$168, %rsp
	.cfi_def_cfa_offset 208
	cmpb	$0, 4(%rdx)
	je	.L55
	movzbl	890(%rsi), %eax
	cmpb	%al, 5(%rdx)
	je	.L47
	leaq	8(%rsi), %rdi
	leaq	32(%rsp), %rsi
	movq	%rdx, 8(%rsp)
	movl	$4, 32(%rsp)
	movq	%rdi, %r14
	call	_ZNK7openpal6Logger9IsEnabledERKNS_10LogFiltersE@PLT
	movq	8(%rsp), %rdx
	testb	%al, %al
	jne	.L56
.L45:
	addq	$168, %rsp
	.cfi_remember_state
	.cfi_def_cfa_offset 40
	movq	%rbp, %rax
	popq	%rbx
	.cfi_def_cfa_offset 32
	popq	%rbp
	.cfi_def_cfa_offset 24
	popq	%r14
	.cfi_def_cfa_offset 16
	popq	%r15
	.cfi_def_cfa_offset 8
	ret
	.p2align 4,,10
	.p2align 3
.L47:
	.cfi_restore_state
	leaq	744(%rsi), %rdi
	call	_ZN8opendnp314RequestHistory5ResetEv@PLT
	leaq	728(%rbx), %rdi
	call	_ZN7openpal8TimerRef6CancelEv@PLT
	cmpb	$0, 888(%rbx)
	jne	.L57
	movb	$1, 888(%rbx)
.L50:
	movq	_ZN8opendnp39StateIdle8instanceE@GOTPCREL(%rip), %rax
	addq	$168, %rsp
	.cfi_remember_state
	.cfi_def_cfa_offset 40
	popq	%rbx
	.cfi_def_cfa_offset 32
	popq	%rbp
	.cfi_def_cfa_offset 24
	popq	%r14
	.cfi_def_cfa_offset 16
	popq	%r15
	.cfi_def_cfa_offset 8
	ret
	.p2align 4,,10
	.p2align 3
.L55:
	.cfi_restore_state
	leaq	8(%rsi), %rdi
	leaq	8(%rsi), %r14
	movq	%rdx, 8(%rsp)
	leaq	32(%rsp), %rsi
	movl	$4, 32(%rsp)
	call	_ZNK7openpal6Logger9IsEnabledERKNS_10LogFiltersE@PLT
	movq	8(%rsp), %rdx
	testb	%al, %al
	je	.L45
	movzbl	5(%rdx), %ecx
	leaq	32(%rsp), %rdi
	movl	$120, %esi
	xorl	%eax, %eax
	leaq	.LC9(%rip), %rdx
	call	snprintf@PLT
	leaq	28(%rsp), %rsi
	leaq	32(%rsp), %rcx
	movq	%r14, %rdi
	leaq	.LC10(%rip), %rdx
	movl	$4, 28(%rsp)
	call	_ZN7openpal6Logger3LogERKNS_10LogFiltersEPKcS5_@PLT
	jmp	.L45
	.p2align 4,,10
	.p2align 3
.L56:
	movzbl	5(%rdx), %ecx
	leaq	32(%rsp), %rdi
	movl	$120, %esi
	xorl	%eax, %eax
	movzbl	890(%rbx), %r8d
	leaq	.LC11(%rip), %rdx
	call	snprintf@PLT
	leaq	28(%rsp), %rsi
	leaq	32(%rsp), %rcx
	movq	%r14, %rdi
	leaq	.LC12(%rip), %rdx
	movl	$4, 28(%rsp)
	call	_ZN7openpal6Logger3LogERKNS_10LogFiltersEPKcS5_@PLT
	jmp	.L45
	.p2align 4,,10
	.p2align 3
.L57:
	leaq	104(%rbx), %rdi
	call	_ZN8opendnp311EventBuffer12ClearWrittenEv@PLT
	jmp	.L50
	.cfi_endproc
.LFE2701:
	.size	_ZN8opendnp327StateUnsolicitedConfirmWait9OnConfirmERNS_8OContextERKNS_10APDUHeaderE, .-_ZN8opendnp327StateUnsolicitedConfirmWait9OnConfirmERNS_8OContextERKNS_10APDUHeaderE
	.section	.rodata.str1.8
	.align 8
.LC13:
	.string	"received unsolicited confirm while waiting for solicited confirm (seq: %u)"
	.align 8
.LC14:
	.string	"/opt/PLC/OpenPLC_v3/utils/dnp3_src/cpp/libs/src/opendnp3/outstation/OutstationStates.cpp(82)"
	.align 8
.LC15:
	.string	"solicited confirm with wrong seq: %u, expected: %u"
	.align 8
.LC16:
	.string	"/opt/PLC/OpenPLC_v3/utils/dnp3_src/cpp/libs/src/opendnp3/outstation/OutstationStates.cpp(88)"
	.text
	.align 2
	.p2align 4
	.globl	_ZN8opendnp325StateSolicitedConfirmWait9OnConfirmERNS_8OContextERKNS_10APDUHeaderE
	.type	_ZN8opendnp325StateSolicitedConfirmWait9OnConfirmERNS_8OContextERKNS_10APDUHeaderE, @function
_ZN8opendnp325StateSolicitedConfirmWait9OnConfirmERNS_8OContextERKNS_10APDUHeaderE:
.LFB2695:
	.cfi_startproc
	pushq	%r15
	.cfi_def_cfa_offset 16
	.cfi_offset 15, -16
	pushq	%r14
	.cfi_def_cfa_offset 24
	.cfi_offset 14, -24
	pushq	%r12
	.cfi_def_cfa_offset 32
	.cfi_offset 12, -32
	movq	%rdx, %r12
	pushq	%rbp
	.cfi_def_cfa_offset 40
	.cfi_offset 6, -40
	movq	%rdi, %rbp
	pushq	%rbx
	.cfi_def_cfa_offset 48
	.cfi_offset 3, -48
	movq	%rsi, %rbx
	subq	$144, %rsp
	.cfi_def_cfa_offset 192
	cmpb	$0, 4(%rdx)
	jne	.L70
	movzbl	833(%rsi), %eax
	cmpb	%al, 5(%rdx)
	jne	.L71
	leaq	744(%rsi), %rdi
	call	_ZN8opendnp314RequestHistory5ResetEv@PLT
	leaq	728(%rbx), %rdi
	call	_ZN7openpal8TimerRef6CancelEv@PLT
	leaq	104(%rbx), %rdi
	call	_ZN8opendnp311EventBuffer12ClearWrittenEv@PLT
	leaq	640(%rbx), %rdi
	call	_ZNK8opendnp315ResponseContext12HasSelectionEv@PLT
	testb	%al, %al
	jne	.L72
	movq	_ZN8opendnp39StateIdle8instanceE@GOTPCREL(%rip), %rax
	addq	$144, %rsp
	.cfi_remember_state
	.cfi_def_cfa_offset 48
	popq	%rbx
	.cfi_def_cfa_offset 40
	popq	%rbp
	.cfi_def_cfa_offset 32
	popq	%r12
	.cfi_def_cfa_offset 24
	popq	%r14
	.cfi_def_cfa_offset 16
	popq	%r15
	.cfi_def_cfa_offset 8
	ret
	.p2align 4,,10
	.p2align 3
.L71:
	.cfi_restore_state
	leaq	8(%rsi), %rdi
	leaq	16(%rsp), %rsi
	movl	$4, 16(%rsp)
	movq	%rdi, %r14
	call	_ZNK7openpal6Logger9IsEnabledERKNS_10LogFiltersE@PLT
	testb	%al, %al
	jne	.L73
.L61:
	addq	$144, %rsp
	.cfi_remember_state
	.cfi_def_cfa_offset 48
	movq	%rbp, %rax
	popq	%rbx
	.cfi_def_cfa_offset 40
	popq	%rbp
	.cfi_def_cfa_offset 32
	popq	%r12
	.cfi_def_cfa_offset 24
	popq	%r14
	.cfi_def_cfa_offset 16
	popq	%r15
	.cfi_def_cfa_offset 8
	ret
	.p2align 4,,10
	.p2align 3
.L70:
	.cfi_restore_state
	leaq	8(%rsi), %r14
	leaq	8(%rsi), %rdi
	movl	$4, 16(%rsp)
	leaq	16(%rsp), %rsi
	call	_ZNK7openpal6Logger9IsEnabledERKNS_10LogFiltersE@PLT
	testb	%al, %al
	je	.L61
	movzbl	5(%r12), %ecx
	leaq	16(%rsp), %rdi
	leaq	.LC13(%rip), %rdx
	xorl	%eax, %eax
	movl	$120, %esi
	call	snprintf@PLT
	leaq	12(%rsp), %rsi
	leaq	16(%rsp), %rcx
	movq	%r14, %rdi
	leaq	.LC14(%rip), %rdx
	movl	$4, 12(%rsp)
	call	_ZN7openpal6Logger3LogERKNS_10LogFiltersEPKcS5_@PLT
	jmp	.L61
	.p2align 4,,10
	.p2align 3
.L73:
	movzbl	5(%r12), %ecx
	leaq	16(%rsp), %rdi
	xorl	%eax, %eax
	movzbl	833(%rbx), %r8d
	leaq	.LC15(%rip), %rdx
	movl	$120, %esi
	call	snprintf@PLT
	leaq	12(%rsp), %rsi
	leaq	16(%rsp), %rcx
	movq	%r14, %rdi
	leaq	.LC16(%rip), %rdx
	movl	$4, 12(%rsp)
	call	_ZN7openpal6Logger3LogERKNS_10LogFiltersEPKcS5_@PLT
	jmp	.L61
	.p2align 4,,10
	.p2align 3
.L72:
	movzbl	5(%r12), %eax
	leaq	16(%rsp), %rsi
	movq	%rbx, %rdi
	addl	$1, %eax
	andl	$15, %eax
	movb	%al, 16(%rsp)
	call	_ZN8opendnp38OContext25ContinueMultiFragResponseERKN7openpal11SequenceNumIhLh16EEE@PLT
	addq	$144, %rsp
	.cfi_def_cfa_offset 48
	popq	%rbx
	.cfi_def_cfa_offset 40
	popq	%rbp
	.cfi_def_cfa_offset 32
	popq	%r12
	.cfi_def_cfa_offset 24
	popq	%r14
	.cfi_def_cfa_offset 16
	popq	%r15
	.cfi_def_cfa_offset 8
	ret
	.cfi_endproc
.LFE2695:
	.size	_ZN8opendnp325StateSolicitedConfirmWait9OnConfirmERNS_8OContextERKNS_10APDUHeaderE, .-_ZN8opendnp325StateSolicitedConfirmWait9OnConfirmERNS_8OContextERKNS_10APDUHeaderE
	.align 2
	.p2align 4
	.globl	_ZN8opendnp325StateSolicitedConfirmWait19OnRepeatReadRequestERNS_8OContextERKNS_10APDUHeaderERKN7openpal6RSliceE
	.type	_ZN8opendnp325StateSolicitedConfirmWait19OnRepeatReadRequestERNS_8OContextERKNS_10APDUHeaderERKN7openpal6RSliceE, @function
_ZN8opendnp325StateSolicitedConfirmWait19OnRepeatReadRequestERNS_8OContextERKNS_10APDUHeaderERKN7openpal6RSliceE:
.LFB2700:
	.cfi_startproc
	pushq	%rbp
	.cfi_def_cfa_offset 16
	.cfi_offset 6, -16
	movq	%rdi, %rbp
	movq	%rsi, %rdi
	pushq	%rbx
	.cfi_def_cfa_offset 24
	.cfi_offset 3, -24
	movq	%rsi, %rbx
	subq	$8, %rsp
	.cfi_def_cfa_offset 32
	call	_ZN8opendnp38OContext19RestartConfirmTimerEv@PLT
	leaq	840(%rbx), %rdx
	leaq	856(%rbx), %rsi
	movq	%rbx, %rdi
	call	_ZN8opendnp38OContext15BeginResponseTxERKNS_15AppControlFieldERKN7openpal6RSliceE@PLT
	addq	$8, %rsp
	.cfi_def_cfa_offset 24
	movq	%rbp, %rax
	popq	%rbx
	.cfi_def_cfa_offset 16
	popq	%rbp
	.cfi_def_cfa_offset 8
	ret
	.cfi_endproc
.LFE2700:
	.size	_ZN8opendnp325StateSolicitedConfirmWait19OnRepeatReadRequestERNS_8OContextERKNS_10APDUHeaderERKN7openpal6RSliceE, .-_ZN8opendnp325StateSolicitedConfirmWait19OnRepeatReadRequestERNS_8OContextERKNS_10APDUHeaderERKN7openpal6RSliceE
	.align 2
	.p2align 4
	.globl	_ZN8opendnp327StateUnsolicitedConfirmWait16OnNewReadRequestERNS_8OContextERKNS_10APDUHeaderERKN7openpal6RSliceE
	.type	_ZN8opendnp327StateUnsolicitedConfirmWait16OnNewReadRequestERNS_8OContextERKNS_10APDUHeaderERKN7openpal6RSliceE, @function
_ZN8opendnp327StateUnsolicitedConfirmWait16OnNewReadRequestERNS_8OContextERKNS_10APDUHeaderERKN7openpal6RSliceE:
.LFB2703:
	.cfi_startproc
	movq	%rdx, %rax
	pushq	%rbx
	.cfi_def_cfa_offset 16
	.cfi_offset 3, -16
	leaq	760(%rsi), %r8
	movq	%rdi, %rbx
	movzbl	1(%rax), %esi
	movzbl	(%rax), %edi
	movl	(%rcx), %edx
	movq	8(%rcx), %rcx
	salq	$8, %rsi
	orq	%rdi, %rsi
	movzbl	2(%rax), %edi
	salq	$16, %rdi
	orq	%rsi, %rdi
	movzbl	3(%rax), %esi
	salq	$24, %rsi
	orq	%rdi, %rsi
	movzbl	4(%rax), %edi
	salq	$32, %rdi
	orq	%rsi, %rdi
	movzbl	5(%rax), %esi
	salq	$40, %rsi
	orq	%rdi, %rsi
	movq	%r8, %rdi
	call	_ZN8opendnp315DeferredRequest3SetENS_10APDUHeaderEN7openpal6RSliceE@PLT
	movq	%rbx, %rax
	popq	%rbx
	.cfi_def_cfa_offset 8
	ret
	.cfi_endproc
.LFE2703:
	.size	_ZN8opendnp327StateUnsolicitedConfirmWait16OnNewReadRequestERNS_8OContextERKNS_10APDUHeaderERKN7openpal6RSliceE, .-_ZN8opendnp327StateUnsolicitedConfirmWait16OnNewReadRequestERNS_8OContextERKNS_10APDUHeaderERKN7openpal6RSliceE
	.globl	_ZN8opendnp327StateUnsolicitedConfirmWait19OnRepeatReadRequestERNS_8OContextERKNS_10APDUHeaderERKN7openpal6RSliceE
	.set	_ZN8opendnp327StateUnsolicitedConfirmWait19OnRepeatReadRequestERNS_8OContextERKNS_10APDUHeaderERKN7openpal6RSliceE,_ZN8opendnp327StateUnsolicitedConfirmWait16OnNewReadRequestERNS_8OContextERKNS_10APDUHeaderERKN7openpal6RSliceE
	.align 2
	.p2align 4
	.globl	_ZN8opendnp327StateUnsolicitedConfirmWait19OnNewNonReadRequestERNS_8OContextERKNS_10APDUHeaderERKN7openpal6RSliceE
	.type	_ZN8opendnp327StateUnsolicitedConfirmWait19OnNewNonReadRequestERNS_8OContextERKNS_10APDUHeaderERKN7openpal6RSliceE, @function
_ZN8opendnp327StateUnsolicitedConfirmWait19OnNewNonReadRequestERNS_8OContextERKNS_10APDUHeaderERKN7openpal6RSliceE:
.LFB2704:
	.cfi_startproc
	pushq	%r13
	.cfi_def_cfa_offset 16
	.cfi_offset 13, -16
	movq	%rcx, %r13
	pushq	%r12
	.cfi_def_cfa_offset 24
	.cfi_offset 12, -24
	movq	%rdx, %r12
	pushq	%rbp
	.cfi_def_cfa_offset 32
	.cfi_offset 6, -32
	movq	%rdi, %rbp
	leaq	760(%rsi), %rdi
	pushq	%rbx
	.cfi_def_cfa_offset 40
	.cfi_offset 3, -40
	movq	%rsi, %rbx
	subq	$8, %rsp
	.cfi_def_cfa_offset 48
	call	_ZN8opendnp315DeferredRequest5ResetEv@PLT
	movq	%r13, %rdx
	movq	%r12, %rsi
	movq	%rbx, %rdi
	call	_ZN8opendnp38OContext23RespondToNonReadRequestERKNS_10APDUHeaderERKN7openpal6RSliceE@PLT
	addq	$8, %rsp
	.cfi_def_cfa_offset 40
	movq	%rbp, %rax
	popq	%rbx
	.cfi_def_cfa_offset 32
	popq	%rbp
	.cfi_def_cfa_offset 24
	popq	%r12
	.cfi_def_cfa_offset 16
	popq	%r13
	.cfi_def_cfa_offset 8
	ret
	.cfi_endproc
.LFE2704:
	.size	_ZN8opendnp327StateUnsolicitedConfirmWait19OnNewNonReadRequestERNS_8OContextERKNS_10APDUHeaderERKN7openpal6RSliceE, .-_ZN8opendnp327StateUnsolicitedConfirmWait19OnNewNonReadRequestERNS_8OContextERKNS_10APDUHeaderERKN7openpal6RSliceE
	.section	.text.startup,"ax",@progbits
	.p2align 4
	.type	_GLOBAL__sub_I_OutstationStates.cpp, @function
_GLOBAL__sub_I_OutstationStates.cpp:
.LFB3542:
	.cfi_startproc
	subq	$8, %rsp
	.cfi_def_cfa_offset 16
	movl	$5000, %edi
	call	_ZN7openpal12TimeDuration12MillisecondsEl@PLT
	movq	_ZTVN8opendnp39StateIdleE@GOTPCREL(%rip), %rdx
	movq	_ZN8opendnp39StateIdle8instanceE@GOTPCREL(%rip), %rax
	addq	$16, %rdx
	movq	%rdx, (%rax)
	movq	_ZTVN8opendnp325StateSolicitedConfirmWaitE@GOTPCREL(%rip), %rdx
	movq	_ZN8opendnp325StateSolicitedConfirmWait8instanceE@GOTPCREL(%rip), %rax
	addq	$16, %rdx
	movq	%rdx, (%rax)
	movq	_ZTVN8opendnp327StateUnsolicitedConfirmWaitE@GOTPCREL(%rip), %rdx
	movq	_ZN8opendnp327StateUnsolicitedConfirmWait8instanceE@GOTPCREL(%rip), %rax
	addq	$16, %rdx
	movq	%rdx, (%rax)
	addq	$8, %rsp
	.cfi_def_cfa_offset 8
	ret
	.cfi_endproc
.LFE3542:
	.size	_GLOBAL__sub_I_OutstationStates.cpp, .-_GLOBAL__sub_I_OutstationStates.cpp
	.section	.init_array,"aw"
	.align 8
	.quad	_GLOBAL__sub_I_OutstationStates.cpp
	.section	.rodata.str1.1
.LC17:
	.string	"unsolicited confirm timeout"
	.section	.rodata.str1.8
	.align 8
.LC18:
	.string	"/opt/PLC/OpenPLC_v3/utils/dnp3_src/cpp/libs/src/opendnp3/outstation/OutstationStates.cpp(175)"
	.text
	.align 2
	.p2align 4
	.globl	_ZN8opendnp327StateUnsolicitedConfirmWait16OnConfirmTimeoutERNS_8OContextE
	.type	_ZN8opendnp327StateUnsolicitedConfirmWait16OnConfirmTimeoutERNS_8OContextE, @function
_ZN8opendnp327StateUnsolicitedConfirmWait16OnConfirmTimeoutERNS_8OContextE:
.LFB2702:
	.cfi_startproc
	pushq	%r12
	.cfi_def_cfa_offset 16
	.cfi_offset 12, -16
	pushq	%rbp
	.cfi_def_cfa_offset 24
	.cfi_offset 6, -24
	leaq	8(%rsi), %rbp
	pushq	%rbx
	.cfi_def_cfa_offset 32
	.cfi_offset 3, -32
	movq	%rbp, %rdi
	movq	%rsi, %rbx
	subq	$16, %rsp
	.cfi_def_cfa_offset 48
	leaq	12(%rsp), %rsi
	movl	$4, 12(%rsp)
	call	_ZNK7openpal6Logger9IsEnabledERKNS_10LogFiltersE@PLT
	testb	%al, %al
	jne	.L89
	cmpb	$0, 888(%rbx)
	jne	.L90
.L84:
	movq	_ZN8opendnp39StateIdle8instanceE@GOTPCREL(%rip), %rax
	addq	$16, %rsp
	.cfi_remember_state
	.cfi_def_cfa_offset 32
	popq	%rbx
	.cfi_def_cfa_offset 24
	popq	%rbp
	.cfi_def_cfa_offset 16
	popq	%r12
	.cfi_def_cfa_offset 8
	ret
	.p2align 4,,10
	.p2align 3
.L89:
	.cfi_restore_state
	leaq	.LC17(%rip), %rcx
	leaq	.LC18(%rip), %rdx
	movq	%rbp, %rdi
	movl	$4, 12(%rsp)
	leaq	12(%rsp), %rsi
	call	_ZN7openpal6Logger3LogERKNS_10LogFiltersEPKcS5_@PLT
	cmpb	$0, 888(%rbx)
	je	.L84
.L90:
	leaq	104(%rbx), %rdi
	call	_ZN8opendnp311EventBuffer8UnselectEv@PLT
	movq	_ZN8opendnp39StateIdle8instanceE@GOTPCREL(%rip), %rax
	addq	$16, %rsp
	.cfi_def_cfa_offset 32
	popq	%rbx
	.cfi_def_cfa_offset 24
	popq	%rbp
	.cfi_def_cfa_offset 16
	popq	%r12
	.cfi_def_cfa_offset 8
	ret
	.cfi_endproc
.LFE2702:
	.size	_ZN8opendnp327StateUnsolicitedConfirmWait16OnConfirmTimeoutERNS_8OContextE, .-_ZN8opendnp327StateUnsolicitedConfirmWait16OnConfirmTimeoutERNS_8OContextE
	.weak	_ZTSN7openpal10UncopyableE
	.section	.rodata._ZTSN7openpal10UncopyableE,"aG",@progbits,_ZTSN7openpal10UncopyableE,comdat
	.align 16
	.type	_ZTSN7openpal10UncopyableE, @object
	.size	_ZTSN7openpal10UncopyableE, 23
_ZTSN7openpal10UncopyableE:
	.string	"N7openpal10UncopyableE"
	.weak	_ZTIN7openpal10UncopyableE
	.section	.data.rel.ro._ZTIN7openpal10UncopyableE,"awG",@progbits,_ZTIN7openpal10UncopyableE,comdat
	.align 8
	.type	_ZTIN7openpal10UncopyableE, @object
	.size	_ZTIN7openpal10UncopyableE, 16
_ZTIN7openpal10UncopyableE:
	.quad	_ZTVN10__cxxabiv117__class_type_infoE+16
	.quad	_ZTSN7openpal10UncopyableE
	.weak	_ZTSN8opendnp315OutstationStateE
	.section	.rodata._ZTSN8opendnp315OutstationStateE,"aG",@progbits,_ZTSN8opendnp315OutstationStateE,comdat
	.align 16
	.type	_ZTSN8opendnp315OutstationStateE, @object
	.size	_ZTSN8opendnp315OutstationStateE, 29
_ZTSN8opendnp315OutstationStateE:
	.string	"N8opendnp315OutstationStateE"
	.weak	_ZTIN8opendnp315OutstationStateE
	.section	.data.rel.ro._ZTIN8opendnp315OutstationStateE,"awG",@progbits,_ZTIN8opendnp315OutstationStateE,comdat
	.align 8
	.type	_ZTIN8opendnp315OutstationStateE, @object
	.size	_ZTIN8opendnp315OutstationStateE, 40
_ZTIN8opendnp315OutstationStateE:
	.quad	_ZTVN10__cxxabiv121__vmi_class_type_infoE+16
	.quad	_ZTSN8opendnp315OutstationStateE
	.long	0
	.long	1
	.quad	_ZTIN7openpal10UncopyableE
	.quad	0
	.weak	_ZTSN8opendnp39StateIdleE
	.section	.rodata._ZTSN8opendnp39StateIdleE,"aG",@progbits,_ZTSN8opendnp39StateIdleE,comdat
	.align 16
	.type	_ZTSN8opendnp39StateIdleE, @object
	.size	_ZTSN8opendnp39StateIdleE, 22
_ZTSN8opendnp39StateIdleE:
	.string	"N8opendnp39StateIdleE"
	.weak	_ZTIN8opendnp39StateIdleE
	.section	.data.rel.ro._ZTIN8opendnp39StateIdleE,"awG",@progbits,_ZTIN8opendnp39StateIdleE,comdat
	.align 8
	.type	_ZTIN8opendnp39StateIdleE, @object
	.size	_ZTIN8opendnp39StateIdleE, 24
_ZTIN8opendnp39StateIdleE:
	.quad	_ZTVN10__cxxabiv120__si_class_type_infoE+16
	.quad	_ZTSN8opendnp39StateIdleE
	.quad	_ZTIN8opendnp315OutstationStateE
	.weak	_ZTSN8opendnp325StateSolicitedConfirmWaitE
	.section	.rodata._ZTSN8opendnp325StateSolicitedConfirmWaitE,"aG",@progbits,_ZTSN8opendnp325StateSolicitedConfirmWaitE,comdat
	.align 32
	.type	_ZTSN8opendnp325StateSolicitedConfirmWaitE, @object
	.size	_ZTSN8opendnp325StateSolicitedConfirmWaitE, 39
_ZTSN8opendnp325StateSolicitedConfirmWaitE:
	.string	"N8opendnp325StateSolicitedConfirmWaitE"
	.weak	_ZTIN8opendnp325StateSolicitedConfirmWaitE
	.section	.data.rel.ro._ZTIN8opendnp325StateSolicitedConfirmWaitE,"awG",@progbits,_ZTIN8opendnp325StateSolicitedConfirmWaitE,comdat
	.align 8
	.type	_ZTIN8opendnp325StateSolicitedConfirmWaitE, @object
	.size	_ZTIN8opendnp325StateSolicitedConfirmWaitE, 24
_ZTIN8opendnp325StateSolicitedConfirmWaitE:
	.quad	_ZTVN10__cxxabiv120__si_class_type_infoE+16
	.quad	_ZTSN8opendnp325StateSolicitedConfirmWaitE
	.quad	_ZTIN8opendnp315OutstationStateE
	.weak	_ZTSN8opendnp327StateUnsolicitedConfirmWaitE
	.section	.rodata._ZTSN8opendnp327StateUnsolicitedConfirmWaitE,"aG",@progbits,_ZTSN8opendnp327StateUnsolicitedConfirmWaitE,comdat
	.align 32
	.type	_ZTSN8opendnp327StateUnsolicitedConfirmWaitE, @object
	.size	_ZTSN8opendnp327StateUnsolicitedConfirmWaitE, 41
_ZTSN8opendnp327StateUnsolicitedConfirmWaitE:
	.string	"N8opendnp327StateUnsolicitedConfirmWaitE"
	.weak	_ZTIN8opendnp327StateUnsolicitedConfirmWaitE
	.section	.data.rel.ro._ZTIN8opendnp327StateUnsolicitedConfirmWaitE,"awG",@progbits,_ZTIN8opendnp327StateUnsolicitedConfirmWaitE,comdat
	.align 8
	.type	_ZTIN8opendnp327StateUnsolicitedConfirmWaitE, @object
	.size	_ZTIN8opendnp327StateUnsolicitedConfirmWaitE, 24
_ZTIN8opendnp327StateUnsolicitedConfirmWaitE:
	.quad	_ZTVN10__cxxabiv120__si_class_type_infoE+16
	.quad	_ZTSN8opendnp327StateUnsolicitedConfirmWaitE
	.quad	_ZTIN8opendnp315OutstationStateE
	.weak	_ZTVN8opendnp39StateIdleE
	.section	.data.rel.ro._ZTVN8opendnp39StateIdleE,"awG",@progbits,_ZTVN8opendnp39StateIdleE,comdat
	.align 8
	.type	_ZTVN8opendnp39StateIdleE, @object
	.size	_ZTVN8opendnp39StateIdleE, 80
_ZTVN8opendnp39StateIdleE:
	.quad	0
	.quad	_ZTIN8opendnp39StateIdleE
	.quad	_ZN8opendnp39StateIdle6IsIdleEv
	.quad	_ZN8opendnp39StateIdle4NameEv
	.quad	_ZN8opendnp39StateIdle9OnConfirmERNS_8OContextERKNS_10APDUHeaderE
	.quad	_ZN8opendnp39StateIdle16OnConfirmTimeoutERNS_8OContextE
	.quad	_ZN8opendnp39StateIdle16OnNewReadRequestERNS_8OContextERKNS_10APDUHeaderERKN7openpal6RSliceE
	.quad	_ZN8opendnp39StateIdle19OnNewNonReadRequestERNS_8OContextERKNS_10APDUHeaderERKN7openpal6RSliceE
	.quad	_ZN8opendnp39StateIdle22OnRepeatNonReadRequestERNS_8OContextERKNS_10APDUHeaderERKN7openpal6RSliceE
	.quad	_ZN8opendnp39StateIdle19OnRepeatReadRequestERNS_8OContextERKNS_10APDUHeaderERKN7openpal6RSliceE
	.weak	_ZTVN8opendnp325StateSolicitedConfirmWaitE
	.section	.data.rel.ro._ZTVN8opendnp325StateSolicitedConfirmWaitE,"awG",@progbits,_ZTVN8opendnp325StateSolicitedConfirmWaitE,comdat
	.align 8
	.type	_ZTVN8opendnp325StateSolicitedConfirmWaitE, @object
	.size	_ZTVN8opendnp325StateSolicitedConfirmWaitE, 80
_ZTVN8opendnp325StateSolicitedConfirmWaitE:
	.quad	0
	.quad	_ZTIN8opendnp325StateSolicitedConfirmWaitE
	.quad	_ZN8opendnp315OutstationState6IsIdleEv
	.quad	_ZN8opendnp325StateSolicitedConfirmWait4NameEv
	.quad	_ZN8opendnp325StateSolicitedConfirmWait9OnConfirmERNS_8OContextERKNS_10APDUHeaderE
	.quad	_ZN8opendnp325StateSolicitedConfirmWait16OnConfirmTimeoutERNS_8OContextE
	.quad	_ZN8opendnp325StateSolicitedConfirmWait16OnNewReadRequestERNS_8OContextERKNS_10APDUHeaderERKN7openpal6RSliceE
	.quad	_ZN8opendnp325StateSolicitedConfirmWait19OnNewNonReadRequestERNS_8OContextERKNS_10APDUHeaderERKN7openpal6RSliceE
	.quad	_ZN8opendnp325StateSolicitedConfirmWait22OnRepeatNonReadRequestERNS_8OContextERKNS_10APDUHeaderERKN7openpal6RSliceE
	.quad	_ZN8opendnp325StateSolicitedConfirmWait19OnRepeatReadRequestERNS_8OContextERKNS_10APDUHeaderERKN7openpal6RSliceE
	.weak	_ZTVN8opendnp327StateUnsolicitedConfirmWaitE
	.section	.data.rel.ro._ZTVN8opendnp327StateUnsolicitedConfirmWaitE,"awG",@progbits,_ZTVN8opendnp327StateUnsolicitedConfirmWaitE,comdat
	.align 8
	.type	_ZTVN8opendnp327StateUnsolicitedConfirmWaitE, @object
	.size	_ZTVN8opendnp327StateUnsolicitedConfirmWaitE, 80
_ZTVN8opendnp327StateUnsolicitedConfirmWaitE:
	.quad	0
	.quad	_ZTIN8opendnp327StateUnsolicitedConfirmWaitE
	.quad	_ZN8opendnp315OutstationState6IsIdleEv
	.quad	_ZN8opendnp327StateUnsolicitedConfirmWait4NameEv
	.quad	_ZN8opendnp327StateUnsolicitedConfirmWait9OnConfirmERNS_8OContextERKNS_10APDUHeaderE
	.quad	_ZN8opendnp327StateUnsolicitedConfirmWait16OnConfirmTimeoutERNS_8OContextE
	.quad	_ZN8opendnp327StateUnsolicitedConfirmWait16OnNewReadRequestERNS_8OContextERKNS_10APDUHeaderERKN7openpal6RSliceE
	.quad	_ZN8opendnp327StateUnsolicitedConfirmWait19OnNewNonReadRequestERNS_8OContextERKNS_10APDUHeaderERKN7openpal6RSliceE
	.quad	_ZN8opendnp327StateUnsolicitedConfirmWait22OnRepeatNonReadRequestERNS_8OContextERKNS_10APDUHeaderERKN7openpal6RSliceE
	.quad	_ZN8opendnp327StateUnsolicitedConfirmWait19OnRepeatReadRequestERNS_8OContextERKNS_10APDUHeaderERKN7openpal6RSliceE
	.globl	_ZN8opendnp327StateUnsolicitedConfirmWait8instanceE
	.bss
	.align 8
	.type	_ZN8opendnp327StateUnsolicitedConfirmWait8instanceE, @object
	.size	_ZN8opendnp327StateUnsolicitedConfirmWait8instanceE, 8
_ZN8opendnp327StateUnsolicitedConfirmWait8instanceE:
	.zero	8
	.globl	_ZN8opendnp325StateSolicitedConfirmWait8instanceE
	.align 8
	.type	_ZN8opendnp325StateSolicitedConfirmWait8instanceE, @object
	.size	_ZN8opendnp325StateSolicitedConfirmWait8instanceE, 8
_ZN8opendnp325StateSolicitedConfirmWait8instanceE:
	.zero	8
	.globl	_ZN8opendnp39StateIdle8instanceE
	.align 8
	.type	_ZN8opendnp39StateIdle8instanceE, @object
	.size	_ZN8opendnp39StateIdle8instanceE, 8
_ZN8opendnp39StateIdle8instanceE:
	.zero	8
	.ident	"GCC: (Debian 15.2.0-4) 15.2.0"
	.section	.note.GNU-stack,"",@progbits
