	.file	"OutstationContext.cpp"
	.text
	.section	.text._ZN8opendnp322IOutstationApplication19SupportsAssignClassEv,"axG",@progbits,_ZN8opendnp322IOutstationApplication19SupportsAssignClassEv,comdat
	.align 2
	.p2align 4
	.weak	_ZN8opendnp322IOutstationApplication19SupportsAssignClassEv
	.type	_ZN8opendnp322IOutstationApplication19SupportsAssignClassEv, @function
_ZN8opendnp322IOutstationApplication19SupportsAssignClassEv:
.LFB2054:
	.cfi_startproc
	xorl	%eax, %eax
	ret
	.cfi_endproc
.LFE2054:
	.size	_ZN8opendnp322IOutstationApplication19SupportsAssignClassEv, .-_ZN8opendnp322IOutstationApplication19SupportsAssignClassEv
	.section	.text._ZNK8opendnp322IOutstationApplication18ColdRestartSupportEv,"axG",@progbits,_ZNK8opendnp322IOutstationApplication18ColdRestartSupportEv,comdat
	.align 2
	.p2align 4
	.weak	_ZNK8opendnp322IOutstationApplication18ColdRestartSupportEv
	.type	_ZNK8opendnp322IOutstationApplication18ColdRestartSupportEv, @function
_ZNK8opendnp322IOutstationApplication18ColdRestartSupportEv:
.LFB2057:
	.cfi_startproc
	xorl	%eax, %eax
	ret
	.cfi_endproc
.LFE2057:
	.size	_ZNK8opendnp322IOutstationApplication18ColdRestartSupportEv, .-_ZNK8opendnp322IOutstationApplication18ColdRestartSupportEv
	.section	.text._ZNK8opendnp322IOutstationApplication18WarmRestartSupportEv,"axG",@progbits,_ZNK8opendnp322IOutstationApplication18WarmRestartSupportEv,comdat
	.align 2
	.p2align 4
	.weak	_ZNK8opendnp322IOutstationApplication18WarmRestartSupportEv
	.type	_ZNK8opendnp322IOutstationApplication18WarmRestartSupportEv, @function
_ZNK8opendnp322IOutstationApplication18WarmRestartSupportEv:
.LFB2058:
	.cfi_startproc
	xorl	%eax, %eax
	ret
	.cfi_endproc
.LFE2058:
	.size	_ZNK8opendnp322IOutstationApplication18WarmRestartSupportEv, .-_ZNK8opendnp322IOutstationApplication18WarmRestartSupportEv
	.section	.text._ZN8opendnp322IOutstationApplication11ColdRestartEv,"axG",@progbits,_ZN8opendnp322IOutstationApplication11ColdRestartEv,comdat
	.align 2
	.p2align 4
	.weak	_ZN8opendnp322IOutstationApplication11ColdRestartEv
	.type	_ZN8opendnp322IOutstationApplication11ColdRestartEv, @function
_ZN8opendnp322IOutstationApplication11ColdRestartEv:
.LFB2059:
	.cfi_startproc
	movl	$-1, %eax
	ret
	.cfi_endproc
.LFE2059:
	.size	_ZN8opendnp322IOutstationApplication11ColdRestartEv, .-_ZN8opendnp322IOutstationApplication11ColdRestartEv
	.section	.text._ZN8opendnp322IOutstationApplication11WarmRestartEv,"axG",@progbits,_ZN8opendnp322IOutstationApplication11WarmRestartEv,comdat
	.align 2
	.p2align 4
	.weak	_ZN8opendnp322IOutstationApplication11WarmRestartEv
	.type	_ZN8opendnp322IOutstationApplication11WarmRestartEv, @function
_ZN8opendnp322IOutstationApplication11WarmRestartEv:
.LFB2060:
	.cfi_startproc
	movl	$-1, %eax
	ret
	.cfi_endproc
.LFE2060:
	.size	_ZN8opendnp322IOutstationApplication11WarmRestartEv, .-_ZN8opendnp322IOutstationApplication11WarmRestartEv
	.section	.text._ZN8opendnp321ConstantCommandAction6ActionERKNS_23ControlRelayOutputBlockEt,"axG",@progbits,_ZN8opendnp321ConstantCommandAction6ActionERKNS_23ControlRelayOutputBlockEt,comdat
	.align 2
	.p2align 4
	.weak	_ZN8opendnp321ConstantCommandAction6ActionERKNS_23ControlRelayOutputBlockEt
	.type	_ZN8opendnp321ConstantCommandAction6ActionERKNS_23ControlRelayOutputBlockEt, @function
_ZN8opendnp321ConstantCommandAction6ActionERKNS_23ControlRelayOutputBlockEt:
.LFB2812:
	.cfi_startproc
	movzbl	8(%rdi), %eax
	ret
	.cfi_endproc
.LFE2812:
	.size	_ZN8opendnp321ConstantCommandAction6ActionERKNS_23ControlRelayOutputBlockEt, .-_ZN8opendnp321ConstantCommandAction6ActionERKNS_23ControlRelayOutputBlockEt
	.section	.text._ZN8opendnp321ConstantCommandAction6ActionERKNS_17AnalogOutputInt16Et,"axG",@progbits,_ZN8opendnp321ConstantCommandAction6ActionERKNS_17AnalogOutputInt16Et,comdat
	.align 2
	.p2align 4
	.weak	_ZN8opendnp321ConstantCommandAction6ActionERKNS_17AnalogOutputInt16Et
	.type	_ZN8opendnp321ConstantCommandAction6ActionERKNS_17AnalogOutputInt16Et, @function
_ZN8opendnp321ConstantCommandAction6ActionERKNS_17AnalogOutputInt16Et:
.LFB2813:
	.cfi_startproc
	movzbl	8(%rdi), %eax
	ret
	.cfi_endproc
.LFE2813:
	.size	_ZN8opendnp321ConstantCommandAction6ActionERKNS_17AnalogOutputInt16Et, .-_ZN8opendnp321ConstantCommandAction6ActionERKNS_17AnalogOutputInt16Et
	.section	.text._ZN8opendnp321ConstantCommandAction6ActionERKNS_17AnalogOutputInt32Et,"axG",@progbits,_ZN8opendnp321ConstantCommandAction6ActionERKNS_17AnalogOutputInt32Et,comdat
	.align 2
	.p2align 4
	.weak	_ZN8opendnp321ConstantCommandAction6ActionERKNS_17AnalogOutputInt32Et
	.type	_ZN8opendnp321ConstantCommandAction6ActionERKNS_17AnalogOutputInt32Et, @function
_ZN8opendnp321ConstantCommandAction6ActionERKNS_17AnalogOutputInt32Et:
.LFB2814:
	.cfi_startproc
	movzbl	8(%rdi), %eax
	ret
	.cfi_endproc
.LFE2814:
	.size	_ZN8opendnp321ConstantCommandAction6ActionERKNS_17AnalogOutputInt32Et, .-_ZN8opendnp321ConstantCommandAction6ActionERKNS_17AnalogOutputInt32Et
	.section	.text._ZN8opendnp321ConstantCommandAction6ActionERKNS_19AnalogOutputFloat32Et,"axG",@progbits,_ZN8opendnp321ConstantCommandAction6ActionERKNS_19AnalogOutputFloat32Et,comdat
	.align 2
	.p2align 4
	.weak	_ZN8opendnp321ConstantCommandAction6ActionERKNS_19AnalogOutputFloat32Et
	.type	_ZN8opendnp321ConstantCommandAction6ActionERKNS_19AnalogOutputFloat32Et, @function
_ZN8opendnp321ConstantCommandAction6ActionERKNS_19AnalogOutputFloat32Et:
.LFB2815:
	.cfi_startproc
	movzbl	8(%rdi), %eax
	ret
	.cfi_endproc
.LFE2815:
	.size	_ZN8opendnp321ConstantCommandAction6ActionERKNS_19AnalogOutputFloat32Et, .-_ZN8opendnp321ConstantCommandAction6ActionERKNS_19AnalogOutputFloat32Et
	.section	.text._ZN8opendnp321ConstantCommandAction6ActionERKNS_20AnalogOutputDouble64Et,"axG",@progbits,_ZN8opendnp321ConstantCommandAction6ActionERKNS_20AnalogOutputDouble64Et,comdat
	.align 2
	.p2align 4
	.weak	_ZN8opendnp321ConstantCommandAction6ActionERKNS_20AnalogOutputDouble64Et
	.type	_ZN8opendnp321ConstantCommandAction6ActionERKNS_20AnalogOutputDouble64Et, @function
_ZN8opendnp321ConstantCommandAction6ActionERKNS_20AnalogOutputDouble64Et:
.LFB2816:
	.cfi_startproc
	movzbl	8(%rdi), %eax
	ret
	.cfi_endproc
.LFE2816:
	.size	_ZN8opendnp321ConstantCommandAction6ActionERKNS_20AnalogOutputDouble64Et, .-_ZN8opendnp321ConstantCommandAction6ActionERKNS_20AnalogOutputDouble64Et
	.section	.text._ZN8opendnp321ConstantCommandActionD2Ev,"axG",@progbits,_ZN8opendnp321ConstantCommandActionD5Ev,comdat
	.align 2
	.p2align 4
	.weak	_ZN8opendnp321ConstantCommandActionD2Ev
	.type	_ZN8opendnp321ConstantCommandActionD2Ev, @function
_ZN8opendnp321ConstantCommandActionD2Ev:
.LFB2958:
	.cfi_startproc
	ret
	.cfi_endproc
.LFE2958:
	.size	_ZN8opendnp321ConstantCommandActionD2Ev, .-_ZN8opendnp321ConstantCommandActionD2Ev
	.weak	_ZN8opendnp321ConstantCommandActionD1Ev
	.set	_ZN8opendnp321ConstantCommandActionD1Ev,_ZN8opendnp321ConstantCommandActionD2Ev
	.section	.text._ZN8opendnp321ConstantCommandActionD0Ev,"axG",@progbits,_ZN8opendnp321ConstantCommandActionD5Ev,comdat
	.align 2
	.p2align 4
	.weak	_ZN8opendnp321ConstantCommandActionD0Ev
	.type	_ZN8opendnp321ConstantCommandActionD0Ev, @function
_ZN8opendnp321ConstantCommandActionD0Ev:
.LFB2960:
	.cfi_startproc
	movl	$16, %esi
	jmp	_ZdlPvm@PLT
	.cfi_endproc
.LFE2960:
	.size	_ZN8opendnp321ConstantCommandActionD0Ev, .-_ZN8opendnp321ConstantCommandActionD0Ev
	.section	.text._ZNK8opendnp322IOutstationApplication17GetApplicationIINEv,"axG",@progbits,_ZNK8opendnp322IOutstationApplication17GetApplicationIINEv,comdat
	.align 2
	.p2align 4
	.weak	_ZNK8opendnp322IOutstationApplication17GetApplicationIINEv
	.type	_ZNK8opendnp322IOutstationApplication17GetApplicationIINEv, @function
_ZNK8opendnp322IOutstationApplication17GetApplicationIINEv:
.LFB2056:
	.cfi_startproc
	subq	$24, %rsp
	.cfi_def_cfa_offset 32
	leaq	12(%rsp), %rdi
	call	_ZN8opendnp314ApplicationIINC1Ev@PLT
	movl	12(%rsp), %eax
	addq	$24, %rsp
	.cfi_def_cfa_offset 8
	ret
	.cfi_endproc
.LFE2056:
	.size	_ZNK8opendnp322IOutstationApplication17GetApplicationIINEv, .-_ZNK8opendnp322IOutstationApplication17GetApplicationIINEv
	.section	.rodata.str1.1,"aMS",@progbits,1
.LC0:
	.string	"already offline"
	.section	.rodata.str1.8,"aMS",@progbits,1
	.align 8
.LC1:
	.string	"/opt/PLC/OpenPLC_v3/utils/dnp3_src/cpp/libs/src/opendnp3/outstation/OutstationContext.cpp(96)"
	.text
	.align 2
	.p2align 4
	.globl	_ZN8opendnp38OContext16OnLowerLayerDownEv
	.type	_ZN8opendnp38OContext16OnLowerLayerDownEv, @function
_ZN8opendnp38OContext16OnLowerLayerDownEv:
.LFB2916:
	.cfi_startproc
	pushq	%r14
	.cfi_def_cfa_offset 16
	.cfi_offset 14, -16
	pushq	%rbp
	.cfi_def_cfa_offset 24
	.cfi_offset 6, -24
	pushq	%rbx
	.cfi_def_cfa_offset 32
	.cfi_offset 3, -32
	movq	%rdi, %rbx
	subq	$16, %rsp
	.cfi_def_cfa_offset 48
	movzbl	720(%rdi), %ebp
	testb	%bpl, %bpl
	je	.L24
	movq	_ZN8opendnp39StateIdle8instanceE@GOTPCREL(%rip), %rax
	movb	$0, 888(%rdi)
	leaq	744(%rdi), %rdi
	movq	%rax, 200(%rdi)
	xorl	%eax, %eax
	movw	%ax, -24(%rdi)
	call	_ZN8opendnp314RequestHistory5ResetEv@PLT
	leaq	760(%rbx), %rdi
	call	_ZN8opendnp315DeferredRequest5ResetEv@PLT
	leaq	104(%rbx), %rdi
	call	_ZN8opendnp311EventBuffer8UnselectEv@PLT
	leaq	640(%rbx), %rdi
	call	_ZN8opendnp315ResponseContext5ResetEv@PLT
	leaq	728(%rbx), %rdi
	call	_ZN7openpal8TimerRef6CancelEv@PLT
.L16:
	addq	$16, %rsp
	.cfi_remember_state
	.cfi_def_cfa_offset 32
	movl	%ebp, %eax
	popq	%rbx
	.cfi_def_cfa_offset 24
	popq	%rbp
	.cfi_def_cfa_offset 16
	popq	%r14
	.cfi_def_cfa_offset 8
	ret
	.p2align 4,,10
	.p2align 3
.L24:
	.cfi_restore_state
	leaq	8(%rdi), %r14
	leaq	12(%rsp), %rsi
	movl	$2, 12(%rsp)
	leaq	8(%rdi), %rdi
	call	_ZNK7openpal6Logger9IsEnabledERKNS_10LogFiltersE@PLT
	testb	%al, %al
	je	.L16
	leaq	12(%rsp), %rsi
	movq	%r14, %rdi
	leaq	.LC0(%rip), %rcx
	movl	$2, 12(%rsp)
	leaq	.LC1(%rip), %rdx
	call	_ZN7openpal6Logger3LogERKNS_10LogFiltersEPKcS5_@PLT
	addq	$16, %rsp
	.cfi_def_cfa_offset 32
	movl	%ebp, %eax
	popq	%rbx
	.cfi_def_cfa_offset 24
	popq	%rbp
	.cfi_def_cfa_offset 16
	popq	%r14
	.cfi_def_cfa_offset 8
	ret
	.cfi_endproc
.LFE2916:
	.size	_ZN8opendnp38OContext16OnLowerLayerDownEv, .-_ZN8opendnp38OContext16OnLowerLayerDownEv
	.p2align 4
	.type	_ZNSt17_Function_handlerIFvvEZN7openpal8TimerRef7RestartIZN8opendnp38OContext19RestartConfirmTimerEvEUlvE_EEvRKNS1_12TimeDurationERKT_EUlvE_E10_M_managerERSt9_Any_dataRKSF_St18_Manager_operation, @function
_ZNSt17_Function_handlerIFvvEZN7openpal8TimerRef7RestartIZN8opendnp38OContext19RestartConfirmTimerEvEUlvE_EEvRKNS1_12TimeDurationERKT_EUlvE_E10_M_managerERSt9_Any_dataRKSF_St18_Manager_operation:
.LFB3648:
	.cfi_startproc
	testl	%edx, %edx
	je	.L26
	cmpl	$1, %edx
	jne	.L31
	movq	%rsi, (%rdi)
.L29:
	xorl	%eax, %eax
	ret
	.p2align 4,,10
	.p2align 3
.L31:
	cmpl	$2, %edx
	jne	.L29
	movdqu	(%rsi), %xmm0
	movups	%xmm0, (%rdi)
	jmp	.L29
	.p2align 4,,10
	.p2align 3
.L26:
	leaq	_ZTIZN7openpal8TimerRef7RestartIZN8opendnp38OContext19RestartConfirmTimerEvEUlvE_EEvRKNS_12TimeDurationERKT_EUlvE_(%rip), %rax
	movq	%rax, (%rdi)
	xorl	%eax, %eax
	ret
	.cfi_endproc
.LFE3648:
	.size	_ZNSt17_Function_handlerIFvvEZN7openpal8TimerRef7RestartIZN8opendnp38OContext19RestartConfirmTimerEvEUlvE_EEvRKNS1_12TimeDurationERKT_EUlvE_E10_M_managerERSt9_Any_dataRKSF_St18_Manager_operation, .-_ZNSt17_Function_handlerIFvvEZN7openpal8TimerRef7RestartIZN8opendnp38OContext19RestartConfirmTimerEvEUlvE_EEvRKNS1_12TimeDurationERKT_EUlvE_E10_M_managerERSt9_Any_dataRKSF_St18_Manager_operation
	.align 2
	.p2align 4
	.globl	_ZN8opendnp38OContext17ProcessNewRequestERKNS_10APDUHeaderERKN7openpal6RSliceE
	.type	_ZN8opendnp38OContext17ProcessNewRequestERKNS_10APDUHeaderERKN7openpal6RSliceE, @function
_ZN8opendnp38OContext17ProcessNewRequestERKNS_10APDUHeaderERKN7openpal6RSliceE:
.LFB2920:
	.cfi_startproc
	movzbl	5(%rsi), %eax
	movb	%al, 832(%rdi)
	movq	944(%rdi), %rax
	movq	(%rax), %rcx
	cmpb	$1, (%rsi)
	je	.L35
	movq	40(%rcx), %r8
	movq	%rdx, %rcx
	movq	%rsi, %rdx
	movq	%rdi, %rsi
	movq	%rax, %rdi
	jmp	*%r8
	.p2align 4,,10
	.p2align 3
.L35:
	movq	32(%rcx), %r8
	movq	%rdx, %rcx
	movq	%rsi, %rdx
	movq	%rdi, %rsi
	movq	%rax, %rdi
	jmp	*%r8
	.cfi_endproc
.LFE2920:
	.size	_ZN8opendnp38OContext17ProcessNewRequestERKNS_10APDUHeaderERKN7openpal6RSliceE, .-_ZN8opendnp38OContext17ProcessNewRequestERKNS_10APDUHeaderERKN7openpal6RSliceE
	.align 2
	.p2align 4
	.globl	_ZN8opendnp38OContext19OnReceiveSolRequestERKNS_10APDUHeaderERKN7openpal6RSliceE
	.type	_ZN8opendnp38OContext19OnReceiveSolRequestERKNS_10APDUHeaderERKN7openpal6RSliceE, @function
_ZN8opendnp38OContext19OnReceiveSolRequestERKNS_10APDUHeaderERKN7openpal6RSliceE:
.LFB2919:
	.cfi_startproc
	cmpb	$0, 744(%rdi)
	je	.L37
	movzbl	832(%rdi), %eax
	cmpb	%al, 5(%rsi)
	je	.L44
.L37:
	jmp	_ZN8opendnp38OContext17ProcessNewRequestERKNS_10APDUHeaderERKN7openpal6RSliceE@PLT
	.p2align 4,,10
	.p2align 3
.L44:
	subq	$40, %rsp
	.cfi_def_cfa_offset 48
	movq	%rdi, %r8
	leaq	744(%rdi), %rdi
	movq	%r8, 24(%rsp)
	movq	%rdx, 16(%rsp)
	movq	%rsi, 8(%rsp)
	call	_ZNK8opendnp314RequestHistory22FullyEqualsLastRequestERKNS_10APDUHeaderERKN7openpal6RSliceE@PLT
	movq	8(%rsp), %rsi
	movq	16(%rsp), %rdx
	testb	%al, %al
	movq	24(%rsp), %r8
	je	.L38
	movq	944(%r8), %rdi
	movq	(%rdi), %rax
	cmpb	$1, (%rsi)
	je	.L45
	movq	48(%rax), %rax
.L43:
	movq	%rdx, %rcx
	addq	$40, %rsp
	.cfi_remember_state
	.cfi_def_cfa_offset 8
	movq	%rsi, %rdx
	movq	%r8, %rsi
	jmp	*%rax
	.p2align 4,,10
	.p2align 3
.L38:
	.cfi_restore_state
	movq	%r8, %rdi
	addq	$40, %rsp
	.cfi_remember_state
	.cfi_def_cfa_offset 8
	jmp	_ZN8opendnp38OContext17ProcessNewRequestERKNS_10APDUHeaderERKN7openpal6RSliceE@PLT
	.p2align 4,,10
	.p2align 3
.L45:
	.cfi_restore_state
	movq	56(%rax), %rax
	jmp	.L43
	.cfi_endproc
.LFE2919:
	.size	_ZN8opendnp38OContext19OnReceiveSolRequestERKNS_10APDUHeaderERKN7openpal6RSliceE, .-_ZN8opendnp38OContext19OnReceiveSolRequestERKNS_10APDUHeaderERKN7openpal6RSliceE
	.section	.rodata.str1.8
	.align 8
.LC2:
	.string	"Ignoring unsol with invalid function code: %s"
	.align 8
.LC3:
	.string	"/opt/PLC/OpenPLC_v3/utils/dnp3_src/cpp/libs/src/opendnp3/outstation/OutstationContext.cpp(222)"
	.text
	.align 2
	.p2align 4
	.globl	_ZN8opendnp38OContext14ProcessRequestERKNS_10APDUHeaderERKN7openpal6RSliceE
	.type	_ZN8opendnp38OContext14ProcessRequestERKNS_10APDUHeaderERKN7openpal6RSliceE, @function
_ZN8opendnp38OContext14ProcessRequestERKNS_10APDUHeaderERKN7openpal6RSliceE:
.LFB2922:
	.cfi_startproc
	pushq	%r14
	.cfi_def_cfa_offset 16
	.cfi_offset 14, -16
	pushq	%rbx
	.cfi_def_cfa_offset 24
	.cfi_offset 3, -24
	subq	$168, %rsp
	.cfi_def_cfa_offset 192
	cmpb	$0, 4(%rsi)
	je	.L47
	addq	$8, %rdi
	movq	%rsi, 8(%rsp)
	leaq	32(%rsp), %rsi
	movl	$4, 32(%rsp)
	movq	%rdi, %r14
	call	_ZNK7openpal6Logger9IsEnabledERKNS_10LogFiltersE@PLT
	movq	8(%rsp), %rcx
	testb	%al, %al
	jne	.L53
	addq	$168, %rsp
	.cfi_remember_state
	.cfi_def_cfa_offset 24
	popq	%rbx
	.cfi_def_cfa_offset 16
	popq	%r14
	.cfi_def_cfa_offset 8
	ret
	.p2align 4,,10
	.p2align 3
.L47:
	.cfi_restore_state
	movq	%rdi, 8(%rsp)
	call	_ZN8opendnp38OContext19OnReceiveSolRequestERKNS_10APDUHeaderERKN7openpal6RSliceE@PLT
	movq	8(%rsp), %rdi
	movq	%rax, 944(%rdi)
	addq	$168, %rsp
	.cfi_remember_state
	.cfi_def_cfa_offset 24
	popq	%rbx
	.cfi_def_cfa_offset 16
	popq	%r14
	.cfi_def_cfa_offset 8
	ret
	.p2align 4,,10
	.p2align 3
.L53:
	.cfi_restore_state
	movzbl	(%rcx), %edi
	call	_ZN8opendnp320FunctionCodeToStringENS_12FunctionCodeE@PLT
	leaq	32(%rsp), %rdi
	movl	$120, %esi
	leaq	.LC2(%rip), %rdx
	movq	%rax, %rcx
	xorl	%eax, %eax
	call	snprintf@PLT
	leaq	28(%rsp), %rsi
	movq	%r14, %rdi
	leaq	32(%rsp), %rcx
	leaq	.LC3(%rip), %rdx
	movl	$4, 28(%rsp)
	call	_ZN7openpal6Logger3LogERKNS_10LogFiltersEPKcS5_@PLT
	addq	$168, %rsp
	.cfi_def_cfa_offset 24
	popq	%rbx
	.cfi_def_cfa_offset 16
	popq	%r14
	.cfi_def_cfa_offset 8
	ret
	.cfi_endproc
.LFE2922:
	.size	_ZN8opendnp38OContext14ProcessRequestERKNS_10APDUHeaderERKN7openpal6RSliceE, .-_ZN8opendnp38OContext14ProcessRequestERKNS_10APDUHeaderERKN7openpal6RSliceE
	.align 2
	.p2align 4
	.globl	_ZN8opendnp38OContext14ProcessConfirmERKNS_10APDUHeaderE
	.type	_ZN8opendnp38OContext14ProcessConfirmERKNS_10APDUHeaderE, @function
_ZN8opendnp38OContext14ProcessConfirmERKNS_10APDUHeaderE:
.LFB2923:
	.cfi_startproc
	pushq	%rbx
	.cfi_def_cfa_offset 16
	.cfi_offset 3, -16
	movq	%rdi, %rbx
	movq	944(%rdi), %rdi
	movq	%rsi, %rdx
	movq	%rbx, %rsi
	movq	(%rdi), %rax
	call	*16(%rax)
	movq	%rax, 944(%rbx)
	popq	%rbx
	.cfi_def_cfa_offset 8
	ret
	.cfi_endproc
.LFE2923:
	.size	_ZN8opendnp38OContext14ProcessConfirmERKNS_10APDUHeaderE, .-_ZN8opendnp38OContext14ProcessConfirmERKNS_10APDUHeaderE
	.align 2
	.p2align 4
	.globl	_ZN8opendnp38OContext22ProcessDeferredRequestENS_10APDUHeaderEN7openpal6RSliceE
	.type	_ZN8opendnp38OContext22ProcessDeferredRequestENS_10APDUHeaderEN7openpal6RSliceE, @function
_ZN8opendnp38OContext22ProcessDeferredRequestENS_10APDUHeaderEN7openpal6RSliceE:
.LFB2929:
	.cfi_startproc
	subq	$40, %rsp
	.cfi_def_cfa_offset 48
	movq	%rdi, %r8
	movq	%rsi, 24(%rsp)
	movq	%rdx, (%rsp)
	movq	%rcx, 8(%rsp)
	testb	%sil, %sil
	je	.L65
	cmpb	$1, %sil
	jne	.L59
	movq	944(%rdi), %rdi
	movq	%r8, 16(%rsp)
	movq	(%rdi), %rax
	call	*(%rax)
	movq	16(%rsp), %r8
	testb	%al, %al
	jne	.L59
	addq	$40, %rsp
	.cfi_remember_state
	.cfi_def_cfa_offset 8
	ret
	.p2align 4,,10
	.p2align 3
.L59:
	.cfi_restore_state
	movq	%rsp, %rdx
	leaq	24(%rsp), %rsi
	movq	%r8, %rdi
	call	_ZN8opendnp38OContext14ProcessRequestERKNS_10APDUHeaderERKN7openpal6RSliceE@PLT
.L58:
	movl	$1, %eax
	addq	$40, %rsp
	.cfi_remember_state
	.cfi_def_cfa_offset 8
	ret
	.p2align 4,,10
	.p2align 3
.L65:
	.cfi_restore_state
	leaq	24(%rsp), %rsi
	call	_ZN8opendnp38OContext14ProcessConfirmERKNS_10APDUHeaderE@PLT
	jmp	.L58
	.cfi_endproc
.LFE2929:
	.size	_ZN8opendnp38OContext22ProcessDeferredRequestENS_10APDUHeaderEN7openpal6RSliceE, .-_ZN8opendnp38OContext22ProcessDeferredRequestENS_10APDUHeaderEN7openpal6RSliceE
	.section	.text.unlikely,"ax",@progbits
	.align 2
.LCOLDB5:
	.text
.LHOTB5:
	.align 2
	.p2align 4
	.globl	_ZN8opendnp38OContext19RestartConfirmTimerEv
	.type	_ZN8opendnp38OContext19RestartConfirmTimerEv, @function
_ZN8opendnp38OContext19RestartConfirmTimerEv:
.LFB2931:
	.cfi_startproc
	.cfi_personality 0x9b,DW.ref.__gxx_personality_v0
	.cfi_lsda 0x1b,.LLSDA2931
	pushq	%r14
	.cfi_def_cfa_offset 16
	.cfi_offset 14, -16
	leaq	_ZNSt17_Function_handlerIFvvEZN7openpal8TimerRef7RestartIZN8opendnp38OContext19RestartConfirmTimerEvEUlvE_EEvRKNS1_12TimeDurationERKT_EUlvE_E9_M_invokeERKSt9_Any_data(%rip), %rdx
	leaq	728(%rdi), %rax
	pushq	%rbx
	.cfi_def_cfa_offset 24
	.cfi_offset 3, -24
	movq	%rdx, %xmm1
	leaq	688(%rdi), %rsi
	subq	$40, %rsp
	.cfi_def_cfa_offset 64
	movq	.LC4(%rip), %xmm0
	movq	%rdi, 8(%rsp)
	movq	%rsp, %rdx
	movq	%rax, %rdi
	punpcklqdq	%xmm1, %xmm0
	movq	%rax, (%rsp)
	movaps	%xmm0, 16(%rsp)
.LEHB0:
	call	_ZN7openpal8TimerRef13RestartActionERKNS_12TimeDurationERKSt8functionIFvvEE@PLT
.LEHE0:
	movq	16(%rsp), %rax
	testq	%rax, %rax
	je	.L66
	movl	$3, %edx
	movq	%rsp, %rsi
	movq	%rsp, %rdi
	call	*%rax
.L66:
	addq	$40, %rsp
	.cfi_remember_state
	.cfi_def_cfa_offset 24
	popq	%rbx
	.cfi_def_cfa_offset 16
	popq	%r14
	.cfi_def_cfa_offset 8
	ret
.L70:
	.cfi_restore_state
	movq	%rax, %r14
	jmp	.L68
	.section	.gcc_except_table,"a",@progbits
.LLSDA2931:
	.byte	0xff
	.byte	0xff
	.byte	0x1
	.uleb128 .LLSDACSE2931-.LLSDACSB2931
.LLSDACSB2931:
	.uleb128 .LEHB0-.LFB2931
	.uleb128 .LEHE0-.LEHB0
	.uleb128 .L70-.LFB2931
	.uleb128 0
.LLSDACSE2931:
	.text
	.cfi_endproc
	.section	.text.unlikely
	.cfi_startproc
	.cfi_personality 0x9b,DW.ref.__gxx_personality_v0
	.cfi_lsda 0x1b,.LLSDAC2931
	.type	_ZN8opendnp38OContext19RestartConfirmTimerEv.cold, @function
_ZN8opendnp38OContext19RestartConfirmTimerEv.cold:
.LFSB2931:
.L68:
	.cfi_def_cfa_offset 64
	.cfi_offset 3, -24
	.cfi_offset 14, -16
	movq	16(%rsp), %rax
	testq	%rax, %rax
	je	.L69
	movl	$3, %edx
	movq	%rsp, %rsi
	movq	%rsp, %rdi
	call	*%rax
.L69:
	movq	%r14, %rdi
.LEHB1:
	call	_Unwind_Resume@PLT
.LEHE1:
	.cfi_endproc
.LFE2931:
	.section	.gcc_except_table
.LLSDAC2931:
	.byte	0xff
	.byte	0xff
	.byte	0x1
	.uleb128 .LLSDACSEC2931-.LLSDACSBC2931
.LLSDACSBC2931:
	.uleb128 .LEHB1-.LCOLDB5
	.uleb128 .LEHE1-.LEHB1
	.uleb128 0
	.uleb128 0
.LLSDACSEC2931:
	.section	.text.unlikely
	.text
	.size	_ZN8opendnp38OContext19RestartConfirmTimerEv, .-_ZN8opendnp38OContext19RestartConfirmTimerEv
	.section	.text.unlikely
	.size	_ZN8opendnp38OContext19RestartConfirmTimerEv.cold, .-_ZN8opendnp38OContext19RestartConfirmTimerEv.cold
.LCOLDE5:
	.text
.LHOTE5:
	.align 2
	.p2align 4
	.globl	_ZNK8opendnp38OContext11CanTransmitEv
	.type	_ZNK8opendnp38OContext11CanTransmitEv, @function
_ZNK8opendnp38OContext11CanTransmitEv:
.LFB2936:
	.cfi_startproc
	movzbl	720(%rdi), %eax
	testb	%al, %al
	je	.L78
	movzbl	721(%rdi), %eax
	xorl	$1, %eax
.L78:
	ret
	.cfi_endproc
.LFE2936:
	.size	_ZNK8opendnp38OContext11CanTransmitEv, .-_ZNK8opendnp38OContext11CanTransmitEv
	.align 2
	.p2align 4
	.globl	_ZN8opendnp38OContext23CheckForDeferredRequestEv
	.type	_ZN8opendnp38OContext23CheckForDeferredRequestEv, @function
_ZN8opendnp38OContext23CheckForDeferredRequestEv:
.LFB2927:
	.cfi_startproc
	pushq	%rbx
	.cfi_def_cfa_offset 16
	.cfi_offset 3, -16
	movq	%rdi, %rbx
	call	_ZNK8opendnp38OContext11CanTransmitEv@PLT
	testb	%al, %al
	jne	.L91
.L83:
	popq	%rbx
	.cfi_remember_state
	.cfi_def_cfa_offset 8
	ret
	.p2align 4,,10
	.p2align 3
.L91:
	.cfi_restore_state
	leaq	760(%rbx), %rdi
	call	_ZNK8opendnp315DeferredRequest5IsSetEv@PLT
	testb	%al, %al
	je	.L83
	cmpb	$0, 760(%rbx)
	je	.L83
	movzbl	762(%rbx), %esi
	movl	768(%rbx), %edx
	movq	%rbx, %rdi
	movzbl	761(%rbx), %eax
	movq	776(%rbx), %rcx
	salq	$8, %rsi
	orq	%rax, %rsi
	movzbl	763(%rbx), %eax
	salq	$16, %rax
	orq	%rsi, %rax
	movzbl	764(%rbx), %esi
	salq	$24, %rsi
	orq	%rax, %rsi
	movzbl	765(%rbx), %eax
	salq	$32, %rax
	orq	%rsi, %rax
	movzbl	766(%rbx), %esi
	salq	$40, %rsi
	orq	%rax, %rsi
	call	_ZN8opendnp38OContext22ProcessDeferredRequestENS_10APDUHeaderEN7openpal6RSliceE@PLT
	xorl	$1, %eax
	movb	%al, 760(%rbx)
	popq	%rbx
	.cfi_def_cfa_offset 8
	ret
	.cfi_endproc
.LFE2927:
	.size	_ZN8opendnp38OContext23CheckForDeferredRequestEv, .-_ZN8opendnp38OContext23CheckForDeferredRequestEv
	.align 2
	.p2align 4
	.globl	_ZN8opendnp38OContext13GetDynamicIINEv
	.type	_ZN8opendnp38OContext13GetDynamicIINEv, @function
_ZN8opendnp38OContext13GetDynamicIINEv:
.LFB2938:
	.cfi_startproc
	pushq	%r12
	.cfi_def_cfa_offset 16
	.cfi_offset 12, -16
	pushq	%rbp
	.cfi_def_cfa_offset 24
	.cfi_offset 6, -24
	leaq	104(%rdi), %rbp
	pushq	%rbx
	.cfi_def_cfa_offset 32
	.cfi_offset 3, -32
	movq	%rbp, %rdi
	subq	$16, %rsp
	.cfi_def_cfa_offset 48
	call	_ZNK8opendnp311EventBuffer19UnwrittenClassFieldEv@PLT
	leaq	13(%rsp), %rdi
	movb	%al, 13(%rsp)
	xorl	%eax, %eax
	movw	%ax, 14(%rsp)
	call	_ZNK8opendnp310ClassField9HasClass1Ev@PLT
	movl	$1, %esi
	leaq	14(%rsp), %rdi
	movzbl	%al, %edx
	call	_ZN8opendnp38IINField13SetBitToValueENS_6IINBitEb@PLT
	leaq	13(%rsp), %rdi
	call	_ZNK8opendnp310ClassField9HasClass2Ev@PLT
	movl	$2, %esi
	leaq	14(%rsp), %rdi
	movzbl	%al, %edx
	call	_ZN8opendnp38IINField13SetBitToValueENS_6IINBitEb@PLT
	leaq	13(%rsp), %rdi
	call	_ZNK8opendnp310ClassField9HasClass3Ev@PLT
	movl	$3, %esi
	leaq	14(%rsp), %rdi
	movzbl	%al, %edx
	call	_ZN8opendnp38IINField13SetBitToValueENS_6IINBitEb@PLT
	movq	%rbp, %rdi
	call	_ZN8opendnp311EventBuffer11IsOverflownEv@PLT
	leaq	14(%rsp), %rdi
	movl	$11, %esi
	movzbl	%al, %edx
	call	_ZN8opendnp38IINField13SetBitToValueENS_6IINBitEb@PLT
	movzwl	14(%rsp), %eax
	addq	$16, %rsp
	.cfi_def_cfa_offset 32
	popq	%rbx
	.cfi_def_cfa_offset 24
	popq	%rbp
	.cfi_def_cfa_offset 16
	popq	%r12
	.cfi_def_cfa_offset 8
	ret
	.cfi_endproc
.LFE2938:
	.size	_ZN8opendnp38OContext13GetDynamicIINEv, .-_ZN8opendnp38OContext13GetDynamicIINEv
	.align 2
	.p2align 4
	.globl	_ZN8opendnp38OContext14GetResponseIINEv
	.type	_ZN8opendnp38OContext14GetResponseIINEv, @function
_ZN8opendnp38OContext14GetResponseIINEv:
.LFB2937:
	.cfi_startproc
	pushq	%rbp
	.cfi_def_cfa_offset 16
	.cfi_offset 6, -16
	pushq	%rbx
	.cfi_def_cfa_offset 24
	.cfi_offset 3, -24
	movq	%rdi, %rbx
	subq	$24, %rsp
	.cfi_def_cfa_offset 48
	movq	88(%rdi), %rdi
	movq	(%rdi), %rax
	movq	80(%rax), %rax
	cmpq	_ZNK8opendnp322IOutstationApplication17GetApplicationIINEv@GOTPCREL(%rip), %rax
	jne	.L95
	leaq	12(%rsp), %rbp
	movq	%rbp, %rdi
	call	_ZN8opendnp314ApplicationIINC1Ev@PLT
.L96:
	movq	%rbp, %rdi
	call	_ZNK8opendnp314ApplicationIIN5ToIINEv@PLT
	movq	%rbx, %rdi
	movl	%eax, %ebp
	call	_ZN8opendnp38OContext13GetDynamicIINEv@PLT
	movzwl	722(%rbx), %edx
	addq	$24, %rsp
	.cfi_remember_state
	.cfi_def_cfa_offset 24
	orl	%ebp, %eax
	popq	%rbx
	.cfi_def_cfa_offset 16
	popq	%rbp
	.cfi_def_cfa_offset 8
	orl	%edx, %eax
	ret
	.p2align 4,,10
	.p2align 3
.L95:
	.cfi_restore_state
	call	*%rax
	leaq	12(%rsp), %rbp
	movl	%eax, 12(%rsp)
	jmp	.L96
	.cfi_endproc
.LFE2937:
	.size	_ZN8opendnp38OContext14GetResponseIINEv, .-_ZN8opendnp38OContext14GetResponseIINEv
	.align 2
	.p2align 4
	.globl	_ZN8opendnp38OContext13SetRestartIINEv
	.type	_ZN8opendnp38OContext13SetRestartIINEv, @function
_ZN8opendnp38OContext13SetRestartIINEv:
.LFB2941:
	.cfi_startproc
	addq	$722, %rdi
	movl	$7, %esi
	jmp	_ZN8opendnp38IINField6SetBitENS_6IINBitE@PLT
	.cfi_endproc
.LFE2941:
	.size	_ZN8opendnp38OContext13SetRestartIINEv, .-_ZN8opendnp38OContext13SetRestartIINEv
	.align 2
	.p2align 4
	.globl	_ZN8opendnp38OContext16GetUpdateHandlerEv
	.type	_ZN8opendnp38OContext16GetUpdateHandlerEv, @function
_ZN8opendnp38OContext16GetUpdateHandlerEv:
.LFB2942:
	.cfi_startproc
	leaq	360(%rdi), %rax
	ret
	.cfi_endproc
.LFE2942:
	.size	_ZN8opendnp38OContext16GetUpdateHandlerEv, .-_ZN8opendnp38OContext16GetUpdateHandlerEv
	.align 2
	.p2align 4
	.globl	_ZN8opendnp38OContext13GetConfigViewEv
	.type	_ZN8opendnp38OContext13GetConfigViewEv, @function
_ZN8opendnp38OContext13GetConfigViewEv:
.LFB2943:
	.cfi_startproc
	pushq	%rbx
	.cfi_def_cfa_offset 16
	.cfi_offset 3, -16
	addq	$408, %rsi
	movq	%rdi, %rbx
	call	_ZNK8opendnp313StaticBuffers7GetViewEv@PLT
	movq	%rbx, %rax
	popq	%rbx
	.cfi_def_cfa_offset 8
	ret
	.cfi_endproc
.LFE2943:
	.size	_ZN8opendnp38OContext13GetConfigViewEv, .-_ZN8opendnp38OContext13GetConfigViewEv
	.align 2
	.p2align 4
	.globl	_ZN8opendnp38OContext10HandleReadERKN7openpal6RSliceERNS_12HeaderWriterE
	.type	_ZN8opendnp38OContext10HandleReadERKN7openpal6RSliceERNS_12HeaderWriterE, @function
_ZN8opendnp38OContext10HandleReadERKN7openpal6RSliceERNS_12HeaderWriterE:
.LFB2946:
	.cfi_startproc
	pushq	%r15
	.cfi_def_cfa_offset 16
	.cfi_offset 15, -16
	movq	%rdx, %r15
	pushq	%r14
	.cfi_def_cfa_offset 24
	.cfi_offset 14, -24
	pushq	%r13
	.cfi_def_cfa_offset 32
	.cfi_offset 13, -32
	movq	%rsi, %r13
	pushq	%r12
	.cfi_def_cfa_offset 40
	.cfi_offset 12, -40
	leaq	640(%rdi), %r12
	pushq	%rbp
	.cfi_def_cfa_offset 48
	.cfi_offset 6, -48
	pushq	%rbx
	.cfi_def_cfa_offset 56
	.cfi_offset 3, -56
	movq	%rdi, %rbx
	movq	%r12, %rdi
	subq	$72, %rsp
	.cfi_def_cfa_offset 128
	call	_ZN8opendnp315ResponseContext5ResetEv@PLT
	leaq	104(%rbx), %rdi
	leaq	16(%rsp), %rbp
	call	_ZN8opendnp311EventBuffer8UnselectEv@PLT
	leaq	384(%rbx), %rdi
	call	_ZN8opendnp315DatabaseBuffers8UnselectEv@PLT
	leaq	112(%rbx), %rdx
	leaq	384(%rbx), %rsi
	movq	%rbp, %rdi
	call	_ZN8opendnp311ReadHandlerC1ERNS_15IStaticSelectorERNS_14IEventSelectorE@PLT
	leaq	8(%rbx), %rdx
	movq	%rbp, %rsi
	movq	%r13, %rdi
	movabsq	$35184372088832, %rcx
	call	_ZN8opendnp310APDUParser5ParseERKN7openpal6RSliceERNS_12IAPDUHandlerEPNS1_6LoggerENS_14ParserSettingsE@PLT
	testb	%al, %al
	jne	.L103
	movq	%r12, %rdi
	movq	%r15, %rsi
	call	_ZN8opendnp315ResponseContext12LoadResponseERNS_12HeaderWriterE@PLT
	movq	%rbp, %rdi
	movq	%rax, %rdx
	movb	%al, 2(%rsp)
	shrq	$16, %rdx
	movb	%ah, 3(%rsp)
	movb	%dl, 4(%rsp)
	movq	%rax, %rdx
	shrq	$32, %rax
	shrq	$24, %rdx
	movb	%al, 6(%rsp)
	movb	%dl, 5(%rsp)
	call	_ZNK8opendnp312IAPDUHandler6ErrorsEv@PLT
.L106:
	movzbl	3(%rsp), %edx
	movzbl	2(%rsp), %ecx
	sall	$8, %edx
	orl	%ecx, %edx
	movzbl	%ah, %ecx
	movzbl	%al, %eax
	sall	$8, %edx
	orl	%ecx, %edx
	sall	$8, %edx
	orl	%eax, %edx
	movzwl	4(%rsp), %eax
	movl	%edx, 8(%rsp)
	movw	%ax, 12(%rsp)
	movzbl	6(%rsp), %eax
	movzwl	12(%rsp), %ecx
	movb	%al, 14(%rsp)
	movl	8(%rsp), %eax
	movzbl	14(%rsp), %edx
	salq	$32, %rcx
	addq	$72, %rsp
	.cfi_remember_state
	.cfi_def_cfa_offset 56
	orq	%rcx, %rax
	popq	%rbx
	.cfi_def_cfa_offset 48
	popq	%rbp
	.cfi_def_cfa_offset 40
	salq	$48, %rdx
	popq	%r12
	.cfi_def_cfa_offset 32
	popq	%r13
	.cfi_def_cfa_offset 24
	orq	%rdx, %rax
	popq	%r14
	.cfi_def_cfa_offset 16
	popq	%r15
	.cfi_def_cfa_offset 8
	ret
	.p2align 4,,10
	.p2align 3
.L103:
	.cfi_restore_state
	movq	%r12, %rdi
	movl	%eax, %ebx
	call	_ZN8opendnp315ResponseContext5ResetEv@PLT
	leaq	2(%rsp), %rdi
	xorl	%r9d, %r9d
	xorl	%r8d, %r8d
	xorl	%ecx, %ecx
	movl	$1, %edx
	movl	$1, %esi
	call	_ZN8opendnp315AppControlFieldC1Ebbbbh@PLT
	movl	%ebx, %edi
	call	_ZN8opendnp318IINFromParseResultENS_11ParseResultE@PLT
	jmp	.L106
	.cfi_endproc
.LFE2946:
	.size	_ZN8opendnp38OContext10HandleReadERKN7openpal6RSliceERNS_12HeaderWriterE, .-_ZN8opendnp38OContext10HandleReadERKN7openpal6RSliceERNS_12HeaderWriterE
	.align 2
	.p2align 4
	.globl	_ZN8opendnp38OContext11HandleWriteERKN7openpal6RSliceE
	.type	_ZN8opendnp38OContext11HandleWriteERKN7openpal6RSliceE, @function
_ZN8opendnp38OContext11HandleWriteERKN7openpal6RSliceE:
.LFB2947:
	.cfi_startproc
	pushq	%r12
	.cfi_def_cfa_offset 16
	.cfi_offset 12, -16
	movq	%rsi, %r12
	leaq	722(%rdi), %rdx
	pushq	%rbp
	.cfi_def_cfa_offset 24
	.cfi_offset 6, -24
	pushq	%rbx
	.cfi_def_cfa_offset 32
	.cfi_offset 3, -32
	movq	%rdi, %rbx
	subq	$48, %rsp
	.cfi_def_cfa_offset 80
	movq	88(%rdi), %rsi
	movq	%rsp, %rdi
	call	_ZN8opendnp312WriteHandlerC1ERNS_22IOutstationApplicationEPNS_8IINFieldE@PLT
	leaq	8(%rbx), %rdx
	movq	%rsp, %rsi
	movq	%r12, %rdi
	movabsq	$35184372088833, %rcx
	call	_ZN8opendnp310APDUParser5ParseERKN7openpal6RSliceERNS_12IAPDUHandlerEPNS1_6LoggerENS_14ParserSettingsE@PLT
	testb	%al, %al
	jne	.L108
	movq	%rsp, %rdi
	call	_ZNK8opendnp312IAPDUHandler6ErrorsEv@PLT
	addq	$48, %rsp
	.cfi_remember_state
	.cfi_def_cfa_offset 32
	popq	%rbx
	.cfi_def_cfa_offset 24
	popq	%rbp
	.cfi_def_cfa_offset 16
	popq	%r12
	.cfi_def_cfa_offset 8
	ret
	.p2align 4,,10
	.p2align 3
.L108:
	.cfi_restore_state
	movl	%eax, %edi
	call	_ZN8opendnp318IINFromParseResultENS_11ParseResultE@PLT
	addq	$48, %rsp
	.cfi_def_cfa_offset 32
	popq	%rbx
	.cfi_def_cfa_offset 24
	popq	%rbp
	.cfi_def_cfa_offset 16
	popq	%r12
	.cfi_def_cfa_offset 8
	ret
	.cfi_endproc
.LFE2947:
	.size	_ZN8opendnp38OContext11HandleWriteERKN7openpal6RSliceE, .-_ZN8opendnp38OContext11HandleWriteERKN7openpal6RSliceE
	.align 2
	.p2align 4
	.globl	_ZN8opendnp38OContext18HandleDelayMeasureERKN7openpal6RSliceERNS_12HeaderWriterE
	.type	_ZN8opendnp38OContext18HandleDelayMeasureERKN7openpal6RSliceERNS_12HeaderWriterE, @function
_ZN8opendnp38OContext18HandleDelayMeasureERKN7openpal6RSliceERNS_12HeaderWriterE:
.LFB2951:
	.cfi_startproc
	pushq	%r14
	.cfi_def_cfa_offset 16
	.cfi_offset 14, -16
	pushq	%rbx
	.cfi_def_cfa_offset 24
	.cfi_offset 3, -24
	subq	$24, %rsp
	.cfi_def_cfa_offset 48
	movl	(%rsi), %ecx
	testl	%ecx, %ecx
	jne	.L112
	leaq	14(%rsp), %rdi
	movq	%rdx, %rbx
	call	_ZN8opendnp311Group52Var2C1Ev@PLT
	xorl	%edx, %edx
	movl	$3, %ecx
	movq	%rbx, %rdi
	movw	%dx, 14(%rsp)
	movl	$564, %esi
	movl	$7, %edx
	call	_ZN8opendnp312HeaderWriter22WriteHeaderWithReserveENS_16GroupVariationIDENS_13QualifierCodeEj@PLT
	testb	%al, %al
	jne	.L119
.L113:
	addq	$24, %rsp
	.cfi_remember_state
	.cfi_def_cfa_offset 24
	xorl	%eax, %eax
	popq	%rbx
	.cfi_def_cfa_offset 16
	popq	%r14
	.cfi_def_cfa_offset 8
	ret
	.p2align 4,,10
	.p2align 3
.L112:
	.cfi_restore_state
	xorl	%eax, %eax
	leaq	14(%rsp), %rdi
	movl	$10, %esi
	movw	%ax, 14(%rsp)
	call	_ZN8opendnp38IINField6SetBitENS_6IINBitE@PLT
	movzwl	14(%rsp), %eax
	addq	$24, %rsp
	.cfi_remember_state
	.cfi_def_cfa_offset 24
	popq	%rbx
	.cfi_def_cfa_offset 16
	popq	%r14
	.cfi_def_cfa_offset 8
	ret
	.p2align 4,,10
	.p2align 3
.L119:
	.cfi_restore_state
	movq	(%rbx), %rdi
	movl	$1, %esi
	movq	8(%rdi), %rax
	movb	$1, (%rax)
	call	_ZN7openpal6WSlice7AdvanceEj@PLT
	movq	(%rbx), %rsi
	leaq	14(%rsp), %rdi
	call	_ZN8opendnp311Group52Var25WriteERKS0_RN7openpal6WSliceE@PLT
	jmp	.L113
	.cfi_endproc
.LFE2951:
	.size	_ZN8opendnp38OContext18HandleDelayMeasureERKN7openpal6RSliceERNS_12HeaderWriterE, .-_ZN8opendnp38OContext18HandleDelayMeasureERKN7openpal6RSliceERNS_12HeaderWriterE
	.align 2
	.p2align 4
	.globl	_ZN8opendnp38OContext13HandleRestartERKN7openpal6RSliceEbPNS_12HeaderWriterE
	.type	_ZN8opendnp38OContext13HandleRestartERKN7openpal6RSliceEbPNS_12HeaderWriterE, @function
_ZN8opendnp38OContext13HandleRestartERKN7openpal6RSliceEbPNS_12HeaderWriterE:
.LFB2952:
	.cfi_startproc
	pushq	%r14
	.cfi_def_cfa_offset 16
	.cfi_offset 14, -16
	pushq	%rbx
	.cfi_def_cfa_offset 24
	.cfi_offset 3, -24
	subq	$40, %rsp
	.cfi_def_cfa_offset 64
	movl	(%rsi), %esi
	testl	%esi, %esi
	jne	.L121
	movq	%rdi, %r8
	movq	88(%rdi), %rdi
	movq	%rcx, %rbx
	movq	(%rdi), %rax
	testb	%dl, %dl
	jne	.L161
	movq	88(%rax), %rax
	cmpq	_ZNK8opendnp322IOutstationApplication18ColdRestartSupportEv@GOTPCREL(%rip), %rax
	jne	.L162
.L123:
	xorl	%edx, %edx
	leaq	30(%rsp), %rdi
	movl	$8, %esi
	movw	%dx, 30(%rsp)
	call	_ZN8opendnp38IINField6SetBitENS_6IINBitE@PLT
	movzwl	30(%rsp), %eax
	addq	$40, %rsp
	.cfi_remember_state
	.cfi_def_cfa_offset 24
	popq	%rbx
	.cfi_def_cfa_offset 16
	popq	%r14
	.cfi_def_cfa_offset 8
	ret
	.p2align 4,,10
	.p2align 3
.L161:
	.cfi_restore_state
	movq	96(%rax), %rax
	cmpq	_ZNK8opendnp322IOutstationApplication18WarmRestartSupportEv@GOTPCREL(%rip), %rax
	je	.L123
	movq	%r8, 8(%rsp)
	call	*%rax
	testb	%al, %al
	je	.L123
	cmpb	$2, %al
	movq	8(%rsp), %r8
	jne	.L163
	movq	88(%r8), %rdi
	movq	(%rdi), %rax
	movq	112(%rax), %rax
	cmpq	_ZN8opendnp322IOutstationApplication11WarmRestartEv@GOTPCREL(%rip), %rax
	jne	.L130
.L132:
	movl	$-1, %eax
.L131:
	testq	%rbx, %rbx
	je	.L134
	leaq	30(%rsp), %rdi
	movl	%eax, 8(%rsp)
	call	_ZN8opendnp311Group52Var1C1Ev@PLT
	movl	8(%rsp), %eax
	movl	$3, %ecx
	movq	%rbx, %rdi
	movl	$7, %edx
	movl	$308, %esi
	movw	%ax, 30(%rsp)
	call	_ZN8opendnp312HeaderWriter22WriteHeaderWithReserveENS_16GroupVariationIDENS_13QualifierCodeEj@PLT
	testb	%al, %al
	jne	.L164
.L134:
	xorl	%eax, %eax
.L165:
	addq	$40, %rsp
	.cfi_remember_state
	.cfi_def_cfa_offset 24
	popq	%rbx
	.cfi_def_cfa_offset 16
	popq	%r14
	.cfi_def_cfa_offset 8
	ret
	.p2align 4,,10
	.p2align 3
.L121:
	.cfi_restore_state
	xorl	%eax, %eax
	leaq	30(%rsp), %rdi
	movl	$10, %esi
	movw	%ax, 30(%rsp)
	call	_ZN8opendnp38IINField6SetBitENS_6IINBitE@PLT
	movzwl	30(%rsp), %eax
	addq	$40, %rsp
	.cfi_remember_state
	.cfi_def_cfa_offset 24
	popq	%rbx
	.cfi_def_cfa_offset 16
	popq	%r14
	.cfi_def_cfa_offset 8
	ret
.L163:
	.cfi_restore_state
	movq	88(%r8), %rdi
	movq	(%rdi), %rax
	movq	112(%rax), %rax
	cmpq	_ZN8opendnp322IOutstationApplication11WarmRestartEv@GOTPCREL(%rip), %rax
	jne	.L160
.L138:
	movl	$-1, %eax
.L137:
	testq	%rbx, %rbx
	je	.L134
	leaq	30(%rsp), %rdi
	movl	%eax, 8(%rsp)
	call	_ZN8opendnp311Group52Var2C1Ev@PLT
	movl	8(%rsp), %eax
	movl	$3, %ecx
	movq	%rbx, %rdi
	movl	$7, %edx
	movl	$564, %esi
	movw	%ax, 30(%rsp)
	call	_ZN8opendnp312HeaderWriter22WriteHeaderWithReserveENS_16GroupVariationIDENS_13QualifierCodeEj@PLT
	testb	%al, %al
	je	.L134
	movq	(%rbx), %rdi
	movl	$1, %esi
	movq	8(%rdi), %rax
	movb	$1, (%rax)
	call	_ZN7openpal6WSlice7AdvanceEj@PLT
	movq	(%rbx), %rsi
	leaq	30(%rsp), %rdi
	call	_ZN8opendnp311Group52Var25WriteERKS0_RN7openpal6WSliceE@PLT
	xorl	%eax, %eax
	jmp	.L165
	.p2align 4,,10
	.p2align 3
.L162:
	movq	%r8, 8(%rsp)
	call	*%rax
	testb	%al, %al
	je	.L123
	cmpb	$2, %al
	movq	8(%rsp), %r8
	je	.L166
	movq	88(%r8), %rdi
	movq	(%rdi), %rax
	movq	104(%rax), %rax
	cmpq	_ZN8opendnp322IOutstationApplication11ColdRestartEv@GOTPCREL(%rip), %rax
	je	.L138
.L160:
	call	*%rax
	jmp	.L137
.L166:
	movq	88(%r8), %rdi
	movq	(%rdi), %rax
	movq	104(%rax), %rax
	cmpq	_ZN8opendnp322IOutstationApplication11ColdRestartEv@GOTPCREL(%rip), %rax
	je	.L132
.L130:
	call	*%rax
	jmp	.L131
	.p2align 4,,10
	.p2align 3
.L164:
	movq	(%rbx), %rdi
	movl	$1, %esi
	movq	8(%rdi), %rax
	movb	$1, (%rax)
	call	_ZN7openpal6WSlice7AdvanceEj@PLT
	movq	(%rbx), %rsi
	leaq	30(%rsp), %rdi
	call	_ZN8opendnp311Group52Var15WriteERKS0_RN7openpal6WSliceE@PLT
	xorl	%eax, %eax
	jmp	.L165
	.cfi_endproc
.LFE2952:
	.size	_ZN8opendnp38OContext13HandleRestartERKN7openpal6RSliceEbPNS_12HeaderWriterE, .-_ZN8opendnp38OContext13HandleRestartERKN7openpal6RSliceEbPNS_12HeaderWriterE
	.align 2
	.p2align 4
	.globl	_ZN8opendnp38OContext17HandleAssignClassERKN7openpal6RSliceE
	.type	_ZN8opendnp38OContext17HandleAssignClassERKN7openpal6RSliceE, @function
_ZN8opendnp38OContext17HandleAssignClassERKN7openpal6RSliceE:
.LFB2953:
	.cfi_startproc
	pushq	%r14
	.cfi_def_cfa_offset 16
	.cfi_offset 14, -16
	pushq	%rbp
	.cfi_def_cfa_offset 24
	.cfi_offset 6, -24
	pushq	%rbx
	.cfi_def_cfa_offset 32
	.cfi_offset 3, -32
	movq	%rdi, %rbx
	subq	$64, %rsp
	.cfi_def_cfa_offset 96
	movq	88(%rdi), %rdi
	movq	(%rdi), %rax
	movq	64(%rax), %rax
	cmpq	_ZN8opendnp322IOutstationApplication19SupportsAssignClassEv@GOTPCREL(%rip), %rax
	jne	.L176
.L168:
	xorl	%eax, %eax
	movq	%rsp, %rdi
	movl	$8, %esi
	movw	%ax, (%rsp)
	call	_ZN8opendnp38IINField6SetBitENS_6IINBitE@PLT
	movzwl	(%rsp), %eax
	addq	$64, %rsp
	.cfi_remember_state
	.cfi_def_cfa_offset 32
	popq	%rbx
	.cfi_def_cfa_offset 24
	popq	%rbp
	.cfi_def_cfa_offset 16
	popq	%r14
	.cfi_def_cfa_offset 8
	ret
	.p2align 4,,10
	.p2align 3
.L176:
	.cfi_restore_state
	movq	%rsi, %r14
	call	*%rax
	testb	%al, %al
	je	.L168
	movq	88(%rbx), %rdx
	movq	40(%rbx), %rsi
	leaq	400(%rbx), %rcx
	movq	%rsp, %rdi
	call	_ZN8opendnp318AssignClassHandlerC1ERN7openpal9IExecutorERNS_22IOutstationApplicationERNS_14IClassAssignerE@PLT
	leaq	8(%rbx), %rdx
	movq	%rsp, %rsi
	movq	%r14, %rdi
	movabsq	$35184372088832, %rcx
	call	_ZN8opendnp310APDUParser5ParseERKN7openpal6RSliceERNS_12IAPDUHandlerEPNS1_6LoggerENS_14ParserSettingsE@PLT
	testb	%al, %al
	jne	.L169
	movq	%rsp, %rdi
	call	_ZNK8opendnp312IAPDUHandler6ErrorsEv@PLT
	addq	$64, %rsp
	.cfi_remember_state
	.cfi_def_cfa_offset 32
	popq	%rbx
	.cfi_def_cfa_offset 24
	popq	%rbp
	.cfi_def_cfa_offset 16
	popq	%r14
	.cfi_def_cfa_offset 8
	ret
	.p2align 4,,10
	.p2align 3
.L169:
	.cfi_restore_state
	movl	%eax, %edi
	call	_ZN8opendnp318IINFromParseResultENS_11ParseResultE@PLT
	addq	$64, %rsp
	.cfi_def_cfa_offset 32
	popq	%rbx
	.cfi_def_cfa_offset 24
	popq	%rbp
	.cfi_def_cfa_offset 16
	popq	%r14
	.cfi_def_cfa_offset 8
	ret
	.cfi_endproc
.LFE2953:
	.size	_ZN8opendnp38OContext17HandleAssignClassERKN7openpal6RSliceE, .-_ZN8opendnp38OContext17HandleAssignClassERKN7openpal6RSliceE
	.align 2
	.p2align 4
	.globl	_ZN8opendnp38OContext24HandleDisableUnsolicitedERKN7openpal6RSliceERNS_12HeaderWriterE
	.type	_ZN8opendnp38OContext24HandleDisableUnsolicitedERKN7openpal6RSliceERNS_12HeaderWriterE, @function
_ZN8opendnp38OContext24HandleDisableUnsolicitedERKN7openpal6RSliceERNS_12HeaderWriterE:
.LFB2954:
	.cfi_startproc
	pushq	%r12
	.cfi_def_cfa_offset 16
	.cfi_offset 12, -16
	movq	%rsi, %r12
	pushq	%rbp
	.cfi_def_cfa_offset 24
	.cfi_offset 6, -24
	movq	%rdi, %rbp
	pushq	%rbx
	.cfi_def_cfa_offset 32
	.cfi_offset 3, -32
	subq	$48, %rsp
	.cfi_def_cfa_offset 80
	leaq	16(%rsp), %rdi
	call	_ZN8opendnp312IAPDUHandlerC2Ev@PLT
	movq	_ZTVN8opendnp324ClassBasedRequestHandlerE@GOTPCREL(%rip), %rax
	leaq	36(%rsp), %rdi
	addq	$16, %rax
	movq	%rax, 16(%rsp)
	call	_ZN8opendnp310ClassFieldC1Ev@PLT
	leaq	8(%rbp), %rdx
	leaq	16(%rsp), %rsi
	movq	%r12, %rdi
	movabsq	$35184372088833, %rcx
	call	_ZN8opendnp310APDUParser5ParseERKN7openpal6RSliceERNS_12IAPDUHandlerEPNS1_6LoggerENS_14ParserSettingsE@PLT
	testb	%al, %al
	jne	.L178
	movzbl	36(%rsp), %eax
	leaq	15(%rsp), %rsi
	leaq	716(%rbp), %rdi
	movb	%al, 15(%rsp)
	call	_ZN8opendnp310ClassField5ClearERKS0_@PLT
	leaq	16(%rsp), %rdi
	call	_ZNK8opendnp312IAPDUHandler6ErrorsEv@PLT
	addq	$48, %rsp
	.cfi_remember_state
	.cfi_def_cfa_offset 32
	popq	%rbx
	.cfi_def_cfa_offset 24
	popq	%rbp
	.cfi_def_cfa_offset 16
	popq	%r12
	.cfi_def_cfa_offset 8
	ret
	.p2align 4,,10
	.p2align 3
.L178:
	.cfi_restore_state
	movl	%eax, %edi
	call	_ZN8opendnp318IINFromParseResultENS_11ParseResultE@PLT
	addq	$48, %rsp
	.cfi_def_cfa_offset 32
	popq	%rbx
	.cfi_def_cfa_offset 24
	popq	%rbp
	.cfi_def_cfa_offset 16
	popq	%r12
	.cfi_def_cfa_offset 8
	ret
	.cfi_endproc
.LFE2954:
	.size	_ZN8opendnp38OContext24HandleDisableUnsolicitedERKN7openpal6RSliceERNS_12HeaderWriterE, .-_ZN8opendnp38OContext24HandleDisableUnsolicitedERKN7openpal6RSliceERNS_12HeaderWriterE
	.align 2
	.p2align 4
	.globl	_ZN8opendnp38OContext23HandleEnableUnsolicitedERKN7openpal6RSliceERNS_12HeaderWriterE
	.type	_ZN8opendnp38OContext23HandleEnableUnsolicitedERKN7openpal6RSliceERNS_12HeaderWriterE, @function
_ZN8opendnp38OContext23HandleEnableUnsolicitedERKN7openpal6RSliceERNS_12HeaderWriterE:
.LFB2955:
	.cfi_startproc
	pushq	%r12
	.cfi_def_cfa_offset 16
	.cfi_offset 12, -16
	movq	%rsi, %r12
	pushq	%rbp
	.cfi_def_cfa_offset 24
	.cfi_offset 6, -24
	movq	%rdi, %rbp
	pushq	%rbx
	.cfi_def_cfa_offset 32
	.cfi_offset 3, -32
	subq	$48, %rsp
	.cfi_def_cfa_offset 80
	leaq	16(%rsp), %rdi
	call	_ZN8opendnp312IAPDUHandlerC2Ev@PLT
	movq	_ZTVN8opendnp324ClassBasedRequestHandlerE@GOTPCREL(%rip), %rax
	leaq	36(%rsp), %rdi
	addq	$16, %rax
	movq	%rax, 16(%rsp)
	call	_ZN8opendnp310ClassFieldC1Ev@PLT
	leaq	8(%rbp), %rdx
	leaq	16(%rsp), %rsi
	movq	%r12, %rdi
	movabsq	$35184372088833, %rcx
	call	_ZN8opendnp310APDUParser5ParseERKN7openpal6RSliceERNS_12IAPDUHandlerEPNS1_6LoggerENS_14ParserSettingsE@PLT
	testb	%al, %al
	jne	.L182
	movzbl	36(%rsp), %eax
	leaq	15(%rsp), %rsi
	leaq	716(%rbp), %rdi
	movb	%al, 15(%rsp)
	call	_ZN8opendnp310ClassField3SetERKS0_@PLT
	leaq	16(%rsp), %rdi
	call	_ZNK8opendnp312IAPDUHandler6ErrorsEv@PLT
	addq	$48, %rsp
	.cfi_remember_state
	.cfi_def_cfa_offset 32
	popq	%rbx
	.cfi_def_cfa_offset 24
	popq	%rbp
	.cfi_def_cfa_offset 16
	popq	%r12
	.cfi_def_cfa_offset 8
	ret
	.p2align 4,,10
	.p2align 3
.L182:
	.cfi_restore_state
	movl	%eax, %edi
	call	_ZN8opendnp318IINFromParseResultENS_11ParseResultE@PLT
	addq	$48, %rsp
	.cfi_def_cfa_offset 32
	popq	%rbx
	.cfi_def_cfa_offset 24
	popq	%rbp
	.cfi_def_cfa_offset 16
	popq	%r12
	.cfi_def_cfa_offset 8
	ret
	.cfi_endproc
.LFE2955:
	.size	_ZN8opendnp38OContext23HandleEnableUnsolicitedERKN7openpal6RSliceERNS_12HeaderWriterE, .-_ZN8opendnp38OContext23HandleEnableUnsolicitedERKN7openpal6RSliceERNS_12HeaderWriterE
	.align 2
	.p2align 4
	.globl	_ZN8opendnp38OContext25HandleCommandWithConstantERKN7openpal6RSliceERNS_12HeaderWriterENS_13CommandStatusE
	.type	_ZN8opendnp38OContext25HandleCommandWithConstantERKN7openpal6RSliceERNS_12HeaderWriterENS_13CommandStatusE, @function
_ZN8opendnp38OContext25HandleCommandWithConstantERKN7openpal6RSliceERNS_12HeaderWriterENS_13CommandStatusE:
.LFB2956:
	.cfi_startproc
	pushq	%r12
	.cfi_def_cfa_offset 16
	.cfi_offset 12, -16
	movq	%rdx, %rax
	movq	%rsi, %r12
	pushq	%rbp
	.cfi_def_cfa_offset 24
	.cfi_offset 6, -24
	pushq	%rbx
	.cfi_def_cfa_offset 32
	.cfi_offset 3, -32
	movq	%rdi, %rbx
	subq	$80, %rsp
	.cfi_def_cfa_offset 112
	movq	_ZTVN8opendnp321ConstantCommandActionE@GOTPCREL(%rip), %rdx
	movzbl	665(%rdi), %esi
	leaq	16(%rsp), %rbp
	movb	%cl, 8(%rsp)
	movq	%rax, %rcx
	addq	$16, %rdx
	movq	%rbp, %rdi
	movq	%rdx, (%rsp)
	movq	%rsp, %rdx
	call	_ZN8opendnp322CommandResponseHandlerC1EhPNS_14ICommandActionEPNS_12HeaderWriterE@PLT
	leaq	8(%rbx), %rdx
	movq	%rbp, %rsi
	movq	%r12, %rdi
	movabsq	$35184372088833, %rcx
	call	_ZN8opendnp310APDUParser5ParseERKN7openpal6RSliceERNS_12IAPDUHandlerEPNS1_6LoggerENS_14ParserSettingsE@PLT
	movl	%eax, %edi
	call	_ZN8opendnp318IINFromParseResultENS_11ParseResultE@PLT
	addq	$80, %rsp
	.cfi_def_cfa_offset 32
	popq	%rbx
	.cfi_def_cfa_offset 24
	popq	%rbp
	.cfi_def_cfa_offset 16
	popq	%r12
	.cfi_def_cfa_offset 8
	ret
	.cfi_endproc
.LFE2956:
	.size	_ZN8opendnp38OContext25HandleCommandWithConstantERKN7openpal6RSliceERNS_12HeaderWriterENS_13CommandStatusE, .-_ZN8opendnp38OContext25HandleCommandWithConstantERKN7openpal6RSliceERNS_12HeaderWriterENS_13CommandStatusE
	.section	.text._ZNSt16_Sp_counted_baseILN9__gnu_cxx12_Lock_policyE2EE24_M_release_last_use_coldEv,"axG",@progbits,_ZNSt16_Sp_counted_baseILN9__gnu_cxx12_Lock_policyE2EE24_M_release_last_use_coldEv,comdat
	.align 2
	.p2align 4
	.weak	_ZNSt16_Sp_counted_baseILN9__gnu_cxx12_Lock_policyE2EE24_M_release_last_use_coldEv
	.type	_ZNSt16_Sp_counted_baseILN9__gnu_cxx12_Lock_policyE2EE24_M_release_last_use_coldEv, @function
_ZNSt16_Sp_counted_baseILN9__gnu_cxx12_Lock_policyE2EE24_M_release_last_use_coldEv:
.LFB3001:
	.cfi_startproc
	pushq	%rbx
	.cfi_def_cfa_offset 16
	.cfi_offset 3, -16
	movq	(%rdi), %rax
	movq	%rdi, %rbx
	call	*16(%rax)
	movq	__libc_single_threaded@GOTPCREL(%rip), %rax
	cmpb	$0, (%rax)
	je	.L188
	movl	12(%rbx), %eax
	leal	-1(%rax), %edx
	movl	%edx, 12(%rbx)
.L189:
	cmpl	$1, %eax
	je	.L192
	popq	%rbx
	.cfi_remember_state
	.cfi_def_cfa_offset 8
	ret
	.p2align 4,,10
	.p2align 3
.L192:
	.cfi_restore_state
	movq	(%rbx), %rax
	movq	%rbx, %rdi
	popq	%rbx
	.cfi_remember_state
	.cfi_def_cfa_offset 8
	movq	24(%rax), %rax
	jmp	*%rax
	.p2align 4,,10
	.p2align 3
.L188:
	.cfi_restore_state
	movl	$-1, %eax
	lock xaddl	%eax, 12(%rbx)
	jmp	.L189
	.cfi_endproc
.LFE3001:
	.size	_ZNSt16_Sp_counted_baseILN9__gnu_cxx12_Lock_policyE2EE24_M_release_last_use_coldEv, .-_ZNSt16_Sp_counted_baseILN9__gnu_cxx12_Lock_policyE2EE24_M_release_last_use_coldEv
	.section	.text._ZNSt16_Sp_counted_baseILN9__gnu_cxx12_Lock_policyE2EE10_M_releaseEv,"axG",@progbits,_ZNSt16_Sp_counted_baseILN9__gnu_cxx12_Lock_policyE2EE10_M_releaseEv,comdat
	.align 2
	.p2align 4
	.weak	_ZNSt16_Sp_counted_baseILN9__gnu_cxx12_Lock_policyE2EE10_M_releaseEv
	.type	_ZNSt16_Sp_counted_baseILN9__gnu_cxx12_Lock_policyE2EE10_M_releaseEv, @function
_ZNSt16_Sp_counted_baseILN9__gnu_cxx12_Lock_policyE2EE10_M_releaseEv:
.LFB1667:
	.cfi_startproc
	movabsq	$4294967297, %rax
	movq	8(%rdi), %rdx
	cmpq	%rax, %rdx
	je	.L201
	movq	__libc_single_threaded@GOTPCREL(%rip), %rax
	cmpb	$0, (%rax)
	je	.L195
	movl	8(%rdi), %eax
	leal	-1(%rax), %edx
	movl	%edx, 8(%rdi)
.L196:
	cmpl	$1, %eax
	je	.L202
	ret
	.p2align 4,,10
	.p2align 3
.L195:
	leaq	8(%rdi), %rcx
	movl	$-1, %eax
	lock xaddl	%eax, (%rcx)
	jmp	.L196
	.p2align 4,,10
	.p2align 3
.L201:
	subq	$24, %rsp
	.cfi_def_cfa_offset 32
	movq	(%rdi), %rax
	movq	$0, 8(%rdi)
	movq	%rdi, 8(%rsp)
	call	*16(%rax)
	movq	8(%rsp), %rdi
	movq	(%rdi), %rax
	movq	24(%rax), %rax
	addq	$24, %rsp
	.cfi_def_cfa_offset 8
	jmp	*%rax
	.p2align 4,,10
	.p2align 3
.L202:
	jmp	_ZNSt16_Sp_counted_baseILN9__gnu_cxx12_Lock_policyE2EE24_M_release_last_use_coldEv@PLT
	.cfi_endproc
.LFE1667:
	.size	_ZNSt16_Sp_counted_baseILN9__gnu_cxx12_Lock_policyE2EE10_M_releaseEv, .-_ZNSt16_Sp_counted_baseILN9__gnu_cxx12_Lock_policyE2EE10_M_releaseEv
	.section	.text._ZN7openpal6LoggerD2Ev,"axG",@progbits,_ZN7openpal6LoggerD5Ev,comdat
	.align 2
	.p2align 4
	.weak	_ZN7openpal6LoggerD2Ev
	.type	_ZN7openpal6LoggerD2Ev, @function
_ZN7openpal6LoggerD2Ev:
.LFB2650:
	.cfi_startproc
	subq	$24, %rsp
	.cfi_def_cfa_offset 32
	movq	%rdi, %rax
	movq	24(%rdi), %rdi
	testq	%rdi, %rdi
	je	.L205
	movq	8(%rdi), %rcx
	leaq	8(%rdi), %rsi
	movabsq	$4294967297, %rdx
	cmpq	%rdx, %rcx
	je	.L217
	movq	__libc_single_threaded@GOTPCREL(%rip), %rdx
	cmpb	$0, (%rdx)
	je	.L207
	movl	8(%rdi), %edx
	leal	-1(%rdx), %ecx
	movl	%ecx, 8(%rdi)
.L208:
	cmpl	$1, %edx
	je	.L218
.L205:
	movq	8(%rax), %rdi
	testq	%rdi, %rdi
	je	.L203
	movq	8(%rdi), %rdx
	leaq	8(%rdi), %rcx
	movabsq	$4294967297, %rax
	cmpq	%rax, %rdx
	je	.L219
	movq	__libc_single_threaded@GOTPCREL(%rip), %rax
	cmpb	$0, (%rax)
	je	.L213
	movl	8(%rdi), %eax
	leal	-1(%rax), %edx
	movl	%edx, 8(%rdi)
.L214:
	cmpl	$1, %eax
	je	.L220
.L203:
	addq	$24, %rsp
	.cfi_remember_state
	.cfi_def_cfa_offset 8
	ret
	.p2align 4,,10
	.p2align 3
.L219:
	.cfi_restore_state
	movq	(%rdi), %rax
	movq	%rdi, (%rsp)
	movq	$0, 8(%rdi)
	call	*16(%rax)
	movq	(%rsp), %rdi
	movq	(%rdi), %rax
	movq	24(%rax), %rax
	addq	$24, %rsp
	.cfi_remember_state
	.cfi_def_cfa_offset 8
	jmp	*%rax
	.p2align 4,,10
	.p2align 3
.L217:
	.cfi_restore_state
	movq	(%rdi), %rdx
	movq	%rax, 8(%rsp)
	movq	$0, 8(%rdi)
	movq	%rdi, (%rsp)
	call	*16(%rdx)
	movq	(%rsp), %rdi
	movq	(%rdi), %rdx
	call	*24(%rdx)
	movq	8(%rsp), %rax
	jmp	.L205
	.p2align 4,,10
	.p2align 3
.L213:
	movl	$-1, %eax
	lock xaddl	%eax, (%rcx)
	jmp	.L214
	.p2align 4,,10
	.p2align 3
.L207:
	movl	$-1, %edx
	lock xaddl	%edx, (%rsi)
	jmp	.L208
	.p2align 4,,10
	.p2align 3
.L218:
	movq	%rax, (%rsp)
	call	_ZNSt16_Sp_counted_baseILN9__gnu_cxx12_Lock_policyE2EE24_M_release_last_use_coldEv@PLT
	movq	(%rsp), %rax
	jmp	.L205
	.p2align 4,,10
	.p2align 3
.L220:
	addq	$24, %rsp
	.cfi_def_cfa_offset 8
	jmp	_ZNSt16_Sp_counted_baseILN9__gnu_cxx12_Lock_policyE2EE24_M_release_last_use_coldEv@PLT
	.cfi_endproc
.LFE2650:
	.size	_ZN7openpal6LoggerD2Ev, .-_ZN7openpal6LoggerD2Ev
	.weak	_ZN7openpal6LoggerD1Ev
	.set	_ZN7openpal6LoggerD1Ev,_ZN7openpal6LoggerD2Ev
	.section	.text.unlikely
	.align 2
.LCOLDB6:
	.text
.LHOTB6:
	.align 2
	.p2align 4
	.globl	_ZN8opendnp38OContextC2ERKNS_16OutstationConfigERKNS_13DatabaseSizesERKN7openpal6LoggerERKSt10shared_ptrINS7_9IExecutorEERKSB_INS_11ILowerLayerEERKSB_INS_15ICommandHandlerEERKSB_INS_22IOutstationApplicationEE
	.type	_ZN8opendnp38OContextC2ERKNS_16OutstationConfigERKNS_13DatabaseSizesERKN7openpal6LoggerERKSt10shared_ptrINS7_9IExecutorEERKSB_INS_11ILowerLayerEERKSB_INS_15ICommandHandlerEERKSB_INS_22IOutstationApplicationEE, @function
_ZN8opendnp38OContextC2ERKNS_16OutstationConfigERKNS_13DatabaseSizesERKN7openpal6LoggerERKSt10shared_ptrINS7_9IExecutorEERKSB_INS_11ILowerLayerEERKSB_INS_15ICommandHandlerEERKSB_INS_22IOutstationApplicationEE:
.LFB2913:
	.cfi_startproc
	.cfi_personality 0x9b,DW.ref.__gxx_personality_v0
	.cfi_lsda 0x1b,.LLSDA2913
	movq	_ZTVN8opendnp38OContextE@GOTPCREL(%rip), %rax
	pushq	%r14
	.cfi_def_cfa_offset 16
	.cfi_offset 14, -16
	pushq	%r13
	.cfi_def_cfa_offset 24
	.cfi_offset 13, -24
	movq	%rdx, %r13
	addq	$16, %rax
	pushq	%r12
	.cfi_def_cfa_offset 32
	.cfi_offset 12, -32
	movq	%r8, %r12
	pushq	%rbp
	.cfi_def_cfa_offset 40
	.cfi_offset 6, -40
	movq	%rsi, %rbp
	pushq	%rbx
	.cfi_def_cfa_offset 48
	.cfi_offset 3, -48
	movq	%rdi, %rbx
	movq	%rax, (%rdi)
	movq	(%rcx), %rax
	movq	%rax, 8(%rdi)
	movq	8(%rcx), %rax
	movq	%rax, 16(%rdi)
	testq	%rax, %rax
	je	.L222
	movq	__libc_single_threaded@GOTPCREL(%rip), %rdx
	cmpb	$0, (%rdx)
	je	.L223
	addl	$1, 8(%rax)
.L222:
	movdqu	16(%rcx), %xmm0
	movhlps	%xmm0, %xmm1
	movups	%xmm0, 24(%rbx)
	movq	%xmm1, %rax
	testq	%rax, %rax
	je	.L224
	movq	__libc_single_threaded@GOTPCREL(%rip), %rdx
	cmpb	$0, (%rdx)
	je	.L225
	addl	$1, 8(%rax)
.L224:
	movdqu	(%r12), %xmm0
	movhlps	%xmm0, %xmm2
	movups	%xmm0, 40(%rbx)
	movq	%xmm2, %rax
	testq	%rax, %rax
	je	.L226
	movq	__libc_single_threaded@GOTPCREL(%rip), %rdx
	cmpb	$0, (%rdx)
	je	.L227
	addl	$1, 8(%rax)
.L226:
	movdqu	(%r9), %xmm0
	movhlps	%xmm0, %xmm3
	movups	%xmm0, 56(%rbx)
	movq	%xmm3, %rax
	testq	%rax, %rax
	je	.L228
	movq	__libc_single_threaded@GOTPCREL(%rip), %rdx
	cmpb	$0, (%rdx)
	je	.L229
	addl	$1, 8(%rax)
.L228:
	movq	48(%rsp), %rax
	movdqu	(%rax), %xmm0
	movhlps	%xmm0, %xmm4
	movups	%xmm0, 72(%rbx)
	movq	%xmm4, %rax
	testq	%rax, %rax
	je	.L230
	movq	__libc_single_threaded@GOTPCREL(%rip), %rdx
	cmpb	$0, (%rdx)
	je	.L231
	addl	$1, 8(%rax)
.L230:
	movq	56(%rsp), %rax
	movdqu	(%rax), %xmm0
	movhlps	%xmm0, %xmm5
	movups	%xmm0, 88(%rbx)
	movq	%xmm5, %rax
	testq	%rax, %rax
	je	.L232
	movq	__libc_single_threaded@GOTPCREL(%rip), %rdx
	cmpb	$0, (%rdx)
	je	.L233
	addl	$1, 8(%rax)
.L232:
	leaq	56(%rbp), %rsi
	leaq	104(%rbx), %rdi
.LEHB2:
	call	_ZN8opendnp311EventBufferC1ERKNS_17EventBufferConfigE@PLT
.LEHE2:
	movzbl	0(%rbp), %ecx
	movzwl	50(%rbp), %r8d
	leaq	104(%rbx), %rdx
	movq	%r13, %rsi
	leaq	360(%rbx), %rdi
.LEHB3:
	call	_ZN8opendnp38DatabaseC1ERKNS_13DatabaseSizesERNS_14IEventReceiverENS_9IndexModeENS_18StaticTypeBitFieldE@PLT
.LEHE3:
	leaq	120(%rbx), %rdx
	leaq	392(%rbx), %rsi
	leaq	640(%rbx), %rdi
.LEHB4:
	call	_ZN8opendnp315ResponseContextC1ERNS_15IResponseLoaderES2_@PLT
	movdqu	0(%rbp), %xmm0
	movq	48(%rbp), %rax
	movl	$7, %esi
	leaq	722(%rbx), %rdi
	movups	%xmm0, 664(%rbx)
	movdqu	16(%rbp), %xmm0
	movq	%rax, 712(%rbx)
	movups	%xmm0, 680(%rbx)
	movdqu	32(%rbp), %xmm0
	movl	$0, 720(%rbx)
	movups	%xmm0, 696(%rbx)
	call	_ZN8opendnp38IINField6SetBitENS_6IINBitE@PLT
	movq	(%r12), %rsi
	leaq	728(%rbx), %rdi
	call	_ZN7openpal8TimerRefC1ERNS_9IExecutorE@PLT
.LEHE4:
	leaq	744(%rbx), %rdi
.LEHB5:
	call	_ZN8opendnp314RequestHistoryC1Ev@PLT
	movl	44(%rbp), %esi
	leaq	760(%rbx), %rdi
	call	_ZN8opendnp315DeferredRequestC1Ej@PLT
.LEHE5:
	movb	$0, 808(%rbx)
	leaq	816(%rbx), %rdi
.LEHB6:
	call	_ZN7openpal18MonotonicTimestampC1Ev@PLT
	xorl	%eax, %eax
	movl	40(%rbp), %r12d
	leaq	840(%rbx), %rdi
	movq	$0, 828(%rbx)
	movw	%ax, 824(%rbx)
	call	_ZN7openpal6RSliceC1Ev@PLT
	leaq	856(%rbx), %rdi
	call	_ZN8opendnp315AppControlFieldC1Ev@PLT
	leaq	864(%rbx), %rdi
	movl	%r12d, %esi
	call	_ZN7openpal6BufferC1Ej@PLT
.LEHE6:
	movl	40(%rbp), %ebp
	leaq	896(%rbx), %rdi
	movq	$0, 888(%rbx)
.LEHB7:
	call	_ZN7openpal6RSliceC1Ev@PLT
	leaq	912(%rbx), %rdi
	call	_ZN8opendnp315AppControlFieldC1Ev@PLT
	leaq	920(%rbx), %rdi
	movl	%ebp, %esi
	call	_ZN7openpal6BufferC1Ej@PLT
.LEHE7:
	movq	_ZN8opendnp39StateIdle8instanceE@GOTPCREL(%rip), %rax
	movq	%rax, 944(%rbx)
	popq	%rbx
	.cfi_remember_state
	.cfi_def_cfa_offset 40
	popq	%rbp
	.cfi_def_cfa_offset 32
	popq	%r12
	.cfi_def_cfa_offset 24
	popq	%r13
	.cfi_def_cfa_offset 16
	popq	%r14
	.cfi_def_cfa_offset 8
	ret
	.p2align 4,,10
	.p2align 3
.L231:
	.cfi_restore_state
	lock addl	$1, 8(%rax)
	jmp	.L230
	.p2align 4,,10
	.p2align 3
.L229:
	lock addl	$1, 8(%rax)
	jmp	.L228
	.p2align 4,,10
	.p2align 3
.L227:
	lock addl	$1, 8(%rax)
	jmp	.L226
	.p2align 4,,10
	.p2align 3
.L225:
	lock addl	$1, 8(%rax)
	jmp	.L224
	.p2align 4,,10
	.p2align 3
.L223:
	lock addl	$1, 8(%rax)
	jmp	.L222
	.p2align 4,,10
	.p2align 3
.L233:
	lock addl	$1, 8(%rax)
	jmp	.L232
.L259:
	movq	%rax, %rbp
	jmp	.L236
.L258:
	movq	%rax, %rbp
	jmp	.L238
.L260:
	movq	%rax, %rbp
	jmp	.L234
.L255:
	movq	%rax, %rbp
	jmp	.L250
.L257:
	movq	%rax, %rbp
	jmp	.L239
.L256:
	movq	%rax, %rbp
	jmp	.L248
	.section	.gcc_except_table
.LLSDA2913:
	.byte	0xff
	.byte	0xff
	.byte	0x1
	.uleb128 .LLSDACSE2913-.LLSDACSB2913
.LLSDACSB2913:
	.uleb128 .LEHB2-.LFB2913
	.uleb128 .LEHE2-.LEHB2
	.uleb128 .L255-.LFB2913
	.uleb128 0
	.uleb128 .LEHB3-.LFB2913
	.uleb128 .LEHE3-.LEHB3
	.uleb128 .L256-.LFB2913
	.uleb128 0
	.uleb128 .LEHB4-.LFB2913
	.uleb128 .LEHE4-.LEHB4
	.uleb128 .L257-.LFB2913
	.uleb128 0
	.uleb128 .LEHB5-.LFB2913
	.uleb128 .LEHE5-.LEHB5
	.uleb128 .L258-.LFB2913
	.uleb128 0
	.uleb128 .LEHB6-.LFB2913
	.uleb128 .LEHE6-.LEHB6
	.uleb128 .L259-.LFB2913
	.uleb128 0
	.uleb128 .LEHB7-.LFB2913
	.uleb128 .LEHE7-.LEHB7
	.uleb128 .L260-.LFB2913
	.uleb128 0
.LLSDACSE2913:
	.text
	.cfi_endproc
	.section	.text.unlikely
	.cfi_startproc
	.cfi_personality 0x9b,DW.ref.__gxx_personality_v0
	.cfi_lsda 0x1b,.LLSDAC2913
	.type	_ZN8opendnp38OContextC2ERKNS_16OutstationConfigERKNS_13DatabaseSizesERKN7openpal6LoggerERKSt10shared_ptrINS7_9IExecutorEERKSB_INS_11ILowerLayerEERKSB_INS_15ICommandHandlerEERKSB_INS_22IOutstationApplicationEE.cold, @function
_ZN8opendnp38OContextC2ERKNS_16OutstationConfigERKNS_13DatabaseSizesERKN7openpal6LoggerERKSt10shared_ptrINS7_9IExecutorEERKSB_INS_11ILowerLayerEERKSB_INS_15ICommandHandlerEERKSB_INS_22IOutstationApplicationEE.cold:
.LFSB2913:
.L234:
	.cfi_def_cfa_offset 48
	.cfi_offset 3, -48
	.cfi_offset 6, -40
	.cfi_offset 12, -32
	.cfi_offset 13, -24
	.cfi_offset 14, -16
	movq	880(%rbx), %rdi
	testq	%rdi, %rdi
	je	.L236
	call	_ZdaPv@PLT
.L236:
	movq	800(%rbx), %rdi
	testq	%rdi, %rdi
	jne	.L326
.L238:
	leaq	728(%rbx), %rdi
	call	_ZN7openpal8TimerRefD1Ev@PLT
.L239:
	movq	592(%rbx), %rdi
	testq	%rdi, %rdi
	je	.L240
	call	_ZdaPv@PLT
.L240:
	movq	568(%rbx), %rdi
	testq	%rdi, %rdi
	je	.L241
	call	_ZdaPv@PLT
.L241:
	movq	544(%rbx), %rdi
	testq	%rdi, %rdi
	je	.L242
	call	_ZdaPv@PLT
.L242:
	movq	520(%rbx), %rdi
	testq	%rdi, %rdi
	je	.L243
	call	_ZdaPv@PLT
.L243:
	movq	496(%rbx), %rdi
	testq	%rdi, %rdi
	je	.L244
	call	_ZdaPv@PLT
.L244:
	movq	472(%rbx), %rdi
	testq	%rdi, %rdi
	je	.L245
	call	_ZdaPv@PLT
.L245:
	movq	448(%rbx), %rdi
	testq	%rdi, %rdi
	je	.L246
	call	_ZdaPv@PLT
.L246:
	movq	424(%rbx), %rdi
	testq	%rdi, %rdi
	je	.L248
	call	_ZdaPv@PLT
.L248:
	movq	208(%rbx), %rdi
	testq	%rdi, %rdi
	je	.L250
	call	_ZdaPv@PLT
.L250:
	movq	96(%rbx), %rdi
	testq	%rdi, %rdi
	je	.L251
	call	_ZNSt16_Sp_counted_baseILN9__gnu_cxx12_Lock_policyE2EE10_M_releaseEv@PLT
.L251:
	movq	80(%rbx), %rdi
	testq	%rdi, %rdi
	je	.L252
	call	_ZNSt16_Sp_counted_baseILN9__gnu_cxx12_Lock_policyE2EE10_M_releaseEv@PLT
.L252:
	movq	64(%rbx), %rdi
	testq	%rdi, %rdi
	je	.L253
	call	_ZNSt16_Sp_counted_baseILN9__gnu_cxx12_Lock_policyE2EE10_M_releaseEv@PLT
.L253:
	movq	48(%rbx), %rdi
	testq	%rdi, %rdi
	je	.L254
	call	_ZNSt16_Sp_counted_baseILN9__gnu_cxx12_Lock_policyE2EE10_M_releaseEv@PLT
.L254:
	leaq	8(%rbx), %rdi
	call	_ZN7openpal6LoggerD1Ev@PLT
	movq	%rbp, %rdi
.LEHB8:
	call	_Unwind_Resume@PLT
.LEHE8:
.L326:
	call	_ZdaPv@PLT
	jmp	.L238
	.cfi_endproc
.LFE2913:
	.section	.gcc_except_table
.LLSDAC2913:
	.byte	0xff
	.byte	0xff
	.byte	0x1
	.uleb128 .LLSDACSEC2913-.LLSDACSBC2913
.LLSDACSBC2913:
	.uleb128 .LEHB8-.LCOLDB6
	.uleb128 .LEHE8-.LEHB8
	.uleb128 0
	.uleb128 0
.LLSDACSEC2913:
	.section	.text.unlikely
	.text
	.size	_ZN8opendnp38OContextC2ERKNS_16OutstationConfigERKNS_13DatabaseSizesERKN7openpal6LoggerERKSt10shared_ptrINS7_9IExecutorEERKSB_INS_11ILowerLayerEERKSB_INS_15ICommandHandlerEERKSB_INS_22IOutstationApplicationEE, .-_ZN8opendnp38OContextC2ERKNS_16OutstationConfigERKNS_13DatabaseSizesERKN7openpal6LoggerERKSt10shared_ptrINS7_9IExecutorEERKSB_INS_11ILowerLayerEERKSB_INS_15ICommandHandlerEERKSB_INS_22IOutstationApplicationEE
	.section	.text.unlikely
	.size	_ZN8opendnp38OContextC2ERKNS_16OutstationConfigERKNS_13DatabaseSizesERKN7openpal6LoggerERKSt10shared_ptrINS7_9IExecutorEERKSB_INS_11ILowerLayerEERKSB_INS_15ICommandHandlerEERKSB_INS_22IOutstationApplicationEE.cold, .-_ZN8opendnp38OContextC2ERKNS_16OutstationConfigERKNS_13DatabaseSizesERKN7openpal6LoggerERKSt10shared_ptrINS7_9IExecutorEERKSB_INS_11ILowerLayerEERKSB_INS_15ICommandHandlerEERKSB_INS_22IOutstationApplicationEE.cold
.LCOLDE6:
	.text
.LHOTE6:
	.globl	_ZN8opendnp38OContextC1ERKNS_16OutstationConfigERKNS_13DatabaseSizesERKN7openpal6LoggerERKSt10shared_ptrINS7_9IExecutorEERKSB_INS_11ILowerLayerEERKSB_INS_15ICommandHandlerEERKSB_INS_22IOutstationApplicationEE
	.set	_ZN8opendnp38OContextC1ERKNS_16OutstationConfigERKNS_13DatabaseSizesERKN7openpal6LoggerERKSt10shared_ptrINS7_9IExecutorEERKSB_INS_11ILowerLayerEERKSB_INS_15ICommandHandlerEERKSB_INS_22IOutstationApplicationEE,_ZN8opendnp38OContextC2ERKNS_16OutstationConfigERKNS_13DatabaseSizesERKN7openpal6LoggerERKSt10shared_ptrINS7_9IExecutorEERKSB_INS_11ILowerLayerEERKSB_INS_15ICommandHandlerEERKSB_INS_22IOutstationApplicationEE
	.section	.text.unlikely
	.align 2
.LCOLDB7:
	.text
.LHOTB7:
	.align 2
	.p2align 4
	.globl	_ZN8opendnp38OContext7BeginTxERKN7openpal6RSliceE
	.type	_ZN8opendnp38OContext7BeginTxERKN7openpal6RSliceE, @function
_ZN8opendnp38OContext7BeginTxERKN7openpal6RSliceE:
.LFB2926:
	.cfi_startproc
	.cfi_personality 0x9b,DW.ref.__gxx_personality_v0
	.cfi_lsda 0x1b,.LLSDA2926
	pushq	%r12
	.cfi_def_cfa_offset 16
	.cfi_offset 12, -16
	pushq	%rbp
	.cfi_def_cfa_offset 24
	.cfi_offset 6, -24
	movq	%rsi, %rbp
	pushq	%rbx
	.cfi_def_cfa_offset 32
	.cfi_offset 3, -32
	movq	%rdi, %rbx
	subq	$32, %rsp
	.cfi_def_cfa_offset 64
	movdqu	8(%rdi), %xmm0
	movhlps	%xmm0, %xmm1
	movaps	%xmm0, (%rsp)
	movq	%xmm1, %rax
	testq	%rax, %rax
	je	.L328
	movq	__libc_single_threaded@GOTPCREL(%rip), %rdx
	cmpb	$0, (%rdx)
	je	.L329
	addl	$1, 8(%rax)
.L328:
	movdqu	24(%rbx), %xmm0
	movhlps	%xmm0, %xmm2
	movaps	%xmm0, 16(%rsp)
	movq	%xmm2, %rax
	testq	%rax, %rax
	je	.L330
	movq	__libc_single_threaded@GOTPCREL(%rip), %rdx
	cmpb	$0, (%rdx)
	je	.L331
	addl	$1, 8(%rax)
.L330:
	movq	%rbp, %rsi
	movq	%rsp, %rdi
.LEHB9:
	call	_ZN8opendnp37logging21ParseAndLogResponseTxEN7openpal6LoggerERKNS1_6RSliceE@PLT
.LEHE9:
	movq	24(%rsp), %r12
	testq	%r12, %r12
	je	.L333
	movq	8(%r12), %rdx
	leaq	8(%r12), %rcx
	movabsq	$4294967297, %rax
	cmpq	%rax, %rdx
	je	.L353
	movq	__libc_single_threaded@GOTPCREL(%rip), %rax
	cmpb	$0, (%rax)
	je	.L335
	movl	8(%r12), %eax
	leal	-1(%rax), %edx
	movl	%edx, 8(%r12)
.L336:
	cmpl	$1, %eax
	je	.L354
.L333:
	movq	8(%rsp), %r12
	testq	%r12, %r12
	je	.L339
	movq	8(%r12), %rdx
	leaq	8(%r12), %rcx
	movabsq	$4294967297, %rax
	cmpq	%rax, %rdx
	je	.L355
	movq	__libc_single_threaded@GOTPCREL(%rip), %rax
	cmpb	$0, (%rax)
	je	.L341
	movl	8(%r12), %eax
	leal	-1(%rax), %edx
	movl	%edx, 8(%r12)
.L342:
	cmpl	$1, %eax
	je	.L356
.L339:
	movq	56(%rbx), %rdi
	movb	$1, 721(%rbx)
	movq	%rbp, %rsi
	movq	(%rdi), %rax
	movq	16(%rax), %rax
	addq	$32, %rsp
	.cfi_remember_state
	.cfi_def_cfa_offset 32
	popq	%rbx
	.cfi_def_cfa_offset 24
	popq	%rbp
	.cfi_def_cfa_offset 16
	popq	%r12
	.cfi_def_cfa_offset 8
.LEHB10:
	jmp	*%rax
.LEHE10:
	.p2align 4,,10
	.p2align 3
.L329:
	.cfi_restore_state
	lock addl	$1, 8(%rax)
	jmp	.L328
	.p2align 4,,10
	.p2align 3
.L331:
	lock addl	$1, 8(%rax)
	jmp	.L330
	.p2align 4,,10
	.p2align 3
.L353:
	movq	$0, 8(%r12)
	movq	(%r12), %rax
	movq	%r12, %rdi
	call	*16(%rax)
	movq	(%r12), %rax
	movq	%r12, %rdi
	call	*24(%rax)
	jmp	.L333
	.p2align 4,,10
	.p2align 3
.L355:
	movq	$0, 8(%r12)
	movq	(%r12), %rax
	movq	%r12, %rdi
	call	*16(%rax)
	movq	(%r12), %rax
	movq	%r12, %rdi
	call	*24(%rax)
	jmp	.L339
	.p2align 4,,10
	.p2align 3
.L341:
	movl	$-1, %eax
	lock xaddl	%eax, (%rcx)
	jmp	.L342
	.p2align 4,,10
	.p2align 3
.L335:
	movl	$-1, %eax
	lock xaddl	%eax, (%rcx)
	jmp	.L336
	.p2align 4,,10
	.p2align 3
.L354:
	movq	%r12, %rdi
	call	_ZNSt16_Sp_counted_baseILN9__gnu_cxx12_Lock_policyE2EE24_M_release_last_use_coldEv@PLT
	jmp	.L333
	.p2align 4,,10
	.p2align 3
.L356:
	movq	%r12, %rdi
	call	_ZNSt16_Sp_counted_baseILN9__gnu_cxx12_Lock_policyE2EE24_M_release_last_use_coldEv@PLT
	jmp	.L339
.L345:
	movq	%rax, %rbx
	jmp	.L344
	.section	.gcc_except_table
.LLSDA2926:
	.byte	0xff
	.byte	0xff
	.byte	0x1
	.uleb128 .LLSDACSE2926-.LLSDACSB2926
.LLSDACSB2926:
	.uleb128 .LEHB9-.LFB2926
	.uleb128 .LEHE9-.LEHB9
	.uleb128 .L345-.LFB2926
	.uleb128 0
	.uleb128 .LEHB10-.LFB2926
	.uleb128 .LEHE10-.LEHB10
	.uleb128 0
	.uleb128 0
.LLSDACSE2926:
	.text
	.cfi_endproc
	.section	.text.unlikely
	.cfi_startproc
	.cfi_personality 0x9b,DW.ref.__gxx_personality_v0
	.cfi_lsda 0x1b,.LLSDAC2926
	.type	_ZN8opendnp38OContext7BeginTxERKN7openpal6RSliceE.cold, @function
_ZN8opendnp38OContext7BeginTxERKN7openpal6RSliceE.cold:
.LFSB2926:
.L344:
	.cfi_def_cfa_offset 64
	.cfi_offset 3, -32
	.cfi_offset 6, -24
	.cfi_offset 12, -16
	movq	%rsp, %rdi
	call	_ZN7openpal6LoggerD1Ev@PLT
	movq	%rbx, %rdi
.LEHB11:
	call	_Unwind_Resume@PLT
.LEHE11:
	.cfi_endproc
.LFE2926:
	.section	.gcc_except_table
.LLSDAC2926:
	.byte	0xff
	.byte	0xff
	.byte	0x1
	.uleb128 .LLSDACSEC2926-.LLSDACSBC2926
.LLSDACSBC2926:
	.uleb128 .LEHB11-.LCOLDB7
	.uleb128 .LEHE11-.LEHB11
	.uleb128 0
	.uleb128 0
.LLSDACSEC2926:
	.section	.text.unlikely
	.text
	.size	_ZN8opendnp38OContext7BeginTxERKN7openpal6RSliceE, .-_ZN8opendnp38OContext7BeginTxERKN7openpal6RSliceE
	.section	.text.unlikely
	.size	_ZN8opendnp38OContext7BeginTxERKN7openpal6RSliceE.cold, .-_ZN8opendnp38OContext7BeginTxERKN7openpal6RSliceE.cold
.LCOLDE7:
	.text
.LHOTE7:
	.align 2
	.p2align 4
	.globl	_ZN8opendnp38OContext15BeginResponseTxERKNS_15AppControlFieldERKN7openpal6RSliceE
	.type	_ZN8opendnp38OContext15BeginResponseTxERKNS_15AppControlFieldERKN7openpal6RSliceE, @function
_ZN8opendnp38OContext15BeginResponseTxERKNS_15AppControlFieldERKN7openpal6RSliceE:
.LFB2924:
	.cfi_startproc
	movl	(%rsi), %eax
	movdqu	(%rdx), %xmm0
	movl	%eax, 856(%rdi)
	movzbl	4(%rsi), %eax
	movq	%rdx, %rsi
	movups	%xmm0, 840(%rdi)
	movb	%al, 860(%rdi)
	jmp	_ZN8opendnp38OContext7BeginTxERKN7openpal6RSliceE@PLT
	.cfi_endproc
.LFE2924:
	.size	_ZN8opendnp38OContext15BeginResponseTxERKNS_15AppControlFieldERKN7openpal6RSliceE, .-_ZN8opendnp38OContext15BeginResponseTxERKNS_15AppControlFieldERKN7openpal6RSliceE
	.align 2
	.p2align 4
	.globl	_ZN8opendnp38OContext20RespondToReadRequestERKNS_10APDUHeaderERKN7openpal6RSliceE
	.type	_ZN8opendnp38OContext20RespondToReadRequestERKNS_10APDUHeaderERKN7openpal6RSliceE, @function
_ZN8opendnp38OContext20RespondToReadRequestERKNS_10APDUHeaderERKN7openpal6RSliceE:
.LFB2934:
	.cfi_startproc
	pushq	%r14
	.cfi_def_cfa_offset 16
	.cfi_offset 14, -16
	movq	%rdx, %r14
	pushq	%r13
	.cfi_def_cfa_offset 24
	.cfi_offset 13, -24
	movq	%rsi, %r13
	pushq	%r12
	.cfi_def_cfa_offset 32
	.cfi_offset 12, -32
	pushq	%rbp
	.cfi_def_cfa_offset 40
	.cfi_offset 6, -40
	movq	%rdi, %rbp
	addq	$744, %rdi
	pushq	%rbx
	.cfi_def_cfa_offset 48
	.cfi_offset 3, -48
	subq	$112, %rsp
	.cfi_def_cfa_offset 160
	call	_ZN8opendnp314RequestHistory26RecordLastProcessedRequestERKNS_10APDUHeaderERKN7openpal6RSliceE@PLT
	leaq	864(%rbp), %rdi
	call	_ZN7openpal6Buffer9GetWSliceEv@PLT
	leaq	32(%rsp), %rsi
	leaq	64(%rsp), %rdi
	movl	%eax, 32(%rsp)
	movq	%rdx, 40(%rsp)
	call	_ZN8opendnp312APDUResponseC1ERKN7openpal6WSliceE@PLT
	leaq	64(%rsp), %rsi
	leaq	32(%rsp), %rdi
	call	_ZN8opendnp311APDUWrapper9GetWriterEv@PLT
	movl	$-127, %esi
	leaq	64(%rsp), %rdi
	call	_ZN8opendnp311APDUWrapper11SetFunctionENS_12FunctionCodeE@PLT
	leaq	32(%rsp), %rdx
	movq	%r14, %rsi
	movq	%rbp, %rdi
	call	_ZN8opendnp38OContext10HandleReadERKN7openpal6RSliceERNS_12HeaderWriterE@PLT
	movzbl	5(%r13), %esi
	leaq	64(%rsp), %rdi
	movq	%rax, %rdx
	movb	%al, 8(%rsp)
	shrq	$16, %rdx
	movb	%ah, 9(%rsp)
	movb	%dl, 10(%rsp)
	movq	%rax, %rdx
	shrq	$24, %rdx
	movb	%sil, 833(%rbp)
	salq	$32, %rsi
	movb	%dl, 11(%rsp)
	movq	%rax, %rdx
	shrq	$40, %rax
	shrq	$32, %rdx
	movb	%al, 13(%rsp)
	movb	%dl, 12(%rsp)
	movzwl	12(%rsp), %eax
	movzwl	10(%rsp), %edx
	salq	$16, %rax
	orq	%rdx, %rax
	orq	%rax, %rsi
	call	_ZN8opendnp311APDUWrapper10SetControlENS_15AppControlFieldE@PLT
	movq	%rbp, %rdi
	call	_ZN8opendnp38OContext14GetResponseIINEv@PLT
	movzwl	8(%rsp), %ecx
	leaq	16(%rsp), %rsi
	leaq	64(%rsp), %rdi
	orl	%ecx, %eax
	movw	%ax, 16(%rsp)
	call	_ZN8opendnp312APDUResponse6SetIINERKNS_8IINFieldE@PLT
	leaq	64(%rsp), %rdi
	call	_ZNK8opendnp311APDUWrapper8ToRSliceEv@PLT
	leaq	64(%rsp), %rdi
	movq	%rdx, 24(%rsp)
	movl	%eax, 16(%rsp)
	call	_ZNK8opendnp311APDUWrapper10GetControlEv@PLT
	leaq	3(%rsp), %rsi
	movq	%rbp, %rdi
	movq	%rax, %rdx
	movb	%al, 3(%rsp)
	shrq	$16, %rdx
	movb	%ah, 4(%rsp)
	movb	%dl, 5(%rsp)
	movq	%rax, %rdx
	shrq	$32, %rax
	shrq	$24, %rdx
	movb	%al, 7(%rsp)
	movb	%dl, 6(%rsp)
	leaq	16(%rsp), %rdx
	call	_ZN8opendnp38OContext15BeginResponseTxERKNS_15AppControlFieldERKN7openpal6RSliceE@PLT
	cmpb	$0, 12(%rsp)
	jne	.L362
	movq	_ZN8opendnp39StateIdle8instanceE@GOTPCREL(%rip), %rax
	addq	$112, %rsp
	.cfi_remember_state
	.cfi_def_cfa_offset 48
	popq	%rbx
	.cfi_def_cfa_offset 40
	popq	%rbp
	.cfi_def_cfa_offset 32
	popq	%r12
	.cfi_def_cfa_offset 24
	popq	%r13
	.cfi_def_cfa_offset 16
	popq	%r14
	.cfi_def_cfa_offset 8
	ret
	.p2align 4,,10
	.p2align 3
.L362:
	.cfi_restore_state
	movq	%rbp, %rdi
	call	_ZN8opendnp38OContext19RestartConfirmTimerEv@PLT
	movq	_ZN8opendnp325StateSolicitedConfirmWait8instanceE@GOTPCREL(%rip), %rax
	addq	$112, %rsp
	.cfi_def_cfa_offset 48
	popq	%rbx
	.cfi_def_cfa_offset 40
	popq	%rbp
	.cfi_def_cfa_offset 32
	popq	%r12
	.cfi_def_cfa_offset 24
	popq	%r13
	.cfi_def_cfa_offset 16
	popq	%r14
	.cfi_def_cfa_offset 8
	ret
	.cfi_endproc
.LFE2934:
	.size	_ZN8opendnp38OContext20RespondToReadRequestERKNS_10APDUHeaderERKN7openpal6RSliceE, .-_ZN8opendnp38OContext20RespondToReadRequestERKNS_10APDUHeaderERKN7openpal6RSliceE
	.align 2
	.p2align 4
	.globl	_ZN8opendnp38OContext25ContinueMultiFragResponseERKN7openpal11SequenceNumIhLh16EEE
	.type	_ZN8opendnp38OContext25ContinueMultiFragResponseERKN7openpal11SequenceNumIhLh16EEE, @function
_ZN8opendnp38OContext25ContinueMultiFragResponseERKN7openpal11SequenceNumIhLh16EEE:
.LFB2935:
	.cfi_startproc
	pushq	%r13
	.cfi_def_cfa_offset 16
	.cfi_offset 13, -16
	movq	%rsi, %r13
	pushq	%r12
	.cfi_def_cfa_offset 24
	.cfi_offset 12, -24
	pushq	%rbp
	.cfi_def_cfa_offset 32
	.cfi_offset 6, -32
	pushq	%rbx
	.cfi_def_cfa_offset 40
	.cfi_offset 3, -40
	movq	%rdi, %rbx
	addq	$864, %rdi
	subq	$120, %rsp
	.cfi_def_cfa_offset 160
	call	_ZN7openpal6Buffer9GetWSliceEv@PLT
	leaq	64(%rsp), %rbp
	leaq	32(%rsp), %rsi
	movq	%rbp, %rdi
	movq	%rdx, 40(%rsp)
	movl	%eax, 32(%rsp)
	call	_ZN8opendnp312APDUResponseC1ERKN7openpal6WSliceE@PLT
	movq	%rbp, %rsi
	leaq	32(%rsp), %rdi
	call	_ZN8opendnp311APDUWrapper9GetWriterEv@PLT
	movl	$-127, %esi
	movq	%rbp, %rdi
	call	_ZN8opendnp311APDUWrapper11SetFunctionENS_12FunctionCodeE@PLT
	leaq	640(%rbx), %rdi
	leaq	32(%rsp), %rsi
	call	_ZN8opendnp315ResponseContext12LoadResponseERNS_12HeaderWriterE@PLT
	movzbl	0(%r13), %esi
	movq	%rbp, %rdi
	movq	%rax, %rdx
	movb	%al, 6(%rsp)
	movb	%ah, 7(%rsp)
	shrq	$16, %rdx
	shrq	$24, %rax
	movb	%dl, 8(%rsp)
	movzwl	6(%rsp), %edx
	movb	%al, 9(%rsp)
	movzwl	8(%rsp), %eax
	movb	%sil, 833(%rbx)
	salq	$32, %rsi
	salq	$16, %rax
	orq	%rdx, %rax
	orq	%rax, %rsi
	call	_ZN8opendnp311APDUWrapper10SetControlENS_15AppControlFieldE@PLT
	movq	%rbx, %rdi
	call	_ZN8opendnp38OContext14GetResponseIINEv@PLT
	leaq	16(%rsp), %rsi
	movq	%rbp, %rdi
	movw	%ax, 16(%rsp)
	call	_ZN8opendnp312APDUResponse6SetIINERKNS_8IINFieldE@PLT
	movq	%rbp, %rdi
	call	_ZNK8opendnp311APDUWrapper8ToRSliceEv@PLT
	movq	%rbp, %rdi
	movq	%rdx, 24(%rsp)
	movl	%eax, 16(%rsp)
	call	_ZNK8opendnp311APDUWrapper10GetControlEv@PLT
	leaq	11(%rsp), %rsi
	movq	%rbx, %rdi
	movq	%rax, %rdx
	movb	%al, 11(%rsp)
	shrq	$16, %rdx
	movb	%ah, 12(%rsp)
	movb	%dl, 13(%rsp)
	movq	%rax, %rdx
	shrq	$32, %rax
	shrq	$24, %rdx
	movb	%al, 15(%rsp)
	movb	%dl, 14(%rsp)
	leaq	16(%rsp), %rdx
	call	_ZN8opendnp38OContext15BeginResponseTxERKNS_15AppControlFieldERKN7openpal6RSliceE@PLT
	cmpb	$0, 8(%rsp)
	jne	.L367
	movq	_ZN8opendnp39StateIdle8instanceE@GOTPCREL(%rip), %rax
	addq	$120, %rsp
	.cfi_remember_state
	.cfi_def_cfa_offset 40
	popq	%rbx
	.cfi_def_cfa_offset 32
	popq	%rbp
	.cfi_def_cfa_offset 24
	popq	%r12
	.cfi_def_cfa_offset 16
	popq	%r13
	.cfi_def_cfa_offset 8
	ret
	.p2align 4,,10
	.p2align 3
.L367:
	.cfi_restore_state
	movq	%rbx, %rdi
	call	_ZN8opendnp38OContext19RestartConfirmTimerEv@PLT
	movq	_ZN8opendnp325StateSolicitedConfirmWait8instanceE@GOTPCREL(%rip), %rax
	addq	$120, %rsp
	.cfi_def_cfa_offset 40
	popq	%rbx
	.cfi_def_cfa_offset 32
	popq	%rbp
	.cfi_def_cfa_offset 24
	popq	%r12
	.cfi_def_cfa_offset 16
	popq	%r13
	.cfi_def_cfa_offset 8
	ret
	.cfi_endproc
.LFE2935:
	.size	_ZN8opendnp38OContext25ContinueMultiFragResponseERKN7openpal11SequenceNumIhLh16EEE, .-_ZN8opendnp38OContext25ContinueMultiFragResponseERKN7openpal11SequenceNumIhLh16EEE
	.align 2
	.p2align 4
	.globl	_ZN8opendnp38OContext12BeginUnsolTxERKNS_15AppControlFieldERKN7openpal6RSliceE
	.type	_ZN8opendnp38OContext12BeginUnsolTxERKNS_15AppControlFieldERKN7openpal6RSliceE, @function
_ZN8opendnp38OContext12BeginUnsolTxERKNS_15AppControlFieldERKN7openpal6RSliceE:
.LFB2925:
	.cfi_startproc
	movl	(%rsi), %eax
	movdqu	(%rdx), %xmm0
	movl	%eax, 912(%rdi)
	movzbl	4(%rsi), %eax
	movq	%rdx, %rsi
	movups	%xmm0, 896(%rdi)
	movb	%al, 916(%rdi)
	movzbl	889(%rdi), %eax
	movb	%al, 890(%rdi)
	addl	$1, %eax
	andl	$15, %eax
	movb	%al, 889(%rdi)
	jmp	_ZN8opendnp38OContext7BeginTxERKN7openpal6RSliceE@PLT
	.cfi_endproc
.LFE2925:
	.size	_ZN8opendnp38OContext12BeginUnsolTxERKNS_15AppControlFieldERKN7openpal6RSliceE, .-_ZN8opendnp38OContext12BeginUnsolTxERKNS_15AppControlFieldERKN7openpal6RSliceE
	.align 2
	.p2align 4
	.globl	_ZN8opendnp38OContext19CheckForUnsolicitedEv
	.type	_ZN8opendnp38OContext19CheckForUnsolicitedEv, @function
_ZN8opendnp38OContext19CheckForUnsolicitedEv:
.LFB2930:
	.cfi_startproc
	pushq	%r15
	.cfi_def_cfa_offset 16
	.cfi_offset 15, -16
	pushq	%r14
	.cfi_def_cfa_offset 24
	.cfi_offset 14, -24
	pushq	%r12
	.cfi_def_cfa_offset 32
	.cfi_offset 12, -32
	pushq	%rbp
	.cfi_def_cfa_offset 40
	.cfi_offset 6, -40
	pushq	%rbx
	.cfi_def_cfa_offset 48
	.cfi_offset 3, -48
	movq	%rdi, %rbx
	addq	$-128, %rsp
	.cfi_def_cfa_offset 176
	call	_ZNK8opendnp38OContext11CanTransmitEv@PLT
	testb	%al, %al
	je	.L369
	movq	944(%rbx), %rdi
	movq	(%rdi), %rax
	call	*(%rax)
	testb	%al, %al
	je	.L369
	cmpb	$0, 712(%rbx)
	je	.L369
	cmpb	$0, 888(%rbx)
	je	.L373
	leaq	104(%rbx), %rdi
	leaq	104(%rbx), %rbp
	call	_ZNK8opendnp311EventBuffer19UnwrittenClassFieldEv@PLT
	leaq	80(%rsp), %rsi
	leaq	716(%rbx), %rdi
	movb	%al, 80(%rsp)
	call	_ZNK8opendnp310ClassField10IntersectsERKS0_@PLT
	testb	%al, %al
	jne	.L381
.L369:
	subq	$-128, %rsp
	.cfi_remember_state
	.cfi_def_cfa_offset 48
	popq	%rbx
	.cfi_def_cfa_offset 40
	popq	%rbp
	.cfi_def_cfa_offset 32
	popq	%r12
	.cfi_def_cfa_offset 24
	popq	%r14
	.cfi_def_cfa_offset 16
	popq	%r15
	.cfi_def_cfa_offset 8
	ret
	.p2align 4,,10
	.p2align 3
.L373:
	.cfi_restore_state
	leaq	920(%rbx), %rdi
	call	_ZN7openpal6Buffer9GetWSliceEv@PLT
	leaq	48(%rsp), %rsi
	leaq	80(%rsp), %rdi
	movq	%rdx, 56(%rsp)
	movl	%eax, 48(%rsp)
	call	_ZN8opendnp312APDUResponseC1ERKN7openpal6WSliceE@PLT
	movq	%rbx, %rdi
	call	_ZN8opendnp38OContext14GetResponseIINEv@PLT
	leaq	48(%rsp), %rdx
	leaq	80(%rsp), %rdi
	movzbl	889(%rbx), %esi
	movw	%ax, 48(%rsp)
	call	_ZN8opendnp35build15NullUnsolicitedERNS_12APDUResponseEhRKNS_8IINFieldE@PLT
	movq	%rbx, %rdi
	call	_ZN8opendnp38OContext19RestartConfirmTimerEv@PLT
	movq	_ZN8opendnp327StateUnsolicitedConfirmWait8instanceE@GOTPCREL(%rip), %rax
	leaq	80(%rsp), %rdi
	movq	%rax, 944(%rbx)
	call	_ZNK8opendnp311APDUWrapper8ToRSliceEv@PLT
	leaq	80(%rsp), %rdi
	movq	%rdx, 56(%rsp)
	movl	%eax, 48(%rsp)
	call	_ZNK8opendnp311APDUWrapper10GetControlEv@PLT
	leaq	32(%rsp), %rsi
	movq	%rbx, %rdi
	movq	%rax, %rdx
	movb	%al, 32(%rsp)
	shrq	$16, %rdx
	movb	%ah, 33(%rsp)
	movb	%dl, 34(%rsp)
	movq	%rax, %rdx
	shrq	$32, %rax
	shrq	$24, %rdx
	movb	%al, 36(%rsp)
	movb	%dl, 35(%rsp)
	leaq	48(%rsp), %rdx
	call	_ZN8opendnp38OContext12BeginUnsolTxERKNS_15AppControlFieldERKN7openpal6RSliceE@PLT
	jmp	.L369
	.p2align 4,,10
	.p2align 3
.L381:
	leaq	920(%rbx), %rdi
	call	_ZN7openpal6Buffer9GetWSliceEv@PLT
	leaq	48(%rsp), %rsi
	leaq	80(%rsp), %rdi
	movq	%rdx, 56(%rsp)
	movl	%eax, 48(%rsp)
	call	_ZN8opendnp312APDUResponseC1ERKN7openpal6WSliceE@PLT
	leaq	80(%rsp), %rsi
	leaq	48(%rsp), %rdi
	call	_ZN8opendnp311APDUWrapper9GetWriterEv@PLT
	movq	%rbp, %rdi
	call	_ZN8opendnp311EventBuffer8UnselectEv@PLT
	leaq	716(%rbx), %rsi
	movq	%rbp, %rdi
	call	_ZN8opendnp311EventBuffer16SelectAllByClassERKNS_10ClassFieldE@PLT
	leaq	48(%rsp), %rsi
	movq	%rbp, %rdi
	call	_ZN8opendnp311EventBuffer4LoadERNS_12HeaderWriterE@PLT
	movq	%rbx, %rdi
	call	_ZN8opendnp38OContext14GetResponseIINEv@PLT
	leaq	32(%rsp), %rcx
	leaq	80(%rsp), %rdi
	movzbl	889(%rbx), %esi
	movq	%rcx, %rdx
	movq	%rcx, 8(%rsp)
	movw	%ax, 32(%rsp)
	call	_ZN8opendnp35build15NullUnsolicitedERNS_12APDUResponseEhRKNS_8IINFieldE@PLT
	movq	%rbx, %rdi
	call	_ZN8opendnp38OContext19RestartConfirmTimerEv@PLT
	movq	_ZN8opendnp327StateUnsolicitedConfirmWait8instanceE@GOTPCREL(%rip), %rax
	leaq	80(%rsp), %rdi
	movq	%rax, 944(%rbx)
	call	_ZNK8opendnp311APDUWrapper8ToRSliceEv@PLT
	leaq	80(%rsp), %rdi
	movq	%rdx, 40(%rsp)
	movl	%eax, 32(%rsp)
	call	_ZNK8opendnp311APDUWrapper10GetControlEv@PLT
	leaq	27(%rsp), %rsi
	movq	%rbx, %rdi
	movq	%rax, %rdx
	movb	%al, 27(%rsp)
	shrq	$16, %rdx
	movb	%ah, 28(%rsp)
	movb	%dl, 29(%rsp)
	movq	%rax, %rdx
	shrq	$32, %rax
	shrq	$24, %rdx
	movb	%al, 31(%rsp)
	movb	%dl, 30(%rsp)
	movq	8(%rsp), %rdx
	call	_ZN8opendnp38OContext12BeginUnsolTxERKNS_15AppControlFieldERKN7openpal6RSliceE@PLT
	jmp	.L369
	.cfi_endproc
.LFE2930:
	.size	_ZN8opendnp38OContext19CheckForUnsolicitedEv, .-_ZN8opendnp38OContext19CheckForUnsolicitedEv
	.align 2
	.p2align 4
	.globl	_ZN8opendnp38OContext17CheckForTaskStartEv
	.type	_ZN8opendnp38OContext17CheckForTaskStartEv, @function
_ZN8opendnp38OContext17CheckForTaskStartEv:
.LFB2940:
	.cfi_startproc
	subq	$24, %rsp
	.cfi_def_cfa_offset 32
	movq	%rdi, 8(%rsp)
	call	_ZN8opendnp38OContext23CheckForDeferredRequestEv@PLT
	movq	8(%rsp), %rdi
	addq	$24, %rsp
	.cfi_def_cfa_offset 8
	jmp	_ZN8opendnp38OContext19CheckForUnsolicitedEv@PLT
	.cfi_endproc
.LFE2940:
	.size	_ZN8opendnp38OContext17CheckForTaskStartEv, .-_ZN8opendnp38OContext17CheckForTaskStartEv
	.section	.rodata.str1.1
.LC8:
	.string	"already online"
	.section	.rodata.str1.8
	.align 8
.LC9:
	.string	"/opt/PLC/OpenPLC_v3/utils/dnp3_src/cpp/libs/src/opendnp3/outstation/OutstationContext.cpp(83)"
	.text
	.align 2
	.p2align 4
	.globl	_ZN8opendnp38OContext14OnLowerLayerUpEv
	.type	_ZN8opendnp38OContext14OnLowerLayerUpEv, @function
_ZN8opendnp38OContext14OnLowerLayerUpEv:
.LFB2915:
	.cfi_startproc
	pushq	%rbx
	.cfi_def_cfa_offset 16
	.cfi_offset 3, -16
	subq	$32, %rsp
	.cfi_def_cfa_offset 48
	cmpb	$0, 720(%rdi)
	jne	.L392
	movb	$1, 720(%rdi)
	call	_ZN8opendnp38OContext17CheckForTaskStartEv@PLT
	addq	$32, %rsp
	.cfi_remember_state
	.cfi_def_cfa_offset 16
	movl	$1, %eax
	popq	%rbx
	.cfi_def_cfa_offset 8
	ret
	.p2align 4,,10
	.p2align 3
.L392:
	.cfi_restore_state
	addq	$8, %rdi
	leaq	28(%rsp), %rsi
	movl	$2, 28(%rsp)
	movq	%rsi, 8(%rsp)
	movq	%rdi, %rbx
	call	_ZNK7openpal6Logger9IsEnabledERKNS_10LogFiltersE@PLT
	movq	8(%rsp), %rsi
	testb	%al, %al
	jne	.L393
	xorl	%eax, %eax
.L394:
	addq	$32, %rsp
	.cfi_remember_state
	.cfi_def_cfa_offset 16
	popq	%rbx
	.cfi_def_cfa_offset 8
	ret
	.p2align 4,,10
	.p2align 3
.L393:
	.cfi_restore_state
	leaq	.LC8(%rip), %rcx
	leaq	.LC9(%rip), %rdx
	movq	%rbx, %rdi
	movl	$2, 28(%rsp)
	call	_ZN7openpal6Logger3LogERKNS_10LogFiltersEPKcS5_@PLT
	xorl	%eax, %eax
	jmp	.L394
	.cfi_endproc
.LFE2915:
	.size	_ZN8opendnp38OContext14OnLowerLayerUpEv, .-_ZN8opendnp38OContext14OnLowerLayerUpEv
	.align 2
	.p2align 4
	.globl	_ZN8opendnp38OContext12OnSendResultEb
	.type	_ZN8opendnp38OContext12OnSendResultEb, @function
_ZN8opendnp38OContext12OnSendResultEb:
.LFB2917:
	.cfi_startproc
	movzbl	720(%rdi), %eax
	testb	%al, %al
	je	.L404
	movzbl	721(%rdi), %eax
	testb	%al, %al
	jne	.L407
.L404:
	ret
	.p2align 4,,10
	.p2align 3
.L407:
	subq	$24, %rsp
	.cfi_def_cfa_offset 32
	movb	$0, 721(%rdi)
	movb	%al, 15(%rsp)
	call	_ZN8opendnp38OContext17CheckForTaskStartEv@PLT
	movzbl	15(%rsp), %eax
	addq	$24, %rsp
	.cfi_def_cfa_offset 8
	ret
	.cfi_endproc
.LFE2917:
	.size	_ZN8opendnp38OContext12OnSendResultEb, .-_ZN8opendnp38OContext12OnSendResultEb
	.p2align 4
	.type	_ZNSt17_Function_handlerIFvvEZN7openpal8TimerRef7RestartIZN8opendnp38OContext19RestartConfirmTimerEvEUlvE_EEvRKNS1_12TimeDurationERKT_EUlvE_E9_M_invokeERKSt9_Any_data, @function
_ZNSt17_Function_handlerIFvvEZN7openpal8TimerRef7RestartIZN8opendnp38OContext19RestartConfirmTimerEvEUlvE_EEvRKNS1_12TimeDurationERKT_EUlvE_E9_M_invokeERKSt9_Any_data:
.LFB3647:
	.cfi_startproc
	pushq	%rbp
	.cfi_def_cfa_offset 16
	.cfi_offset 6, -16
	pushq	%rbx
	.cfi_def_cfa_offset 24
	.cfi_offset 3, -24
	movq	%rdi, %rbx
	subq	$8, %rsp
	.cfi_def_cfa_offset 32
	movq	8(%rdi), %rbp
	movq	(%rdi), %rax
	movq	944(%rbp), %rdi
	movq	$0, 8(%rax)
	movq	%rbp, %rsi
	movq	(%rdi), %rax
	call	*24(%rax)
	movq	8(%rbx), %rdi
	movq	%rax, 944(%rbp)
	addq	$8, %rsp
	.cfi_def_cfa_offset 24
	popq	%rbx
	.cfi_def_cfa_offset 16
	popq	%rbp
	.cfi_def_cfa_offset 8
	jmp	_ZN8opendnp38OContext17CheckForTaskStartEv@PLT
	.cfi_endproc
.LFE3647:
	.size	_ZNSt17_Function_handlerIFvvEZN7openpal8TimerRef7RestartIZN8opendnp38OContext19RestartConfirmTimerEvEUlvE_EEvRKNS1_12TimeDurationERKT_EUlvE_E9_M_invokeERKSt9_Any_data, .-_ZNSt17_Function_handlerIFvvEZN7openpal8TimerRef7RestartIZN8opendnp38OContext19RestartConfirmTimerEvEUlvE_EEvRKNS1_12TimeDurationERKT_EUlvE_E9_M_invokeERKSt9_Any_data
	.section	.text._ZN8opendnp38OContextD0Ev,"axG",@progbits,_ZN8opendnp38OContextD5Ev,comdat
	.align 2
	.p2align 4
	.weak	_ZN8opendnp38OContextD0Ev
	.type	_ZN8opendnp38OContextD0Ev, @function
_ZN8opendnp38OContextD0Ev:
.LFB3867:
	.cfi_startproc
	pushq	%rbx
	.cfi_def_cfa_offset 16
	.cfi_offset 3, -16
	movq	%rdi, %rbx
	subq	$16, %rsp
	.cfi_def_cfa_offset 32
	movq	_ZTVN8opendnp38OContextE@GOTPCREL(%rip), %rax
	addq	$16, %rax
	movq	%rax, (%rdi)
	movq	936(%rdi), %rdi
	testq	%rdi, %rdi
	je	.L411
	call	_ZdaPv@PLT
.L411:
	movq	880(%rbx), %rdi
	testq	%rdi, %rdi
	je	.L412
	call	_ZdaPv@PLT
.L412:
	movq	800(%rbx), %rdi
	testq	%rdi, %rdi
	je	.L413
	call	_ZdaPv@PLT
.L413:
	leaq	728(%rbx), %rdi
	call	_ZN7openpal8TimerRefD1Ev@PLT
	movq	592(%rbx), %rdi
	testq	%rdi, %rdi
	je	.L414
	call	_ZdaPv@PLT
.L414:
	movq	568(%rbx), %rdi
	testq	%rdi, %rdi
	je	.L415
	call	_ZdaPv@PLT
.L415:
	movq	544(%rbx), %rdi
	testq	%rdi, %rdi
	je	.L416
	call	_ZdaPv@PLT
.L416:
	movq	520(%rbx), %rdi
	testq	%rdi, %rdi
	je	.L417
	call	_ZdaPv@PLT
.L417:
	movq	496(%rbx), %rdi
	testq	%rdi, %rdi
	je	.L418
	call	_ZdaPv@PLT
.L418:
	movq	472(%rbx), %rdi
	testq	%rdi, %rdi
	je	.L419
	call	_ZdaPv@PLT
.L419:
	movq	448(%rbx), %rdi
	testq	%rdi, %rdi
	je	.L420
	call	_ZdaPv@PLT
.L420:
	movq	424(%rbx), %rdi
	testq	%rdi, %rdi
	je	.L421
	call	_ZdaPv@PLT
.L421:
	movq	208(%rbx), %rdi
	testq	%rdi, %rdi
	je	.L422
	call	_ZdaPv@PLT
.L422:
	movq	96(%rbx), %rdi
	testq	%rdi, %rdi
	je	.L424
	movq	8(%rdi), %rdx
	leaq	8(%rdi), %rcx
	movabsq	$4294967297, %rax
	cmpq	%rax, %rdx
	je	.L496
	movq	__libc_single_threaded@GOTPCREL(%rip), %rax
	cmpb	$0, (%rax)
	je	.L426
	movl	8(%rdi), %eax
	leal	-1(%rax), %edx
	movl	%edx, 8(%rdi)
.L427:
	cmpl	$1, %eax
	je	.L497
.L424:
	movq	80(%rbx), %rdi
	testq	%rdi, %rdi
	je	.L430
	movq	8(%rdi), %rdx
	leaq	8(%rdi), %rcx
	movabsq	$4294967297, %rax
	cmpq	%rax, %rdx
	je	.L498
	movq	__libc_single_threaded@GOTPCREL(%rip), %rax
	cmpb	$0, (%rax)
	je	.L432
	movl	8(%rdi), %eax
	leal	-1(%rax), %edx
	movl	%edx, 8(%rdi)
.L433:
	cmpl	$1, %eax
	je	.L499
.L430:
	movq	64(%rbx), %rdi
	testq	%rdi, %rdi
	je	.L436
	movq	8(%rdi), %rdx
	leaq	8(%rdi), %rcx
	movabsq	$4294967297, %rax
	cmpq	%rax, %rdx
	je	.L500
	movq	__libc_single_threaded@GOTPCREL(%rip), %rax
	cmpb	$0, (%rax)
	je	.L438
	movl	8(%rdi), %eax
	leal	-1(%rax), %edx
	movl	%edx, 8(%rdi)
.L439:
	cmpl	$1, %eax
	je	.L501
.L436:
	movq	48(%rbx), %rdi
	testq	%rdi, %rdi
	je	.L442
	movq	8(%rdi), %rdx
	leaq	8(%rdi), %rcx
	movabsq	$4294967297, %rax
	cmpq	%rax, %rdx
	je	.L502
	movq	__libc_single_threaded@GOTPCREL(%rip), %rax
	cmpb	$0, (%rax)
	je	.L444
	movl	8(%rdi), %eax
	leal	-1(%rax), %edx
	movl	%edx, 8(%rdi)
.L445:
	cmpl	$1, %eax
	je	.L503
.L442:
	movq	32(%rbx), %rdi
	testq	%rdi, %rdi
	je	.L448
	movq	8(%rdi), %rdx
	leaq	8(%rdi), %rcx
	movabsq	$4294967297, %rax
	cmpq	%rax, %rdx
	je	.L504
	movq	__libc_single_threaded@GOTPCREL(%rip), %rax
	cmpb	$0, (%rax)
	je	.L450
	movl	8(%rdi), %eax
	leal	-1(%rax), %edx
	movl	%edx, 8(%rdi)
.L451:
	cmpl	$1, %eax
	je	.L505
.L448:
	movq	16(%rbx), %rdi
	testq	%rdi, %rdi
	je	.L454
	movq	8(%rdi), %rdx
	leaq	8(%rdi), %rcx
	movabsq	$4294967297, %rax
	cmpq	%rax, %rdx
	je	.L506
	movq	__libc_single_threaded@GOTPCREL(%rip), %rax
	cmpb	$0, (%rax)
	je	.L456
	movl	8(%rdi), %eax
	leal	-1(%rax), %edx
	movl	%edx, 8(%rdi)
.L457:
	cmpl	$1, %eax
	je	.L507
.L454:
	addq	$16, %rsp
	.cfi_remember_state
	.cfi_def_cfa_offset 16
	movq	%rbx, %rdi
	movl	$952, %esi
	popq	%rbx
	.cfi_def_cfa_offset 8
	jmp	_ZdlPvm@PLT
	.p2align 4,,10
	.p2align 3
.L498:
	.cfi_restore_state
	movq	(%rdi), %rax
	movq	%rdi, 8(%rsp)
	movq	$0, 8(%rdi)
	call	*16(%rax)
	movq	8(%rsp), %rdi
	movq	(%rdi), %rax
	call	*24(%rax)
	jmp	.L430
	.p2align 4,,10
	.p2align 3
.L504:
	movq	(%rdi), %rax
	movq	%rdi, 8(%rsp)
	movq	$0, 8(%rdi)
	call	*16(%rax)
	movq	8(%rsp), %rdi
	movq	(%rdi), %rax
	call	*24(%rax)
	jmp	.L448
	.p2align 4,,10
	.p2align 3
.L506:
	movq	(%rdi), %rax
	movq	%rdi, 8(%rsp)
	movq	$0, 8(%rdi)
	call	*16(%rax)
	movq	8(%rsp), %rdi
	movq	(%rdi), %rax
	call	*24(%rax)
	jmp	.L454
	.p2align 4,,10
	.p2align 3
.L500:
	movq	(%rdi), %rax
	movq	%rdi, 8(%rsp)
	movq	$0, 8(%rdi)
	call	*16(%rax)
	movq	8(%rsp), %rdi
	movq	(%rdi), %rax
	call	*24(%rax)
	jmp	.L436
	.p2align 4,,10
	.p2align 3
.L502:
	movq	(%rdi), %rax
	movq	%rdi, 8(%rsp)
	movq	$0, 8(%rdi)
	call	*16(%rax)
	movq	8(%rsp), %rdi
	movq	(%rdi), %rax
	call	*24(%rax)
	jmp	.L442
	.p2align 4,,10
	.p2align 3
.L496:
	movq	(%rdi), %rax
	movq	%rdi, 8(%rsp)
	movq	$0, 8(%rdi)
	call	*16(%rax)
	movq	8(%rsp), %rdi
	movq	(%rdi), %rax
	call	*24(%rax)
	jmp	.L424
	.p2align 4,,10
	.p2align 3
.L438:
	movl	$-1, %eax
	lock xaddl	%eax, (%rcx)
	jmp	.L439
	.p2align 4,,10
	.p2align 3
.L444:
	movl	$-1, %eax
	lock xaddl	%eax, (%rcx)
	jmp	.L445
	.p2align 4,,10
	.p2align 3
.L426:
	movl	$-1, %eax
	lock xaddl	%eax, (%rcx)
	jmp	.L427
	.p2align 4,,10
	.p2align 3
.L432:
	movl	$-1, %eax
	lock xaddl	%eax, (%rcx)
	jmp	.L433
	.p2align 4,,10
	.p2align 3
.L456:
	movl	$-1, %eax
	lock xaddl	%eax, (%rcx)
	jmp	.L457
	.p2align 4,,10
	.p2align 3
.L450:
	movl	$-1, %eax
	lock xaddl	%eax, (%rcx)
	jmp	.L451
	.p2align 4,,10
	.p2align 3
.L497:
	call	_ZNSt16_Sp_counted_baseILN9__gnu_cxx12_Lock_policyE2EE24_M_release_last_use_coldEv@PLT
	jmp	.L424
	.p2align 4,,10
	.p2align 3
.L505:
	call	_ZNSt16_Sp_counted_baseILN9__gnu_cxx12_Lock_policyE2EE24_M_release_last_use_coldEv@PLT
	jmp	.L448
	.p2align 4,,10
	.p2align 3
.L503:
	call	_ZNSt16_Sp_counted_baseILN9__gnu_cxx12_Lock_policyE2EE24_M_release_last_use_coldEv@PLT
	jmp	.L442
	.p2align 4,,10
	.p2align 3
.L501:
	call	_ZNSt16_Sp_counted_baseILN9__gnu_cxx12_Lock_policyE2EE24_M_release_last_use_coldEv@PLT
	jmp	.L436
	.p2align 4,,10
	.p2align 3
.L499:
	call	_ZNSt16_Sp_counted_baseILN9__gnu_cxx12_Lock_policyE2EE24_M_release_last_use_coldEv@PLT
	jmp	.L430
	.p2align 4,,10
	.p2align 3
.L507:
	call	_ZNSt16_Sp_counted_baseILN9__gnu_cxx12_Lock_policyE2EE24_M_release_last_use_coldEv@PLT
	jmp	.L454
	.cfi_endproc
.LFE3867:
	.size	_ZN8opendnp38OContextD0Ev, .-_ZN8opendnp38OContextD0Ev
	.section	.text._ZN8opendnp38OContextD2Ev,"axG",@progbits,_ZN8opendnp38OContextD5Ev,comdat
	.align 2
	.p2align 4
	.weak	_ZN8opendnp38OContextD2Ev
	.type	_ZN8opendnp38OContextD2Ev, @function
_ZN8opendnp38OContextD2Ev:
.LFB3865:
	.cfi_startproc
	pushq	%rbx
	.cfi_def_cfa_offset 16
	.cfi_offset 3, -16
	movq	%rdi, %rbx
	subq	$16, %rsp
	.cfi_def_cfa_offset 32
	movq	_ZTVN8opendnp38OContextE@GOTPCREL(%rip), %rax
	addq	$16, %rax
	movq	%rax, (%rdi)
	movq	936(%rdi), %rdi
	testq	%rdi, %rdi
	je	.L509
	call	_ZdaPv@PLT
.L509:
	movq	880(%rbx), %rdi
	testq	%rdi, %rdi
	je	.L510
	call	_ZdaPv@PLT
.L510:
	movq	800(%rbx), %rdi
	testq	%rdi, %rdi
	je	.L511
	call	_ZdaPv@PLT
.L511:
	leaq	728(%rbx), %rdi
	call	_ZN7openpal8TimerRefD1Ev@PLT
	movq	592(%rbx), %rdi
	testq	%rdi, %rdi
	je	.L512
	call	_ZdaPv@PLT
.L512:
	movq	568(%rbx), %rdi
	testq	%rdi, %rdi
	je	.L513
	call	_ZdaPv@PLT
.L513:
	movq	544(%rbx), %rdi
	testq	%rdi, %rdi
	je	.L514
	call	_ZdaPv@PLT
.L514:
	movq	520(%rbx), %rdi
	testq	%rdi, %rdi
	je	.L515
	call	_ZdaPv@PLT
.L515:
	movq	496(%rbx), %rdi
	testq	%rdi, %rdi
	je	.L516
	call	_ZdaPv@PLT
.L516:
	movq	472(%rbx), %rdi
	testq	%rdi, %rdi
	je	.L517
	call	_ZdaPv@PLT
.L517:
	movq	448(%rbx), %rdi
	testq	%rdi, %rdi
	je	.L518
	call	_ZdaPv@PLT
.L518:
	movq	424(%rbx), %rdi
	testq	%rdi, %rdi
	je	.L519
	call	_ZdaPv@PLT
.L519:
	movq	208(%rbx), %rdi
	testq	%rdi, %rdi
	je	.L520
	call	_ZdaPv@PLT
.L520:
	movq	96(%rbx), %rdi
	testq	%rdi, %rdi
	je	.L522
	movq	8(%rdi), %rdx
	leaq	8(%rdi), %rcx
	movabsq	$4294967297, %rax
	cmpq	%rax, %rdx
	je	.L594
	movq	__libc_single_threaded@GOTPCREL(%rip), %rax
	cmpb	$0, (%rax)
	je	.L524
	movl	8(%rdi), %eax
	leal	-1(%rax), %edx
	movl	%edx, 8(%rdi)
.L525:
	cmpl	$1, %eax
	je	.L595
.L522:
	movq	80(%rbx), %rdi
	testq	%rdi, %rdi
	je	.L528
	movq	8(%rdi), %rdx
	leaq	8(%rdi), %rcx
	movabsq	$4294967297, %rax
	cmpq	%rax, %rdx
	je	.L596
	movq	__libc_single_threaded@GOTPCREL(%rip), %rax
	cmpb	$0, (%rax)
	je	.L530
	movl	8(%rdi), %eax
	leal	-1(%rax), %edx
	movl	%edx, 8(%rdi)
.L531:
	cmpl	$1, %eax
	je	.L597
.L528:
	movq	64(%rbx), %rdi
	testq	%rdi, %rdi
	je	.L534
	movq	8(%rdi), %rdx
	leaq	8(%rdi), %rcx
	movabsq	$4294967297, %rax
	cmpq	%rax, %rdx
	je	.L598
	movq	__libc_single_threaded@GOTPCREL(%rip), %rax
	cmpb	$0, (%rax)
	je	.L536
	movl	8(%rdi), %eax
	leal	-1(%rax), %edx
	movl	%edx, 8(%rdi)
.L537:
	cmpl	$1, %eax
	je	.L599
.L534:
	movq	48(%rbx), %rdi
	testq	%rdi, %rdi
	je	.L540
	movq	8(%rdi), %rdx
	leaq	8(%rdi), %rcx
	movabsq	$4294967297, %rax
	cmpq	%rax, %rdx
	je	.L600
	movq	__libc_single_threaded@GOTPCREL(%rip), %rax
	cmpb	$0, (%rax)
	je	.L542
	movl	8(%rdi), %eax
	leal	-1(%rax), %edx
	movl	%edx, 8(%rdi)
.L543:
	cmpl	$1, %eax
	je	.L601
.L540:
	movq	32(%rbx), %rdi
	testq	%rdi, %rdi
	je	.L546
	movq	8(%rdi), %rdx
	leaq	8(%rdi), %rcx
	movabsq	$4294967297, %rax
	cmpq	%rax, %rdx
	je	.L602
	movq	__libc_single_threaded@GOTPCREL(%rip), %rax
	cmpb	$0, (%rax)
	je	.L548
	movl	8(%rdi), %eax
	leal	-1(%rax), %edx
	movl	%edx, 8(%rdi)
.L549:
	cmpl	$1, %eax
	je	.L603
.L546:
	movq	16(%rbx), %rbx
	testq	%rbx, %rbx
	je	.L508
	movq	8(%rbx), %rdx
	leaq	8(%rbx), %rcx
	movabsq	$4294967297, %rax
	cmpq	%rax, %rdx
	je	.L604
	movq	__libc_single_threaded@GOTPCREL(%rip), %rax
	cmpb	$0, (%rax)
	je	.L554
	movl	8(%rbx), %eax
	leal	-1(%rax), %edx
	movl	%edx, 8(%rbx)
.L555:
	cmpl	$1, %eax
	je	.L605
.L508:
	addq	$16, %rsp
	.cfi_remember_state
	.cfi_def_cfa_offset 16
	popq	%rbx
	.cfi_def_cfa_offset 8
	ret
	.p2align 4,,10
	.p2align 3
.L596:
	.cfi_restore_state
	movq	(%rdi), %rax
	movq	%rdi, 8(%rsp)
	movq	$0, 8(%rdi)
	call	*16(%rax)
	movq	8(%rsp), %rdi
	movq	(%rdi), %rax
	call	*24(%rax)
	jmp	.L528
	.p2align 4,,10
	.p2align 3
.L602:
	movq	(%rdi), %rax
	movq	%rdi, 8(%rsp)
	movq	$0, 8(%rdi)
	call	*16(%rax)
	movq	8(%rsp), %rdi
	movq	(%rdi), %rax
	call	*24(%rax)
	jmp	.L546
	.p2align 4,,10
	.p2align 3
.L604:
	movq	(%rbx), %rax
	movq	%rbx, %rdi
	movq	$0, 8(%rbx)
	call	*16(%rax)
	movq	(%rbx), %rax
	movq	%rbx, %rdi
	movq	24(%rax), %rax
	addq	$16, %rsp
	.cfi_remember_state
	.cfi_def_cfa_offset 16
	popq	%rbx
	.cfi_def_cfa_offset 8
	jmp	*%rax
	.p2align 4,,10
	.p2align 3
.L598:
	.cfi_restore_state
	movq	(%rdi), %rax
	movq	%rdi, 8(%rsp)
	movq	$0, 8(%rdi)
	call	*16(%rax)
	movq	8(%rsp), %rdi
	movq	(%rdi), %rax
	call	*24(%rax)
	jmp	.L534
	.p2align 4,,10
	.p2align 3
.L600:
	movq	(%rdi), %rax
	movq	%rdi, 8(%rsp)
	movq	$0, 8(%rdi)
	call	*16(%rax)
	movq	8(%rsp), %rdi
	movq	(%rdi), %rax
	call	*24(%rax)
	jmp	.L540
	.p2align 4,,10
	.p2align 3
.L594:
	movq	(%rdi), %rax
	movq	%rdi, 8(%rsp)
	movq	$0, 8(%rdi)
	call	*16(%rax)
	movq	8(%rsp), %rdi
	movq	(%rdi), %rax
	call	*24(%rax)
	jmp	.L522
	.p2align 4,,10
	.p2align 3
.L536:
	movl	$-1, %eax
	lock xaddl	%eax, (%rcx)
	jmp	.L537
	.p2align 4,,10
	.p2align 3
.L542:
	movl	$-1, %eax
	lock xaddl	%eax, (%rcx)
	jmp	.L543
	.p2align 4,,10
	.p2align 3
.L524:
	movl	$-1, %eax
	lock xaddl	%eax, (%rcx)
	jmp	.L525
	.p2align 4,,10
	.p2align 3
.L530:
	movl	$-1, %eax
	lock xaddl	%eax, (%rcx)
	jmp	.L531
	.p2align 4,,10
	.p2align 3
.L554:
	movl	$-1, %eax
	lock xaddl	%eax, (%rcx)
	jmp	.L555
	.p2align 4,,10
	.p2align 3
.L548:
	movl	$-1, %eax
	lock xaddl	%eax, (%rcx)
	jmp	.L549
	.p2align 4,,10
	.p2align 3
.L595:
	call	_ZNSt16_Sp_counted_baseILN9__gnu_cxx12_Lock_policyE2EE24_M_release_last_use_coldEv@PLT
	jmp	.L522
	.p2align 4,,10
	.p2align 3
.L603:
	call	_ZNSt16_Sp_counted_baseILN9__gnu_cxx12_Lock_policyE2EE24_M_release_last_use_coldEv@PLT
	jmp	.L546
	.p2align 4,,10
	.p2align 3
.L601:
	call	_ZNSt16_Sp_counted_baseILN9__gnu_cxx12_Lock_policyE2EE24_M_release_last_use_coldEv@PLT
	jmp	.L540
	.p2align 4,,10
	.p2align 3
.L599:
	call	_ZNSt16_Sp_counted_baseILN9__gnu_cxx12_Lock_policyE2EE24_M_release_last_use_coldEv@PLT
	jmp	.L534
	.p2align 4,,10
	.p2align 3
.L597:
	call	_ZNSt16_Sp_counted_baseILN9__gnu_cxx12_Lock_policyE2EE24_M_release_last_use_coldEv@PLT
	jmp	.L528
	.p2align 4,,10
	.p2align 3
.L605:
	addq	$16, %rsp
	.cfi_def_cfa_offset 16
	movq	%rbx, %rdi
	popq	%rbx
	.cfi_def_cfa_offset 8
	jmp	_ZNSt16_Sp_counted_baseILN9__gnu_cxx12_Lock_policyE2EE24_M_release_last_use_coldEv@PLT
	.cfi_endproc
.LFE3865:
	.size	_ZN8opendnp38OContextD2Ev, .-_ZN8opendnp38OContextD2Ev
	.weak	_ZN8opendnp38OContextD1Ev
	.set	_ZN8opendnp38OContextD1Ev,_ZN8opendnp38OContextD2Ev
	.section	.text.startup,"ax",@progbits
	.p2align 4
	.type	_GLOBAL__sub_I_OutstationContext.cpp, @function
_GLOBAL__sub_I_OutstationContext.cpp:
.LFB3897:
	.cfi_startproc
	movl	$5000, %edi
	jmp	_ZN7openpal12TimeDuration12MillisecondsEl@PLT
	.cfi_endproc
.LFE3897:
	.size	_GLOBAL__sub_I_OutstationContext.cpp, .-_GLOBAL__sub_I_OutstationContext.cpp
	.section	.init_array,"aw"
	.align 8
	.quad	_GLOBAL__sub_I_OutstationContext.cpp
	.section	.rodata.str1.8
	.align 8
.LC10:
	.string	"Igonring command request due to oversized payload size of %u"
	.align 8
.LC11:
	.string	"/opt/PLC/OpenPLC_v3/utils/dnp3_src/cpp/libs/src/opendnp3/outstation/OutstationContext.cpp(556)"
	.section	.text.unlikely
	.align 2
.LCOLDB12:
	.text
.LHOTB12:
	.align 2
	.p2align 4
	.globl	_ZN8opendnp38OContext19HandleDirectOperateERKN7openpal6RSliceENS_11OperateTypeEPNS_12HeaderWriterE
	.type	_ZN8opendnp38OContext19HandleDirectOperateERKN7openpal6RSliceENS_11OperateTypeEPNS_12HeaderWriterE, @function
_ZN8opendnp38OContext19HandleDirectOperateERKN7openpal6RSliceENS_11OperateTypeEPNS_12HeaderWriterE:
.LFB2948:
	.cfi_startproc
	.cfi_personality 0x9b,DW.ref.__gxx_personality_v0
	.cfi_lsda 0x1b,.LLSDA2948
	pushq	%r14
	.cfi_def_cfa_offset 16
	.cfi_offset 14, -16
	movl	%edx, %r14d
	pushq	%r13
	.cfi_def_cfa_offset 24
	.cfi_offset 13, -24
	pushq	%r12
	.cfi_def_cfa_offset 32
	.cfi_offset 12, -32
	movq	%rsi, %r12
	pushq	%rbp
	.cfi_def_cfa_offset 40
	.cfi_offset 6, -40
	movq	%rcx, %rbp
	pushq	%rbx
	.cfi_def_cfa_offset 48
	.cfi_offset 3, -48
	movq	%rdi, %rbx
	subq	$160, %rsp
	.cfi_def_cfa_offset 208
	testq	%rcx, %rcx
	je	.L608
	movl	(%rsi), %r13d
	movq	%rcx, %rdi
.LEHB12:
	call	_ZNK8opendnp312HeaderWriter9RemainingEv@PLT
	cmpl	%r13d, %eax
	jb	.L624
.L608:
	movq	72(%rbx), %rsi
	movl	%r14d, %ecx
	xorl	%edx, %edx
	movq	%rsp, %rdi
	movq	%rsp, %r13
	call	_ZN8opendnp320CommandActionAdapterC1EPNS_15ICommandHandlerEbNS_11OperateTypeE@PLT
.LEHE12:
	movq	%rbp, %rcx
	movq	%rsp, %rdx
	leaq	32(%rsp), %rdi
	movzbl	665(%rbx), %esi
.LEHB13:
	call	_ZN8opendnp322CommandResponseHandlerC1EhPNS_14ICommandActionEPNS_12HeaderWriterE@PLT
	leaq	8(%rbx), %rdx
	leaq	32(%rsp), %rsi
	movq	%r12, %rdi
	movabsq	$35184372088833, %rcx
	call	_ZN8opendnp310APDUParser5ParseERKN7openpal6RSliceERNS_12IAPDUHandlerEPNS1_6LoggerENS_14ParserSettingsE@PLT
	testb	%al, %al
	je	.L625
	movl	%eax, %edi
	call	_ZN8opendnp318IINFromParseResultENS_11ParseResultE@PLT
.L623:
	movq	%r13, %rdi
	movl	%eax, %ebx
	call	_ZN8opendnp320CommandActionAdapterD1Ev@PLT
.L621:
	addq	$160, %rsp
	.cfi_remember_state
	.cfi_def_cfa_offset 48
	movl	%ebx, %eax
	popq	%rbx
	.cfi_def_cfa_offset 40
	popq	%rbp
	.cfi_def_cfa_offset 32
	popq	%r12
	.cfi_def_cfa_offset 24
	popq	%r13
	.cfi_def_cfa_offset 16
	popq	%r14
	.cfi_def_cfa_offset 8
	ret
	.p2align 4,,10
	.p2align 3
.L625:
	.cfi_restore_state
	leaq	32(%rsp), %rdi
	call	_ZNK8opendnp312IAPDUHandler6ErrorsEv@PLT
.LEHE13:
	jmp	.L623
	.p2align 4,,10
	.p2align 3
.L624:
	leaq	32(%rsp), %rsi
	leaq	8(%rbx), %rdi
	movl	$4, 32(%rsp)
.LEHB14:
	call	_ZNK7openpal6Logger9IsEnabledERKNS_10LogFiltersE@PLT
	testb	%al, %al
	jne	.L626
.L610:
	xorl	%eax, %eax
	movl	$10, %esi
	leaq	32(%rsp), %rdi
	movw	%ax, 32(%rsp)
	call	_ZN8opendnp38IINField6SetBitENS_6IINBitE@PLT
	movzwl	32(%rsp), %ebx
	jmp	.L621
	.p2align 4,,10
	.p2align 3
.L626:
	movl	(%r12), %ecx
	leaq	32(%rsp), %rdi
	movl	$120, %esi
	xorl	%eax, %eax
	leaq	.LC10(%rip), %rdx
	call	snprintf@PLT
	movq	%rsp, %rsi
	leaq	32(%rsp), %rcx
	leaq	.LC11(%rip), %rdx
	leaq	8(%rbx), %rdi
	movl	$4, (%rsp)
	call	_ZN7openpal6Logger3LogERKNS_10LogFiltersEPKcS5_@PLT
.LEHE14:
	jmp	.L610
.L616:
	movq	%rax, %rbx
	jmp	.L615
	.section	.gcc_except_table
.LLSDA2948:
	.byte	0xff
	.byte	0xff
	.byte	0x1
	.uleb128 .LLSDACSE2948-.LLSDACSB2948
.LLSDACSB2948:
	.uleb128 .LEHB12-.LFB2948
	.uleb128 .LEHE12-.LEHB12
	.uleb128 0
	.uleb128 0
	.uleb128 .LEHB13-.LFB2948
	.uleb128 .LEHE13-.LEHB13
	.uleb128 .L616-.LFB2948
	.uleb128 0
	.uleb128 .LEHB14-.LFB2948
	.uleb128 .LEHE14-.LEHB14
	.uleb128 0
	.uleb128 0
.LLSDACSE2948:
	.text
	.cfi_endproc
	.section	.text.unlikely
	.cfi_startproc
	.cfi_personality 0x9b,DW.ref.__gxx_personality_v0
	.cfi_lsda 0x1b,.LLSDAC2948
	.type	_ZN8opendnp38OContext19HandleDirectOperateERKN7openpal6RSliceENS_11OperateTypeEPNS_12HeaderWriterE.cold, @function
_ZN8opendnp38OContext19HandleDirectOperateERKN7openpal6RSliceENS_11OperateTypeEPNS_12HeaderWriterE.cold:
.LFSB2948:
.L615:
	.cfi_def_cfa_offset 208
	.cfi_offset 3, -48
	.cfi_offset 6, -40
	.cfi_offset 12, -32
	.cfi_offset 13, -24
	.cfi_offset 14, -16
	movq	%r13, %rdi
	call	_ZN8opendnp320CommandActionAdapterD1Ev@PLT
	movq	%rbx, %rdi
.LEHB15:
	call	_Unwind_Resume@PLT
.LEHE15:
	.cfi_endproc
.LFE2948:
	.section	.gcc_except_table
.LLSDAC2948:
	.byte	0xff
	.byte	0xff
	.byte	0x1
	.uleb128 .LLSDACSEC2948-.LLSDACSBC2948
.LLSDACSBC2948:
	.uleb128 .LEHB15-.LCOLDB12
	.uleb128 .LEHE15-.LEHB15
	.uleb128 0
	.uleb128 0
.LLSDACSEC2948:
	.section	.text.unlikely
	.text
	.size	_ZN8opendnp38OContext19HandleDirectOperateERKN7openpal6RSliceENS_11OperateTypeEPNS_12HeaderWriterE, .-_ZN8opendnp38OContext19HandleDirectOperateERKN7openpal6RSliceENS_11OperateTypeEPNS_12HeaderWriterE
	.section	.text.unlikely
	.size	_ZN8opendnp38OContext19HandleDirectOperateERKN7openpal6RSliceENS_11OperateTypeEPNS_12HeaderWriterE.cold, .-_ZN8opendnp38OContext19HandleDirectOperateERKN7openpal6RSliceENS_11OperateTypeEPNS_12HeaderWriterE.cold
.LCOLDE12:
	.text
.LHOTE12:
	.section	.rodata.str1.1
.LC13:
	.string	"Ignoring NR function code: %s"
	.section	.rodata.str1.8
	.align 8
.LC14:
	.string	"/opt/PLC/OpenPLC_v3/utils/dnp3_src/cpp/libs/src/opendnp3/outstation/OutstationContext.cpp(490)"
	.text
	.align 2
	.p2align 4
	.globl	_ZN8opendnp38OContext19ProcessRequestNoAckERKNS_10APDUHeaderERKN7openpal6RSliceE
	.type	_ZN8opendnp38OContext19ProcessRequestNoAckERKNS_10APDUHeaderERKN7openpal6RSliceE, @function
_ZN8opendnp38OContext19ProcessRequestNoAckERKNS_10APDUHeaderERKN7openpal6RSliceE:
.LFB2944:
	.cfi_startproc
	cmpb	$6, (%rsi)
	je	.L635
	pushq	%r15
	.cfi_def_cfa_offset 16
	.cfi_offset 15, -16
	movq	%rsi, %r15
	pushq	%r14
	.cfi_def_cfa_offset 24
	.cfi_offset 14, -24
	leaq	8(%rdi), %r14
	addq	$8, %rdi
	pushq	%rbx
	.cfi_def_cfa_offset 32
	.cfi_offset 3, -32
	subq	$144, %rsp
	.cfi_def_cfa_offset 176
	leaq	16(%rsp), %rsi
	movl	$4, 16(%rsp)
	call	_ZNK7openpal6Logger9IsEnabledERKNS_10LogFiltersE@PLT
	testb	%al, %al
	jne	.L636
	addq	$144, %rsp
	.cfi_remember_state
	.cfi_def_cfa_offset 32
	popq	%rbx
	.cfi_def_cfa_offset 24
	popq	%r14
	.cfi_def_cfa_offset 16
	popq	%r15
	.cfi_def_cfa_offset 8
	ret
	.p2align 4,,10
	.p2align 3
.L636:
	.cfi_restore_state
	movzbl	(%r15), %edi
	call	_ZN8opendnp320FunctionCodeToStringENS_12FunctionCodeE@PLT
	leaq	16(%rsp), %rdi
	movl	$120, %esi
	leaq	.LC13(%rip), %rdx
	movq	%rax, %rcx
	xorl	%eax, %eax
	call	snprintf@PLT
	leaq	12(%rsp), %rsi
	movq	%r14, %rdi
	leaq	16(%rsp), %rcx
	leaq	.LC14(%rip), %rdx
	movl	$4, 12(%rsp)
	call	_ZN7openpal6Logger3LogERKNS_10LogFiltersEPKcS5_@PLT
	addq	$144, %rsp
	.cfi_def_cfa_offset 32
	popq	%rbx
	.cfi_def_cfa_offset 24
	popq	%r14
	.cfi_def_cfa_offset 16
	popq	%r15
	.cfi_def_cfa_offset 8
	ret
	.p2align 4,,10
	.p2align 3
.L635:
	.cfi_restore 3
	.cfi_restore 14
	.cfi_restore 15
	movq	%rdx, %rsi
	xorl	%ecx, %ecx
	movl	$2, %edx
	jmp	_ZN8opendnp38OContext19HandleDirectOperateERKN7openpal6RSliceENS_11OperateTypeEPNS_12HeaderWriterE@PLT
	.cfi_endproc
.LFE2944:
	.size	_ZN8opendnp38OContext19ProcessRequestNoAckERKNS_10APDUHeaderERKN7openpal6RSliceE, .-_ZN8opendnp38OContext19ProcessRequestNoAckERKNS_10APDUHeaderERKN7openpal6RSliceE
	.align 2
	.p2align 4
	.globl	_ZN8opendnp38OContext11ProcessAPDUERKN7openpal6RSliceERKNS_10APDUHeaderES4_
	.type	_ZN8opendnp38OContext11ProcessAPDUERKN7openpal6RSliceERKNS_10APDUHeaderES4_, @function
_ZN8opendnp38OContext11ProcessAPDUERKN7openpal6RSliceERKNS_10APDUHeaderES4_:
.LFB2921:
	.cfi_startproc
	pushq	%r12
	.cfi_def_cfa_offset 16
	.cfi_offset 12, -16
	movq	%rcx, %r12
	pushq	%rbp
	.cfi_def_cfa_offset 24
	.cfi_offset 6, -24
	movq	%rdi, %rbp
	pushq	%rbx
	.cfi_def_cfa_offset 32
	.cfi_offset 3, -32
	movzbl	(%rdx), %edi
	movq	%rdx, %rbx
	call	_ZN8opendnp39Functions15IsNoAckFuncCodeENS_12FunctionCodeE@PLT
	testb	%al, %al
	jne	.L642
	cmpb	$0, 721(%rbp)
	jne	.L643
	cmpb	$0, (%rbx)
	jne	.L640
	movq	%rbx, %rsi
	movq	%rbp, %rdi
	popq	%rbx
	.cfi_remember_state
	.cfi_def_cfa_offset 24
	popq	%rbp
	.cfi_def_cfa_offset 16
	popq	%r12
	.cfi_def_cfa_offset 8
	jmp	_ZN8opendnp38OContext14ProcessConfirmERKNS_10APDUHeaderE@PLT
	.p2align 4,,10
	.p2align 3
.L643:
	.cfi_restore_state
	movzbl	1(%rbx), %esi
	movzbl	(%rbx), %eax
	leaq	760(%rbp), %rdi
	movl	(%r12), %edx
	movq	8(%r12), %rcx
	salq	$8, %rsi
	orq	%rax, %rsi
	movzbl	2(%rbx), %eax
	salq	$16, %rax
	orq	%rsi, %rax
	movzbl	3(%rbx), %esi
	salq	$24, %rsi
	orq	%rax, %rsi
	movzbl	4(%rbx), %eax
	salq	$32, %rax
	orq	%rsi, %rax
	movzbl	5(%rbx), %esi
	popq	%rbx
	.cfi_remember_state
	.cfi_def_cfa_offset 24
	popq	%rbp
	.cfi_def_cfa_offset 16
	popq	%r12
	.cfi_def_cfa_offset 8
	salq	$40, %rsi
	orq	%rax, %rsi
	jmp	_ZN8opendnp315DeferredRequest3SetENS_10APDUHeaderEN7openpal6RSliceE@PLT
	.p2align 4,,10
	.p2align 3
.L642:
	.cfi_restore_state
	movq	%r12, %rdx
	movq	%rbx, %rsi
	movq	%rbp, %rdi
	popq	%rbx
	.cfi_remember_state
	.cfi_def_cfa_offset 24
	popq	%rbp
	.cfi_def_cfa_offset 16
	popq	%r12
	.cfi_def_cfa_offset 8
	jmp	_ZN8opendnp38OContext19ProcessRequestNoAckERKNS_10APDUHeaderERKN7openpal6RSliceE@PLT
	.p2align 4,,10
	.p2align 3
.L640:
	.cfi_restore_state
	movq	%r12, %rdx
	movq	%rbx, %rsi
	movq	%rbp, %rdi
	popq	%rbx
	.cfi_def_cfa_offset 24
	popq	%rbp
	.cfi_def_cfa_offset 16
	popq	%r12
	.cfi_def_cfa_offset 8
	jmp	_ZN8opendnp38OContext14ProcessRequestERKNS_10APDUHeaderERKN7openpal6RSliceE@PLT
	.cfi_endproc
.LFE2921:
	.size	_ZN8opendnp38OContext11ProcessAPDUERKN7openpal6RSliceERKNS_10APDUHeaderES4_, .-_ZN8opendnp38OContext11ProcessAPDUERKN7openpal6RSliceERKNS_10APDUHeaderES4_
	.section	.rodata.str1.8
	.align 8
.LC15:
	.string	"FIR: %i FIN: %i CON: %i UNS: %i SEQ: %i FUNC: %s"
	.align 8
.LC16:
	.string	"/opt/PLC/OpenPLC_v3/utils/dnp3_src/cpp/libs/src/opendnp3/outstation/OutstationContext.cpp(437)"
	.align 8
.LC17:
	.string	"Ignoring fragment. Request must be FIR/FIN/!CON"
	.align 8
.LC18:
	.string	"/opt/PLC/OpenPLC_v3/utils/dnp3_src/cpp/libs/src/opendnp3/outstation/OutstationContext.cpp(449)"
	.text
	.align 2
	.p2align 4
	.globl	_ZN8opendnp38OContext11ParseHeaderERKN7openpal6RSliceE
	.type	_ZN8opendnp38OContext11ParseHeaderERKN7openpal6RSliceE, @function
_ZN8opendnp38OContext11ParseHeaderERKN7openpal6RSliceE:
.LFB2939:
	.cfi_startproc
	pushq	%r14
	.cfi_def_cfa_offset 16
	.cfi_offset 14, -16
	pushq	%r13
	.cfi_def_cfa_offset 24
	.cfi_offset 13, -24
	movq	%rdi, %r13
	addq	$8, %rdi
	pushq	%r12
	.cfi_def_cfa_offset 32
	.cfi_offset 12, -32
	movq	%rsi, %r12
	pushq	%rbp
	.cfi_def_cfa_offset 40
	.cfi_offset 6, -40
	pushq	%rbx
	.cfi_def_cfa_offset 48
	.cfi_offset 3, -48
	subq	$144, %rsp
	.cfi_def_cfa_offset 192
	leaq	16(%rsp), %rbp
	movl	$32768, 16(%rsp)
	movq	%rbp, %rsi
	call	_ZNK7openpal6Logger9IsEnabledERKNS_10LogFiltersE@PLT
	testb	%al, %al
	jne	.L662
.L645:
	leaq	11(%rsp), %rdi
	xorl	%r9d, %r9d
	xorl	%r8d, %r8d
	xorl	%ecx, %ecx
	movl	$1, %edx
	movl	$1, %esi
	leaq	10(%rsp), %r14
	movb	$-1, 10(%rsp)
	call	_ZN8opendnp315AppControlFieldC1Ebbbbh@PLT
	leaq	8(%r13), %rdx
	movq	%r14, %rsi
	movq	%r12, %rdi
	call	_ZN8opendnp316APDUHeaderParser12ParseRequestERKN7openpal6RSliceERNS_10APDUHeaderEPNS1_6LoggerE@PLT
	testb	%al, %al
	jne	.L663
.L644:
	addq	$144, %rsp
	.cfi_remember_state
	.cfi_def_cfa_offset 48
	popq	%rbx
	.cfi_def_cfa_offset 40
	popq	%rbp
	.cfi_def_cfa_offset 32
	popq	%r12
	.cfi_def_cfa_offset 24
	popq	%r13
	.cfi_def_cfa_offset 16
	popq	%r14
	.cfi_def_cfa_offset 8
	ret
	.p2align 4,,10
	.p2align 3
.L663:
	.cfi_restore_state
	movq	%rbp, %rsi
	leaq	8(%r13), %rdi
	movl	$2048, 16(%rsp)
	call	_ZNK7openpal6Logger9IsEnabledERKNS_10LogFiltersE@PLT
	testb	%al, %al
	jne	.L664
.L648:
	cmpb	$0, 11(%rsp)
	je	.L649
	cmpb	$0, 12(%rsp)
	je	.L649
	cmpb	$0, 13(%rsp)
	jne	.L649
	movq	%r12, %rdi
	movl	$2, %esi
	call	_ZNK7openpal6RSlice4SkipEj@PLT
	movq	%rbp, %rcx
	movq	%r12, %rsi
	movq	%r13, %rdi
	movq	%rdx, 24(%rsp)
	movq	%r14, %rdx
	movl	%eax, 16(%rsp)
	call	_ZN8opendnp38OContext11ProcessAPDUERKN7openpal6RSliceERKNS_10APDUHeaderES4_@PLT
	jmp	.L644
	.p2align 4,,10
	.p2align 3
.L649:
	movq	%rbp, %rsi
	leaq	8(%r13), %rdi
	movl	$4, 16(%rsp)
	call	_ZNK7openpal6Logger9IsEnabledERKNS_10LogFiltersE@PLT
	testb	%al, %al
	je	.L644
	movq	%rbp, %rsi
	leaq	8(%r13), %rdi
	leaq	.LC17(%rip), %rcx
	movl	$4, 16(%rsp)
	leaq	.LC18(%rip), %rdx
	call	_ZN7openpal6Logger3LogERKNS_10LogFiltersEPKcS5_@PLT
	addq	$144, %rsp
	.cfi_remember_state
	.cfi_def_cfa_offset 48
	popq	%rbx
	.cfi_def_cfa_offset 40
	popq	%rbp
	.cfi_def_cfa_offset 32
	popq	%r12
	.cfi_def_cfa_offset 24
	popq	%r13
	.cfi_def_cfa_offset 16
	popq	%r14
	.cfi_def_cfa_offset 8
	ret
	.p2align 4,,10
	.p2align 3
.L662:
	.cfi_restore_state
	movl	$18, %r8d
	movq	%r12, %rdx
	leaq	8(%r13), %rdi
	movq	%rbp, %rsi
	movl	$18, %ecx
	movl	$32768, 16(%rsp)
	call	_ZN7openpal6LogHexERNS_6LoggerERKNS_10LogFiltersERKNS_6RSliceEjj@PLT
	jmp	.L645
	.p2align 4,,10
	.p2align 3
.L664:
	movzbl	10(%rsp), %edi
	call	_ZN8opendnp320FunctionCodeToStringENS_12FunctionCodeE@PLT
	movzbl	11(%rsp), %ecx
	subq	$8, %rsp
	.cfi_def_cfa_offset 200
	movq	%rbp, %rdi
	pushq	%rax
	.cfi_def_cfa_offset 208
	movzbl	31(%rsp), %eax
	leaq	.LC15(%rip), %rdx
	movl	$120, %esi
	pushq	%rax
	.cfi_def_cfa_offset 216
	movzbl	38(%rsp), %eax
	pushq	%rax
	.cfi_def_cfa_offset 224
	movzbl	45(%rsp), %r9d
	xorl	%eax, %eax
	movzbl	44(%rsp), %r8d
	call	snprintf@PLT
	movl	$2048, 36(%rsp)
	addq	$32, %rsp
	.cfi_def_cfa_offset 192
	movq	%rbp, %rcx
	leaq	4(%rsp), %rsi
	leaq	.LC16(%rip), %rdx
	leaq	8(%r13), %rdi
	call	_ZN7openpal6Logger3LogERKNS_10LogFiltersEPKcS5_@PLT
	jmp	.L648
	.cfi_endproc
.LFE2939:
	.size	_ZN8opendnp38OContext11ParseHeaderERKN7openpal6RSliceE, .-_ZN8opendnp38OContext11ParseHeaderERKN7openpal6RSliceE
	.section	.rodata.str1.8
	.align 8
.LC19:
	.string	"ignoring received data while offline"
	.align 8
.LC20:
	.string	"/opt/PLC/OpenPLC_v3/utils/dnp3_src/cpp/libs/src/opendnp3/outstation/OutstationContext.cpp(132)"
	.text
	.align 2
	.p2align 4
	.globl	_ZN8opendnp38OContext9OnReceiveERKN7openpal6RSliceE
	.type	_ZN8opendnp38OContext9OnReceiveERKN7openpal6RSliceE, @function
_ZN8opendnp38OContext9OnReceiveERKN7openpal6RSliceE:
.LFB2918:
	.cfi_startproc
	pushq	%r14
	.cfi_def_cfa_offset 16
	.cfi_offset 14, -16
	pushq	%rbx
	.cfi_def_cfa_offset 24
	.cfi_offset 3, -24
	subq	$40, %rsp
	.cfi_def_cfa_offset 64
	movzbl	720(%rdi), %ebx
	testb	%bl, %bl
	je	.L673
	movq	%rdi, 8(%rsp)
	call	_ZN8opendnp38OContext11ParseHeaderERKN7openpal6RSliceE@PLT
	movq	8(%rsp), %rdi
	call	_ZN8opendnp38OContext17CheckForTaskStartEv@PLT
.L665:
	addq	$40, %rsp
	.cfi_remember_state
	.cfi_def_cfa_offset 24
	movl	%ebx, %eax
	popq	%rbx
	.cfi_def_cfa_offset 16
	popq	%r14
	.cfi_def_cfa_offset 8
	ret
	.p2align 4,,10
	.p2align 3
.L673:
	.cfi_restore_state
	addq	$8, %rdi
	leaq	28(%rsp), %rsi
	movl	$2, 28(%rsp)
	movq	%rsi, 8(%rsp)
	movq	%rdi, %r14
	call	_ZNK7openpal6Logger9IsEnabledERKNS_10LogFiltersE@PLT
	movq	8(%rsp), %rsi
	testb	%al, %al
	je	.L665
	movq	%r14, %rdi
	leaq	.LC19(%rip), %rcx
	leaq	.LC20(%rip), %rdx
	movl	$2, 28(%rsp)
	call	_ZN7openpal6Logger3LogERKNS_10LogFiltersEPKcS5_@PLT
	addq	$40, %rsp
	.cfi_def_cfa_offset 24
	movl	%ebx, %eax
	popq	%rbx
	.cfi_def_cfa_offset 16
	popq	%r14
	.cfi_def_cfa_offset 8
	ret
	.cfi_endproc
.LFE2918:
	.size	_ZN8opendnp38OContext9OnReceiveERKN7openpal6RSliceE, .-_ZN8opendnp38OContext9OnReceiveERKN7openpal6RSliceE
	.section	.rodata.str1.8
	.align 8
.LC21:
	.string	"Igonring command request due to oversized payload size of %i"
	.align 8
.LC22:
	.string	"/opt/PLC/OpenPLC_v3/utils/dnp3_src/cpp/libs/src/opendnp3/outstation/OutstationContext.cpp(573)"
	.section	.text.unlikely
	.align 2
.LCOLDB23:
	.text
.LHOTB23:
	.align 2
	.p2align 4
	.globl	_ZN8opendnp38OContext12HandleSelectERKN7openpal6RSliceERNS_12HeaderWriterE
	.type	_ZN8opendnp38OContext12HandleSelectERKN7openpal6RSliceERNS_12HeaderWriterE, @function
_ZN8opendnp38OContext12HandleSelectERKN7openpal6RSliceERNS_12HeaderWriterE:
.LFB2949:
	.cfi_startproc
	.cfi_personality 0x9b,DW.ref.__gxx_personality_v0
	.cfi_lsda 0x1b,.LLSDA2949
	pushq	%r14
	.cfi_def_cfa_offset 16
	.cfi_offset 14, -16
	movq	%rdx, %r14
	pushq	%r13
	.cfi_def_cfa_offset 24
	.cfi_offset 13, -24
	pushq	%r12
	.cfi_def_cfa_offset 32
	.cfi_offset 12, -32
	movq	%rsi, %r12
	pushq	%rbp
	.cfi_def_cfa_offset 40
	.cfi_offset 6, -40
	pushq	%rbx
	.cfi_def_cfa_offset 48
	.cfi_offset 3, -48
	movq	%rdi, %rbx
	movq	%rdx, %rdi
	subq	$160, %rsp
	.cfi_def_cfa_offset 208
	movl	(%rsi), %ebp
.LEHB16:
	call	_ZNK8opendnp312HeaderWriter9RemainingEv@PLT
	cmpl	%ebp, %eax
	jnb	.L675
	leaq	32(%rsp), %rbp
	leaq	8(%rbx), %rdi
	movl	$4, 32(%rsp)
	movq	%rbp, %rsi
	call	_ZNK7openpal6Logger9IsEnabledERKNS_10LogFiltersE@PLT
	testb	%al, %al
	jne	.L689
.L676:
	xorl	%eax, %eax
	movl	$10, %esi
	movq	%rbp, %rdi
	movw	%ax, 32(%rsp)
	call	_ZN8opendnp38IINField6SetBitENS_6IINBitE@PLT
	movzwl	32(%rsp), %ebx
.L686:
	addq	$160, %rsp
	.cfi_remember_state
	.cfi_def_cfa_offset 48
	movl	%ebx, %eax
	popq	%rbx
	.cfi_def_cfa_offset 40
	popq	%rbp
	.cfi_def_cfa_offset 32
	popq	%r12
	.cfi_def_cfa_offset 24
	popq	%r13
	.cfi_def_cfa_offset 16
	popq	%r14
	.cfi_def_cfa_offset 8
	ret
	.p2align 4,,10
	.p2align 3
.L675:
	.cfi_restore_state
	movq	72(%rbx), %rsi
	movl	$1, %ecx
	movl	$1, %edx
	movq	%rsp, %rdi
	leaq	32(%rsp), %rbp
	call	_ZN8opendnp320CommandActionAdapterC1EPNS_15ICommandHandlerEbNS_11OperateTypeE@PLT
.LEHE16:
	movq	%r14, %rcx
	movq	%rsp, %rdx
	movq	%rbp, %rdi
	movzbl	665(%rbx), %esi
.LEHB17:
	call	_ZN8opendnp322CommandResponseHandlerC1EhPNS_14ICommandActionEPNS_12HeaderWriterE@PLT
	leaq	8(%rbx), %rdx
	movq	%rbp, %rsi
	movq	%r12, %rdi
	movabsq	$35184372088833, %rcx
	call	_ZN8opendnp310APDUParser5ParseERKN7openpal6RSliceERNS_12IAPDUHandlerEPNS1_6LoggerENS_14ParserSettingsE@PLT
	testb	%al, %al
	jne	.L678
	movl	64(%rsp), %eax
	cmpl	%eax, 68(%rsp)
	jne	.L679
	movq	40(%rbx), %rdi
	movq	(%rdi), %rax
	call	*16(%rax)
	movq	%rax, 816(%rbx)
	movzbl	832(%rbx), %eax
	movq	%r12, %rdi
	addl	$1, %eax
	andl	$15, %eax
	movb	%al, 808(%rbx)
	call	_ZN8opendnp33CRC7CalcCrcERKN7openpal6RSliceE@PLT
	movw	%ax, 824(%rbx)
	movl	(%r12), %eax
	movl	%eax, 828(%rbx)
.L679:
	movq	%rbp, %rdi
	call	_ZNK8opendnp312IAPDUHandler6ErrorsEv@PLT
.L688:
	movq	%rsp, %rdi
	movl	%eax, %ebx
	call	_ZN8opendnp320CommandActionAdapterD1Ev@PLT
	jmp	.L686
	.p2align 4,,10
	.p2align 3
.L678:
	movl	%eax, %edi
	call	_ZN8opendnp318IINFromParseResultENS_11ParseResultE@PLT
.LEHE17:
	jmp	.L688
	.p2align 4,,10
	.p2align 3
.L689:
	movl	(%r12), %ecx
	movq	%rbp, %rdi
	leaq	.LC21(%rip), %rdx
	xorl	%eax, %eax
	movl	$120, %esi
	call	snprintf@PLT
	movq	%rsp, %rsi
	movq	%rbp, %rcx
	leaq	8(%rbx), %rdi
	leaq	.LC22(%rip), %rdx
	movl	$4, (%rsp)
.LEHB18:
	call	_ZN7openpal6Logger3LogERKNS_10LogFiltersEPKcS5_@PLT
.LEHE18:
	jmp	.L676
.L682:
	movq	%rax, %rbx
	jmp	.L681
	.section	.gcc_except_table
.LLSDA2949:
	.byte	0xff
	.byte	0xff
	.byte	0x1
	.uleb128 .LLSDACSE2949-.LLSDACSB2949
.LLSDACSB2949:
	.uleb128 .LEHB16-.LFB2949
	.uleb128 .LEHE16-.LEHB16
	.uleb128 0
	.uleb128 0
	.uleb128 .LEHB17-.LFB2949
	.uleb128 .LEHE17-.LEHB17
	.uleb128 .L682-.LFB2949
	.uleb128 0
	.uleb128 .LEHB18-.LFB2949
	.uleb128 .LEHE18-.LEHB18
	.uleb128 0
	.uleb128 0
.LLSDACSE2949:
	.text
	.cfi_endproc
	.section	.text.unlikely
	.cfi_startproc
	.cfi_personality 0x9b,DW.ref.__gxx_personality_v0
	.cfi_lsda 0x1b,.LLSDAC2949
	.type	_ZN8opendnp38OContext12HandleSelectERKN7openpal6RSliceERNS_12HeaderWriterE.cold, @function
_ZN8opendnp38OContext12HandleSelectERKN7openpal6RSliceERNS_12HeaderWriterE.cold:
.LFSB2949:
.L681:
	.cfi_def_cfa_offset 208
	.cfi_offset 3, -48
	.cfi_offset 6, -40
	.cfi_offset 12, -32
	.cfi_offset 13, -24
	.cfi_offset 14, -16
	movq	%rsp, %rdi
	call	_ZN8opendnp320CommandActionAdapterD1Ev@PLT
	movq	%rbx, %rdi
.LEHB19:
	call	_Unwind_Resume@PLT
.LEHE19:
	.cfi_endproc
.LFE2949:
	.section	.gcc_except_table
.LLSDAC2949:
	.byte	0xff
	.byte	0xff
	.byte	0x1
	.uleb128 .LLSDACSEC2949-.LLSDACSBC2949
.LLSDACSBC2949:
	.uleb128 .LEHB19-.LCOLDB23
	.uleb128 .LEHE19-.LEHB19
	.uleb128 0
	.uleb128 0
.LLSDACSEC2949:
	.section	.text.unlikely
	.text
	.size	_ZN8opendnp38OContext12HandleSelectERKN7openpal6RSliceERNS_12HeaderWriterE, .-_ZN8opendnp38OContext12HandleSelectERKN7openpal6RSliceERNS_12HeaderWriterE
	.section	.text.unlikely
	.size	_ZN8opendnp38OContext12HandleSelectERKN7openpal6RSliceERNS_12HeaderWriterE.cold, .-_ZN8opendnp38OContext12HandleSelectERKN7openpal6RSliceERNS_12HeaderWriterE.cold
.LCOLDE23:
	.text
.LHOTE23:
	.section	.rodata.str1.8
	.align 8
.LC24:
	.string	"/opt/PLC/OpenPLC_v3/utils/dnp3_src/cpp/libs/src/opendnp3/outstation/OutstationContext.cpp(603)"
	.section	.text.unlikely
	.align 2
.LCOLDB25:
	.text
.LHOTB25:
	.align 2
	.p2align 4
	.globl	_ZN8opendnp38OContext13HandleOperateERKN7openpal6RSliceERNS_12HeaderWriterE
	.type	_ZN8opendnp38OContext13HandleOperateERKN7openpal6RSliceERNS_12HeaderWriterE, @function
_ZN8opendnp38OContext13HandleOperateERKN7openpal6RSliceERNS_12HeaderWriterE:
.LFB2950:
	.cfi_startproc
	.cfi_personality 0x9b,DW.ref.__gxx_personality_v0
	.cfi_lsda 0x1b,.LLSDA2950
	pushq	%r14
	.cfi_def_cfa_offset 16
	.cfi_offset 14, -16
	pushq	%r13
	.cfi_def_cfa_offset 24
	.cfi_offset 13, -24
	pushq	%r12
	.cfi_def_cfa_offset 32
	.cfi_offset 12, -32
	movq	%rdx, %r12
	pushq	%rbp
	.cfi_def_cfa_offset 40
	.cfi_offset 6, -40
	movq	%rsi, %rbp
	pushq	%rbx
	.cfi_def_cfa_offset 48
	.cfi_offset 3, -48
	movq	%rdi, %rbx
	movq	%rdx, %rdi
	subq	$160, %rsp
	.cfi_def_cfa_offset 208
	movl	(%rsi), %r13d
.LEHB20:
	call	_ZNK8opendnp312HeaderWriter9RemainingEv@PLT
	cmpl	%r13d, %eax
	jb	.L709
	movq	40(%rbx), %rdi
	movq	(%rdi), %rax
	call	*16(%rax)
	movzbl	808(%rbx), %ecx
	cmpb	%cl, 832(%rbx)
	jne	.L694
	movq	816(%rbx), %rdx
	cmpq	%rdx, %rax
	jl	.L701
	subq	%rdx, %rax
	cmpq	672(%rbx), %rax
	jge	.L701
	movl	0(%rbp), %eax
	cmpl	%eax, 828(%rbx)
	jne	.L694
	movzwl	824(%rbx), %r13d
	movq	%rbp, %rdi
	call	_ZN8opendnp33CRC7CalcCrcERKN7openpal6RSliceE@PLT
	cmpw	%ax, %r13w
	je	.L710
	.p2align 4
	.p2align 3
.L694:
	movl	$2, %ecx
.L695:
	addq	$160, %rsp
	.cfi_remember_state
	.cfi_def_cfa_offset 48
	movq	%r12, %rdx
	movq	%rbp, %rsi
	movq	%rbx, %rdi
	popq	%rbx
	.cfi_def_cfa_offset 40
	popq	%rbp
	.cfi_def_cfa_offset 32
	popq	%r12
	.cfi_def_cfa_offset 24
	popq	%r13
	.cfi_def_cfa_offset 16
	popq	%r14
	.cfi_def_cfa_offset 8
	jmp	_ZN8opendnp38OContext25HandleCommandWithConstantERKN7openpal6RSliceERNS_12HeaderWriterENS_13CommandStatusE@PLT
	.p2align 4,,10
	.p2align 3
.L701:
	.cfi_restore_state
	movl	$1, %ecx
	jmp	.L695
	.p2align 4,,10
	.p2align 3
.L709:
	leaq	32(%rsp), %rsi
	leaq	8(%rbx), %rdi
	movl	$4, 32(%rsp)
	call	_ZNK7openpal6Logger9IsEnabledERKNS_10LogFiltersE@PLT
	testb	%al, %al
	jne	.L711
.L692:
	xorl	%eax, %eax
	movl	$10, %esi
	leaq	32(%rsp), %rdi
	movw	%ax, 32(%rsp)
	call	_ZN8opendnp38IINField6SetBitENS_6IINBitE@PLT
	movzwl	32(%rsp), %ebx
.L706:
	addq	$160, %rsp
	.cfi_remember_state
	.cfi_def_cfa_offset 48
	movl	%ebx, %eax
	popq	%rbx
	.cfi_def_cfa_offset 40
	popq	%rbp
	.cfi_def_cfa_offset 32
	popq	%r12
	.cfi_def_cfa_offset 24
	popq	%r13
	.cfi_def_cfa_offset 16
	popq	%r14
	.cfi_def_cfa_offset 8
	ret
	.p2align 4,,10
	.p2align 3
.L710:
	.cfi_restore_state
	movq	72(%rbx), %rsi
	xorl	%ecx, %ecx
	xorl	%edx, %edx
	movq	%rsp, %rdi
	call	_ZN8opendnp320CommandActionAdapterC1EPNS_15ICommandHandlerEbNS_11OperateTypeE@PLT
.LEHE20:
	movq	%r12, %rcx
	movq	%rsp, %rdx
	leaq	32(%rsp), %rdi
	movzbl	665(%rbx), %esi
.LEHB21:
	call	_ZN8opendnp322CommandResponseHandlerC1EhPNS_14ICommandActionEPNS_12HeaderWriterE@PLT
	leaq	8(%rbx), %rdx
	leaq	32(%rsp), %rsi
	movq	%rbp, %rdi
	movabsq	$35184372088833, %rcx
	call	_ZN8opendnp310APDUParser5ParseERKN7openpal6RSliceERNS_12IAPDUHandlerEPNS1_6LoggerENS_14ParserSettingsE@PLT
	testb	%al, %al
	jne	.L696
	leaq	32(%rsp), %rdi
	call	_ZNK8opendnp312IAPDUHandler6ErrorsEv@PLT
.L708:
	movq	%rsp, %rdi
	movl	%eax, %ebx
	call	_ZN8opendnp320CommandActionAdapterD1Ev@PLT
	jmp	.L706
	.p2align 4,,10
	.p2align 3
.L696:
	movl	%eax, %edi
	call	_ZN8opendnp318IINFromParseResultENS_11ParseResultE@PLT
.LEHE21:
	jmp	.L708
	.p2align 4,,10
	.p2align 3
.L711:
	movl	0(%rbp), %ecx
	leaq	32(%rsp), %rdi
	movl	$120, %esi
	xorl	%eax, %eax
	leaq	.LC21(%rip), %rdx
	call	snprintf@PLT
	movq	%rsp, %rsi
	leaq	32(%rsp), %rcx
	leaq	.LC24(%rip), %rdx
	leaq	8(%rbx), %rdi
	movl	$4, (%rsp)
.LEHB22:
	call	_ZN7openpal6Logger3LogERKNS_10LogFiltersEPKcS5_@PLT
.LEHE22:
	jmp	.L692
.L702:
	movq	%rax, %rbx
	jmp	.L699
	.section	.gcc_except_table
.LLSDA2950:
	.byte	0xff
	.byte	0xff
	.byte	0x1
	.uleb128 .LLSDACSE2950-.LLSDACSB2950
.LLSDACSB2950:
	.uleb128 .LEHB20-.LFB2950
	.uleb128 .LEHE20-.LEHB20
	.uleb128 0
	.uleb128 0
	.uleb128 .LEHB21-.LFB2950
	.uleb128 .LEHE21-.LEHB21
	.uleb128 .L702-.LFB2950
	.uleb128 0
	.uleb128 .LEHB22-.LFB2950
	.uleb128 .LEHE22-.LEHB22
	.uleb128 0
	.uleb128 0
.LLSDACSE2950:
	.text
	.cfi_endproc
	.section	.text.unlikely
	.cfi_startproc
	.cfi_personality 0x9b,DW.ref.__gxx_personality_v0
	.cfi_lsda 0x1b,.LLSDAC2950
	.type	_ZN8opendnp38OContext13HandleOperateERKN7openpal6RSliceERNS_12HeaderWriterE.cold, @function
_ZN8opendnp38OContext13HandleOperateERKN7openpal6RSliceERNS_12HeaderWriterE.cold:
.LFSB2950:
.L699:
	.cfi_def_cfa_offset 208
	.cfi_offset 3, -48
	.cfi_offset 6, -40
	.cfi_offset 12, -32
	.cfi_offset 13, -24
	.cfi_offset 14, -16
	movq	%rsp, %rdi
	call	_ZN8opendnp320CommandActionAdapterD1Ev@PLT
	movq	%rbx, %rdi
.LEHB23:
	call	_Unwind_Resume@PLT
.LEHE23:
	.cfi_endproc
.LFE2950:
	.section	.gcc_except_table
.LLSDAC2950:
	.byte	0xff
	.byte	0xff
	.byte	0x1
	.uleb128 .LLSDACSEC2950-.LLSDACSBC2950
.LLSDACSBC2950:
	.uleb128 .LEHB23-.LCOLDB25
	.uleb128 .LEHE23-.LEHB23
	.uleb128 0
	.uleb128 0
.LLSDACSEC2950:
	.section	.text.unlikely
	.text
	.size	_ZN8opendnp38OContext13HandleOperateERKN7openpal6RSliceERNS_12HeaderWriterE, .-_ZN8opendnp38OContext13HandleOperateERKN7openpal6RSliceERNS_12HeaderWriterE
	.section	.text.unlikely
	.size	_ZN8opendnp38OContext13HandleOperateERKN7openpal6RSliceERNS_12HeaderWriterE.cold, .-_ZN8opendnp38OContext13HandleOperateERKN7openpal6RSliceERNS_12HeaderWriterE.cold
.LCOLDE25:
	.text
.LHOTE25:
	.align 2
	.p2align 4
	.globl	_ZN8opendnp38OContext21HandleNonReadResponseERKNS_10APDUHeaderERKN7openpal6RSliceERNS_12HeaderWriterE
	.type	_ZN8opendnp38OContext21HandleNonReadResponseERKNS_10APDUHeaderERKN7openpal6RSliceERNS_12HeaderWriterE, @function
_ZN8opendnp38OContext21HandleNonReadResponseERKNS_10APDUHeaderERKN7openpal6RSliceERNS_12HeaderWriterE:
.LFB2945:
	.cfi_startproc
	subq	$24, %rsp
	.cfi_def_cfa_offset 32
	cmpb	$23, (%rsi)
	ja	.L713
	movzbl	(%rsi), %eax
	movq	%rdx, %r8
	leaq	.L715(%rip), %rdx
	movslq	(%rdx,%rax,4), %rax
	addq	%rdx, %rax
	jmp	*%rax
	.section	.rodata
	.align 4
	.align 4
.L715:
	.long	.L713-.L715
	.long	.L713-.L715
	.long	.L724-.L715
	.long	.L723-.L715
	.long	.L722-.L715
	.long	.L721-.L715
	.long	.L713-.L715
	.long	.L713-.L715
	.long	.L713-.L715
	.long	.L713-.L715
	.long	.L713-.L715
	.long	.L713-.L715
	.long	.L713-.L715
	.long	.L720-.L715
	.long	.L719-.L715
	.long	.L713-.L715
	.long	.L713-.L715
	.long	.L713-.L715
	.long	.L713-.L715
	.long	.L713-.L715
	.long	.L718-.L715
	.long	.L717-.L715
	.long	.L716-.L715
	.long	.L714-.L715
	.text
	.p2align 4,,10
	.p2align 3
.L713:
	xorl	%eax, %eax
	leaq	12(%rsp), %rdi
	movl	$8, %esi
	movw	%ax, 12(%rsp)
	call	_ZN8opendnp38IINField6SetBitENS_6IINBitE@PLT
	movzwl	12(%rsp), %eax
	movw	%ax, 14(%rsp)
.L725:
	addq	$24, %rsp
	.cfi_remember_state
	.cfi_def_cfa_offset 8
	ret
	.p2align 4,,10
	.p2align 3
.L724:
	.cfi_restore_state
	movq	%r8, %rsi
	call	_ZN8opendnp38OContext11HandleWriteERKN7openpal6RSliceE@PLT
	movw	%ax, 14(%rsp)
	jmp	.L725
	.p2align 4,,10
	.p2align 3
.L723:
	movq	%rcx, %rdx
	movq	%r8, %rsi
	call	_ZN8opendnp38OContext12HandleSelectERKN7openpal6RSliceERNS_12HeaderWriterE@PLT
	movw	%ax, 14(%rsp)
	jmp	.L725
	.p2align 4,,10
	.p2align 3
.L722:
	movq	%rcx, %rdx
	movq	%r8, %rsi
	call	_ZN8opendnp38OContext13HandleOperateERKN7openpal6RSliceERNS_12HeaderWriterE@PLT
	movw	%ax, 14(%rsp)
	jmp	.L725
	.p2align 4,,10
	.p2align 3
.L721:
	movl	$1, %edx
	movq	%r8, %rsi
	call	_ZN8opendnp38OContext19HandleDirectOperateERKN7openpal6RSliceENS_11OperateTypeEPNS_12HeaderWriterE@PLT
	movw	%ax, 14(%rsp)
	jmp	.L725
	.p2align 4,,10
	.p2align 3
.L720:
	xorl	%edx, %edx
	movq	%r8, %rsi
	call	_ZN8opendnp38OContext13HandleRestartERKN7openpal6RSliceEbPNS_12HeaderWriterE@PLT
	movw	%ax, 14(%rsp)
	jmp	.L725
	.p2align 4,,10
	.p2align 3
.L719:
	movl	$1, %edx
	movq	%r8, %rsi
	call	_ZN8opendnp38OContext13HandleRestartERKN7openpal6RSliceEbPNS_12HeaderWriterE@PLT
	movw	%ax, 14(%rsp)
	jmp	.L725
	.p2align 4,,10
	.p2align 3
.L718:
	cmpb	$0, 712(%rdi)
	je	.L727
	movq	%rcx, %rdx
	movq	%r8, %rsi
	call	_ZN8opendnp38OContext23HandleEnableUnsolicitedERKN7openpal6RSliceERNS_12HeaderWriterE@PLT
	movw	%ax, 14(%rsp)
	jmp	.L725
	.p2align 4,,10
	.p2align 3
.L717:
	cmpb	$0, 712(%rdi)
	jne	.L729
.L727:
	xorl	%edx, %edx
	leaq	14(%rsp), %rdi
	movl	$8, %esi
	movw	%dx, 14(%rsp)
	call	_ZN8opendnp38IINField6SetBitENS_6IINBitE@PLT
	movzwl	14(%rsp), %eax
	jmp	.L725
	.p2align 4,,10
	.p2align 3
.L716:
	movq	%r8, %rsi
	call	_ZN8opendnp38OContext17HandleAssignClassERKN7openpal6RSliceE@PLT
	movw	%ax, 14(%rsp)
	jmp	.L725
	.p2align 4,,10
	.p2align 3
.L714:
	movq	%rcx, %rdx
	movq	%r8, %rsi
	call	_ZN8opendnp38OContext18HandleDelayMeasureERKN7openpal6RSliceERNS_12HeaderWriterE@PLT
	movw	%ax, 14(%rsp)
	jmp	.L725
	.p2align 4,,10
	.p2align 3
.L729:
	movq	%rcx, %rdx
	movq	%r8, %rsi
	call	_ZN8opendnp38OContext24HandleDisableUnsolicitedERKN7openpal6RSliceERNS_12HeaderWriterE@PLT
	movw	%ax, 14(%rsp)
	jmp	.L725
	.cfi_endproc
.LFE2945:
	.size	_ZN8opendnp38OContext21HandleNonReadResponseERKNS_10APDUHeaderERKN7openpal6RSliceERNS_12HeaderWriterE, .-_ZN8opendnp38OContext21HandleNonReadResponseERKNS_10APDUHeaderERKN7openpal6RSliceERNS_12HeaderWriterE
	.align 2
	.p2align 4
	.globl	_ZN8opendnp38OContext23RespondToNonReadRequestERKNS_10APDUHeaderERKN7openpal6RSliceE
	.type	_ZN8opendnp38OContext23RespondToNonReadRequestERKNS_10APDUHeaderERKN7openpal6RSliceE, @function
_ZN8opendnp38OContext23RespondToNonReadRequestERKNS_10APDUHeaderERKN7openpal6RSliceE:
.LFB2933:
	.cfi_startproc
	pushq	%r15
	.cfi_def_cfa_offset 16
	.cfi_offset 15, -16
	movq	%rdx, %r15
	pushq	%r14
	.cfi_def_cfa_offset 24
	.cfi_offset 14, -24
	pushq	%r13
	.cfi_def_cfa_offset 32
	.cfi_offset 13, -32
	movq	%rsi, %r13
	pushq	%r12
	.cfi_def_cfa_offset 40
	.cfi_offset 12, -40
	pushq	%rbp
	.cfi_def_cfa_offset 48
	.cfi_offset 6, -48
	movq	%rdi, %rbp
	leaq	744(%rdi), %rdi
	pushq	%rbx
	.cfi_def_cfa_offset 56
	.cfi_offset 3, -56
	subq	$120, %rsp
	.cfi_def_cfa_offset 176
	call	_ZN8opendnp314RequestHistory26RecordLastProcessedRequestERKNS_10APDUHeaderERKN7openpal6RSliceE@PLT
	leaq	864(%rbp), %rdi
	call	_ZN7openpal6Buffer9GetWSliceEv@PLT
	leaq	32(%rsp), %rsi
	leaq	64(%rsp), %rdi
	movl	%eax, 32(%rsp)
	movq	%rdx, 40(%rsp)
	call	_ZN8opendnp312APDUResponseC1ERKN7openpal6WSliceE@PLT
	leaq	64(%rsp), %rsi
	leaq	32(%rsp), %rdi
	call	_ZN8opendnp311APDUWrapper9GetWriterEv@PLT
	leaq	64(%rsp), %rdi
	movl	$-127, %esi
	call	_ZN8opendnp311APDUWrapper11SetFunctionENS_12FunctionCodeE@PLT
	movzbl	5(%r13), %r9d
	xorl	%r8d, %r8d
	xorl	%ecx, %ecx
	movl	$1, %edx
	leaq	16(%rsp), %rdi
	movl	$1, %esi
	call	_ZN8opendnp315AppControlFieldC1Ebbbbh@PLT
	movq	16(%rsp), %rsi
	leaq	64(%rsp), %rdi
	call	_ZN8opendnp311APDUWrapper10SetControlENS_15AppControlFieldE@PLT
	movq	%r15, %rdx
	leaq	32(%rsp), %rcx
	movq	%r13, %rsi
	movq	%rbp, %rdi
	call	_ZN8opendnp38OContext21HandleNonReadResponseERKNS_10APDUHeaderERKN7openpal6RSliceERNS_12HeaderWriterE@PLT
	movq	%rbp, %rdi
	movl	%eax, %r13d
	call	_ZN8opendnp38OContext14GetResponseIINEv@PLT
	leaq	16(%rsp), %rsi
	leaq	64(%rsp), %rdi
	orl	%eax, %r13d
	movw	%r13w, 16(%rsp)
	call	_ZN8opendnp312APDUResponse6SetIINERKNS_8IINFieldE@PLT
	leaq	64(%rsp), %rdi
	call	_ZNK8opendnp311APDUWrapper8ToRSliceEv@PLT
	leaq	64(%rsp), %rdi
	movq	%rdx, 24(%rsp)
	movl	%eax, 16(%rsp)
	call	_ZNK8opendnp311APDUWrapper10GetControlEv@PLT
	leaq	11(%rsp), %rsi
	movq	%rbp, %rdi
	movq	%rax, %rdx
	movb	%al, 11(%rsp)
	shrq	$16, %rdx
	movb	%ah, 12(%rsp)
	movb	%dl, 13(%rsp)
	movq	%rax, %rdx
	shrq	$32, %rax
	shrq	$24, %rdx
	movb	%al, 15(%rsp)
	movb	%dl, 14(%rsp)
	leaq	16(%rsp), %rdx
	call	_ZN8opendnp38OContext15BeginResponseTxERKNS_15AppControlFieldERKN7openpal6RSliceE@PLT
	addq	$120, %rsp
	.cfi_def_cfa_offset 56
	popq	%rbx
	.cfi_def_cfa_offset 48
	popq	%rbp
	.cfi_def_cfa_offset 40
	popq	%r12
	.cfi_def_cfa_offset 32
	popq	%r13
	.cfi_def_cfa_offset 24
	popq	%r14
	.cfi_def_cfa_offset 16
	popq	%r15
	.cfi_def_cfa_offset 8
	ret
	.cfi_endproc
.LFE2933:
	.size	_ZN8opendnp38OContext23RespondToNonReadRequestERKNS_10APDUHeaderERKN7openpal6RSliceE, .-_ZN8opendnp38OContext23RespondToNonReadRequestERKNS_10APDUHeaderERKN7openpal6RSliceE
	.weak	_ZTSN8opendnp37IUpDownE
	.section	.rodata._ZTSN8opendnp37IUpDownE,"aG",@progbits,_ZTSN8opendnp37IUpDownE,comdat
	.align 16
	.type	_ZTSN8opendnp37IUpDownE, @object
	.size	_ZTSN8opendnp37IUpDownE, 20
_ZTSN8opendnp37IUpDownE:
	.string	"N8opendnp37IUpDownE"
	.weak	_ZTIN8opendnp37IUpDownE
	.section	.data.rel.ro._ZTIN8opendnp37IUpDownE,"awG",@progbits,_ZTIN8opendnp37IUpDownE,comdat
	.align 8
	.type	_ZTIN8opendnp37IUpDownE, @object
	.size	_ZTIN8opendnp37IUpDownE, 16
_ZTIN8opendnp37IUpDownE:
	.quad	_ZTVN10__cxxabiv117__class_type_infoE+16
	.quad	_ZTSN8opendnp37IUpDownE
	.weak	_ZTSN8opendnp311IUpperLayerE
	.section	.rodata._ZTSN8opendnp311IUpperLayerE,"aG",@progbits,_ZTSN8opendnp311IUpperLayerE,comdat
	.align 16
	.type	_ZTSN8opendnp311IUpperLayerE, @object
	.size	_ZTSN8opendnp311IUpperLayerE, 25
_ZTSN8opendnp311IUpperLayerE:
	.string	"N8opendnp311IUpperLayerE"
	.weak	_ZTIN8opendnp311IUpperLayerE
	.section	.data.rel.ro._ZTIN8opendnp311IUpperLayerE,"awG",@progbits,_ZTIN8opendnp311IUpperLayerE,comdat
	.align 8
	.type	_ZTIN8opendnp311IUpperLayerE, @object
	.size	_ZTIN8opendnp311IUpperLayerE, 24
_ZTIN8opendnp311IUpperLayerE:
	.quad	_ZTVN10__cxxabiv120__si_class_type_infoE+16
	.quad	_ZTSN8opendnp311IUpperLayerE
	.quad	_ZTIN8opendnp37IUpDownE
	.weak	_ZTSN8opendnp38OContextE
	.section	.rodata._ZTSN8opendnp38OContextE,"aG",@progbits,_ZTSN8opendnp38OContextE,comdat
	.align 16
	.type	_ZTSN8opendnp38OContextE, @object
	.size	_ZTSN8opendnp38OContextE, 21
_ZTSN8opendnp38OContextE:
	.string	"N8opendnp38OContextE"
	.weak	_ZTIN8opendnp38OContextE
	.section	.data.rel.ro._ZTIN8opendnp38OContextE,"awG",@progbits,_ZTIN8opendnp38OContextE,comdat
	.align 8
	.type	_ZTIN8opendnp38OContextE, @object
	.size	_ZTIN8opendnp38OContextE, 24
_ZTIN8opendnp38OContextE:
	.quad	_ZTVN10__cxxabiv120__si_class_type_infoE+16
	.quad	_ZTSN8opendnp38OContextE
	.quad	_ZTIN8opendnp311IUpperLayerE
	.weak	_ZTSN8opendnp314ICommandActionE
	.section	.rodata._ZTSN8opendnp314ICommandActionE,"aG",@progbits,_ZTSN8opendnp314ICommandActionE,comdat
	.align 16
	.type	_ZTSN8opendnp314ICommandActionE, @object
	.size	_ZTSN8opendnp314ICommandActionE, 28
_ZTSN8opendnp314ICommandActionE:
	.string	"N8opendnp314ICommandActionE"
	.weak	_ZTIN8opendnp314ICommandActionE
	.section	.data.rel.ro._ZTIN8opendnp314ICommandActionE,"awG",@progbits,_ZTIN8opendnp314ICommandActionE,comdat
	.align 8
	.type	_ZTIN8opendnp314ICommandActionE, @object
	.size	_ZTIN8opendnp314ICommandActionE, 16
_ZTIN8opendnp314ICommandActionE:
	.quad	_ZTVN10__cxxabiv117__class_type_infoE+16
	.quad	_ZTSN8opendnp314ICommandActionE
	.weak	_ZTSN8opendnp321ConstantCommandActionE
	.section	.rodata._ZTSN8opendnp321ConstantCommandActionE,"aG",@progbits,_ZTSN8opendnp321ConstantCommandActionE,comdat
	.align 32
	.type	_ZTSN8opendnp321ConstantCommandActionE, @object
	.size	_ZTSN8opendnp321ConstantCommandActionE, 35
_ZTSN8opendnp321ConstantCommandActionE:
	.string	"N8opendnp321ConstantCommandActionE"
	.weak	_ZTIN8opendnp321ConstantCommandActionE
	.section	.data.rel.ro._ZTIN8opendnp321ConstantCommandActionE,"awG",@progbits,_ZTIN8opendnp321ConstantCommandActionE,comdat
	.align 8
	.type	_ZTIN8opendnp321ConstantCommandActionE, @object
	.size	_ZTIN8opendnp321ConstantCommandActionE, 24
_ZTIN8opendnp321ConstantCommandActionE:
	.quad	_ZTVN10__cxxabiv120__si_class_type_infoE+16
	.quad	_ZTSN8opendnp321ConstantCommandActionE
	.quad	_ZTIN8opendnp314ICommandActionE
	.section	.data.rel.ro,"aw"
	.align 8
	.type	_ZTIZN7openpal8TimerRef7RestartIZN8opendnp38OContext19RestartConfirmTimerEvEUlvE_EEvRKNS_12TimeDurationERKT_EUlvE_, @object
	.size	_ZTIZN7openpal8TimerRef7RestartIZN8opendnp38OContext19RestartConfirmTimerEvEUlvE_EEvRKNS_12TimeDurationERKT_EUlvE_, 16
_ZTIZN7openpal8TimerRef7RestartIZN8opendnp38OContext19RestartConfirmTimerEvEUlvE_EEvRKNS_12TimeDurationERKT_EUlvE_:
	.quad	_ZTVN10__cxxabiv117__class_type_infoE+16
	.quad	_ZTSZN7openpal8TimerRef7RestartIZN8opendnp38OContext19RestartConfirmTimerEvEUlvE_EEvRKNS_12TimeDurationERKT_EUlvE_
	.section	.rodata
	.align 32
	.type	_ZTSZN7openpal8TimerRef7RestartIZN8opendnp38OContext19RestartConfirmTimerEvEUlvE_EEvRKNS_12TimeDurationERKT_EUlvE_, @object
	.size	_ZTSZN7openpal8TimerRef7RestartIZN8opendnp38OContext19RestartConfirmTimerEvEUlvE_EEvRKNS_12TimeDurationERKT_EUlvE_, 112
_ZTSZN7openpal8TimerRef7RestartIZN8opendnp38OContext19RestartConfirmTimerEvEUlvE_EEvRKNS_12TimeDurationERKT_EUlvE_:
	.string	"*ZN7openpal8TimerRef7RestartIZN8opendnp38OContext19RestartConfirmTimerEvEUlvE_EEvRKNS_12TimeDurationERKT_EUlvE_"
	.weak	_ZTVN8opendnp321ConstantCommandActionE
	.section	.data.rel.ro._ZTVN8opendnp321ConstantCommandActionE,"awG",@progbits,_ZTVN8opendnp321ConstantCommandActionE,comdat
	.align 8
	.type	_ZTVN8opendnp321ConstantCommandActionE, @object
	.size	_ZTVN8opendnp321ConstantCommandActionE, 72
_ZTVN8opendnp321ConstantCommandActionE:
	.quad	0
	.quad	_ZTIN8opendnp321ConstantCommandActionE
	.quad	_ZN8opendnp321ConstantCommandActionD1Ev
	.quad	_ZN8opendnp321ConstantCommandActionD0Ev
	.quad	_ZN8opendnp321ConstantCommandAction6ActionERKNS_23ControlRelayOutputBlockEt
	.quad	_ZN8opendnp321ConstantCommandAction6ActionERKNS_17AnalogOutputInt16Et
	.quad	_ZN8opendnp321ConstantCommandAction6ActionERKNS_17AnalogOutputInt32Et
	.quad	_ZN8opendnp321ConstantCommandAction6ActionERKNS_19AnalogOutputFloat32Et
	.quad	_ZN8opendnp321ConstantCommandAction6ActionERKNS_20AnalogOutputDouble64Et
	.weak	_ZTVN8opendnp38OContextE
	.section	.data.rel.ro._ZTVN8opendnp38OContextE,"awG",@progbits,_ZTVN8opendnp38OContextE,comdat
	.align 8
	.type	_ZTVN8opendnp38OContextE, @object
	.size	_ZTVN8opendnp38OContextE, 64
_ZTVN8opendnp38OContextE:
	.quad	0
	.quad	_ZTIN8opendnp38OContextE
	.quad	_ZN8opendnp38OContextD1Ev
	.quad	_ZN8opendnp38OContextD0Ev
	.quad	_ZN8opendnp38OContext14OnLowerLayerUpEv
	.quad	_ZN8opendnp38OContext16OnLowerLayerDownEv
	.quad	_ZN8opendnp38OContext9OnReceiveERKN7openpal6RSliceE
	.quad	_ZN8opendnp38OContext12OnSendResultEb
	.section	.data.rel.ro.local,"aw"
	.align 8
.LC4:
	.quad	_ZNSt17_Function_handlerIFvvEZN7openpal8TimerRef7RestartIZN8opendnp38OContext19RestartConfirmTimerEvEUlvE_EEvRKNS1_12TimeDurationERKT_EUlvE_E10_M_managerERSt9_Any_dataRKSF_St18_Manager_operation
	.hidden	DW.ref.__gxx_personality_v0
	.weak	DW.ref.__gxx_personality_v0
	.section	.data.rel.local.DW.ref.__gxx_personality_v0,"awG",@progbits,DW.ref.__gxx_personality_v0,comdat
	.align 8
	.type	DW.ref.__gxx_personality_v0, @object
	.size	DW.ref.__gxx_personality_v0, 8
DW.ref.__gxx_personality_v0:
	.quad	__gxx_personality_v0
	.globl	__gxx_personality_v0
	.ident	"GCC: (Debian 15.2.0-4) 15.2.0"
	.section	.note.GNU-stack,"",@progbits
