	.file	"SimpleCommandHandler.cpp"
	.text
	.section	.text._ZN8opendnp320SimpleCommandHandler8DoSelectERKNS_23ControlRelayOutputBlockEt,"axG",@progbits,_ZN8opendnp320SimpleCommandHandler8DoSelectERKNS_23ControlRelayOutputBlockEt,comdat
	.align 2
	.p2align 4
	.weak	_ZN8opendnp320SimpleCommandHandler8DoSelectERKNS_23ControlRelayOutputBlockEt
	.type	_ZN8opendnp320SimpleCommandHandler8DoSelectERKNS_23ControlRelayOutputBlockEt, @function
_ZN8opendnp320SimpleCommandHandler8DoSelectERKNS_23ControlRelayOutputBlockEt:
.LFB1581:
	.cfi_startproc
	ret
	.cfi_endproc
.LFE1581:
	.size	_ZN8opendnp320SimpleCommandHandler8DoSelectERKNS_23ControlRelayOutputBlockEt, .-_ZN8opendnp320SimpleCommandHandler8DoSelectERKNS_23ControlRelayOutputBlockEt
	.section	.text._ZN8opendnp320SimpleCommandHandler9DoOperateERKNS_23ControlRelayOutputBlockEtNS_11OperateTypeE,"axG",@progbits,_ZN8opendnp320SimpleCommandHandler9DoOperateERKNS_23ControlRelayOutputBlockEtNS_11OperateTypeE,comdat
	.align 2
	.p2align 4
	.weak	_ZN8opendnp320SimpleCommandHandler9DoOperateERKNS_23ControlRelayOutputBlockEtNS_11OperateTypeE
	.type	_ZN8opendnp320SimpleCommandHandler9DoOperateERKNS_23ControlRelayOutputBlockEtNS_11OperateTypeE, @function
_ZN8opendnp320SimpleCommandHandler9DoOperateERKNS_23ControlRelayOutputBlockEtNS_11OperateTypeE:
.LFB1582:
	.cfi_startproc
	ret
	.cfi_endproc
.LFE1582:
	.size	_ZN8opendnp320SimpleCommandHandler9DoOperateERKNS_23ControlRelayOutputBlockEtNS_11OperateTypeE, .-_ZN8opendnp320SimpleCommandHandler9DoOperateERKNS_23ControlRelayOutputBlockEtNS_11OperateTypeE
	.section	.text._ZN8opendnp320SimpleCommandHandler8DoSelectERKNS_17AnalogOutputInt16Et,"axG",@progbits,_ZN8opendnp320SimpleCommandHandler8DoSelectERKNS_17AnalogOutputInt16Et,comdat
	.align 2
	.p2align 4
	.weak	_ZN8opendnp320SimpleCommandHandler8DoSelectERKNS_17AnalogOutputInt16Et
	.type	_ZN8opendnp320SimpleCommandHandler8DoSelectERKNS_17AnalogOutputInt16Et, @function
_ZN8opendnp320SimpleCommandHandler8DoSelectERKNS_17AnalogOutputInt16Et:
.LFB1583:
	.cfi_startproc
	ret
	.cfi_endproc
.LFE1583:
	.size	_ZN8opendnp320SimpleCommandHandler8DoSelectERKNS_17AnalogOutputInt16Et, .-_ZN8opendnp320SimpleCommandHandler8DoSelectERKNS_17AnalogOutputInt16Et
	.section	.text._ZN8opendnp320SimpleCommandHandler9DoOperateERKNS_17AnalogOutputInt16EtNS_11OperateTypeE,"axG",@progbits,_ZN8opendnp320SimpleCommandHandler9DoOperateERKNS_17AnalogOutputInt16EtNS_11OperateTypeE,comdat
	.align 2
	.p2align 4
	.weak	_ZN8opendnp320SimpleCommandHandler9DoOperateERKNS_17AnalogOutputInt16EtNS_11OperateTypeE
	.type	_ZN8opendnp320SimpleCommandHandler9DoOperateERKNS_17AnalogOutputInt16EtNS_11OperateTypeE, @function
_ZN8opendnp320SimpleCommandHandler9DoOperateERKNS_17AnalogOutputInt16EtNS_11OperateTypeE:
.LFB1584:
	.cfi_startproc
	ret
	.cfi_endproc
.LFE1584:
	.size	_ZN8opendnp320SimpleCommandHandler9DoOperateERKNS_17AnalogOutputInt16EtNS_11OperateTypeE, .-_ZN8opendnp320SimpleCommandHandler9DoOperateERKNS_17AnalogOutputInt16EtNS_11OperateTypeE
	.section	.text._ZN8opendnp320SimpleCommandHandler8DoSelectERKNS_17AnalogOutputInt32Et,"axG",@progbits,_ZN8opendnp320SimpleCommandHandler8DoSelectERKNS_17AnalogOutputInt32Et,comdat
	.align 2
	.p2align 4
	.weak	_ZN8opendnp320SimpleCommandHandler8DoSelectERKNS_17AnalogOutputInt32Et
	.type	_ZN8opendnp320SimpleCommandHandler8DoSelectERKNS_17AnalogOutputInt32Et, @function
_ZN8opendnp320SimpleCommandHandler8DoSelectERKNS_17AnalogOutputInt32Et:
.LFB1585:
	.cfi_startproc
	ret
	.cfi_endproc
.LFE1585:
	.size	_ZN8opendnp320SimpleCommandHandler8DoSelectERKNS_17AnalogOutputInt32Et, .-_ZN8opendnp320SimpleCommandHandler8DoSelectERKNS_17AnalogOutputInt32Et
	.section	.text._ZN8opendnp320SimpleCommandHandler9DoOperateERKNS_17AnalogOutputInt32EtNS_11OperateTypeE,"axG",@progbits,_ZN8opendnp320SimpleCommandHandler9DoOperateERKNS_17AnalogOutputInt32EtNS_11OperateTypeE,comdat
	.align 2
	.p2align 4
	.weak	_ZN8opendnp320SimpleCommandHandler9DoOperateERKNS_17AnalogOutputInt32EtNS_11OperateTypeE
	.type	_ZN8opendnp320SimpleCommandHandler9DoOperateERKNS_17AnalogOutputInt32EtNS_11OperateTypeE, @function
_ZN8opendnp320SimpleCommandHandler9DoOperateERKNS_17AnalogOutputInt32EtNS_11OperateTypeE:
.LFB1586:
	.cfi_startproc
	ret
	.cfi_endproc
.LFE1586:
	.size	_ZN8opendnp320SimpleCommandHandler9DoOperateERKNS_17AnalogOutputInt32EtNS_11OperateTypeE, .-_ZN8opendnp320SimpleCommandHandler9DoOperateERKNS_17AnalogOutputInt32EtNS_11OperateTypeE
	.section	.text._ZN8opendnp320SimpleCommandHandler8DoSelectERKNS_19AnalogOutputFloat32Et,"axG",@progbits,_ZN8opendnp320SimpleCommandHandler8DoSelectERKNS_19AnalogOutputFloat32Et,comdat
	.align 2
	.p2align 4
	.weak	_ZN8opendnp320SimpleCommandHandler8DoSelectERKNS_19AnalogOutputFloat32Et
	.type	_ZN8opendnp320SimpleCommandHandler8DoSelectERKNS_19AnalogOutputFloat32Et, @function
_ZN8opendnp320SimpleCommandHandler8DoSelectERKNS_19AnalogOutputFloat32Et:
.LFB1587:
	.cfi_startproc
	ret
	.cfi_endproc
.LFE1587:
	.size	_ZN8opendnp320SimpleCommandHandler8DoSelectERKNS_19AnalogOutputFloat32Et, .-_ZN8opendnp320SimpleCommandHandler8DoSelectERKNS_19AnalogOutputFloat32Et
	.section	.text._ZN8opendnp320SimpleCommandHandler9DoOperateERKNS_19AnalogOutputFloat32EtNS_11OperateTypeE,"axG",@progbits,_ZN8opendnp320SimpleCommandHandler9DoOperateERKNS_19AnalogOutputFloat32EtNS_11OperateTypeE,comdat
	.align 2
	.p2align 4
	.weak	_ZN8opendnp320SimpleCommandHandler9DoOperateERKNS_19AnalogOutputFloat32EtNS_11OperateTypeE
	.type	_ZN8opendnp320SimpleCommandHandler9DoOperateERKNS_19AnalogOutputFloat32EtNS_11OperateTypeE, @function
_ZN8opendnp320SimpleCommandHandler9DoOperateERKNS_19AnalogOutputFloat32EtNS_11OperateTypeE:
.LFB1588:
	.cfi_startproc
	ret
	.cfi_endproc
.LFE1588:
	.size	_ZN8opendnp320SimpleCommandHandler9DoOperateERKNS_19AnalogOutputFloat32EtNS_11OperateTypeE, .-_ZN8opendnp320SimpleCommandHandler9DoOperateERKNS_19AnalogOutputFloat32EtNS_11OperateTypeE
	.section	.text._ZN8opendnp320SimpleCommandHandler8DoSelectERKNS_20AnalogOutputDouble64Et,"axG",@progbits,_ZN8opendnp320SimpleCommandHandler8DoSelectERKNS_20AnalogOutputDouble64Et,comdat
	.align 2
	.p2align 4
	.weak	_ZN8opendnp320SimpleCommandHandler8DoSelectERKNS_20AnalogOutputDouble64Et
	.type	_ZN8opendnp320SimpleCommandHandler8DoSelectERKNS_20AnalogOutputDouble64Et, @function
_ZN8opendnp320SimpleCommandHandler8DoSelectERKNS_20AnalogOutputDouble64Et:
.LFB1589:
	.cfi_startproc
	ret
	.cfi_endproc
.LFE1589:
	.size	_ZN8opendnp320SimpleCommandHandler8DoSelectERKNS_20AnalogOutputDouble64Et, .-_ZN8opendnp320SimpleCommandHandler8DoSelectERKNS_20AnalogOutputDouble64Et
	.section	.text._ZN8opendnp320SimpleCommandHandler9DoOperateERKNS_20AnalogOutputDouble64EtNS_11OperateTypeE,"axG",@progbits,_ZN8opendnp320SimpleCommandHandler9DoOperateERKNS_20AnalogOutputDouble64EtNS_11OperateTypeE,comdat
	.align 2
	.p2align 4
	.weak	_ZN8opendnp320SimpleCommandHandler9DoOperateERKNS_20AnalogOutputDouble64EtNS_11OperateTypeE
	.type	_ZN8opendnp320SimpleCommandHandler9DoOperateERKNS_20AnalogOutputDouble64EtNS_11OperateTypeE, @function
_ZN8opendnp320SimpleCommandHandler9DoOperateERKNS_20AnalogOutputDouble64EtNS_11OperateTypeE:
.LFB1590:
	.cfi_startproc
	ret
	.cfi_endproc
.LFE1590:
	.size	_ZN8opendnp320SimpleCommandHandler9DoOperateERKNS_20AnalogOutputDouble64EtNS_11OperateTypeE, .-_ZN8opendnp320SimpleCommandHandler9DoOperateERKNS_20AnalogOutputDouble64EtNS_11OperateTypeE
	.section	.text._ZN8opendnp320SimpleCommandHandlerD2Ev,"axG",@progbits,_ZN8opendnp320SimpleCommandHandlerD5Ev,comdat
	.align 2
	.p2align 4
	.weak	_ZN8opendnp320SimpleCommandHandlerD2Ev
	.type	_ZN8opendnp320SimpleCommandHandlerD2Ev, @function
_ZN8opendnp320SimpleCommandHandlerD2Ev:
.LFB1608:
	.cfi_startproc
	ret
	.cfi_endproc
.LFE1608:
	.size	_ZN8opendnp320SimpleCommandHandlerD2Ev, .-_ZN8opendnp320SimpleCommandHandlerD2Ev
	.weak	_ZN8opendnp320SimpleCommandHandlerD1Ev
	.set	_ZN8opendnp320SimpleCommandHandlerD1Ev,_ZN8opendnp320SimpleCommandHandlerD2Ev
	.text
	.align 2
	.p2align 4
	.globl	_ZN8opendnp320SimpleCommandHandler5StartEv
	.type	_ZN8opendnp320SimpleCommandHandler5StartEv, @function
_ZN8opendnp320SimpleCommandHandler5StartEv:
.LFB1632:
	.cfi_startproc
	addl	$1, 20(%rdi)
	ret
	.cfi_endproc
.LFE1632:
	.size	_ZN8opendnp320SimpleCommandHandler5StartEv, .-_ZN8opendnp320SimpleCommandHandler5StartEv
	.align 2
	.p2align 4
	.globl	_ZN8opendnp320SimpleCommandHandler3EndEv
	.type	_ZN8opendnp320SimpleCommandHandler3EndEv, @function
_ZN8opendnp320SimpleCommandHandler3EndEv:
.LFB1633:
	.cfi_startproc
	addl	$1, 24(%rdi)
	ret
	.cfi_endproc
.LFE1633:
	.size	_ZN8opendnp320SimpleCommandHandler3EndEv, .-_ZN8opendnp320SimpleCommandHandler3EndEv
	.section	.text._ZN8opendnp320SimpleCommandHandlerD0Ev,"axG",@progbits,_ZN8opendnp320SimpleCommandHandlerD5Ev,comdat
	.align 2
	.p2align 4
	.weak	_ZN8opendnp320SimpleCommandHandlerD0Ev
	.type	_ZN8opendnp320SimpleCommandHandlerD0Ev, @function
_ZN8opendnp320SimpleCommandHandlerD0Ev:
.LFB1610:
	.cfi_startproc
	movl	$32, %esi
	jmp	_ZdlPvm@PLT
	.cfi_endproc
.LFE1610:
	.size	_ZN8opendnp320SimpleCommandHandlerD0Ev, .-_ZN8opendnp320SimpleCommandHandlerD0Ev
	.text
	.align 2
	.p2align 4
	.globl	_ZN8opendnp320SimpleCommandHandler7OperateERKNS_20AnalogOutputDouble64EtNS_11OperateTypeE
	.type	_ZN8opendnp320SimpleCommandHandler7OperateERKNS_20AnalogOutputDouble64EtNS_11OperateTypeE, @function
_ZN8opendnp320SimpleCommandHandler7OperateERKNS_20AnalogOutputDouble64EtNS_11OperateTypeE:
.LFB1631:
	.cfi_startproc
	movq	(%rdi), %rax
	movq	184(%rax), %rax
	cmpq	_ZN8opendnp320SimpleCommandHandler9DoOperateERKNS_20AnalogOutputDouble64EtNS_11OperateTypeE@GOTPCREL(%rip), %rax
	jne	.L22
	addl	$1, 12(%rdi)
	movzbl	8(%rdi), %eax
	ret
	.p2align 4,,10
	.p2align 3
.L22:
	subq	$24, %rsp
	.cfi_def_cfa_offset 32
	movzwl	%dx, %edx
	movq	%rdi, 8(%rsp)
	call	*%rax
	movq	8(%rsp), %rdi
	movzbl	8(%rdi), %eax
	addl	$1, 12(%rdi)
	addq	$24, %rsp
	.cfi_def_cfa_offset 8
	ret
	.cfi_endproc
.LFE1631:
	.size	_ZN8opendnp320SimpleCommandHandler7OperateERKNS_20AnalogOutputDouble64EtNS_11OperateTypeE, .-_ZN8opendnp320SimpleCommandHandler7OperateERKNS_20AnalogOutputDouble64EtNS_11OperateTypeE
	.align 2
	.p2align 4
	.globl	_ZN8opendnp320SimpleCommandHandler6SelectERKNS_20AnalogOutputDouble64Et
	.type	_ZN8opendnp320SimpleCommandHandler6SelectERKNS_20AnalogOutputDouble64Et, @function
_ZN8opendnp320SimpleCommandHandler6SelectERKNS_20AnalogOutputDouble64Et:
.LFB1630:
	.cfi_startproc
	movq	(%rdi), %rax
	movq	176(%rax), %rax
	cmpq	_ZN8opendnp320SimpleCommandHandler8DoSelectERKNS_20AnalogOutputDouble64Et@GOTPCREL(%rip), %rax
	jne	.L29
	addl	$1, 16(%rdi)
	movzbl	8(%rdi), %eax
	ret
	.p2align 4,,10
	.p2align 3
.L29:
	subq	$24, %rsp
	.cfi_def_cfa_offset 32
	movzwl	%dx, %edx
	movq	%rdi, 8(%rsp)
	call	*%rax
	movq	8(%rsp), %rdi
	movzbl	8(%rdi), %eax
	addl	$1, 16(%rdi)
	addq	$24, %rsp
	.cfi_def_cfa_offset 8
	ret
	.cfi_endproc
.LFE1630:
	.size	_ZN8opendnp320SimpleCommandHandler6SelectERKNS_20AnalogOutputDouble64Et, .-_ZN8opendnp320SimpleCommandHandler6SelectERKNS_20AnalogOutputDouble64Et
	.align 2
	.p2align 4
	.globl	_ZN8opendnp320SimpleCommandHandler7OperateERKNS_19AnalogOutputFloat32EtNS_11OperateTypeE
	.type	_ZN8opendnp320SimpleCommandHandler7OperateERKNS_19AnalogOutputFloat32EtNS_11OperateTypeE, @function
_ZN8opendnp320SimpleCommandHandler7OperateERKNS_19AnalogOutputFloat32EtNS_11OperateTypeE:
.LFB1629:
	.cfi_startproc
	movq	(%rdi), %rax
	movq	168(%rax), %rax
	cmpq	_ZN8opendnp320SimpleCommandHandler9DoOperateERKNS_19AnalogOutputFloat32EtNS_11OperateTypeE@GOTPCREL(%rip), %rax
	jne	.L36
	addl	$1, 12(%rdi)
	movzbl	8(%rdi), %eax
	ret
	.p2align 4,,10
	.p2align 3
.L36:
	subq	$24, %rsp
	.cfi_def_cfa_offset 32
	movzwl	%dx, %edx
	movq	%rdi, 8(%rsp)
	call	*%rax
	movq	8(%rsp), %rdi
	movzbl	8(%rdi), %eax
	addl	$1, 12(%rdi)
	addq	$24, %rsp
	.cfi_def_cfa_offset 8
	ret
	.cfi_endproc
.LFE1629:
	.size	_ZN8opendnp320SimpleCommandHandler7OperateERKNS_19AnalogOutputFloat32EtNS_11OperateTypeE, .-_ZN8opendnp320SimpleCommandHandler7OperateERKNS_19AnalogOutputFloat32EtNS_11OperateTypeE
	.align 2
	.p2align 4
	.globl	_ZN8opendnp320SimpleCommandHandler6SelectERKNS_19AnalogOutputFloat32Et
	.type	_ZN8opendnp320SimpleCommandHandler6SelectERKNS_19AnalogOutputFloat32Et, @function
_ZN8opendnp320SimpleCommandHandler6SelectERKNS_19AnalogOutputFloat32Et:
.LFB1628:
	.cfi_startproc
	movq	(%rdi), %rax
	movq	160(%rax), %rax
	cmpq	_ZN8opendnp320SimpleCommandHandler8DoSelectERKNS_19AnalogOutputFloat32Et@GOTPCREL(%rip), %rax
	jne	.L43
	addl	$1, 16(%rdi)
	movzbl	8(%rdi), %eax
	ret
	.p2align 4,,10
	.p2align 3
.L43:
	subq	$24, %rsp
	.cfi_def_cfa_offset 32
	movzwl	%dx, %edx
	movq	%rdi, 8(%rsp)
	call	*%rax
	movq	8(%rsp), %rdi
	movzbl	8(%rdi), %eax
	addl	$1, 16(%rdi)
	addq	$24, %rsp
	.cfi_def_cfa_offset 8
	ret
	.cfi_endproc
.LFE1628:
	.size	_ZN8opendnp320SimpleCommandHandler6SelectERKNS_19AnalogOutputFloat32Et, .-_ZN8opendnp320SimpleCommandHandler6SelectERKNS_19AnalogOutputFloat32Et
	.align 2
	.p2align 4
	.globl	_ZN8opendnp320SimpleCommandHandler7OperateERKNS_17AnalogOutputInt32EtNS_11OperateTypeE
	.type	_ZN8opendnp320SimpleCommandHandler7OperateERKNS_17AnalogOutputInt32EtNS_11OperateTypeE, @function
_ZN8opendnp320SimpleCommandHandler7OperateERKNS_17AnalogOutputInt32EtNS_11OperateTypeE:
.LFB1627:
	.cfi_startproc
	movq	(%rdi), %rax
	movq	152(%rax), %rax
	cmpq	_ZN8opendnp320SimpleCommandHandler9DoOperateERKNS_17AnalogOutputInt32EtNS_11OperateTypeE@GOTPCREL(%rip), %rax
	jne	.L50
	addl	$1, 12(%rdi)
	movzbl	8(%rdi), %eax
	ret
	.p2align 4,,10
	.p2align 3
.L50:
	subq	$24, %rsp
	.cfi_def_cfa_offset 32
	movzwl	%dx, %edx
	movq	%rdi, 8(%rsp)
	call	*%rax
	movq	8(%rsp), %rdi
	movzbl	8(%rdi), %eax
	addl	$1, 12(%rdi)
	addq	$24, %rsp
	.cfi_def_cfa_offset 8
	ret
	.cfi_endproc
.LFE1627:
	.size	_ZN8opendnp320SimpleCommandHandler7OperateERKNS_17AnalogOutputInt32EtNS_11OperateTypeE, .-_ZN8opendnp320SimpleCommandHandler7OperateERKNS_17AnalogOutputInt32EtNS_11OperateTypeE
	.align 2
	.p2align 4
	.globl	_ZN8opendnp320SimpleCommandHandler6SelectERKNS_17AnalogOutputInt32Et
	.type	_ZN8opendnp320SimpleCommandHandler6SelectERKNS_17AnalogOutputInt32Et, @function
_ZN8opendnp320SimpleCommandHandler6SelectERKNS_17AnalogOutputInt32Et:
.LFB1626:
	.cfi_startproc
	movq	(%rdi), %rax
	movq	144(%rax), %rax
	cmpq	_ZN8opendnp320SimpleCommandHandler8DoSelectERKNS_17AnalogOutputInt32Et@GOTPCREL(%rip), %rax
	jne	.L57
	addl	$1, 16(%rdi)
	movzbl	8(%rdi), %eax
	ret
	.p2align 4,,10
	.p2align 3
.L57:
	subq	$24, %rsp
	.cfi_def_cfa_offset 32
	movzwl	%dx, %edx
	movq	%rdi, 8(%rsp)
	call	*%rax
	movq	8(%rsp), %rdi
	movzbl	8(%rdi), %eax
	addl	$1, 16(%rdi)
	addq	$24, %rsp
	.cfi_def_cfa_offset 8
	ret
	.cfi_endproc
.LFE1626:
	.size	_ZN8opendnp320SimpleCommandHandler6SelectERKNS_17AnalogOutputInt32Et, .-_ZN8opendnp320SimpleCommandHandler6SelectERKNS_17AnalogOutputInt32Et
	.align 2
	.p2align 4
	.globl	_ZN8opendnp320SimpleCommandHandler7OperateERKNS_17AnalogOutputInt16EtNS_11OperateTypeE
	.type	_ZN8opendnp320SimpleCommandHandler7OperateERKNS_17AnalogOutputInt16EtNS_11OperateTypeE, @function
_ZN8opendnp320SimpleCommandHandler7OperateERKNS_17AnalogOutputInt16EtNS_11OperateTypeE:
.LFB1625:
	.cfi_startproc
	movq	(%rdi), %rax
	movq	136(%rax), %rax
	cmpq	_ZN8opendnp320SimpleCommandHandler9DoOperateERKNS_17AnalogOutputInt16EtNS_11OperateTypeE@GOTPCREL(%rip), %rax
	jne	.L64
	addl	$1, 12(%rdi)
	movzbl	8(%rdi), %eax
	ret
	.p2align 4,,10
	.p2align 3
.L64:
	subq	$24, %rsp
	.cfi_def_cfa_offset 32
	movzwl	%dx, %edx
	movq	%rdi, 8(%rsp)
	call	*%rax
	movq	8(%rsp), %rdi
	movzbl	8(%rdi), %eax
	addl	$1, 12(%rdi)
	addq	$24, %rsp
	.cfi_def_cfa_offset 8
	ret
	.cfi_endproc
.LFE1625:
	.size	_ZN8opendnp320SimpleCommandHandler7OperateERKNS_17AnalogOutputInt16EtNS_11OperateTypeE, .-_ZN8opendnp320SimpleCommandHandler7OperateERKNS_17AnalogOutputInt16EtNS_11OperateTypeE
	.align 2
	.p2align 4
	.globl	_ZN8opendnp320SimpleCommandHandler6SelectERKNS_17AnalogOutputInt16Et
	.type	_ZN8opendnp320SimpleCommandHandler6SelectERKNS_17AnalogOutputInt16Et, @function
_ZN8opendnp320SimpleCommandHandler6SelectERKNS_17AnalogOutputInt16Et:
.LFB1624:
	.cfi_startproc
	movq	(%rdi), %rax
	movq	128(%rax), %rax
	cmpq	_ZN8opendnp320SimpleCommandHandler8DoSelectERKNS_17AnalogOutputInt16Et@GOTPCREL(%rip), %rax
	jne	.L71
	addl	$1, 16(%rdi)
	movzbl	8(%rdi), %eax
	ret
	.p2align 4,,10
	.p2align 3
.L71:
	subq	$24, %rsp
	.cfi_def_cfa_offset 32
	movzwl	%dx, %edx
	movq	%rdi, 8(%rsp)
	call	*%rax
	movq	8(%rsp), %rdi
	movzbl	8(%rdi), %eax
	addl	$1, 16(%rdi)
	addq	$24, %rsp
	.cfi_def_cfa_offset 8
	ret
	.cfi_endproc
.LFE1624:
	.size	_ZN8opendnp320SimpleCommandHandler6SelectERKNS_17AnalogOutputInt16Et, .-_ZN8opendnp320SimpleCommandHandler6SelectERKNS_17AnalogOutputInt16Et
	.align 2
	.p2align 4
	.globl	_ZN8opendnp320SimpleCommandHandler7OperateERKNS_23ControlRelayOutputBlockEtNS_11OperateTypeE
	.type	_ZN8opendnp320SimpleCommandHandler7OperateERKNS_23ControlRelayOutputBlockEtNS_11OperateTypeE, @function
_ZN8opendnp320SimpleCommandHandler7OperateERKNS_23ControlRelayOutputBlockEtNS_11OperateTypeE:
.LFB1623:
	.cfi_startproc
	movq	(%rdi), %rax
	movq	120(%rax), %rax
	cmpq	_ZN8opendnp320SimpleCommandHandler9DoOperateERKNS_23ControlRelayOutputBlockEtNS_11OperateTypeE@GOTPCREL(%rip), %rax
	jne	.L78
	addl	$1, 12(%rdi)
	movzbl	8(%rdi), %eax
	ret
	.p2align 4,,10
	.p2align 3
.L78:
	subq	$24, %rsp
	.cfi_def_cfa_offset 32
	movzwl	%dx, %edx
	movq	%rdi, 8(%rsp)
	call	*%rax
	movq	8(%rsp), %rdi
	movzbl	8(%rdi), %eax
	addl	$1, 12(%rdi)
	addq	$24, %rsp
	.cfi_def_cfa_offset 8
	ret
	.cfi_endproc
.LFE1623:
	.size	_ZN8opendnp320SimpleCommandHandler7OperateERKNS_23ControlRelayOutputBlockEtNS_11OperateTypeE, .-_ZN8opendnp320SimpleCommandHandler7OperateERKNS_23ControlRelayOutputBlockEtNS_11OperateTypeE
	.align 2
	.p2align 4
	.globl	_ZN8opendnp320SimpleCommandHandler6SelectERKNS_23ControlRelayOutputBlockEt
	.type	_ZN8opendnp320SimpleCommandHandler6SelectERKNS_23ControlRelayOutputBlockEt, @function
_ZN8opendnp320SimpleCommandHandler6SelectERKNS_23ControlRelayOutputBlockEt:
.LFB1622:
	.cfi_startproc
	movq	(%rdi), %rax
	movq	112(%rax), %rax
	cmpq	_ZN8opendnp320SimpleCommandHandler8DoSelectERKNS_23ControlRelayOutputBlockEt@GOTPCREL(%rip), %rax
	jne	.L85
	addl	$1, 16(%rdi)
	movzbl	8(%rdi), %eax
	ret
	.p2align 4,,10
	.p2align 3
.L85:
	subq	$24, %rsp
	.cfi_def_cfa_offset 32
	movzwl	%dx, %edx
	movq	%rdi, 8(%rsp)
	call	*%rax
	movq	8(%rsp), %rdi
	movzbl	8(%rdi), %eax
	addl	$1, 16(%rdi)
	addq	$24, %rsp
	.cfi_def_cfa_offset 8
	ret
	.cfi_endproc
.LFE1622:
	.size	_ZN8opendnp320SimpleCommandHandler6SelectERKNS_23ControlRelayOutputBlockEt, .-_ZN8opendnp320SimpleCommandHandler6SelectERKNS_23ControlRelayOutputBlockEt
	.align 2
	.p2align 4
	.globl	_ZN8opendnp320SimpleCommandHandlerC2ENS_13CommandStatusE
	.type	_ZN8opendnp320SimpleCommandHandlerC2ENS_13CommandStatusE, @function
_ZN8opendnp320SimpleCommandHandlerC2ENS_13CommandStatusE:
.LFB1620:
	.cfi_startproc
	movq	_ZTVN8opendnp320SimpleCommandHandlerE@GOTPCREL(%rip), %rax
	pxor	%xmm0, %xmm0
	movb	%sil, 8(%rdi)
	movups	%xmm0, 12(%rdi)
	addq	$16, %rax
	movq	%rax, (%rdi)
	ret
	.cfi_endproc
.LFE1620:
	.size	_ZN8opendnp320SimpleCommandHandlerC2ENS_13CommandStatusE, .-_ZN8opendnp320SimpleCommandHandlerC2ENS_13CommandStatusE
	.globl	_ZN8opendnp320SimpleCommandHandlerC1ENS_13CommandStatusE
	.set	_ZN8opendnp320SimpleCommandHandlerC1ENS_13CommandStatusE,_ZN8opendnp320SimpleCommandHandlerC2ENS_13CommandStatusE
	.weak	_ZTSN8opendnp313ITransactableE
	.section	.rodata._ZTSN8opendnp313ITransactableE,"aG",@progbits,_ZTSN8opendnp313ITransactableE,comdat
	.align 16
	.type	_ZTSN8opendnp313ITransactableE, @object
	.size	_ZTSN8opendnp313ITransactableE, 27
_ZTSN8opendnp313ITransactableE:
	.string	"N8opendnp313ITransactableE"
	.weak	_ZTIN8opendnp313ITransactableE
	.section	.data.rel.ro._ZTIN8opendnp313ITransactableE,"awG",@progbits,_ZTIN8opendnp313ITransactableE,comdat
	.align 8
	.type	_ZTIN8opendnp313ITransactableE, @object
	.size	_ZTIN8opendnp313ITransactableE, 16
_ZTIN8opendnp313ITransactableE:
	.quad	_ZTVN10__cxxabiv117__class_type_infoE+16
	.quad	_ZTSN8opendnp313ITransactableE
	.weak	_ZTSN8opendnp315ICommandHandlerE
	.section	.rodata._ZTSN8opendnp315ICommandHandlerE,"aG",@progbits,_ZTSN8opendnp315ICommandHandlerE,comdat
	.align 16
	.type	_ZTSN8opendnp315ICommandHandlerE, @object
	.size	_ZTSN8opendnp315ICommandHandlerE, 29
_ZTSN8opendnp315ICommandHandlerE:
	.string	"N8opendnp315ICommandHandlerE"
	.weak	_ZTIN8opendnp315ICommandHandlerE
	.section	.data.rel.ro._ZTIN8opendnp315ICommandHandlerE,"awG",@progbits,_ZTIN8opendnp315ICommandHandlerE,comdat
	.align 8
	.type	_ZTIN8opendnp315ICommandHandlerE, @object
	.size	_ZTIN8opendnp315ICommandHandlerE, 24
_ZTIN8opendnp315ICommandHandlerE:
	.quad	_ZTVN10__cxxabiv120__si_class_type_infoE+16
	.quad	_ZTSN8opendnp315ICommandHandlerE
	.quad	_ZTIN8opendnp313ITransactableE
	.weak	_ZTSN8opendnp320SimpleCommandHandlerE
	.section	.rodata._ZTSN8opendnp320SimpleCommandHandlerE,"aG",@progbits,_ZTSN8opendnp320SimpleCommandHandlerE,comdat
	.align 32
	.type	_ZTSN8opendnp320SimpleCommandHandlerE, @object
	.size	_ZTSN8opendnp320SimpleCommandHandlerE, 34
_ZTSN8opendnp320SimpleCommandHandlerE:
	.string	"N8opendnp320SimpleCommandHandlerE"
	.weak	_ZTIN8opendnp320SimpleCommandHandlerE
	.section	.data.rel.ro._ZTIN8opendnp320SimpleCommandHandlerE,"awG",@progbits,_ZTIN8opendnp320SimpleCommandHandlerE,comdat
	.align 8
	.type	_ZTIN8opendnp320SimpleCommandHandlerE, @object
	.size	_ZTIN8opendnp320SimpleCommandHandlerE, 24
_ZTIN8opendnp320SimpleCommandHandlerE:
	.quad	_ZTVN10__cxxabiv120__si_class_type_infoE+16
	.quad	_ZTSN8opendnp320SimpleCommandHandlerE
	.quad	_ZTIN8opendnp315ICommandHandlerE
	.weak	_ZTVN8opendnp320SimpleCommandHandlerE
	.section	.data.rel.ro._ZTVN8opendnp320SimpleCommandHandlerE,"awG",@progbits,_ZTVN8opendnp320SimpleCommandHandlerE,comdat
	.align 8
	.type	_ZTVN8opendnp320SimpleCommandHandlerE, @object
	.size	_ZTVN8opendnp320SimpleCommandHandlerE, 208
_ZTVN8opendnp320SimpleCommandHandlerE:
	.quad	0
	.quad	_ZTIN8opendnp320SimpleCommandHandlerE
	.quad	_ZN8opendnp320SimpleCommandHandlerD1Ev
	.quad	_ZN8opendnp320SimpleCommandHandlerD0Ev
	.quad	_ZN8opendnp320SimpleCommandHandler5StartEv
	.quad	_ZN8opendnp320SimpleCommandHandler3EndEv
	.quad	_ZN8opendnp320SimpleCommandHandler6SelectERKNS_23ControlRelayOutputBlockEt
	.quad	_ZN8opendnp320SimpleCommandHandler7OperateERKNS_23ControlRelayOutputBlockEtNS_11OperateTypeE
	.quad	_ZN8opendnp320SimpleCommandHandler6SelectERKNS_17AnalogOutputInt16Et
	.quad	_ZN8opendnp320SimpleCommandHandler7OperateERKNS_17AnalogOutputInt16EtNS_11OperateTypeE
	.quad	_ZN8opendnp320SimpleCommandHandler6SelectERKNS_17AnalogOutputInt32Et
	.quad	_ZN8opendnp320SimpleCommandHandler7OperateERKNS_17AnalogOutputInt32EtNS_11OperateTypeE
	.quad	_ZN8opendnp320SimpleCommandHandler6SelectERKNS_19AnalogOutputFloat32Et
	.quad	_ZN8opendnp320SimpleCommandHandler7OperateERKNS_19AnalogOutputFloat32EtNS_11OperateTypeE
	.quad	_ZN8opendnp320SimpleCommandHandler6SelectERKNS_20AnalogOutputDouble64Et
	.quad	_ZN8opendnp320SimpleCommandHandler7OperateERKNS_20AnalogOutputDouble64EtNS_11OperateTypeE
	.quad	_ZN8opendnp320SimpleCommandHandler8DoSelectERKNS_23ControlRelayOutputBlockEt
	.quad	_ZN8opendnp320SimpleCommandHandler9DoOperateERKNS_23ControlRelayOutputBlockEtNS_11OperateTypeE
	.quad	_ZN8opendnp320SimpleCommandHandler8DoSelectERKNS_17AnalogOutputInt16Et
	.quad	_ZN8opendnp320SimpleCommandHandler9DoOperateERKNS_17AnalogOutputInt16EtNS_11OperateTypeE
	.quad	_ZN8opendnp320SimpleCommandHandler8DoSelectERKNS_17AnalogOutputInt32Et
	.quad	_ZN8opendnp320SimpleCommandHandler9DoOperateERKNS_17AnalogOutputInt32EtNS_11OperateTypeE
	.quad	_ZN8opendnp320SimpleCommandHandler8DoSelectERKNS_19AnalogOutputFloat32Et
	.quad	_ZN8opendnp320SimpleCommandHandler9DoOperateERKNS_19AnalogOutputFloat32EtNS_11OperateTypeE
	.quad	_ZN8opendnp320SimpleCommandHandler8DoSelectERKNS_20AnalogOutputDouble64Et
	.quad	_ZN8opendnp320SimpleCommandHandler9DoOperateERKNS_20AnalogOutputDouble64EtNS_11OperateTypeE
	.ident	"GCC: (Debian 15.2.0-4) 15.2.0"
	.section	.note.GNU-stack,"",@progbits
