	.file	"StaticBuffers.cpp"
	.text
	.section	.text._ZN7openpal5ArrayIN8opendnp34CellINS1_10BinarySpecEEEtED2Ev,"axG",@progbits,_ZN7openpal5ArrayIN8opendnp34CellINS1_10BinarySpecEEEtED5Ev,comdat
	.align 2
	.p2align 4
	.weak	_ZN7openpal5ArrayIN8opendnp34CellINS1_10BinarySpecEEEtED2Ev
	.type	_ZN7openpal5ArrayIN8opendnp34CellINS1_10BinarySpecEEEtED2Ev, @function
_ZN7openpal5ArrayIN8opendnp34CellINS1_10BinarySpecEEEtED2Ev:
.LFB163:
	.cfi_startproc
	movq	16(%rdi), %rdi
	testq	%rdi, %rdi
	je	.L1
	jmp	_ZdaPv@PLT
	.p2align 4,,10
	.p2align 3
.L1:
	ret
	.cfi_endproc
.LFE163:
	.size	_ZN7openpal5ArrayIN8opendnp34CellINS1_10BinarySpecEEEtED2Ev, .-_ZN7openpal5ArrayIN8opendnp34CellINS1_10BinarySpecEEEtED2Ev
	.weak	_ZN7openpal5ArrayIN8opendnp34CellINS1_10BinarySpecEEEtED1Ev
	.set	_ZN7openpal5ArrayIN8opendnp34CellINS1_10BinarySpecEEEtED1Ev,_ZN7openpal5ArrayIN8opendnp34CellINS1_10BinarySpecEEEtED2Ev
	.section	.text._ZN7openpal5ArrayIN8opendnp34CellINS1_19DoubleBitBinarySpecEEEtED2Ev,"axG",@progbits,_ZN7openpal5ArrayIN8opendnp34CellINS1_19DoubleBitBinarySpecEEEtED5Ev,comdat
	.align 2
	.p2align 4
	.weak	_ZN7openpal5ArrayIN8opendnp34CellINS1_19DoubleBitBinarySpecEEEtED2Ev
	.type	_ZN7openpal5ArrayIN8opendnp34CellINS1_19DoubleBitBinarySpecEEEtED2Ev, @function
_ZN7openpal5ArrayIN8opendnp34CellINS1_19DoubleBitBinarySpecEEEtED2Ev:
.LFB185:
	.cfi_startproc
	movq	16(%rdi), %rdi
	testq	%rdi, %rdi
	je	.L4
	jmp	_ZdaPv@PLT
	.p2align 4,,10
	.p2align 3
.L4:
	ret
	.cfi_endproc
.LFE185:
	.size	_ZN7openpal5ArrayIN8opendnp34CellINS1_19DoubleBitBinarySpecEEEtED2Ev, .-_ZN7openpal5ArrayIN8opendnp34CellINS1_19DoubleBitBinarySpecEEEtED2Ev
	.weak	_ZN7openpal5ArrayIN8opendnp34CellINS1_19DoubleBitBinarySpecEEEtED1Ev
	.set	_ZN7openpal5ArrayIN8opendnp34CellINS1_19DoubleBitBinarySpecEEEtED1Ev,_ZN7openpal5ArrayIN8opendnp34CellINS1_19DoubleBitBinarySpecEEEtED2Ev
	.section	.text._ZN7openpal5ArrayIN8opendnp34CellINS1_10AnalogSpecEEEtED2Ev,"axG",@progbits,_ZN7openpal5ArrayIN8opendnp34CellINS1_10AnalogSpecEEEtED5Ev,comdat
	.align 2
	.p2align 4
	.weak	_ZN7openpal5ArrayIN8opendnp34CellINS1_10AnalogSpecEEEtED2Ev
	.type	_ZN7openpal5ArrayIN8opendnp34CellINS1_10AnalogSpecEEEtED2Ev, @function
_ZN7openpal5ArrayIN8opendnp34CellINS1_10AnalogSpecEEEtED2Ev:
.LFB213:
	.cfi_startproc
	movq	16(%rdi), %rdi
	testq	%rdi, %rdi
	je	.L6
	jmp	_ZdaPv@PLT
	.p2align 4,,10
	.p2align 3
.L6:
	ret
	.cfi_endproc
.LFE213:
	.size	_ZN7openpal5ArrayIN8opendnp34CellINS1_10AnalogSpecEEEtED2Ev, .-_ZN7openpal5ArrayIN8opendnp34CellINS1_10AnalogSpecEEEtED2Ev
	.weak	_ZN7openpal5ArrayIN8opendnp34CellINS1_10AnalogSpecEEEtED1Ev
	.set	_ZN7openpal5ArrayIN8opendnp34CellINS1_10AnalogSpecEEEtED1Ev,_ZN7openpal5ArrayIN8opendnp34CellINS1_10AnalogSpecEEEtED2Ev
	.section	.text._ZN7openpal5ArrayIN8opendnp34CellINS1_11CounterSpecEEEtED2Ev,"axG",@progbits,_ZN7openpal5ArrayIN8opendnp34CellINS1_11CounterSpecEEEtED5Ev,comdat
	.align 2
	.p2align 4
	.weak	_ZN7openpal5ArrayIN8opendnp34CellINS1_11CounterSpecEEEtED2Ev
	.type	_ZN7openpal5ArrayIN8opendnp34CellINS1_11CounterSpecEEEtED2Ev, @function
_ZN7openpal5ArrayIN8opendnp34CellINS1_11CounterSpecEEEtED2Ev:
.LFB241:
	.cfi_startproc
	movq	16(%rdi), %rdi
	testq	%rdi, %rdi
	je	.L8
	jmp	_ZdaPv@PLT
	.p2align 4,,10
	.p2align 3
.L8:
	ret
	.cfi_endproc
.LFE241:
	.size	_ZN7openpal5ArrayIN8opendnp34CellINS1_11CounterSpecEEEtED2Ev, .-_ZN7openpal5ArrayIN8opendnp34CellINS1_11CounterSpecEEEtED2Ev
	.weak	_ZN7openpal5ArrayIN8opendnp34CellINS1_11CounterSpecEEEtED1Ev
	.set	_ZN7openpal5ArrayIN8opendnp34CellINS1_11CounterSpecEEEtED1Ev,_ZN7openpal5ArrayIN8opendnp34CellINS1_11CounterSpecEEEtED2Ev
	.section	.text._ZN7openpal5ArrayIN8opendnp34CellINS1_17FrozenCounterSpecEEEtED2Ev,"axG",@progbits,_ZN7openpal5ArrayIN8opendnp34CellINS1_17FrozenCounterSpecEEEtED5Ev,comdat
	.align 2
	.p2align 4
	.weak	_ZN7openpal5ArrayIN8opendnp34CellINS1_17FrozenCounterSpecEEEtED2Ev
	.type	_ZN7openpal5ArrayIN8opendnp34CellINS1_17FrozenCounterSpecEEEtED2Ev, @function
_ZN7openpal5ArrayIN8opendnp34CellINS1_17FrozenCounterSpecEEEtED2Ev:
.LFB269:
	.cfi_startproc
	movq	16(%rdi), %rdi
	testq	%rdi, %rdi
	je	.L10
	jmp	_ZdaPv@PLT
	.p2align 4,,10
	.p2align 3
.L10:
	ret
	.cfi_endproc
.LFE269:
	.size	_ZN7openpal5ArrayIN8opendnp34CellINS1_17FrozenCounterSpecEEEtED2Ev, .-_ZN7openpal5ArrayIN8opendnp34CellINS1_17FrozenCounterSpecEEEtED2Ev
	.weak	_ZN7openpal5ArrayIN8opendnp34CellINS1_17FrozenCounterSpecEEEtED1Ev
	.set	_ZN7openpal5ArrayIN8opendnp34CellINS1_17FrozenCounterSpecEEEtED1Ev,_ZN7openpal5ArrayIN8opendnp34CellINS1_17FrozenCounterSpecEEEtED2Ev
	.section	.text._ZN7openpal5ArrayIN8opendnp34CellINS1_22BinaryOutputStatusSpecEEEtED2Ev,"axG",@progbits,_ZN7openpal5ArrayIN8opendnp34CellINS1_22BinaryOutputStatusSpecEEEtED5Ev,comdat
	.align 2
	.p2align 4
	.weak	_ZN7openpal5ArrayIN8opendnp34CellINS1_22BinaryOutputStatusSpecEEEtED2Ev
	.type	_ZN7openpal5ArrayIN8opendnp34CellINS1_22BinaryOutputStatusSpecEEEtED2Ev, @function
_ZN7openpal5ArrayIN8opendnp34CellINS1_22BinaryOutputStatusSpecEEEtED2Ev:
.LFB291:
	.cfi_startproc
	movq	16(%rdi), %rdi
	testq	%rdi, %rdi
	je	.L12
	jmp	_ZdaPv@PLT
	.p2align 4,,10
	.p2align 3
.L12:
	ret
	.cfi_endproc
.LFE291:
	.size	_ZN7openpal5ArrayIN8opendnp34CellINS1_22BinaryOutputStatusSpecEEEtED2Ev, .-_ZN7openpal5ArrayIN8opendnp34CellINS1_22BinaryOutputStatusSpecEEEtED2Ev
	.weak	_ZN7openpal5ArrayIN8opendnp34CellINS1_22BinaryOutputStatusSpecEEEtED1Ev
	.set	_ZN7openpal5ArrayIN8opendnp34CellINS1_22BinaryOutputStatusSpecEEEtED1Ev,_ZN7openpal5ArrayIN8opendnp34CellINS1_22BinaryOutputStatusSpecEEEtED2Ev
	.section	.text._ZN7openpal5ArrayIN8opendnp34CellINS1_22AnalogOutputStatusSpecEEEtED2Ev,"axG",@progbits,_ZN7openpal5ArrayIN8opendnp34CellINS1_22AnalogOutputStatusSpecEEEtED5Ev,comdat
	.align 2
	.p2align 4
	.weak	_ZN7openpal5ArrayIN8opendnp34CellINS1_22AnalogOutputStatusSpecEEEtED2Ev
	.type	_ZN7openpal5ArrayIN8opendnp34CellINS1_22AnalogOutputStatusSpecEEEtED2Ev, @function
_ZN7openpal5ArrayIN8opendnp34CellINS1_22AnalogOutputStatusSpecEEEtED2Ev:
.LFB319:
	.cfi_startproc
	movq	16(%rdi), %rdi
	testq	%rdi, %rdi
	je	.L14
	jmp	_ZdaPv@PLT
	.p2align 4,,10
	.p2align 3
.L14:
	ret
	.cfi_endproc
.LFE319:
	.size	_ZN7openpal5ArrayIN8opendnp34CellINS1_22AnalogOutputStatusSpecEEEtED2Ev, .-_ZN7openpal5ArrayIN8opendnp34CellINS1_22AnalogOutputStatusSpecEEEtED2Ev
	.weak	_ZN7openpal5ArrayIN8opendnp34CellINS1_22AnalogOutputStatusSpecEEEtED1Ev
	.set	_ZN7openpal5ArrayIN8opendnp34CellINS1_22AnalogOutputStatusSpecEEEtED1Ev,_ZN7openpal5ArrayIN8opendnp34CellINS1_22AnalogOutputStatusSpecEEEtED2Ev
	.section	.text._ZN7openpal5ArrayIN8opendnp34CellINS1_19TimeAndIntervalSpecEEEtED2Ev,"axG",@progbits,_ZN7openpal5ArrayIN8opendnp34CellINS1_19TimeAndIntervalSpecEEEtED5Ev,comdat
	.align 2
	.p2align 4
	.weak	_ZN7openpal5ArrayIN8opendnp34CellINS1_19TimeAndIntervalSpecEEEtED2Ev
	.type	_ZN7openpal5ArrayIN8opendnp34CellINS1_19TimeAndIntervalSpecEEEtED2Ev, @function
_ZN7openpal5ArrayIN8opendnp34CellINS1_19TimeAndIntervalSpecEEEtED2Ev:
.LFB335:
	.cfi_startproc
	movq	16(%rdi), %rdi
	testq	%rdi, %rdi
	je	.L16
	jmp	_ZdaPv@PLT
	.p2align 4,,10
	.p2align 3
.L16:
	ret
	.cfi_endproc
.LFE335:
	.size	_ZN7openpal5ArrayIN8opendnp34CellINS1_19TimeAndIntervalSpecEEEtED2Ev, .-_ZN7openpal5ArrayIN8opendnp34CellINS1_19TimeAndIntervalSpecEEEtED2Ev
	.weak	_ZN7openpal5ArrayIN8opendnp34CellINS1_19TimeAndIntervalSpecEEEtED1Ev
	.set	_ZN7openpal5ArrayIN8opendnp34CellINS1_19TimeAndIntervalSpecEEEtED1Ev,_ZN7openpal5ArrayIN8opendnp34CellINS1_19TimeAndIntervalSpecEEEtED2Ev
	.section	.text._ZN7openpal5ArrayIN8opendnp34CellINS1_10BinarySpecEEEtED0Ev,"axG",@progbits,_ZN7openpal5ArrayIN8opendnp34CellINS1_10BinarySpecEEEtED5Ev,comdat
	.align 2
	.p2align 4
	.weak	_ZN7openpal5ArrayIN8opendnp34CellINS1_10BinarySpecEEEtED0Ev
	.type	_ZN7openpal5ArrayIN8opendnp34CellINS1_10BinarySpecEEEtED0Ev, @function
_ZN7openpal5ArrayIN8opendnp34CellINS1_10BinarySpecEEEtED0Ev:
.LFB165:
	.cfi_startproc
	movq	%rdi, %rax
	movq	16(%rdi), %rdi
	testq	%rdi, %rdi
	je	.L24
	subq	$24, %rsp
	.cfi_def_cfa_offset 32
	movq	%rax, 8(%rsp)
	call	_ZdaPv@PLT
	movq	8(%rsp), %rax
	movl	$24, %esi
	addq	$24, %rsp
	.cfi_def_cfa_offset 8
	movq	%rax, %rdi
	jmp	_ZdlPvm@PLT
	.p2align 4,,10
	.p2align 3
.L24:
	movl	$24, %esi
	movq	%rax, %rdi
	jmp	_ZdlPvm@PLT
	.cfi_endproc
.LFE165:
	.size	_ZN7openpal5ArrayIN8opendnp34CellINS1_10BinarySpecEEEtED0Ev, .-_ZN7openpal5ArrayIN8opendnp34CellINS1_10BinarySpecEEEtED0Ev
	.section	.text._ZN7openpal5ArrayIN8opendnp34CellINS1_19DoubleBitBinarySpecEEEtED0Ev,"axG",@progbits,_ZN7openpal5ArrayIN8opendnp34CellINS1_19DoubleBitBinarySpecEEEtED5Ev,comdat
	.align 2
	.p2align 4
	.weak	_ZN7openpal5ArrayIN8opendnp34CellINS1_19DoubleBitBinarySpecEEEtED0Ev
	.type	_ZN7openpal5ArrayIN8opendnp34CellINS1_19DoubleBitBinarySpecEEEtED0Ev, @function
_ZN7openpal5ArrayIN8opendnp34CellINS1_19DoubleBitBinarySpecEEEtED0Ev:
.LFB187:
	.cfi_startproc
	movq	%rdi, %rax
	movq	16(%rdi), %rdi
	testq	%rdi, %rdi
	je	.L33
	subq	$24, %rsp
	.cfi_def_cfa_offset 32
	movq	%rax, 8(%rsp)
	call	_ZdaPv@PLT
	movq	8(%rsp), %rax
	movl	$24, %esi
	addq	$24, %rsp
	.cfi_def_cfa_offset 8
	movq	%rax, %rdi
	jmp	_ZdlPvm@PLT
	.p2align 4,,10
	.p2align 3
.L33:
	movl	$24, %esi
	movq	%rax, %rdi
	jmp	_ZdlPvm@PLT
	.cfi_endproc
.LFE187:
	.size	_ZN7openpal5ArrayIN8opendnp34CellINS1_19DoubleBitBinarySpecEEEtED0Ev, .-_ZN7openpal5ArrayIN8opendnp34CellINS1_19DoubleBitBinarySpecEEEtED0Ev
	.section	.text._ZN7openpal5ArrayIN8opendnp34CellINS1_10AnalogSpecEEEtED0Ev,"axG",@progbits,_ZN7openpal5ArrayIN8opendnp34CellINS1_10AnalogSpecEEEtED5Ev,comdat
	.align 2
	.p2align 4
	.weak	_ZN7openpal5ArrayIN8opendnp34CellINS1_10AnalogSpecEEEtED0Ev
	.type	_ZN7openpal5ArrayIN8opendnp34CellINS1_10AnalogSpecEEEtED0Ev, @function
_ZN7openpal5ArrayIN8opendnp34CellINS1_10AnalogSpecEEEtED0Ev:
.LFB215:
	.cfi_startproc
	movq	%rdi, %rax
	movq	16(%rdi), %rdi
	testq	%rdi, %rdi
	je	.L42
	subq	$24, %rsp
	.cfi_def_cfa_offset 32
	movq	%rax, 8(%rsp)
	call	_ZdaPv@PLT
	movq	8(%rsp), %rax
	movl	$24, %esi
	addq	$24, %rsp
	.cfi_def_cfa_offset 8
	movq	%rax, %rdi
	jmp	_ZdlPvm@PLT
	.p2align 4,,10
	.p2align 3
.L42:
	movl	$24, %esi
	movq	%rax, %rdi
	jmp	_ZdlPvm@PLT
	.cfi_endproc
.LFE215:
	.size	_ZN7openpal5ArrayIN8opendnp34CellINS1_10AnalogSpecEEEtED0Ev, .-_ZN7openpal5ArrayIN8opendnp34CellINS1_10AnalogSpecEEEtED0Ev
	.section	.text._ZN7openpal5ArrayIN8opendnp34CellINS1_11CounterSpecEEEtED0Ev,"axG",@progbits,_ZN7openpal5ArrayIN8opendnp34CellINS1_11CounterSpecEEEtED5Ev,comdat
	.align 2
	.p2align 4
	.weak	_ZN7openpal5ArrayIN8opendnp34CellINS1_11CounterSpecEEEtED0Ev
	.type	_ZN7openpal5ArrayIN8opendnp34CellINS1_11CounterSpecEEEtED0Ev, @function
_ZN7openpal5ArrayIN8opendnp34CellINS1_11CounterSpecEEEtED0Ev:
.LFB243:
	.cfi_startproc
	movq	%rdi, %rax
	movq	16(%rdi), %rdi
	testq	%rdi, %rdi
	je	.L51
	subq	$24, %rsp
	.cfi_def_cfa_offset 32
	movq	%rax, 8(%rsp)
	call	_ZdaPv@PLT
	movq	8(%rsp), %rax
	movl	$24, %esi
	addq	$24, %rsp
	.cfi_def_cfa_offset 8
	movq	%rax, %rdi
	jmp	_ZdlPvm@PLT
	.p2align 4,,10
	.p2align 3
.L51:
	movl	$24, %esi
	movq	%rax, %rdi
	jmp	_ZdlPvm@PLT
	.cfi_endproc
.LFE243:
	.size	_ZN7openpal5ArrayIN8opendnp34CellINS1_11CounterSpecEEEtED0Ev, .-_ZN7openpal5ArrayIN8opendnp34CellINS1_11CounterSpecEEEtED0Ev
	.section	.text._ZN7openpal5ArrayIN8opendnp34CellINS1_17FrozenCounterSpecEEEtED0Ev,"axG",@progbits,_ZN7openpal5ArrayIN8opendnp34CellINS1_17FrozenCounterSpecEEEtED5Ev,comdat
	.align 2
	.p2align 4
	.weak	_ZN7openpal5ArrayIN8opendnp34CellINS1_17FrozenCounterSpecEEEtED0Ev
	.type	_ZN7openpal5ArrayIN8opendnp34CellINS1_17FrozenCounterSpecEEEtED0Ev, @function
_ZN7openpal5ArrayIN8opendnp34CellINS1_17FrozenCounterSpecEEEtED0Ev:
.LFB271:
	.cfi_startproc
	movq	%rdi, %rax
	movq	16(%rdi), %rdi
	testq	%rdi, %rdi
	je	.L60
	subq	$24, %rsp
	.cfi_def_cfa_offset 32
	movq	%rax, 8(%rsp)
	call	_ZdaPv@PLT
	movq	8(%rsp), %rax
	movl	$24, %esi
	addq	$24, %rsp
	.cfi_def_cfa_offset 8
	movq	%rax, %rdi
	jmp	_ZdlPvm@PLT
	.p2align 4,,10
	.p2align 3
.L60:
	movl	$24, %esi
	movq	%rax, %rdi
	jmp	_ZdlPvm@PLT
	.cfi_endproc
.LFE271:
	.size	_ZN7openpal5ArrayIN8opendnp34CellINS1_17FrozenCounterSpecEEEtED0Ev, .-_ZN7openpal5ArrayIN8opendnp34CellINS1_17FrozenCounterSpecEEEtED0Ev
	.section	.text._ZN7openpal5ArrayIN8opendnp34CellINS1_22BinaryOutputStatusSpecEEEtED0Ev,"axG",@progbits,_ZN7openpal5ArrayIN8opendnp34CellINS1_22BinaryOutputStatusSpecEEEtED5Ev,comdat
	.align 2
	.p2align 4
	.weak	_ZN7openpal5ArrayIN8opendnp34CellINS1_22BinaryOutputStatusSpecEEEtED0Ev
	.type	_ZN7openpal5ArrayIN8opendnp34CellINS1_22BinaryOutputStatusSpecEEEtED0Ev, @function
_ZN7openpal5ArrayIN8opendnp34CellINS1_22BinaryOutputStatusSpecEEEtED0Ev:
.LFB293:
	.cfi_startproc
	movq	%rdi, %rax
	movq	16(%rdi), %rdi
	testq	%rdi, %rdi
	je	.L69
	subq	$24, %rsp
	.cfi_def_cfa_offset 32
	movq	%rax, 8(%rsp)
	call	_ZdaPv@PLT
	movq	8(%rsp), %rax
	movl	$24, %esi
	addq	$24, %rsp
	.cfi_def_cfa_offset 8
	movq	%rax, %rdi
	jmp	_ZdlPvm@PLT
	.p2align 4,,10
	.p2align 3
.L69:
	movl	$24, %esi
	movq	%rax, %rdi
	jmp	_ZdlPvm@PLT
	.cfi_endproc
.LFE293:
	.size	_ZN7openpal5ArrayIN8opendnp34CellINS1_22BinaryOutputStatusSpecEEEtED0Ev, .-_ZN7openpal5ArrayIN8opendnp34CellINS1_22BinaryOutputStatusSpecEEEtED0Ev
	.section	.text._ZN7openpal5ArrayIN8opendnp34CellINS1_22AnalogOutputStatusSpecEEEtED0Ev,"axG",@progbits,_ZN7openpal5ArrayIN8opendnp34CellINS1_22AnalogOutputStatusSpecEEEtED5Ev,comdat
	.align 2
	.p2align 4
	.weak	_ZN7openpal5ArrayIN8opendnp34CellINS1_22AnalogOutputStatusSpecEEEtED0Ev
	.type	_ZN7openpal5ArrayIN8opendnp34CellINS1_22AnalogOutputStatusSpecEEEtED0Ev, @function
_ZN7openpal5ArrayIN8opendnp34CellINS1_22AnalogOutputStatusSpecEEEtED0Ev:
.LFB321:
	.cfi_startproc
	movq	%rdi, %rax
	movq	16(%rdi), %rdi
	testq	%rdi, %rdi
	je	.L78
	subq	$24, %rsp
	.cfi_def_cfa_offset 32
	movq	%rax, 8(%rsp)
	call	_ZdaPv@PLT
	movq	8(%rsp), %rax
	movl	$24, %esi
	addq	$24, %rsp
	.cfi_def_cfa_offset 8
	movq	%rax, %rdi
	jmp	_ZdlPvm@PLT
	.p2align 4,,10
	.p2align 3
.L78:
	movl	$24, %esi
	movq	%rax, %rdi
	jmp	_ZdlPvm@PLT
	.cfi_endproc
.LFE321:
	.size	_ZN7openpal5ArrayIN8opendnp34CellINS1_22AnalogOutputStatusSpecEEEtED0Ev, .-_ZN7openpal5ArrayIN8opendnp34CellINS1_22AnalogOutputStatusSpecEEEtED0Ev
	.section	.text._ZN7openpal5ArrayIN8opendnp34CellINS1_19TimeAndIntervalSpecEEEtED0Ev,"axG",@progbits,_ZN7openpal5ArrayIN8opendnp34CellINS1_19TimeAndIntervalSpecEEEtED5Ev,comdat
	.align 2
	.p2align 4
	.weak	_ZN7openpal5ArrayIN8opendnp34CellINS1_19TimeAndIntervalSpecEEEtED0Ev
	.type	_ZN7openpal5ArrayIN8opendnp34CellINS1_19TimeAndIntervalSpecEEEtED0Ev, @function
_ZN7openpal5ArrayIN8opendnp34CellINS1_19TimeAndIntervalSpecEEEtED0Ev:
.LFB337:
	.cfi_startproc
	movq	%rdi, %rax
	movq	16(%rdi), %rdi
	testq	%rdi, %rdi
	je	.L87
	subq	$24, %rsp
	.cfi_def_cfa_offset 32
	movq	%rax, 8(%rsp)
	call	_ZdaPv@PLT
	movq	8(%rsp), %rax
	movl	$24, %esi
	addq	$24, %rsp
	.cfi_def_cfa_offset 8
	movq	%rax, %rdi
	jmp	_ZdlPvm@PLT
	.p2align 4,,10
	.p2align 3
.L87:
	movl	$24, %esi
	movq	%rax, %rdi
	jmp	_ZdlPvm@PLT
	.cfi_endproc
.LFE337:
	.size	_ZN7openpal5ArrayIN8opendnp34CellINS1_19TimeAndIntervalSpecEEEtED0Ev, .-_ZN7openpal5ArrayIN8opendnp34CellINS1_19TimeAndIntervalSpecEEEtED0Ev
	.text
	.align 2
	.p2align 4
	.globl	_ZNK8opendnp313StaticBuffers7GetViewEv
	.type	_ZNK8opendnp313StaticBuffers7GetViewEv, @function
_ZNK8opendnp313StaticBuffers7GetViewEv:
.LFB119:
	.cfi_startproc
	pushq	%r15
	.cfi_def_cfa_offset 16
	.cfi_offset 15, -16
	pushq	%r14
	.cfi_def_cfa_offset 24
	.cfi_offset 14, -24
	pushq	%r13
	.cfi_def_cfa_offset 32
	.cfi_offset 13, -32
	pushq	%r12
	.cfi_def_cfa_offset 40
	.cfi_offset 12, -40
	pushq	%rbp
	.cfi_def_cfa_offset 48
	.cfi_offset 6, -48
	movq	%rsi, %rbp
	pushq	%rbx
	.cfi_def_cfa_offset 56
	.cfi_offset 3, -56
	subq	$40, %rsp
	.cfi_def_cfa_offset 96
	movzwl	176(%rsi), %ecx
	movzwl	104(%rsi), %r12d
	movq	%rdi, 24(%rsp)
	movq	184(%rsi), %rbx
	movzwl	152(%rsi), %r8d
	movq	160(%rsi), %r9
	movzwl	128(%rsi), %r10d
	movq	136(%rsi), %r11
	movq	112(%rsi), %r13
	movzwl	80(%rsi), %r14d
	movq	88(%rsi), %r15
	movzwl	56(%rsi), %eax
	movq	64(%rsi), %rdi
	movzwl	32(%rsi), %esi
	movq	%rax, (%rsp)
	movzwl	8(%rbp), %eax
	movq	%rdi, 8(%rsp)
	movq	40(%rbp), %rdi
	movq	16(%rbp), %rdx
	pushq	%rbx
	.cfi_def_cfa_offset 104
	movl	%esi, %ebp
	movl	%eax, %esi
	pushq	%rcx
	.cfi_def_cfa_offset 112
	movl	%ebp, %ecx
	pushq	%r9
	.cfi_def_cfa_offset 120
	pushq	%r8
	.cfi_def_cfa_offset 128
	movq	%rdi, %r8
	pushq	%r11
	.cfi_def_cfa_offset 136
	pushq	%r10
	.cfi_def_cfa_offset 144
	pushq	%r13
	.cfi_def_cfa_offset 152
	pushq	%r12
	.cfi_def_cfa_offset 160
	pushq	%r15
	.cfi_def_cfa_offset 168
	pushq	%r14
	.cfi_def_cfa_offset 176
	pushq	88(%rsp)
	.cfi_def_cfa_offset 184
	pushq	88(%rsp)
	.cfi_def_cfa_offset 192
	movq	120(%rsp), %rbx
	movq	%rbx, %rdi
	call	_ZN8opendnp318DatabaseConfigViewC1EN7openpal9ArrayViewINS_4CellINS_10BinarySpecEEEtEENS2_INS3_INS_19DoubleBitBinarySpecEEEtEENS2_INS3_INS_10AnalogSpecEEEtEENS2_INS3_INS_11CounterSpecEEEtEENS2_INS3_INS_17FrozenCounterSpecEEEtEENS2_INS3_INS_22BinaryOutputStatusSpecEEEtEENS2_INS3_INS_22AnalogOutputStatusSpecEEEtEENS2_INS3_INS_19TimeAndIntervalSpecEEEtEE@PLT
	addq	$136, %rsp
	.cfi_def_cfa_offset 56
	movq	%rbx, %rax
	popq	%rbx
	.cfi_def_cfa_offset 48
	popq	%rbp
	.cfi_def_cfa_offset 40
	popq	%r12
	.cfi_def_cfa_offset 32
	popq	%r13
	.cfi_def_cfa_offset 24
	popq	%r14
	.cfi_def_cfa_offset 16
	popq	%r15
	.cfi_def_cfa_offset 8
	ret
	.cfi_endproc
.LFE119:
	.size	_ZNK8opendnp313StaticBuffers7GetViewEv, .-_ZNK8opendnp313StaticBuffers7GetViewEv
	.align 2
	.p2align 4
	.globl	_ZN8opendnp313StaticBuffers12GetArrayViewINS_10BinarySpecEEEN7openpal9ArrayViewINS_4CellIT_EEtEEv
	.type	_ZN8opendnp313StaticBuffers12GetArrayViewINS_10BinarySpecEEEN7openpal9ArrayViewINS_4CellIT_EEtEEv, @function
_ZN8opendnp313StaticBuffers12GetArrayViewINS_10BinarySpecEEEN7openpal9ArrayViewINS_4CellIT_EEtEEv:
.LFB120:
	.cfi_startproc
	movzwl	8(%rdi), %edx
	movq	16(%rdi), %rcx
	movl	%edx, %eax
	movq	%rcx, %rdx
	ret
	.cfi_endproc
.LFE120:
	.size	_ZN8opendnp313StaticBuffers12GetArrayViewINS_10BinarySpecEEEN7openpal9ArrayViewINS_4CellIT_EEtEEv, .-_ZN8opendnp313StaticBuffers12GetArrayViewINS_10BinarySpecEEEN7openpal9ArrayViewINS_4CellIT_EEtEEv
	.align 2
	.p2align 4
	.globl	_ZN8opendnp313StaticBuffers12GetArrayViewINS_19DoubleBitBinarySpecEEEN7openpal9ArrayViewINS_4CellIT_EEtEEv
	.type	_ZN8opendnp313StaticBuffers12GetArrayViewINS_19DoubleBitBinarySpecEEEN7openpal9ArrayViewINS_4CellIT_EEtEEv, @function
_ZN8opendnp313StaticBuffers12GetArrayViewINS_19DoubleBitBinarySpecEEEN7openpal9ArrayViewINS_4CellIT_EEtEEv:
.LFB121:
	.cfi_startproc
	movzwl	32(%rdi), %edx
	movq	40(%rdi), %rcx
	movl	%edx, %eax
	movq	%rcx, %rdx
	ret
	.cfi_endproc
.LFE121:
	.size	_ZN8opendnp313StaticBuffers12GetArrayViewINS_19DoubleBitBinarySpecEEEN7openpal9ArrayViewINS_4CellIT_EEtEEv, .-_ZN8opendnp313StaticBuffers12GetArrayViewINS_19DoubleBitBinarySpecEEEN7openpal9ArrayViewINS_4CellIT_EEtEEv
	.align 2
	.p2align 4
	.globl	_ZN8opendnp313StaticBuffers12GetArrayViewINS_11CounterSpecEEEN7openpal9ArrayViewINS_4CellIT_EEtEEv
	.type	_ZN8opendnp313StaticBuffers12GetArrayViewINS_11CounterSpecEEEN7openpal9ArrayViewINS_4CellIT_EEtEEv, @function
_ZN8opendnp313StaticBuffers12GetArrayViewINS_11CounterSpecEEEN7openpal9ArrayViewINS_4CellIT_EEtEEv:
.LFB122:
	.cfi_startproc
	movzwl	80(%rdi), %edx
	movq	88(%rdi), %rcx
	movl	%edx, %eax
	movq	%rcx, %rdx
	ret
	.cfi_endproc
.LFE122:
	.size	_ZN8opendnp313StaticBuffers12GetArrayViewINS_11CounterSpecEEEN7openpal9ArrayViewINS_4CellIT_EEtEEv, .-_ZN8opendnp313StaticBuffers12GetArrayViewINS_11CounterSpecEEEN7openpal9ArrayViewINS_4CellIT_EEtEEv
	.align 2
	.p2align 4
	.globl	_ZN8opendnp313StaticBuffers12GetArrayViewINS_17FrozenCounterSpecEEEN7openpal9ArrayViewINS_4CellIT_EEtEEv
	.type	_ZN8opendnp313StaticBuffers12GetArrayViewINS_17FrozenCounterSpecEEEN7openpal9ArrayViewINS_4CellIT_EEtEEv, @function
_ZN8opendnp313StaticBuffers12GetArrayViewINS_17FrozenCounterSpecEEEN7openpal9ArrayViewINS_4CellIT_EEtEEv:
.LFB123:
	.cfi_startproc
	movzwl	104(%rdi), %edx
	movq	112(%rdi), %rcx
	movl	%edx, %eax
	movq	%rcx, %rdx
	ret
	.cfi_endproc
.LFE123:
	.size	_ZN8opendnp313StaticBuffers12GetArrayViewINS_17FrozenCounterSpecEEEN7openpal9ArrayViewINS_4CellIT_EEtEEv, .-_ZN8opendnp313StaticBuffers12GetArrayViewINS_17FrozenCounterSpecEEEN7openpal9ArrayViewINS_4CellIT_EEtEEv
	.align 2
	.p2align 4
	.globl	_ZN8opendnp313StaticBuffers12GetArrayViewINS_10AnalogSpecEEEN7openpal9ArrayViewINS_4CellIT_EEtEEv
	.type	_ZN8opendnp313StaticBuffers12GetArrayViewINS_10AnalogSpecEEEN7openpal9ArrayViewINS_4CellIT_EEtEEv, @function
_ZN8opendnp313StaticBuffers12GetArrayViewINS_10AnalogSpecEEEN7openpal9ArrayViewINS_4CellIT_EEtEEv:
.LFB124:
	.cfi_startproc
	movzwl	56(%rdi), %edx
	movq	64(%rdi), %rcx
	movl	%edx, %eax
	movq	%rcx, %rdx
	ret
	.cfi_endproc
.LFE124:
	.size	_ZN8opendnp313StaticBuffers12GetArrayViewINS_10AnalogSpecEEEN7openpal9ArrayViewINS_4CellIT_EEtEEv, .-_ZN8opendnp313StaticBuffers12GetArrayViewINS_10AnalogSpecEEEN7openpal9ArrayViewINS_4CellIT_EEtEEv
	.align 2
	.p2align 4
	.globl	_ZN8opendnp313StaticBuffers12GetArrayViewINS_22BinaryOutputStatusSpecEEEN7openpal9ArrayViewINS_4CellIT_EEtEEv
	.type	_ZN8opendnp313StaticBuffers12GetArrayViewINS_22BinaryOutputStatusSpecEEEN7openpal9ArrayViewINS_4CellIT_EEtEEv, @function
_ZN8opendnp313StaticBuffers12GetArrayViewINS_22BinaryOutputStatusSpecEEEN7openpal9ArrayViewINS_4CellIT_EEtEEv:
.LFB125:
	.cfi_startproc
	movzwl	128(%rdi), %edx
	movq	136(%rdi), %rcx
	movl	%edx, %eax
	movq	%rcx, %rdx
	ret
	.cfi_endproc
.LFE125:
	.size	_ZN8opendnp313StaticBuffers12GetArrayViewINS_22BinaryOutputStatusSpecEEEN7openpal9ArrayViewINS_4CellIT_EEtEEv, .-_ZN8opendnp313StaticBuffers12GetArrayViewINS_22BinaryOutputStatusSpecEEEN7openpal9ArrayViewINS_4CellIT_EEtEEv
	.align 2
	.p2align 4
	.globl	_ZN8opendnp313StaticBuffers12GetArrayViewINS_22AnalogOutputStatusSpecEEEN7openpal9ArrayViewINS_4CellIT_EEtEEv
	.type	_ZN8opendnp313StaticBuffers12GetArrayViewINS_22AnalogOutputStatusSpecEEEN7openpal9ArrayViewINS_4CellIT_EEtEEv, @function
_ZN8opendnp313StaticBuffers12GetArrayViewINS_22AnalogOutputStatusSpecEEEN7openpal9ArrayViewINS_4CellIT_EEtEEv:
.LFB126:
	.cfi_startproc
	movzwl	152(%rdi), %edx
	movq	160(%rdi), %rcx
	movl	%edx, %eax
	movq	%rcx, %rdx
	ret
	.cfi_endproc
.LFE126:
	.size	_ZN8opendnp313StaticBuffers12GetArrayViewINS_22AnalogOutputStatusSpecEEEN7openpal9ArrayViewINS_4CellIT_EEtEEv, .-_ZN8opendnp313StaticBuffers12GetArrayViewINS_22AnalogOutputStatusSpecEEEN7openpal9ArrayViewINS_4CellIT_EEtEEv
	.align 2
	.p2align 4
	.globl	_ZN8opendnp313StaticBuffers12GetArrayViewINS_19TimeAndIntervalSpecEEEN7openpal9ArrayViewINS_4CellIT_EEtEEv
	.type	_ZN8opendnp313StaticBuffers12GetArrayViewINS_19TimeAndIntervalSpecEEEN7openpal9ArrayViewINS_4CellIT_EEtEEv, @function
_ZN8opendnp313StaticBuffers12GetArrayViewINS_19TimeAndIntervalSpecEEEN7openpal9ArrayViewINS_4CellIT_EEtEEv:
.LFB127:
	.cfi_startproc
	movzwl	176(%rdi), %edx
	movq	184(%rdi), %rcx
	movl	%edx, %eax
	movq	%rcx, %rdx
	ret
	.cfi_endproc
.LFE127:
	.size	_ZN8opendnp313StaticBuffers12GetArrayViewINS_19TimeAndIntervalSpecEEEN7openpal9ArrayViewINS_4CellIT_EEtEEv, .-_ZN8opendnp313StaticBuffers12GetArrayViewINS_19TimeAndIntervalSpecEEEN7openpal9ArrayViewINS_4CellIT_EEtEEv
	.section	.text.unlikely,"ax",@progbits
	.align 2
.LCOLDB6:
	.text
.LHOTB6:
	.align 2
	.p2align 4
	.globl	_ZN8opendnp313StaticBuffersC2ERKNS_13DatabaseSizesE
	.type	_ZN8opendnp313StaticBuffersC2ERKNS_13DatabaseSizesE, @function
_ZN8opendnp313StaticBuffersC2ERKNS_13DatabaseSizesE:
.LFB117:
	.cfi_startproc
	.cfi_personality 0x9b,DW.ref.__gxx_personality_v0
	.cfi_lsda 0x1b,.LLSDA117
	pushq	%r15
	.cfi_def_cfa_offset 16
	.cfi_offset 15, -16
	pushq	%r14
	.cfi_def_cfa_offset 24
	.cfi_offset 14, -24
	pushq	%r13
	.cfi_def_cfa_offset 32
	.cfi_offset 13, -32
	pushq	%r12
	.cfi_def_cfa_offset 40
	.cfi_offset 12, -40
	movq	%rsi, %r12
	pushq	%rbp
	.cfi_def_cfa_offset 48
	.cfi_offset 6, -48
	movq	%rdi, %rbp
	pushq	%rbx
	.cfi_def_cfa_offset 56
	.cfi_offset 3, -56
	subq	$8, %rsp
	.cfi_def_cfa_offset 64
	movq	_ZTVN7openpal5ArrayIN8opendnp34CellINS1_10BinarySpecEEEtEE@GOTPCREL(%rip), %rax
	movzwl	(%rsi), %ebx
	addq	$16, %rax
	movw	%bx, 8(%rdi)
	movq	%rax, (%rdi)
	imulq	$112, %rbx, %rdi
.LEHB0:
	call	_Znam@PLT
.LEHE0:
	movq	%rax, %r15
	testq	%rbx, %rbx
	je	.L101
	movzwl	.LC0(%rip), %r14d
	leaq	-1(%rbx), %r13
	movq	%rax, %rbx
	.p2align 4
	.p2align 3
.L102:
	movl	$14, %ecx
	xorl	%eax, %eax
	movq	%rbx, %rdi
	rep stosq
	movq	%rbx, %rdi
.LEHB1:
	call	_ZN8opendnp36BinaryC1Ev@PLT
	xorl	%r10d, %r10d
	movw	%r14w, 26(%rbx)
	leaq	40(%rbx), %rdi
	movw	%r10w, 24(%rbx)
	movb	$0, 28(%rbx)
	movb	$2, 32(%rbx)
	call	_ZN8opendnp36BinaryC1Ev@PLT
	movb	$0, 64(%rbx)
	leaq	80(%rbx), %rdi
	movb	$0, 72(%rbx)
	call	_ZN8opendnp36BinaryC1Ev@PLT
.LEHE1:
	movb	$1, 104(%rbx)
	addq	$112, %rbx
	subq	$1, %r13
	jnb	.L102
.L101:
	movq	_ZTVN7openpal5ArrayIN8opendnp34CellINS1_19DoubleBitBinarySpecEEEtEE@GOTPCREL(%rip), %rax
	movzwl	2(%r12), %ebx
	movq	%r15, 16(%rbp)
	addq	$16, %rax
	movw	%bx, 32(%rbp)
	imulq	$112, %rbx, %rdi
	movq	%rax, 24(%rbp)
.LEHB2:
	call	_Znam@PLT
.LEHE2:
	movq	%rax, %r15
	leaq	-1(%rbx), %r13
	testq	%rbx, %rbx
	je	.L105
	movzwl	.LC1(%rip), %r14d
	movq	%rax, %rbx
	.p2align 4
	.p2align 3
.L106:
	movl	$14, %ecx
	xorl	%eax, %eax
	movq	%rbx, %rdi
	rep stosq
	movq	%rbx, %rdi
.LEHB3:
	call	_ZN8opendnp315DoubleBitBinaryC1Ev@PLT
	xorl	%r9d, %r9d
	movw	%r14w, 26(%rbx)
	leaq	40(%rbx), %rdi
	movw	%r9w, 24(%rbx)
	movb	$0, 28(%rbx)
	movb	$2, 32(%rbx)
	call	_ZN8opendnp315DoubleBitBinaryC1Ev@PLT
	movb	$0, 64(%rbx)
	leaq	80(%rbx), %rdi
	movb	$0, 72(%rbx)
	call	_ZN8opendnp315DoubleBitBinaryC1Ev@PLT
.LEHE3:
	movb	$0, 104(%rbx)
	addq	$112, %rbx
	subq	$1, %r13
	jnb	.L106
.L105:
	movq	_ZTVN7openpal5ArrayIN8opendnp34CellINS1_10AnalogSpecEEEtEE@GOTPCREL(%rip), %rax
	movzwl	4(%r12), %ebx
	movq	%r15, %xmm0
	addq	$16, %rax
	movw	%bx, 56(%rbp)
	imulq	$120, %rbx, %rdi
	movq	%rax, %xmm2
	punpcklqdq	%xmm2, %xmm0
	movups	%xmm0, 40(%rbp)
.LEHB4:
	call	_Znam@PLT
.LEHE4:
	movq	%rax, %r15
	leaq	-1(%rbx), %r13
	testq	%rbx, %rbx
	je	.L110
	movzwl	.LC1(%rip), %r14d
	movq	%rax, %rbx
	.p2align 4
	.p2align 3
.L111:
	movl	$15, %ecx
	xorl	%eax, %eax
	movq	%rbx, %rdi
	rep stosq
	movq	%rbx, %rdi
.LEHB5:
	call	_ZN8opendnp36AnalogC1Ev@PLT
	xorl	%r8d, %r8d
	movb	$0, 28(%rbx)
	leaq	48(%rbx), %rdi
	movw	%r8w, 24(%rbx)
	movw	%r14w, 26(%rbx)
	movq	$0x000000000, 32(%rbx)
	movb	$2, 40(%rbx)
	call	_ZN8opendnp36AnalogC1Ev@PLT
	movb	$0, 72(%rbx)
	leaq	88(%rbx), %rdi
	movb	$0, 80(%rbx)
	call	_ZN8opendnp36AnalogC1Ev@PLT
.LEHE5:
	movb	$0, 112(%rbx)
	addq	$120, %rbx
	subq	$1, %r13
	jnb	.L111
.L110:
	movq	_ZTVN7openpal5ArrayIN8opendnp34CellINS1_11CounterSpecEEEtEE@GOTPCREL(%rip), %rax
	movzwl	6(%r12), %ebx
	movq	%r15, %xmm0
	addq	$16, %rax
	movw	%bx, 80(%rbp)
	imulq	$120, %rbx, %rdi
	movq	%rax, %xmm3
	punpcklqdq	%xmm3, %xmm0
	movups	%xmm0, 64(%rbp)
.LEHB6:
	call	_Znam@PLT
.LEHE6:
	movq	%rax, %r15
	leaq	-1(%rbx), %r13
	testq	%rbx, %rbx
	je	.L115
	movzwl	.LC1(%rip), %r14d
	movq	%rax, %rbx
	.p2align 4
	.p2align 3
.L116:
	movl	$15, %ecx
	xorl	%eax, %eax
	movq	%rbx, %rdi
	rep stosq
	movq	%rbx, %rdi
.LEHB7:
	call	_ZN8opendnp37CounterC1Ev@PLT
	xorl	%edi, %edi
	movw	%r14w, 26(%rbx)
	movw	%di, 24(%rbx)
	leaq	48(%rbx), %rdi
	movb	$0, 28(%rbx)
	movl	$0, 32(%rbx)
	movb	$2, 40(%rbx)
	call	_ZN8opendnp37CounterC1Ev@PLT
	movb	$0, 72(%rbx)
	leaq	88(%rbx), %rdi
	movb	$0, 80(%rbx)
	call	_ZN8opendnp37CounterC1Ev@PLT
.LEHE7:
	movb	$0, 112(%rbx)
	addq	$120, %rbx
	subq	$1, %r13
	jnb	.L116
.L115:
	movq	_ZTVN7openpal5ArrayIN8opendnp34CellINS1_17FrozenCounterSpecEEEtEE@GOTPCREL(%rip), %rax
	movzwl	8(%r12), %ebx
	movq	%r15, %xmm0
	addq	$16, %rax
	movw	%bx, 104(%rbp)
	imulq	$120, %rbx, %rdi
	movq	%rax, %xmm4
	punpcklqdq	%xmm4, %xmm0
	movups	%xmm0, 88(%rbp)
.LEHB8:
	call	_Znam@PLT
.LEHE8:
	movq	%rax, %r15
	leaq	-1(%rbx), %r13
	testq	%rbx, %rbx
	je	.L120
	movzwl	.LC1(%rip), %r14d
	movq	%rax, %rbx
	.p2align 4
	.p2align 3
.L121:
	movl	$15, %ecx
	xorl	%eax, %eax
	movq	%rbx, %rdi
	rep stosq
	movq	%rbx, %rdi
.LEHB9:
	call	_ZN8opendnp313FrozenCounterC1Ev@PLT
	xorl	%esi, %esi
	movw	%r14w, 26(%rbx)
	leaq	48(%rbx), %rdi
	movw	%si, 24(%rbx)
	movb	$0, 28(%rbx)
	movl	$0, 32(%rbx)
	movb	$2, 40(%rbx)
	call	_ZN8opendnp313FrozenCounterC1Ev@PLT
	movb	$0, 72(%rbx)
	leaq	88(%rbx), %rdi
	movb	$0, 80(%rbx)
	call	_ZN8opendnp313FrozenCounterC1Ev@PLT
.LEHE9:
	movb	$0, 112(%rbx)
	addq	$120, %rbx
	subq	$1, %r13
	jnb	.L121
.L120:
	movq	_ZTVN7openpal5ArrayIN8opendnp34CellINS1_22BinaryOutputStatusSpecEEEtEE@GOTPCREL(%rip), %rax
	movzwl	10(%r12), %ebx
	movq	%r15, %xmm0
	addq	$16, %rax
	movw	%bx, 128(%rbp)
	imulq	$112, %rbx, %rdi
	movq	%rax, %xmm5
	punpcklqdq	%xmm5, %xmm0
	movups	%xmm0, 112(%rbp)
.LEHB10:
	call	_Znam@PLT
.LEHE10:
	movq	%rax, %r15
	leaq	-1(%rbx), %r13
	testq	%rbx, %rbx
	je	.L125
	movzwl	.LC1(%rip), %r14d
	movq	%rax, %rbx
	.p2align 4
	.p2align 3
.L126:
	movl	$14, %ecx
	xorl	%eax, %eax
	movq	%rbx, %rdi
	rep stosq
	movq	%rbx, %rdi
.LEHB11:
	call	_ZN8opendnp318BinaryOutputStatusC1Ev@PLT
	xorl	%ecx, %ecx
	movw	%r14w, 26(%rbx)
	leaq	40(%rbx), %rdi
	movw	%cx, 24(%rbx)
	movb	$0, 28(%rbx)
	movb	$2, 32(%rbx)
	call	_ZN8opendnp318BinaryOutputStatusC1Ev@PLT
	movb	$0, 64(%rbx)
	leaq	80(%rbx), %rdi
	movb	$0, 72(%rbx)
	call	_ZN8opendnp318BinaryOutputStatusC1Ev@PLT
.LEHE11:
	movb	$0, 104(%rbx)
	addq	$112, %rbx
	subq	$1, %r13
	jnb	.L126
.L125:
	movq	_ZTVN7openpal5ArrayIN8opendnp34CellINS1_22AnalogOutputStatusSpecEEEtEE@GOTPCREL(%rip), %rax
	movzwl	12(%r12), %ebx
	movq	%r15, %xmm0
	addq	$16, %rax
	movw	%bx, 152(%rbp)
	imulq	$120, %rbx, %rdi
	movq	%rax, %xmm6
	punpcklqdq	%xmm6, %xmm0
	movups	%xmm0, 136(%rbp)
.LEHB12:
	call	_Znam@PLT
.LEHE12:
	movq	%rax, %r15
	leaq	-1(%rbx), %r13
	testq	%rbx, %rbx
	je	.L130
	movzwl	.LC1(%rip), %r14d
	movq	%rax, %rbx
	.p2align 4
	.p2align 3
.L131:
	movl	$15, %ecx
	xorl	%eax, %eax
	movq	%rbx, %rdi
	rep stosq
	movq	%rbx, %rdi
.LEHB13:
	call	_ZN8opendnp318AnalogOutputStatusC1Ev@PLT
	xorl	%edx, %edx
	movb	$0, 28(%rbx)
	leaq	48(%rbx), %rdi
	movw	%dx, 24(%rbx)
	movw	%r14w, 26(%rbx)
	movq	$0x000000000, 32(%rbx)
	movb	$2, 40(%rbx)
	call	_ZN8opendnp318AnalogOutputStatusC1Ev@PLT
	movb	$0, 72(%rbx)
	leaq	88(%rbx), %rdi
	movb	$0, 80(%rbx)
	call	_ZN8opendnp318AnalogOutputStatusC1Ev@PLT
.LEHE13:
	movb	$0, 112(%rbx)
	addq	$120, %rbx
	subq	$1, %r13
	jnb	.L131
.L130:
	movq	_ZTVN7openpal5ArrayIN8opendnp34CellINS1_19TimeAndIntervalSpecEEEtEE@GOTPCREL(%rip), %rax
	movzwl	14(%r12), %ebx
	movq	%r15, %xmm0
	addq	$16, %rax
	movw	%bx, 176(%rbp)
	imulq	$56, %rbx, %rdi
	movq	%rax, %xmm7
	punpcklqdq	%xmm7, %xmm0
	movups	%xmm0, 160(%rbp)
.LEHB14:
	call	_Znam@PLT
.LEHE14:
	movq	%rax, %r13
	leaq	-1(%rbx), %r12
	testq	%rbx, %rbx
	je	.L135
	movq	%rax, %rbx
	.p2align 4
	.p2align 3
.L136:
	movq	$0, 48(%rbx)
	pxor	%xmm1, %xmm1
	movq	%rbx, %rdi
	movups	%xmm1, (%rbx)
	movups	%xmm1, 16(%rbx)
	movups	%xmm1, 32(%rbx)
.LEHB15:
	call	_ZN8opendnp315TimeAndIntervalC1Ev@PLT
	xorl	%eax, %eax
	movb	$0, 18(%rbx)
	leaq	32(%rbx), %rdi
	movw	%ax, 16(%rbx)
	movb	$0, 24(%rbx)
	call	_ZN8opendnp315TimeAndIntervalC1Ev@PLT
.LEHE15:
	movb	$0, 48(%rbx)
	addq	$56, %rbx
	subq	$1, %r12
	jnb	.L136
.L135:
	movq	%r13, 184(%rbp)
	movq	%rbp, %rdi
.LEHB16:
	call	_ZN8opendnp313StaticBuffers12GetArrayViewINS_10BinarySpecEEEN7openpal9ArrayViewINS_4CellIT_EEtEEv@PLT
	movl	%eax, %ecx
	addq	$24, %rdx
	xorl	%eax, %eax
	testw	%cx, %cx
	je	.L138
	.p2align 4
	.p2align 4
	.p2align 3
.L141:
	movw	%ax, (%rdx)
	addl	$1, %eax
	addq	$112, %rdx
	cmpw	%cx, %ax
	jne	.L141
.L138:
	movq	%rbp, %rdi
	call	_ZN8opendnp313StaticBuffers12GetArrayViewINS_19DoubleBitBinarySpecEEEN7openpal9ArrayViewINS_4CellIT_EEtEEv@PLT
	movl	%eax, %ecx
	testw	%ax, %ax
	je	.L142
	addq	$24, %rdx
	xorl	%eax, %eax
	.p2align 4
	.p2align 4
	.p2align 3
.L143:
	movw	%ax, (%rdx)
	addl	$1, %eax
	addq	$112, %rdx
	cmpw	%cx, %ax
	jne	.L143
.L142:
	movq	%rbp, %rdi
	call	_ZN8opendnp313StaticBuffers12GetArrayViewINS_11CounterSpecEEEN7openpal9ArrayViewINS_4CellIT_EEtEEv@PLT
	movl	%eax, %ecx
	testw	%ax, %ax
	je	.L144
	addq	$24, %rdx
	xorl	%eax, %eax
	.p2align 4
	.p2align 4
	.p2align 3
.L145:
	movw	%ax, (%rdx)
	addl	$1, %eax
	addq	$120, %rdx
	cmpw	%cx, %ax
	jne	.L145
.L144:
	movq	%rbp, %rdi
	call	_ZN8opendnp313StaticBuffers12GetArrayViewINS_17FrozenCounterSpecEEEN7openpal9ArrayViewINS_4CellIT_EEtEEv@PLT
	movl	%eax, %ecx
	testw	%ax, %ax
	je	.L146
	addq	$24, %rdx
	xorl	%eax, %eax
	.p2align 4
	.p2align 4
	.p2align 3
.L147:
	movw	%ax, (%rdx)
	addl	$1, %eax
	addq	$120, %rdx
	cmpw	%ax, %cx
	jne	.L147
.L146:
	movq	%rbp, %rdi
	call	_ZN8opendnp313StaticBuffers12GetArrayViewINS_10AnalogSpecEEEN7openpal9ArrayViewINS_4CellIT_EEtEEv@PLT
	movl	%eax, %ecx
	testw	%ax, %ax
	je	.L148
	addq	$24, %rdx
	xorl	%eax, %eax
	.p2align 4
	.p2align 4
	.p2align 3
.L149:
	movw	%ax, (%rdx)
	addl	$1, %eax
	addq	$120, %rdx
	cmpw	%cx, %ax
	jne	.L149
.L148:
	movq	%rbp, %rdi
	call	_ZN8opendnp313StaticBuffers12GetArrayViewINS_22BinaryOutputStatusSpecEEEN7openpal9ArrayViewINS_4CellIT_EEtEEv@PLT
	movl	%eax, %ecx
	testw	%ax, %ax
	je	.L150
	addq	$24, %rdx
	xorl	%eax, %eax
	.p2align 4
	.p2align 4
	.p2align 3
.L151:
	movw	%ax, (%rdx)
	addl	$1, %eax
	addq	$112, %rdx
	cmpw	%ax, %cx
	jne	.L151
.L150:
	movq	%rbp, %rdi
	call	_ZN8opendnp313StaticBuffers12GetArrayViewINS_22AnalogOutputStatusSpecEEEN7openpal9ArrayViewINS_4CellIT_EEtEEv@PLT
	movl	%eax, %ecx
	testw	%ax, %ax
	je	.L152
	addq	$24, %rdx
	xorl	%eax, %eax
	.p2align 4
	.p2align 4
	.p2align 3
.L153:
	movw	%ax, (%rdx)
	addl	$1, %eax
	addq	$120, %rdx
	cmpw	%cx, %ax
	jne	.L153
.L152:
	movq	%rbp, %rdi
	call	_ZN8opendnp313StaticBuffers12GetArrayViewINS_19TimeAndIntervalSpecEEEN7openpal9ArrayViewINS_4CellIT_EEtEEv@PLT
.LEHE16:
	movl	%eax, %ecx
	testw	%ax, %ax
	je	.L183
	addq	$16, %rdx
	xorl	%eax, %eax
	.p2align 4
	.p2align 4
	.p2align 3
.L155:
	movw	%ax, (%rdx)
	addl	$1, %eax
	addq	$56, %rdx
	cmpw	%ax, %cx
	jne	.L155
.L183:
	addq	$8, %rsp
	.cfi_remember_state
	.cfi_def_cfa_offset 56
	popq	%rbx
	.cfi_def_cfa_offset 48
	popq	%rbp
	.cfi_def_cfa_offset 40
	popq	%r12
	.cfi_def_cfa_offset 32
	popq	%r13
	.cfi_def_cfa_offset 24
	popq	%r14
	.cfi_def_cfa_offset 16
	popq	%r15
	.cfi_def_cfa_offset 8
	ret
.L175:
	.cfi_restore_state
	movq	%rax, %rbx
	jmp	.L104
.L173:
	movq	%rax, %rbx
	jmp	.L156
.L181:
	movq	%rax, %rbx
	jmp	.L139
.L172:
	movq	%rax, %rbx
	jmp	.L140
.L180:
	movq	%rax, %rbx
	jmp	.L133
.L171:
	movq	%rax, %rbx
	jmp	.L134
.L179:
	movq	%rax, %rbx
	jmp	.L128
.L170:
	movq	%rax, %rbx
	jmp	.L129
.L178:
	movq	%rax, %rbx
	jmp	.L123
.L169:
	movq	%rax, %rbx
	jmp	.L124
.L177:
	movq	%rax, %rbx
	jmp	.L118
.L168:
	movq	%rax, %rbx
	jmp	.L119
.L176:
	movq	%rax, %rbx
	jmp	.L113
.L167:
	movq	%rax, %rbx
	jmp	.L114
.L174:
	movq	%rax, %rbx
	jmp	.L108
.L182:
	movq	%rax, %rbx
	jmp	.L164
	.section	.gcc_except_table,"a",@progbits
.LLSDA117:
	.byte	0xff
	.byte	0xff
	.byte	0x1
	.uleb128 .LLSDACSE117-.LLSDACSB117
.LLSDACSB117:
	.uleb128 .LEHB0-.LFB117
	.uleb128 .LEHE0-.LEHB0
	.uleb128 0
	.uleb128 0
	.uleb128 .LEHB1-.LFB117
	.uleb128 .LEHE1-.LEHB1
	.uleb128 .L175-.LFB117
	.uleb128 0
	.uleb128 .LEHB2-.LFB117
	.uleb128 .LEHE2-.LEHB2
	.uleb128 .L182-.LFB117
	.uleb128 0
	.uleb128 .LEHB3-.LFB117
	.uleb128 .LEHE3-.LEHB3
	.uleb128 .L174-.LFB117
	.uleb128 0
	.uleb128 .LEHB4-.LFB117
	.uleb128 .LEHE4-.LEHB4
	.uleb128 .L167-.LFB117
	.uleb128 0
	.uleb128 .LEHB5-.LFB117
	.uleb128 .LEHE5-.LEHB5
	.uleb128 .L176-.LFB117
	.uleb128 0
	.uleb128 .LEHB6-.LFB117
	.uleb128 .LEHE6-.LEHB6
	.uleb128 .L168-.LFB117
	.uleb128 0
	.uleb128 .LEHB7-.LFB117
	.uleb128 .LEHE7-.LEHB7
	.uleb128 .L177-.LFB117
	.uleb128 0
	.uleb128 .LEHB8-.LFB117
	.uleb128 .LEHE8-.LEHB8
	.uleb128 .L169-.LFB117
	.uleb128 0
	.uleb128 .LEHB9-.LFB117
	.uleb128 .LEHE9-.LEHB9
	.uleb128 .L178-.LFB117
	.uleb128 0
	.uleb128 .LEHB10-.LFB117
	.uleb128 .LEHE10-.LEHB10
	.uleb128 .L170-.LFB117
	.uleb128 0
	.uleb128 .LEHB11-.LFB117
	.uleb128 .LEHE11-.LEHB11
	.uleb128 .L179-.LFB117
	.uleb128 0
	.uleb128 .LEHB12-.LFB117
	.uleb128 .LEHE12-.LEHB12
	.uleb128 .L171-.LFB117
	.uleb128 0
	.uleb128 .LEHB13-.LFB117
	.uleb128 .LEHE13-.LEHB13
	.uleb128 .L180-.LFB117
	.uleb128 0
	.uleb128 .LEHB14-.LFB117
	.uleb128 .LEHE14-.LEHB14
	.uleb128 .L172-.LFB117
	.uleb128 0
	.uleb128 .LEHB15-.LFB117
	.uleb128 .LEHE15-.LEHB15
	.uleb128 .L181-.LFB117
	.uleb128 0
	.uleb128 .LEHB16-.LFB117
	.uleb128 .LEHE16-.LEHB16
	.uleb128 .L173-.LFB117
	.uleb128 0
.LLSDACSE117:
	.text
	.cfi_endproc
	.section	.text.unlikely
	.cfi_startproc
	.cfi_personality 0x9b,DW.ref.__gxx_personality_v0
	.cfi_lsda 0x1b,.LLSDAC117
	.type	_ZN8opendnp313StaticBuffersC2ERKNS_13DatabaseSizesE.cold, @function
_ZN8opendnp313StaticBuffersC2ERKNS_13DatabaseSizesE.cold:
.LFSB117:
.L104:
	.cfi_def_cfa_offset 64
	.cfi_offset 3, -56
	.cfi_offset 6, -48
	.cfi_offset 12, -40
	.cfi_offset 13, -32
	.cfi_offset 14, -24
	.cfi_offset 15, -16
	movq	%r15, %rdi
	call	_ZdaPv@PLT
	movq	%rbx, %rdi
.LEHB17:
	call	_Unwind_Resume@PLT
.L156:
	movq	184(%rbp), %rdi
	testq	%rdi, %rdi
	je	.L140
	call	_ZdaPv@PLT
	jmp	.L140
.L139:
	movq	%r13, %rdi
	call	_ZdaPv@PLT
.L140:
	movq	160(%rbp), %rdi
	testq	%rdi, %rdi
	je	.L134
	call	_ZdaPv@PLT
.L134:
	movq	136(%rbp), %rdi
	testq	%rdi, %rdi
	je	.L129
	call	_ZdaPv@PLT
.L129:
	movq	112(%rbp), %rdi
	testq	%rdi, %rdi
	je	.L124
	call	_ZdaPv@PLT
.L124:
	movq	88(%rbp), %rdi
	testq	%rdi, %rdi
	je	.L119
	call	_ZdaPv@PLT
.L119:
	movq	64(%rbp), %rdi
	testq	%rdi, %rdi
	je	.L114
	call	_ZdaPv@PLT
.L114:
	movq	40(%rbp), %rdi
	testq	%rdi, %rdi
	je	.L109
	call	_ZdaPv@PLT
.L109:
	movq	16(%rbp), %rdi
	testq	%rdi, %rdi
	je	.L166
.L165:
	call	_ZdaPv@PLT
.L166:
	movq	%rbx, %rdi
	call	_Unwind_Resume@PLT
.LEHE17:
.L133:
	movq	%r15, %rdi
	call	_ZdaPv@PLT
	jmp	.L134
.L128:
	movq	%r15, %rdi
	call	_ZdaPv@PLT
	jmp	.L129
.L123:
	movq	%r15, %rdi
	call	_ZdaPv@PLT
	jmp	.L124
.L118:
	movq	%r15, %rdi
	call	_ZdaPv@PLT
	jmp	.L119
.L113:
	movq	%r15, %rdi
	call	_ZdaPv@PLT
	jmp	.L114
.L108:
	movq	%r15, %rdi
	call	_ZdaPv@PLT
	jmp	.L109
.L164:
	movq	16(%rbp), %rdi
	jmp	.L165
	.cfi_endproc
.LFE117:
	.section	.gcc_except_table
.LLSDAC117:
	.byte	0xff
	.byte	0xff
	.byte	0x1
	.uleb128 .LLSDACSEC117-.LLSDACSBC117
.LLSDACSBC117:
	.uleb128 .LEHB17-.LCOLDB6
	.uleb128 .LEHE17-.LEHB17
	.uleb128 0
	.uleb128 0
.LLSDACSEC117:
	.section	.text.unlikely
	.text
	.size	_ZN8opendnp313StaticBuffersC2ERKNS_13DatabaseSizesE, .-_ZN8opendnp313StaticBuffersC2ERKNS_13DatabaseSizesE
	.section	.text.unlikely
	.size	_ZN8opendnp313StaticBuffersC2ERKNS_13DatabaseSizesE.cold, .-_ZN8opendnp313StaticBuffersC2ERKNS_13DatabaseSizesE.cold
.LCOLDE6:
	.text
.LHOTE6:
	.globl	_ZN8opendnp313StaticBuffersC1ERKNS_13DatabaseSizesE
	.set	_ZN8opendnp313StaticBuffersC1ERKNS_13DatabaseSizesE,_ZN8opendnp313StaticBuffersC2ERKNS_13DatabaseSizesE
	.weak	_ZTSN7openpal7HasSizeItEE
	.section	.rodata._ZTSN7openpal7HasSizeItEE,"aG",@progbits,_ZTSN7openpal7HasSizeItEE,comdat
	.align 16
	.type	_ZTSN7openpal7HasSizeItEE, @object
	.size	_ZTSN7openpal7HasSizeItEE, 22
_ZTSN7openpal7HasSizeItEE:
	.string	"N7openpal7HasSizeItEE"
	.weak	_ZTIN7openpal7HasSizeItEE
	.section	.data.rel.ro._ZTIN7openpal7HasSizeItEE,"awG",@progbits,_ZTIN7openpal7HasSizeItEE,comdat
	.align 8
	.type	_ZTIN7openpal7HasSizeItEE, @object
	.size	_ZTIN7openpal7HasSizeItEE, 16
_ZTIN7openpal7HasSizeItEE:
	.quad	_ZTVN10__cxxabiv117__class_type_infoE+16
	.quad	_ZTSN7openpal7HasSizeItEE
	.weak	_ZTSN7openpal5ArrayIN8opendnp34CellINS1_10BinarySpecEEEtEE
	.section	.rodata._ZTSN7openpal5ArrayIN8opendnp34CellINS1_10BinarySpecEEEtEE,"aG",@progbits,_ZTSN7openpal5ArrayIN8opendnp34CellINS1_10BinarySpecEEEtEE,comdat
	.align 32
	.type	_ZTSN7openpal5ArrayIN8opendnp34CellINS1_10BinarySpecEEEtEE, @object
	.size	_ZTSN7openpal5ArrayIN8opendnp34CellINS1_10BinarySpecEEEtEE, 55
_ZTSN7openpal5ArrayIN8opendnp34CellINS1_10BinarySpecEEEtEE:
	.string	"N7openpal5ArrayIN8opendnp34CellINS1_10BinarySpecEEEtEE"
	.weak	_ZTIN7openpal5ArrayIN8opendnp34CellINS1_10BinarySpecEEEtEE
	.section	.data.rel.ro._ZTIN7openpal5ArrayIN8opendnp34CellINS1_10BinarySpecEEEtEE,"awG",@progbits,_ZTIN7openpal5ArrayIN8opendnp34CellINS1_10BinarySpecEEEtEE,comdat
	.align 8
	.type	_ZTIN7openpal5ArrayIN8opendnp34CellINS1_10BinarySpecEEEtEE, @object
	.size	_ZTIN7openpal5ArrayIN8opendnp34CellINS1_10BinarySpecEEEtEE, 40
_ZTIN7openpal5ArrayIN8opendnp34CellINS1_10BinarySpecEEEtEE:
	.quad	_ZTVN10__cxxabiv121__vmi_class_type_infoE+16
	.quad	_ZTSN7openpal5ArrayIN8opendnp34CellINS1_10BinarySpecEEEtEE
	.long	0
	.long	1
	.quad	_ZTIN7openpal7HasSizeItEE
	.quad	2050
	.weak	_ZTSN7openpal5ArrayIN8opendnp34CellINS1_19DoubleBitBinarySpecEEEtEE
	.section	.rodata._ZTSN7openpal5ArrayIN8opendnp34CellINS1_19DoubleBitBinarySpecEEEtEE,"aG",@progbits,_ZTSN7openpal5ArrayIN8opendnp34CellINS1_19DoubleBitBinarySpecEEEtEE,comdat
	.align 32
	.type	_ZTSN7openpal5ArrayIN8opendnp34CellINS1_19DoubleBitBinarySpecEEEtEE, @object
	.size	_ZTSN7openpal5ArrayIN8opendnp34CellINS1_19DoubleBitBinarySpecEEEtEE, 64
_ZTSN7openpal5ArrayIN8opendnp34CellINS1_19DoubleBitBinarySpecEEEtEE:
	.string	"N7openpal5ArrayIN8opendnp34CellINS1_19DoubleBitBinarySpecEEEtEE"
	.weak	_ZTIN7openpal5ArrayIN8opendnp34CellINS1_19DoubleBitBinarySpecEEEtEE
	.section	.data.rel.ro._ZTIN7openpal5ArrayIN8opendnp34CellINS1_19DoubleBitBinarySpecEEEtEE,"awG",@progbits,_ZTIN7openpal5ArrayIN8opendnp34CellINS1_19DoubleBitBinarySpecEEEtEE,comdat
	.align 8
	.type	_ZTIN7openpal5ArrayIN8opendnp34CellINS1_19DoubleBitBinarySpecEEEtEE, @object
	.size	_ZTIN7openpal5ArrayIN8opendnp34CellINS1_19DoubleBitBinarySpecEEEtEE, 40
_ZTIN7openpal5ArrayIN8opendnp34CellINS1_19DoubleBitBinarySpecEEEtEE:
	.quad	_ZTVN10__cxxabiv121__vmi_class_type_infoE+16
	.quad	_ZTSN7openpal5ArrayIN8opendnp34CellINS1_19DoubleBitBinarySpecEEEtEE
	.long	0
	.long	1
	.quad	_ZTIN7openpal7HasSizeItEE
	.quad	2050
	.weak	_ZTSN7openpal5ArrayIN8opendnp34CellINS1_10AnalogSpecEEEtEE
	.section	.rodata._ZTSN7openpal5ArrayIN8opendnp34CellINS1_10AnalogSpecEEEtEE,"aG",@progbits,_ZTSN7openpal5ArrayIN8opendnp34CellINS1_10AnalogSpecEEEtEE,comdat
	.align 32
	.type	_ZTSN7openpal5ArrayIN8opendnp34CellINS1_10AnalogSpecEEEtEE, @object
	.size	_ZTSN7openpal5ArrayIN8opendnp34CellINS1_10AnalogSpecEEEtEE, 55
_ZTSN7openpal5ArrayIN8opendnp34CellINS1_10AnalogSpecEEEtEE:
	.string	"N7openpal5ArrayIN8opendnp34CellINS1_10AnalogSpecEEEtEE"
	.weak	_ZTIN7openpal5ArrayIN8opendnp34CellINS1_10AnalogSpecEEEtEE
	.section	.data.rel.ro._ZTIN7openpal5ArrayIN8opendnp34CellINS1_10AnalogSpecEEEtEE,"awG",@progbits,_ZTIN7openpal5ArrayIN8opendnp34CellINS1_10AnalogSpecEEEtEE,comdat
	.align 8
	.type	_ZTIN7openpal5ArrayIN8opendnp34CellINS1_10AnalogSpecEEEtEE, @object
	.size	_ZTIN7openpal5ArrayIN8opendnp34CellINS1_10AnalogSpecEEEtEE, 40
_ZTIN7openpal5ArrayIN8opendnp34CellINS1_10AnalogSpecEEEtEE:
	.quad	_ZTVN10__cxxabiv121__vmi_class_type_infoE+16
	.quad	_ZTSN7openpal5ArrayIN8opendnp34CellINS1_10AnalogSpecEEEtEE
	.long	0
	.long	1
	.quad	_ZTIN7openpal7HasSizeItEE
	.quad	2050
	.weak	_ZTSN7openpal5ArrayIN8opendnp34CellINS1_11CounterSpecEEEtEE
	.section	.rodata._ZTSN7openpal5ArrayIN8opendnp34CellINS1_11CounterSpecEEEtEE,"aG",@progbits,_ZTSN7openpal5ArrayIN8opendnp34CellINS1_11CounterSpecEEEtEE,comdat
	.align 32
	.type	_ZTSN7openpal5ArrayIN8opendnp34CellINS1_11CounterSpecEEEtEE, @object
	.size	_ZTSN7openpal5ArrayIN8opendnp34CellINS1_11CounterSpecEEEtEE, 56
_ZTSN7openpal5ArrayIN8opendnp34CellINS1_11CounterSpecEEEtEE:
	.string	"N7openpal5ArrayIN8opendnp34CellINS1_11CounterSpecEEEtEE"
	.weak	_ZTIN7openpal5ArrayIN8opendnp34CellINS1_11CounterSpecEEEtEE
	.section	.data.rel.ro._ZTIN7openpal5ArrayIN8opendnp34CellINS1_11CounterSpecEEEtEE,"awG",@progbits,_ZTIN7openpal5ArrayIN8opendnp34CellINS1_11CounterSpecEEEtEE,comdat
	.align 8
	.type	_ZTIN7openpal5ArrayIN8opendnp34CellINS1_11CounterSpecEEEtEE, @object
	.size	_ZTIN7openpal5ArrayIN8opendnp34CellINS1_11CounterSpecEEEtEE, 40
_ZTIN7openpal5ArrayIN8opendnp34CellINS1_11CounterSpecEEEtEE:
	.quad	_ZTVN10__cxxabiv121__vmi_class_type_infoE+16
	.quad	_ZTSN7openpal5ArrayIN8opendnp34CellINS1_11CounterSpecEEEtEE
	.long	0
	.long	1
	.quad	_ZTIN7openpal7HasSizeItEE
	.quad	2050
	.weak	_ZTSN7openpal5ArrayIN8opendnp34CellINS1_17FrozenCounterSpecEEEtEE
	.section	.rodata._ZTSN7openpal5ArrayIN8opendnp34CellINS1_17FrozenCounterSpecEEEtEE,"aG",@progbits,_ZTSN7openpal5ArrayIN8opendnp34CellINS1_17FrozenCounterSpecEEEtEE,comdat
	.align 32
	.type	_ZTSN7openpal5ArrayIN8opendnp34CellINS1_17FrozenCounterSpecEEEtEE, @object
	.size	_ZTSN7openpal5ArrayIN8opendnp34CellINS1_17FrozenCounterSpecEEEtEE, 62
_ZTSN7openpal5ArrayIN8opendnp34CellINS1_17FrozenCounterSpecEEEtEE:
	.string	"N7openpal5ArrayIN8opendnp34CellINS1_17FrozenCounterSpecEEEtEE"
	.weak	_ZTIN7openpal5ArrayIN8opendnp34CellINS1_17FrozenCounterSpecEEEtEE
	.section	.data.rel.ro._ZTIN7openpal5ArrayIN8opendnp34CellINS1_17FrozenCounterSpecEEEtEE,"awG",@progbits,_ZTIN7openpal5ArrayIN8opendnp34CellINS1_17FrozenCounterSpecEEEtEE,comdat
	.align 8
	.type	_ZTIN7openpal5ArrayIN8opendnp34CellINS1_17FrozenCounterSpecEEEtEE, @object
	.size	_ZTIN7openpal5ArrayIN8opendnp34CellINS1_17FrozenCounterSpecEEEtEE, 40
_ZTIN7openpal5ArrayIN8opendnp34CellINS1_17FrozenCounterSpecEEEtEE:
	.quad	_ZTVN10__cxxabiv121__vmi_class_type_infoE+16
	.quad	_ZTSN7openpal5ArrayIN8opendnp34CellINS1_17FrozenCounterSpecEEEtEE
	.long	0
	.long	1
	.quad	_ZTIN7openpal7HasSizeItEE
	.quad	2050
	.weak	_ZTSN7openpal5ArrayIN8opendnp34CellINS1_22BinaryOutputStatusSpecEEEtEE
	.section	.rodata._ZTSN7openpal5ArrayIN8opendnp34CellINS1_22BinaryOutputStatusSpecEEEtEE,"aG",@progbits,_ZTSN7openpal5ArrayIN8opendnp34CellINS1_22BinaryOutputStatusSpecEEEtEE,comdat
	.align 32
	.type	_ZTSN7openpal5ArrayIN8opendnp34CellINS1_22BinaryOutputStatusSpecEEEtEE, @object
	.size	_ZTSN7openpal5ArrayIN8opendnp34CellINS1_22BinaryOutputStatusSpecEEEtEE, 67
_ZTSN7openpal5ArrayIN8opendnp34CellINS1_22BinaryOutputStatusSpecEEEtEE:
	.string	"N7openpal5ArrayIN8opendnp34CellINS1_22BinaryOutputStatusSpecEEEtEE"
	.weak	_ZTIN7openpal5ArrayIN8opendnp34CellINS1_22BinaryOutputStatusSpecEEEtEE
	.section	.data.rel.ro._ZTIN7openpal5ArrayIN8opendnp34CellINS1_22BinaryOutputStatusSpecEEEtEE,"awG",@progbits,_ZTIN7openpal5ArrayIN8opendnp34CellINS1_22BinaryOutputStatusSpecEEEtEE,comdat
	.align 8
	.type	_ZTIN7openpal5ArrayIN8opendnp34CellINS1_22BinaryOutputStatusSpecEEEtEE, @object
	.size	_ZTIN7openpal5ArrayIN8opendnp34CellINS1_22BinaryOutputStatusSpecEEEtEE, 40
_ZTIN7openpal5ArrayIN8opendnp34CellINS1_22BinaryOutputStatusSpecEEEtEE:
	.quad	_ZTVN10__cxxabiv121__vmi_class_type_infoE+16
	.quad	_ZTSN7openpal5ArrayIN8opendnp34CellINS1_22BinaryOutputStatusSpecEEEtEE
	.long	0
	.long	1
	.quad	_ZTIN7openpal7HasSizeItEE
	.quad	2050
	.weak	_ZTSN7openpal5ArrayIN8opendnp34CellINS1_22AnalogOutputStatusSpecEEEtEE
	.section	.rodata._ZTSN7openpal5ArrayIN8opendnp34CellINS1_22AnalogOutputStatusSpecEEEtEE,"aG",@progbits,_ZTSN7openpal5ArrayIN8opendnp34CellINS1_22AnalogOutputStatusSpecEEEtEE,comdat
	.align 32
	.type	_ZTSN7openpal5ArrayIN8opendnp34CellINS1_22AnalogOutputStatusSpecEEEtEE, @object
	.size	_ZTSN7openpal5ArrayIN8opendnp34CellINS1_22AnalogOutputStatusSpecEEEtEE, 67
_ZTSN7openpal5ArrayIN8opendnp34CellINS1_22AnalogOutputStatusSpecEEEtEE:
	.string	"N7openpal5ArrayIN8opendnp34CellINS1_22AnalogOutputStatusSpecEEEtEE"
	.weak	_ZTIN7openpal5ArrayIN8opendnp34CellINS1_22AnalogOutputStatusSpecEEEtEE
	.section	.data.rel.ro._ZTIN7openpal5ArrayIN8opendnp34CellINS1_22AnalogOutputStatusSpecEEEtEE,"awG",@progbits,_ZTIN7openpal5ArrayIN8opendnp34CellINS1_22AnalogOutputStatusSpecEEEtEE,comdat
	.align 8
	.type	_ZTIN7openpal5ArrayIN8opendnp34CellINS1_22AnalogOutputStatusSpecEEEtEE, @object
	.size	_ZTIN7openpal5ArrayIN8opendnp34CellINS1_22AnalogOutputStatusSpecEEEtEE, 40
_ZTIN7openpal5ArrayIN8opendnp34CellINS1_22AnalogOutputStatusSpecEEEtEE:
	.quad	_ZTVN10__cxxabiv121__vmi_class_type_infoE+16
	.quad	_ZTSN7openpal5ArrayIN8opendnp34CellINS1_22AnalogOutputStatusSpecEEEtEE
	.long	0
	.long	1
	.quad	_ZTIN7openpal7HasSizeItEE
	.quad	2050
	.weak	_ZTSN7openpal5ArrayIN8opendnp34CellINS1_19TimeAndIntervalSpecEEEtEE
	.section	.rodata._ZTSN7openpal5ArrayIN8opendnp34CellINS1_19TimeAndIntervalSpecEEEtEE,"aG",@progbits,_ZTSN7openpal5ArrayIN8opendnp34CellINS1_19TimeAndIntervalSpecEEEtEE,comdat
	.align 32
	.type	_ZTSN7openpal5ArrayIN8opendnp34CellINS1_19TimeAndIntervalSpecEEEtEE, @object
	.size	_ZTSN7openpal5ArrayIN8opendnp34CellINS1_19TimeAndIntervalSpecEEEtEE, 64
_ZTSN7openpal5ArrayIN8opendnp34CellINS1_19TimeAndIntervalSpecEEEtEE:
	.string	"N7openpal5ArrayIN8opendnp34CellINS1_19TimeAndIntervalSpecEEEtEE"
	.weak	_ZTIN7openpal5ArrayIN8opendnp34CellINS1_19TimeAndIntervalSpecEEEtEE
	.section	.data.rel.ro._ZTIN7openpal5ArrayIN8opendnp34CellINS1_19TimeAndIntervalSpecEEEtEE,"awG",@progbits,_ZTIN7openpal5ArrayIN8opendnp34CellINS1_19TimeAndIntervalSpecEEEtEE,comdat
	.align 8
	.type	_ZTIN7openpal5ArrayIN8opendnp34CellINS1_19TimeAndIntervalSpecEEEtEE, @object
	.size	_ZTIN7openpal5ArrayIN8opendnp34CellINS1_19TimeAndIntervalSpecEEEtEE, 40
_ZTIN7openpal5ArrayIN8opendnp34CellINS1_19TimeAndIntervalSpecEEEtEE:
	.quad	_ZTVN10__cxxabiv121__vmi_class_type_infoE+16
	.quad	_ZTSN7openpal5ArrayIN8opendnp34CellINS1_19TimeAndIntervalSpecEEEtEE
	.long	0
	.long	1
	.quad	_ZTIN7openpal7HasSizeItEE
	.quad	2050
	.weak	_ZTVN7openpal5ArrayIN8opendnp34CellINS1_10BinarySpecEEEtEE
	.section	.data.rel.ro._ZTVN7openpal5ArrayIN8opendnp34CellINS1_10BinarySpecEEEtEE,"awG",@progbits,_ZTVN7openpal5ArrayIN8opendnp34CellINS1_10BinarySpecEEEtEE,comdat
	.align 8
	.type	_ZTVN7openpal5ArrayIN8opendnp34CellINS1_10BinarySpecEEEtEE, @object
	.size	_ZTVN7openpal5ArrayIN8opendnp34CellINS1_10BinarySpecEEEtEE, 32
_ZTVN7openpal5ArrayIN8opendnp34CellINS1_10BinarySpecEEEtEE:
	.quad	0
	.quad	_ZTIN7openpal5ArrayIN8opendnp34CellINS1_10BinarySpecEEEtEE
	.quad	_ZN7openpal5ArrayIN8opendnp34CellINS1_10BinarySpecEEEtED1Ev
	.quad	_ZN7openpal5ArrayIN8opendnp34CellINS1_10BinarySpecEEEtED0Ev
	.weak	_ZTVN7openpal5ArrayIN8opendnp34CellINS1_19DoubleBitBinarySpecEEEtEE
	.section	.data.rel.ro._ZTVN7openpal5ArrayIN8opendnp34CellINS1_19DoubleBitBinarySpecEEEtEE,"awG",@progbits,_ZTVN7openpal5ArrayIN8opendnp34CellINS1_19DoubleBitBinarySpecEEEtEE,comdat
	.align 8
	.type	_ZTVN7openpal5ArrayIN8opendnp34CellINS1_19DoubleBitBinarySpecEEEtEE, @object
	.size	_ZTVN7openpal5ArrayIN8opendnp34CellINS1_19DoubleBitBinarySpecEEEtEE, 32
_ZTVN7openpal5ArrayIN8opendnp34CellINS1_19DoubleBitBinarySpecEEEtEE:
	.quad	0
	.quad	_ZTIN7openpal5ArrayIN8opendnp34CellINS1_19DoubleBitBinarySpecEEEtEE
	.quad	_ZN7openpal5ArrayIN8opendnp34CellINS1_19DoubleBitBinarySpecEEEtED1Ev
	.quad	_ZN7openpal5ArrayIN8opendnp34CellINS1_19DoubleBitBinarySpecEEEtED0Ev
	.weak	_ZTVN7openpal5ArrayIN8opendnp34CellINS1_10AnalogSpecEEEtEE
	.section	.data.rel.ro._ZTVN7openpal5ArrayIN8opendnp34CellINS1_10AnalogSpecEEEtEE,"awG",@progbits,_ZTVN7openpal5ArrayIN8opendnp34CellINS1_10AnalogSpecEEEtEE,comdat
	.align 8
	.type	_ZTVN7openpal5ArrayIN8opendnp34CellINS1_10AnalogSpecEEEtEE, @object
	.size	_ZTVN7openpal5ArrayIN8opendnp34CellINS1_10AnalogSpecEEEtEE, 32
_ZTVN7openpal5ArrayIN8opendnp34CellINS1_10AnalogSpecEEEtEE:
	.quad	0
	.quad	_ZTIN7openpal5ArrayIN8opendnp34CellINS1_10AnalogSpecEEEtEE
	.quad	_ZN7openpal5ArrayIN8opendnp34CellINS1_10AnalogSpecEEEtED1Ev
	.quad	_ZN7openpal5ArrayIN8opendnp34CellINS1_10AnalogSpecEEEtED0Ev
	.weak	_ZTVN7openpal5ArrayIN8opendnp34CellINS1_11CounterSpecEEEtEE
	.section	.data.rel.ro._ZTVN7openpal5ArrayIN8opendnp34CellINS1_11CounterSpecEEEtEE,"awG",@progbits,_ZTVN7openpal5ArrayIN8opendnp34CellINS1_11CounterSpecEEEtEE,comdat
	.align 8
	.type	_ZTVN7openpal5ArrayIN8opendnp34CellINS1_11CounterSpecEEEtEE, @object
	.size	_ZTVN7openpal5ArrayIN8opendnp34CellINS1_11CounterSpecEEEtEE, 32
_ZTVN7openpal5ArrayIN8opendnp34CellINS1_11CounterSpecEEEtEE:
	.quad	0
	.quad	_ZTIN7openpal5ArrayIN8opendnp34CellINS1_11CounterSpecEEEtEE
	.quad	_ZN7openpal5ArrayIN8opendnp34CellINS1_11CounterSpecEEEtED1Ev
	.quad	_ZN7openpal5ArrayIN8opendnp34CellINS1_11CounterSpecEEEtED0Ev
	.weak	_ZTVN7openpal5ArrayIN8opendnp34CellINS1_17FrozenCounterSpecEEEtEE
	.section	.data.rel.ro._ZTVN7openpal5ArrayIN8opendnp34CellINS1_17FrozenCounterSpecEEEtEE,"awG",@progbits,_ZTVN7openpal5ArrayIN8opendnp34CellINS1_17FrozenCounterSpecEEEtEE,comdat
	.align 8
	.type	_ZTVN7openpal5ArrayIN8opendnp34CellINS1_17FrozenCounterSpecEEEtEE, @object
	.size	_ZTVN7openpal5ArrayIN8opendnp34CellINS1_17FrozenCounterSpecEEEtEE, 32
_ZTVN7openpal5ArrayIN8opendnp34CellINS1_17FrozenCounterSpecEEEtEE:
	.quad	0
	.quad	_ZTIN7openpal5ArrayIN8opendnp34CellINS1_17FrozenCounterSpecEEEtEE
	.quad	_ZN7openpal5ArrayIN8opendnp34CellINS1_17FrozenCounterSpecEEEtED1Ev
	.quad	_ZN7openpal5ArrayIN8opendnp34CellINS1_17FrozenCounterSpecEEEtED0Ev
	.weak	_ZTVN7openpal5ArrayIN8opendnp34CellINS1_22BinaryOutputStatusSpecEEEtEE
	.section	.data.rel.ro._ZTVN7openpal5ArrayIN8opendnp34CellINS1_22BinaryOutputStatusSpecEEEtEE,"awG",@progbits,_ZTVN7openpal5ArrayIN8opendnp34CellINS1_22BinaryOutputStatusSpecEEEtEE,comdat
	.align 8
	.type	_ZTVN7openpal5ArrayIN8opendnp34CellINS1_22BinaryOutputStatusSpecEEEtEE, @object
	.size	_ZTVN7openpal5ArrayIN8opendnp34CellINS1_22BinaryOutputStatusSpecEEEtEE, 32
_ZTVN7openpal5ArrayIN8opendnp34CellINS1_22BinaryOutputStatusSpecEEEtEE:
	.quad	0
	.quad	_ZTIN7openpal5ArrayIN8opendnp34CellINS1_22BinaryOutputStatusSpecEEEtEE
	.quad	_ZN7openpal5ArrayIN8opendnp34CellINS1_22BinaryOutputStatusSpecEEEtED1Ev
	.quad	_ZN7openpal5ArrayIN8opendnp34CellINS1_22BinaryOutputStatusSpecEEEtED0Ev
	.weak	_ZTVN7openpal5ArrayIN8opendnp34CellINS1_22AnalogOutputStatusSpecEEEtEE
	.section	.data.rel.ro._ZTVN7openpal5ArrayIN8opendnp34CellINS1_22AnalogOutputStatusSpecEEEtEE,"awG",@progbits,_ZTVN7openpal5ArrayIN8opendnp34CellINS1_22AnalogOutputStatusSpecEEEtEE,comdat
	.align 8
	.type	_ZTVN7openpal5ArrayIN8opendnp34CellINS1_22AnalogOutputStatusSpecEEEtEE, @object
	.size	_ZTVN7openpal5ArrayIN8opendnp34CellINS1_22AnalogOutputStatusSpecEEEtEE, 32
_ZTVN7openpal5ArrayIN8opendnp34CellINS1_22AnalogOutputStatusSpecEEEtEE:
	.quad	0
	.quad	_ZTIN7openpal5ArrayIN8opendnp34CellINS1_22AnalogOutputStatusSpecEEEtEE
	.quad	_ZN7openpal5ArrayIN8opendnp34CellINS1_22AnalogOutputStatusSpecEEEtED1Ev
	.quad	_ZN7openpal5ArrayIN8opendnp34CellINS1_22AnalogOutputStatusSpecEEEtED0Ev
	.weak	_ZTVN7openpal5ArrayIN8opendnp34CellINS1_19TimeAndIntervalSpecEEEtEE
	.section	.data.rel.ro._ZTVN7openpal5ArrayIN8opendnp34CellINS1_19TimeAndIntervalSpecEEEtEE,"awG",@progbits,_ZTVN7openpal5ArrayIN8opendnp34CellINS1_19TimeAndIntervalSpecEEEtEE,comdat
	.align 8
	.type	_ZTVN7openpal5ArrayIN8opendnp34CellINS1_19TimeAndIntervalSpecEEEtEE, @object
	.size	_ZTVN7openpal5ArrayIN8opendnp34CellINS1_19TimeAndIntervalSpecEEEtEE, 32
_ZTVN7openpal5ArrayIN8opendnp34CellINS1_19TimeAndIntervalSpecEEEtEE:
	.quad	0
	.quad	_ZTIN7openpal5ArrayIN8opendnp34CellINS1_19TimeAndIntervalSpecEEEtEE
	.quad	_ZN7openpal5ArrayIN8opendnp34CellINS1_19TimeAndIntervalSpecEEEtED1Ev
	.quad	_ZN7openpal5ArrayIN8opendnp34CellINS1_19TimeAndIntervalSpecEEEtED0Ev
	.section	.rodata.cst2,"aM",@progbits,2
	.align 2
.LC0:
	.byte	1
	.byte	2
	.align 2
.LC1:
	.byte	0
	.byte	2
	.hidden	DW.ref.__gxx_personality_v0
	.weak	DW.ref.__gxx_personality_v0
	.section	.data.rel.local.DW.ref.__gxx_personality_v0,"awG",@progbits,DW.ref.__gxx_personality_v0,comdat
	.align 8
	.type	DW.ref.__gxx_personality_v0, @object
	.size	DW.ref.__gxx_personality_v0, 8
DW.ref.__gxx_personality_v0:
	.quad	__gxx_personality_v0
	.globl	__gxx_personality_v0
	.ident	"GCC: (Debian 15.2.0-4) 15.2.0"
	.section	.note.GNU-stack,"",@progbits
