	.file	"WriteHandler.cpp"
	.text
	.section	.text._ZN8opendnp312IAPDUHandler14OnHeaderResultERKNS_12HeaderRecordERKNS_8IINFieldE,"axG",@progbits,_ZN8opendnp312IAPDUHandler14OnHeaderResultERKNS_12HeaderRecordERKNS_8IINFieldE,comdat
	.align 2
	.p2align 4
	.weak	_ZN8opendnp312IAPDUHandler14OnHeaderResultERKNS_12HeaderRecordERKNS_8IINFieldE
	.type	_ZN8opendnp312IAPDUHandler14OnHeaderResultERKNS_12HeaderRecordERKNS_8IINFieldE, @function
_ZN8opendnp312IAPDUHandler14OnHeaderResultERKNS_12HeaderRecordERKNS_8IINFieldE:
.LFB277:
	.cfi_startproc
	ret
	.cfi_endproc
.LFE277:
	.size	_ZN8opendnp312IAPDUHandler14OnHeaderResultERKNS_12HeaderRecordERKNS_8IINFieldE, .-_ZN8opendnp312IAPDUHandler14OnHeaderResultERKNS_12HeaderRecordERKNS_8IINFieldE
	.section	.text._ZN8opendnp322IOutstationApplication25SupportsWriteAbsoluteTimeEv,"axG",@progbits,_ZN8opendnp322IOutstationApplication25SupportsWriteAbsoluteTimeEv,comdat
	.align 2
	.p2align 4
	.weak	_ZN8opendnp322IOutstationApplication25SupportsWriteAbsoluteTimeEv
	.type	_ZN8opendnp322IOutstationApplication25SupportsWriteAbsoluteTimeEv, @function
_ZN8opendnp322IOutstationApplication25SupportsWriteAbsoluteTimeEv:
.LFB1820:
	.cfi_startproc
	xorl	%eax, %eax
	ret
	.cfi_endproc
.LFE1820:
	.size	_ZN8opendnp322IOutstationApplication25SupportsWriteAbsoluteTimeEv, .-_ZN8opendnp322IOutstationApplication25SupportsWriteAbsoluteTimeEv
	.section	.text._ZN8opendnp322IOutstationApplication17WriteAbsoluteTimeERKN7openpal12UTCTimestampE,"axG",@progbits,_ZN8opendnp322IOutstationApplication17WriteAbsoluteTimeERKN7openpal12UTCTimestampE,comdat
	.align 2
	.p2align 4
	.weak	_ZN8opendnp322IOutstationApplication17WriteAbsoluteTimeERKN7openpal12UTCTimestampE
	.type	_ZN8opendnp322IOutstationApplication17WriteAbsoluteTimeERKN7openpal12UTCTimestampE, @function
_ZN8opendnp322IOutstationApplication17WriteAbsoluteTimeERKN7openpal12UTCTimestampE:
.LFB1821:
	.cfi_startproc
	xorl	%eax, %eax
	ret
	.cfi_endproc
.LFE1821:
	.size	_ZN8opendnp322IOutstationApplication17WriteAbsoluteTimeERKN7openpal12UTCTimestampE, .-_ZN8opendnp322IOutstationApplication17WriteAbsoluteTimeERKN7openpal12UTCTimestampE
	.section	.text._ZN8opendnp322IOutstationApplication28SupportsWriteTimeAndIntervalEv,"axG",@progbits,_ZN8opendnp322IOutstationApplication28SupportsWriteTimeAndIntervalEv,comdat
	.align 2
	.p2align 4
	.weak	_ZN8opendnp322IOutstationApplication28SupportsWriteTimeAndIntervalEv
	.type	_ZN8opendnp322IOutstationApplication28SupportsWriteTimeAndIntervalEv, @function
_ZN8opendnp322IOutstationApplication28SupportsWriteTimeAndIntervalEv:
.LFB1822:
	.cfi_startproc
	xorl	%eax, %eax
	ret
	.cfi_endproc
.LFE1822:
	.size	_ZN8opendnp322IOutstationApplication28SupportsWriteTimeAndIntervalEv, .-_ZN8opendnp322IOutstationApplication28SupportsWriteTimeAndIntervalEv
	.section	.text._ZN8opendnp322IOutstationApplication20WriteTimeAndIntervalERKNS_11ICollectionINS_7IndexedINS_15TimeAndIntervalEEEEE,"axG",@progbits,_ZN8opendnp322IOutstationApplication20WriteTimeAndIntervalERKNS_11ICollectionINS_7IndexedINS_15TimeAndIntervalEEEEE,comdat
	.align 2
	.p2align 4
	.weak	_ZN8opendnp322IOutstationApplication20WriteTimeAndIntervalERKNS_11ICollectionINS_7IndexedINS_15TimeAndIntervalEEEEE
	.type	_ZN8opendnp322IOutstationApplication20WriteTimeAndIntervalERKNS_11ICollectionINS_7IndexedINS_15TimeAndIntervalEEEEE, @function
_ZN8opendnp322IOutstationApplication20WriteTimeAndIntervalERKNS_11ICollectionINS_7IndexedINS_15TimeAndIntervalEEEEE:
.LFB1823:
	.cfi_startproc
	xorl	%eax, %eax
	ret
	.cfi_endproc
.LFE1823:
	.size	_ZN8opendnp322IOutstationApplication20WriteTimeAndIntervalERKNS_11ICollectionINS_7IndexedINS_15TimeAndIntervalEEEEE, .-_ZN8opendnp322IOutstationApplication20WriteTimeAndIntervalERKNS_11ICollectionINS_7IndexedINS_15TimeAndIntervalEEEEE
	.section	.text._ZN8opendnp312WriteHandler9IsAllowedEjNS_14GroupVariationENS_13QualifierCodeE,"axG",@progbits,_ZN8opendnp312WriteHandler9IsAllowedEjNS_14GroupVariationENS_13QualifierCodeE,comdat
	.align 2
	.p2align 4
	.weak	_ZN8opendnp312WriteHandler9IsAllowedEjNS_14GroupVariationENS_13QualifierCodeE
	.type	_ZN8opendnp312WriteHandler9IsAllowedEjNS_14GroupVariationENS_13QualifierCodeE, @function
_ZN8opendnp312WriteHandler9IsAllowedEjNS_14GroupVariationENS_13QualifierCodeE:
.LFB2330:
	.cfi_startproc
	movl	$1, %eax
	ret
	.cfi_endproc
.LFE2330:
	.size	_ZN8opendnp312WriteHandler9IsAllowedEjNS_14GroupVariationENS_13QualifierCodeE, .-_ZN8opendnp312WriteHandler9IsAllowedEjNS_14GroupVariationENS_13QualifierCodeE
	.section	.text._ZN8opendnp314FunctorVisitorINS_11Group50Var1EZNKS_11ICollectionIS1_E13ReadOnlyValueERS1_EUlRKS1_E_E7OnValueES6_,"axG",@progbits,_ZN8opendnp314FunctorVisitorINS_11Group50Var1EZNKS_11ICollectionIS1_E13ReadOnlyValueERS1_EUlRKS1_E_E7OnValueES6_,comdat
	.align 2
	.p2align 4
	.weak	_ZN8opendnp314FunctorVisitorINS_11Group50Var1EZNKS_11ICollectionIS1_E13ReadOnlyValueERS1_EUlRKS1_E_E7OnValueES6_
	.type	_ZN8opendnp314FunctorVisitorINS_11Group50Var1EZNKS_11ICollectionIS1_E13ReadOnlyValueERS1_EUlRKS1_E_E7OnValueES6_, @function
_ZN8opendnp314FunctorVisitorINS_11Group50Var1EZNKS_11ICollectionIS1_E13ReadOnlyValueERS1_EUlRKS1_E_E7OnValueES6_:
.LFB3161:
	.cfi_startproc
	movq	8(%rdi), %rax
	movq	(%rsi), %rdx
	movq	%rdx, (%rax)
	ret
	.cfi_endproc
.LFE3161:
	.size	_ZN8opendnp314FunctorVisitorINS_11Group50Var1EZNKS_11ICollectionIS1_E13ReadOnlyValueERS1_EUlRKS1_E_E7OnValueES6_, .-_ZN8opendnp314FunctorVisitorINS_11Group50Var1EZNKS_11ICollectionIS1_E13ReadOnlyValueERS1_EUlRKS1_E_E7OnValueES6_
	.section	.text._ZN8opendnp314FunctorVisitorINS_7IndexedINS_8IINValueEEEZNKS_11ICollectionIS3_E13ReadOnlyValueERS3_EUlRKS3_E_E7OnValueES8_,"axG",@progbits,_ZN8opendnp314FunctorVisitorINS_7IndexedINS_8IINValueEEEZNKS_11ICollectionIS3_E13ReadOnlyValueERS3_EUlRKS3_E_E7OnValueES8_,comdat
	.align 2
	.p2align 4
	.weak	_ZN8opendnp314FunctorVisitorINS_7IndexedINS_8IINValueEEEZNKS_11ICollectionIS3_E13ReadOnlyValueERS3_EUlRKS3_E_E7OnValueES8_
	.type	_ZN8opendnp314FunctorVisitorINS_7IndexedINS_8IINValueEEEZNKS_11ICollectionIS3_E13ReadOnlyValueERS3_EUlRKS3_E_E7OnValueES8_, @function
_ZN8opendnp314FunctorVisitorINS_7IndexedINS_8IINValueEEEZNKS_11ICollectionIS3_E13ReadOnlyValueERS3_EUlRKS3_E_E7OnValueES8_:
.LFB3162:
	.cfi_startproc
	movq	8(%rdi), %rax
	movl	(%rsi), %edx
	movl	%edx, (%rax)
	ret
	.cfi_endproc
.LFE3162:
	.size	_ZN8opendnp314FunctorVisitorINS_7IndexedINS_8IINValueEEEZNKS_11ICollectionIS3_E13ReadOnlyValueERS3_EUlRKS3_E_E7OnValueES8_, .-_ZN8opendnp314FunctorVisitorINS_7IndexedINS_8IINValueEEEZNKS_11ICollectionIS3_E13ReadOnlyValueERS3_EUlRKS3_E_E7OnValueES8_
	.text
	.align 2
	.p2align 4
	.globl	_ZN8opendnp312WriteHandler13ProcessHeaderERKNS_11RangeHeaderERKNS_11ICollectionINS_7IndexedINS_8IINValueEEEEE
	.type	_ZN8opendnp312WriteHandler13ProcessHeaderERKNS_11RangeHeaderERKNS_11ICollectionINS_7IndexedINS_8IINValueEEEEE, @function
_ZN8opendnp312WriteHandler13ProcessHeaderERKNS_11RangeHeaderERKNS_11ICollectionINS_7IndexedINS_8IINValueEEEEE:
.LFB2334:
	.cfi_startproc
	pushq	%r12
	.cfi_def_cfa_offset 16
	.cfi_offset 12, -16
	pushq	%rbp
	.cfi_def_cfa_offset 24
	.cfi_offset 6, -24
	movq	%rdi, %rbp
	movq	%rdx, %rdi
	pushq	%rbx
	.cfi_def_cfa_offset 32
	.cfi_offset 3, -32
	movq	%rdx, %rbx
	subq	$32, %rsp
	.cfi_def_cfa_offset 64
	movq	(%rdx), %rax
	movl	$0, 12(%rsp)
	call	*(%rax)
	cmpq	$1, %rax
	je	.L11
	xorl	%edx, %edx
	leaq	16(%rsp), %rdi
	movl	$10, %esi
	movw	%dx, 16(%rsp)
	call	_ZN8opendnp38IINField6SetBitENS_6IINBitE@PLT
	movzwl	16(%rsp), %eax
	addq	$32, %rsp
	.cfi_remember_state
	.cfi_def_cfa_offset 32
	popq	%rbx
	.cfi_def_cfa_offset 24
	popq	%rbp
	.cfi_def_cfa_offset 16
	popq	%r12
	.cfi_def_cfa_offset 8
	ret
	.p2align 4,,10
	.p2align 3
.L11:
	.cfi_restore_state
	movq	_ZTVN8opendnp314FunctorVisitorINS_7IndexedINS_8IINValueEEEZNKS_11ICollectionIS3_E13ReadOnlyValueERS3_EUlRKS3_E_EE@GOTPCREL(%rip), %rdx
	leaq	12(%rsp), %rax
	leaq	16(%rsp), %rsi
	movq	%rbx, %rdi
	movq	%rax, %xmm1
	movq	(%rbx), %rax
	leaq	16(%rdx), %rcx
	movq	%rcx, %xmm0
	punpcklqdq	%xmm1, %xmm0
	movaps	%xmm0, 16(%rsp)
	call	*8(%rax)
	cmpb	$0, 41(%rbp)
	jne	.L18
	cmpw	$7, 14(%rsp)
	jne	.L18
	cmpb	$0, 12(%rsp)
	je	.L15
.L18:
	xorl	%eax, %eax
	leaq	16(%rsp), %rdi
	movl	$10, %esi
	movw	%ax, 16(%rsp)
	call	_ZN8opendnp38IINField6SetBitENS_6IINBitE@PLT
	movzwl	16(%rsp), %eax
	addq	$32, %rsp
	.cfi_remember_state
	.cfi_def_cfa_offset 32
	popq	%rbx
	.cfi_def_cfa_offset 24
	popq	%rbp
	.cfi_def_cfa_offset 16
	popq	%r12
	.cfi_def_cfa_offset 8
	ret
	.p2align 4,,10
	.p2align 3
.L15:
	.cfi_restore_state
	movb	$1, 41(%rbp)
	movq	32(%rbp), %rdi
	movl	$7, %esi
	call	_ZN8opendnp38IINField8ClearBitENS_6IINBitE@PLT
	addq	$32, %rsp
	.cfi_def_cfa_offset 32
	xorl	%eax, %eax
	popq	%rbx
	.cfi_def_cfa_offset 24
	popq	%rbp
	.cfi_def_cfa_offset 16
	popq	%r12
	.cfi_def_cfa_offset 8
	ret
	.cfi_endproc
.LFE2334:
	.size	_ZN8opendnp312WriteHandler13ProcessHeaderERKNS_11RangeHeaderERKNS_11ICollectionINS_7IndexedINS_8IINValueEEEEE, .-_ZN8opendnp312WriteHandler13ProcessHeaderERKNS_11RangeHeaderERKNS_11ICollectionINS_7IndexedINS_8IINValueEEEEE
	.align 2
	.p2align 4
	.globl	_ZN8opendnp312WriteHandler13ProcessHeaderERKNS_11CountHeaderERKNS_11ICollectionINS_11Group50Var1EEE
	.type	_ZN8opendnp312WriteHandler13ProcessHeaderERKNS_11CountHeaderERKNS_11ICollectionINS_11Group50Var1EEE, @function
_ZN8opendnp312WriteHandler13ProcessHeaderERKNS_11CountHeaderERKNS_11ICollectionINS_11Group50Var1EEE:
.LFB2335:
	.cfi_startproc
	pushq	%r14
	.cfi_def_cfa_offset 16
	.cfi_offset 14, -16
	pushq	%rbp
	.cfi_def_cfa_offset 24
	.cfi_offset 6, -24
	pushq	%rbx
	.cfi_def_cfa_offset 32
	.cfi_offset 3, -32
	subq	$32, %rsp
	.cfi_def_cfa_offset 64
	cmpb	$0, 40(%rdi)
	je	.L20
	xorl	%esi, %esi
	leaq	16(%rsp), %rdi
	movw	%si, 16(%rsp)
	movl	$10, %esi
	call	_ZN8opendnp38IINField6SetBitENS_6IINBitE@PLT
	movzwl	16(%rsp), %eax
.L21:
	addq	$32, %rsp
	.cfi_remember_state
	.cfi_def_cfa_offset 32
	popq	%rbx
	.cfi_def_cfa_offset 24
	popq	%rbp
	.cfi_def_cfa_offset 16
	popq	%r14
	.cfi_def_cfa_offset 8
	ret
	.p2align 4,,10
	.p2align 3
.L20:
	.cfi_restore_state
	movq	%rdx, %rbp
	movq	%rdi, %rbx
	leaq	8(%rsp), %rdi
	call	_ZN8opendnp311Group50Var1C1Ev@PLT
	movq	0(%rbp), %rax
	leaq	8(%rsp), %r14
	movq	%rbp, %rdi
	call	*(%rax)
	cmpq	$1, %rax
	je	.L22
	xorl	%ecx, %ecx
	leaq	16(%rsp), %rdi
	movl	$10, %esi
	movw	%cx, 16(%rsp)
	call	_ZN8opendnp38IINField6SetBitENS_6IINBitE@PLT
	movzwl	16(%rsp), %eax
	movw	%ax, 6(%rsp)
	movzwl	6(%rsp), %eax
	addq	$32, %rsp
	.cfi_remember_state
	.cfi_def_cfa_offset 32
	popq	%rbx
	.cfi_def_cfa_offset 24
	popq	%rbp
	.cfi_def_cfa_offset 16
	popq	%r14
	.cfi_def_cfa_offset 8
	ret
	.p2align 4,,10
	.p2align 3
.L22:
	.cfi_restore_state
	movq	_ZTVN8opendnp314FunctorVisitorINS_11Group50Var1EZNKS_11ICollectionIS1_E13ReadOnlyValueERS1_EUlRKS1_E_EE@GOTPCREL(%rip), %rax
	movq	%r14, %xmm1
	leaq	16(%rsp), %rsi
	movq	%rbp, %rdi
	movq	%rsi, %r14
	addq	$16, %rax
	movq	%rax, %xmm0
	movq	0(%rbp), %rax
	punpcklqdq	%xmm1, %xmm0
	movaps	%xmm0, 16(%rsp)
	call	*8(%rax)
	movq	24(%rbx), %rdi
	movq	(%rdi), %rax
	movq	32(%rax), %rax
	cmpq	_ZN8opendnp322IOutstationApplication25SupportsWriteAbsoluteTimeEv@GOTPCREL(%rip), %rax
	jne	.L32
.L24:
	xorl	%eax, %eax
	movq	%r14, %rdi
	movl	$8, %esi
	movw	%ax, 16(%rsp)
	call	_ZN8opendnp38IINField6SetBitENS_6IINBitE@PLT
	movzwl	16(%rsp), %eax
	movw	%ax, 6(%rsp)
	movzwl	6(%rsp), %eax
	addq	$32, %rsp
	.cfi_remember_state
	.cfi_def_cfa_offset 32
	popq	%rbx
	.cfi_def_cfa_offset 24
	popq	%rbp
	.cfi_def_cfa_offset 16
	popq	%r14
	.cfi_def_cfa_offset 8
	ret
	.p2align 4,,10
	.p2align 3
.L32:
	.cfi_restore_state
	call	*%rax
	testb	%al, %al
	je	.L24
	movq	24(%rbx), %rdi
	movq	8(%rsp), %rdx
	movb	$1, 40(%rbx)
	movq	(%rdi), %rax
	movq	40(%rax), %rax
	cmpq	_ZN8opendnp322IOutstationApplication17WriteAbsoluteTimeERKN7openpal12UTCTimestampE@GOTPCREL(%rip), %rax
	movq	%rdx, 16(%rsp)
	jne	.L33
.L25:
	xorl	%edx, %edx
	leaq	6(%rsp), %rdi
	movl	$10, %esi
	movw	%dx, 6(%rsp)
	call	_ZN8opendnp38IINField6SetBitENS_6IINBitE@PLT
	movzwl	6(%rsp), %eax
	addq	$32, %rsp
	.cfi_remember_state
	.cfi_def_cfa_offset 32
	popq	%rbx
	.cfi_def_cfa_offset 24
	popq	%rbp
	.cfi_def_cfa_offset 16
	popq	%r14
	.cfi_def_cfa_offset 8
	ret
	.p2align 4,,10
	.p2align 3
.L33:
	.cfi_restore_state
	movq	%r14, %rsi
	call	*%rax
	testb	%al, %al
	movl	$0, %eax
	jne	.L21
	jmp	.L25
	.cfi_endproc
.LFE2335:
	.size	_ZN8opendnp312WriteHandler13ProcessHeaderERKNS_11CountHeaderERKNS_11ICollectionINS_11Group50Var1EEE, .-_ZN8opendnp312WriteHandler13ProcessHeaderERKNS_11CountHeaderERKNS_11ICollectionINS_11Group50Var1EEE
	.align 2
	.p2align 4
	.globl	_ZN8opendnp312WriteHandler13ProcessHeaderERKNS_12PrefixHeaderERKNS_11ICollectionINS_7IndexedINS_15TimeAndIntervalEEEEE
	.type	_ZN8opendnp312WriteHandler13ProcessHeaderERKNS_12PrefixHeaderERKNS_11ICollectionINS_7IndexedINS_15TimeAndIntervalEEEEE, @function
_ZN8opendnp312WriteHandler13ProcessHeaderERKNS_12PrefixHeaderERKNS_11ICollectionINS_7IndexedINS_15TimeAndIntervalEEEEE:
.LFB2336:
	.cfi_startproc
	subq	$40, %rsp
	.cfi_def_cfa_offset 48
	movq	%rdi, %rcx
	movq	24(%rdi), %rdi
	movq	(%rdi), %rax
	movq	48(%rax), %rax
	cmpq	_ZN8opendnp322IOutstationApplication28SupportsWriteTimeAndIntervalEv@GOTPCREL(%rip), %rax
	jne	.L35
.L37:
	xorl	%edx, %edx
	leaq	30(%rsp), %rdi
	movl	$8, %esi
	movw	%dx, 30(%rsp)
	call	_ZN8opendnp38IINField6SetBitENS_6IINBitE@PLT
	movzwl	30(%rsp), %eax
	addq	$40, %rsp
	.cfi_remember_state
	.cfi_def_cfa_offset 8
	ret
	.p2align 4,,10
	.p2align 3
.L35:
	.cfi_restore_state
	movq	%rdx, 8(%rsp)
	movq	%rcx, (%rsp)
	call	*%rax
	testb	%al, %al
	je	.L37
	movq	(%rsp), %rcx
	movq	24(%rcx), %rdi
	movq	(%rdi), %rax
	movq	56(%rax), %rax
	cmpq	_ZN8opendnp322IOutstationApplication20WriteTimeAndIntervalERKNS_11ICollectionINS_7IndexedINS_15TimeAndIntervalEEEEE@GOTPCREL(%rip), %rax
	jne	.L46
.L38:
	xorl	%eax, %eax
	leaq	30(%rsp), %rdi
	movl	$10, %esi
	movw	%ax, 30(%rsp)
	call	_ZN8opendnp38IINField6SetBitENS_6IINBitE@PLT
	movzwl	30(%rsp), %eax
	addq	$40, %rsp
	.cfi_remember_state
	.cfi_def_cfa_offset 8
	ret
	.p2align 4,,10
	.p2align 3
.L46:
	.cfi_restore_state
	movq	8(%rsp), %rsi
	call	*%rax
	testb	%al, %al
	je	.L38
	xorl	%eax, %eax
	addq	$40, %rsp
	.cfi_def_cfa_offset 8
	ret
	.cfi_endproc
.LFE2336:
	.size	_ZN8opendnp312WriteHandler13ProcessHeaderERKNS_12PrefixHeaderERKNS_11ICollectionINS_7IndexedINS_15TimeAndIntervalEEEEE, .-_ZN8opendnp312WriteHandler13ProcessHeaderERKNS_12PrefixHeaderERKNS_11ICollectionINS_7IndexedINS_15TimeAndIntervalEEEEE
	.align 2
	.p2align 4
	.globl	_ZN8opendnp312WriteHandlerC2ERNS_22IOutstationApplicationEPNS_8IINFieldE
	.type	_ZN8opendnp312WriteHandlerC2ERNS_22IOutstationApplicationEPNS_8IINFieldE, @function
_ZN8opendnp312WriteHandlerC2ERNS_22IOutstationApplicationEPNS_8IINFieldE:
.LFB2332:
	.cfi_startproc
	pushq	%r12
	.cfi_def_cfa_offset 16
	.cfi_offset 12, -16
	movq	%rsi, %r12
	pushq	%rbp
	.cfi_def_cfa_offset 24
	.cfi_offset 6, -24
	movq	%rdx, %rbp
	pushq	%rbx
	.cfi_def_cfa_offset 32
	.cfi_offset 3, -32
	movq	%rdi, %rbx
	call	_ZN8opendnp312IAPDUHandlerC2Ev@PLT
	movq	_ZTVN8opendnp312WriteHandlerE@GOTPCREL(%rip), %rax
	movq	%r12, 24(%rbx)
	movq	%rbp, 32(%rbx)
	addq	$16, %rax
	movq	%rax, (%rbx)
	xorl	%eax, %eax
	movw	%ax, 40(%rbx)
	popq	%rbx
	.cfi_def_cfa_offset 24
	popq	%rbp
	.cfi_def_cfa_offset 16
	popq	%r12
	.cfi_def_cfa_offset 8
	ret
	.cfi_endproc
.LFE2332:
	.size	_ZN8opendnp312WriteHandlerC2ERNS_22IOutstationApplicationEPNS_8IINFieldE, .-_ZN8opendnp312WriteHandlerC2ERNS_22IOutstationApplicationEPNS_8IINFieldE
	.globl	_ZN8opendnp312WriteHandlerC1ERNS_22IOutstationApplicationEPNS_8IINFieldE
	.set	_ZN8opendnp312WriteHandlerC1ERNS_22IOutstationApplicationEPNS_8IINFieldE,_ZN8opendnp312WriteHandlerC2ERNS_22IOutstationApplicationEPNS_8IINFieldE
	.weak	_ZTSN8opendnp312WriteHandlerE
	.section	.rodata._ZTSN8opendnp312WriteHandlerE,"aG",@progbits,_ZTSN8opendnp312WriteHandlerE,comdat
	.align 16
	.type	_ZTSN8opendnp312WriteHandlerE, @object
	.size	_ZTSN8opendnp312WriteHandlerE, 26
_ZTSN8opendnp312WriteHandlerE:
	.string	"N8opendnp312WriteHandlerE"
	.weak	_ZTIN8opendnp312WriteHandlerE
	.section	.data.rel.ro._ZTIN8opendnp312WriteHandlerE,"awG",@progbits,_ZTIN8opendnp312WriteHandlerE,comdat
	.align 8
	.type	_ZTIN8opendnp312WriteHandlerE, @object
	.size	_ZTIN8opendnp312WriteHandlerE, 24
_ZTIN8opendnp312WriteHandlerE:
	.quad	_ZTVN10__cxxabiv120__si_class_type_infoE+16
	.quad	_ZTSN8opendnp312WriteHandlerE
	.quad	_ZTIN8opendnp312IAPDUHandlerE
	.weak	_ZTSN8opendnp38IVisitorINS_7IndexedINS_8IINValueEEEEE
	.section	.rodata._ZTSN8opendnp38IVisitorINS_7IndexedINS_8IINValueEEEEE,"aG",@progbits,_ZTSN8opendnp38IVisitorINS_7IndexedINS_8IINValueEEEEE,comdat
	.align 32
	.type	_ZTSN8opendnp38IVisitorINS_7IndexedINS_8IINValueEEEEE, @object
	.size	_ZTSN8opendnp38IVisitorINS_7IndexedINS_8IINValueEEEEE, 50
_ZTSN8opendnp38IVisitorINS_7IndexedINS_8IINValueEEEEE:
	.string	"N8opendnp38IVisitorINS_7IndexedINS_8IINValueEEEEE"
	.weak	_ZTIN8opendnp38IVisitorINS_7IndexedINS_8IINValueEEEEE
	.section	.data.rel.ro._ZTIN8opendnp38IVisitorINS_7IndexedINS_8IINValueEEEEE,"awG",@progbits,_ZTIN8opendnp38IVisitorINS_7IndexedINS_8IINValueEEEEE,comdat
	.align 8
	.type	_ZTIN8opendnp38IVisitorINS_7IndexedINS_8IINValueEEEEE, @object
	.size	_ZTIN8opendnp38IVisitorINS_7IndexedINS_8IINValueEEEEE, 16
_ZTIN8opendnp38IVisitorINS_7IndexedINS_8IINValueEEEEE:
	.quad	_ZTVN10__cxxabiv117__class_type_infoE+16
	.quad	_ZTSN8opendnp38IVisitorINS_7IndexedINS_8IINValueEEEEE
	.weak	_ZTSN8opendnp314FunctorVisitorINS_7IndexedINS_8IINValueEEEZNKS_11ICollectionIS3_E13ReadOnlyValueERS3_EUlRKS3_E_EE
	.section	.rodata._ZTSN8opendnp314FunctorVisitorINS_7IndexedINS_8IINValueEEEZNKS_11ICollectionIS3_E13ReadOnlyValueERS3_EUlRKS3_E_EE,"aG",@progbits,_ZTSN8opendnp314FunctorVisitorINS_7IndexedINS_8IINValueEEEZNKS_11ICollectionIS3_E13ReadOnlyValueERS3_EUlRKS3_E_EE,comdat
	.align 32
	.type	_ZTSN8opendnp314FunctorVisitorINS_7IndexedINS_8IINValueEEEZNKS_11ICollectionIS3_E13ReadOnlyValueERS3_EUlRKS3_E_EE, @object
	.size	_ZTSN8opendnp314FunctorVisitorINS_7IndexedINS_8IINValueEEEZNKS_11ICollectionIS3_E13ReadOnlyValueERS3_EUlRKS3_E_EE, 110
_ZTSN8opendnp314FunctorVisitorINS_7IndexedINS_8IINValueEEEZNKS_11ICollectionIS3_E13ReadOnlyValueERS3_EUlRKS3_E_EE:
	.string	"N8opendnp314FunctorVisitorINS_7IndexedINS_8IINValueEEEZNKS_11ICollectionIS3_E13ReadOnlyValueERS3_EUlRKS3_E_EE"
	.weak	_ZTIN8opendnp314FunctorVisitorINS_7IndexedINS_8IINValueEEEZNKS_11ICollectionIS3_E13ReadOnlyValueERS3_EUlRKS3_E_EE
	.section	.data.rel.ro._ZTIN8opendnp314FunctorVisitorINS_7IndexedINS_8IINValueEEEZNKS_11ICollectionIS3_E13ReadOnlyValueERS3_EUlRKS3_E_EE,"awG",@progbits,_ZTIN8opendnp314FunctorVisitorINS_7IndexedINS_8IINValueEEEZNKS_11ICollectionIS3_E13ReadOnlyValueERS3_EUlRKS3_E_EE,comdat
	.align 8
	.type	_ZTIN8opendnp314FunctorVisitorINS_7IndexedINS_8IINValueEEEZNKS_11ICollectionIS3_E13ReadOnlyValueERS3_EUlRKS3_E_EE, @object
	.size	_ZTIN8opendnp314FunctorVisitorINS_7IndexedINS_8IINValueEEEZNKS_11ICollectionIS3_E13ReadOnlyValueERS3_EUlRKS3_E_EE, 24
_ZTIN8opendnp314FunctorVisitorINS_7IndexedINS_8IINValueEEEZNKS_11ICollectionIS3_E13ReadOnlyValueERS3_EUlRKS3_E_EE:
	.quad	_ZTVN10__cxxabiv120__si_class_type_infoE+16
	.quad	_ZTSN8opendnp314FunctorVisitorINS_7IndexedINS_8IINValueEEEZNKS_11ICollectionIS3_E13ReadOnlyValueERS3_EUlRKS3_E_EE
	.quad	_ZTIN8opendnp38IVisitorINS_7IndexedINS_8IINValueEEEEE
	.weak	_ZTSN8opendnp38IVisitorINS_11Group50Var1EEE
	.section	.rodata._ZTSN8opendnp38IVisitorINS_11Group50Var1EEE,"aG",@progbits,_ZTSN8opendnp38IVisitorINS_11Group50Var1EEE,comdat
	.align 32
	.type	_ZTSN8opendnp38IVisitorINS_11Group50Var1EEE, @object
	.size	_ZTSN8opendnp38IVisitorINS_11Group50Var1EEE, 40
_ZTSN8opendnp38IVisitorINS_11Group50Var1EEE:
	.string	"N8opendnp38IVisitorINS_11Group50Var1EEE"
	.weak	_ZTIN8opendnp38IVisitorINS_11Group50Var1EEE
	.section	.data.rel.ro._ZTIN8opendnp38IVisitorINS_11Group50Var1EEE,"awG",@progbits,_ZTIN8opendnp38IVisitorINS_11Group50Var1EEE,comdat
	.align 8
	.type	_ZTIN8opendnp38IVisitorINS_11Group50Var1EEE, @object
	.size	_ZTIN8opendnp38IVisitorINS_11Group50Var1EEE, 16
_ZTIN8opendnp38IVisitorINS_11Group50Var1EEE:
	.quad	_ZTVN10__cxxabiv117__class_type_infoE+16
	.quad	_ZTSN8opendnp38IVisitorINS_11Group50Var1EEE
	.weak	_ZTSN8opendnp314FunctorVisitorINS_11Group50Var1EZNKS_11ICollectionIS1_E13ReadOnlyValueERS1_EUlRKS1_E_EE
	.section	.rodata._ZTSN8opendnp314FunctorVisitorINS_11Group50Var1EZNKS_11ICollectionIS1_E13ReadOnlyValueERS1_EUlRKS1_E_EE,"aG",@progbits,_ZTSN8opendnp314FunctorVisitorINS_11Group50Var1EZNKS_11ICollectionIS1_E13ReadOnlyValueERS1_EUlRKS1_E_EE,comdat
	.align 32
	.type	_ZTSN8opendnp314FunctorVisitorINS_11Group50Var1EZNKS_11ICollectionIS1_E13ReadOnlyValueERS1_EUlRKS1_E_EE, @object
	.size	_ZTSN8opendnp314FunctorVisitorINS_11Group50Var1EZNKS_11ICollectionIS1_E13ReadOnlyValueERS1_EUlRKS1_E_EE, 100
_ZTSN8opendnp314FunctorVisitorINS_11Group50Var1EZNKS_11ICollectionIS1_E13ReadOnlyValueERS1_EUlRKS1_E_EE:
	.string	"N8opendnp314FunctorVisitorINS_11Group50Var1EZNKS_11ICollectionIS1_E13ReadOnlyValueERS1_EUlRKS1_E_EE"
	.weak	_ZTIN8opendnp314FunctorVisitorINS_11Group50Var1EZNKS_11ICollectionIS1_E13ReadOnlyValueERS1_EUlRKS1_E_EE
	.section	.data.rel.ro._ZTIN8opendnp314FunctorVisitorINS_11Group50Var1EZNKS_11ICollectionIS1_E13ReadOnlyValueERS1_EUlRKS1_E_EE,"awG",@progbits,_ZTIN8opendnp314FunctorVisitorINS_11Group50Var1EZNKS_11ICollectionIS1_E13ReadOnlyValueERS1_EUlRKS1_E_EE,comdat
	.align 8
	.type	_ZTIN8opendnp314FunctorVisitorINS_11Group50Var1EZNKS_11ICollectionIS1_E13ReadOnlyValueERS1_EUlRKS1_E_EE, @object
	.size	_ZTIN8opendnp314FunctorVisitorINS_11Group50Var1EZNKS_11ICollectionIS1_E13ReadOnlyValueERS1_EUlRKS1_E_EE, 24
_ZTIN8opendnp314FunctorVisitorINS_11Group50Var1EZNKS_11ICollectionIS1_E13ReadOnlyValueERS1_EUlRKS1_E_EE:
	.quad	_ZTVN10__cxxabiv120__si_class_type_infoE+16
	.quad	_ZTSN8opendnp314FunctorVisitorINS_11Group50Var1EZNKS_11ICollectionIS1_E13ReadOnlyValueERS1_EUlRKS1_E_EE
	.quad	_ZTIN8opendnp38IVisitorINS_11Group50Var1EEE
	.weak	_ZTVN8opendnp312WriteHandlerE
	.section	.data.rel.ro._ZTVN8opendnp312WriteHandlerE,"awG",@progbits,_ZTVN8opendnp312WriteHandlerE,comdat
	.align 8
	.type	_ZTVN8opendnp312WriteHandlerE, @object
	.size	_ZTVN8opendnp312WriteHandlerE, 448
_ZTVN8opendnp312WriteHandlerE:
	.quad	0
	.quad	_ZTIN8opendnp312WriteHandlerE
	.quad	_ZN8opendnp312WriteHandler9IsAllowedEjNS_14GroupVariationENS_13QualifierCodeE
	.quad	_ZN8opendnp312IAPDUHandler13ProcessHeaderERKNS_16AllObjectsHeaderE
	.quad	_ZN8opendnp312IAPDUHandler13ProcessHeaderERKNS_11RangeHeaderE
	.quad	_ZN8opendnp312IAPDUHandler13ProcessHeaderERKNS_11CountHeaderE
	.quad	_ZN8opendnp312IAPDUHandler13ProcessHeaderERKNS_16FreeFormatHeaderERKNS_12Group120Var1ERKN7openpal6RSliceE
	.quad	_ZN8opendnp312IAPDUHandler13ProcessHeaderERKNS_16FreeFormatHeaderERKNS_12Group120Var2ERKN7openpal6RSliceE
	.quad	_ZN8opendnp312IAPDUHandler13ProcessHeaderERKNS_16FreeFormatHeaderERKNS_12Group120Var5ERKN7openpal6RSliceE
	.quad	_ZN8opendnp312IAPDUHandler13ProcessHeaderERKNS_16FreeFormatHeaderERKNS_12Group120Var6ERKN7openpal6RSliceE
	.quad	_ZN8opendnp312IAPDUHandler13ProcessHeaderERKNS_16FreeFormatHeaderERKNS_12Group120Var8ERKN7openpal6RSliceE
	.quad	_ZN8opendnp312IAPDUHandler13ProcessHeaderERKNS_16FreeFormatHeaderERKNS_12Group120Var7ERKN7openpal6RSliceE
	.quad	_ZN8opendnp312IAPDUHandler13ProcessHeaderERKNS_16FreeFormatHeaderERKNS_12Group120Var9ERKN7openpal6RSliceE
	.quad	_ZN8opendnp312IAPDUHandler13ProcessHeaderERKNS_16FreeFormatHeaderERKNS_13Group120Var10ERKN7openpal6RSliceE
	.quad	_ZN8opendnp312IAPDUHandler13ProcessHeaderERKNS_16FreeFormatHeaderERKNS_13Group120Var11ERKN7openpal6RSliceE
	.quad	_ZN8opendnp312IAPDUHandler13ProcessHeaderERKNS_16FreeFormatHeaderERKNS_13Group120Var12ERKN7openpal6RSliceE
	.quad	_ZN8opendnp312IAPDUHandler13ProcessHeaderERKNS_16FreeFormatHeaderERKNS_13Group120Var13ERKN7openpal6RSliceE
	.quad	_ZN8opendnp312IAPDUHandler13ProcessHeaderERKNS_16FreeFormatHeaderERKNS_13Group120Var14ERKN7openpal6RSliceE
	.quad	_ZN8opendnp312IAPDUHandler13ProcessHeaderERKNS_16FreeFormatHeaderERKNS_13Group120Var15ERKN7openpal6RSliceE
	.quad	_ZN8opendnp312WriteHandler13ProcessHeaderERKNS_11CountHeaderERKNS_11ICollectionINS_11Group50Var1EEE
	.quad	_ZN8opendnp312IAPDUHandler13ProcessHeaderERKNS_11CountHeaderERKNS_11ICollectionINS_11Group51Var1EEE
	.quad	_ZN8opendnp312IAPDUHandler13ProcessHeaderERKNS_11CountHeaderERKNS_11ICollectionINS_11Group51Var2EEE
	.quad	_ZN8opendnp312IAPDUHandler13ProcessHeaderERKNS_11CountHeaderERKNS_11ICollectionINS_11Group52Var1EEE
	.quad	_ZN8opendnp312IAPDUHandler13ProcessHeaderERKNS_11CountHeaderERKNS_11ICollectionINS_11Group52Var2EEE
	.quad	_ZN8opendnp312IAPDUHandler13ProcessHeaderERKNS_11CountHeaderERKNS_11ICollectionINS_12Group120Var3EEE
	.quad	_ZN8opendnp312IAPDUHandler13ProcessHeaderERKNS_11CountHeaderERKNS_11ICollectionINS_12Group120Var4EEE
	.quad	_ZN8opendnp312WriteHandler13ProcessHeaderERKNS_11RangeHeaderERKNS_11ICollectionINS_7IndexedINS_8IINValueEEEEE
	.quad	_ZN8opendnp312IAPDUHandler13ProcessHeaderERKNS_11RangeHeaderERKNS_11ICollectionINS_7IndexedINS_6BinaryEEEEE
	.quad	_ZN8opendnp312IAPDUHandler13ProcessHeaderERKNS_11RangeHeaderERKNS_11ICollectionINS_7IndexedINS_15DoubleBitBinaryEEEEE
	.quad	_ZN8opendnp312IAPDUHandler13ProcessHeaderERKNS_11RangeHeaderERKNS_11ICollectionINS_7IndexedINS_18BinaryOutputStatusEEEEE
	.quad	_ZN8opendnp312IAPDUHandler13ProcessHeaderERKNS_11RangeHeaderERKNS_11ICollectionINS_7IndexedINS_7CounterEEEEE
	.quad	_ZN8opendnp312IAPDUHandler13ProcessHeaderERKNS_11RangeHeaderERKNS_11ICollectionINS_7IndexedINS_13FrozenCounterEEEEE
	.quad	_ZN8opendnp312IAPDUHandler13ProcessHeaderERKNS_11RangeHeaderERKNS_11ICollectionINS_7IndexedINS_6AnalogEEEEE
	.quad	_ZN8opendnp312IAPDUHandler13ProcessHeaderERKNS_11RangeHeaderERKNS_11ICollectionINS_7IndexedINS_18AnalogOutputStatusEEEEE
	.quad	_ZN8opendnp312IAPDUHandler13ProcessHeaderERKNS_11RangeHeaderERKNS_11ICollectionINS_7IndexedINS_11OctetStringEEEEE
	.quad	_ZN8opendnp312IAPDUHandler13ProcessHeaderERKNS_11RangeHeaderERKNS_11ICollectionINS_7IndexedINS_15TimeAndIntervalEEEEE
	.quad	_ZN8opendnp312IAPDUHandler13ProcessHeaderERKNS_11RangeHeaderERKNS_11ICollectionINS_7IndexedINS_12Group121Var1EEEEE
	.quad	_ZN8opendnp312IAPDUHandler13ProcessHeaderERKNS_12PrefixHeaderERKNS_11ICollectionINS_7IndexedINS_6BinaryEEEEE
	.quad	_ZN8opendnp312IAPDUHandler13ProcessHeaderERKNS_12PrefixHeaderERKNS_11ICollectionINS_7IndexedINS_18BinaryOutputStatusEEEEE
	.quad	_ZN8opendnp312IAPDUHandler13ProcessHeaderERKNS_12PrefixHeaderERKNS_11ICollectionINS_7IndexedINS_15DoubleBitBinaryEEEEE
	.quad	_ZN8opendnp312IAPDUHandler13ProcessHeaderERKNS_12PrefixHeaderERKNS_11ICollectionINS_7IndexedINS_7CounterEEEEE
	.quad	_ZN8opendnp312IAPDUHandler13ProcessHeaderERKNS_12PrefixHeaderERKNS_11ICollectionINS_7IndexedINS_13FrozenCounterEEEEE
	.quad	_ZN8opendnp312IAPDUHandler13ProcessHeaderERKNS_12PrefixHeaderERKNS_11ICollectionINS_7IndexedINS_6AnalogEEEEE
	.quad	_ZN8opendnp312IAPDUHandler13ProcessHeaderERKNS_12PrefixHeaderERKNS_11ICollectionINS_7IndexedINS_18AnalogOutputStatusEEEEE
	.quad	_ZN8opendnp312IAPDUHandler13ProcessHeaderERKNS_12PrefixHeaderERKNS_11ICollectionINS_7IndexedINS_11OctetStringEEEEE
	.quad	_ZN8opendnp312WriteHandler13ProcessHeaderERKNS_12PrefixHeaderERKNS_11ICollectionINS_7IndexedINS_15TimeAndIntervalEEEEE
	.quad	_ZN8opendnp312IAPDUHandler13ProcessHeaderERKNS_12PrefixHeaderERKNS_11ICollectionINS_7IndexedINS_18BinaryCommandEventEEEEE
	.quad	_ZN8opendnp312IAPDUHandler13ProcessHeaderERKNS_12PrefixHeaderERKNS_11ICollectionINS_7IndexedINS_18AnalogCommandEventEEEEE
	.quad	_ZN8opendnp312IAPDUHandler13ProcessHeaderERKNS_12PrefixHeaderERKNS_11ICollectionINS_7IndexedINS_12Group122Var1EEEEE
	.quad	_ZN8opendnp312IAPDUHandler13ProcessHeaderERKNS_12PrefixHeaderERKNS_11ICollectionINS_7IndexedINS_12Group122Var2EEEEE
	.quad	_ZN8opendnp312IAPDUHandler13ProcessHeaderERKNS_12PrefixHeaderERKNS_11ICollectionINS_7IndexedINS_23ControlRelayOutputBlockEEEEE
	.quad	_ZN8opendnp312IAPDUHandler13ProcessHeaderERKNS_12PrefixHeaderERKNS_11ICollectionINS_7IndexedINS_17AnalogOutputInt16EEEEE
	.quad	_ZN8opendnp312IAPDUHandler13ProcessHeaderERKNS_12PrefixHeaderERKNS_11ICollectionINS_7IndexedINS_17AnalogOutputInt32EEEEE
	.quad	_ZN8opendnp312IAPDUHandler13ProcessHeaderERKNS_12PrefixHeaderERKNS_11ICollectionINS_7IndexedINS_19AnalogOutputFloat32EEEEE
	.quad	_ZN8opendnp312IAPDUHandler13ProcessHeaderERKNS_12PrefixHeaderERKNS_11ICollectionINS_7IndexedINS_20AnalogOutputDouble64EEEEE
	.quad	_ZN8opendnp312IAPDUHandler14OnHeaderResultERKNS_12HeaderRecordERKNS_8IINFieldE
	.weak	_ZTVN8opendnp314FunctorVisitorINS_7IndexedINS_8IINValueEEEZNKS_11ICollectionIS3_E13ReadOnlyValueERS3_EUlRKS3_E_EE
	.section	.data.rel.ro._ZTVN8opendnp314FunctorVisitorINS_7IndexedINS_8IINValueEEEZNKS_11ICollectionIS3_E13ReadOnlyValueERS3_EUlRKS3_E_EE,"awG",@progbits,_ZTVN8opendnp314FunctorVisitorINS_7IndexedINS_8IINValueEEEZNKS_11ICollectionIS3_E13ReadOnlyValueERS3_EUlRKS3_E_EE,comdat
	.align 8
	.type	_ZTVN8opendnp314FunctorVisitorINS_7IndexedINS_8IINValueEEEZNKS_11ICollectionIS3_E13ReadOnlyValueERS3_EUlRKS3_E_EE, @object
	.size	_ZTVN8opendnp314FunctorVisitorINS_7IndexedINS_8IINValueEEEZNKS_11ICollectionIS3_E13ReadOnlyValueERS3_EUlRKS3_E_EE, 24
_ZTVN8opendnp314FunctorVisitorINS_7IndexedINS_8IINValueEEEZNKS_11ICollectionIS3_E13ReadOnlyValueERS3_EUlRKS3_E_EE:
	.quad	0
	.quad	_ZTIN8opendnp314FunctorVisitorINS_7IndexedINS_8IINValueEEEZNKS_11ICollectionIS3_E13ReadOnlyValueERS3_EUlRKS3_E_EE
	.quad	_ZN8opendnp314FunctorVisitorINS_7IndexedINS_8IINValueEEEZNKS_11ICollectionIS3_E13ReadOnlyValueERS3_EUlRKS3_E_E7OnValueES8_
	.weak	_ZTVN8opendnp314FunctorVisitorINS_11Group50Var1EZNKS_11ICollectionIS1_E13ReadOnlyValueERS1_EUlRKS1_E_EE
	.section	.data.rel.ro._ZTVN8opendnp314FunctorVisitorINS_11Group50Var1EZNKS_11ICollectionIS1_E13ReadOnlyValueERS1_EUlRKS1_E_EE,"awG",@progbits,_ZTVN8opendnp314FunctorVisitorINS_11Group50Var1EZNKS_11ICollectionIS1_E13ReadOnlyValueERS1_EUlRKS1_E_EE,comdat
	.align 8
	.type	_ZTVN8opendnp314FunctorVisitorINS_11Group50Var1EZNKS_11ICollectionIS1_E13ReadOnlyValueERS1_EUlRKS1_E_EE, @object
	.size	_ZTVN8opendnp314FunctorVisitorINS_11Group50Var1EZNKS_11ICollectionIS1_E13ReadOnlyValueERS1_EUlRKS1_E_EE, 24
_ZTVN8opendnp314FunctorVisitorINS_11Group50Var1EZNKS_11ICollectionIS1_E13ReadOnlyValueERS1_EUlRKS1_E_EE:
	.quad	0
	.quad	_ZTIN8opendnp314FunctorVisitorINS_11Group50Var1EZNKS_11ICollectionIS1_E13ReadOnlyValueERS1_EUlRKS1_E_EE
	.quad	_ZN8opendnp314FunctorVisitorINS_11Group50Var1EZNKS_11ICollectionIS1_E13ReadOnlyValueERS1_EUlRKS1_E_E7OnValueES6_
	.ident	"GCC: (Debian 15.2.0-4) 15.2.0"
	.section	.note.GNU-stack,"",@progbits
