	.file	"Logger.cpp"
	.text
	.section	.text._ZNSt23_Sp_counted_ptr_inplaceIN7openpal6Logger8SettingsESaIvELN9__gnu_cxx12_Lock_policyE2EED2Ev,"axG",@progbits,_ZNSt23_Sp_counted_ptr_inplaceIN7openpal6Logger8SettingsESaIvELN9__gnu_cxx12_Lock_policyE2EED5Ev,comdat
	.align 2
	.p2align 4
	.weak	_ZNSt23_Sp_counted_ptr_inplaceIN7openpal6Logger8SettingsESaIvELN9__gnu_cxx12_Lock_policyE2EED2Ev
	.type	_ZNSt23_Sp_counted_ptr_inplaceIN7openpal6Logger8SettingsESaIvELN9__gnu_cxx12_Lock_policyE2EED2Ev, @function
_ZNSt23_Sp_counted_ptr_inplaceIN7openpal6Logger8SettingsESaIvELN9__gnu_cxx12_Lock_policyE2EED2Ev:
.LFB2720:
	.cfi_startproc
	ret
	.cfi_endproc
.LFE2720:
	.size	_ZNSt23_Sp_counted_ptr_inplaceIN7openpal6Logger8SettingsESaIvELN9__gnu_cxx12_Lock_policyE2EED2Ev, .-_ZNSt23_Sp_counted_ptr_inplaceIN7openpal6Logger8SettingsESaIvELN9__gnu_cxx12_Lock_policyE2EED2Ev
	.weak	_ZNSt23_Sp_counted_ptr_inplaceIN7openpal6Logger8SettingsESaIvELN9__gnu_cxx12_Lock_policyE2EED1Ev
	.set	_ZNSt23_Sp_counted_ptr_inplaceIN7openpal6Logger8SettingsESaIvELN9__gnu_cxx12_Lock_policyE2EED1Ev,_ZNSt23_Sp_counted_ptr_inplaceIN7openpal6Logger8SettingsESaIvELN9__gnu_cxx12_Lock_policyE2EED2Ev
	.section	.text._ZNSt23_Sp_counted_ptr_inplaceIN7openpal6Logger8SettingsESaIvELN9__gnu_cxx12_Lock_policyE2EED0Ev,"axG",@progbits,_ZNSt23_Sp_counted_ptr_inplaceIN7openpal6Logger8SettingsESaIvELN9__gnu_cxx12_Lock_policyE2EED5Ev,comdat
	.align 2
	.p2align 4
	.weak	_ZNSt23_Sp_counted_ptr_inplaceIN7openpal6Logger8SettingsESaIvELN9__gnu_cxx12_Lock_policyE2EED0Ev
	.type	_ZNSt23_Sp_counted_ptr_inplaceIN7openpal6Logger8SettingsESaIvELN9__gnu_cxx12_Lock_policyE2EED0Ev, @function
_ZNSt23_Sp_counted_ptr_inplaceIN7openpal6Logger8SettingsESaIvELN9__gnu_cxx12_Lock_policyE2EED0Ev:
.LFB2722:
	.cfi_startproc
	movl	$56, %esi
	jmp	_ZdlPvm@PLT
	.cfi_endproc
.LFE2722:
	.size	_ZNSt23_Sp_counted_ptr_inplaceIN7openpal6Logger8SettingsESaIvELN9__gnu_cxx12_Lock_policyE2EED0Ev, .-_ZNSt23_Sp_counted_ptr_inplaceIN7openpal6Logger8SettingsESaIvELN9__gnu_cxx12_Lock_policyE2EED0Ev
	.section	.text._ZNSt23_Sp_counted_ptr_inplaceIN7openpal6Logger8SettingsESaIvELN9__gnu_cxx12_Lock_policyE2EE10_M_destroyEv,"axG",@progbits,_ZNSt23_Sp_counted_ptr_inplaceIN7openpal6Logger8SettingsESaIvELN9__gnu_cxx12_Lock_policyE2EE10_M_destroyEv,comdat
	.align 2
	.p2align 4
	.weak	_ZNSt23_Sp_counted_ptr_inplaceIN7openpal6Logger8SettingsESaIvELN9__gnu_cxx12_Lock_policyE2EE10_M_destroyEv
	.type	_ZNSt23_Sp_counted_ptr_inplaceIN7openpal6Logger8SettingsESaIvELN9__gnu_cxx12_Lock_policyE2EE10_M_destroyEv, @function
_ZNSt23_Sp_counted_ptr_inplaceIN7openpal6Logger8SettingsESaIvELN9__gnu_cxx12_Lock_policyE2EE10_M_destroyEv:
.LFB2724:
	.cfi_startproc
	movl	$56, %esi
	jmp	_ZdlPvm@PLT
	.cfi_endproc
.LFE2724:
	.size	_ZNSt23_Sp_counted_ptr_inplaceIN7openpal6Logger8SettingsESaIvELN9__gnu_cxx12_Lock_policyE2EE10_M_destroyEv, .-_ZNSt23_Sp_counted_ptr_inplaceIN7openpal6Logger8SettingsESaIvELN9__gnu_cxx12_Lock_policyE2EE10_M_destroyEv
	.section	.text._ZNSt23_Sp_counted_ptr_inplaceIN7openpal6Logger8SettingsESaIvELN9__gnu_cxx12_Lock_policyE2EE10_M_disposeEv,"axG",@progbits,_ZNSt23_Sp_counted_ptr_inplaceIN7openpal6Logger8SettingsESaIvELN9__gnu_cxx12_Lock_policyE2EE10_M_disposeEv,comdat
	.align 2
	.p2align 4
	.weak	_ZNSt23_Sp_counted_ptr_inplaceIN7openpal6Logger8SettingsESaIvELN9__gnu_cxx12_Lock_policyE2EE10_M_disposeEv
	.type	_ZNSt23_Sp_counted_ptr_inplaceIN7openpal6Logger8SettingsESaIvELN9__gnu_cxx12_Lock_policyE2EE10_M_disposeEv, @function
_ZNSt23_Sp_counted_ptr_inplaceIN7openpal6Logger8SettingsESaIvELN9__gnu_cxx12_Lock_policyE2EE10_M_disposeEv:
.LFB2723:
	.cfi_startproc
	movq	16(%rdi), %rax
	leaq	32(%rdi), %rdx
	cmpq	%rdx, %rax
	je	.L5
	movq	32(%rdi), %rsi
	movq	%rax, %rdi
	addq	$1, %rsi
	jmp	_ZdlPvm@PLT
	.p2align 4,,10
	.p2align 3
.L5:
	ret
	.cfi_endproc
.LFE2723:
	.size	_ZNSt23_Sp_counted_ptr_inplaceIN7openpal6Logger8SettingsESaIvELN9__gnu_cxx12_Lock_policyE2EE10_M_disposeEv, .-_ZNSt23_Sp_counted_ptr_inplaceIN7openpal6Logger8SettingsESaIvELN9__gnu_cxx12_Lock_policyE2EE10_M_disposeEv
	.section	.text._ZNSt23_Sp_counted_ptr_inplaceIN7openpal6Logger8SettingsESaIvELN9__gnu_cxx12_Lock_policyE2EE14_M_get_deleterERKSt9type_info,"axG",@progbits,_ZNSt23_Sp_counted_ptr_inplaceIN7openpal6Logger8SettingsESaIvELN9__gnu_cxx12_Lock_policyE2EE14_M_get_deleterERKSt9type_info,comdat
	.align 2
	.p2align 4
	.weak	_ZNSt23_Sp_counted_ptr_inplaceIN7openpal6Logger8SettingsESaIvELN9__gnu_cxx12_Lock_policyE2EE14_M_get_deleterERKSt9type_info
	.type	_ZNSt23_Sp_counted_ptr_inplaceIN7openpal6Logger8SettingsESaIvELN9__gnu_cxx12_Lock_policyE2EE14_M_get_deleterERKSt9type_info, @function
_ZNSt23_Sp_counted_ptr_inplaceIN7openpal6Logger8SettingsESaIvELN9__gnu_cxx12_Lock_policyE2EE14_M_get_deleterERKSt9type_info:
.LFB2725:
	.cfi_startproc
	cmpq	_ZZNSt19_Sp_make_shared_tag5_S_tiEvE5__tag@GOTPCREL(%rip), %rsi
	movq	%rdi, %rcx
	je	.L13
	movq	8(%rsi), %rdi
	movq	_ZTSSt19_Sp_make_shared_tag@GOTPCREL(%rip), %rsi
	cmpq	%rsi, %rdi
	je	.L13
	xorl	%edx, %edx
	cmpb	$42, (%rdi)
	je	.L14
	subq	$24, %rsp
	.cfi_def_cfa_offset 32
	movq	%rdx, (%rsp)
	movq	%rcx, 8(%rsp)
	call	strcmp@PLT
	xorl	%edx, %edx
	movq	8(%rsp), %rcx
	testl	%eax, %eax
	jne	.L7
	leaq	16(%rcx), %rdx
.L7:
	movq	%rdx, %rax
	addq	$24, %rsp
	.cfi_def_cfa_offset 8
	ret
	.p2align 4,,10
	.p2align 3
.L13:
	leaq	16(%rcx), %rdx
.L14:
	movq	%rdx, %rax
	ret
	.cfi_endproc
.LFE2725:
	.size	_ZNSt23_Sp_counted_ptr_inplaceIN7openpal6Logger8SettingsESaIvELN9__gnu_cxx12_Lock_policyE2EE14_M_get_deleterERKSt9type_info, .-_ZNSt23_Sp_counted_ptr_inplaceIN7openpal6Logger8SettingsESaIvELN9__gnu_cxx12_Lock_policyE2EE14_M_get_deleterERKSt9type_info
	.text
	.align 2
	.p2align 4
	.globl	_ZNK7openpal6Logger9IsEnabledERKNS_10LogFiltersE
	.type	_ZNK7openpal6Logger9IsEnabledERKNS_10LogFiltersE, @function
_ZNK7openpal6Logger9IsEnabledERKNS_10LogFiltersE:
.LFB2039:
	.cfi_startproc
	xorl	%eax, %eax
	cmpq	$0, (%rdi)
	je	.L17
	movq	16(%rdi), %rax
	movl	32(%rax), %eax
	andl	(%rsi), %eax
	setne	%al
.L17:
	ret
	.cfi_endproc
.LFE2039:
	.size	_ZNK7openpal6Logger9IsEnabledERKNS_10LogFiltersE, .-_ZNK7openpal6Logger9IsEnabledERKNS_10LogFiltersE
	.align 2
	.p2align 4
	.globl	_ZN7openpal6Logger3LogERKNS_10LogFiltersEPKcS5_
	.type	_ZN7openpal6Logger3LogERKNS_10LogFiltersEPKcS5_, @function
_ZN7openpal6Logger3LogERKNS_10LogFiltersEPKcS5_:
.LFB2040:
	.cfi_startproc
	movq	(%rdi), %rax
	testq	%rax, %rax
	je	.L26
	subq	$40, %rsp
	.cfi_def_cfa_offset 48
	movq	16(%rdi), %rdi
	movq	(%rax), %r8
	movl	(%rsi), %esi
	movq	(%rdi), %rdi
	movq	16(%r8), %r8
	movq	%rdx, 16(%rsp)
	movl	%esi, 8(%rsp)
	movq	%rsp, %rsi
	movq	%rdi, (%rsp)
	movq	%rax, %rdi
	movq	%rcx, 24(%rsp)
	call	*%r8
	addq	$40, %rsp
	.cfi_def_cfa_offset 8
	ret
	.p2align 4,,10
	.p2align 3
.L26:
	ret
	.cfi_endproc
.LFE2040:
	.size	_ZN7openpal6Logger3LogERKNS_10LogFiltersEPKcS5_, .-_ZN7openpal6Logger3LogERKNS_10LogFiltersEPKcS5_
	.section	.text._ZNSt16_Sp_counted_baseILN9__gnu_cxx12_Lock_policyE2EE24_M_release_last_use_coldEv,"axG",@progbits,_ZNSt16_Sp_counted_baseILN9__gnu_cxx12_Lock_policyE2EE24_M_release_last_use_coldEv,comdat
	.align 2
	.p2align 4
	.weak	_ZNSt16_Sp_counted_baseILN9__gnu_cxx12_Lock_policyE2EE24_M_release_last_use_coldEv
	.type	_ZNSt16_Sp_counted_baseILN9__gnu_cxx12_Lock_policyE2EE24_M_release_last_use_coldEv, @function
_ZNSt16_Sp_counted_baseILN9__gnu_cxx12_Lock_policyE2EE24_M_release_last_use_coldEv:
.LFB2050:
	.cfi_startproc
	pushq	%rbx
	.cfi_def_cfa_offset 16
	.cfi_offset 3, -16
	movq	(%rdi), %rax
	movq	%rdi, %rbx
	call	*16(%rax)
	movq	__libc_single_threaded@GOTPCREL(%rip), %rax
	cmpb	$0, (%rax)
	je	.L30
	movl	12(%rbx), %eax
	leal	-1(%rax), %edx
	movl	%edx, 12(%rbx)
.L31:
	cmpl	$1, %eax
	je	.L34
	popq	%rbx
	.cfi_remember_state
	.cfi_def_cfa_offset 8
	ret
	.p2align 4,,10
	.p2align 3
.L34:
	.cfi_restore_state
	movq	(%rbx), %rax
	movq	%rbx, %rdi
	popq	%rbx
	.cfi_remember_state
	.cfi_def_cfa_offset 8
	movq	24(%rax), %rax
	jmp	*%rax
	.p2align 4,,10
	.p2align 3
.L30:
	.cfi_restore_state
	movl	$-1, %eax
	lock xaddl	%eax, 12(%rbx)
	jmp	.L31
	.cfi_endproc
.LFE2050:
	.size	_ZNSt16_Sp_counted_baseILN9__gnu_cxx12_Lock_policyE2EE24_M_release_last_use_coldEv, .-_ZNSt16_Sp_counted_baseILN9__gnu_cxx12_Lock_policyE2EE24_M_release_last_use_coldEv
	.section	.text._ZNSt16_Sp_counted_baseILN9__gnu_cxx12_Lock_policyE2EE10_M_releaseEv,"axG",@progbits,_ZNSt16_Sp_counted_baseILN9__gnu_cxx12_Lock_policyE2EE10_M_releaseEv,comdat
	.align 2
	.p2align 4
	.weak	_ZNSt16_Sp_counted_baseILN9__gnu_cxx12_Lock_policyE2EE10_M_releaseEv
	.type	_ZNSt16_Sp_counted_baseILN9__gnu_cxx12_Lock_policyE2EE10_M_releaseEv, @function
_ZNSt16_Sp_counted_baseILN9__gnu_cxx12_Lock_policyE2EE10_M_releaseEv:
.LFB1188:
	.cfi_startproc
	movabsq	$4294967297, %rax
	movq	8(%rdi), %rdx
	cmpq	%rax, %rdx
	je	.L43
	movq	__libc_single_threaded@GOTPCREL(%rip), %rax
	cmpb	$0, (%rax)
	je	.L37
	movl	8(%rdi), %eax
	leal	-1(%rax), %edx
	movl	%edx, 8(%rdi)
.L38:
	cmpl	$1, %eax
	je	.L44
	ret
	.p2align 4,,10
	.p2align 3
.L37:
	leaq	8(%rdi), %rcx
	movl	$-1, %eax
	lock xaddl	%eax, (%rcx)
	jmp	.L38
	.p2align 4,,10
	.p2align 3
.L43:
	subq	$24, %rsp
	.cfi_def_cfa_offset 32
	movq	(%rdi), %rax
	movq	$0, 8(%rdi)
	movq	%rdi, 8(%rsp)
	call	*16(%rax)
	movq	8(%rsp), %rdi
	movq	(%rdi), %rax
	movq	24(%rax), %rax
	addq	$24, %rsp
	.cfi_def_cfa_offset 8
	jmp	*%rax
	.p2align 4,,10
	.p2align 3
.L44:
	jmp	_ZNSt16_Sp_counted_baseILN9__gnu_cxx12_Lock_policyE2EE24_M_release_last_use_coldEv@PLT
	.cfi_endproc
.LFE1188:
	.size	_ZNSt16_Sp_counted_baseILN9__gnu_cxx12_Lock_policyE2EE10_M_releaseEv, .-_ZNSt16_Sp_counted_baseILN9__gnu_cxx12_Lock_policyE2EE10_M_releaseEv
	.section	.text.unlikely,"ax",@progbits
	.align 2
.LCOLDB2:
	.text
.LHOTB2:
	.align 2
	.p2align 4
	.globl	_ZN7openpal6LoggerC2ERKSt10shared_ptrINS_11ILogHandlerEERKNSt7__cxx1112basic_stringIcSt11char_traitsIcESaIcEEENS_10LogFiltersE
	.type	_ZN7openpal6LoggerC2ERKSt10shared_ptrINS_11ILogHandlerEERKNSt7__cxx1112basic_stringIcSt11char_traitsIcESaIcEEENS_10LogFiltersE, @function
_ZN7openpal6LoggerC2ERKSt10shared_ptrINS_11ILogHandlerEERKNSt7__cxx1112basic_stringIcSt11char_traitsIcESaIcEEENS_10LogFiltersE:
.LFB2037:
	.cfi_startproc
	.cfi_personality 0x9b,DW.ref.__gxx_personality_v0
	.cfi_lsda 0x1b,.LLSDA2037
	pushq	%r14
	.cfi_def_cfa_offset 16
	.cfi_offset 14, -16
	pushq	%r13
	.cfi_def_cfa_offset 24
	.cfi_offset 13, -24
	movq	%rdx, %r13
	pushq	%r12
	.cfi_def_cfa_offset 32
	.cfi_offset 12, -32
	movl	%ecx, %r12d
	pushq	%rbp
	.cfi_def_cfa_offset 40
	.cfi_offset 6, -40
	movq	%rdi, %rbp
	pushq	%rbx
	.cfi_def_cfa_offset 48
	.cfi_offset 3, -48
	subq	$16, %rsp
	.cfi_def_cfa_offset 64
	movdqu	(%rsi), %xmm0
	movhlps	%xmm0, %xmm1
	movups	%xmm0, (%rdi)
	movq	%xmm1, %rax
	testq	%rax, %rax
	je	.L46
	movq	__libc_single_threaded@GOTPCREL(%rip), %rdx
	cmpb	$0, (%rdx)
	je	.L47
	addl	$1, 8(%rax)
.L46:
	movq	$0, 16(%rbp)
	movl	$56, %edi
.LEHB0:
	call	_Znwm@PLT
.LEHE0:
	movq	%rax, %rbx
	movq	.LC0(%rip), %rax
	movq	8(%r13), %rdx
	leaq	32(%rbx), %rdi
	movq	0(%r13), %r13
	leaq	16(%rbx), %r14
	movq	%rax, 8(%rbx)
	movq	_ZTVSt23_Sp_counted_ptr_inplaceIN7openpal6Logger8SettingsESaIvELN9__gnu_cxx12_Lock_policyE2EE@GOTPCREL(%rip), %rax
	movq	%rdi, 16(%rbx)
	addq	$16, %rax
	movq	%rdx, 8(%rsp)
	movq	%rax, (%rbx)
	cmpq	$15, %rdx
	ja	.L48
	leaq	1(%rdx), %rcx
	testq	%rdx, %rdx
	je	.L49
.L50:
	movq	%rcx, %rdx
	movq	%r13, %rsi
	call	memcpy@PLT
	movq	8(%rsp), %rax
.L52:
	movq	%rax, 24(%rbx)
	movl	%r12d, 48(%rbx)
	movq	%rbx, 24(%rbp)
	movq	%r14, 16(%rbp)
	addq	$16, %rsp
	.cfi_remember_state
	.cfi_def_cfa_offset 48
	popq	%rbx
	.cfi_def_cfa_offset 40
	popq	%rbp
	.cfi_def_cfa_offset 32
	popq	%r12
	.cfi_def_cfa_offset 24
	popq	%r13
	.cfi_def_cfa_offset 16
	popq	%r14
	.cfi_def_cfa_offset 8
	ret
	.p2align 4,,10
	.p2align 3
.L47:
	.cfi_restore_state
	lock addl	$1, 8(%rax)
	jmp	.L46
	.p2align 4,,10
	.p2align 3
.L49:
	movzbl	0(%r13), %eax
	movb	%al, (%rdi)
	movq	8(%rsp), %rax
	jmp	.L52
	.p2align 4,,10
	.p2align 3
.L48:
	leaq	8(%rsp), %rsi
	xorl	%edx, %edx
	movq	%r14, %rdi
.LEHB1:
	call	_ZNSt7__cxx1112basic_stringIcSt11char_traitsIcESaIcEE9_M_createERmm@PLT
.LEHE1:
	movq	%rax, 16(%rbx)
	movq	%rax, %rdi
	movq	8(%rsp), %rax
	movq	%rax, 32(%rbx)
	leaq	1(%rax), %rcx
	testq	%rax, %rax
	je	.L49
	movq	$-1, %rax
	testq	%rcx, %rcx
	je	.L52
	jmp	.L50
.L58:
	movq	%rax, %r12
	jmp	.L53
.L57:
	movq	%rax, %r12
	jmp	.L54
	.section	.gcc_except_table,"a",@progbits
.LLSDA2037:
	.byte	0xff
	.byte	0xff
	.byte	0x1
	.uleb128 .LLSDACSE2037-.LLSDACSB2037
.LLSDACSB2037:
	.uleb128 .LEHB0-.LFB2037
	.uleb128 .LEHE0-.LEHB0
	.uleb128 .L57-.LFB2037
	.uleb128 0
	.uleb128 .LEHB1-.LFB2037
	.uleb128 .LEHE1-.LEHB1
	.uleb128 .L58-.LFB2037
	.uleb128 0
.LLSDACSE2037:
	.text
	.cfi_endproc
	.section	.text.unlikely
	.cfi_startproc
	.cfi_personality 0x9b,DW.ref.__gxx_personality_v0
	.cfi_lsda 0x1b,.LLSDAC2037
	.type	_ZN7openpal6LoggerC2ERKSt10shared_ptrINS_11ILogHandlerEERKNSt7__cxx1112basic_stringIcSt11char_traitsIcESaIcEEENS_10LogFiltersE.cold, @function
_ZN7openpal6LoggerC2ERKSt10shared_ptrINS_11ILogHandlerEERKNSt7__cxx1112basic_stringIcSt11char_traitsIcESaIcEEENS_10LogFiltersE.cold:
.LFSB2037:
.L53:
	.cfi_def_cfa_offset 64
	.cfi_offset 3, -48
	.cfi_offset 6, -40
	.cfi_offset 12, -32
	.cfi_offset 13, -24
	.cfi_offset 14, -16
	movl	$56, %esi
	movq	%rbx, %rdi
	call	_ZdlPvm@PLT
.L54:
	movq	8(%rbp), %rdi
	testq	%rdi, %rdi
	je	.L55
	call	_ZNSt16_Sp_counted_baseILN9__gnu_cxx12_Lock_policyE2EE10_M_releaseEv@PLT
.L55:
	movq	%r12, %rdi
.LEHB2:
	call	_Unwind_Resume@PLT
.LEHE2:
	.cfi_endproc
.LFE2037:
	.section	.gcc_except_table
.LLSDAC2037:
	.byte	0xff
	.byte	0xff
	.byte	0x1
	.uleb128 .LLSDACSEC2037-.LLSDACSBC2037
.LLSDACSBC2037:
	.uleb128 .LEHB2-.LCOLDB2
	.uleb128 .LEHE2-.LEHB2
	.uleb128 0
	.uleb128 0
.LLSDACSEC2037:
	.section	.text.unlikely
	.text
	.size	_ZN7openpal6LoggerC2ERKSt10shared_ptrINS_11ILogHandlerEERKNSt7__cxx1112basic_stringIcSt11char_traitsIcESaIcEEENS_10LogFiltersE, .-_ZN7openpal6LoggerC2ERKSt10shared_ptrINS_11ILogHandlerEERKNSt7__cxx1112basic_stringIcSt11char_traitsIcESaIcEEENS_10LogFiltersE
	.section	.text.unlikely
	.size	_ZN7openpal6LoggerC2ERKSt10shared_ptrINS_11ILogHandlerEERKNSt7__cxx1112basic_stringIcSt11char_traitsIcESaIcEEENS_10LogFiltersE.cold, .-_ZN7openpal6LoggerC2ERKSt10shared_ptrINS_11ILogHandlerEERKNSt7__cxx1112basic_stringIcSt11char_traitsIcESaIcEEENS_10LogFiltersE.cold
.LCOLDE2:
	.text
.LHOTE2:
	.globl	_ZN7openpal6LoggerC1ERKSt10shared_ptrINS_11ILogHandlerEERKNSt7__cxx1112basic_stringIcSt11char_traitsIcESaIcEEENS_10LogFiltersE
	.set	_ZN7openpal6LoggerC1ERKSt10shared_ptrINS_11ILogHandlerEERKNSt7__cxx1112basic_stringIcSt11char_traitsIcESaIcEEENS_10LogFiltersE,_ZN7openpal6LoggerC2ERKSt10shared_ptrINS_11ILogHandlerEERKNSt7__cxx1112basic_stringIcSt11char_traitsIcESaIcEEENS_10LogFiltersE
	.weak	_ZTSSt11_Mutex_baseILN9__gnu_cxx12_Lock_policyE2EE
	.section	.rodata._ZTSSt11_Mutex_baseILN9__gnu_cxx12_Lock_policyE2EE,"aG",@progbits,_ZTSSt11_Mutex_baseILN9__gnu_cxx12_Lock_policyE2EE,comdat
	.align 32
	.type	_ZTSSt11_Mutex_baseILN9__gnu_cxx12_Lock_policyE2EE, @object
	.size	_ZTSSt11_Mutex_baseILN9__gnu_cxx12_Lock_policyE2EE, 47
_ZTSSt11_Mutex_baseILN9__gnu_cxx12_Lock_policyE2EE:
	.string	"St11_Mutex_baseILN9__gnu_cxx12_Lock_policyE2EE"
	.weak	_ZTISt11_Mutex_baseILN9__gnu_cxx12_Lock_policyE2EE
	.section	.data.rel.ro._ZTISt11_Mutex_baseILN9__gnu_cxx12_Lock_policyE2EE,"awG",@progbits,_ZTISt11_Mutex_baseILN9__gnu_cxx12_Lock_policyE2EE,comdat
	.align 8
	.type	_ZTISt11_Mutex_baseILN9__gnu_cxx12_Lock_policyE2EE, @object
	.size	_ZTISt11_Mutex_baseILN9__gnu_cxx12_Lock_policyE2EE, 16
_ZTISt11_Mutex_baseILN9__gnu_cxx12_Lock_policyE2EE:
	.quad	_ZTVN10__cxxabiv117__class_type_infoE+16
	.quad	_ZTSSt11_Mutex_baseILN9__gnu_cxx12_Lock_policyE2EE
	.weak	_ZTSSt19_Sp_make_shared_tag
	.section	.rodata._ZTSSt19_Sp_make_shared_tag,"aG",@progbits,_ZTSSt19_Sp_make_shared_tag,comdat
	.align 16
	.type	_ZTSSt19_Sp_make_shared_tag, @object
	.size	_ZTSSt19_Sp_make_shared_tag, 24
_ZTSSt19_Sp_make_shared_tag:
	.string	"St19_Sp_make_shared_tag"
	.weak	_ZTSSt16_Sp_counted_baseILN9__gnu_cxx12_Lock_policyE2EE
	.section	.rodata._ZTSSt16_Sp_counted_baseILN9__gnu_cxx12_Lock_policyE2EE,"aG",@progbits,_ZTSSt16_Sp_counted_baseILN9__gnu_cxx12_Lock_policyE2EE,comdat
	.align 32
	.type	_ZTSSt16_Sp_counted_baseILN9__gnu_cxx12_Lock_policyE2EE, @object
	.size	_ZTSSt16_Sp_counted_baseILN9__gnu_cxx12_Lock_policyE2EE, 52
_ZTSSt16_Sp_counted_baseILN9__gnu_cxx12_Lock_policyE2EE:
	.string	"St16_Sp_counted_baseILN9__gnu_cxx12_Lock_policyE2EE"
	.weak	_ZTISt16_Sp_counted_baseILN9__gnu_cxx12_Lock_policyE2EE
	.section	.data.rel.ro._ZTISt16_Sp_counted_baseILN9__gnu_cxx12_Lock_policyE2EE,"awG",@progbits,_ZTISt16_Sp_counted_baseILN9__gnu_cxx12_Lock_policyE2EE,comdat
	.align 8
	.type	_ZTISt16_Sp_counted_baseILN9__gnu_cxx12_Lock_policyE2EE, @object
	.size	_ZTISt16_Sp_counted_baseILN9__gnu_cxx12_Lock_policyE2EE, 24
_ZTISt16_Sp_counted_baseILN9__gnu_cxx12_Lock_policyE2EE:
	.quad	_ZTVN10__cxxabiv120__si_class_type_infoE+16
	.quad	_ZTSSt16_Sp_counted_baseILN9__gnu_cxx12_Lock_policyE2EE
	.quad	_ZTISt11_Mutex_baseILN9__gnu_cxx12_Lock_policyE2EE
	.weak	_ZTSSt23_Sp_counted_ptr_inplaceIN7openpal6Logger8SettingsESaIvELN9__gnu_cxx12_Lock_policyE2EE
	.section	.rodata._ZTSSt23_Sp_counted_ptr_inplaceIN7openpal6Logger8SettingsESaIvELN9__gnu_cxx12_Lock_policyE2EE,"aG",@progbits,_ZTSSt23_Sp_counted_ptr_inplaceIN7openpal6Logger8SettingsESaIvELN9__gnu_cxx12_Lock_policyE2EE,comdat
	.align 32
	.type	_ZTSSt23_Sp_counted_ptr_inplaceIN7openpal6Logger8SettingsESaIvELN9__gnu_cxx12_Lock_policyE2EE, @object
	.size	_ZTSSt23_Sp_counted_ptr_inplaceIN7openpal6Logger8SettingsESaIvELN9__gnu_cxx12_Lock_policyE2EE, 90
_ZTSSt23_Sp_counted_ptr_inplaceIN7openpal6Logger8SettingsESaIvELN9__gnu_cxx12_Lock_policyE2EE:
	.string	"St23_Sp_counted_ptr_inplaceIN7openpal6Logger8SettingsESaIvELN9__gnu_cxx12_Lock_policyE2EE"
	.weak	_ZTISt23_Sp_counted_ptr_inplaceIN7openpal6Logger8SettingsESaIvELN9__gnu_cxx12_Lock_policyE2EE
	.section	.data.rel.ro._ZTISt23_Sp_counted_ptr_inplaceIN7openpal6Logger8SettingsESaIvELN9__gnu_cxx12_Lock_policyE2EE,"awG",@progbits,_ZTISt23_Sp_counted_ptr_inplaceIN7openpal6Logger8SettingsESaIvELN9__gnu_cxx12_Lock_policyE2EE,comdat
	.align 8
	.type	_ZTISt23_Sp_counted_ptr_inplaceIN7openpal6Logger8SettingsESaIvELN9__gnu_cxx12_Lock_policyE2EE, @object
	.size	_ZTISt23_Sp_counted_ptr_inplaceIN7openpal6Logger8SettingsESaIvELN9__gnu_cxx12_Lock_policyE2EE, 24
_ZTISt23_Sp_counted_ptr_inplaceIN7openpal6Logger8SettingsESaIvELN9__gnu_cxx12_Lock_policyE2EE:
	.quad	_ZTVN10__cxxabiv120__si_class_type_infoE+16
	.quad	_ZTSSt23_Sp_counted_ptr_inplaceIN7openpal6Logger8SettingsESaIvELN9__gnu_cxx12_Lock_policyE2EE
	.quad	_ZTISt16_Sp_counted_baseILN9__gnu_cxx12_Lock_policyE2EE
	.weak	_ZTVSt23_Sp_counted_ptr_inplaceIN7openpal6Logger8SettingsESaIvELN9__gnu_cxx12_Lock_policyE2EE
	.section	.data.rel.ro._ZTVSt23_Sp_counted_ptr_inplaceIN7openpal6Logger8SettingsESaIvELN9__gnu_cxx12_Lock_policyE2EE,"awG",@progbits,_ZTVSt23_Sp_counted_ptr_inplaceIN7openpal6Logger8SettingsESaIvELN9__gnu_cxx12_Lock_policyE2EE,comdat
	.align 8
	.type	_ZTVSt23_Sp_counted_ptr_inplaceIN7openpal6Logger8SettingsESaIvELN9__gnu_cxx12_Lock_policyE2EE, @object
	.size	_ZTVSt23_Sp_counted_ptr_inplaceIN7openpal6Logger8SettingsESaIvELN9__gnu_cxx12_Lock_policyE2EE, 56
_ZTVSt23_Sp_counted_ptr_inplaceIN7openpal6Logger8SettingsESaIvELN9__gnu_cxx12_Lock_policyE2EE:
	.quad	0
	.quad	_ZTISt23_Sp_counted_ptr_inplaceIN7openpal6Logger8SettingsESaIvELN9__gnu_cxx12_Lock_policyE2EE
	.quad	_ZNSt23_Sp_counted_ptr_inplaceIN7openpal6Logger8SettingsESaIvELN9__gnu_cxx12_Lock_policyE2EED1Ev
	.quad	_ZNSt23_Sp_counted_ptr_inplaceIN7openpal6Logger8SettingsESaIvELN9__gnu_cxx12_Lock_policyE2EED0Ev
	.quad	_ZNSt23_Sp_counted_ptr_inplaceIN7openpal6Logger8SettingsESaIvELN9__gnu_cxx12_Lock_policyE2EE10_M_disposeEv
	.quad	_ZNSt23_Sp_counted_ptr_inplaceIN7openpal6Logger8SettingsESaIvELN9__gnu_cxx12_Lock_policyE2EE10_M_destroyEv
	.quad	_ZNSt23_Sp_counted_ptr_inplaceIN7openpal6Logger8SettingsESaIvELN9__gnu_cxx12_Lock_policyE2EE14_M_get_deleterERKSt9type_info
	.weak	_ZZNSt19_Sp_make_shared_tag5_S_tiEvE5__tag
	.section	.rodata._ZZNSt19_Sp_make_shared_tag5_S_tiEvE5__tag,"aG",@progbits,_ZZNSt19_Sp_make_shared_tag5_S_tiEvE5__tag,comdat
	.align 8
	.type	_ZZNSt19_Sp_make_shared_tag5_S_tiEvE5__tag, @gnu_unique_object
	.size	_ZZNSt19_Sp_make_shared_tag5_S_tiEvE5__tag, 16
_ZZNSt19_Sp_make_shared_tag5_S_tiEvE5__tag:
	.zero	16
	.section	.rodata.cst8,"aM",@progbits,8
	.align 8
.LC0:
	.long	1
	.long	1
	.hidden	DW.ref.__gxx_personality_v0
	.weak	DW.ref.__gxx_personality_v0
	.section	.data.rel.local.DW.ref.__gxx_personality_v0,"awG",@progbits,DW.ref.__gxx_personality_v0,comdat
	.align 8
	.type	DW.ref.__gxx_personality_v0, @object
	.size	DW.ref.__gxx_personality_v0, 8
DW.ref.__gxx_personality_v0:
	.quad	__gxx_personality_v0
	.globl	__gxx_personality_v0
	.ident	"GCC: (Debian 15.2.0-4) 15.2.0"
	.section	.note.GNU-stack,"",@progbits
