	.file	"CountParser.cpp"
	.text
	.section	.text._ZNK8opendnp318BufferedCollectionINS_12Group120Var4EZNS_11CountParser13InvokeCountOfIS1_EEvRKNS_12HeaderRecordEtRKN7openpal6RSliceERNS_12IAPDUHandlerEEUlRS8_jE_E5CountEv,"axG",@progbits,_ZNK8opendnp318BufferedCollectionINS_12Group120Var4EZNS_11CountParser13InvokeCountOfIS1_EEvRKNS_12HeaderRecordEtRKN7openpal6RSliceERNS_12IAPDUHandlerEEUlRS8_jE_E5CountEv,comdat
	.align 2
	.p2align 4
	.weak	_ZNK8opendnp318BufferedCollectionINS_12Group120Var4EZNS_11CountParser13InvokeCountOfIS1_EEvRKNS_12HeaderRecordEtRKN7openpal6RSliceERNS_12IAPDUHandlerEEUlRS8_jE_E5CountEv
	.type	_ZNK8opendnp318BufferedCollectionINS_12Group120Var4EZNS_11CountParser13InvokeCountOfIS1_EEvRKNS_12HeaderRecordEtRKN7openpal6RSliceERNS_12IAPDUHandlerEEUlRS8_jE_E5CountEv, @function
_ZNK8opendnp318BufferedCollectionINS_12Group120Var4EZNS_11CountParser13InvokeCountOfIS1_EEvRKNS_12HeaderRecordEtRKN7openpal6RSliceERNS_12IAPDUHandlerEEUlRS8_jE_E5CountEv:
.LFB3153:
	.cfi_startproc
	movq	24(%rdi), %rax
	ret
	.cfi_endproc
.LFE3153:
	.size	_ZNK8opendnp318BufferedCollectionINS_12Group120Var4EZNS_11CountParser13InvokeCountOfIS1_EEvRKNS_12HeaderRecordEtRKN7openpal6RSliceERNS_12IAPDUHandlerEEUlRS8_jE_E5CountEv, .-_ZNK8opendnp318BufferedCollectionINS_12Group120Var4EZNS_11CountParser13InvokeCountOfIS1_EEvRKNS_12HeaderRecordEtRKN7openpal6RSliceERNS_12IAPDUHandlerEEUlRS8_jE_E5CountEv
	.section	.text._ZNK8opendnp318BufferedCollectionINS_12Group120Var3EZNS_11CountParser13InvokeCountOfIS1_EEvRKNS_12HeaderRecordEtRKN7openpal6RSliceERNS_12IAPDUHandlerEEUlRS8_jE_E5CountEv,"axG",@progbits,_ZNK8opendnp318BufferedCollectionINS_12Group120Var3EZNS_11CountParser13InvokeCountOfIS1_EEvRKNS_12HeaderRecordEtRKN7openpal6RSliceERNS_12IAPDUHandlerEEUlRS8_jE_E5CountEv,comdat
	.align 2
	.p2align 4
	.weak	_ZNK8opendnp318BufferedCollectionINS_12Group120Var3EZNS_11CountParser13InvokeCountOfIS1_EEvRKNS_12HeaderRecordEtRKN7openpal6RSliceERNS_12IAPDUHandlerEEUlRS8_jE_E5CountEv
	.type	_ZNK8opendnp318BufferedCollectionINS_12Group120Var3EZNS_11CountParser13InvokeCountOfIS1_EEvRKNS_12HeaderRecordEtRKN7openpal6RSliceERNS_12IAPDUHandlerEEUlRS8_jE_E5CountEv, @function
_ZNK8opendnp318BufferedCollectionINS_12Group120Var3EZNS_11CountParser13InvokeCountOfIS1_EEvRKNS_12HeaderRecordEtRKN7openpal6RSliceERNS_12IAPDUHandlerEEUlRS8_jE_E5CountEv:
.LFB3155:
	.cfi_startproc
	movq	24(%rdi), %rax
	ret
	.cfi_endproc
.LFE3155:
	.size	_ZNK8opendnp318BufferedCollectionINS_12Group120Var3EZNS_11CountParser13InvokeCountOfIS1_EEvRKNS_12HeaderRecordEtRKN7openpal6RSliceERNS_12IAPDUHandlerEEUlRS8_jE_E5CountEv, .-_ZNK8opendnp318BufferedCollectionINS_12Group120Var3EZNS_11CountParser13InvokeCountOfIS1_EEvRKNS_12HeaderRecordEtRKN7openpal6RSliceERNS_12IAPDUHandlerEEUlRS8_jE_E5CountEv
	.section	.text._ZNK8opendnp318BufferedCollectionINS_11Group52Var2EZNS_11CountParser13InvokeCountOfIS1_EEvRKNS_12HeaderRecordEtRKN7openpal6RSliceERNS_12IAPDUHandlerEEUlRS8_jE_E5CountEv,"axG",@progbits,_ZNK8opendnp318BufferedCollectionINS_11Group52Var2EZNS_11CountParser13InvokeCountOfIS1_EEvRKNS_12HeaderRecordEtRKN7openpal6RSliceERNS_12IAPDUHandlerEEUlRS8_jE_E5CountEv,comdat
	.align 2
	.p2align 4
	.weak	_ZNK8opendnp318BufferedCollectionINS_11Group52Var2EZNS_11CountParser13InvokeCountOfIS1_EEvRKNS_12HeaderRecordEtRKN7openpal6RSliceERNS_12IAPDUHandlerEEUlRS8_jE_E5CountEv
	.type	_ZNK8opendnp318BufferedCollectionINS_11Group52Var2EZNS_11CountParser13InvokeCountOfIS1_EEvRKNS_12HeaderRecordEtRKN7openpal6RSliceERNS_12IAPDUHandlerEEUlRS8_jE_E5CountEv, @function
_ZNK8opendnp318BufferedCollectionINS_11Group52Var2EZNS_11CountParser13InvokeCountOfIS1_EEvRKNS_12HeaderRecordEtRKN7openpal6RSliceERNS_12IAPDUHandlerEEUlRS8_jE_E5CountEv:
.LFB3157:
	.cfi_startproc
	movq	24(%rdi), %rax
	ret
	.cfi_endproc
.LFE3157:
	.size	_ZNK8opendnp318BufferedCollectionINS_11Group52Var2EZNS_11CountParser13InvokeCountOfIS1_EEvRKNS_12HeaderRecordEtRKN7openpal6RSliceERNS_12IAPDUHandlerEEUlRS8_jE_E5CountEv, .-_ZNK8opendnp318BufferedCollectionINS_11Group52Var2EZNS_11CountParser13InvokeCountOfIS1_EEvRKNS_12HeaderRecordEtRKN7openpal6RSliceERNS_12IAPDUHandlerEEUlRS8_jE_E5CountEv
	.section	.text._ZNK8opendnp318BufferedCollectionINS_11Group52Var1EZNS_11CountParser13InvokeCountOfIS1_EEvRKNS_12HeaderRecordEtRKN7openpal6RSliceERNS_12IAPDUHandlerEEUlRS8_jE_E5CountEv,"axG",@progbits,_ZNK8opendnp318BufferedCollectionINS_11Group52Var1EZNS_11CountParser13InvokeCountOfIS1_EEvRKNS_12HeaderRecordEtRKN7openpal6RSliceERNS_12IAPDUHandlerEEUlRS8_jE_E5CountEv,comdat
	.align 2
	.p2align 4
	.weak	_ZNK8opendnp318BufferedCollectionINS_11Group52Var1EZNS_11CountParser13InvokeCountOfIS1_EEvRKNS_12HeaderRecordEtRKN7openpal6RSliceERNS_12IAPDUHandlerEEUlRS8_jE_E5CountEv
	.type	_ZNK8opendnp318BufferedCollectionINS_11Group52Var1EZNS_11CountParser13InvokeCountOfIS1_EEvRKNS_12HeaderRecordEtRKN7openpal6RSliceERNS_12IAPDUHandlerEEUlRS8_jE_E5CountEv, @function
_ZNK8opendnp318BufferedCollectionINS_11Group52Var1EZNS_11CountParser13InvokeCountOfIS1_EEvRKNS_12HeaderRecordEtRKN7openpal6RSliceERNS_12IAPDUHandlerEEUlRS8_jE_E5CountEv:
.LFB3159:
	.cfi_startproc
	movq	24(%rdi), %rax
	ret
	.cfi_endproc
.LFE3159:
	.size	_ZNK8opendnp318BufferedCollectionINS_11Group52Var1EZNS_11CountParser13InvokeCountOfIS1_EEvRKNS_12HeaderRecordEtRKN7openpal6RSliceERNS_12IAPDUHandlerEEUlRS8_jE_E5CountEv, .-_ZNK8opendnp318BufferedCollectionINS_11Group52Var1EZNS_11CountParser13InvokeCountOfIS1_EEvRKNS_12HeaderRecordEtRKN7openpal6RSliceERNS_12IAPDUHandlerEEUlRS8_jE_E5CountEv
	.section	.text._ZNK8opendnp318BufferedCollectionINS_11Group51Var2EZNS_11CountParser13InvokeCountOfIS1_EEvRKNS_12HeaderRecordEtRKN7openpal6RSliceERNS_12IAPDUHandlerEEUlRS8_jE_E5CountEv,"axG",@progbits,_ZNK8opendnp318BufferedCollectionINS_11Group51Var2EZNS_11CountParser13InvokeCountOfIS1_EEvRKNS_12HeaderRecordEtRKN7openpal6RSliceERNS_12IAPDUHandlerEEUlRS8_jE_E5CountEv,comdat
	.align 2
	.p2align 4
	.weak	_ZNK8opendnp318BufferedCollectionINS_11Group51Var2EZNS_11CountParser13InvokeCountOfIS1_EEvRKNS_12HeaderRecordEtRKN7openpal6RSliceERNS_12IAPDUHandlerEEUlRS8_jE_E5CountEv
	.type	_ZNK8opendnp318BufferedCollectionINS_11Group51Var2EZNS_11CountParser13InvokeCountOfIS1_EEvRKNS_12HeaderRecordEtRKN7openpal6RSliceERNS_12IAPDUHandlerEEUlRS8_jE_E5CountEv, @function
_ZNK8opendnp318BufferedCollectionINS_11Group51Var2EZNS_11CountParser13InvokeCountOfIS1_EEvRKNS_12HeaderRecordEtRKN7openpal6RSliceERNS_12IAPDUHandlerEEUlRS8_jE_E5CountEv:
.LFB3161:
	.cfi_startproc
	movq	24(%rdi), %rax
	ret
	.cfi_endproc
.LFE3161:
	.size	_ZNK8opendnp318BufferedCollectionINS_11Group51Var2EZNS_11CountParser13InvokeCountOfIS1_EEvRKNS_12HeaderRecordEtRKN7openpal6RSliceERNS_12IAPDUHandlerEEUlRS8_jE_E5CountEv, .-_ZNK8opendnp318BufferedCollectionINS_11Group51Var2EZNS_11CountParser13InvokeCountOfIS1_EEvRKNS_12HeaderRecordEtRKN7openpal6RSliceERNS_12IAPDUHandlerEEUlRS8_jE_E5CountEv
	.section	.text._ZNK8opendnp318BufferedCollectionINS_11Group51Var1EZNS_11CountParser13InvokeCountOfIS1_EEvRKNS_12HeaderRecordEtRKN7openpal6RSliceERNS_12IAPDUHandlerEEUlRS8_jE_E5CountEv,"axG",@progbits,_ZNK8opendnp318BufferedCollectionINS_11Group51Var1EZNS_11CountParser13InvokeCountOfIS1_EEvRKNS_12HeaderRecordEtRKN7openpal6RSliceERNS_12IAPDUHandlerEEUlRS8_jE_E5CountEv,comdat
	.align 2
	.p2align 4
	.weak	_ZNK8opendnp318BufferedCollectionINS_11Group51Var1EZNS_11CountParser13InvokeCountOfIS1_EEvRKNS_12HeaderRecordEtRKN7openpal6RSliceERNS_12IAPDUHandlerEEUlRS8_jE_E5CountEv
	.type	_ZNK8opendnp318BufferedCollectionINS_11Group51Var1EZNS_11CountParser13InvokeCountOfIS1_EEvRKNS_12HeaderRecordEtRKN7openpal6RSliceERNS_12IAPDUHandlerEEUlRS8_jE_E5CountEv, @function
_ZNK8opendnp318BufferedCollectionINS_11Group51Var1EZNS_11CountParser13InvokeCountOfIS1_EEvRKNS_12HeaderRecordEtRKN7openpal6RSliceERNS_12IAPDUHandlerEEUlRS8_jE_E5CountEv:
.LFB3163:
	.cfi_startproc
	movq	24(%rdi), %rax
	ret
	.cfi_endproc
.LFE3163:
	.size	_ZNK8opendnp318BufferedCollectionINS_11Group51Var1EZNS_11CountParser13InvokeCountOfIS1_EEvRKNS_12HeaderRecordEtRKN7openpal6RSliceERNS_12IAPDUHandlerEEUlRS8_jE_E5CountEv, .-_ZNK8opendnp318BufferedCollectionINS_11Group51Var1EZNS_11CountParser13InvokeCountOfIS1_EEvRKNS_12HeaderRecordEtRKN7openpal6RSliceERNS_12IAPDUHandlerEEUlRS8_jE_E5CountEv
	.section	.text._ZNK8opendnp318BufferedCollectionINS_11Group50Var1EZNS_11CountParser13InvokeCountOfIS1_EEvRKNS_12HeaderRecordEtRKN7openpal6RSliceERNS_12IAPDUHandlerEEUlRS8_jE_E5CountEv,"axG",@progbits,_ZNK8opendnp318BufferedCollectionINS_11Group50Var1EZNS_11CountParser13InvokeCountOfIS1_EEvRKNS_12HeaderRecordEtRKN7openpal6RSliceERNS_12IAPDUHandlerEEUlRS8_jE_E5CountEv,comdat
	.align 2
	.p2align 4
	.weak	_ZNK8opendnp318BufferedCollectionINS_11Group50Var1EZNS_11CountParser13InvokeCountOfIS1_EEvRKNS_12HeaderRecordEtRKN7openpal6RSliceERNS_12IAPDUHandlerEEUlRS8_jE_E5CountEv
	.type	_ZNK8opendnp318BufferedCollectionINS_11Group50Var1EZNS_11CountParser13InvokeCountOfIS1_EEvRKNS_12HeaderRecordEtRKN7openpal6RSliceERNS_12IAPDUHandlerEEUlRS8_jE_E5CountEv, @function
_ZNK8opendnp318BufferedCollectionINS_11Group50Var1EZNS_11CountParser13InvokeCountOfIS1_EEvRKNS_12HeaderRecordEtRKN7openpal6RSliceERNS_12IAPDUHandlerEEUlRS8_jE_E5CountEv:
.LFB3165:
	.cfi_startproc
	movq	24(%rdi), %rax
	ret
	.cfi_endproc
.LFE3165:
	.size	_ZNK8opendnp318BufferedCollectionINS_11Group50Var1EZNS_11CountParser13InvokeCountOfIS1_EEvRKNS_12HeaderRecordEtRKN7openpal6RSliceERNS_12IAPDUHandlerEEUlRS8_jE_E5CountEv, .-_ZNK8opendnp318BufferedCollectionINS_11Group50Var1EZNS_11CountParser13InvokeCountOfIS1_EEvRKNS_12HeaderRecordEtRKN7openpal6RSliceERNS_12IAPDUHandlerEEUlRS8_jE_E5CountEv
	.section	.text._ZN8opendnp311CountParser13InvokeCountOfINS_11Group50Var1EEEvRKNS_12HeaderRecordEtRKN7openpal6RSliceERNS_12IAPDUHandlerE,"axG",@progbits,_ZN8opendnp311CountParser13InvokeCountOfINS_11Group50Var1EEEvRKNS_12HeaderRecordEtRKN7openpal6RSliceERNS_12IAPDUHandlerE,comdat
	.align 2
	.p2align 4
	.weak	_ZN8opendnp311CountParser13InvokeCountOfINS_11Group50Var1EEEvRKNS_12HeaderRecordEtRKN7openpal6RSliceERNS_12IAPDUHandlerE
	.type	_ZN8opendnp311CountParser13InvokeCountOfINS_11Group50Var1EEEvRKNS_12HeaderRecordEtRKN7openpal6RSliceERNS_12IAPDUHandlerE, @function
_ZN8opendnp311CountParser13InvokeCountOfINS_11Group50Var1EEEvRKNS_12HeaderRecordEtRKN7openpal6RSliceERNS_12IAPDUHandlerE:
.LFB2811:
	.cfi_startproc
	subq	$88, %rsp
	.cfi_def_cfa_offset 96
	movdqu	(%rdx), %xmm0
	movq	_ZTVN8opendnp318BufferedCollectionINS_11Group50Var1EZNS_11CountParser13InvokeCountOfIS1_EEvRKNS_12HeaderRecordEtRKN7openpal6RSliceERNS_12IAPDUHandlerEEUlRS8_jE_EE@GOTPCREL(%rip), %rax
	movw	%si, 16(%rsp)
	leaq	32(%rsp), %rdx
	movups	%xmm0, 40(%rsp)
	addq	$16, %rax
	movdqu	(%rdi), %xmm0
	movq	%rcx, %rdi
	movq	%rax, 32(%rsp)
	movzwl	%si, %eax
	movq	%rsp, %rsi
	movq	%rax, 56(%rsp)
	movaps	%xmm0, (%rsp)
	call	_ZN8opendnp312IAPDUHandler8OnHeaderERKNS_11CountHeaderERKNS_11ICollectionINS_11Group50Var1EEE@PLT
	addq	$88, %rsp
	.cfi_def_cfa_offset 8
	ret
	.cfi_endproc
.LFE2811:
	.size	_ZN8opendnp311CountParser13InvokeCountOfINS_11Group50Var1EEEvRKNS_12HeaderRecordEtRKN7openpal6RSliceERNS_12IAPDUHandlerE, .-_ZN8opendnp311CountParser13InvokeCountOfINS_11Group50Var1EEEvRKNS_12HeaderRecordEtRKN7openpal6RSliceERNS_12IAPDUHandlerE
	.section	.text._ZNK8opendnp318BufferedCollectionINS_11Group50Var1EZNS_11CountParser13InvokeCountOfIS1_EEvRKNS_12HeaderRecordEtRKN7openpal6RSliceERNS_12IAPDUHandlerEEUlRS8_jE_E7ForeachERNS_8IVisitorIS1_EE,"axG",@progbits,_ZNK8opendnp318BufferedCollectionINS_11Group50Var1EZNS_11CountParser13InvokeCountOfIS1_EEvRKNS_12HeaderRecordEtRKN7openpal6RSliceERNS_12IAPDUHandlerEEUlRS8_jE_E7ForeachERNS_8IVisitorIS1_EE,comdat
	.align 2
	.p2align 4
	.weak	_ZNK8opendnp318BufferedCollectionINS_11Group50Var1EZNS_11CountParser13InvokeCountOfIS1_EEvRKNS_12HeaderRecordEtRKN7openpal6RSliceERNS_12IAPDUHandlerEEUlRS8_jE_E7ForeachERNS_8IVisitorIS1_EE
	.type	_ZNK8opendnp318BufferedCollectionINS_11Group50Var1EZNS_11CountParser13InvokeCountOfIS1_EEvRKNS_12HeaderRecordEtRKN7openpal6RSliceERNS_12IAPDUHandlerEEUlRS8_jE_E7ForeachERNS_8IVisitorIS1_EE, @function
_ZNK8opendnp318BufferedCollectionINS_11Group50Var1EZNS_11CountParser13InvokeCountOfIS1_EEvRKNS_12HeaderRecordEtRKN7openpal6RSliceERNS_12IAPDUHandlerEEUlRS8_jE_E7ForeachERNS_8IVisitorIS1_EE:
.LFB3166:
	.cfi_startproc
	pushq	%r15
	.cfi_def_cfa_offset 16
	.cfi_offset 15, -16
	pushq	%r14
	.cfi_def_cfa_offset 24
	.cfi_offset 14, -24
	pushq	%r13
	.cfi_def_cfa_offset 32
	.cfi_offset 13, -32
	pushq	%r12
	.cfi_def_cfa_offset 40
	.cfi_offset 12, -40
	pushq	%rbp
	.cfi_def_cfa_offset 48
	.cfi_offset 6, -48
	pushq	%rbx
	.cfi_def_cfa_offset 56
	.cfi_offset 3, -56
	subq	$40, %rsp
	.cfi_def_cfa_offset 96
	movdqu	8(%rdi), %xmm0
	movaps	%xmm0, 16(%rsp)
	cmpq	$0, 24(%rdi)
	je	.L11
	movq	%rsi, %r12
	movq	%rdi, %r13
	xorl	%ebp, %ebp
	.p2align 4
	.p2align 3
.L13:
	movq	(%r12), %rax
	leaq	8(%rsp), %rdi
	movq	(%rax), %r15
	call	_ZN8opendnp311Group50Var1C1Ev@PLT
	leaq	8(%rsp), %rsi
	leaq	16(%rsp), %rdi
	call	_ZN8opendnp311Group50Var14ReadERN7openpal6RSliceERS0_@PLT
	leaq	8(%rsp), %rsi
	movq	%r12, %rdi
	call	*%r15
	leal	1(%rbp), %eax
	movq	%rax, %rbp
	cmpq	24(%r13), %rax
	jb	.L13
.L11:
	addq	$40, %rsp
	.cfi_def_cfa_offset 56
	popq	%rbx
	.cfi_def_cfa_offset 48
	popq	%rbp
	.cfi_def_cfa_offset 40
	popq	%r12
	.cfi_def_cfa_offset 32
	popq	%r13
	.cfi_def_cfa_offset 24
	popq	%r14
	.cfi_def_cfa_offset 16
	popq	%r15
	.cfi_def_cfa_offset 8
	ret
	.cfi_endproc
.LFE3166:
	.size	_ZNK8opendnp318BufferedCollectionINS_11Group50Var1EZNS_11CountParser13InvokeCountOfIS1_EEvRKNS_12HeaderRecordEtRKN7openpal6RSliceERNS_12IAPDUHandlerEEUlRS8_jE_E7ForeachERNS_8IVisitorIS1_EE, .-_ZNK8opendnp318BufferedCollectionINS_11Group50Var1EZNS_11CountParser13InvokeCountOfIS1_EEvRKNS_12HeaderRecordEtRKN7openpal6RSliceERNS_12IAPDUHandlerEEUlRS8_jE_E7ForeachERNS_8IVisitorIS1_EE
	.section	.text._ZN8opendnp311CountParser13InvokeCountOfINS_11Group51Var1EEEvRKNS_12HeaderRecordEtRKN7openpal6RSliceERNS_12IAPDUHandlerE,"axG",@progbits,_ZN8opendnp311CountParser13InvokeCountOfINS_11Group51Var1EEEvRKNS_12HeaderRecordEtRKN7openpal6RSliceERNS_12IAPDUHandlerE,comdat
	.align 2
	.p2align 4
	.weak	_ZN8opendnp311CountParser13InvokeCountOfINS_11Group51Var1EEEvRKNS_12HeaderRecordEtRKN7openpal6RSliceERNS_12IAPDUHandlerE
	.type	_ZN8opendnp311CountParser13InvokeCountOfINS_11Group51Var1EEEvRKNS_12HeaderRecordEtRKN7openpal6RSliceERNS_12IAPDUHandlerE, @function
_ZN8opendnp311CountParser13InvokeCountOfINS_11Group51Var1EEEvRKNS_12HeaderRecordEtRKN7openpal6RSliceERNS_12IAPDUHandlerE:
.LFB2821:
	.cfi_startproc
	subq	$88, %rsp
	.cfi_def_cfa_offset 96
	movdqu	(%rdx), %xmm0
	movq	_ZTVN8opendnp318BufferedCollectionINS_11Group51Var1EZNS_11CountParser13InvokeCountOfIS1_EEvRKNS_12HeaderRecordEtRKN7openpal6RSliceERNS_12IAPDUHandlerEEUlRS8_jE_EE@GOTPCREL(%rip), %rax
	movw	%si, 16(%rsp)
	leaq	32(%rsp), %rdx
	movups	%xmm0, 40(%rsp)
	addq	$16, %rax
	movdqu	(%rdi), %xmm0
	movq	%rcx, %rdi
	movq	%rax, 32(%rsp)
	movzwl	%si, %eax
	movq	%rsp, %rsi
	movq	%rax, 56(%rsp)
	movaps	%xmm0, (%rsp)
	call	_ZN8opendnp312IAPDUHandler8OnHeaderERKNS_11CountHeaderERKNS_11ICollectionINS_11Group51Var1EEE@PLT
	addq	$88, %rsp
	.cfi_def_cfa_offset 8
	ret
	.cfi_endproc
.LFE2821:
	.size	_ZN8opendnp311CountParser13InvokeCountOfINS_11Group51Var1EEEvRKNS_12HeaderRecordEtRKN7openpal6RSliceERNS_12IAPDUHandlerE, .-_ZN8opendnp311CountParser13InvokeCountOfINS_11Group51Var1EEEvRKNS_12HeaderRecordEtRKN7openpal6RSliceERNS_12IAPDUHandlerE
	.section	.text._ZNK8opendnp318BufferedCollectionINS_11Group51Var1EZNS_11CountParser13InvokeCountOfIS1_EEvRKNS_12HeaderRecordEtRKN7openpal6RSliceERNS_12IAPDUHandlerEEUlRS8_jE_E7ForeachERNS_8IVisitorIS1_EE,"axG",@progbits,_ZNK8opendnp318BufferedCollectionINS_11Group51Var1EZNS_11CountParser13InvokeCountOfIS1_EEvRKNS_12HeaderRecordEtRKN7openpal6RSliceERNS_12IAPDUHandlerEEUlRS8_jE_E7ForeachERNS_8IVisitorIS1_EE,comdat
	.align 2
	.p2align 4
	.weak	_ZNK8opendnp318BufferedCollectionINS_11Group51Var1EZNS_11CountParser13InvokeCountOfIS1_EEvRKNS_12HeaderRecordEtRKN7openpal6RSliceERNS_12IAPDUHandlerEEUlRS8_jE_E7ForeachERNS_8IVisitorIS1_EE
	.type	_ZNK8opendnp318BufferedCollectionINS_11Group51Var1EZNS_11CountParser13InvokeCountOfIS1_EEvRKNS_12HeaderRecordEtRKN7openpal6RSliceERNS_12IAPDUHandlerEEUlRS8_jE_E7ForeachERNS_8IVisitorIS1_EE, @function
_ZNK8opendnp318BufferedCollectionINS_11Group51Var1EZNS_11CountParser13InvokeCountOfIS1_EEvRKNS_12HeaderRecordEtRKN7openpal6RSliceERNS_12IAPDUHandlerEEUlRS8_jE_E7ForeachERNS_8IVisitorIS1_EE:
.LFB3164:
	.cfi_startproc
	pushq	%r15
	.cfi_def_cfa_offset 16
	.cfi_offset 15, -16
	pushq	%r14
	.cfi_def_cfa_offset 24
	.cfi_offset 14, -24
	pushq	%r13
	.cfi_def_cfa_offset 32
	.cfi_offset 13, -32
	pushq	%r12
	.cfi_def_cfa_offset 40
	.cfi_offset 12, -40
	pushq	%rbp
	.cfi_def_cfa_offset 48
	.cfi_offset 6, -48
	pushq	%rbx
	.cfi_def_cfa_offset 56
	.cfi_offset 3, -56
	subq	$40, %rsp
	.cfi_def_cfa_offset 96
	movdqu	8(%rdi), %xmm0
	movaps	%xmm0, 16(%rsp)
	cmpq	$0, 24(%rdi)
	je	.L18
	movq	%rsi, %r12
	movq	%rdi, %r13
	xorl	%ebp, %ebp
	.p2align 4
	.p2align 3
.L20:
	movq	(%r12), %rax
	leaq	8(%rsp), %rdi
	movq	(%rax), %r15
	call	_ZN8opendnp311Group51Var1C1Ev@PLT
	leaq	8(%rsp), %rsi
	leaq	16(%rsp), %rdi
	call	_ZN8opendnp311Group51Var14ReadERN7openpal6RSliceERS0_@PLT
	leaq	8(%rsp), %rsi
	movq	%r12, %rdi
	call	*%r15
	leal	1(%rbp), %eax
	movq	%rax, %rbp
	cmpq	24(%r13), %rax
	jb	.L20
.L18:
	addq	$40, %rsp
	.cfi_def_cfa_offset 56
	popq	%rbx
	.cfi_def_cfa_offset 48
	popq	%rbp
	.cfi_def_cfa_offset 40
	popq	%r12
	.cfi_def_cfa_offset 32
	popq	%r13
	.cfi_def_cfa_offset 24
	popq	%r14
	.cfi_def_cfa_offset 16
	popq	%r15
	.cfi_def_cfa_offset 8
	ret
	.cfi_endproc
.LFE3164:
	.size	_ZNK8opendnp318BufferedCollectionINS_11Group51Var1EZNS_11CountParser13InvokeCountOfIS1_EEvRKNS_12HeaderRecordEtRKN7openpal6RSliceERNS_12IAPDUHandlerEEUlRS8_jE_E7ForeachERNS_8IVisitorIS1_EE, .-_ZNK8opendnp318BufferedCollectionINS_11Group51Var1EZNS_11CountParser13InvokeCountOfIS1_EEvRKNS_12HeaderRecordEtRKN7openpal6RSliceERNS_12IAPDUHandlerEEUlRS8_jE_E7ForeachERNS_8IVisitorIS1_EE
	.section	.text._ZN8opendnp311CountParser13InvokeCountOfINS_11Group51Var2EEEvRKNS_12HeaderRecordEtRKN7openpal6RSliceERNS_12IAPDUHandlerE,"axG",@progbits,_ZN8opendnp311CountParser13InvokeCountOfINS_11Group51Var2EEEvRKNS_12HeaderRecordEtRKN7openpal6RSliceERNS_12IAPDUHandlerE,comdat
	.align 2
	.p2align 4
	.weak	_ZN8opendnp311CountParser13InvokeCountOfINS_11Group51Var2EEEvRKNS_12HeaderRecordEtRKN7openpal6RSliceERNS_12IAPDUHandlerE
	.type	_ZN8opendnp311CountParser13InvokeCountOfINS_11Group51Var2EEEvRKNS_12HeaderRecordEtRKN7openpal6RSliceERNS_12IAPDUHandlerE, @function
_ZN8opendnp311CountParser13InvokeCountOfINS_11Group51Var2EEEvRKNS_12HeaderRecordEtRKN7openpal6RSliceERNS_12IAPDUHandlerE:
.LFB2831:
	.cfi_startproc
	subq	$88, %rsp
	.cfi_def_cfa_offset 96
	movdqu	(%rdx), %xmm0
	movq	_ZTVN8opendnp318BufferedCollectionINS_11Group51Var2EZNS_11CountParser13InvokeCountOfIS1_EEvRKNS_12HeaderRecordEtRKN7openpal6RSliceERNS_12IAPDUHandlerEEUlRS8_jE_EE@GOTPCREL(%rip), %rax
	movw	%si, 16(%rsp)
	leaq	32(%rsp), %rdx
	movups	%xmm0, 40(%rsp)
	addq	$16, %rax
	movdqu	(%rdi), %xmm0
	movq	%rcx, %rdi
	movq	%rax, 32(%rsp)
	movzwl	%si, %eax
	movq	%rsp, %rsi
	movq	%rax, 56(%rsp)
	movaps	%xmm0, (%rsp)
	call	_ZN8opendnp312IAPDUHandler8OnHeaderERKNS_11CountHeaderERKNS_11ICollectionINS_11Group51Var2EEE@PLT
	addq	$88, %rsp
	.cfi_def_cfa_offset 8
	ret
	.cfi_endproc
.LFE2831:
	.size	_ZN8opendnp311CountParser13InvokeCountOfINS_11Group51Var2EEEvRKNS_12HeaderRecordEtRKN7openpal6RSliceERNS_12IAPDUHandlerE, .-_ZN8opendnp311CountParser13InvokeCountOfINS_11Group51Var2EEEvRKNS_12HeaderRecordEtRKN7openpal6RSliceERNS_12IAPDUHandlerE
	.section	.text._ZNK8opendnp318BufferedCollectionINS_11Group51Var2EZNS_11CountParser13InvokeCountOfIS1_EEvRKNS_12HeaderRecordEtRKN7openpal6RSliceERNS_12IAPDUHandlerEEUlRS8_jE_E7ForeachERNS_8IVisitorIS1_EE,"axG",@progbits,_ZNK8opendnp318BufferedCollectionINS_11Group51Var2EZNS_11CountParser13InvokeCountOfIS1_EEvRKNS_12HeaderRecordEtRKN7openpal6RSliceERNS_12IAPDUHandlerEEUlRS8_jE_E7ForeachERNS_8IVisitorIS1_EE,comdat
	.align 2
	.p2align 4
	.weak	_ZNK8opendnp318BufferedCollectionINS_11Group51Var2EZNS_11CountParser13InvokeCountOfIS1_EEvRKNS_12HeaderRecordEtRKN7openpal6RSliceERNS_12IAPDUHandlerEEUlRS8_jE_E7ForeachERNS_8IVisitorIS1_EE
	.type	_ZNK8opendnp318BufferedCollectionINS_11Group51Var2EZNS_11CountParser13InvokeCountOfIS1_EEvRKNS_12HeaderRecordEtRKN7openpal6RSliceERNS_12IAPDUHandlerEEUlRS8_jE_E7ForeachERNS_8IVisitorIS1_EE, @function
_ZNK8opendnp318BufferedCollectionINS_11Group51Var2EZNS_11CountParser13InvokeCountOfIS1_EEvRKNS_12HeaderRecordEtRKN7openpal6RSliceERNS_12IAPDUHandlerEEUlRS8_jE_E7ForeachERNS_8IVisitorIS1_EE:
.LFB3162:
	.cfi_startproc
	pushq	%r15
	.cfi_def_cfa_offset 16
	.cfi_offset 15, -16
	pushq	%r14
	.cfi_def_cfa_offset 24
	.cfi_offset 14, -24
	pushq	%r13
	.cfi_def_cfa_offset 32
	.cfi_offset 13, -32
	pushq	%r12
	.cfi_def_cfa_offset 40
	.cfi_offset 12, -40
	pushq	%rbp
	.cfi_def_cfa_offset 48
	.cfi_offset 6, -48
	pushq	%rbx
	.cfi_def_cfa_offset 56
	.cfi_offset 3, -56
	subq	$40, %rsp
	.cfi_def_cfa_offset 96
	movdqu	8(%rdi), %xmm0
	movaps	%xmm0, 16(%rsp)
	cmpq	$0, 24(%rdi)
	je	.L25
	movq	%rsi, %r12
	movq	%rdi, %r13
	xorl	%ebp, %ebp
	.p2align 4
	.p2align 3
.L27:
	movq	(%r12), %rax
	leaq	8(%rsp), %rdi
	movq	(%rax), %r15
	call	_ZN8opendnp311Group51Var2C1Ev@PLT
	leaq	8(%rsp), %rsi
	leaq	16(%rsp), %rdi
	call	_ZN8opendnp311Group51Var24ReadERN7openpal6RSliceERS0_@PLT
	leaq	8(%rsp), %rsi
	movq	%r12, %rdi
	call	*%r15
	leal	1(%rbp), %eax
	movq	%rax, %rbp
	cmpq	24(%r13), %rax
	jb	.L27
.L25:
	addq	$40, %rsp
	.cfi_def_cfa_offset 56
	popq	%rbx
	.cfi_def_cfa_offset 48
	popq	%rbp
	.cfi_def_cfa_offset 40
	popq	%r12
	.cfi_def_cfa_offset 32
	popq	%r13
	.cfi_def_cfa_offset 24
	popq	%r14
	.cfi_def_cfa_offset 16
	popq	%r15
	.cfi_def_cfa_offset 8
	ret
	.cfi_endproc
.LFE3162:
	.size	_ZNK8opendnp318BufferedCollectionINS_11Group51Var2EZNS_11CountParser13InvokeCountOfIS1_EEvRKNS_12HeaderRecordEtRKN7openpal6RSliceERNS_12IAPDUHandlerEEUlRS8_jE_E7ForeachERNS_8IVisitorIS1_EE, .-_ZNK8opendnp318BufferedCollectionINS_11Group51Var2EZNS_11CountParser13InvokeCountOfIS1_EEvRKNS_12HeaderRecordEtRKN7openpal6RSliceERNS_12IAPDUHandlerEEUlRS8_jE_E7ForeachERNS_8IVisitorIS1_EE
	.section	.text._ZN8opendnp311CountParser13InvokeCountOfINS_11Group52Var1EEEvRKNS_12HeaderRecordEtRKN7openpal6RSliceERNS_12IAPDUHandlerE,"axG",@progbits,_ZN8opendnp311CountParser13InvokeCountOfINS_11Group52Var1EEEvRKNS_12HeaderRecordEtRKN7openpal6RSliceERNS_12IAPDUHandlerE,comdat
	.align 2
	.p2align 4
	.weak	_ZN8opendnp311CountParser13InvokeCountOfINS_11Group52Var1EEEvRKNS_12HeaderRecordEtRKN7openpal6RSliceERNS_12IAPDUHandlerE
	.type	_ZN8opendnp311CountParser13InvokeCountOfINS_11Group52Var1EEEvRKNS_12HeaderRecordEtRKN7openpal6RSliceERNS_12IAPDUHandlerE, @function
_ZN8opendnp311CountParser13InvokeCountOfINS_11Group52Var1EEEvRKNS_12HeaderRecordEtRKN7openpal6RSliceERNS_12IAPDUHandlerE:
.LFB2841:
	.cfi_startproc
	subq	$88, %rsp
	.cfi_def_cfa_offset 96
	movdqu	(%rdx), %xmm0
	movq	_ZTVN8opendnp318BufferedCollectionINS_11Group52Var1EZNS_11CountParser13InvokeCountOfIS1_EEvRKNS_12HeaderRecordEtRKN7openpal6RSliceERNS_12IAPDUHandlerEEUlRS8_jE_EE@GOTPCREL(%rip), %rax
	movw	%si, 16(%rsp)
	leaq	32(%rsp), %rdx
	movups	%xmm0, 40(%rsp)
	addq	$16, %rax
	movdqu	(%rdi), %xmm0
	movq	%rcx, %rdi
	movq	%rax, 32(%rsp)
	movzwl	%si, %eax
	movq	%rsp, %rsi
	movq	%rax, 56(%rsp)
	movaps	%xmm0, (%rsp)
	call	_ZN8opendnp312IAPDUHandler8OnHeaderERKNS_11CountHeaderERKNS_11ICollectionINS_11Group52Var1EEE@PLT
	addq	$88, %rsp
	.cfi_def_cfa_offset 8
	ret
	.cfi_endproc
.LFE2841:
	.size	_ZN8opendnp311CountParser13InvokeCountOfINS_11Group52Var1EEEvRKNS_12HeaderRecordEtRKN7openpal6RSliceERNS_12IAPDUHandlerE, .-_ZN8opendnp311CountParser13InvokeCountOfINS_11Group52Var1EEEvRKNS_12HeaderRecordEtRKN7openpal6RSliceERNS_12IAPDUHandlerE
	.section	.text._ZNK8opendnp318BufferedCollectionINS_11Group52Var1EZNS_11CountParser13InvokeCountOfIS1_EEvRKNS_12HeaderRecordEtRKN7openpal6RSliceERNS_12IAPDUHandlerEEUlRS8_jE_E7ForeachERNS_8IVisitorIS1_EE,"axG",@progbits,_ZNK8opendnp318BufferedCollectionINS_11Group52Var1EZNS_11CountParser13InvokeCountOfIS1_EEvRKNS_12HeaderRecordEtRKN7openpal6RSliceERNS_12IAPDUHandlerEEUlRS8_jE_E7ForeachERNS_8IVisitorIS1_EE,comdat
	.align 2
	.p2align 4
	.weak	_ZNK8opendnp318BufferedCollectionINS_11Group52Var1EZNS_11CountParser13InvokeCountOfIS1_EEvRKNS_12HeaderRecordEtRKN7openpal6RSliceERNS_12IAPDUHandlerEEUlRS8_jE_E7ForeachERNS_8IVisitorIS1_EE
	.type	_ZNK8opendnp318BufferedCollectionINS_11Group52Var1EZNS_11CountParser13InvokeCountOfIS1_EEvRKNS_12HeaderRecordEtRKN7openpal6RSliceERNS_12IAPDUHandlerEEUlRS8_jE_E7ForeachERNS_8IVisitorIS1_EE, @function
_ZNK8opendnp318BufferedCollectionINS_11Group52Var1EZNS_11CountParser13InvokeCountOfIS1_EEvRKNS_12HeaderRecordEtRKN7openpal6RSliceERNS_12IAPDUHandlerEEUlRS8_jE_E7ForeachERNS_8IVisitorIS1_EE:
.LFB3160:
	.cfi_startproc
	pushq	%r15
	.cfi_def_cfa_offset 16
	.cfi_offset 15, -16
	pushq	%r14
	.cfi_def_cfa_offset 24
	.cfi_offset 14, -24
	pushq	%r13
	.cfi_def_cfa_offset 32
	.cfi_offset 13, -32
	pushq	%r12
	.cfi_def_cfa_offset 40
	.cfi_offset 12, -40
	pushq	%rbp
	.cfi_def_cfa_offset 48
	.cfi_offset 6, -48
	pushq	%rbx
	.cfi_def_cfa_offset 56
	.cfi_offset 3, -56
	subq	$40, %rsp
	.cfi_def_cfa_offset 96
	movdqu	8(%rdi), %xmm0
	movaps	%xmm0, 16(%rsp)
	cmpq	$0, 24(%rdi)
	je	.L32
	movq	%rsi, %r12
	movq	%rdi, %r13
	xorl	%ebp, %ebp
	.p2align 4
	.p2align 3
.L34:
	movq	(%r12), %rax
	leaq	14(%rsp), %rdi
	movq	(%rax), %r15
	call	_ZN8opendnp311Group52Var1C1Ev@PLT
	leaq	14(%rsp), %rsi
	leaq	16(%rsp), %rdi
	call	_ZN8opendnp311Group52Var14ReadERN7openpal6RSliceERS0_@PLT
	leaq	14(%rsp), %rsi
	movq	%r12, %rdi
	call	*%r15
	leal	1(%rbp), %eax
	movq	%rax, %rbp
	cmpq	24(%r13), %rax
	jb	.L34
.L32:
	addq	$40, %rsp
	.cfi_def_cfa_offset 56
	popq	%rbx
	.cfi_def_cfa_offset 48
	popq	%rbp
	.cfi_def_cfa_offset 40
	popq	%r12
	.cfi_def_cfa_offset 32
	popq	%r13
	.cfi_def_cfa_offset 24
	popq	%r14
	.cfi_def_cfa_offset 16
	popq	%r15
	.cfi_def_cfa_offset 8
	ret
	.cfi_endproc
.LFE3160:
	.size	_ZNK8opendnp318BufferedCollectionINS_11Group52Var1EZNS_11CountParser13InvokeCountOfIS1_EEvRKNS_12HeaderRecordEtRKN7openpal6RSliceERNS_12IAPDUHandlerEEUlRS8_jE_E7ForeachERNS_8IVisitorIS1_EE, .-_ZNK8opendnp318BufferedCollectionINS_11Group52Var1EZNS_11CountParser13InvokeCountOfIS1_EEvRKNS_12HeaderRecordEtRKN7openpal6RSliceERNS_12IAPDUHandlerEEUlRS8_jE_E7ForeachERNS_8IVisitorIS1_EE
	.section	.text._ZN8opendnp311CountParser13InvokeCountOfINS_11Group52Var2EEEvRKNS_12HeaderRecordEtRKN7openpal6RSliceERNS_12IAPDUHandlerE,"axG",@progbits,_ZN8opendnp311CountParser13InvokeCountOfINS_11Group52Var2EEEvRKNS_12HeaderRecordEtRKN7openpal6RSliceERNS_12IAPDUHandlerE,comdat
	.align 2
	.p2align 4
	.weak	_ZN8opendnp311CountParser13InvokeCountOfINS_11Group52Var2EEEvRKNS_12HeaderRecordEtRKN7openpal6RSliceERNS_12IAPDUHandlerE
	.type	_ZN8opendnp311CountParser13InvokeCountOfINS_11Group52Var2EEEvRKNS_12HeaderRecordEtRKN7openpal6RSliceERNS_12IAPDUHandlerE, @function
_ZN8opendnp311CountParser13InvokeCountOfINS_11Group52Var2EEEvRKNS_12HeaderRecordEtRKN7openpal6RSliceERNS_12IAPDUHandlerE:
.LFB2851:
	.cfi_startproc
	subq	$88, %rsp
	.cfi_def_cfa_offset 96
	movdqu	(%rdx), %xmm0
	movq	_ZTVN8opendnp318BufferedCollectionINS_11Group52Var2EZNS_11CountParser13InvokeCountOfIS1_EEvRKNS_12HeaderRecordEtRKN7openpal6RSliceERNS_12IAPDUHandlerEEUlRS8_jE_EE@GOTPCREL(%rip), %rax
	movw	%si, 16(%rsp)
	leaq	32(%rsp), %rdx
	movups	%xmm0, 40(%rsp)
	addq	$16, %rax
	movdqu	(%rdi), %xmm0
	movq	%rcx, %rdi
	movq	%rax, 32(%rsp)
	movzwl	%si, %eax
	movq	%rsp, %rsi
	movq	%rax, 56(%rsp)
	movaps	%xmm0, (%rsp)
	call	_ZN8opendnp312IAPDUHandler8OnHeaderERKNS_11CountHeaderERKNS_11ICollectionINS_11Group52Var2EEE@PLT
	addq	$88, %rsp
	.cfi_def_cfa_offset 8
	ret
	.cfi_endproc
.LFE2851:
	.size	_ZN8opendnp311CountParser13InvokeCountOfINS_11Group52Var2EEEvRKNS_12HeaderRecordEtRKN7openpal6RSliceERNS_12IAPDUHandlerE, .-_ZN8opendnp311CountParser13InvokeCountOfINS_11Group52Var2EEEvRKNS_12HeaderRecordEtRKN7openpal6RSliceERNS_12IAPDUHandlerE
	.section	.text._ZNK8opendnp318BufferedCollectionINS_11Group52Var2EZNS_11CountParser13InvokeCountOfIS1_EEvRKNS_12HeaderRecordEtRKN7openpal6RSliceERNS_12IAPDUHandlerEEUlRS8_jE_E7ForeachERNS_8IVisitorIS1_EE,"axG",@progbits,_ZNK8opendnp318BufferedCollectionINS_11Group52Var2EZNS_11CountParser13InvokeCountOfIS1_EEvRKNS_12HeaderRecordEtRKN7openpal6RSliceERNS_12IAPDUHandlerEEUlRS8_jE_E7ForeachERNS_8IVisitorIS1_EE,comdat
	.align 2
	.p2align 4
	.weak	_ZNK8opendnp318BufferedCollectionINS_11Group52Var2EZNS_11CountParser13InvokeCountOfIS1_EEvRKNS_12HeaderRecordEtRKN7openpal6RSliceERNS_12IAPDUHandlerEEUlRS8_jE_E7ForeachERNS_8IVisitorIS1_EE
	.type	_ZNK8opendnp318BufferedCollectionINS_11Group52Var2EZNS_11CountParser13InvokeCountOfIS1_EEvRKNS_12HeaderRecordEtRKN7openpal6RSliceERNS_12IAPDUHandlerEEUlRS8_jE_E7ForeachERNS_8IVisitorIS1_EE, @function
_ZNK8opendnp318BufferedCollectionINS_11Group52Var2EZNS_11CountParser13InvokeCountOfIS1_EEvRKNS_12HeaderRecordEtRKN7openpal6RSliceERNS_12IAPDUHandlerEEUlRS8_jE_E7ForeachERNS_8IVisitorIS1_EE:
.LFB3158:
	.cfi_startproc
	pushq	%r15
	.cfi_def_cfa_offset 16
	.cfi_offset 15, -16
	pushq	%r14
	.cfi_def_cfa_offset 24
	.cfi_offset 14, -24
	pushq	%r13
	.cfi_def_cfa_offset 32
	.cfi_offset 13, -32
	pushq	%r12
	.cfi_def_cfa_offset 40
	.cfi_offset 12, -40
	pushq	%rbp
	.cfi_def_cfa_offset 48
	.cfi_offset 6, -48
	pushq	%rbx
	.cfi_def_cfa_offset 56
	.cfi_offset 3, -56
	subq	$40, %rsp
	.cfi_def_cfa_offset 96
	movdqu	8(%rdi), %xmm0
	movaps	%xmm0, 16(%rsp)
	cmpq	$0, 24(%rdi)
	je	.L39
	movq	%rsi, %r12
	movq	%rdi, %r13
	xorl	%ebp, %ebp
	.p2align 4
	.p2align 3
.L41:
	movq	(%r12), %rax
	leaq	14(%rsp), %rdi
	movq	(%rax), %r15
	call	_ZN8opendnp311Group52Var2C1Ev@PLT
	leaq	14(%rsp), %rsi
	leaq	16(%rsp), %rdi
	call	_ZN8opendnp311Group52Var24ReadERN7openpal6RSliceERS0_@PLT
	leaq	14(%rsp), %rsi
	movq	%r12, %rdi
	call	*%r15
	leal	1(%rbp), %eax
	movq	%rax, %rbp
	cmpq	24(%r13), %rax
	jb	.L41
.L39:
	addq	$40, %rsp
	.cfi_def_cfa_offset 56
	popq	%rbx
	.cfi_def_cfa_offset 48
	popq	%rbp
	.cfi_def_cfa_offset 40
	popq	%r12
	.cfi_def_cfa_offset 32
	popq	%r13
	.cfi_def_cfa_offset 24
	popq	%r14
	.cfi_def_cfa_offset 16
	popq	%r15
	.cfi_def_cfa_offset 8
	ret
	.cfi_endproc
.LFE3158:
	.size	_ZNK8opendnp318BufferedCollectionINS_11Group52Var2EZNS_11CountParser13InvokeCountOfIS1_EEvRKNS_12HeaderRecordEtRKN7openpal6RSliceERNS_12IAPDUHandlerEEUlRS8_jE_E7ForeachERNS_8IVisitorIS1_EE, .-_ZNK8opendnp318BufferedCollectionINS_11Group52Var2EZNS_11CountParser13InvokeCountOfIS1_EEvRKNS_12HeaderRecordEtRKN7openpal6RSliceERNS_12IAPDUHandlerEEUlRS8_jE_E7ForeachERNS_8IVisitorIS1_EE
	.section	.text._ZN8opendnp311CountParser13InvokeCountOfINS_12Group120Var3EEEvRKNS_12HeaderRecordEtRKN7openpal6RSliceERNS_12IAPDUHandlerE,"axG",@progbits,_ZN8opendnp311CountParser13InvokeCountOfINS_12Group120Var3EEEvRKNS_12HeaderRecordEtRKN7openpal6RSliceERNS_12IAPDUHandlerE,comdat
	.align 2
	.p2align 4
	.weak	_ZN8opendnp311CountParser13InvokeCountOfINS_12Group120Var3EEEvRKNS_12HeaderRecordEtRKN7openpal6RSliceERNS_12IAPDUHandlerE
	.type	_ZN8opendnp311CountParser13InvokeCountOfINS_12Group120Var3EEEvRKNS_12HeaderRecordEtRKN7openpal6RSliceERNS_12IAPDUHandlerE, @function
_ZN8opendnp311CountParser13InvokeCountOfINS_12Group120Var3EEEvRKNS_12HeaderRecordEtRKN7openpal6RSliceERNS_12IAPDUHandlerE:
.LFB2861:
	.cfi_startproc
	subq	$88, %rsp
	.cfi_def_cfa_offset 96
	movdqu	(%rdx), %xmm0
	movq	_ZTVN8opendnp318BufferedCollectionINS_12Group120Var3EZNS_11CountParser13InvokeCountOfIS1_EEvRKNS_12HeaderRecordEtRKN7openpal6RSliceERNS_12IAPDUHandlerEEUlRS8_jE_EE@GOTPCREL(%rip), %rax
	movw	%si, 16(%rsp)
	leaq	32(%rsp), %rdx
	movups	%xmm0, 40(%rsp)
	addq	$16, %rax
	movdqu	(%rdi), %xmm0
	movq	%rcx, %rdi
	movq	%rax, 32(%rsp)
	movzwl	%si, %eax
	movq	%rsp, %rsi
	movq	%rax, 56(%rsp)
	movaps	%xmm0, (%rsp)
	call	_ZN8opendnp312IAPDUHandler8OnHeaderERKNS_11CountHeaderERKNS_11ICollectionINS_12Group120Var3EEE@PLT
	addq	$88, %rsp
	.cfi_def_cfa_offset 8
	ret
	.cfi_endproc
.LFE2861:
	.size	_ZN8opendnp311CountParser13InvokeCountOfINS_12Group120Var3EEEvRKNS_12HeaderRecordEtRKN7openpal6RSliceERNS_12IAPDUHandlerE, .-_ZN8opendnp311CountParser13InvokeCountOfINS_12Group120Var3EEEvRKNS_12HeaderRecordEtRKN7openpal6RSliceERNS_12IAPDUHandlerE
	.section	.text._ZNK8opendnp318BufferedCollectionINS_12Group120Var3EZNS_11CountParser13InvokeCountOfIS1_EEvRKNS_12HeaderRecordEtRKN7openpal6RSliceERNS_12IAPDUHandlerEEUlRS8_jE_E7ForeachERNS_8IVisitorIS1_EE,"axG",@progbits,_ZNK8opendnp318BufferedCollectionINS_12Group120Var3EZNS_11CountParser13InvokeCountOfIS1_EEvRKNS_12HeaderRecordEtRKN7openpal6RSliceERNS_12IAPDUHandlerEEUlRS8_jE_E7ForeachERNS_8IVisitorIS1_EE,comdat
	.align 2
	.p2align 4
	.weak	_ZNK8opendnp318BufferedCollectionINS_12Group120Var3EZNS_11CountParser13InvokeCountOfIS1_EEvRKNS_12HeaderRecordEtRKN7openpal6RSliceERNS_12IAPDUHandlerEEUlRS8_jE_E7ForeachERNS_8IVisitorIS1_EE
	.type	_ZNK8opendnp318BufferedCollectionINS_12Group120Var3EZNS_11CountParser13InvokeCountOfIS1_EEvRKNS_12HeaderRecordEtRKN7openpal6RSliceERNS_12IAPDUHandlerEEUlRS8_jE_E7ForeachERNS_8IVisitorIS1_EE, @function
_ZNK8opendnp318BufferedCollectionINS_12Group120Var3EZNS_11CountParser13InvokeCountOfIS1_EEvRKNS_12HeaderRecordEtRKN7openpal6RSliceERNS_12IAPDUHandlerEEUlRS8_jE_E7ForeachERNS_8IVisitorIS1_EE:
.LFB3156:
	.cfi_startproc
	pushq	%r15
	.cfi_def_cfa_offset 16
	.cfi_offset 15, -16
	pushq	%r14
	.cfi_def_cfa_offset 24
	.cfi_offset 14, -24
	pushq	%r13
	.cfi_def_cfa_offset 32
	.cfi_offset 13, -32
	pushq	%r12
	.cfi_def_cfa_offset 40
	.cfi_offset 12, -40
	pushq	%rbp
	.cfi_def_cfa_offset 48
	.cfi_offset 6, -48
	pushq	%rbx
	.cfi_def_cfa_offset 56
	.cfi_offset 3, -56
	subq	$40, %rsp
	.cfi_def_cfa_offset 96
	movdqu	8(%rdi), %xmm0
	movaps	%xmm0, 16(%rsp)
	cmpq	$0, 24(%rdi)
	je	.L46
	movq	%rsi, %r12
	movq	%rdi, %r13
	xorl	%ebp, %ebp
	.p2align 4
	.p2align 3
.L48:
	movq	(%r12), %rax
	leaq	8(%rsp), %rdi
	movq	(%rax), %r15
	call	_ZN8opendnp312Group120Var3C1Ev@PLT
	leaq	8(%rsp), %rsi
	leaq	16(%rsp), %rdi
	call	_ZN8opendnp312Group120Var34ReadERN7openpal6RSliceERS0_@PLT
	leaq	8(%rsp), %rsi
	movq	%r12, %rdi
	call	*%r15
	leal	1(%rbp), %eax
	movq	%rax, %rbp
	cmpq	24(%r13), %rax
	jb	.L48
.L46:
	addq	$40, %rsp
	.cfi_def_cfa_offset 56
	popq	%rbx
	.cfi_def_cfa_offset 48
	popq	%rbp
	.cfi_def_cfa_offset 40
	popq	%r12
	.cfi_def_cfa_offset 32
	popq	%r13
	.cfi_def_cfa_offset 24
	popq	%r14
	.cfi_def_cfa_offset 16
	popq	%r15
	.cfi_def_cfa_offset 8
	ret
	.cfi_endproc
.LFE3156:
	.size	_ZNK8opendnp318BufferedCollectionINS_12Group120Var3EZNS_11CountParser13InvokeCountOfIS1_EEvRKNS_12HeaderRecordEtRKN7openpal6RSliceERNS_12IAPDUHandlerEEUlRS8_jE_E7ForeachERNS_8IVisitorIS1_EE, .-_ZNK8opendnp318BufferedCollectionINS_12Group120Var3EZNS_11CountParser13InvokeCountOfIS1_EEvRKNS_12HeaderRecordEtRKN7openpal6RSliceERNS_12IAPDUHandlerEEUlRS8_jE_E7ForeachERNS_8IVisitorIS1_EE
	.section	.text._ZN8opendnp311CountParser13InvokeCountOfINS_12Group120Var4EEEvRKNS_12HeaderRecordEtRKN7openpal6RSliceERNS_12IAPDUHandlerE,"axG",@progbits,_ZN8opendnp311CountParser13InvokeCountOfINS_12Group120Var4EEEvRKNS_12HeaderRecordEtRKN7openpal6RSliceERNS_12IAPDUHandlerE,comdat
	.align 2
	.p2align 4
	.weak	_ZN8opendnp311CountParser13InvokeCountOfINS_12Group120Var4EEEvRKNS_12HeaderRecordEtRKN7openpal6RSliceERNS_12IAPDUHandlerE
	.type	_ZN8opendnp311CountParser13InvokeCountOfINS_12Group120Var4EEEvRKNS_12HeaderRecordEtRKN7openpal6RSliceERNS_12IAPDUHandlerE, @function
_ZN8opendnp311CountParser13InvokeCountOfINS_12Group120Var4EEEvRKNS_12HeaderRecordEtRKN7openpal6RSliceERNS_12IAPDUHandlerE:
.LFB2871:
	.cfi_startproc
	subq	$88, %rsp
	.cfi_def_cfa_offset 96
	movdqu	(%rdx), %xmm0
	movq	_ZTVN8opendnp318BufferedCollectionINS_12Group120Var4EZNS_11CountParser13InvokeCountOfIS1_EEvRKNS_12HeaderRecordEtRKN7openpal6RSliceERNS_12IAPDUHandlerEEUlRS8_jE_EE@GOTPCREL(%rip), %rax
	movw	%si, 16(%rsp)
	leaq	32(%rsp), %rdx
	movups	%xmm0, 40(%rsp)
	addq	$16, %rax
	movdqu	(%rdi), %xmm0
	movq	%rcx, %rdi
	movq	%rax, 32(%rsp)
	movzwl	%si, %eax
	movq	%rsp, %rsi
	movq	%rax, 56(%rsp)
	movaps	%xmm0, (%rsp)
	call	_ZN8opendnp312IAPDUHandler8OnHeaderERKNS_11CountHeaderERKNS_11ICollectionINS_12Group120Var4EEE@PLT
	addq	$88, %rsp
	.cfi_def_cfa_offset 8
	ret
	.cfi_endproc
.LFE2871:
	.size	_ZN8opendnp311CountParser13InvokeCountOfINS_12Group120Var4EEEvRKNS_12HeaderRecordEtRKN7openpal6RSliceERNS_12IAPDUHandlerE, .-_ZN8opendnp311CountParser13InvokeCountOfINS_12Group120Var4EEEvRKNS_12HeaderRecordEtRKN7openpal6RSliceERNS_12IAPDUHandlerE
	.section	.text._ZNK8opendnp318BufferedCollectionINS_12Group120Var4EZNS_11CountParser13InvokeCountOfIS1_EEvRKNS_12HeaderRecordEtRKN7openpal6RSliceERNS_12IAPDUHandlerEEUlRS8_jE_E7ForeachERNS_8IVisitorIS1_EE,"axG",@progbits,_ZNK8opendnp318BufferedCollectionINS_12Group120Var4EZNS_11CountParser13InvokeCountOfIS1_EEvRKNS_12HeaderRecordEtRKN7openpal6RSliceERNS_12IAPDUHandlerEEUlRS8_jE_E7ForeachERNS_8IVisitorIS1_EE,comdat
	.align 2
	.p2align 4
	.weak	_ZNK8opendnp318BufferedCollectionINS_12Group120Var4EZNS_11CountParser13InvokeCountOfIS1_EEvRKNS_12HeaderRecordEtRKN7openpal6RSliceERNS_12IAPDUHandlerEEUlRS8_jE_E7ForeachERNS_8IVisitorIS1_EE
	.type	_ZNK8opendnp318BufferedCollectionINS_12Group120Var4EZNS_11CountParser13InvokeCountOfIS1_EEvRKNS_12HeaderRecordEtRKN7openpal6RSliceERNS_12IAPDUHandlerEEUlRS8_jE_E7ForeachERNS_8IVisitorIS1_EE, @function
_ZNK8opendnp318BufferedCollectionINS_12Group120Var4EZNS_11CountParser13InvokeCountOfIS1_EEvRKNS_12HeaderRecordEtRKN7openpal6RSliceERNS_12IAPDUHandlerEEUlRS8_jE_E7ForeachERNS_8IVisitorIS1_EE:
.LFB3154:
	.cfi_startproc
	pushq	%r15
	.cfi_def_cfa_offset 16
	.cfi_offset 15, -16
	pushq	%r14
	.cfi_def_cfa_offset 24
	.cfi_offset 14, -24
	pushq	%r13
	.cfi_def_cfa_offset 32
	.cfi_offset 13, -32
	pushq	%r12
	.cfi_def_cfa_offset 40
	.cfi_offset 12, -40
	pushq	%rbp
	.cfi_def_cfa_offset 48
	.cfi_offset 6, -48
	pushq	%rbx
	.cfi_def_cfa_offset 56
	.cfi_offset 3, -56
	subq	$40, %rsp
	.cfi_def_cfa_offset 96
	movdqu	8(%rdi), %xmm0
	movaps	%xmm0, 16(%rsp)
	cmpq	$0, 24(%rdi)
	je	.L53
	movq	%rsi, %r12
	movq	%rdi, %r13
	xorl	%ebp, %ebp
	.p2align 4
	.p2align 3
.L55:
	movq	(%r12), %rax
	leaq	14(%rsp), %rdi
	movq	(%rax), %r15
	call	_ZN8opendnp312Group120Var4C1Ev@PLT
	leaq	14(%rsp), %rsi
	leaq	16(%rsp), %rdi
	call	_ZN8opendnp312Group120Var44ReadERN7openpal6RSliceERS0_@PLT
	leaq	14(%rsp), %rsi
	movq	%r12, %rdi
	call	*%r15
	leal	1(%rbp), %eax
	movq	%rax, %rbp
	cmpq	24(%r13), %rax
	jb	.L55
.L53:
	addq	$40, %rsp
	.cfi_def_cfa_offset 56
	popq	%rbx
	.cfi_def_cfa_offset 48
	popq	%rbp
	.cfi_def_cfa_offset 40
	popq	%r12
	.cfi_def_cfa_offset 32
	popq	%r13
	.cfi_def_cfa_offset 24
	popq	%r14
	.cfi_def_cfa_offset 16
	popq	%r15
	.cfi_def_cfa_offset 8
	ret
	.cfi_endproc
.LFE3154:
	.size	_ZNK8opendnp318BufferedCollectionINS_12Group120Var4EZNS_11CountParser13InvokeCountOfIS1_EEvRKNS_12HeaderRecordEtRKN7openpal6RSliceERNS_12IAPDUHandlerEEUlRS8_jE_E7ForeachERNS_8IVisitorIS1_EE, .-_ZNK8opendnp318BufferedCollectionINS_12Group120Var4EZNS_11CountParser13InvokeCountOfIS1_EEvRKNS_12HeaderRecordEtRKN7openpal6RSliceERNS_12IAPDUHandlerEEUlRS8_jE_E7ForeachERNS_8IVisitorIS1_EE
	.text
	.align 2
	.p2align 4
	.globl	_ZN8opendnp311CountParserC2EtjPFvRKNS_12HeaderRecordEtRKN7openpal6RSliceERNS_12IAPDUHandlerEE
	.type	_ZN8opendnp311CountParserC2EtjPFvRKNS_12HeaderRecordEtRKN7openpal6RSliceERNS_12IAPDUHandlerEE, @function
_ZN8opendnp311CountParserC2EtjPFvRKNS_12HeaderRecordEtRKN7openpal6RSliceERNS_12IAPDUHandlerEE:
.LFB2312:
	.cfi_startproc
	movw	%si, (%rdi)
	movl	%edx, 4(%rdi)
	movq	%rcx, 8(%rdi)
	ret
	.cfi_endproc
.LFE2312:
	.size	_ZN8opendnp311CountParserC2EtjPFvRKNS_12HeaderRecordEtRKN7openpal6RSliceERNS_12IAPDUHandlerEE, .-_ZN8opendnp311CountParserC2EtjPFvRKNS_12HeaderRecordEtRKN7openpal6RSliceERNS_12IAPDUHandlerEE
	.globl	_ZN8opendnp311CountParserC1EtjPFvRKNS_12HeaderRecordEtRKN7openpal6RSliceERNS_12IAPDUHandlerEE
	.set	_ZN8opendnp311CountParserC1EtjPFvRKNS_12HeaderRecordEtRKN7openpal6RSliceERNS_12IAPDUHandlerEE,_ZN8opendnp311CountParserC2EtjPFvRKNS_12HeaderRecordEtRKN7openpal6RSliceERNS_12IAPDUHandlerEE
	.section	.rodata.str1.8,"aMS",@progbits,1
	.align 8
.LC0:
	.string	"Not enough data for specified objects"
	.align 8
.LC1:
	.string	"/opt/PLC/OpenPLC_v3/utils/dnp3_src/cpp/libs/src/opendnp3/app/parsing/CountParser.cpp(42)"
	.text
	.align 2
	.p2align 4
	.globl	_ZNK8opendnp311CountParser7ProcessERKNS_12HeaderRecordERN7openpal6RSliceEPNS_12IAPDUHandlerEPNS4_6LoggerE
	.type	_ZNK8opendnp311CountParser7ProcessERKNS_12HeaderRecordERN7openpal6RSliceEPNS_12IAPDUHandlerEPNS4_6LoggerE, @function
_ZNK8opendnp311CountParser7ProcessERKNS_12HeaderRecordERN7openpal6RSliceEPNS_12IAPDUHandlerEPNS4_6LoggerE:
.LFB2314:
	.cfi_startproc
	movq	%rdi, %rax
	subq	$40, %rsp
	.cfi_def_cfa_offset 48
	movq	%rsi, %rdi
	movl	4(%rax), %esi
	cmpl	%esi, (%rdx)
	jb	.L75
	testq	%rcx, %rcx
	je	.L64
	movzwl	(%rax), %esi
	movq	%rdx, 8(%rsp)
	movq	%rax, (%rsp)
	call	*8(%rax)
	movq	(%rsp), %rax
	movq	8(%rsp), %rdx
	movl	4(%rax), %esi
.L64:
	movq	%rdx, %rdi
	call	_ZN7openpal6RSlice7AdvanceEj@PLT
	xorl	%eax, %eax
.L59:
	addq	$40, %rsp
	.cfi_remember_state
	.cfi_def_cfa_offset 8
	ret
	.p2align 4,,10
	.p2align 3
.L75:
	.cfi_restore_state
	testq	%r8, %r8
	je	.L62
	leaq	28(%rsp), %rsi
	movq	%r8, %rdi
	movl	$4, 28(%rsp)
	movq	%rsi, 8(%rsp)
	movq	%r8, (%rsp)
	call	_ZNK7openpal6Logger9IsEnabledERKNS_10LogFiltersE@PLT
	movq	8(%rsp), %rsi
	testb	%al, %al
	jne	.L76
.L62:
	movl	$4, %eax
	jmp	.L59
	.p2align 4,,10
	.p2align 3
.L76:
	movq	(%rsp), %rdi
	leaq	.LC0(%rip), %rcx
	leaq	.LC1(%rip), %rdx
	movl	$4, 28(%rsp)
	call	_ZN7openpal6Logger3LogERKNS_10LogFiltersEPKcS5_@PLT
	jmp	.L62
	.cfi_endproc
.LFE2314:
	.size	_ZNK8opendnp311CountParser7ProcessERKNS_12HeaderRecordERN7openpal6RSliceEPNS_12IAPDUHandlerEPNS4_6LoggerE, .-_ZNK8opendnp311CountParser7ProcessERKNS_12HeaderRecordERN7openpal6RSliceEPNS_12IAPDUHandlerEPNS4_6LoggerE
	.section	.rodata.str1.8
	.align 8
.LC2:
	.string	"Unsupported qualifier/object - %s - %i / %i"
	.align 8
.LC3:
	.string	"/opt/PLC/OpenPLC_v3/utils/dnp3_src/cpp/libs/src/opendnp3/app/parsing/CountParser.cpp(116)"
	.text
	.align 2
	.p2align 4
	.globl	_ZN8opendnp311CountParser19ParseCountOfObjectsERN7openpal6RSliceERKNS_12HeaderRecordEtPNS1_6LoggerEPNS_12IAPDUHandlerE
	.type	_ZN8opendnp311CountParser19ParseCountOfObjectsERN7openpal6RSliceERKNS_12HeaderRecordEtPNS1_6LoggerEPNS_12IAPDUHandlerE, @function
_ZN8opendnp311CountParser19ParseCountOfObjectsERN7openpal6RSliceERKNS_12HeaderRecordEtPNS1_6LoggerEPNS_12IAPDUHandlerE:
.LFB2316:
	.cfi_startproc
	pushq	%r13
	.cfi_def_cfa_offset 16
	.cfi_offset 13, -16
	movq	%rsi, %r13
	pushq	%r12
	.cfi_def_cfa_offset 24
	.cfi_offset 12, -24
	movq	%r8, %r12
	pushq	%rbp
	.cfi_def_cfa_offset 32
	.cfi_offset 6, -32
	movq	%rdi, %rbp
	pushq	%rbx
	.cfi_def_cfa_offset 40
	.cfi_offset 3, -40
	movq	%rcx, %rbx
	subq	$168, %rsp
	.cfi_def_cfa_offset 208
	movzwl	(%rsi), %eax
	cmpw	$13313, %ax
	je	.L78
	ja	.L79
	cmpw	$13057, %ax
	je	.L80
	cmpw	$13058, %ax
	je	.L81
	cmpw	$12801, %ax
	jne	.L83
	movzwl	%dx, %esi
	movq	_ZN8opendnp311CountParser13InvokeCountOfINS_11Group50Var1EEEvRKNS_12HeaderRecordEtRKN7openpal6RSliceERNS_12IAPDUHandlerE@GOTPCREL(%rip), %rcx
	leaq	32(%rsp), %rdi
	leal	(%rsi,%rsi,2), %edx
	addl	%edx, %edx
	.p2align 4
	.p2align 3
.L97:
	movq	%rdi, 8(%rsp)
	call	_ZN8opendnp311CountParserC1EtjPFvRKNS_12HeaderRecordEtRKN7openpal6RSliceERNS_12IAPDUHandlerEE@PLT
	movq	8(%rsp), %rdi
	movq	%rbx, %r8
	movq	%r12, %rcx
	movq	%rbp, %rdx
	movq	%r13, %rsi
	call	_ZNK8opendnp311CountParser7ProcessERKNS_12HeaderRecordERN7openpal6RSliceEPNS_12IAPDUHandlerEPNS4_6LoggerE@PLT
.L77:
	addq	$168, %rsp
	.cfi_remember_state
	.cfi_def_cfa_offset 40
	popq	%rbx
	.cfi_def_cfa_offset 32
	popq	%rbp
	.cfi_def_cfa_offset 24
	popq	%r12
	.cfi_def_cfa_offset 16
	popq	%r13
	.cfi_def_cfa_offset 8
	ret
	.p2align 4,,10
	.p2align 3
.L79:
	.cfi_restore_state
	cmpw	$30723, %ax
	je	.L84
	cmpw	$30724, %ax
	je	.L85
	cmpw	$13314, %ax
	jne	.L83
	movzwl	%dx, %esi
	movq	_ZN8opendnp311CountParser13InvokeCountOfINS_11Group52Var2EEEvRKNS_12HeaderRecordEtRKN7openpal6RSliceERNS_12IAPDUHandlerE@GOTPCREL(%rip), %rcx
	leaq	32(%rsp), %rdi
	leal	(%rsi,%rsi), %edx
	jmp	.L97
	.p2align 4,,10
	.p2align 3
.L85:
	movzwl	%dx, %esi
	movq	_ZN8opendnp311CountParser13InvokeCountOfINS_12Group120Var4EEEvRKNS_12HeaderRecordEtRKN7openpal6RSliceERNS_12IAPDUHandlerE@GOTPCREL(%rip), %rcx
	leaq	32(%rsp), %rdi
	leal	(%rsi,%rsi), %edx
	jmp	.L97
	.p2align 4,,10
	.p2align 3
.L81:
	movzwl	%dx, %esi
	movq	_ZN8opendnp311CountParser13InvokeCountOfINS_11Group51Var2EEEvRKNS_12HeaderRecordEtRKN7openpal6RSliceERNS_12IAPDUHandlerE@GOTPCREL(%rip), %rcx
	leaq	32(%rsp), %rdi
	leal	(%rsi,%rsi,2), %edx
	addl	%edx, %edx
	jmp	.L97
	.p2align 4,,10
	.p2align 3
.L80:
	movzwl	%dx, %esi
	movq	_ZN8opendnp311CountParser13InvokeCountOfINS_11Group51Var1EEEvRKNS_12HeaderRecordEtRKN7openpal6RSliceERNS_12IAPDUHandlerE@GOTPCREL(%rip), %rcx
	leaq	32(%rsp), %rdi
	leal	(%rsi,%rsi,2), %edx
	addl	%edx, %edx
	jmp	.L97
	.p2align 4,,10
	.p2align 3
.L78:
	movzwl	%dx, %esi
	movq	_ZN8opendnp311CountParser13InvokeCountOfINS_11Group52Var1EEEvRKNS_12HeaderRecordEtRKN7openpal6RSliceERNS_12IAPDUHandlerE@GOTPCREL(%rip), %rcx
	leaq	32(%rsp), %rdi
	leal	(%rsi,%rsi), %edx
	jmp	.L97
	.p2align 4,,10
	.p2align 3
.L84:
	movzwl	%dx, %esi
	movq	_ZN8opendnp311CountParser13InvokeCountOfINS_12Group120Var3EEEvRKNS_12HeaderRecordEtRKN7openpal6RSliceERNS_12IAPDUHandlerE@GOTPCREL(%rip), %rcx
	leaq	32(%rsp), %rdi
	leal	(%rsi,%rsi,2), %edx
	addl	%edx, %edx
	jmp	.L97
	.p2align 4,,10
	.p2align 3
.L83:
	testq	%rbx, %rbx
	je	.L89
	leaq	32(%rsp), %rbp
	movq	%rbx, %rdi
	movl	$4, 32(%rsp)
	movq	%rbp, %rsi
	call	_ZNK7openpal6Logger9IsEnabledERKNS_10LogFiltersE@PLT
	testb	%al, %al
	jne	.L98
.L89:
	movl	$8, %eax
	jmp	.L77
	.p2align 4,,10
	.p2align 3
.L98:
	movzbl	9(%r13), %r9d
	movq	%r13, %rdi
	movzbl	8(%r13), %r12d
	movl	%r9d, 8(%rsp)
	call	_ZNK8opendnp312HeaderRecord16GetQualifierCodeEv@PLT
	movl	%eax, %edi
	call	_ZN8opendnp321QualifierCodeToStringENS_13QualifierCodeE@PLT
	movl	8(%rsp), %r9d
	movq	%rbp, %rdi
	movl	%r12d, %r8d
	movq	%rax, %rcx
	leaq	.LC2(%rip), %rdx
	movl	$120, %esi
	xorl	%eax, %eax
	call	snprintf@PLT
	leaq	28(%rsp), %rsi
	movq	%rbp, %rcx
	movq	%rbx, %rdi
	leaq	.LC3(%rip), %rdx
	movl	$4, 28(%rsp)
	call	_ZN7openpal6Logger3LogERKNS_10LogFiltersEPKcS5_@PLT
	jmp	.L89
	.cfi_endproc
.LFE2316:
	.size	_ZN8opendnp311CountParser19ParseCountOfObjectsERN7openpal6RSliceERKNS_12HeaderRecordEtPNS1_6LoggerEPNS_12IAPDUHandlerE, .-_ZN8opendnp311CountParser19ParseCountOfObjectsERN7openpal6RSliceERKNS_12HeaderRecordEtPNS1_6LoggerEPNS_12IAPDUHandlerE
	.section	.rodata.str1.1,"aMS",@progbits,1
.LC4:
	.string	"%03u,%03u %s, %s [%u]"
	.section	.rodata.str1.8
	.align 8
.LC5:
	.string	"/opt/PLC/OpenPLC_v3/utils/dnp3_src/cpp/libs/src/opendnp3/app/parsing/CountParser.cpp(62)"
	.text
	.align 2
	.p2align 4
	.globl	_ZN8opendnp311CountParser11ParseHeaderERN7openpal6RSliceERKNS_9NumParserERKNS_14ParserSettingsERKNS_12HeaderRecordEPNS1_6LoggerEPNS_12IAPDUHandlerE
	.type	_ZN8opendnp311CountParser11ParseHeaderERN7openpal6RSliceERKNS_9NumParserERKNS_14ParserSettingsERKNS_12HeaderRecordEPNS1_6LoggerEPNS_12IAPDUHandlerE, @function
_ZN8opendnp311CountParser11ParseHeaderERN7openpal6RSliceERKNS_9NumParserERKNS_14ParserSettingsERKNS_12HeaderRecordEPNS1_6LoggerEPNS_12IAPDUHandlerE:
.LFB2315:
	.cfi_startproc
	pushq	%r15
	.cfi_def_cfa_offset 16
	.cfi_offset 15, -16
	pushq	%r14
	.cfi_def_cfa_offset 24
	.cfi_offset 14, -24
	movq	%r9, %r14
	pushq	%r13
	.cfi_def_cfa_offset 32
	.cfi_offset 13, -32
	movq	%rcx, %r13
	movq	%r8, %rcx
	pushq	%r12
	.cfi_def_cfa_offset 40
	.cfi_offset 12, -40
	movq	%rdx, %r12
	pushq	%rbp
	.cfi_def_cfa_offset 48
	.cfi_offset 6, -48
	movq	%rdi, %rbp
	movq	%rsi, %rdi
	pushq	%rbx
	.cfi_def_cfa_offset 56
	.cfi_offset 3, -56
	movq	%rbp, %rsi
	movq	%r8, %rbx
	subq	$184, %rsp
	.cfi_def_cfa_offset 240
	leaq	42(%rsp), %rdx
	call	_ZNK8opendnp39NumParser10ParseCountERN7openpal6RSliceERtPNS1_6LoggerE@PLT
	movl	%eax, %r15d
	testb	%al, %al
	jne	.L99
	testq	%rbx, %rbx
	je	.L102
	movl	4(%r12), %eax
	movq	%rbx, %rdi
	movl	%eax, 48(%rsp)
	leaq	48(%rsp), %rax
	movq	%rax, %rsi
	movq	%rax, 8(%rsp)
	call	_ZNK7openpal6Logger9IsEnabledERKNS_10LogFiltersE@PLT
	testb	%al, %al
	jne	.L115
.L102:
	cmpb	$0, (%r12)
	jne	.L116
.L103:
	testq	%r14, %r14
	je	.L99
	movdqu	0(%r13), %xmm0
	movzwl	42(%rsp), %eax
	leaq	48(%rsp), %rsi
	movq	%r14, %rdi
	movw	%ax, 64(%rsp)
	movaps	%xmm0, 48(%rsp)
	call	_ZN8opendnp312IAPDUHandler8OnHeaderERKNS_11CountHeaderE@PLT
.L99:
	addq	$184, %rsp
	.cfi_remember_state
	.cfi_def_cfa_offset 56
	movl	%r15d, %eax
	popq	%rbx
	.cfi_def_cfa_offset 48
	popq	%rbp
	.cfi_def_cfa_offset 40
	popq	%r12
	.cfi_def_cfa_offset 32
	popq	%r13
	.cfi_def_cfa_offset 24
	popq	%r14
	.cfi_def_cfa_offset 16
	popq	%r15
	.cfi_def_cfa_offset 8
	ret
	.p2align 4,,10
	.p2align 3
.L116:
	.cfi_restore_state
	movzwl	42(%rsp), %edx
	movq	%r14, %r8
	movq	%rbx, %rcx
	movq	%r13, %rsi
	movq	%rbp, %rdi
	call	_ZN8opendnp311CountParser19ParseCountOfObjectsERN7openpal6RSliceERKNS_12HeaderRecordEtPNS1_6LoggerEPNS_12IAPDUHandlerE@PLT
	movl	%eax, %r15d
	jmp	.L99
	.p2align 4,,10
	.p2align 3
.L115:
	movzwl	42(%rsp), %esi
	movq	%r13, %rdi
	movl	%esi, 28(%rsp)
	call	_ZNK8opendnp312HeaderRecord16GetQualifierCodeEv@PLT
	movl	%eax, %edi
	call	_ZN8opendnp321QualifierCodeToStringENS_13QualifierCodeE@PLT
	movzwl	0(%r13), %edi
	movq	%rax, 16(%rsp)
	call	_ZN8opendnp322GroupVariationToStringENS_14GroupVariationE@PLT
	movl	28(%rsp), %esi
	movzbl	8(%r13), %ecx
	movq	%rax, %r9
	xorl	%eax, %eax
	pushq	%rsi
	.cfi_def_cfa_offset 248
	movq	24(%rsp), %rdx
	movl	$120, %esi
	pushq	%rdx
	.cfi_def_cfa_offset 256
	movq	24(%rsp), %rdi
	leaq	.LC4(%rip), %rdx
	movzbl	9(%r13), %r8d
	call	snprintf@PLT
	movl	4(%r12), %eax
	movq	%rbx, %rdi
	movl	%eax, 60(%rsp)
	popq	%rax
	.cfi_def_cfa_offset 248
	popq	%rdx
	.cfi_def_cfa_offset 240
	movq	8(%rsp), %rcx
	leaq	.LC5(%rip), %rdx
	leaq	44(%rsp), %rsi
	call	_ZN7openpal6Logger3LogERKNS_10LogFiltersEPKcS5_@PLT
	cmpb	$0, (%r12)
	je	.L103
	jmp	.L116
	.cfi_endproc
.LFE2315:
	.size	_ZN8opendnp311CountParser11ParseHeaderERN7openpal6RSliceERKNS_9NumParserERKNS_14ParserSettingsERKNS_12HeaderRecordEPNS1_6LoggerEPNS_12IAPDUHandlerE, .-_ZN8opendnp311CountParser11ParseHeaderERN7openpal6RSliceERKNS_9NumParserERKNS_14ParserSettingsERKNS_12HeaderRecordEPNS1_6LoggerEPNS_12IAPDUHandlerE
	.weak	_ZTSN8opendnp311ICollectionINS_11Group50Var1EEE
	.section	.rodata._ZTSN8opendnp311ICollectionINS_11Group50Var1EEE,"aG",@progbits,_ZTSN8opendnp311ICollectionINS_11Group50Var1EEE,comdat
	.align 32
	.type	_ZTSN8opendnp311ICollectionINS_11Group50Var1EEE, @object
	.size	_ZTSN8opendnp311ICollectionINS_11Group50Var1EEE, 44
_ZTSN8opendnp311ICollectionINS_11Group50Var1EEE:
	.string	"N8opendnp311ICollectionINS_11Group50Var1EEE"
	.weak	_ZTIN8opendnp311ICollectionINS_11Group50Var1EEE
	.section	.data.rel.ro._ZTIN8opendnp311ICollectionINS_11Group50Var1EEE,"awG",@progbits,_ZTIN8opendnp311ICollectionINS_11Group50Var1EEE,comdat
	.align 8
	.type	_ZTIN8opendnp311ICollectionINS_11Group50Var1EEE, @object
	.size	_ZTIN8opendnp311ICollectionINS_11Group50Var1EEE, 16
_ZTIN8opendnp311ICollectionINS_11Group50Var1EEE:
	.quad	_ZTVN10__cxxabiv117__class_type_infoE+16
	.quad	_ZTSN8opendnp311ICollectionINS_11Group50Var1EEE
	.weak	_ZTSN8opendnp318BufferedCollectionINS_11Group50Var1EZNS_11CountParser13InvokeCountOfIS1_EEvRKNS_12HeaderRecordEtRKN7openpal6RSliceERNS_12IAPDUHandlerEEUlRS8_jE_EE
	.section	.rodata._ZTSN8opendnp318BufferedCollectionINS_11Group50Var1EZNS_11CountParser13InvokeCountOfIS1_EEvRKNS_12HeaderRecordEtRKN7openpal6RSliceERNS_12IAPDUHandlerEEUlRS8_jE_EE,"aG",@progbits,_ZTSN8opendnp318BufferedCollectionINS_11Group50Var1EZNS_11CountParser13InvokeCountOfIS1_EEvRKNS_12HeaderRecordEtRKN7openpal6RSliceERNS_12IAPDUHandlerEEUlRS8_jE_EE,comdat
	.align 32
	.type	_ZTSN8opendnp318BufferedCollectionINS_11Group50Var1EZNS_11CountParser13InvokeCountOfIS1_EEvRKNS_12HeaderRecordEtRKN7openpal6RSliceERNS_12IAPDUHandlerEEUlRS8_jE_EE, @object
	.size	_ZTSN8opendnp318BufferedCollectionINS_11Group50Var1EZNS_11CountParser13InvokeCountOfIS1_EEvRKNS_12HeaderRecordEtRKN7openpal6RSliceERNS_12IAPDUHandlerEEUlRS8_jE_EE, 159
_ZTSN8opendnp318BufferedCollectionINS_11Group50Var1EZNS_11CountParser13InvokeCountOfIS1_EEvRKNS_12HeaderRecordEtRKN7openpal6RSliceERNS_12IAPDUHandlerEEUlRS8_jE_EE:
	.string	"N8opendnp318BufferedCollectionINS_11Group50Var1EZNS_11CountParser13InvokeCountOfIS1_EEvRKNS_12HeaderRecordEtRKN7openpal6RSliceERNS_12IAPDUHandlerEEUlRS8_jE_EE"
	.weak	_ZTIN8opendnp318BufferedCollectionINS_11Group50Var1EZNS_11CountParser13InvokeCountOfIS1_EEvRKNS_12HeaderRecordEtRKN7openpal6RSliceERNS_12IAPDUHandlerEEUlRS8_jE_EE
	.section	.data.rel.ro._ZTIN8opendnp318BufferedCollectionINS_11Group50Var1EZNS_11CountParser13InvokeCountOfIS1_EEvRKNS_12HeaderRecordEtRKN7openpal6RSliceERNS_12IAPDUHandlerEEUlRS8_jE_EE,"awG",@progbits,_ZTIN8opendnp318BufferedCollectionINS_11Group50Var1EZNS_11CountParser13InvokeCountOfIS1_EEvRKNS_12HeaderRecordEtRKN7openpal6RSliceERNS_12IAPDUHandlerEEUlRS8_jE_EE,comdat
	.align 8
	.type	_ZTIN8opendnp318BufferedCollectionINS_11Group50Var1EZNS_11CountParser13InvokeCountOfIS1_EEvRKNS_12HeaderRecordEtRKN7openpal6RSliceERNS_12IAPDUHandlerEEUlRS8_jE_EE, @object
	.size	_ZTIN8opendnp318BufferedCollectionINS_11Group50Var1EZNS_11CountParser13InvokeCountOfIS1_EEvRKNS_12HeaderRecordEtRKN7openpal6RSliceERNS_12IAPDUHandlerEEUlRS8_jE_EE, 24
_ZTIN8opendnp318BufferedCollectionINS_11Group50Var1EZNS_11CountParser13InvokeCountOfIS1_EEvRKNS_12HeaderRecordEtRKN7openpal6RSliceERNS_12IAPDUHandlerEEUlRS8_jE_EE:
	.quad	_ZTVN10__cxxabiv120__si_class_type_infoE+16
	.quad	_ZTSN8opendnp318BufferedCollectionINS_11Group50Var1EZNS_11CountParser13InvokeCountOfIS1_EEvRKNS_12HeaderRecordEtRKN7openpal6RSliceERNS_12IAPDUHandlerEEUlRS8_jE_EE
	.quad	_ZTIN8opendnp311ICollectionINS_11Group50Var1EEE
	.weak	_ZTSN8opendnp311ICollectionINS_12Group120Var4EEE
	.section	.rodata._ZTSN8opendnp311ICollectionINS_12Group120Var4EEE,"aG",@progbits,_ZTSN8opendnp311ICollectionINS_12Group120Var4EEE,comdat
	.align 32
	.type	_ZTSN8opendnp311ICollectionINS_12Group120Var4EEE, @object
	.size	_ZTSN8opendnp311ICollectionINS_12Group120Var4EEE, 45
_ZTSN8opendnp311ICollectionINS_12Group120Var4EEE:
	.string	"N8opendnp311ICollectionINS_12Group120Var4EEE"
	.weak	_ZTIN8opendnp311ICollectionINS_12Group120Var4EEE
	.section	.data.rel.ro._ZTIN8opendnp311ICollectionINS_12Group120Var4EEE,"awG",@progbits,_ZTIN8opendnp311ICollectionINS_12Group120Var4EEE,comdat
	.align 8
	.type	_ZTIN8opendnp311ICollectionINS_12Group120Var4EEE, @object
	.size	_ZTIN8opendnp311ICollectionINS_12Group120Var4EEE, 16
_ZTIN8opendnp311ICollectionINS_12Group120Var4EEE:
	.quad	_ZTVN10__cxxabiv117__class_type_infoE+16
	.quad	_ZTSN8opendnp311ICollectionINS_12Group120Var4EEE
	.weak	_ZTSN8opendnp311ICollectionINS_12Group120Var3EEE
	.section	.rodata._ZTSN8opendnp311ICollectionINS_12Group120Var3EEE,"aG",@progbits,_ZTSN8opendnp311ICollectionINS_12Group120Var3EEE,comdat
	.align 32
	.type	_ZTSN8opendnp311ICollectionINS_12Group120Var3EEE, @object
	.size	_ZTSN8opendnp311ICollectionINS_12Group120Var3EEE, 45
_ZTSN8opendnp311ICollectionINS_12Group120Var3EEE:
	.string	"N8opendnp311ICollectionINS_12Group120Var3EEE"
	.weak	_ZTIN8opendnp311ICollectionINS_12Group120Var3EEE
	.section	.data.rel.ro._ZTIN8opendnp311ICollectionINS_12Group120Var3EEE,"awG",@progbits,_ZTIN8opendnp311ICollectionINS_12Group120Var3EEE,comdat
	.align 8
	.type	_ZTIN8opendnp311ICollectionINS_12Group120Var3EEE, @object
	.size	_ZTIN8opendnp311ICollectionINS_12Group120Var3EEE, 16
_ZTIN8opendnp311ICollectionINS_12Group120Var3EEE:
	.quad	_ZTVN10__cxxabiv117__class_type_infoE+16
	.quad	_ZTSN8opendnp311ICollectionINS_12Group120Var3EEE
	.weak	_ZTSN8opendnp311ICollectionINS_11Group52Var2EEE
	.section	.rodata._ZTSN8opendnp311ICollectionINS_11Group52Var2EEE,"aG",@progbits,_ZTSN8opendnp311ICollectionINS_11Group52Var2EEE,comdat
	.align 32
	.type	_ZTSN8opendnp311ICollectionINS_11Group52Var2EEE, @object
	.size	_ZTSN8opendnp311ICollectionINS_11Group52Var2EEE, 44
_ZTSN8opendnp311ICollectionINS_11Group52Var2EEE:
	.string	"N8opendnp311ICollectionINS_11Group52Var2EEE"
	.weak	_ZTIN8opendnp311ICollectionINS_11Group52Var2EEE
	.section	.data.rel.ro._ZTIN8opendnp311ICollectionINS_11Group52Var2EEE,"awG",@progbits,_ZTIN8opendnp311ICollectionINS_11Group52Var2EEE,comdat
	.align 8
	.type	_ZTIN8opendnp311ICollectionINS_11Group52Var2EEE, @object
	.size	_ZTIN8opendnp311ICollectionINS_11Group52Var2EEE, 16
_ZTIN8opendnp311ICollectionINS_11Group52Var2EEE:
	.quad	_ZTVN10__cxxabiv117__class_type_infoE+16
	.quad	_ZTSN8opendnp311ICollectionINS_11Group52Var2EEE
	.weak	_ZTSN8opendnp311ICollectionINS_11Group52Var1EEE
	.section	.rodata._ZTSN8opendnp311ICollectionINS_11Group52Var1EEE,"aG",@progbits,_ZTSN8opendnp311ICollectionINS_11Group52Var1EEE,comdat
	.align 32
	.type	_ZTSN8opendnp311ICollectionINS_11Group52Var1EEE, @object
	.size	_ZTSN8opendnp311ICollectionINS_11Group52Var1EEE, 44
_ZTSN8opendnp311ICollectionINS_11Group52Var1EEE:
	.string	"N8opendnp311ICollectionINS_11Group52Var1EEE"
	.weak	_ZTIN8opendnp311ICollectionINS_11Group52Var1EEE
	.section	.data.rel.ro._ZTIN8opendnp311ICollectionINS_11Group52Var1EEE,"awG",@progbits,_ZTIN8opendnp311ICollectionINS_11Group52Var1EEE,comdat
	.align 8
	.type	_ZTIN8opendnp311ICollectionINS_11Group52Var1EEE, @object
	.size	_ZTIN8opendnp311ICollectionINS_11Group52Var1EEE, 16
_ZTIN8opendnp311ICollectionINS_11Group52Var1EEE:
	.quad	_ZTVN10__cxxabiv117__class_type_infoE+16
	.quad	_ZTSN8opendnp311ICollectionINS_11Group52Var1EEE
	.weak	_ZTSN8opendnp311ICollectionINS_11Group51Var2EEE
	.section	.rodata._ZTSN8opendnp311ICollectionINS_11Group51Var2EEE,"aG",@progbits,_ZTSN8opendnp311ICollectionINS_11Group51Var2EEE,comdat
	.align 32
	.type	_ZTSN8opendnp311ICollectionINS_11Group51Var2EEE, @object
	.size	_ZTSN8opendnp311ICollectionINS_11Group51Var2EEE, 44
_ZTSN8opendnp311ICollectionINS_11Group51Var2EEE:
	.string	"N8opendnp311ICollectionINS_11Group51Var2EEE"
	.weak	_ZTIN8opendnp311ICollectionINS_11Group51Var2EEE
	.section	.data.rel.ro._ZTIN8opendnp311ICollectionINS_11Group51Var2EEE,"awG",@progbits,_ZTIN8opendnp311ICollectionINS_11Group51Var2EEE,comdat
	.align 8
	.type	_ZTIN8opendnp311ICollectionINS_11Group51Var2EEE, @object
	.size	_ZTIN8opendnp311ICollectionINS_11Group51Var2EEE, 16
_ZTIN8opendnp311ICollectionINS_11Group51Var2EEE:
	.quad	_ZTVN10__cxxabiv117__class_type_infoE+16
	.quad	_ZTSN8opendnp311ICollectionINS_11Group51Var2EEE
	.weak	_ZTSN8opendnp311ICollectionINS_11Group51Var1EEE
	.section	.rodata._ZTSN8opendnp311ICollectionINS_11Group51Var1EEE,"aG",@progbits,_ZTSN8opendnp311ICollectionINS_11Group51Var1EEE,comdat
	.align 32
	.type	_ZTSN8opendnp311ICollectionINS_11Group51Var1EEE, @object
	.size	_ZTSN8opendnp311ICollectionINS_11Group51Var1EEE, 44
_ZTSN8opendnp311ICollectionINS_11Group51Var1EEE:
	.string	"N8opendnp311ICollectionINS_11Group51Var1EEE"
	.weak	_ZTIN8opendnp311ICollectionINS_11Group51Var1EEE
	.section	.data.rel.ro._ZTIN8opendnp311ICollectionINS_11Group51Var1EEE,"awG",@progbits,_ZTIN8opendnp311ICollectionINS_11Group51Var1EEE,comdat
	.align 8
	.type	_ZTIN8opendnp311ICollectionINS_11Group51Var1EEE, @object
	.size	_ZTIN8opendnp311ICollectionINS_11Group51Var1EEE, 16
_ZTIN8opendnp311ICollectionINS_11Group51Var1EEE:
	.quad	_ZTVN10__cxxabiv117__class_type_infoE+16
	.quad	_ZTSN8opendnp311ICollectionINS_11Group51Var1EEE
	.weak	_ZTSN8opendnp318BufferedCollectionINS_11Group51Var1EZNS_11CountParser13InvokeCountOfIS1_EEvRKNS_12HeaderRecordEtRKN7openpal6RSliceERNS_12IAPDUHandlerEEUlRS8_jE_EE
	.section	.rodata._ZTSN8opendnp318BufferedCollectionINS_11Group51Var1EZNS_11CountParser13InvokeCountOfIS1_EEvRKNS_12HeaderRecordEtRKN7openpal6RSliceERNS_12IAPDUHandlerEEUlRS8_jE_EE,"aG",@progbits,_ZTSN8opendnp318BufferedCollectionINS_11Group51Var1EZNS_11CountParser13InvokeCountOfIS1_EEvRKNS_12HeaderRecordEtRKN7openpal6RSliceERNS_12IAPDUHandlerEEUlRS8_jE_EE,comdat
	.align 32
	.type	_ZTSN8opendnp318BufferedCollectionINS_11Group51Var1EZNS_11CountParser13InvokeCountOfIS1_EEvRKNS_12HeaderRecordEtRKN7openpal6RSliceERNS_12IAPDUHandlerEEUlRS8_jE_EE, @object
	.size	_ZTSN8opendnp318BufferedCollectionINS_11Group51Var1EZNS_11CountParser13InvokeCountOfIS1_EEvRKNS_12HeaderRecordEtRKN7openpal6RSliceERNS_12IAPDUHandlerEEUlRS8_jE_EE, 159
_ZTSN8opendnp318BufferedCollectionINS_11Group51Var1EZNS_11CountParser13InvokeCountOfIS1_EEvRKNS_12HeaderRecordEtRKN7openpal6RSliceERNS_12IAPDUHandlerEEUlRS8_jE_EE:
	.string	"N8opendnp318BufferedCollectionINS_11Group51Var1EZNS_11CountParser13InvokeCountOfIS1_EEvRKNS_12HeaderRecordEtRKN7openpal6RSliceERNS_12IAPDUHandlerEEUlRS8_jE_EE"
	.weak	_ZTIN8opendnp318BufferedCollectionINS_11Group51Var1EZNS_11CountParser13InvokeCountOfIS1_EEvRKNS_12HeaderRecordEtRKN7openpal6RSliceERNS_12IAPDUHandlerEEUlRS8_jE_EE
	.section	.data.rel.ro._ZTIN8opendnp318BufferedCollectionINS_11Group51Var1EZNS_11CountParser13InvokeCountOfIS1_EEvRKNS_12HeaderRecordEtRKN7openpal6RSliceERNS_12IAPDUHandlerEEUlRS8_jE_EE,"awG",@progbits,_ZTIN8opendnp318BufferedCollectionINS_11Group51Var1EZNS_11CountParser13InvokeCountOfIS1_EEvRKNS_12HeaderRecordEtRKN7openpal6RSliceERNS_12IAPDUHandlerEEUlRS8_jE_EE,comdat
	.align 8
	.type	_ZTIN8opendnp318BufferedCollectionINS_11Group51Var1EZNS_11CountParser13InvokeCountOfIS1_EEvRKNS_12HeaderRecordEtRKN7openpal6RSliceERNS_12IAPDUHandlerEEUlRS8_jE_EE, @object
	.size	_ZTIN8opendnp318BufferedCollectionINS_11Group51Var1EZNS_11CountParser13InvokeCountOfIS1_EEvRKNS_12HeaderRecordEtRKN7openpal6RSliceERNS_12IAPDUHandlerEEUlRS8_jE_EE, 24
_ZTIN8opendnp318BufferedCollectionINS_11Group51Var1EZNS_11CountParser13InvokeCountOfIS1_EEvRKNS_12HeaderRecordEtRKN7openpal6RSliceERNS_12IAPDUHandlerEEUlRS8_jE_EE:
	.quad	_ZTVN10__cxxabiv120__si_class_type_infoE+16
	.quad	_ZTSN8opendnp318BufferedCollectionINS_11Group51Var1EZNS_11CountParser13InvokeCountOfIS1_EEvRKNS_12HeaderRecordEtRKN7openpal6RSliceERNS_12IAPDUHandlerEEUlRS8_jE_EE
	.quad	_ZTIN8opendnp311ICollectionINS_11Group51Var1EEE
	.weak	_ZTSN8opendnp318BufferedCollectionINS_11Group51Var2EZNS_11CountParser13InvokeCountOfIS1_EEvRKNS_12HeaderRecordEtRKN7openpal6RSliceERNS_12IAPDUHandlerEEUlRS8_jE_EE
	.section	.rodata._ZTSN8opendnp318BufferedCollectionINS_11Group51Var2EZNS_11CountParser13InvokeCountOfIS1_EEvRKNS_12HeaderRecordEtRKN7openpal6RSliceERNS_12IAPDUHandlerEEUlRS8_jE_EE,"aG",@progbits,_ZTSN8opendnp318BufferedCollectionINS_11Group51Var2EZNS_11CountParser13InvokeCountOfIS1_EEvRKNS_12HeaderRecordEtRKN7openpal6RSliceERNS_12IAPDUHandlerEEUlRS8_jE_EE,comdat
	.align 32
	.type	_ZTSN8opendnp318BufferedCollectionINS_11Group51Var2EZNS_11CountParser13InvokeCountOfIS1_EEvRKNS_12HeaderRecordEtRKN7openpal6RSliceERNS_12IAPDUHandlerEEUlRS8_jE_EE, @object
	.size	_ZTSN8opendnp318BufferedCollectionINS_11Group51Var2EZNS_11CountParser13InvokeCountOfIS1_EEvRKNS_12HeaderRecordEtRKN7openpal6RSliceERNS_12IAPDUHandlerEEUlRS8_jE_EE, 159
_ZTSN8opendnp318BufferedCollectionINS_11Group51Var2EZNS_11CountParser13InvokeCountOfIS1_EEvRKNS_12HeaderRecordEtRKN7openpal6RSliceERNS_12IAPDUHandlerEEUlRS8_jE_EE:
	.string	"N8opendnp318BufferedCollectionINS_11Group51Var2EZNS_11CountParser13InvokeCountOfIS1_EEvRKNS_12HeaderRecordEtRKN7openpal6RSliceERNS_12IAPDUHandlerEEUlRS8_jE_EE"
	.weak	_ZTIN8opendnp318BufferedCollectionINS_11Group51Var2EZNS_11CountParser13InvokeCountOfIS1_EEvRKNS_12HeaderRecordEtRKN7openpal6RSliceERNS_12IAPDUHandlerEEUlRS8_jE_EE
	.section	.data.rel.ro._ZTIN8opendnp318BufferedCollectionINS_11Group51Var2EZNS_11CountParser13InvokeCountOfIS1_EEvRKNS_12HeaderRecordEtRKN7openpal6RSliceERNS_12IAPDUHandlerEEUlRS8_jE_EE,"awG",@progbits,_ZTIN8opendnp318BufferedCollectionINS_11Group51Var2EZNS_11CountParser13InvokeCountOfIS1_EEvRKNS_12HeaderRecordEtRKN7openpal6RSliceERNS_12IAPDUHandlerEEUlRS8_jE_EE,comdat
	.align 8
	.type	_ZTIN8opendnp318BufferedCollectionINS_11Group51Var2EZNS_11CountParser13InvokeCountOfIS1_EEvRKNS_12HeaderRecordEtRKN7openpal6RSliceERNS_12IAPDUHandlerEEUlRS8_jE_EE, @object
	.size	_ZTIN8opendnp318BufferedCollectionINS_11Group51Var2EZNS_11CountParser13InvokeCountOfIS1_EEvRKNS_12HeaderRecordEtRKN7openpal6RSliceERNS_12IAPDUHandlerEEUlRS8_jE_EE, 24
_ZTIN8opendnp318BufferedCollectionINS_11Group51Var2EZNS_11CountParser13InvokeCountOfIS1_EEvRKNS_12HeaderRecordEtRKN7openpal6RSliceERNS_12IAPDUHandlerEEUlRS8_jE_EE:
	.quad	_ZTVN10__cxxabiv120__si_class_type_infoE+16
	.quad	_ZTSN8opendnp318BufferedCollectionINS_11Group51Var2EZNS_11CountParser13InvokeCountOfIS1_EEvRKNS_12HeaderRecordEtRKN7openpal6RSliceERNS_12IAPDUHandlerEEUlRS8_jE_EE
	.quad	_ZTIN8opendnp311ICollectionINS_11Group51Var2EEE
	.weak	_ZTSN8opendnp318BufferedCollectionINS_11Group52Var1EZNS_11CountParser13InvokeCountOfIS1_EEvRKNS_12HeaderRecordEtRKN7openpal6RSliceERNS_12IAPDUHandlerEEUlRS8_jE_EE
	.section	.rodata._ZTSN8opendnp318BufferedCollectionINS_11Group52Var1EZNS_11CountParser13InvokeCountOfIS1_EEvRKNS_12HeaderRecordEtRKN7openpal6RSliceERNS_12IAPDUHandlerEEUlRS8_jE_EE,"aG",@progbits,_ZTSN8opendnp318BufferedCollectionINS_11Group52Var1EZNS_11CountParser13InvokeCountOfIS1_EEvRKNS_12HeaderRecordEtRKN7openpal6RSliceERNS_12IAPDUHandlerEEUlRS8_jE_EE,comdat
	.align 32
	.type	_ZTSN8opendnp318BufferedCollectionINS_11Group52Var1EZNS_11CountParser13InvokeCountOfIS1_EEvRKNS_12HeaderRecordEtRKN7openpal6RSliceERNS_12IAPDUHandlerEEUlRS8_jE_EE, @object
	.size	_ZTSN8opendnp318BufferedCollectionINS_11Group52Var1EZNS_11CountParser13InvokeCountOfIS1_EEvRKNS_12HeaderRecordEtRKN7openpal6RSliceERNS_12IAPDUHandlerEEUlRS8_jE_EE, 159
_ZTSN8opendnp318BufferedCollectionINS_11Group52Var1EZNS_11CountParser13InvokeCountOfIS1_EEvRKNS_12HeaderRecordEtRKN7openpal6RSliceERNS_12IAPDUHandlerEEUlRS8_jE_EE:
	.string	"N8opendnp318BufferedCollectionINS_11Group52Var1EZNS_11CountParser13InvokeCountOfIS1_EEvRKNS_12HeaderRecordEtRKN7openpal6RSliceERNS_12IAPDUHandlerEEUlRS8_jE_EE"
	.weak	_ZTIN8opendnp318BufferedCollectionINS_11Group52Var1EZNS_11CountParser13InvokeCountOfIS1_EEvRKNS_12HeaderRecordEtRKN7openpal6RSliceERNS_12IAPDUHandlerEEUlRS8_jE_EE
	.section	.data.rel.ro._ZTIN8opendnp318BufferedCollectionINS_11Group52Var1EZNS_11CountParser13InvokeCountOfIS1_EEvRKNS_12HeaderRecordEtRKN7openpal6RSliceERNS_12IAPDUHandlerEEUlRS8_jE_EE,"awG",@progbits,_ZTIN8opendnp318BufferedCollectionINS_11Group52Var1EZNS_11CountParser13InvokeCountOfIS1_EEvRKNS_12HeaderRecordEtRKN7openpal6RSliceERNS_12IAPDUHandlerEEUlRS8_jE_EE,comdat
	.align 8
	.type	_ZTIN8opendnp318BufferedCollectionINS_11Group52Var1EZNS_11CountParser13InvokeCountOfIS1_EEvRKNS_12HeaderRecordEtRKN7openpal6RSliceERNS_12IAPDUHandlerEEUlRS8_jE_EE, @object
	.size	_ZTIN8opendnp318BufferedCollectionINS_11Group52Var1EZNS_11CountParser13InvokeCountOfIS1_EEvRKNS_12HeaderRecordEtRKN7openpal6RSliceERNS_12IAPDUHandlerEEUlRS8_jE_EE, 24
_ZTIN8opendnp318BufferedCollectionINS_11Group52Var1EZNS_11CountParser13InvokeCountOfIS1_EEvRKNS_12HeaderRecordEtRKN7openpal6RSliceERNS_12IAPDUHandlerEEUlRS8_jE_EE:
	.quad	_ZTVN10__cxxabiv120__si_class_type_infoE+16
	.quad	_ZTSN8opendnp318BufferedCollectionINS_11Group52Var1EZNS_11CountParser13InvokeCountOfIS1_EEvRKNS_12HeaderRecordEtRKN7openpal6RSliceERNS_12IAPDUHandlerEEUlRS8_jE_EE
	.quad	_ZTIN8opendnp311ICollectionINS_11Group52Var1EEE
	.weak	_ZTSN8opendnp318BufferedCollectionINS_11Group52Var2EZNS_11CountParser13InvokeCountOfIS1_EEvRKNS_12HeaderRecordEtRKN7openpal6RSliceERNS_12IAPDUHandlerEEUlRS8_jE_EE
	.section	.rodata._ZTSN8opendnp318BufferedCollectionINS_11Group52Var2EZNS_11CountParser13InvokeCountOfIS1_EEvRKNS_12HeaderRecordEtRKN7openpal6RSliceERNS_12IAPDUHandlerEEUlRS8_jE_EE,"aG",@progbits,_ZTSN8opendnp318BufferedCollectionINS_11Group52Var2EZNS_11CountParser13InvokeCountOfIS1_EEvRKNS_12HeaderRecordEtRKN7openpal6RSliceERNS_12IAPDUHandlerEEUlRS8_jE_EE,comdat
	.align 32
	.type	_ZTSN8opendnp318BufferedCollectionINS_11Group52Var2EZNS_11CountParser13InvokeCountOfIS1_EEvRKNS_12HeaderRecordEtRKN7openpal6RSliceERNS_12IAPDUHandlerEEUlRS8_jE_EE, @object
	.size	_ZTSN8opendnp318BufferedCollectionINS_11Group52Var2EZNS_11CountParser13InvokeCountOfIS1_EEvRKNS_12HeaderRecordEtRKN7openpal6RSliceERNS_12IAPDUHandlerEEUlRS8_jE_EE, 159
_ZTSN8opendnp318BufferedCollectionINS_11Group52Var2EZNS_11CountParser13InvokeCountOfIS1_EEvRKNS_12HeaderRecordEtRKN7openpal6RSliceERNS_12IAPDUHandlerEEUlRS8_jE_EE:
	.string	"N8opendnp318BufferedCollectionINS_11Group52Var2EZNS_11CountParser13InvokeCountOfIS1_EEvRKNS_12HeaderRecordEtRKN7openpal6RSliceERNS_12IAPDUHandlerEEUlRS8_jE_EE"
	.weak	_ZTIN8opendnp318BufferedCollectionINS_11Group52Var2EZNS_11CountParser13InvokeCountOfIS1_EEvRKNS_12HeaderRecordEtRKN7openpal6RSliceERNS_12IAPDUHandlerEEUlRS8_jE_EE
	.section	.data.rel.ro._ZTIN8opendnp318BufferedCollectionINS_11Group52Var2EZNS_11CountParser13InvokeCountOfIS1_EEvRKNS_12HeaderRecordEtRKN7openpal6RSliceERNS_12IAPDUHandlerEEUlRS8_jE_EE,"awG",@progbits,_ZTIN8opendnp318BufferedCollectionINS_11Group52Var2EZNS_11CountParser13InvokeCountOfIS1_EEvRKNS_12HeaderRecordEtRKN7openpal6RSliceERNS_12IAPDUHandlerEEUlRS8_jE_EE,comdat
	.align 8
	.type	_ZTIN8opendnp318BufferedCollectionINS_11Group52Var2EZNS_11CountParser13InvokeCountOfIS1_EEvRKNS_12HeaderRecordEtRKN7openpal6RSliceERNS_12IAPDUHandlerEEUlRS8_jE_EE, @object
	.size	_ZTIN8opendnp318BufferedCollectionINS_11Group52Var2EZNS_11CountParser13InvokeCountOfIS1_EEvRKNS_12HeaderRecordEtRKN7openpal6RSliceERNS_12IAPDUHandlerEEUlRS8_jE_EE, 24
_ZTIN8opendnp318BufferedCollectionINS_11Group52Var2EZNS_11CountParser13InvokeCountOfIS1_EEvRKNS_12HeaderRecordEtRKN7openpal6RSliceERNS_12IAPDUHandlerEEUlRS8_jE_EE:
	.quad	_ZTVN10__cxxabiv120__si_class_type_infoE+16
	.quad	_ZTSN8opendnp318BufferedCollectionINS_11Group52Var2EZNS_11CountParser13InvokeCountOfIS1_EEvRKNS_12HeaderRecordEtRKN7openpal6RSliceERNS_12IAPDUHandlerEEUlRS8_jE_EE
	.quad	_ZTIN8opendnp311ICollectionINS_11Group52Var2EEE
	.weak	_ZTSN8opendnp318BufferedCollectionINS_12Group120Var3EZNS_11CountParser13InvokeCountOfIS1_EEvRKNS_12HeaderRecordEtRKN7openpal6RSliceERNS_12IAPDUHandlerEEUlRS8_jE_EE
	.section	.rodata._ZTSN8opendnp318BufferedCollectionINS_12Group120Var3EZNS_11CountParser13InvokeCountOfIS1_EEvRKNS_12HeaderRecordEtRKN7openpal6RSliceERNS_12IAPDUHandlerEEUlRS8_jE_EE,"aG",@progbits,_ZTSN8opendnp318BufferedCollectionINS_12Group120Var3EZNS_11CountParser13InvokeCountOfIS1_EEvRKNS_12HeaderRecordEtRKN7openpal6RSliceERNS_12IAPDUHandlerEEUlRS8_jE_EE,comdat
	.align 32
	.type	_ZTSN8opendnp318BufferedCollectionINS_12Group120Var3EZNS_11CountParser13InvokeCountOfIS1_EEvRKNS_12HeaderRecordEtRKN7openpal6RSliceERNS_12IAPDUHandlerEEUlRS8_jE_EE, @object
	.size	_ZTSN8opendnp318BufferedCollectionINS_12Group120Var3EZNS_11CountParser13InvokeCountOfIS1_EEvRKNS_12HeaderRecordEtRKN7openpal6RSliceERNS_12IAPDUHandlerEEUlRS8_jE_EE, 160
_ZTSN8opendnp318BufferedCollectionINS_12Group120Var3EZNS_11CountParser13InvokeCountOfIS1_EEvRKNS_12HeaderRecordEtRKN7openpal6RSliceERNS_12IAPDUHandlerEEUlRS8_jE_EE:
	.string	"N8opendnp318BufferedCollectionINS_12Group120Var3EZNS_11CountParser13InvokeCountOfIS1_EEvRKNS_12HeaderRecordEtRKN7openpal6RSliceERNS_12IAPDUHandlerEEUlRS8_jE_EE"
	.weak	_ZTIN8opendnp318BufferedCollectionINS_12Group120Var3EZNS_11CountParser13InvokeCountOfIS1_EEvRKNS_12HeaderRecordEtRKN7openpal6RSliceERNS_12IAPDUHandlerEEUlRS8_jE_EE
	.section	.data.rel.ro._ZTIN8opendnp318BufferedCollectionINS_12Group120Var3EZNS_11CountParser13InvokeCountOfIS1_EEvRKNS_12HeaderRecordEtRKN7openpal6RSliceERNS_12IAPDUHandlerEEUlRS8_jE_EE,"awG",@progbits,_ZTIN8opendnp318BufferedCollectionINS_12Group120Var3EZNS_11CountParser13InvokeCountOfIS1_EEvRKNS_12HeaderRecordEtRKN7openpal6RSliceERNS_12IAPDUHandlerEEUlRS8_jE_EE,comdat
	.align 8
	.type	_ZTIN8opendnp318BufferedCollectionINS_12Group120Var3EZNS_11CountParser13InvokeCountOfIS1_EEvRKNS_12HeaderRecordEtRKN7openpal6RSliceERNS_12IAPDUHandlerEEUlRS8_jE_EE, @object
	.size	_ZTIN8opendnp318BufferedCollectionINS_12Group120Var3EZNS_11CountParser13InvokeCountOfIS1_EEvRKNS_12HeaderRecordEtRKN7openpal6RSliceERNS_12IAPDUHandlerEEUlRS8_jE_EE, 24
_ZTIN8opendnp318BufferedCollectionINS_12Group120Var3EZNS_11CountParser13InvokeCountOfIS1_EEvRKNS_12HeaderRecordEtRKN7openpal6RSliceERNS_12IAPDUHandlerEEUlRS8_jE_EE:
	.quad	_ZTVN10__cxxabiv120__si_class_type_infoE+16
	.quad	_ZTSN8opendnp318BufferedCollectionINS_12Group120Var3EZNS_11CountParser13InvokeCountOfIS1_EEvRKNS_12HeaderRecordEtRKN7openpal6RSliceERNS_12IAPDUHandlerEEUlRS8_jE_EE
	.quad	_ZTIN8opendnp311ICollectionINS_12Group120Var3EEE
	.weak	_ZTSN8opendnp318BufferedCollectionINS_12Group120Var4EZNS_11CountParser13InvokeCountOfIS1_EEvRKNS_12HeaderRecordEtRKN7openpal6RSliceERNS_12IAPDUHandlerEEUlRS8_jE_EE
	.section	.rodata._ZTSN8opendnp318BufferedCollectionINS_12Group120Var4EZNS_11CountParser13InvokeCountOfIS1_EEvRKNS_12HeaderRecordEtRKN7openpal6RSliceERNS_12IAPDUHandlerEEUlRS8_jE_EE,"aG",@progbits,_ZTSN8opendnp318BufferedCollectionINS_12Group120Var4EZNS_11CountParser13InvokeCountOfIS1_EEvRKNS_12HeaderRecordEtRKN7openpal6RSliceERNS_12IAPDUHandlerEEUlRS8_jE_EE,comdat
	.align 32
	.type	_ZTSN8opendnp318BufferedCollectionINS_12Group120Var4EZNS_11CountParser13InvokeCountOfIS1_EEvRKNS_12HeaderRecordEtRKN7openpal6RSliceERNS_12IAPDUHandlerEEUlRS8_jE_EE, @object
	.size	_ZTSN8opendnp318BufferedCollectionINS_12Group120Var4EZNS_11CountParser13InvokeCountOfIS1_EEvRKNS_12HeaderRecordEtRKN7openpal6RSliceERNS_12IAPDUHandlerEEUlRS8_jE_EE, 160
_ZTSN8opendnp318BufferedCollectionINS_12Group120Var4EZNS_11CountParser13InvokeCountOfIS1_EEvRKNS_12HeaderRecordEtRKN7openpal6RSliceERNS_12IAPDUHandlerEEUlRS8_jE_EE:
	.string	"N8opendnp318BufferedCollectionINS_12Group120Var4EZNS_11CountParser13InvokeCountOfIS1_EEvRKNS_12HeaderRecordEtRKN7openpal6RSliceERNS_12IAPDUHandlerEEUlRS8_jE_EE"
	.weak	_ZTIN8opendnp318BufferedCollectionINS_12Group120Var4EZNS_11CountParser13InvokeCountOfIS1_EEvRKNS_12HeaderRecordEtRKN7openpal6RSliceERNS_12IAPDUHandlerEEUlRS8_jE_EE
	.section	.data.rel.ro._ZTIN8opendnp318BufferedCollectionINS_12Group120Var4EZNS_11CountParser13InvokeCountOfIS1_EEvRKNS_12HeaderRecordEtRKN7openpal6RSliceERNS_12IAPDUHandlerEEUlRS8_jE_EE,"awG",@progbits,_ZTIN8opendnp318BufferedCollectionINS_12Group120Var4EZNS_11CountParser13InvokeCountOfIS1_EEvRKNS_12HeaderRecordEtRKN7openpal6RSliceERNS_12IAPDUHandlerEEUlRS8_jE_EE,comdat
	.align 8
	.type	_ZTIN8opendnp318BufferedCollectionINS_12Group120Var4EZNS_11CountParser13InvokeCountOfIS1_EEvRKNS_12HeaderRecordEtRKN7openpal6RSliceERNS_12IAPDUHandlerEEUlRS8_jE_EE, @object
	.size	_ZTIN8opendnp318BufferedCollectionINS_12Group120Var4EZNS_11CountParser13InvokeCountOfIS1_EEvRKNS_12HeaderRecordEtRKN7openpal6RSliceERNS_12IAPDUHandlerEEUlRS8_jE_EE, 24
_ZTIN8opendnp318BufferedCollectionINS_12Group120Var4EZNS_11CountParser13InvokeCountOfIS1_EEvRKNS_12HeaderRecordEtRKN7openpal6RSliceERNS_12IAPDUHandlerEEUlRS8_jE_EE:
	.quad	_ZTVN10__cxxabiv120__si_class_type_infoE+16
	.quad	_ZTSN8opendnp318BufferedCollectionINS_12Group120Var4EZNS_11CountParser13InvokeCountOfIS1_EEvRKNS_12HeaderRecordEtRKN7openpal6RSliceERNS_12IAPDUHandlerEEUlRS8_jE_EE
	.quad	_ZTIN8opendnp311ICollectionINS_12Group120Var4EEE
	.weak	_ZTVN8opendnp318BufferedCollectionINS_11Group50Var1EZNS_11CountParser13InvokeCountOfIS1_EEvRKNS_12HeaderRecordEtRKN7openpal6RSliceERNS_12IAPDUHandlerEEUlRS8_jE_EE
	.section	.data.rel.ro._ZTVN8opendnp318BufferedCollectionINS_11Group50Var1EZNS_11CountParser13InvokeCountOfIS1_EEvRKNS_12HeaderRecordEtRKN7openpal6RSliceERNS_12IAPDUHandlerEEUlRS8_jE_EE,"awG",@progbits,_ZTVN8opendnp318BufferedCollectionINS_11Group50Var1EZNS_11CountParser13InvokeCountOfIS1_EEvRKNS_12HeaderRecordEtRKN7openpal6RSliceERNS_12IAPDUHandlerEEUlRS8_jE_EE,comdat
	.align 8
	.type	_ZTVN8opendnp318BufferedCollectionINS_11Group50Var1EZNS_11CountParser13InvokeCountOfIS1_EEvRKNS_12HeaderRecordEtRKN7openpal6RSliceERNS_12IAPDUHandlerEEUlRS8_jE_EE, @object
	.size	_ZTVN8opendnp318BufferedCollectionINS_11Group50Var1EZNS_11CountParser13InvokeCountOfIS1_EEvRKNS_12HeaderRecordEtRKN7openpal6RSliceERNS_12IAPDUHandlerEEUlRS8_jE_EE, 32
_ZTVN8opendnp318BufferedCollectionINS_11Group50Var1EZNS_11CountParser13InvokeCountOfIS1_EEvRKNS_12HeaderRecordEtRKN7openpal6RSliceERNS_12IAPDUHandlerEEUlRS8_jE_EE:
	.quad	0
	.quad	_ZTIN8opendnp318BufferedCollectionINS_11Group50Var1EZNS_11CountParser13InvokeCountOfIS1_EEvRKNS_12HeaderRecordEtRKN7openpal6RSliceERNS_12IAPDUHandlerEEUlRS8_jE_EE
	.quad	_ZNK8opendnp318BufferedCollectionINS_11Group50Var1EZNS_11CountParser13InvokeCountOfIS1_EEvRKNS_12HeaderRecordEtRKN7openpal6RSliceERNS_12IAPDUHandlerEEUlRS8_jE_E5CountEv
	.quad	_ZNK8opendnp318BufferedCollectionINS_11Group50Var1EZNS_11CountParser13InvokeCountOfIS1_EEvRKNS_12HeaderRecordEtRKN7openpal6RSliceERNS_12IAPDUHandlerEEUlRS8_jE_E7ForeachERNS_8IVisitorIS1_EE
	.weak	_ZTVN8opendnp318BufferedCollectionINS_11Group51Var1EZNS_11CountParser13InvokeCountOfIS1_EEvRKNS_12HeaderRecordEtRKN7openpal6RSliceERNS_12IAPDUHandlerEEUlRS8_jE_EE
	.section	.data.rel.ro._ZTVN8opendnp318BufferedCollectionINS_11Group51Var1EZNS_11CountParser13InvokeCountOfIS1_EEvRKNS_12HeaderRecordEtRKN7openpal6RSliceERNS_12IAPDUHandlerEEUlRS8_jE_EE,"awG",@progbits,_ZTVN8opendnp318BufferedCollectionINS_11Group51Var1EZNS_11CountParser13InvokeCountOfIS1_EEvRKNS_12HeaderRecordEtRKN7openpal6RSliceERNS_12IAPDUHandlerEEUlRS8_jE_EE,comdat
	.align 8
	.type	_ZTVN8opendnp318BufferedCollectionINS_11Group51Var1EZNS_11CountParser13InvokeCountOfIS1_EEvRKNS_12HeaderRecordEtRKN7openpal6RSliceERNS_12IAPDUHandlerEEUlRS8_jE_EE, @object
	.size	_ZTVN8opendnp318BufferedCollectionINS_11Group51Var1EZNS_11CountParser13InvokeCountOfIS1_EEvRKNS_12HeaderRecordEtRKN7openpal6RSliceERNS_12IAPDUHandlerEEUlRS8_jE_EE, 32
_ZTVN8opendnp318BufferedCollectionINS_11Group51Var1EZNS_11CountParser13InvokeCountOfIS1_EEvRKNS_12HeaderRecordEtRKN7openpal6RSliceERNS_12IAPDUHandlerEEUlRS8_jE_EE:
	.quad	0
	.quad	_ZTIN8opendnp318BufferedCollectionINS_11Group51Var1EZNS_11CountParser13InvokeCountOfIS1_EEvRKNS_12HeaderRecordEtRKN7openpal6RSliceERNS_12IAPDUHandlerEEUlRS8_jE_EE
	.quad	_ZNK8opendnp318BufferedCollectionINS_11Group51Var1EZNS_11CountParser13InvokeCountOfIS1_EEvRKNS_12HeaderRecordEtRKN7openpal6RSliceERNS_12IAPDUHandlerEEUlRS8_jE_E5CountEv
	.quad	_ZNK8opendnp318BufferedCollectionINS_11Group51Var1EZNS_11CountParser13InvokeCountOfIS1_EEvRKNS_12HeaderRecordEtRKN7openpal6RSliceERNS_12IAPDUHandlerEEUlRS8_jE_E7ForeachERNS_8IVisitorIS1_EE
	.weak	_ZTVN8opendnp318BufferedCollectionINS_11Group51Var2EZNS_11CountParser13InvokeCountOfIS1_EEvRKNS_12HeaderRecordEtRKN7openpal6RSliceERNS_12IAPDUHandlerEEUlRS8_jE_EE
	.section	.data.rel.ro._ZTVN8opendnp318BufferedCollectionINS_11Group51Var2EZNS_11CountParser13InvokeCountOfIS1_EEvRKNS_12HeaderRecordEtRKN7openpal6RSliceERNS_12IAPDUHandlerEEUlRS8_jE_EE,"awG",@progbits,_ZTVN8opendnp318BufferedCollectionINS_11Group51Var2EZNS_11CountParser13InvokeCountOfIS1_EEvRKNS_12HeaderRecordEtRKN7openpal6RSliceERNS_12IAPDUHandlerEEUlRS8_jE_EE,comdat
	.align 8
	.type	_ZTVN8opendnp318BufferedCollectionINS_11Group51Var2EZNS_11CountParser13InvokeCountOfIS1_EEvRKNS_12HeaderRecordEtRKN7openpal6RSliceERNS_12IAPDUHandlerEEUlRS8_jE_EE, @object
	.size	_ZTVN8opendnp318BufferedCollectionINS_11Group51Var2EZNS_11CountParser13InvokeCountOfIS1_EEvRKNS_12HeaderRecordEtRKN7openpal6RSliceERNS_12IAPDUHandlerEEUlRS8_jE_EE, 32
_ZTVN8opendnp318BufferedCollectionINS_11Group51Var2EZNS_11CountParser13InvokeCountOfIS1_EEvRKNS_12HeaderRecordEtRKN7openpal6RSliceERNS_12IAPDUHandlerEEUlRS8_jE_EE:
	.quad	0
	.quad	_ZTIN8opendnp318BufferedCollectionINS_11Group51Var2EZNS_11CountParser13InvokeCountOfIS1_EEvRKNS_12HeaderRecordEtRKN7openpal6RSliceERNS_12IAPDUHandlerEEUlRS8_jE_EE
	.quad	_ZNK8opendnp318BufferedCollectionINS_11Group51Var2EZNS_11CountParser13InvokeCountOfIS1_EEvRKNS_12HeaderRecordEtRKN7openpal6RSliceERNS_12IAPDUHandlerEEUlRS8_jE_E5CountEv
	.quad	_ZNK8opendnp318BufferedCollectionINS_11Group51Var2EZNS_11CountParser13InvokeCountOfIS1_EEvRKNS_12HeaderRecordEtRKN7openpal6RSliceERNS_12IAPDUHandlerEEUlRS8_jE_E7ForeachERNS_8IVisitorIS1_EE
	.weak	_ZTVN8opendnp318BufferedCollectionINS_11Group52Var1EZNS_11CountParser13InvokeCountOfIS1_EEvRKNS_12HeaderRecordEtRKN7openpal6RSliceERNS_12IAPDUHandlerEEUlRS8_jE_EE
	.section	.data.rel.ro._ZTVN8opendnp318BufferedCollectionINS_11Group52Var1EZNS_11CountParser13InvokeCountOfIS1_EEvRKNS_12HeaderRecordEtRKN7openpal6RSliceERNS_12IAPDUHandlerEEUlRS8_jE_EE,"awG",@progbits,_ZTVN8opendnp318BufferedCollectionINS_11Group52Var1EZNS_11CountParser13InvokeCountOfIS1_EEvRKNS_12HeaderRecordEtRKN7openpal6RSliceERNS_12IAPDUHandlerEEUlRS8_jE_EE,comdat
	.align 8
	.type	_ZTVN8opendnp318BufferedCollectionINS_11Group52Var1EZNS_11CountParser13InvokeCountOfIS1_EEvRKNS_12HeaderRecordEtRKN7openpal6RSliceERNS_12IAPDUHandlerEEUlRS8_jE_EE, @object
	.size	_ZTVN8opendnp318BufferedCollectionINS_11Group52Var1EZNS_11CountParser13InvokeCountOfIS1_EEvRKNS_12HeaderRecordEtRKN7openpal6RSliceERNS_12IAPDUHandlerEEUlRS8_jE_EE, 32
_ZTVN8opendnp318BufferedCollectionINS_11Group52Var1EZNS_11CountParser13InvokeCountOfIS1_EEvRKNS_12HeaderRecordEtRKN7openpal6RSliceERNS_12IAPDUHandlerEEUlRS8_jE_EE:
	.quad	0
	.quad	_ZTIN8opendnp318BufferedCollectionINS_11Group52Var1EZNS_11CountParser13InvokeCountOfIS1_EEvRKNS_12HeaderRecordEtRKN7openpal6RSliceERNS_12IAPDUHandlerEEUlRS8_jE_EE
	.quad	_ZNK8opendnp318BufferedCollectionINS_11Group52Var1EZNS_11CountParser13InvokeCountOfIS1_EEvRKNS_12HeaderRecordEtRKN7openpal6RSliceERNS_12IAPDUHandlerEEUlRS8_jE_E5CountEv
	.quad	_ZNK8opendnp318BufferedCollectionINS_11Group52Var1EZNS_11CountParser13InvokeCountOfIS1_EEvRKNS_12HeaderRecordEtRKN7openpal6RSliceERNS_12IAPDUHandlerEEUlRS8_jE_E7ForeachERNS_8IVisitorIS1_EE
	.weak	_ZTVN8opendnp318BufferedCollectionINS_11Group52Var2EZNS_11CountParser13InvokeCountOfIS1_EEvRKNS_12HeaderRecordEtRKN7openpal6RSliceERNS_12IAPDUHandlerEEUlRS8_jE_EE
	.section	.data.rel.ro._ZTVN8opendnp318BufferedCollectionINS_11Group52Var2EZNS_11CountParser13InvokeCountOfIS1_EEvRKNS_12HeaderRecordEtRKN7openpal6RSliceERNS_12IAPDUHandlerEEUlRS8_jE_EE,"awG",@progbits,_ZTVN8opendnp318BufferedCollectionINS_11Group52Var2EZNS_11CountParser13InvokeCountOfIS1_EEvRKNS_12HeaderRecordEtRKN7openpal6RSliceERNS_12IAPDUHandlerEEUlRS8_jE_EE,comdat
	.align 8
	.type	_ZTVN8opendnp318BufferedCollectionINS_11Group52Var2EZNS_11CountParser13InvokeCountOfIS1_EEvRKNS_12HeaderRecordEtRKN7openpal6RSliceERNS_12IAPDUHandlerEEUlRS8_jE_EE, @object
	.size	_ZTVN8opendnp318BufferedCollectionINS_11Group52Var2EZNS_11CountParser13InvokeCountOfIS1_EEvRKNS_12HeaderRecordEtRKN7openpal6RSliceERNS_12IAPDUHandlerEEUlRS8_jE_EE, 32
_ZTVN8opendnp318BufferedCollectionINS_11Group52Var2EZNS_11CountParser13InvokeCountOfIS1_EEvRKNS_12HeaderRecordEtRKN7openpal6RSliceERNS_12IAPDUHandlerEEUlRS8_jE_EE:
	.quad	0
	.quad	_ZTIN8opendnp318BufferedCollectionINS_11Group52Var2EZNS_11CountParser13InvokeCountOfIS1_EEvRKNS_12HeaderRecordEtRKN7openpal6RSliceERNS_12IAPDUHandlerEEUlRS8_jE_EE
	.quad	_ZNK8opendnp318BufferedCollectionINS_11Group52Var2EZNS_11CountParser13InvokeCountOfIS1_EEvRKNS_12HeaderRecordEtRKN7openpal6RSliceERNS_12IAPDUHandlerEEUlRS8_jE_E5CountEv
	.quad	_ZNK8opendnp318BufferedCollectionINS_11Group52Var2EZNS_11CountParser13InvokeCountOfIS1_EEvRKNS_12HeaderRecordEtRKN7openpal6RSliceERNS_12IAPDUHandlerEEUlRS8_jE_E7ForeachERNS_8IVisitorIS1_EE
	.weak	_ZTVN8opendnp318BufferedCollectionINS_12Group120Var3EZNS_11CountParser13InvokeCountOfIS1_EEvRKNS_12HeaderRecordEtRKN7openpal6RSliceERNS_12IAPDUHandlerEEUlRS8_jE_EE
	.section	.data.rel.ro._ZTVN8opendnp318BufferedCollectionINS_12Group120Var3EZNS_11CountParser13InvokeCountOfIS1_EEvRKNS_12HeaderRecordEtRKN7openpal6RSliceERNS_12IAPDUHandlerEEUlRS8_jE_EE,"awG",@progbits,_ZTVN8opendnp318BufferedCollectionINS_12Group120Var3EZNS_11CountParser13InvokeCountOfIS1_EEvRKNS_12HeaderRecordEtRKN7openpal6RSliceERNS_12IAPDUHandlerEEUlRS8_jE_EE,comdat
	.align 8
	.type	_ZTVN8opendnp318BufferedCollectionINS_12Group120Var3EZNS_11CountParser13InvokeCountOfIS1_EEvRKNS_12HeaderRecordEtRKN7openpal6RSliceERNS_12IAPDUHandlerEEUlRS8_jE_EE, @object
	.size	_ZTVN8opendnp318BufferedCollectionINS_12Group120Var3EZNS_11CountParser13InvokeCountOfIS1_EEvRKNS_12HeaderRecordEtRKN7openpal6RSliceERNS_12IAPDUHandlerEEUlRS8_jE_EE, 32
_ZTVN8opendnp318BufferedCollectionINS_12Group120Var3EZNS_11CountParser13InvokeCountOfIS1_EEvRKNS_12HeaderRecordEtRKN7openpal6RSliceERNS_12IAPDUHandlerEEUlRS8_jE_EE:
	.quad	0
	.quad	_ZTIN8opendnp318BufferedCollectionINS_12Group120Var3EZNS_11CountParser13InvokeCountOfIS1_EEvRKNS_12HeaderRecordEtRKN7openpal6RSliceERNS_12IAPDUHandlerEEUlRS8_jE_EE
	.quad	_ZNK8opendnp318BufferedCollectionINS_12Group120Var3EZNS_11CountParser13InvokeCountOfIS1_EEvRKNS_12HeaderRecordEtRKN7openpal6RSliceERNS_12IAPDUHandlerEEUlRS8_jE_E5CountEv
	.quad	_ZNK8opendnp318BufferedCollectionINS_12Group120Var3EZNS_11CountParser13InvokeCountOfIS1_EEvRKNS_12HeaderRecordEtRKN7openpal6RSliceERNS_12IAPDUHandlerEEUlRS8_jE_E7ForeachERNS_8IVisitorIS1_EE
	.weak	_ZTVN8opendnp318BufferedCollectionINS_12Group120Var4EZNS_11CountParser13InvokeCountOfIS1_EEvRKNS_12HeaderRecordEtRKN7openpal6RSliceERNS_12IAPDUHandlerEEUlRS8_jE_EE
	.section	.data.rel.ro._ZTVN8opendnp318BufferedCollectionINS_12Group120Var4EZNS_11CountParser13InvokeCountOfIS1_EEvRKNS_12HeaderRecordEtRKN7openpal6RSliceERNS_12IAPDUHandlerEEUlRS8_jE_EE,"awG",@progbits,_ZTVN8opendnp318BufferedCollectionINS_12Group120Var4EZNS_11CountParser13InvokeCountOfIS1_EEvRKNS_12HeaderRecordEtRKN7openpal6RSliceERNS_12IAPDUHandlerEEUlRS8_jE_EE,comdat
	.align 8
	.type	_ZTVN8opendnp318BufferedCollectionINS_12Group120Var4EZNS_11CountParser13InvokeCountOfIS1_EEvRKNS_12HeaderRecordEtRKN7openpal6RSliceERNS_12IAPDUHandlerEEUlRS8_jE_EE, @object
	.size	_ZTVN8opendnp318BufferedCollectionINS_12Group120Var4EZNS_11CountParser13InvokeCountOfIS1_EEvRKNS_12HeaderRecordEtRKN7openpal6RSliceERNS_12IAPDUHandlerEEUlRS8_jE_EE, 32
_ZTVN8opendnp318BufferedCollectionINS_12Group120Var4EZNS_11CountParser13InvokeCountOfIS1_EEvRKNS_12HeaderRecordEtRKN7openpal6RSliceERNS_12IAPDUHandlerEEUlRS8_jE_EE:
	.quad	0
	.quad	_ZTIN8opendnp318BufferedCollectionINS_12Group120Var4EZNS_11CountParser13InvokeCountOfIS1_EEvRKNS_12HeaderRecordEtRKN7openpal6RSliceERNS_12IAPDUHandlerEEUlRS8_jE_EE
	.quad	_ZNK8opendnp318BufferedCollectionINS_12Group120Var4EZNS_11CountParser13InvokeCountOfIS1_EEvRKNS_12HeaderRecordEtRKN7openpal6RSliceERNS_12IAPDUHandlerEEUlRS8_jE_E5CountEv
	.quad	_ZNK8opendnp318BufferedCollectionINS_12Group120Var4EZNS_11CountParser13InvokeCountOfIS1_EEvRKNS_12HeaderRecordEtRKN7openpal6RSliceERNS_12IAPDUHandlerEEUlRS8_jE_E7ForeachERNS_8IVisitorIS1_EE
	.ident	"GCC: (Debian 15.2.0-4) 15.2.0"
	.section	.note.GNU-stack,"",@progbits
