	.file	"CountIndexParser.cpp"
	.text
	.section	.text._ZN7openpal12StaticBufferILj255EED2Ev,"axG",@progbits,_ZN7openpal12StaticBufferILj255EED5Ev,comdat
	.align 2
	.p2align 4
	.weak	_ZN7openpal12StaticBufferILj255EED2Ev
	.type	_ZN7openpal12StaticBufferILj255EED2Ev, @function
_ZN7openpal12StaticBufferILj255EED2Ev:
.LFB2781:
	.cfi_startproc
	ret
	.cfi_endproc
.LFE2781:
	.size	_ZN7openpal12StaticBufferILj255EED2Ev, .-_ZN7openpal12StaticBufferILj255EED2Ev
	.weak	_ZN7openpal12StaticBufferILj255EED1Ev
	.set	_ZN7openpal12StaticBufferILj255EED1Ev,_ZN7openpal12StaticBufferILj255EED2Ev
	.section	.text._ZNK8opendnp318BufferedCollectionINS_7IndexedINS_12Group122Var2EEEZNS_16CountIndexParser17InvokeCountOfTypeIS2_EEvRKNS_12HeaderRecordEtRKNS_9NumParserERKN7openpal6RSliceERNS_12IAPDUHandlerEEUlRSD_jE_E5CountEv,"axG",@progbits,_ZNK8opendnp318BufferedCollectionINS_7IndexedINS_12Group122Var2EEEZNS_16CountIndexParser17InvokeCountOfTypeIS2_EEvRKNS_12HeaderRecordEtRKNS_9NumParserERKN7openpal6RSliceERNS_12IAPDUHandlerEEUlRSD_jE_E5CountEv,comdat
	.align 2
	.p2align 4
	.weak	_ZNK8opendnp318BufferedCollectionINS_7IndexedINS_12Group122Var2EEEZNS_16CountIndexParser17InvokeCountOfTypeIS2_EEvRKNS_12HeaderRecordEtRKNS_9NumParserERKN7openpal6RSliceERNS_12IAPDUHandlerEEUlRSD_jE_E5CountEv
	.type	_ZNK8opendnp318BufferedCollectionINS_7IndexedINS_12Group122Var2EEEZNS_16CountIndexParser17InvokeCountOfTypeIS2_EEvRKNS_12HeaderRecordEtRKNS_9NumParserERKN7openpal6RSliceERNS_12IAPDUHandlerEEUlRSD_jE_E5CountEv, @function
_ZNK8opendnp318BufferedCollectionINS_7IndexedINS_12Group122Var2EEEZNS_16CountIndexParser17InvokeCountOfTypeIS2_EEvRKNS_12HeaderRecordEtRKNS_9NumParserERKN7openpal6RSliceERNS_12IAPDUHandlerEEUlRSD_jE_E5CountEv:
.LFB3945:
	.cfi_startproc
	movq	24(%rdi), %rax
	ret
	.cfi_endproc
.LFE3945:
	.size	_ZNK8opendnp318BufferedCollectionINS_7IndexedINS_12Group122Var2EEEZNS_16CountIndexParser17InvokeCountOfTypeIS2_EEvRKNS_12HeaderRecordEtRKNS_9NumParserERKN7openpal6RSliceERNS_12IAPDUHandlerEEUlRSD_jE_E5CountEv, .-_ZNK8opendnp318BufferedCollectionINS_7IndexedINS_12Group122Var2EEEZNS_16CountIndexParser17InvokeCountOfTypeIS2_EEvRKNS_12HeaderRecordEtRKNS_9NumParserERKN7openpal6RSliceERNS_12IAPDUHandlerEEUlRSD_jE_E5CountEv
	.section	.text._ZNK8opendnp318BufferedCollectionINS_7IndexedINS_12Group122Var1EEEZNS_16CountIndexParser17InvokeCountOfTypeIS2_EEvRKNS_12HeaderRecordEtRKNS_9NumParserERKN7openpal6RSliceERNS_12IAPDUHandlerEEUlRSD_jE_E5CountEv,"axG",@progbits,_ZNK8opendnp318BufferedCollectionINS_7IndexedINS_12Group122Var1EEEZNS_16CountIndexParser17InvokeCountOfTypeIS2_EEvRKNS_12HeaderRecordEtRKNS_9NumParserERKN7openpal6RSliceERNS_12IAPDUHandlerEEUlRSD_jE_E5CountEv,comdat
	.align 2
	.p2align 4
	.weak	_ZNK8opendnp318BufferedCollectionINS_7IndexedINS_12Group122Var1EEEZNS_16CountIndexParser17InvokeCountOfTypeIS2_EEvRKNS_12HeaderRecordEtRKNS_9NumParserERKN7openpal6RSliceERNS_12IAPDUHandlerEEUlRSD_jE_E5CountEv
	.type	_ZNK8opendnp318BufferedCollectionINS_7IndexedINS_12Group122Var1EEEZNS_16CountIndexParser17InvokeCountOfTypeIS2_EEvRKNS_12HeaderRecordEtRKNS_9NumParserERKN7openpal6RSliceERNS_12IAPDUHandlerEEUlRSD_jE_E5CountEv, @function
_ZNK8opendnp318BufferedCollectionINS_7IndexedINS_12Group122Var1EEEZNS_16CountIndexParser17InvokeCountOfTypeIS2_EEvRKNS_12HeaderRecordEtRKNS_9NumParserERKN7openpal6RSliceERNS_12IAPDUHandlerEEUlRSD_jE_E5CountEv:
.LFB3947:
	.cfi_startproc
	movq	24(%rdi), %rax
	ret
	.cfi_endproc
.LFE3947:
	.size	_ZNK8opendnp318BufferedCollectionINS_7IndexedINS_12Group122Var1EEEZNS_16CountIndexParser17InvokeCountOfTypeIS2_EEvRKNS_12HeaderRecordEtRKNS_9NumParserERKN7openpal6RSliceERNS_12IAPDUHandlerEEUlRSD_jE_E5CountEv, .-_ZNK8opendnp318BufferedCollectionINS_7IndexedINS_12Group122Var1EEEZNS_16CountIndexParser17InvokeCountOfTypeIS2_EEvRKNS_12HeaderRecordEtRKNS_9NumParserERKN7openpal6RSliceERNS_12IAPDUHandlerEEUlRSD_jE_E5CountEv
	.section	.text._ZNK8opendnp318BufferedCollectionINS_7IndexedINS_15TimeAndIntervalEEEZNS_16CountIndexParser13InvokeCountOfINS_11Group50Var4EEEvRKNS_12HeaderRecordEtRKNS_9NumParserERKN7openpal6RSliceERNS_12IAPDUHandlerEEUlRSE_jE_E5CountEv,"axG",@progbits,_ZNK8opendnp318BufferedCollectionINS_7IndexedINS_15TimeAndIntervalEEEZNS_16CountIndexParser13InvokeCountOfINS_11Group50Var4EEEvRKNS_12HeaderRecordEtRKNS_9NumParserERKN7openpal6RSliceERNS_12IAPDUHandlerEEUlRSE_jE_E5CountEv,comdat
	.align 2
	.p2align 4
	.weak	_ZNK8opendnp318BufferedCollectionINS_7IndexedINS_15TimeAndIntervalEEEZNS_16CountIndexParser13InvokeCountOfINS_11Group50Var4EEEvRKNS_12HeaderRecordEtRKNS_9NumParserERKN7openpal6RSliceERNS_12IAPDUHandlerEEUlRSE_jE_E5CountEv
	.type	_ZNK8opendnp318BufferedCollectionINS_7IndexedINS_15TimeAndIntervalEEEZNS_16CountIndexParser13InvokeCountOfINS_11Group50Var4EEEvRKNS_12HeaderRecordEtRKNS_9NumParserERKN7openpal6RSliceERNS_12IAPDUHandlerEEUlRSE_jE_E5CountEv, @function
_ZNK8opendnp318BufferedCollectionINS_7IndexedINS_15TimeAndIntervalEEEZNS_16CountIndexParser13InvokeCountOfINS_11Group50Var4EEEvRKNS_12HeaderRecordEtRKNS_9NumParserERKN7openpal6RSliceERNS_12IAPDUHandlerEEUlRSE_jE_E5CountEv:
.LFB3949:
	.cfi_startproc
	movq	24(%rdi), %rax
	ret
	.cfi_endproc
.LFE3949:
	.size	_ZNK8opendnp318BufferedCollectionINS_7IndexedINS_15TimeAndIntervalEEEZNS_16CountIndexParser13InvokeCountOfINS_11Group50Var4EEEvRKNS_12HeaderRecordEtRKNS_9NumParserERKN7openpal6RSliceERNS_12IAPDUHandlerEEUlRSE_jE_E5CountEv, .-_ZNK8opendnp318BufferedCollectionINS_7IndexedINS_15TimeAndIntervalEEEZNS_16CountIndexParser13InvokeCountOfINS_11Group50Var4EEEvRKNS_12HeaderRecordEtRKNS_9NumParserERKN7openpal6RSliceERNS_12IAPDUHandlerEEUlRSE_jE_E5CountEv
	.section	.text._ZNK8opendnp318BufferedCollectionINS_7IndexedINS_18AnalogCommandEventEEEZNS_16CountIndexParser13InvokeCountOfINS_11Group43Var8EEEvRKNS_12HeaderRecordEtRKNS_9NumParserERKN7openpal6RSliceERNS_12IAPDUHandlerEEUlRSE_jE_E5CountEv,"axG",@progbits,_ZNK8opendnp318BufferedCollectionINS_7IndexedINS_18AnalogCommandEventEEEZNS_16CountIndexParser13InvokeCountOfINS_11Group43Var8EEEvRKNS_12HeaderRecordEtRKNS_9NumParserERKN7openpal6RSliceERNS_12IAPDUHandlerEEUlRSE_jE_E5CountEv,comdat
	.align 2
	.p2align 4
	.weak	_ZNK8opendnp318BufferedCollectionINS_7IndexedINS_18AnalogCommandEventEEEZNS_16CountIndexParser13InvokeCountOfINS_11Group43Var8EEEvRKNS_12HeaderRecordEtRKNS_9NumParserERKN7openpal6RSliceERNS_12IAPDUHandlerEEUlRSE_jE_E5CountEv
	.type	_ZNK8opendnp318BufferedCollectionINS_7IndexedINS_18AnalogCommandEventEEEZNS_16CountIndexParser13InvokeCountOfINS_11Group43Var8EEEvRKNS_12HeaderRecordEtRKNS_9NumParserERKN7openpal6RSliceERNS_12IAPDUHandlerEEUlRSE_jE_E5CountEv, @function
_ZNK8opendnp318BufferedCollectionINS_7IndexedINS_18AnalogCommandEventEEEZNS_16CountIndexParser13InvokeCountOfINS_11Group43Var8EEEvRKNS_12HeaderRecordEtRKNS_9NumParserERKN7openpal6RSliceERNS_12IAPDUHandlerEEUlRSE_jE_E5CountEv:
.LFB3951:
	.cfi_startproc
	movq	24(%rdi), %rax
	ret
	.cfi_endproc
.LFE3951:
	.size	_ZNK8opendnp318BufferedCollectionINS_7IndexedINS_18AnalogCommandEventEEEZNS_16CountIndexParser13InvokeCountOfINS_11Group43Var8EEEvRKNS_12HeaderRecordEtRKNS_9NumParserERKN7openpal6RSliceERNS_12IAPDUHandlerEEUlRSE_jE_E5CountEv, .-_ZNK8opendnp318BufferedCollectionINS_7IndexedINS_18AnalogCommandEventEEEZNS_16CountIndexParser13InvokeCountOfINS_11Group43Var8EEEvRKNS_12HeaderRecordEtRKNS_9NumParserERKN7openpal6RSliceERNS_12IAPDUHandlerEEUlRSE_jE_E5CountEv
	.section	.text._ZNK8opendnp318BufferedCollectionINS_7IndexedINS_18AnalogCommandEventEEEZNS_16CountIndexParser13InvokeCountOfINS_11Group43Var7EEEvRKNS_12HeaderRecordEtRKNS_9NumParserERKN7openpal6RSliceERNS_12IAPDUHandlerEEUlRSE_jE_E5CountEv,"axG",@progbits,_ZNK8opendnp318BufferedCollectionINS_7IndexedINS_18AnalogCommandEventEEEZNS_16CountIndexParser13InvokeCountOfINS_11Group43Var7EEEvRKNS_12HeaderRecordEtRKNS_9NumParserERKN7openpal6RSliceERNS_12IAPDUHandlerEEUlRSE_jE_E5CountEv,comdat
	.align 2
	.p2align 4
	.weak	_ZNK8opendnp318BufferedCollectionINS_7IndexedINS_18AnalogCommandEventEEEZNS_16CountIndexParser13InvokeCountOfINS_11Group43Var7EEEvRKNS_12HeaderRecordEtRKNS_9NumParserERKN7openpal6RSliceERNS_12IAPDUHandlerEEUlRSE_jE_E5CountEv
	.type	_ZNK8opendnp318BufferedCollectionINS_7IndexedINS_18AnalogCommandEventEEEZNS_16CountIndexParser13InvokeCountOfINS_11Group43Var7EEEvRKNS_12HeaderRecordEtRKNS_9NumParserERKN7openpal6RSliceERNS_12IAPDUHandlerEEUlRSE_jE_E5CountEv, @function
_ZNK8opendnp318BufferedCollectionINS_7IndexedINS_18AnalogCommandEventEEEZNS_16CountIndexParser13InvokeCountOfINS_11Group43Var7EEEvRKNS_12HeaderRecordEtRKNS_9NumParserERKN7openpal6RSliceERNS_12IAPDUHandlerEEUlRSE_jE_E5CountEv:
.LFB3953:
	.cfi_startproc
	movq	24(%rdi), %rax
	ret
	.cfi_endproc
.LFE3953:
	.size	_ZNK8opendnp318BufferedCollectionINS_7IndexedINS_18AnalogCommandEventEEEZNS_16CountIndexParser13InvokeCountOfINS_11Group43Var7EEEvRKNS_12HeaderRecordEtRKNS_9NumParserERKN7openpal6RSliceERNS_12IAPDUHandlerEEUlRSE_jE_E5CountEv, .-_ZNK8opendnp318BufferedCollectionINS_7IndexedINS_18AnalogCommandEventEEEZNS_16CountIndexParser13InvokeCountOfINS_11Group43Var7EEEvRKNS_12HeaderRecordEtRKNS_9NumParserERKN7openpal6RSliceERNS_12IAPDUHandlerEEUlRSE_jE_E5CountEv
	.section	.text._ZNK8opendnp318BufferedCollectionINS_7IndexedINS_18AnalogCommandEventEEEZNS_16CountIndexParser13InvokeCountOfINS_11Group43Var6EEEvRKNS_12HeaderRecordEtRKNS_9NumParserERKN7openpal6RSliceERNS_12IAPDUHandlerEEUlRSE_jE_E5CountEv,"axG",@progbits,_ZNK8opendnp318BufferedCollectionINS_7IndexedINS_18AnalogCommandEventEEEZNS_16CountIndexParser13InvokeCountOfINS_11Group43Var6EEEvRKNS_12HeaderRecordEtRKNS_9NumParserERKN7openpal6RSliceERNS_12IAPDUHandlerEEUlRSE_jE_E5CountEv,comdat
	.align 2
	.p2align 4
	.weak	_ZNK8opendnp318BufferedCollectionINS_7IndexedINS_18AnalogCommandEventEEEZNS_16CountIndexParser13InvokeCountOfINS_11Group43Var6EEEvRKNS_12HeaderRecordEtRKNS_9NumParserERKN7openpal6RSliceERNS_12IAPDUHandlerEEUlRSE_jE_E5CountEv
	.type	_ZNK8opendnp318BufferedCollectionINS_7IndexedINS_18AnalogCommandEventEEEZNS_16CountIndexParser13InvokeCountOfINS_11Group43Var6EEEvRKNS_12HeaderRecordEtRKNS_9NumParserERKN7openpal6RSliceERNS_12IAPDUHandlerEEUlRSE_jE_E5CountEv, @function
_ZNK8opendnp318BufferedCollectionINS_7IndexedINS_18AnalogCommandEventEEEZNS_16CountIndexParser13InvokeCountOfINS_11Group43Var6EEEvRKNS_12HeaderRecordEtRKNS_9NumParserERKN7openpal6RSliceERNS_12IAPDUHandlerEEUlRSE_jE_E5CountEv:
.LFB3955:
	.cfi_startproc
	movq	24(%rdi), %rax
	ret
	.cfi_endproc
.LFE3955:
	.size	_ZNK8opendnp318BufferedCollectionINS_7IndexedINS_18AnalogCommandEventEEEZNS_16CountIndexParser13InvokeCountOfINS_11Group43Var6EEEvRKNS_12HeaderRecordEtRKNS_9NumParserERKN7openpal6RSliceERNS_12IAPDUHandlerEEUlRSE_jE_E5CountEv, .-_ZNK8opendnp318BufferedCollectionINS_7IndexedINS_18AnalogCommandEventEEEZNS_16CountIndexParser13InvokeCountOfINS_11Group43Var6EEEvRKNS_12HeaderRecordEtRKNS_9NumParserERKN7openpal6RSliceERNS_12IAPDUHandlerEEUlRSE_jE_E5CountEv
	.section	.text._ZNK8opendnp318BufferedCollectionINS_7IndexedINS_18AnalogCommandEventEEEZNS_16CountIndexParser13InvokeCountOfINS_11Group43Var5EEEvRKNS_12HeaderRecordEtRKNS_9NumParserERKN7openpal6RSliceERNS_12IAPDUHandlerEEUlRSE_jE_E5CountEv,"axG",@progbits,_ZNK8opendnp318BufferedCollectionINS_7IndexedINS_18AnalogCommandEventEEEZNS_16CountIndexParser13InvokeCountOfINS_11Group43Var5EEEvRKNS_12HeaderRecordEtRKNS_9NumParserERKN7openpal6RSliceERNS_12IAPDUHandlerEEUlRSE_jE_E5CountEv,comdat
	.align 2
	.p2align 4
	.weak	_ZNK8opendnp318BufferedCollectionINS_7IndexedINS_18AnalogCommandEventEEEZNS_16CountIndexParser13InvokeCountOfINS_11Group43Var5EEEvRKNS_12HeaderRecordEtRKNS_9NumParserERKN7openpal6RSliceERNS_12IAPDUHandlerEEUlRSE_jE_E5CountEv
	.type	_ZNK8opendnp318BufferedCollectionINS_7IndexedINS_18AnalogCommandEventEEEZNS_16CountIndexParser13InvokeCountOfINS_11Group43Var5EEEvRKNS_12HeaderRecordEtRKNS_9NumParserERKN7openpal6RSliceERNS_12IAPDUHandlerEEUlRSE_jE_E5CountEv, @function
_ZNK8opendnp318BufferedCollectionINS_7IndexedINS_18AnalogCommandEventEEEZNS_16CountIndexParser13InvokeCountOfINS_11Group43Var5EEEvRKNS_12HeaderRecordEtRKNS_9NumParserERKN7openpal6RSliceERNS_12IAPDUHandlerEEUlRSE_jE_E5CountEv:
.LFB3957:
	.cfi_startproc
	movq	24(%rdi), %rax
	ret
	.cfi_endproc
.LFE3957:
	.size	_ZNK8opendnp318BufferedCollectionINS_7IndexedINS_18AnalogCommandEventEEEZNS_16CountIndexParser13InvokeCountOfINS_11Group43Var5EEEvRKNS_12HeaderRecordEtRKNS_9NumParserERKN7openpal6RSliceERNS_12IAPDUHandlerEEUlRSE_jE_E5CountEv, .-_ZNK8opendnp318BufferedCollectionINS_7IndexedINS_18AnalogCommandEventEEEZNS_16CountIndexParser13InvokeCountOfINS_11Group43Var5EEEvRKNS_12HeaderRecordEtRKNS_9NumParserERKN7openpal6RSliceERNS_12IAPDUHandlerEEUlRSE_jE_E5CountEv
	.section	.text._ZNK8opendnp318BufferedCollectionINS_7IndexedINS_18AnalogCommandEventEEEZNS_16CountIndexParser13InvokeCountOfINS_11Group43Var4EEEvRKNS_12HeaderRecordEtRKNS_9NumParserERKN7openpal6RSliceERNS_12IAPDUHandlerEEUlRSE_jE_E5CountEv,"axG",@progbits,_ZNK8opendnp318BufferedCollectionINS_7IndexedINS_18AnalogCommandEventEEEZNS_16CountIndexParser13InvokeCountOfINS_11Group43Var4EEEvRKNS_12HeaderRecordEtRKNS_9NumParserERKN7openpal6RSliceERNS_12IAPDUHandlerEEUlRSE_jE_E5CountEv,comdat
	.align 2
	.p2align 4
	.weak	_ZNK8opendnp318BufferedCollectionINS_7IndexedINS_18AnalogCommandEventEEEZNS_16CountIndexParser13InvokeCountOfINS_11Group43Var4EEEvRKNS_12HeaderRecordEtRKNS_9NumParserERKN7openpal6RSliceERNS_12IAPDUHandlerEEUlRSE_jE_E5CountEv
	.type	_ZNK8opendnp318BufferedCollectionINS_7IndexedINS_18AnalogCommandEventEEEZNS_16CountIndexParser13InvokeCountOfINS_11Group43Var4EEEvRKNS_12HeaderRecordEtRKNS_9NumParserERKN7openpal6RSliceERNS_12IAPDUHandlerEEUlRSE_jE_E5CountEv, @function
_ZNK8opendnp318BufferedCollectionINS_7IndexedINS_18AnalogCommandEventEEEZNS_16CountIndexParser13InvokeCountOfINS_11Group43Var4EEEvRKNS_12HeaderRecordEtRKNS_9NumParserERKN7openpal6RSliceERNS_12IAPDUHandlerEEUlRSE_jE_E5CountEv:
.LFB3959:
	.cfi_startproc
	movq	24(%rdi), %rax
	ret
	.cfi_endproc
.LFE3959:
	.size	_ZNK8opendnp318BufferedCollectionINS_7IndexedINS_18AnalogCommandEventEEEZNS_16CountIndexParser13InvokeCountOfINS_11Group43Var4EEEvRKNS_12HeaderRecordEtRKNS_9NumParserERKN7openpal6RSliceERNS_12IAPDUHandlerEEUlRSE_jE_E5CountEv, .-_ZNK8opendnp318BufferedCollectionINS_7IndexedINS_18AnalogCommandEventEEEZNS_16CountIndexParser13InvokeCountOfINS_11Group43Var4EEEvRKNS_12HeaderRecordEtRKNS_9NumParserERKN7openpal6RSliceERNS_12IAPDUHandlerEEUlRSE_jE_E5CountEv
	.section	.text._ZNK8opendnp318BufferedCollectionINS_7IndexedINS_18AnalogCommandEventEEEZNS_16CountIndexParser13InvokeCountOfINS_11Group43Var3EEEvRKNS_12HeaderRecordEtRKNS_9NumParserERKN7openpal6RSliceERNS_12IAPDUHandlerEEUlRSE_jE_E5CountEv,"axG",@progbits,_ZNK8opendnp318BufferedCollectionINS_7IndexedINS_18AnalogCommandEventEEEZNS_16CountIndexParser13InvokeCountOfINS_11Group43Var3EEEvRKNS_12HeaderRecordEtRKNS_9NumParserERKN7openpal6RSliceERNS_12IAPDUHandlerEEUlRSE_jE_E5CountEv,comdat
	.align 2
	.p2align 4
	.weak	_ZNK8opendnp318BufferedCollectionINS_7IndexedINS_18AnalogCommandEventEEEZNS_16CountIndexParser13InvokeCountOfINS_11Group43Var3EEEvRKNS_12HeaderRecordEtRKNS_9NumParserERKN7openpal6RSliceERNS_12IAPDUHandlerEEUlRSE_jE_E5CountEv
	.type	_ZNK8opendnp318BufferedCollectionINS_7IndexedINS_18AnalogCommandEventEEEZNS_16CountIndexParser13InvokeCountOfINS_11Group43Var3EEEvRKNS_12HeaderRecordEtRKNS_9NumParserERKN7openpal6RSliceERNS_12IAPDUHandlerEEUlRSE_jE_E5CountEv, @function
_ZNK8opendnp318BufferedCollectionINS_7IndexedINS_18AnalogCommandEventEEEZNS_16CountIndexParser13InvokeCountOfINS_11Group43Var3EEEvRKNS_12HeaderRecordEtRKNS_9NumParserERKN7openpal6RSliceERNS_12IAPDUHandlerEEUlRSE_jE_E5CountEv:
.LFB3961:
	.cfi_startproc
	movq	24(%rdi), %rax
	ret
	.cfi_endproc
.LFE3961:
	.size	_ZNK8opendnp318BufferedCollectionINS_7IndexedINS_18AnalogCommandEventEEEZNS_16CountIndexParser13InvokeCountOfINS_11Group43Var3EEEvRKNS_12HeaderRecordEtRKNS_9NumParserERKN7openpal6RSliceERNS_12IAPDUHandlerEEUlRSE_jE_E5CountEv, .-_ZNK8opendnp318BufferedCollectionINS_7IndexedINS_18AnalogCommandEventEEEZNS_16CountIndexParser13InvokeCountOfINS_11Group43Var3EEEvRKNS_12HeaderRecordEtRKNS_9NumParserERKN7openpal6RSliceERNS_12IAPDUHandlerEEUlRSE_jE_E5CountEv
	.section	.text._ZNK8opendnp318BufferedCollectionINS_7IndexedINS_18AnalogCommandEventEEEZNS_16CountIndexParser13InvokeCountOfINS_11Group43Var2EEEvRKNS_12HeaderRecordEtRKNS_9NumParserERKN7openpal6RSliceERNS_12IAPDUHandlerEEUlRSE_jE_E5CountEv,"axG",@progbits,_ZNK8opendnp318BufferedCollectionINS_7IndexedINS_18AnalogCommandEventEEEZNS_16CountIndexParser13InvokeCountOfINS_11Group43Var2EEEvRKNS_12HeaderRecordEtRKNS_9NumParserERKN7openpal6RSliceERNS_12IAPDUHandlerEEUlRSE_jE_E5CountEv,comdat
	.align 2
	.p2align 4
	.weak	_ZNK8opendnp318BufferedCollectionINS_7IndexedINS_18AnalogCommandEventEEEZNS_16CountIndexParser13InvokeCountOfINS_11Group43Var2EEEvRKNS_12HeaderRecordEtRKNS_9NumParserERKN7openpal6RSliceERNS_12IAPDUHandlerEEUlRSE_jE_E5CountEv
	.type	_ZNK8opendnp318BufferedCollectionINS_7IndexedINS_18AnalogCommandEventEEEZNS_16CountIndexParser13InvokeCountOfINS_11Group43Var2EEEvRKNS_12HeaderRecordEtRKNS_9NumParserERKN7openpal6RSliceERNS_12IAPDUHandlerEEUlRSE_jE_E5CountEv, @function
_ZNK8opendnp318BufferedCollectionINS_7IndexedINS_18AnalogCommandEventEEEZNS_16CountIndexParser13InvokeCountOfINS_11Group43Var2EEEvRKNS_12HeaderRecordEtRKNS_9NumParserERKN7openpal6RSliceERNS_12IAPDUHandlerEEUlRSE_jE_E5CountEv:
.LFB3963:
	.cfi_startproc
	movq	24(%rdi), %rax
	ret
	.cfi_endproc
.LFE3963:
	.size	_ZNK8opendnp318BufferedCollectionINS_7IndexedINS_18AnalogCommandEventEEEZNS_16CountIndexParser13InvokeCountOfINS_11Group43Var2EEEvRKNS_12HeaderRecordEtRKNS_9NumParserERKN7openpal6RSliceERNS_12IAPDUHandlerEEUlRSE_jE_E5CountEv, .-_ZNK8opendnp318BufferedCollectionINS_7IndexedINS_18AnalogCommandEventEEEZNS_16CountIndexParser13InvokeCountOfINS_11Group43Var2EEEvRKNS_12HeaderRecordEtRKNS_9NumParserERKN7openpal6RSliceERNS_12IAPDUHandlerEEUlRSE_jE_E5CountEv
	.section	.text._ZNK8opendnp318BufferedCollectionINS_7IndexedINS_18AnalogCommandEventEEEZNS_16CountIndexParser13InvokeCountOfINS_11Group43Var1EEEvRKNS_12HeaderRecordEtRKNS_9NumParserERKN7openpal6RSliceERNS_12IAPDUHandlerEEUlRSE_jE_E5CountEv,"axG",@progbits,_ZNK8opendnp318BufferedCollectionINS_7IndexedINS_18AnalogCommandEventEEEZNS_16CountIndexParser13InvokeCountOfINS_11Group43Var1EEEvRKNS_12HeaderRecordEtRKNS_9NumParserERKN7openpal6RSliceERNS_12IAPDUHandlerEEUlRSE_jE_E5CountEv,comdat
	.align 2
	.p2align 4
	.weak	_ZNK8opendnp318BufferedCollectionINS_7IndexedINS_18AnalogCommandEventEEEZNS_16CountIndexParser13InvokeCountOfINS_11Group43Var1EEEvRKNS_12HeaderRecordEtRKNS_9NumParserERKN7openpal6RSliceERNS_12IAPDUHandlerEEUlRSE_jE_E5CountEv
	.type	_ZNK8opendnp318BufferedCollectionINS_7IndexedINS_18AnalogCommandEventEEEZNS_16CountIndexParser13InvokeCountOfINS_11Group43Var1EEEvRKNS_12HeaderRecordEtRKNS_9NumParserERKN7openpal6RSliceERNS_12IAPDUHandlerEEUlRSE_jE_E5CountEv, @function
_ZNK8opendnp318BufferedCollectionINS_7IndexedINS_18AnalogCommandEventEEEZNS_16CountIndexParser13InvokeCountOfINS_11Group43Var1EEEvRKNS_12HeaderRecordEtRKNS_9NumParserERKN7openpal6RSliceERNS_12IAPDUHandlerEEUlRSE_jE_E5CountEv:
.LFB3965:
	.cfi_startproc
	movq	24(%rdi), %rax
	ret
	.cfi_endproc
.LFE3965:
	.size	_ZNK8opendnp318BufferedCollectionINS_7IndexedINS_18AnalogCommandEventEEEZNS_16CountIndexParser13InvokeCountOfINS_11Group43Var1EEEvRKNS_12HeaderRecordEtRKNS_9NumParserERKN7openpal6RSliceERNS_12IAPDUHandlerEEUlRSE_jE_E5CountEv, .-_ZNK8opendnp318BufferedCollectionINS_7IndexedINS_18AnalogCommandEventEEEZNS_16CountIndexParser13InvokeCountOfINS_11Group43Var1EEEvRKNS_12HeaderRecordEtRKNS_9NumParserERKN7openpal6RSliceERNS_12IAPDUHandlerEEUlRSE_jE_E5CountEv
	.section	.text._ZNK8opendnp318BufferedCollectionINS_7IndexedINS_18AnalogOutputStatusEEEZNS_16CountIndexParser13InvokeCountOfINS_11Group42Var8EEEvRKNS_12HeaderRecordEtRKNS_9NumParserERKN7openpal6RSliceERNS_12IAPDUHandlerEEUlRSE_jE_E5CountEv,"axG",@progbits,_ZNK8opendnp318BufferedCollectionINS_7IndexedINS_18AnalogOutputStatusEEEZNS_16CountIndexParser13InvokeCountOfINS_11Group42Var8EEEvRKNS_12HeaderRecordEtRKNS_9NumParserERKN7openpal6RSliceERNS_12IAPDUHandlerEEUlRSE_jE_E5CountEv,comdat
	.align 2
	.p2align 4
	.weak	_ZNK8opendnp318BufferedCollectionINS_7IndexedINS_18AnalogOutputStatusEEEZNS_16CountIndexParser13InvokeCountOfINS_11Group42Var8EEEvRKNS_12HeaderRecordEtRKNS_9NumParserERKN7openpal6RSliceERNS_12IAPDUHandlerEEUlRSE_jE_E5CountEv
	.type	_ZNK8opendnp318BufferedCollectionINS_7IndexedINS_18AnalogOutputStatusEEEZNS_16CountIndexParser13InvokeCountOfINS_11Group42Var8EEEvRKNS_12HeaderRecordEtRKNS_9NumParserERKN7openpal6RSliceERNS_12IAPDUHandlerEEUlRSE_jE_E5CountEv, @function
_ZNK8opendnp318BufferedCollectionINS_7IndexedINS_18AnalogOutputStatusEEEZNS_16CountIndexParser13InvokeCountOfINS_11Group42Var8EEEvRKNS_12HeaderRecordEtRKNS_9NumParserERKN7openpal6RSliceERNS_12IAPDUHandlerEEUlRSE_jE_E5CountEv:
.LFB3967:
	.cfi_startproc
	movq	24(%rdi), %rax
	ret
	.cfi_endproc
.LFE3967:
	.size	_ZNK8opendnp318BufferedCollectionINS_7IndexedINS_18AnalogOutputStatusEEEZNS_16CountIndexParser13InvokeCountOfINS_11Group42Var8EEEvRKNS_12HeaderRecordEtRKNS_9NumParserERKN7openpal6RSliceERNS_12IAPDUHandlerEEUlRSE_jE_E5CountEv, .-_ZNK8opendnp318BufferedCollectionINS_7IndexedINS_18AnalogOutputStatusEEEZNS_16CountIndexParser13InvokeCountOfINS_11Group42Var8EEEvRKNS_12HeaderRecordEtRKNS_9NumParserERKN7openpal6RSliceERNS_12IAPDUHandlerEEUlRSE_jE_E5CountEv
	.section	.text._ZNK8opendnp318BufferedCollectionINS_7IndexedINS_18AnalogOutputStatusEEEZNS_16CountIndexParser13InvokeCountOfINS_11Group42Var7EEEvRKNS_12HeaderRecordEtRKNS_9NumParserERKN7openpal6RSliceERNS_12IAPDUHandlerEEUlRSE_jE_E5CountEv,"axG",@progbits,_ZNK8opendnp318BufferedCollectionINS_7IndexedINS_18AnalogOutputStatusEEEZNS_16CountIndexParser13InvokeCountOfINS_11Group42Var7EEEvRKNS_12HeaderRecordEtRKNS_9NumParserERKN7openpal6RSliceERNS_12IAPDUHandlerEEUlRSE_jE_E5CountEv,comdat
	.align 2
	.p2align 4
	.weak	_ZNK8opendnp318BufferedCollectionINS_7IndexedINS_18AnalogOutputStatusEEEZNS_16CountIndexParser13InvokeCountOfINS_11Group42Var7EEEvRKNS_12HeaderRecordEtRKNS_9NumParserERKN7openpal6RSliceERNS_12IAPDUHandlerEEUlRSE_jE_E5CountEv
	.type	_ZNK8opendnp318BufferedCollectionINS_7IndexedINS_18AnalogOutputStatusEEEZNS_16CountIndexParser13InvokeCountOfINS_11Group42Var7EEEvRKNS_12HeaderRecordEtRKNS_9NumParserERKN7openpal6RSliceERNS_12IAPDUHandlerEEUlRSE_jE_E5CountEv, @function
_ZNK8opendnp318BufferedCollectionINS_7IndexedINS_18AnalogOutputStatusEEEZNS_16CountIndexParser13InvokeCountOfINS_11Group42Var7EEEvRKNS_12HeaderRecordEtRKNS_9NumParserERKN7openpal6RSliceERNS_12IAPDUHandlerEEUlRSE_jE_E5CountEv:
.LFB3969:
	.cfi_startproc
	movq	24(%rdi), %rax
	ret
	.cfi_endproc
.LFE3969:
	.size	_ZNK8opendnp318BufferedCollectionINS_7IndexedINS_18AnalogOutputStatusEEEZNS_16CountIndexParser13InvokeCountOfINS_11Group42Var7EEEvRKNS_12HeaderRecordEtRKNS_9NumParserERKN7openpal6RSliceERNS_12IAPDUHandlerEEUlRSE_jE_E5CountEv, .-_ZNK8opendnp318BufferedCollectionINS_7IndexedINS_18AnalogOutputStatusEEEZNS_16CountIndexParser13InvokeCountOfINS_11Group42Var7EEEvRKNS_12HeaderRecordEtRKNS_9NumParserERKN7openpal6RSliceERNS_12IAPDUHandlerEEUlRSE_jE_E5CountEv
	.section	.text._ZNK8opendnp318BufferedCollectionINS_7IndexedINS_18AnalogOutputStatusEEEZNS_16CountIndexParser13InvokeCountOfINS_11Group42Var6EEEvRKNS_12HeaderRecordEtRKNS_9NumParserERKN7openpal6RSliceERNS_12IAPDUHandlerEEUlRSE_jE_E5CountEv,"axG",@progbits,_ZNK8opendnp318BufferedCollectionINS_7IndexedINS_18AnalogOutputStatusEEEZNS_16CountIndexParser13InvokeCountOfINS_11Group42Var6EEEvRKNS_12HeaderRecordEtRKNS_9NumParserERKN7openpal6RSliceERNS_12IAPDUHandlerEEUlRSE_jE_E5CountEv,comdat
	.align 2
	.p2align 4
	.weak	_ZNK8opendnp318BufferedCollectionINS_7IndexedINS_18AnalogOutputStatusEEEZNS_16CountIndexParser13InvokeCountOfINS_11Group42Var6EEEvRKNS_12HeaderRecordEtRKNS_9NumParserERKN7openpal6RSliceERNS_12IAPDUHandlerEEUlRSE_jE_E5CountEv
	.type	_ZNK8opendnp318BufferedCollectionINS_7IndexedINS_18AnalogOutputStatusEEEZNS_16CountIndexParser13InvokeCountOfINS_11Group42Var6EEEvRKNS_12HeaderRecordEtRKNS_9NumParserERKN7openpal6RSliceERNS_12IAPDUHandlerEEUlRSE_jE_E5CountEv, @function
_ZNK8opendnp318BufferedCollectionINS_7IndexedINS_18AnalogOutputStatusEEEZNS_16CountIndexParser13InvokeCountOfINS_11Group42Var6EEEvRKNS_12HeaderRecordEtRKNS_9NumParserERKN7openpal6RSliceERNS_12IAPDUHandlerEEUlRSE_jE_E5CountEv:
.LFB3971:
	.cfi_startproc
	movq	24(%rdi), %rax
	ret
	.cfi_endproc
.LFE3971:
	.size	_ZNK8opendnp318BufferedCollectionINS_7IndexedINS_18AnalogOutputStatusEEEZNS_16CountIndexParser13InvokeCountOfINS_11Group42Var6EEEvRKNS_12HeaderRecordEtRKNS_9NumParserERKN7openpal6RSliceERNS_12IAPDUHandlerEEUlRSE_jE_E5CountEv, .-_ZNK8opendnp318BufferedCollectionINS_7IndexedINS_18AnalogOutputStatusEEEZNS_16CountIndexParser13InvokeCountOfINS_11Group42Var6EEEvRKNS_12HeaderRecordEtRKNS_9NumParserERKN7openpal6RSliceERNS_12IAPDUHandlerEEUlRSE_jE_E5CountEv
	.section	.text._ZNK8opendnp318BufferedCollectionINS_7IndexedINS_18AnalogOutputStatusEEEZNS_16CountIndexParser13InvokeCountOfINS_11Group42Var5EEEvRKNS_12HeaderRecordEtRKNS_9NumParserERKN7openpal6RSliceERNS_12IAPDUHandlerEEUlRSE_jE_E5CountEv,"axG",@progbits,_ZNK8opendnp318BufferedCollectionINS_7IndexedINS_18AnalogOutputStatusEEEZNS_16CountIndexParser13InvokeCountOfINS_11Group42Var5EEEvRKNS_12HeaderRecordEtRKNS_9NumParserERKN7openpal6RSliceERNS_12IAPDUHandlerEEUlRSE_jE_E5CountEv,comdat
	.align 2
	.p2align 4
	.weak	_ZNK8opendnp318BufferedCollectionINS_7IndexedINS_18AnalogOutputStatusEEEZNS_16CountIndexParser13InvokeCountOfINS_11Group42Var5EEEvRKNS_12HeaderRecordEtRKNS_9NumParserERKN7openpal6RSliceERNS_12IAPDUHandlerEEUlRSE_jE_E5CountEv
	.type	_ZNK8opendnp318BufferedCollectionINS_7IndexedINS_18AnalogOutputStatusEEEZNS_16CountIndexParser13InvokeCountOfINS_11Group42Var5EEEvRKNS_12HeaderRecordEtRKNS_9NumParserERKN7openpal6RSliceERNS_12IAPDUHandlerEEUlRSE_jE_E5CountEv, @function
_ZNK8opendnp318BufferedCollectionINS_7IndexedINS_18AnalogOutputStatusEEEZNS_16CountIndexParser13InvokeCountOfINS_11Group42Var5EEEvRKNS_12HeaderRecordEtRKNS_9NumParserERKN7openpal6RSliceERNS_12IAPDUHandlerEEUlRSE_jE_E5CountEv:
.LFB3973:
	.cfi_startproc
	movq	24(%rdi), %rax
	ret
	.cfi_endproc
.LFE3973:
	.size	_ZNK8opendnp318BufferedCollectionINS_7IndexedINS_18AnalogOutputStatusEEEZNS_16CountIndexParser13InvokeCountOfINS_11Group42Var5EEEvRKNS_12HeaderRecordEtRKNS_9NumParserERKN7openpal6RSliceERNS_12IAPDUHandlerEEUlRSE_jE_E5CountEv, .-_ZNK8opendnp318BufferedCollectionINS_7IndexedINS_18AnalogOutputStatusEEEZNS_16CountIndexParser13InvokeCountOfINS_11Group42Var5EEEvRKNS_12HeaderRecordEtRKNS_9NumParserERKN7openpal6RSliceERNS_12IAPDUHandlerEEUlRSE_jE_E5CountEv
	.section	.text._ZNK8opendnp318BufferedCollectionINS_7IndexedINS_18AnalogOutputStatusEEEZNS_16CountIndexParser13InvokeCountOfINS_11Group42Var4EEEvRKNS_12HeaderRecordEtRKNS_9NumParserERKN7openpal6RSliceERNS_12IAPDUHandlerEEUlRSE_jE_E5CountEv,"axG",@progbits,_ZNK8opendnp318BufferedCollectionINS_7IndexedINS_18AnalogOutputStatusEEEZNS_16CountIndexParser13InvokeCountOfINS_11Group42Var4EEEvRKNS_12HeaderRecordEtRKNS_9NumParserERKN7openpal6RSliceERNS_12IAPDUHandlerEEUlRSE_jE_E5CountEv,comdat
	.align 2
	.p2align 4
	.weak	_ZNK8opendnp318BufferedCollectionINS_7IndexedINS_18AnalogOutputStatusEEEZNS_16CountIndexParser13InvokeCountOfINS_11Group42Var4EEEvRKNS_12HeaderRecordEtRKNS_9NumParserERKN7openpal6RSliceERNS_12IAPDUHandlerEEUlRSE_jE_E5CountEv
	.type	_ZNK8opendnp318BufferedCollectionINS_7IndexedINS_18AnalogOutputStatusEEEZNS_16CountIndexParser13InvokeCountOfINS_11Group42Var4EEEvRKNS_12HeaderRecordEtRKNS_9NumParserERKN7openpal6RSliceERNS_12IAPDUHandlerEEUlRSE_jE_E5CountEv, @function
_ZNK8opendnp318BufferedCollectionINS_7IndexedINS_18AnalogOutputStatusEEEZNS_16CountIndexParser13InvokeCountOfINS_11Group42Var4EEEvRKNS_12HeaderRecordEtRKNS_9NumParserERKN7openpal6RSliceERNS_12IAPDUHandlerEEUlRSE_jE_E5CountEv:
.LFB3975:
	.cfi_startproc
	movq	24(%rdi), %rax
	ret
	.cfi_endproc
.LFE3975:
	.size	_ZNK8opendnp318BufferedCollectionINS_7IndexedINS_18AnalogOutputStatusEEEZNS_16CountIndexParser13InvokeCountOfINS_11Group42Var4EEEvRKNS_12HeaderRecordEtRKNS_9NumParserERKN7openpal6RSliceERNS_12IAPDUHandlerEEUlRSE_jE_E5CountEv, .-_ZNK8opendnp318BufferedCollectionINS_7IndexedINS_18AnalogOutputStatusEEEZNS_16CountIndexParser13InvokeCountOfINS_11Group42Var4EEEvRKNS_12HeaderRecordEtRKNS_9NumParserERKN7openpal6RSliceERNS_12IAPDUHandlerEEUlRSE_jE_E5CountEv
	.section	.text._ZNK8opendnp318BufferedCollectionINS_7IndexedINS_18AnalogOutputStatusEEEZNS_16CountIndexParser13InvokeCountOfINS_11Group42Var3EEEvRKNS_12HeaderRecordEtRKNS_9NumParserERKN7openpal6RSliceERNS_12IAPDUHandlerEEUlRSE_jE_E5CountEv,"axG",@progbits,_ZNK8opendnp318BufferedCollectionINS_7IndexedINS_18AnalogOutputStatusEEEZNS_16CountIndexParser13InvokeCountOfINS_11Group42Var3EEEvRKNS_12HeaderRecordEtRKNS_9NumParserERKN7openpal6RSliceERNS_12IAPDUHandlerEEUlRSE_jE_E5CountEv,comdat
	.align 2
	.p2align 4
	.weak	_ZNK8opendnp318BufferedCollectionINS_7IndexedINS_18AnalogOutputStatusEEEZNS_16CountIndexParser13InvokeCountOfINS_11Group42Var3EEEvRKNS_12HeaderRecordEtRKNS_9NumParserERKN7openpal6RSliceERNS_12IAPDUHandlerEEUlRSE_jE_E5CountEv
	.type	_ZNK8opendnp318BufferedCollectionINS_7IndexedINS_18AnalogOutputStatusEEEZNS_16CountIndexParser13InvokeCountOfINS_11Group42Var3EEEvRKNS_12HeaderRecordEtRKNS_9NumParserERKN7openpal6RSliceERNS_12IAPDUHandlerEEUlRSE_jE_E5CountEv, @function
_ZNK8opendnp318BufferedCollectionINS_7IndexedINS_18AnalogOutputStatusEEEZNS_16CountIndexParser13InvokeCountOfINS_11Group42Var3EEEvRKNS_12HeaderRecordEtRKNS_9NumParserERKN7openpal6RSliceERNS_12IAPDUHandlerEEUlRSE_jE_E5CountEv:
.LFB3977:
	.cfi_startproc
	movq	24(%rdi), %rax
	ret
	.cfi_endproc
.LFE3977:
	.size	_ZNK8opendnp318BufferedCollectionINS_7IndexedINS_18AnalogOutputStatusEEEZNS_16CountIndexParser13InvokeCountOfINS_11Group42Var3EEEvRKNS_12HeaderRecordEtRKNS_9NumParserERKN7openpal6RSliceERNS_12IAPDUHandlerEEUlRSE_jE_E5CountEv, .-_ZNK8opendnp318BufferedCollectionINS_7IndexedINS_18AnalogOutputStatusEEEZNS_16CountIndexParser13InvokeCountOfINS_11Group42Var3EEEvRKNS_12HeaderRecordEtRKNS_9NumParserERKN7openpal6RSliceERNS_12IAPDUHandlerEEUlRSE_jE_E5CountEv
	.section	.text._ZNK8opendnp318BufferedCollectionINS_7IndexedINS_18AnalogOutputStatusEEEZNS_16CountIndexParser13InvokeCountOfINS_11Group42Var2EEEvRKNS_12HeaderRecordEtRKNS_9NumParserERKN7openpal6RSliceERNS_12IAPDUHandlerEEUlRSE_jE_E5CountEv,"axG",@progbits,_ZNK8opendnp318BufferedCollectionINS_7IndexedINS_18AnalogOutputStatusEEEZNS_16CountIndexParser13InvokeCountOfINS_11Group42Var2EEEvRKNS_12HeaderRecordEtRKNS_9NumParserERKN7openpal6RSliceERNS_12IAPDUHandlerEEUlRSE_jE_E5CountEv,comdat
	.align 2
	.p2align 4
	.weak	_ZNK8opendnp318BufferedCollectionINS_7IndexedINS_18AnalogOutputStatusEEEZNS_16CountIndexParser13InvokeCountOfINS_11Group42Var2EEEvRKNS_12HeaderRecordEtRKNS_9NumParserERKN7openpal6RSliceERNS_12IAPDUHandlerEEUlRSE_jE_E5CountEv
	.type	_ZNK8opendnp318BufferedCollectionINS_7IndexedINS_18AnalogOutputStatusEEEZNS_16CountIndexParser13InvokeCountOfINS_11Group42Var2EEEvRKNS_12HeaderRecordEtRKNS_9NumParserERKN7openpal6RSliceERNS_12IAPDUHandlerEEUlRSE_jE_E5CountEv, @function
_ZNK8opendnp318BufferedCollectionINS_7IndexedINS_18AnalogOutputStatusEEEZNS_16CountIndexParser13InvokeCountOfINS_11Group42Var2EEEvRKNS_12HeaderRecordEtRKNS_9NumParserERKN7openpal6RSliceERNS_12IAPDUHandlerEEUlRSE_jE_E5CountEv:
.LFB3979:
	.cfi_startproc
	movq	24(%rdi), %rax
	ret
	.cfi_endproc
.LFE3979:
	.size	_ZNK8opendnp318BufferedCollectionINS_7IndexedINS_18AnalogOutputStatusEEEZNS_16CountIndexParser13InvokeCountOfINS_11Group42Var2EEEvRKNS_12HeaderRecordEtRKNS_9NumParserERKN7openpal6RSliceERNS_12IAPDUHandlerEEUlRSE_jE_E5CountEv, .-_ZNK8opendnp318BufferedCollectionINS_7IndexedINS_18AnalogOutputStatusEEEZNS_16CountIndexParser13InvokeCountOfINS_11Group42Var2EEEvRKNS_12HeaderRecordEtRKNS_9NumParserERKN7openpal6RSliceERNS_12IAPDUHandlerEEUlRSE_jE_E5CountEv
	.section	.text._ZNK8opendnp318BufferedCollectionINS_7IndexedINS_18AnalogOutputStatusEEEZNS_16CountIndexParser13InvokeCountOfINS_11Group42Var1EEEvRKNS_12HeaderRecordEtRKNS_9NumParserERKN7openpal6RSliceERNS_12IAPDUHandlerEEUlRSE_jE_E5CountEv,"axG",@progbits,_ZNK8opendnp318BufferedCollectionINS_7IndexedINS_18AnalogOutputStatusEEEZNS_16CountIndexParser13InvokeCountOfINS_11Group42Var1EEEvRKNS_12HeaderRecordEtRKNS_9NumParserERKN7openpal6RSliceERNS_12IAPDUHandlerEEUlRSE_jE_E5CountEv,comdat
	.align 2
	.p2align 4
	.weak	_ZNK8opendnp318BufferedCollectionINS_7IndexedINS_18AnalogOutputStatusEEEZNS_16CountIndexParser13InvokeCountOfINS_11Group42Var1EEEvRKNS_12HeaderRecordEtRKNS_9NumParserERKN7openpal6RSliceERNS_12IAPDUHandlerEEUlRSE_jE_E5CountEv
	.type	_ZNK8opendnp318BufferedCollectionINS_7IndexedINS_18AnalogOutputStatusEEEZNS_16CountIndexParser13InvokeCountOfINS_11Group42Var1EEEvRKNS_12HeaderRecordEtRKNS_9NumParserERKN7openpal6RSliceERNS_12IAPDUHandlerEEUlRSE_jE_E5CountEv, @function
_ZNK8opendnp318BufferedCollectionINS_7IndexedINS_18AnalogOutputStatusEEEZNS_16CountIndexParser13InvokeCountOfINS_11Group42Var1EEEvRKNS_12HeaderRecordEtRKNS_9NumParserERKN7openpal6RSliceERNS_12IAPDUHandlerEEUlRSE_jE_E5CountEv:
.LFB3981:
	.cfi_startproc
	movq	24(%rdi), %rax
	ret
	.cfi_endproc
.LFE3981:
	.size	_ZNK8opendnp318BufferedCollectionINS_7IndexedINS_18AnalogOutputStatusEEEZNS_16CountIndexParser13InvokeCountOfINS_11Group42Var1EEEvRKNS_12HeaderRecordEtRKNS_9NumParserERKN7openpal6RSliceERNS_12IAPDUHandlerEEUlRSE_jE_E5CountEv, .-_ZNK8opendnp318BufferedCollectionINS_7IndexedINS_18AnalogOutputStatusEEEZNS_16CountIndexParser13InvokeCountOfINS_11Group42Var1EEEvRKNS_12HeaderRecordEtRKNS_9NumParserERKN7openpal6RSliceERNS_12IAPDUHandlerEEUlRSE_jE_E5CountEv
	.section	.text._ZNK8opendnp318BufferedCollectionINS_7IndexedINS_20AnalogOutputDouble64EEEZNS_16CountIndexParser13InvokeCountOfINS_11Group41Var4EEEvRKNS_12HeaderRecordEtRKNS_9NumParserERKN7openpal6RSliceERNS_12IAPDUHandlerEEUlRSE_jE_E5CountEv,"axG",@progbits,_ZNK8opendnp318BufferedCollectionINS_7IndexedINS_20AnalogOutputDouble64EEEZNS_16CountIndexParser13InvokeCountOfINS_11Group41Var4EEEvRKNS_12HeaderRecordEtRKNS_9NumParserERKN7openpal6RSliceERNS_12IAPDUHandlerEEUlRSE_jE_E5CountEv,comdat
	.align 2
	.p2align 4
	.weak	_ZNK8opendnp318BufferedCollectionINS_7IndexedINS_20AnalogOutputDouble64EEEZNS_16CountIndexParser13InvokeCountOfINS_11Group41Var4EEEvRKNS_12HeaderRecordEtRKNS_9NumParserERKN7openpal6RSliceERNS_12IAPDUHandlerEEUlRSE_jE_E5CountEv
	.type	_ZNK8opendnp318BufferedCollectionINS_7IndexedINS_20AnalogOutputDouble64EEEZNS_16CountIndexParser13InvokeCountOfINS_11Group41Var4EEEvRKNS_12HeaderRecordEtRKNS_9NumParserERKN7openpal6RSliceERNS_12IAPDUHandlerEEUlRSE_jE_E5CountEv, @function
_ZNK8opendnp318BufferedCollectionINS_7IndexedINS_20AnalogOutputDouble64EEEZNS_16CountIndexParser13InvokeCountOfINS_11Group41Var4EEEvRKNS_12HeaderRecordEtRKNS_9NumParserERKN7openpal6RSliceERNS_12IAPDUHandlerEEUlRSE_jE_E5CountEv:
.LFB3983:
	.cfi_startproc
	movq	24(%rdi), %rax
	ret
	.cfi_endproc
.LFE3983:
	.size	_ZNK8opendnp318BufferedCollectionINS_7IndexedINS_20AnalogOutputDouble64EEEZNS_16CountIndexParser13InvokeCountOfINS_11Group41Var4EEEvRKNS_12HeaderRecordEtRKNS_9NumParserERKN7openpal6RSliceERNS_12IAPDUHandlerEEUlRSE_jE_E5CountEv, .-_ZNK8opendnp318BufferedCollectionINS_7IndexedINS_20AnalogOutputDouble64EEEZNS_16CountIndexParser13InvokeCountOfINS_11Group41Var4EEEvRKNS_12HeaderRecordEtRKNS_9NumParserERKN7openpal6RSliceERNS_12IAPDUHandlerEEUlRSE_jE_E5CountEv
	.section	.text._ZNK8opendnp318BufferedCollectionINS_7IndexedINS_19AnalogOutputFloat32EEEZNS_16CountIndexParser13InvokeCountOfINS_11Group41Var3EEEvRKNS_12HeaderRecordEtRKNS_9NumParserERKN7openpal6RSliceERNS_12IAPDUHandlerEEUlRSE_jE_E5CountEv,"axG",@progbits,_ZNK8opendnp318BufferedCollectionINS_7IndexedINS_19AnalogOutputFloat32EEEZNS_16CountIndexParser13InvokeCountOfINS_11Group41Var3EEEvRKNS_12HeaderRecordEtRKNS_9NumParserERKN7openpal6RSliceERNS_12IAPDUHandlerEEUlRSE_jE_E5CountEv,comdat
	.align 2
	.p2align 4
	.weak	_ZNK8opendnp318BufferedCollectionINS_7IndexedINS_19AnalogOutputFloat32EEEZNS_16CountIndexParser13InvokeCountOfINS_11Group41Var3EEEvRKNS_12HeaderRecordEtRKNS_9NumParserERKN7openpal6RSliceERNS_12IAPDUHandlerEEUlRSE_jE_E5CountEv
	.type	_ZNK8opendnp318BufferedCollectionINS_7IndexedINS_19AnalogOutputFloat32EEEZNS_16CountIndexParser13InvokeCountOfINS_11Group41Var3EEEvRKNS_12HeaderRecordEtRKNS_9NumParserERKN7openpal6RSliceERNS_12IAPDUHandlerEEUlRSE_jE_E5CountEv, @function
_ZNK8opendnp318BufferedCollectionINS_7IndexedINS_19AnalogOutputFloat32EEEZNS_16CountIndexParser13InvokeCountOfINS_11Group41Var3EEEvRKNS_12HeaderRecordEtRKNS_9NumParserERKN7openpal6RSliceERNS_12IAPDUHandlerEEUlRSE_jE_E5CountEv:
.LFB3985:
	.cfi_startproc
	movq	24(%rdi), %rax
	ret
	.cfi_endproc
.LFE3985:
	.size	_ZNK8opendnp318BufferedCollectionINS_7IndexedINS_19AnalogOutputFloat32EEEZNS_16CountIndexParser13InvokeCountOfINS_11Group41Var3EEEvRKNS_12HeaderRecordEtRKNS_9NumParserERKN7openpal6RSliceERNS_12IAPDUHandlerEEUlRSE_jE_E5CountEv, .-_ZNK8opendnp318BufferedCollectionINS_7IndexedINS_19AnalogOutputFloat32EEEZNS_16CountIndexParser13InvokeCountOfINS_11Group41Var3EEEvRKNS_12HeaderRecordEtRKNS_9NumParserERKN7openpal6RSliceERNS_12IAPDUHandlerEEUlRSE_jE_E5CountEv
	.section	.text._ZNK8opendnp318BufferedCollectionINS_7IndexedINS_17AnalogOutputInt16EEEZNS_16CountIndexParser13InvokeCountOfINS_11Group41Var2EEEvRKNS_12HeaderRecordEtRKNS_9NumParserERKN7openpal6RSliceERNS_12IAPDUHandlerEEUlRSE_jE_E5CountEv,"axG",@progbits,_ZNK8opendnp318BufferedCollectionINS_7IndexedINS_17AnalogOutputInt16EEEZNS_16CountIndexParser13InvokeCountOfINS_11Group41Var2EEEvRKNS_12HeaderRecordEtRKNS_9NumParserERKN7openpal6RSliceERNS_12IAPDUHandlerEEUlRSE_jE_E5CountEv,comdat
	.align 2
	.p2align 4
	.weak	_ZNK8opendnp318BufferedCollectionINS_7IndexedINS_17AnalogOutputInt16EEEZNS_16CountIndexParser13InvokeCountOfINS_11Group41Var2EEEvRKNS_12HeaderRecordEtRKNS_9NumParserERKN7openpal6RSliceERNS_12IAPDUHandlerEEUlRSE_jE_E5CountEv
	.type	_ZNK8opendnp318BufferedCollectionINS_7IndexedINS_17AnalogOutputInt16EEEZNS_16CountIndexParser13InvokeCountOfINS_11Group41Var2EEEvRKNS_12HeaderRecordEtRKNS_9NumParserERKN7openpal6RSliceERNS_12IAPDUHandlerEEUlRSE_jE_E5CountEv, @function
_ZNK8opendnp318BufferedCollectionINS_7IndexedINS_17AnalogOutputInt16EEEZNS_16CountIndexParser13InvokeCountOfINS_11Group41Var2EEEvRKNS_12HeaderRecordEtRKNS_9NumParserERKN7openpal6RSliceERNS_12IAPDUHandlerEEUlRSE_jE_E5CountEv:
.LFB3987:
	.cfi_startproc
	movq	24(%rdi), %rax
	ret
	.cfi_endproc
.LFE3987:
	.size	_ZNK8opendnp318BufferedCollectionINS_7IndexedINS_17AnalogOutputInt16EEEZNS_16CountIndexParser13InvokeCountOfINS_11Group41Var2EEEvRKNS_12HeaderRecordEtRKNS_9NumParserERKN7openpal6RSliceERNS_12IAPDUHandlerEEUlRSE_jE_E5CountEv, .-_ZNK8opendnp318BufferedCollectionINS_7IndexedINS_17AnalogOutputInt16EEEZNS_16CountIndexParser13InvokeCountOfINS_11Group41Var2EEEvRKNS_12HeaderRecordEtRKNS_9NumParserERKN7openpal6RSliceERNS_12IAPDUHandlerEEUlRSE_jE_E5CountEv
	.section	.text._ZNK8opendnp318BufferedCollectionINS_7IndexedINS_17AnalogOutputInt32EEEZNS_16CountIndexParser13InvokeCountOfINS_11Group41Var1EEEvRKNS_12HeaderRecordEtRKNS_9NumParserERKN7openpal6RSliceERNS_12IAPDUHandlerEEUlRSE_jE_E5CountEv,"axG",@progbits,_ZNK8opendnp318BufferedCollectionINS_7IndexedINS_17AnalogOutputInt32EEEZNS_16CountIndexParser13InvokeCountOfINS_11Group41Var1EEEvRKNS_12HeaderRecordEtRKNS_9NumParserERKN7openpal6RSliceERNS_12IAPDUHandlerEEUlRSE_jE_E5CountEv,comdat
	.align 2
	.p2align 4
	.weak	_ZNK8opendnp318BufferedCollectionINS_7IndexedINS_17AnalogOutputInt32EEEZNS_16CountIndexParser13InvokeCountOfINS_11Group41Var1EEEvRKNS_12HeaderRecordEtRKNS_9NumParserERKN7openpal6RSliceERNS_12IAPDUHandlerEEUlRSE_jE_E5CountEv
	.type	_ZNK8opendnp318BufferedCollectionINS_7IndexedINS_17AnalogOutputInt32EEEZNS_16CountIndexParser13InvokeCountOfINS_11Group41Var1EEEvRKNS_12HeaderRecordEtRKNS_9NumParserERKN7openpal6RSliceERNS_12IAPDUHandlerEEUlRSE_jE_E5CountEv, @function
_ZNK8opendnp318BufferedCollectionINS_7IndexedINS_17AnalogOutputInt32EEEZNS_16CountIndexParser13InvokeCountOfINS_11Group41Var1EEEvRKNS_12HeaderRecordEtRKNS_9NumParserERKN7openpal6RSliceERNS_12IAPDUHandlerEEUlRSE_jE_E5CountEv:
.LFB3989:
	.cfi_startproc
	movq	24(%rdi), %rax
	ret
	.cfi_endproc
.LFE3989:
	.size	_ZNK8opendnp318BufferedCollectionINS_7IndexedINS_17AnalogOutputInt32EEEZNS_16CountIndexParser13InvokeCountOfINS_11Group41Var1EEEvRKNS_12HeaderRecordEtRKNS_9NumParserERKN7openpal6RSliceERNS_12IAPDUHandlerEEUlRSE_jE_E5CountEv, .-_ZNK8opendnp318BufferedCollectionINS_7IndexedINS_17AnalogOutputInt32EEEZNS_16CountIndexParser13InvokeCountOfINS_11Group41Var1EEEvRKNS_12HeaderRecordEtRKNS_9NumParserERKN7openpal6RSliceERNS_12IAPDUHandlerEEUlRSE_jE_E5CountEv
	.section	.text._ZNK8opendnp318BufferedCollectionINS_7IndexedINS_6AnalogEEEZNS_16CountIndexParser13InvokeCountOfINS_11Group32Var8EEEvRKNS_12HeaderRecordEtRKNS_9NumParserERKN7openpal6RSliceERNS_12IAPDUHandlerEEUlRSE_jE_E5CountEv,"axG",@progbits,_ZNK8opendnp318BufferedCollectionINS_7IndexedINS_6AnalogEEEZNS_16CountIndexParser13InvokeCountOfINS_11Group32Var8EEEvRKNS_12HeaderRecordEtRKNS_9NumParserERKN7openpal6RSliceERNS_12IAPDUHandlerEEUlRSE_jE_E5CountEv,comdat
	.align 2
	.p2align 4
	.weak	_ZNK8opendnp318BufferedCollectionINS_7IndexedINS_6AnalogEEEZNS_16CountIndexParser13InvokeCountOfINS_11Group32Var8EEEvRKNS_12HeaderRecordEtRKNS_9NumParserERKN7openpal6RSliceERNS_12IAPDUHandlerEEUlRSE_jE_E5CountEv
	.type	_ZNK8opendnp318BufferedCollectionINS_7IndexedINS_6AnalogEEEZNS_16CountIndexParser13InvokeCountOfINS_11Group32Var8EEEvRKNS_12HeaderRecordEtRKNS_9NumParserERKN7openpal6RSliceERNS_12IAPDUHandlerEEUlRSE_jE_E5CountEv, @function
_ZNK8opendnp318BufferedCollectionINS_7IndexedINS_6AnalogEEEZNS_16CountIndexParser13InvokeCountOfINS_11Group32Var8EEEvRKNS_12HeaderRecordEtRKNS_9NumParserERKN7openpal6RSliceERNS_12IAPDUHandlerEEUlRSE_jE_E5CountEv:
.LFB3991:
	.cfi_startproc
	movq	24(%rdi), %rax
	ret
	.cfi_endproc
.LFE3991:
	.size	_ZNK8opendnp318BufferedCollectionINS_7IndexedINS_6AnalogEEEZNS_16CountIndexParser13InvokeCountOfINS_11Group32Var8EEEvRKNS_12HeaderRecordEtRKNS_9NumParserERKN7openpal6RSliceERNS_12IAPDUHandlerEEUlRSE_jE_E5CountEv, .-_ZNK8opendnp318BufferedCollectionINS_7IndexedINS_6AnalogEEEZNS_16CountIndexParser13InvokeCountOfINS_11Group32Var8EEEvRKNS_12HeaderRecordEtRKNS_9NumParserERKN7openpal6RSliceERNS_12IAPDUHandlerEEUlRSE_jE_E5CountEv
	.section	.text._ZNK8opendnp318BufferedCollectionINS_7IndexedINS_6AnalogEEEZNS_16CountIndexParser13InvokeCountOfINS_11Group32Var7EEEvRKNS_12HeaderRecordEtRKNS_9NumParserERKN7openpal6RSliceERNS_12IAPDUHandlerEEUlRSE_jE_E5CountEv,"axG",@progbits,_ZNK8opendnp318BufferedCollectionINS_7IndexedINS_6AnalogEEEZNS_16CountIndexParser13InvokeCountOfINS_11Group32Var7EEEvRKNS_12HeaderRecordEtRKNS_9NumParserERKN7openpal6RSliceERNS_12IAPDUHandlerEEUlRSE_jE_E5CountEv,comdat
	.align 2
	.p2align 4
	.weak	_ZNK8opendnp318BufferedCollectionINS_7IndexedINS_6AnalogEEEZNS_16CountIndexParser13InvokeCountOfINS_11Group32Var7EEEvRKNS_12HeaderRecordEtRKNS_9NumParserERKN7openpal6RSliceERNS_12IAPDUHandlerEEUlRSE_jE_E5CountEv
	.type	_ZNK8opendnp318BufferedCollectionINS_7IndexedINS_6AnalogEEEZNS_16CountIndexParser13InvokeCountOfINS_11Group32Var7EEEvRKNS_12HeaderRecordEtRKNS_9NumParserERKN7openpal6RSliceERNS_12IAPDUHandlerEEUlRSE_jE_E5CountEv, @function
_ZNK8opendnp318BufferedCollectionINS_7IndexedINS_6AnalogEEEZNS_16CountIndexParser13InvokeCountOfINS_11Group32Var7EEEvRKNS_12HeaderRecordEtRKNS_9NumParserERKN7openpal6RSliceERNS_12IAPDUHandlerEEUlRSE_jE_E5CountEv:
.LFB3993:
	.cfi_startproc
	movq	24(%rdi), %rax
	ret
	.cfi_endproc
.LFE3993:
	.size	_ZNK8opendnp318BufferedCollectionINS_7IndexedINS_6AnalogEEEZNS_16CountIndexParser13InvokeCountOfINS_11Group32Var7EEEvRKNS_12HeaderRecordEtRKNS_9NumParserERKN7openpal6RSliceERNS_12IAPDUHandlerEEUlRSE_jE_E5CountEv, .-_ZNK8opendnp318BufferedCollectionINS_7IndexedINS_6AnalogEEEZNS_16CountIndexParser13InvokeCountOfINS_11Group32Var7EEEvRKNS_12HeaderRecordEtRKNS_9NumParserERKN7openpal6RSliceERNS_12IAPDUHandlerEEUlRSE_jE_E5CountEv
	.section	.text._ZNK8opendnp318BufferedCollectionINS_7IndexedINS_6AnalogEEEZNS_16CountIndexParser13InvokeCountOfINS_11Group32Var6EEEvRKNS_12HeaderRecordEtRKNS_9NumParserERKN7openpal6RSliceERNS_12IAPDUHandlerEEUlRSE_jE_E5CountEv,"axG",@progbits,_ZNK8opendnp318BufferedCollectionINS_7IndexedINS_6AnalogEEEZNS_16CountIndexParser13InvokeCountOfINS_11Group32Var6EEEvRKNS_12HeaderRecordEtRKNS_9NumParserERKN7openpal6RSliceERNS_12IAPDUHandlerEEUlRSE_jE_E5CountEv,comdat
	.align 2
	.p2align 4
	.weak	_ZNK8opendnp318BufferedCollectionINS_7IndexedINS_6AnalogEEEZNS_16CountIndexParser13InvokeCountOfINS_11Group32Var6EEEvRKNS_12HeaderRecordEtRKNS_9NumParserERKN7openpal6RSliceERNS_12IAPDUHandlerEEUlRSE_jE_E5CountEv
	.type	_ZNK8opendnp318BufferedCollectionINS_7IndexedINS_6AnalogEEEZNS_16CountIndexParser13InvokeCountOfINS_11Group32Var6EEEvRKNS_12HeaderRecordEtRKNS_9NumParserERKN7openpal6RSliceERNS_12IAPDUHandlerEEUlRSE_jE_E5CountEv, @function
_ZNK8opendnp318BufferedCollectionINS_7IndexedINS_6AnalogEEEZNS_16CountIndexParser13InvokeCountOfINS_11Group32Var6EEEvRKNS_12HeaderRecordEtRKNS_9NumParserERKN7openpal6RSliceERNS_12IAPDUHandlerEEUlRSE_jE_E5CountEv:
.LFB3995:
	.cfi_startproc
	movq	24(%rdi), %rax
	ret
	.cfi_endproc
.LFE3995:
	.size	_ZNK8opendnp318BufferedCollectionINS_7IndexedINS_6AnalogEEEZNS_16CountIndexParser13InvokeCountOfINS_11Group32Var6EEEvRKNS_12HeaderRecordEtRKNS_9NumParserERKN7openpal6RSliceERNS_12IAPDUHandlerEEUlRSE_jE_E5CountEv, .-_ZNK8opendnp318BufferedCollectionINS_7IndexedINS_6AnalogEEEZNS_16CountIndexParser13InvokeCountOfINS_11Group32Var6EEEvRKNS_12HeaderRecordEtRKNS_9NumParserERKN7openpal6RSliceERNS_12IAPDUHandlerEEUlRSE_jE_E5CountEv
	.section	.text._ZNK8opendnp318BufferedCollectionINS_7IndexedINS_6AnalogEEEZNS_16CountIndexParser13InvokeCountOfINS_11Group32Var5EEEvRKNS_12HeaderRecordEtRKNS_9NumParserERKN7openpal6RSliceERNS_12IAPDUHandlerEEUlRSE_jE_E5CountEv,"axG",@progbits,_ZNK8opendnp318BufferedCollectionINS_7IndexedINS_6AnalogEEEZNS_16CountIndexParser13InvokeCountOfINS_11Group32Var5EEEvRKNS_12HeaderRecordEtRKNS_9NumParserERKN7openpal6RSliceERNS_12IAPDUHandlerEEUlRSE_jE_E5CountEv,comdat
	.align 2
	.p2align 4
	.weak	_ZNK8opendnp318BufferedCollectionINS_7IndexedINS_6AnalogEEEZNS_16CountIndexParser13InvokeCountOfINS_11Group32Var5EEEvRKNS_12HeaderRecordEtRKNS_9NumParserERKN7openpal6RSliceERNS_12IAPDUHandlerEEUlRSE_jE_E5CountEv
	.type	_ZNK8opendnp318BufferedCollectionINS_7IndexedINS_6AnalogEEEZNS_16CountIndexParser13InvokeCountOfINS_11Group32Var5EEEvRKNS_12HeaderRecordEtRKNS_9NumParserERKN7openpal6RSliceERNS_12IAPDUHandlerEEUlRSE_jE_E5CountEv, @function
_ZNK8opendnp318BufferedCollectionINS_7IndexedINS_6AnalogEEEZNS_16CountIndexParser13InvokeCountOfINS_11Group32Var5EEEvRKNS_12HeaderRecordEtRKNS_9NumParserERKN7openpal6RSliceERNS_12IAPDUHandlerEEUlRSE_jE_E5CountEv:
.LFB3997:
	.cfi_startproc
	movq	24(%rdi), %rax
	ret
	.cfi_endproc
.LFE3997:
	.size	_ZNK8opendnp318BufferedCollectionINS_7IndexedINS_6AnalogEEEZNS_16CountIndexParser13InvokeCountOfINS_11Group32Var5EEEvRKNS_12HeaderRecordEtRKNS_9NumParserERKN7openpal6RSliceERNS_12IAPDUHandlerEEUlRSE_jE_E5CountEv, .-_ZNK8opendnp318BufferedCollectionINS_7IndexedINS_6AnalogEEEZNS_16CountIndexParser13InvokeCountOfINS_11Group32Var5EEEvRKNS_12HeaderRecordEtRKNS_9NumParserERKN7openpal6RSliceERNS_12IAPDUHandlerEEUlRSE_jE_E5CountEv
	.section	.text._ZNK8opendnp318BufferedCollectionINS_7IndexedINS_6AnalogEEEZNS_16CountIndexParser13InvokeCountOfINS_11Group32Var4EEEvRKNS_12HeaderRecordEtRKNS_9NumParserERKN7openpal6RSliceERNS_12IAPDUHandlerEEUlRSE_jE_E5CountEv,"axG",@progbits,_ZNK8opendnp318BufferedCollectionINS_7IndexedINS_6AnalogEEEZNS_16CountIndexParser13InvokeCountOfINS_11Group32Var4EEEvRKNS_12HeaderRecordEtRKNS_9NumParserERKN7openpal6RSliceERNS_12IAPDUHandlerEEUlRSE_jE_E5CountEv,comdat
	.align 2
	.p2align 4
	.weak	_ZNK8opendnp318BufferedCollectionINS_7IndexedINS_6AnalogEEEZNS_16CountIndexParser13InvokeCountOfINS_11Group32Var4EEEvRKNS_12HeaderRecordEtRKNS_9NumParserERKN7openpal6RSliceERNS_12IAPDUHandlerEEUlRSE_jE_E5CountEv
	.type	_ZNK8opendnp318BufferedCollectionINS_7IndexedINS_6AnalogEEEZNS_16CountIndexParser13InvokeCountOfINS_11Group32Var4EEEvRKNS_12HeaderRecordEtRKNS_9NumParserERKN7openpal6RSliceERNS_12IAPDUHandlerEEUlRSE_jE_E5CountEv, @function
_ZNK8opendnp318BufferedCollectionINS_7IndexedINS_6AnalogEEEZNS_16CountIndexParser13InvokeCountOfINS_11Group32Var4EEEvRKNS_12HeaderRecordEtRKNS_9NumParserERKN7openpal6RSliceERNS_12IAPDUHandlerEEUlRSE_jE_E5CountEv:
.LFB3999:
	.cfi_startproc
	movq	24(%rdi), %rax
	ret
	.cfi_endproc
.LFE3999:
	.size	_ZNK8opendnp318BufferedCollectionINS_7IndexedINS_6AnalogEEEZNS_16CountIndexParser13InvokeCountOfINS_11Group32Var4EEEvRKNS_12HeaderRecordEtRKNS_9NumParserERKN7openpal6RSliceERNS_12IAPDUHandlerEEUlRSE_jE_E5CountEv, .-_ZNK8opendnp318BufferedCollectionINS_7IndexedINS_6AnalogEEEZNS_16CountIndexParser13InvokeCountOfINS_11Group32Var4EEEvRKNS_12HeaderRecordEtRKNS_9NumParserERKN7openpal6RSliceERNS_12IAPDUHandlerEEUlRSE_jE_E5CountEv
	.section	.text._ZNK8opendnp318BufferedCollectionINS_7IndexedINS_6AnalogEEEZNS_16CountIndexParser13InvokeCountOfINS_11Group32Var3EEEvRKNS_12HeaderRecordEtRKNS_9NumParserERKN7openpal6RSliceERNS_12IAPDUHandlerEEUlRSE_jE_E5CountEv,"axG",@progbits,_ZNK8opendnp318BufferedCollectionINS_7IndexedINS_6AnalogEEEZNS_16CountIndexParser13InvokeCountOfINS_11Group32Var3EEEvRKNS_12HeaderRecordEtRKNS_9NumParserERKN7openpal6RSliceERNS_12IAPDUHandlerEEUlRSE_jE_E5CountEv,comdat
	.align 2
	.p2align 4
	.weak	_ZNK8opendnp318BufferedCollectionINS_7IndexedINS_6AnalogEEEZNS_16CountIndexParser13InvokeCountOfINS_11Group32Var3EEEvRKNS_12HeaderRecordEtRKNS_9NumParserERKN7openpal6RSliceERNS_12IAPDUHandlerEEUlRSE_jE_E5CountEv
	.type	_ZNK8opendnp318BufferedCollectionINS_7IndexedINS_6AnalogEEEZNS_16CountIndexParser13InvokeCountOfINS_11Group32Var3EEEvRKNS_12HeaderRecordEtRKNS_9NumParserERKN7openpal6RSliceERNS_12IAPDUHandlerEEUlRSE_jE_E5CountEv, @function
_ZNK8opendnp318BufferedCollectionINS_7IndexedINS_6AnalogEEEZNS_16CountIndexParser13InvokeCountOfINS_11Group32Var3EEEvRKNS_12HeaderRecordEtRKNS_9NumParserERKN7openpal6RSliceERNS_12IAPDUHandlerEEUlRSE_jE_E5CountEv:
.LFB4001:
	.cfi_startproc
	movq	24(%rdi), %rax
	ret
	.cfi_endproc
.LFE4001:
	.size	_ZNK8opendnp318BufferedCollectionINS_7IndexedINS_6AnalogEEEZNS_16CountIndexParser13InvokeCountOfINS_11Group32Var3EEEvRKNS_12HeaderRecordEtRKNS_9NumParserERKN7openpal6RSliceERNS_12IAPDUHandlerEEUlRSE_jE_E5CountEv, .-_ZNK8opendnp318BufferedCollectionINS_7IndexedINS_6AnalogEEEZNS_16CountIndexParser13InvokeCountOfINS_11Group32Var3EEEvRKNS_12HeaderRecordEtRKNS_9NumParserERKN7openpal6RSliceERNS_12IAPDUHandlerEEUlRSE_jE_E5CountEv
	.section	.text._ZNK8opendnp318BufferedCollectionINS_7IndexedINS_6AnalogEEEZNS_16CountIndexParser13InvokeCountOfINS_11Group32Var2EEEvRKNS_12HeaderRecordEtRKNS_9NumParserERKN7openpal6RSliceERNS_12IAPDUHandlerEEUlRSE_jE_E5CountEv,"axG",@progbits,_ZNK8opendnp318BufferedCollectionINS_7IndexedINS_6AnalogEEEZNS_16CountIndexParser13InvokeCountOfINS_11Group32Var2EEEvRKNS_12HeaderRecordEtRKNS_9NumParserERKN7openpal6RSliceERNS_12IAPDUHandlerEEUlRSE_jE_E5CountEv,comdat
	.align 2
	.p2align 4
	.weak	_ZNK8opendnp318BufferedCollectionINS_7IndexedINS_6AnalogEEEZNS_16CountIndexParser13InvokeCountOfINS_11Group32Var2EEEvRKNS_12HeaderRecordEtRKNS_9NumParserERKN7openpal6RSliceERNS_12IAPDUHandlerEEUlRSE_jE_E5CountEv
	.type	_ZNK8opendnp318BufferedCollectionINS_7IndexedINS_6AnalogEEEZNS_16CountIndexParser13InvokeCountOfINS_11Group32Var2EEEvRKNS_12HeaderRecordEtRKNS_9NumParserERKN7openpal6RSliceERNS_12IAPDUHandlerEEUlRSE_jE_E5CountEv, @function
_ZNK8opendnp318BufferedCollectionINS_7IndexedINS_6AnalogEEEZNS_16CountIndexParser13InvokeCountOfINS_11Group32Var2EEEvRKNS_12HeaderRecordEtRKNS_9NumParserERKN7openpal6RSliceERNS_12IAPDUHandlerEEUlRSE_jE_E5CountEv:
.LFB4003:
	.cfi_startproc
	movq	24(%rdi), %rax
	ret
	.cfi_endproc
.LFE4003:
	.size	_ZNK8opendnp318BufferedCollectionINS_7IndexedINS_6AnalogEEEZNS_16CountIndexParser13InvokeCountOfINS_11Group32Var2EEEvRKNS_12HeaderRecordEtRKNS_9NumParserERKN7openpal6RSliceERNS_12IAPDUHandlerEEUlRSE_jE_E5CountEv, .-_ZNK8opendnp318BufferedCollectionINS_7IndexedINS_6AnalogEEEZNS_16CountIndexParser13InvokeCountOfINS_11Group32Var2EEEvRKNS_12HeaderRecordEtRKNS_9NumParserERKN7openpal6RSliceERNS_12IAPDUHandlerEEUlRSE_jE_E5CountEv
	.section	.text._ZNK8opendnp318BufferedCollectionINS_7IndexedINS_6AnalogEEEZNS_16CountIndexParser13InvokeCountOfINS_11Group32Var1EEEvRKNS_12HeaderRecordEtRKNS_9NumParserERKN7openpal6RSliceERNS_12IAPDUHandlerEEUlRSE_jE_E5CountEv,"axG",@progbits,_ZNK8opendnp318BufferedCollectionINS_7IndexedINS_6AnalogEEEZNS_16CountIndexParser13InvokeCountOfINS_11Group32Var1EEEvRKNS_12HeaderRecordEtRKNS_9NumParserERKN7openpal6RSliceERNS_12IAPDUHandlerEEUlRSE_jE_E5CountEv,comdat
	.align 2
	.p2align 4
	.weak	_ZNK8opendnp318BufferedCollectionINS_7IndexedINS_6AnalogEEEZNS_16CountIndexParser13InvokeCountOfINS_11Group32Var1EEEvRKNS_12HeaderRecordEtRKNS_9NumParserERKN7openpal6RSliceERNS_12IAPDUHandlerEEUlRSE_jE_E5CountEv
	.type	_ZNK8opendnp318BufferedCollectionINS_7IndexedINS_6AnalogEEEZNS_16CountIndexParser13InvokeCountOfINS_11Group32Var1EEEvRKNS_12HeaderRecordEtRKNS_9NumParserERKN7openpal6RSliceERNS_12IAPDUHandlerEEUlRSE_jE_E5CountEv, @function
_ZNK8opendnp318BufferedCollectionINS_7IndexedINS_6AnalogEEEZNS_16CountIndexParser13InvokeCountOfINS_11Group32Var1EEEvRKNS_12HeaderRecordEtRKNS_9NumParserERKN7openpal6RSliceERNS_12IAPDUHandlerEEUlRSE_jE_E5CountEv:
.LFB4005:
	.cfi_startproc
	movq	24(%rdi), %rax
	ret
	.cfi_endproc
.LFE4005:
	.size	_ZNK8opendnp318BufferedCollectionINS_7IndexedINS_6AnalogEEEZNS_16CountIndexParser13InvokeCountOfINS_11Group32Var1EEEvRKNS_12HeaderRecordEtRKNS_9NumParserERKN7openpal6RSliceERNS_12IAPDUHandlerEEUlRSE_jE_E5CountEv, .-_ZNK8opendnp318BufferedCollectionINS_7IndexedINS_6AnalogEEEZNS_16CountIndexParser13InvokeCountOfINS_11Group32Var1EEEvRKNS_12HeaderRecordEtRKNS_9NumParserERKN7openpal6RSliceERNS_12IAPDUHandlerEEUlRSE_jE_E5CountEv
	.section	.text._ZNK8opendnp318BufferedCollectionINS_7IndexedINS_13FrozenCounterEEEZNS_16CountIndexParser13InvokeCountOfINS_11Group23Var6EEEvRKNS_12HeaderRecordEtRKNS_9NumParserERKN7openpal6RSliceERNS_12IAPDUHandlerEEUlRSE_jE_E5CountEv,"axG",@progbits,_ZNK8opendnp318BufferedCollectionINS_7IndexedINS_13FrozenCounterEEEZNS_16CountIndexParser13InvokeCountOfINS_11Group23Var6EEEvRKNS_12HeaderRecordEtRKNS_9NumParserERKN7openpal6RSliceERNS_12IAPDUHandlerEEUlRSE_jE_E5CountEv,comdat
	.align 2
	.p2align 4
	.weak	_ZNK8opendnp318BufferedCollectionINS_7IndexedINS_13FrozenCounterEEEZNS_16CountIndexParser13InvokeCountOfINS_11Group23Var6EEEvRKNS_12HeaderRecordEtRKNS_9NumParserERKN7openpal6RSliceERNS_12IAPDUHandlerEEUlRSE_jE_E5CountEv
	.type	_ZNK8opendnp318BufferedCollectionINS_7IndexedINS_13FrozenCounterEEEZNS_16CountIndexParser13InvokeCountOfINS_11Group23Var6EEEvRKNS_12HeaderRecordEtRKNS_9NumParserERKN7openpal6RSliceERNS_12IAPDUHandlerEEUlRSE_jE_E5CountEv, @function
_ZNK8opendnp318BufferedCollectionINS_7IndexedINS_13FrozenCounterEEEZNS_16CountIndexParser13InvokeCountOfINS_11Group23Var6EEEvRKNS_12HeaderRecordEtRKNS_9NumParserERKN7openpal6RSliceERNS_12IAPDUHandlerEEUlRSE_jE_E5CountEv:
.LFB4007:
	.cfi_startproc
	movq	24(%rdi), %rax
	ret
	.cfi_endproc
.LFE4007:
	.size	_ZNK8opendnp318BufferedCollectionINS_7IndexedINS_13FrozenCounterEEEZNS_16CountIndexParser13InvokeCountOfINS_11Group23Var6EEEvRKNS_12HeaderRecordEtRKNS_9NumParserERKN7openpal6RSliceERNS_12IAPDUHandlerEEUlRSE_jE_E5CountEv, .-_ZNK8opendnp318BufferedCollectionINS_7IndexedINS_13FrozenCounterEEEZNS_16CountIndexParser13InvokeCountOfINS_11Group23Var6EEEvRKNS_12HeaderRecordEtRKNS_9NumParserERKN7openpal6RSliceERNS_12IAPDUHandlerEEUlRSE_jE_E5CountEv
	.section	.text._ZNK8opendnp318BufferedCollectionINS_7IndexedINS_13FrozenCounterEEEZNS_16CountIndexParser13InvokeCountOfINS_11Group23Var5EEEvRKNS_12HeaderRecordEtRKNS_9NumParserERKN7openpal6RSliceERNS_12IAPDUHandlerEEUlRSE_jE_E5CountEv,"axG",@progbits,_ZNK8opendnp318BufferedCollectionINS_7IndexedINS_13FrozenCounterEEEZNS_16CountIndexParser13InvokeCountOfINS_11Group23Var5EEEvRKNS_12HeaderRecordEtRKNS_9NumParserERKN7openpal6RSliceERNS_12IAPDUHandlerEEUlRSE_jE_E5CountEv,comdat
	.align 2
	.p2align 4
	.weak	_ZNK8opendnp318BufferedCollectionINS_7IndexedINS_13FrozenCounterEEEZNS_16CountIndexParser13InvokeCountOfINS_11Group23Var5EEEvRKNS_12HeaderRecordEtRKNS_9NumParserERKN7openpal6RSliceERNS_12IAPDUHandlerEEUlRSE_jE_E5CountEv
	.type	_ZNK8opendnp318BufferedCollectionINS_7IndexedINS_13FrozenCounterEEEZNS_16CountIndexParser13InvokeCountOfINS_11Group23Var5EEEvRKNS_12HeaderRecordEtRKNS_9NumParserERKN7openpal6RSliceERNS_12IAPDUHandlerEEUlRSE_jE_E5CountEv, @function
_ZNK8opendnp318BufferedCollectionINS_7IndexedINS_13FrozenCounterEEEZNS_16CountIndexParser13InvokeCountOfINS_11Group23Var5EEEvRKNS_12HeaderRecordEtRKNS_9NumParserERKN7openpal6RSliceERNS_12IAPDUHandlerEEUlRSE_jE_E5CountEv:
.LFB4009:
	.cfi_startproc
	movq	24(%rdi), %rax
	ret
	.cfi_endproc
.LFE4009:
	.size	_ZNK8opendnp318BufferedCollectionINS_7IndexedINS_13FrozenCounterEEEZNS_16CountIndexParser13InvokeCountOfINS_11Group23Var5EEEvRKNS_12HeaderRecordEtRKNS_9NumParserERKN7openpal6RSliceERNS_12IAPDUHandlerEEUlRSE_jE_E5CountEv, .-_ZNK8opendnp318BufferedCollectionINS_7IndexedINS_13FrozenCounterEEEZNS_16CountIndexParser13InvokeCountOfINS_11Group23Var5EEEvRKNS_12HeaderRecordEtRKNS_9NumParserERKN7openpal6RSliceERNS_12IAPDUHandlerEEUlRSE_jE_E5CountEv
	.section	.text._ZNK8opendnp318BufferedCollectionINS_7IndexedINS_13FrozenCounterEEEZNS_16CountIndexParser13InvokeCountOfINS_11Group23Var2EEEvRKNS_12HeaderRecordEtRKNS_9NumParserERKN7openpal6RSliceERNS_12IAPDUHandlerEEUlRSE_jE_E5CountEv,"axG",@progbits,_ZNK8opendnp318BufferedCollectionINS_7IndexedINS_13FrozenCounterEEEZNS_16CountIndexParser13InvokeCountOfINS_11Group23Var2EEEvRKNS_12HeaderRecordEtRKNS_9NumParserERKN7openpal6RSliceERNS_12IAPDUHandlerEEUlRSE_jE_E5CountEv,comdat
	.align 2
	.p2align 4
	.weak	_ZNK8opendnp318BufferedCollectionINS_7IndexedINS_13FrozenCounterEEEZNS_16CountIndexParser13InvokeCountOfINS_11Group23Var2EEEvRKNS_12HeaderRecordEtRKNS_9NumParserERKN7openpal6RSliceERNS_12IAPDUHandlerEEUlRSE_jE_E5CountEv
	.type	_ZNK8opendnp318BufferedCollectionINS_7IndexedINS_13FrozenCounterEEEZNS_16CountIndexParser13InvokeCountOfINS_11Group23Var2EEEvRKNS_12HeaderRecordEtRKNS_9NumParserERKN7openpal6RSliceERNS_12IAPDUHandlerEEUlRSE_jE_E5CountEv, @function
_ZNK8opendnp318BufferedCollectionINS_7IndexedINS_13FrozenCounterEEEZNS_16CountIndexParser13InvokeCountOfINS_11Group23Var2EEEvRKNS_12HeaderRecordEtRKNS_9NumParserERKN7openpal6RSliceERNS_12IAPDUHandlerEEUlRSE_jE_E5CountEv:
.LFB4011:
	.cfi_startproc
	movq	24(%rdi), %rax
	ret
	.cfi_endproc
.LFE4011:
	.size	_ZNK8opendnp318BufferedCollectionINS_7IndexedINS_13FrozenCounterEEEZNS_16CountIndexParser13InvokeCountOfINS_11Group23Var2EEEvRKNS_12HeaderRecordEtRKNS_9NumParserERKN7openpal6RSliceERNS_12IAPDUHandlerEEUlRSE_jE_E5CountEv, .-_ZNK8opendnp318BufferedCollectionINS_7IndexedINS_13FrozenCounterEEEZNS_16CountIndexParser13InvokeCountOfINS_11Group23Var2EEEvRKNS_12HeaderRecordEtRKNS_9NumParserERKN7openpal6RSliceERNS_12IAPDUHandlerEEUlRSE_jE_E5CountEv
	.section	.text._ZNK8opendnp318BufferedCollectionINS_7IndexedINS_13FrozenCounterEEEZNS_16CountIndexParser13InvokeCountOfINS_11Group23Var1EEEvRKNS_12HeaderRecordEtRKNS_9NumParserERKN7openpal6RSliceERNS_12IAPDUHandlerEEUlRSE_jE_E5CountEv,"axG",@progbits,_ZNK8opendnp318BufferedCollectionINS_7IndexedINS_13FrozenCounterEEEZNS_16CountIndexParser13InvokeCountOfINS_11Group23Var1EEEvRKNS_12HeaderRecordEtRKNS_9NumParserERKN7openpal6RSliceERNS_12IAPDUHandlerEEUlRSE_jE_E5CountEv,comdat
	.align 2
	.p2align 4
	.weak	_ZNK8opendnp318BufferedCollectionINS_7IndexedINS_13FrozenCounterEEEZNS_16CountIndexParser13InvokeCountOfINS_11Group23Var1EEEvRKNS_12HeaderRecordEtRKNS_9NumParserERKN7openpal6RSliceERNS_12IAPDUHandlerEEUlRSE_jE_E5CountEv
	.type	_ZNK8opendnp318BufferedCollectionINS_7IndexedINS_13FrozenCounterEEEZNS_16CountIndexParser13InvokeCountOfINS_11Group23Var1EEEvRKNS_12HeaderRecordEtRKNS_9NumParserERKN7openpal6RSliceERNS_12IAPDUHandlerEEUlRSE_jE_E5CountEv, @function
_ZNK8opendnp318BufferedCollectionINS_7IndexedINS_13FrozenCounterEEEZNS_16CountIndexParser13InvokeCountOfINS_11Group23Var1EEEvRKNS_12HeaderRecordEtRKNS_9NumParserERKN7openpal6RSliceERNS_12IAPDUHandlerEEUlRSE_jE_E5CountEv:
.LFB4013:
	.cfi_startproc
	movq	24(%rdi), %rax
	ret
	.cfi_endproc
.LFE4013:
	.size	_ZNK8opendnp318BufferedCollectionINS_7IndexedINS_13FrozenCounterEEEZNS_16CountIndexParser13InvokeCountOfINS_11Group23Var1EEEvRKNS_12HeaderRecordEtRKNS_9NumParserERKN7openpal6RSliceERNS_12IAPDUHandlerEEUlRSE_jE_E5CountEv, .-_ZNK8opendnp318BufferedCollectionINS_7IndexedINS_13FrozenCounterEEEZNS_16CountIndexParser13InvokeCountOfINS_11Group23Var1EEEvRKNS_12HeaderRecordEtRKNS_9NumParserERKN7openpal6RSliceERNS_12IAPDUHandlerEEUlRSE_jE_E5CountEv
	.section	.text._ZNK8opendnp318BufferedCollectionINS_7IndexedINS_7CounterEEEZNS_16CountIndexParser13InvokeCountOfINS_11Group22Var6EEEvRKNS_12HeaderRecordEtRKNS_9NumParserERKN7openpal6RSliceERNS_12IAPDUHandlerEEUlRSE_jE_E5CountEv,"axG",@progbits,_ZNK8opendnp318BufferedCollectionINS_7IndexedINS_7CounterEEEZNS_16CountIndexParser13InvokeCountOfINS_11Group22Var6EEEvRKNS_12HeaderRecordEtRKNS_9NumParserERKN7openpal6RSliceERNS_12IAPDUHandlerEEUlRSE_jE_E5CountEv,comdat
	.align 2
	.p2align 4
	.weak	_ZNK8opendnp318BufferedCollectionINS_7IndexedINS_7CounterEEEZNS_16CountIndexParser13InvokeCountOfINS_11Group22Var6EEEvRKNS_12HeaderRecordEtRKNS_9NumParserERKN7openpal6RSliceERNS_12IAPDUHandlerEEUlRSE_jE_E5CountEv
	.type	_ZNK8opendnp318BufferedCollectionINS_7IndexedINS_7CounterEEEZNS_16CountIndexParser13InvokeCountOfINS_11Group22Var6EEEvRKNS_12HeaderRecordEtRKNS_9NumParserERKN7openpal6RSliceERNS_12IAPDUHandlerEEUlRSE_jE_E5CountEv, @function
_ZNK8opendnp318BufferedCollectionINS_7IndexedINS_7CounterEEEZNS_16CountIndexParser13InvokeCountOfINS_11Group22Var6EEEvRKNS_12HeaderRecordEtRKNS_9NumParserERKN7openpal6RSliceERNS_12IAPDUHandlerEEUlRSE_jE_E5CountEv:
.LFB4015:
	.cfi_startproc
	movq	24(%rdi), %rax
	ret
	.cfi_endproc
.LFE4015:
	.size	_ZNK8opendnp318BufferedCollectionINS_7IndexedINS_7CounterEEEZNS_16CountIndexParser13InvokeCountOfINS_11Group22Var6EEEvRKNS_12HeaderRecordEtRKNS_9NumParserERKN7openpal6RSliceERNS_12IAPDUHandlerEEUlRSE_jE_E5CountEv, .-_ZNK8opendnp318BufferedCollectionINS_7IndexedINS_7CounterEEEZNS_16CountIndexParser13InvokeCountOfINS_11Group22Var6EEEvRKNS_12HeaderRecordEtRKNS_9NumParserERKN7openpal6RSliceERNS_12IAPDUHandlerEEUlRSE_jE_E5CountEv
	.section	.text._ZNK8opendnp318BufferedCollectionINS_7IndexedINS_7CounterEEEZNS_16CountIndexParser13InvokeCountOfINS_11Group22Var5EEEvRKNS_12HeaderRecordEtRKNS_9NumParserERKN7openpal6RSliceERNS_12IAPDUHandlerEEUlRSE_jE_E5CountEv,"axG",@progbits,_ZNK8opendnp318BufferedCollectionINS_7IndexedINS_7CounterEEEZNS_16CountIndexParser13InvokeCountOfINS_11Group22Var5EEEvRKNS_12HeaderRecordEtRKNS_9NumParserERKN7openpal6RSliceERNS_12IAPDUHandlerEEUlRSE_jE_E5CountEv,comdat
	.align 2
	.p2align 4
	.weak	_ZNK8opendnp318BufferedCollectionINS_7IndexedINS_7CounterEEEZNS_16CountIndexParser13InvokeCountOfINS_11Group22Var5EEEvRKNS_12HeaderRecordEtRKNS_9NumParserERKN7openpal6RSliceERNS_12IAPDUHandlerEEUlRSE_jE_E5CountEv
	.type	_ZNK8opendnp318BufferedCollectionINS_7IndexedINS_7CounterEEEZNS_16CountIndexParser13InvokeCountOfINS_11Group22Var5EEEvRKNS_12HeaderRecordEtRKNS_9NumParserERKN7openpal6RSliceERNS_12IAPDUHandlerEEUlRSE_jE_E5CountEv, @function
_ZNK8opendnp318BufferedCollectionINS_7IndexedINS_7CounterEEEZNS_16CountIndexParser13InvokeCountOfINS_11Group22Var5EEEvRKNS_12HeaderRecordEtRKNS_9NumParserERKN7openpal6RSliceERNS_12IAPDUHandlerEEUlRSE_jE_E5CountEv:
.LFB4017:
	.cfi_startproc
	movq	24(%rdi), %rax
	ret
	.cfi_endproc
.LFE4017:
	.size	_ZNK8opendnp318BufferedCollectionINS_7IndexedINS_7CounterEEEZNS_16CountIndexParser13InvokeCountOfINS_11Group22Var5EEEvRKNS_12HeaderRecordEtRKNS_9NumParserERKN7openpal6RSliceERNS_12IAPDUHandlerEEUlRSE_jE_E5CountEv, .-_ZNK8opendnp318BufferedCollectionINS_7IndexedINS_7CounterEEEZNS_16CountIndexParser13InvokeCountOfINS_11Group22Var5EEEvRKNS_12HeaderRecordEtRKNS_9NumParserERKN7openpal6RSliceERNS_12IAPDUHandlerEEUlRSE_jE_E5CountEv
	.section	.text._ZNK8opendnp318BufferedCollectionINS_7IndexedINS_7CounterEEEZNS_16CountIndexParser13InvokeCountOfINS_11Group22Var2EEEvRKNS_12HeaderRecordEtRKNS_9NumParserERKN7openpal6RSliceERNS_12IAPDUHandlerEEUlRSE_jE_E5CountEv,"axG",@progbits,_ZNK8opendnp318BufferedCollectionINS_7IndexedINS_7CounterEEEZNS_16CountIndexParser13InvokeCountOfINS_11Group22Var2EEEvRKNS_12HeaderRecordEtRKNS_9NumParserERKN7openpal6RSliceERNS_12IAPDUHandlerEEUlRSE_jE_E5CountEv,comdat
	.align 2
	.p2align 4
	.weak	_ZNK8opendnp318BufferedCollectionINS_7IndexedINS_7CounterEEEZNS_16CountIndexParser13InvokeCountOfINS_11Group22Var2EEEvRKNS_12HeaderRecordEtRKNS_9NumParserERKN7openpal6RSliceERNS_12IAPDUHandlerEEUlRSE_jE_E5CountEv
	.type	_ZNK8opendnp318BufferedCollectionINS_7IndexedINS_7CounterEEEZNS_16CountIndexParser13InvokeCountOfINS_11Group22Var2EEEvRKNS_12HeaderRecordEtRKNS_9NumParserERKN7openpal6RSliceERNS_12IAPDUHandlerEEUlRSE_jE_E5CountEv, @function
_ZNK8opendnp318BufferedCollectionINS_7IndexedINS_7CounterEEEZNS_16CountIndexParser13InvokeCountOfINS_11Group22Var2EEEvRKNS_12HeaderRecordEtRKNS_9NumParserERKN7openpal6RSliceERNS_12IAPDUHandlerEEUlRSE_jE_E5CountEv:
.LFB4019:
	.cfi_startproc
	movq	24(%rdi), %rax
	ret
	.cfi_endproc
.LFE4019:
	.size	_ZNK8opendnp318BufferedCollectionINS_7IndexedINS_7CounterEEEZNS_16CountIndexParser13InvokeCountOfINS_11Group22Var2EEEvRKNS_12HeaderRecordEtRKNS_9NumParserERKN7openpal6RSliceERNS_12IAPDUHandlerEEUlRSE_jE_E5CountEv, .-_ZNK8opendnp318BufferedCollectionINS_7IndexedINS_7CounterEEEZNS_16CountIndexParser13InvokeCountOfINS_11Group22Var2EEEvRKNS_12HeaderRecordEtRKNS_9NumParserERKN7openpal6RSliceERNS_12IAPDUHandlerEEUlRSE_jE_E5CountEv
	.section	.text._ZNK8opendnp318BufferedCollectionINS_7IndexedINS_7CounterEEEZNS_16CountIndexParser13InvokeCountOfINS_11Group22Var1EEEvRKNS_12HeaderRecordEtRKNS_9NumParserERKN7openpal6RSliceERNS_12IAPDUHandlerEEUlRSE_jE_E5CountEv,"axG",@progbits,_ZNK8opendnp318BufferedCollectionINS_7IndexedINS_7CounterEEEZNS_16CountIndexParser13InvokeCountOfINS_11Group22Var1EEEvRKNS_12HeaderRecordEtRKNS_9NumParserERKN7openpal6RSliceERNS_12IAPDUHandlerEEUlRSE_jE_E5CountEv,comdat
	.align 2
	.p2align 4
	.weak	_ZNK8opendnp318BufferedCollectionINS_7IndexedINS_7CounterEEEZNS_16CountIndexParser13InvokeCountOfINS_11Group22Var1EEEvRKNS_12HeaderRecordEtRKNS_9NumParserERKN7openpal6RSliceERNS_12IAPDUHandlerEEUlRSE_jE_E5CountEv
	.type	_ZNK8opendnp318BufferedCollectionINS_7IndexedINS_7CounterEEEZNS_16CountIndexParser13InvokeCountOfINS_11Group22Var1EEEvRKNS_12HeaderRecordEtRKNS_9NumParserERKN7openpal6RSliceERNS_12IAPDUHandlerEEUlRSE_jE_E5CountEv, @function
_ZNK8opendnp318BufferedCollectionINS_7IndexedINS_7CounterEEEZNS_16CountIndexParser13InvokeCountOfINS_11Group22Var1EEEvRKNS_12HeaderRecordEtRKNS_9NumParserERKN7openpal6RSliceERNS_12IAPDUHandlerEEUlRSE_jE_E5CountEv:
.LFB4021:
	.cfi_startproc
	movq	24(%rdi), %rax
	ret
	.cfi_endproc
.LFE4021:
	.size	_ZNK8opendnp318BufferedCollectionINS_7IndexedINS_7CounterEEEZNS_16CountIndexParser13InvokeCountOfINS_11Group22Var1EEEvRKNS_12HeaderRecordEtRKNS_9NumParserERKN7openpal6RSliceERNS_12IAPDUHandlerEEUlRSE_jE_E5CountEv, .-_ZNK8opendnp318BufferedCollectionINS_7IndexedINS_7CounterEEEZNS_16CountIndexParser13InvokeCountOfINS_11Group22Var1EEEvRKNS_12HeaderRecordEtRKNS_9NumParserERKN7openpal6RSliceERNS_12IAPDUHandlerEEUlRSE_jE_E5CountEv
	.section	.text._ZNK8opendnp318BufferedCollectionINS_7IndexedINS_18BinaryCommandEventEEEZNS_16CountIndexParser13InvokeCountOfINS_11Group13Var2EEEvRKNS_12HeaderRecordEtRKNS_9NumParserERKN7openpal6RSliceERNS_12IAPDUHandlerEEUlRSE_jE_E5CountEv,"axG",@progbits,_ZNK8opendnp318BufferedCollectionINS_7IndexedINS_18BinaryCommandEventEEEZNS_16CountIndexParser13InvokeCountOfINS_11Group13Var2EEEvRKNS_12HeaderRecordEtRKNS_9NumParserERKN7openpal6RSliceERNS_12IAPDUHandlerEEUlRSE_jE_E5CountEv,comdat
	.align 2
	.p2align 4
	.weak	_ZNK8opendnp318BufferedCollectionINS_7IndexedINS_18BinaryCommandEventEEEZNS_16CountIndexParser13InvokeCountOfINS_11Group13Var2EEEvRKNS_12HeaderRecordEtRKNS_9NumParserERKN7openpal6RSliceERNS_12IAPDUHandlerEEUlRSE_jE_E5CountEv
	.type	_ZNK8opendnp318BufferedCollectionINS_7IndexedINS_18BinaryCommandEventEEEZNS_16CountIndexParser13InvokeCountOfINS_11Group13Var2EEEvRKNS_12HeaderRecordEtRKNS_9NumParserERKN7openpal6RSliceERNS_12IAPDUHandlerEEUlRSE_jE_E5CountEv, @function
_ZNK8opendnp318BufferedCollectionINS_7IndexedINS_18BinaryCommandEventEEEZNS_16CountIndexParser13InvokeCountOfINS_11Group13Var2EEEvRKNS_12HeaderRecordEtRKNS_9NumParserERKN7openpal6RSliceERNS_12IAPDUHandlerEEUlRSE_jE_E5CountEv:
.LFB4023:
	.cfi_startproc
	movq	24(%rdi), %rax
	ret
	.cfi_endproc
.LFE4023:
	.size	_ZNK8opendnp318BufferedCollectionINS_7IndexedINS_18BinaryCommandEventEEEZNS_16CountIndexParser13InvokeCountOfINS_11Group13Var2EEEvRKNS_12HeaderRecordEtRKNS_9NumParserERKN7openpal6RSliceERNS_12IAPDUHandlerEEUlRSE_jE_E5CountEv, .-_ZNK8opendnp318BufferedCollectionINS_7IndexedINS_18BinaryCommandEventEEEZNS_16CountIndexParser13InvokeCountOfINS_11Group13Var2EEEvRKNS_12HeaderRecordEtRKNS_9NumParserERKN7openpal6RSliceERNS_12IAPDUHandlerEEUlRSE_jE_E5CountEv
	.section	.text._ZNK8opendnp318BufferedCollectionINS_7IndexedINS_18BinaryCommandEventEEEZNS_16CountIndexParser13InvokeCountOfINS_11Group13Var1EEEvRKNS_12HeaderRecordEtRKNS_9NumParserERKN7openpal6RSliceERNS_12IAPDUHandlerEEUlRSE_jE_E5CountEv,"axG",@progbits,_ZNK8opendnp318BufferedCollectionINS_7IndexedINS_18BinaryCommandEventEEEZNS_16CountIndexParser13InvokeCountOfINS_11Group13Var1EEEvRKNS_12HeaderRecordEtRKNS_9NumParserERKN7openpal6RSliceERNS_12IAPDUHandlerEEUlRSE_jE_E5CountEv,comdat
	.align 2
	.p2align 4
	.weak	_ZNK8opendnp318BufferedCollectionINS_7IndexedINS_18BinaryCommandEventEEEZNS_16CountIndexParser13InvokeCountOfINS_11Group13Var1EEEvRKNS_12HeaderRecordEtRKNS_9NumParserERKN7openpal6RSliceERNS_12IAPDUHandlerEEUlRSE_jE_E5CountEv
	.type	_ZNK8opendnp318BufferedCollectionINS_7IndexedINS_18BinaryCommandEventEEEZNS_16CountIndexParser13InvokeCountOfINS_11Group13Var1EEEvRKNS_12HeaderRecordEtRKNS_9NumParserERKN7openpal6RSliceERNS_12IAPDUHandlerEEUlRSE_jE_E5CountEv, @function
_ZNK8opendnp318BufferedCollectionINS_7IndexedINS_18BinaryCommandEventEEEZNS_16CountIndexParser13InvokeCountOfINS_11Group13Var1EEEvRKNS_12HeaderRecordEtRKNS_9NumParserERKN7openpal6RSliceERNS_12IAPDUHandlerEEUlRSE_jE_E5CountEv:
.LFB4025:
	.cfi_startproc
	movq	24(%rdi), %rax
	ret
	.cfi_endproc
.LFE4025:
	.size	_ZNK8opendnp318BufferedCollectionINS_7IndexedINS_18BinaryCommandEventEEEZNS_16CountIndexParser13InvokeCountOfINS_11Group13Var1EEEvRKNS_12HeaderRecordEtRKNS_9NumParserERKN7openpal6RSliceERNS_12IAPDUHandlerEEUlRSE_jE_E5CountEv, .-_ZNK8opendnp318BufferedCollectionINS_7IndexedINS_18BinaryCommandEventEEEZNS_16CountIndexParser13InvokeCountOfINS_11Group13Var1EEEvRKNS_12HeaderRecordEtRKNS_9NumParserERKN7openpal6RSliceERNS_12IAPDUHandlerEEUlRSE_jE_E5CountEv
	.section	.text._ZNK8opendnp318BufferedCollectionINS_7IndexedINS_23ControlRelayOutputBlockEEEZNS_16CountIndexParser13InvokeCountOfINS_11Group12Var1EEEvRKNS_12HeaderRecordEtRKNS_9NumParserERKN7openpal6RSliceERNS_12IAPDUHandlerEEUlRSE_jE_E5CountEv,"axG",@progbits,_ZNK8opendnp318BufferedCollectionINS_7IndexedINS_23ControlRelayOutputBlockEEEZNS_16CountIndexParser13InvokeCountOfINS_11Group12Var1EEEvRKNS_12HeaderRecordEtRKNS_9NumParserERKN7openpal6RSliceERNS_12IAPDUHandlerEEUlRSE_jE_E5CountEv,comdat
	.align 2
	.p2align 4
	.weak	_ZNK8opendnp318BufferedCollectionINS_7IndexedINS_23ControlRelayOutputBlockEEEZNS_16CountIndexParser13InvokeCountOfINS_11Group12Var1EEEvRKNS_12HeaderRecordEtRKNS_9NumParserERKN7openpal6RSliceERNS_12IAPDUHandlerEEUlRSE_jE_E5CountEv
	.type	_ZNK8opendnp318BufferedCollectionINS_7IndexedINS_23ControlRelayOutputBlockEEEZNS_16CountIndexParser13InvokeCountOfINS_11Group12Var1EEEvRKNS_12HeaderRecordEtRKNS_9NumParserERKN7openpal6RSliceERNS_12IAPDUHandlerEEUlRSE_jE_E5CountEv, @function
_ZNK8opendnp318BufferedCollectionINS_7IndexedINS_23ControlRelayOutputBlockEEEZNS_16CountIndexParser13InvokeCountOfINS_11Group12Var1EEEvRKNS_12HeaderRecordEtRKNS_9NumParserERKN7openpal6RSliceERNS_12IAPDUHandlerEEUlRSE_jE_E5CountEv:
.LFB4027:
	.cfi_startproc
	movq	24(%rdi), %rax
	ret
	.cfi_endproc
.LFE4027:
	.size	_ZNK8opendnp318BufferedCollectionINS_7IndexedINS_23ControlRelayOutputBlockEEEZNS_16CountIndexParser13InvokeCountOfINS_11Group12Var1EEEvRKNS_12HeaderRecordEtRKNS_9NumParserERKN7openpal6RSliceERNS_12IAPDUHandlerEEUlRSE_jE_E5CountEv, .-_ZNK8opendnp318BufferedCollectionINS_7IndexedINS_23ControlRelayOutputBlockEEEZNS_16CountIndexParser13InvokeCountOfINS_11Group12Var1EEEvRKNS_12HeaderRecordEtRKNS_9NumParserERKN7openpal6RSliceERNS_12IAPDUHandlerEEUlRSE_jE_E5CountEv
	.section	.text._ZNK8opendnp318BufferedCollectionINS_7IndexedINS_18BinaryOutputStatusEEEZNS_16CountIndexParser13InvokeCountOfINS_11Group11Var2EEEvRKNS_12HeaderRecordEtRKNS_9NumParserERKN7openpal6RSliceERNS_12IAPDUHandlerEEUlRSE_jE_E5CountEv,"axG",@progbits,_ZNK8opendnp318BufferedCollectionINS_7IndexedINS_18BinaryOutputStatusEEEZNS_16CountIndexParser13InvokeCountOfINS_11Group11Var2EEEvRKNS_12HeaderRecordEtRKNS_9NumParserERKN7openpal6RSliceERNS_12IAPDUHandlerEEUlRSE_jE_E5CountEv,comdat
	.align 2
	.p2align 4
	.weak	_ZNK8opendnp318BufferedCollectionINS_7IndexedINS_18BinaryOutputStatusEEEZNS_16CountIndexParser13InvokeCountOfINS_11Group11Var2EEEvRKNS_12HeaderRecordEtRKNS_9NumParserERKN7openpal6RSliceERNS_12IAPDUHandlerEEUlRSE_jE_E5CountEv
	.type	_ZNK8opendnp318BufferedCollectionINS_7IndexedINS_18BinaryOutputStatusEEEZNS_16CountIndexParser13InvokeCountOfINS_11Group11Var2EEEvRKNS_12HeaderRecordEtRKNS_9NumParserERKN7openpal6RSliceERNS_12IAPDUHandlerEEUlRSE_jE_E5CountEv, @function
_ZNK8opendnp318BufferedCollectionINS_7IndexedINS_18BinaryOutputStatusEEEZNS_16CountIndexParser13InvokeCountOfINS_11Group11Var2EEEvRKNS_12HeaderRecordEtRKNS_9NumParserERKN7openpal6RSliceERNS_12IAPDUHandlerEEUlRSE_jE_E5CountEv:
.LFB4029:
	.cfi_startproc
	movq	24(%rdi), %rax
	ret
	.cfi_endproc
.LFE4029:
	.size	_ZNK8opendnp318BufferedCollectionINS_7IndexedINS_18BinaryOutputStatusEEEZNS_16CountIndexParser13InvokeCountOfINS_11Group11Var2EEEvRKNS_12HeaderRecordEtRKNS_9NumParserERKN7openpal6RSliceERNS_12IAPDUHandlerEEUlRSE_jE_E5CountEv, .-_ZNK8opendnp318BufferedCollectionINS_7IndexedINS_18BinaryOutputStatusEEEZNS_16CountIndexParser13InvokeCountOfINS_11Group11Var2EEEvRKNS_12HeaderRecordEtRKNS_9NumParserERKN7openpal6RSliceERNS_12IAPDUHandlerEEUlRSE_jE_E5CountEv
	.section	.text._ZNK8opendnp318BufferedCollectionINS_7IndexedINS_18BinaryOutputStatusEEEZNS_16CountIndexParser13InvokeCountOfINS_11Group11Var1EEEvRKNS_12HeaderRecordEtRKNS_9NumParserERKN7openpal6RSliceERNS_12IAPDUHandlerEEUlRSE_jE_E5CountEv,"axG",@progbits,_ZNK8opendnp318BufferedCollectionINS_7IndexedINS_18BinaryOutputStatusEEEZNS_16CountIndexParser13InvokeCountOfINS_11Group11Var1EEEvRKNS_12HeaderRecordEtRKNS_9NumParserERKN7openpal6RSliceERNS_12IAPDUHandlerEEUlRSE_jE_E5CountEv,comdat
	.align 2
	.p2align 4
	.weak	_ZNK8opendnp318BufferedCollectionINS_7IndexedINS_18BinaryOutputStatusEEEZNS_16CountIndexParser13InvokeCountOfINS_11Group11Var1EEEvRKNS_12HeaderRecordEtRKNS_9NumParserERKN7openpal6RSliceERNS_12IAPDUHandlerEEUlRSE_jE_E5CountEv
	.type	_ZNK8opendnp318BufferedCollectionINS_7IndexedINS_18BinaryOutputStatusEEEZNS_16CountIndexParser13InvokeCountOfINS_11Group11Var1EEEvRKNS_12HeaderRecordEtRKNS_9NumParserERKN7openpal6RSliceERNS_12IAPDUHandlerEEUlRSE_jE_E5CountEv, @function
_ZNK8opendnp318BufferedCollectionINS_7IndexedINS_18BinaryOutputStatusEEEZNS_16CountIndexParser13InvokeCountOfINS_11Group11Var1EEEvRKNS_12HeaderRecordEtRKNS_9NumParserERKN7openpal6RSliceERNS_12IAPDUHandlerEEUlRSE_jE_E5CountEv:
.LFB4031:
	.cfi_startproc
	movq	24(%rdi), %rax
	ret
	.cfi_endproc
.LFE4031:
	.size	_ZNK8opendnp318BufferedCollectionINS_7IndexedINS_18BinaryOutputStatusEEEZNS_16CountIndexParser13InvokeCountOfINS_11Group11Var1EEEvRKNS_12HeaderRecordEtRKNS_9NumParserERKN7openpal6RSliceERNS_12IAPDUHandlerEEUlRSE_jE_E5CountEv, .-_ZNK8opendnp318BufferedCollectionINS_7IndexedINS_18BinaryOutputStatusEEEZNS_16CountIndexParser13InvokeCountOfINS_11Group11Var1EEEvRKNS_12HeaderRecordEtRKNS_9NumParserERKN7openpal6RSliceERNS_12IAPDUHandlerEEUlRSE_jE_E5CountEv
	.section	.text._ZNK8opendnp318BufferedCollectionINS_7IndexedINS_15DoubleBitBinaryEEEZNS_16CountIndexParser13InvokeCountOfINS_10Group4Var3EEEvRKNS_12HeaderRecordEtRKNS_9NumParserERKN7openpal6RSliceERNS_12IAPDUHandlerEEUlRSE_jE_E5CountEv,"axG",@progbits,_ZNK8opendnp318BufferedCollectionINS_7IndexedINS_15DoubleBitBinaryEEEZNS_16CountIndexParser13InvokeCountOfINS_10Group4Var3EEEvRKNS_12HeaderRecordEtRKNS_9NumParserERKN7openpal6RSliceERNS_12IAPDUHandlerEEUlRSE_jE_E5CountEv,comdat
	.align 2
	.p2align 4
	.weak	_ZNK8opendnp318BufferedCollectionINS_7IndexedINS_15DoubleBitBinaryEEEZNS_16CountIndexParser13InvokeCountOfINS_10Group4Var3EEEvRKNS_12HeaderRecordEtRKNS_9NumParserERKN7openpal6RSliceERNS_12IAPDUHandlerEEUlRSE_jE_E5CountEv
	.type	_ZNK8opendnp318BufferedCollectionINS_7IndexedINS_15DoubleBitBinaryEEEZNS_16CountIndexParser13InvokeCountOfINS_10Group4Var3EEEvRKNS_12HeaderRecordEtRKNS_9NumParserERKN7openpal6RSliceERNS_12IAPDUHandlerEEUlRSE_jE_E5CountEv, @function
_ZNK8opendnp318BufferedCollectionINS_7IndexedINS_15DoubleBitBinaryEEEZNS_16CountIndexParser13InvokeCountOfINS_10Group4Var3EEEvRKNS_12HeaderRecordEtRKNS_9NumParserERKN7openpal6RSliceERNS_12IAPDUHandlerEEUlRSE_jE_E5CountEv:
.LFB4033:
	.cfi_startproc
	movq	24(%rdi), %rax
	ret
	.cfi_endproc
.LFE4033:
	.size	_ZNK8opendnp318BufferedCollectionINS_7IndexedINS_15DoubleBitBinaryEEEZNS_16CountIndexParser13InvokeCountOfINS_10Group4Var3EEEvRKNS_12HeaderRecordEtRKNS_9NumParserERKN7openpal6RSliceERNS_12IAPDUHandlerEEUlRSE_jE_E5CountEv, .-_ZNK8opendnp318BufferedCollectionINS_7IndexedINS_15DoubleBitBinaryEEEZNS_16CountIndexParser13InvokeCountOfINS_10Group4Var3EEEvRKNS_12HeaderRecordEtRKNS_9NumParserERKN7openpal6RSliceERNS_12IAPDUHandlerEEUlRSE_jE_E5CountEv
	.section	.text._ZNK8opendnp318BufferedCollectionINS_7IndexedINS_15DoubleBitBinaryEEEZNS_16CountIndexParser13InvokeCountOfINS_10Group4Var2EEEvRKNS_12HeaderRecordEtRKNS_9NumParserERKN7openpal6RSliceERNS_12IAPDUHandlerEEUlRSE_jE_E5CountEv,"axG",@progbits,_ZNK8opendnp318BufferedCollectionINS_7IndexedINS_15DoubleBitBinaryEEEZNS_16CountIndexParser13InvokeCountOfINS_10Group4Var2EEEvRKNS_12HeaderRecordEtRKNS_9NumParserERKN7openpal6RSliceERNS_12IAPDUHandlerEEUlRSE_jE_E5CountEv,comdat
	.align 2
	.p2align 4
	.weak	_ZNK8opendnp318BufferedCollectionINS_7IndexedINS_15DoubleBitBinaryEEEZNS_16CountIndexParser13InvokeCountOfINS_10Group4Var2EEEvRKNS_12HeaderRecordEtRKNS_9NumParserERKN7openpal6RSliceERNS_12IAPDUHandlerEEUlRSE_jE_E5CountEv
	.type	_ZNK8opendnp318BufferedCollectionINS_7IndexedINS_15DoubleBitBinaryEEEZNS_16CountIndexParser13InvokeCountOfINS_10Group4Var2EEEvRKNS_12HeaderRecordEtRKNS_9NumParserERKN7openpal6RSliceERNS_12IAPDUHandlerEEUlRSE_jE_E5CountEv, @function
_ZNK8opendnp318BufferedCollectionINS_7IndexedINS_15DoubleBitBinaryEEEZNS_16CountIndexParser13InvokeCountOfINS_10Group4Var2EEEvRKNS_12HeaderRecordEtRKNS_9NumParserERKN7openpal6RSliceERNS_12IAPDUHandlerEEUlRSE_jE_E5CountEv:
.LFB4035:
	.cfi_startproc
	movq	24(%rdi), %rax
	ret
	.cfi_endproc
.LFE4035:
	.size	_ZNK8opendnp318BufferedCollectionINS_7IndexedINS_15DoubleBitBinaryEEEZNS_16CountIndexParser13InvokeCountOfINS_10Group4Var2EEEvRKNS_12HeaderRecordEtRKNS_9NumParserERKN7openpal6RSliceERNS_12IAPDUHandlerEEUlRSE_jE_E5CountEv, .-_ZNK8opendnp318BufferedCollectionINS_7IndexedINS_15DoubleBitBinaryEEEZNS_16CountIndexParser13InvokeCountOfINS_10Group4Var2EEEvRKNS_12HeaderRecordEtRKNS_9NumParserERKN7openpal6RSliceERNS_12IAPDUHandlerEEUlRSE_jE_E5CountEv
	.section	.text._ZNK8opendnp318BufferedCollectionINS_7IndexedINS_15DoubleBitBinaryEEEZNS_16CountIndexParser13InvokeCountOfINS_10Group4Var1EEEvRKNS_12HeaderRecordEtRKNS_9NumParserERKN7openpal6RSliceERNS_12IAPDUHandlerEEUlRSE_jE_E5CountEv,"axG",@progbits,_ZNK8opendnp318BufferedCollectionINS_7IndexedINS_15DoubleBitBinaryEEEZNS_16CountIndexParser13InvokeCountOfINS_10Group4Var1EEEvRKNS_12HeaderRecordEtRKNS_9NumParserERKN7openpal6RSliceERNS_12IAPDUHandlerEEUlRSE_jE_E5CountEv,comdat
	.align 2
	.p2align 4
	.weak	_ZNK8opendnp318BufferedCollectionINS_7IndexedINS_15DoubleBitBinaryEEEZNS_16CountIndexParser13InvokeCountOfINS_10Group4Var1EEEvRKNS_12HeaderRecordEtRKNS_9NumParserERKN7openpal6RSliceERNS_12IAPDUHandlerEEUlRSE_jE_E5CountEv
	.type	_ZNK8opendnp318BufferedCollectionINS_7IndexedINS_15DoubleBitBinaryEEEZNS_16CountIndexParser13InvokeCountOfINS_10Group4Var1EEEvRKNS_12HeaderRecordEtRKNS_9NumParserERKN7openpal6RSliceERNS_12IAPDUHandlerEEUlRSE_jE_E5CountEv, @function
_ZNK8opendnp318BufferedCollectionINS_7IndexedINS_15DoubleBitBinaryEEEZNS_16CountIndexParser13InvokeCountOfINS_10Group4Var1EEEvRKNS_12HeaderRecordEtRKNS_9NumParserERKN7openpal6RSliceERNS_12IAPDUHandlerEEUlRSE_jE_E5CountEv:
.LFB4037:
	.cfi_startproc
	movq	24(%rdi), %rax
	ret
	.cfi_endproc
.LFE4037:
	.size	_ZNK8opendnp318BufferedCollectionINS_7IndexedINS_15DoubleBitBinaryEEEZNS_16CountIndexParser13InvokeCountOfINS_10Group4Var1EEEvRKNS_12HeaderRecordEtRKNS_9NumParserERKN7openpal6RSliceERNS_12IAPDUHandlerEEUlRSE_jE_E5CountEv, .-_ZNK8opendnp318BufferedCollectionINS_7IndexedINS_15DoubleBitBinaryEEEZNS_16CountIndexParser13InvokeCountOfINS_10Group4Var1EEEvRKNS_12HeaderRecordEtRKNS_9NumParserERKN7openpal6RSliceERNS_12IAPDUHandlerEEUlRSE_jE_E5CountEv
	.section	.text._ZNK8opendnp318BufferedCollectionINS_7IndexedINS_6BinaryEEEZNS_16CountIndexParser13InvokeCountOfINS_10Group2Var3EEEvRKNS_12HeaderRecordEtRKNS_9NumParserERKN7openpal6RSliceERNS_12IAPDUHandlerEEUlRSE_jE_E5CountEv,"axG",@progbits,_ZNK8opendnp318BufferedCollectionINS_7IndexedINS_6BinaryEEEZNS_16CountIndexParser13InvokeCountOfINS_10Group2Var3EEEvRKNS_12HeaderRecordEtRKNS_9NumParserERKN7openpal6RSliceERNS_12IAPDUHandlerEEUlRSE_jE_E5CountEv,comdat
	.align 2
	.p2align 4
	.weak	_ZNK8opendnp318BufferedCollectionINS_7IndexedINS_6BinaryEEEZNS_16CountIndexParser13InvokeCountOfINS_10Group2Var3EEEvRKNS_12HeaderRecordEtRKNS_9NumParserERKN7openpal6RSliceERNS_12IAPDUHandlerEEUlRSE_jE_E5CountEv
	.type	_ZNK8opendnp318BufferedCollectionINS_7IndexedINS_6BinaryEEEZNS_16CountIndexParser13InvokeCountOfINS_10Group2Var3EEEvRKNS_12HeaderRecordEtRKNS_9NumParserERKN7openpal6RSliceERNS_12IAPDUHandlerEEUlRSE_jE_E5CountEv, @function
_ZNK8opendnp318BufferedCollectionINS_7IndexedINS_6BinaryEEEZNS_16CountIndexParser13InvokeCountOfINS_10Group2Var3EEEvRKNS_12HeaderRecordEtRKNS_9NumParserERKN7openpal6RSliceERNS_12IAPDUHandlerEEUlRSE_jE_E5CountEv:
.LFB4039:
	.cfi_startproc
	movq	24(%rdi), %rax
	ret
	.cfi_endproc
.LFE4039:
	.size	_ZNK8opendnp318BufferedCollectionINS_7IndexedINS_6BinaryEEEZNS_16CountIndexParser13InvokeCountOfINS_10Group2Var3EEEvRKNS_12HeaderRecordEtRKNS_9NumParserERKN7openpal6RSliceERNS_12IAPDUHandlerEEUlRSE_jE_E5CountEv, .-_ZNK8opendnp318BufferedCollectionINS_7IndexedINS_6BinaryEEEZNS_16CountIndexParser13InvokeCountOfINS_10Group2Var3EEEvRKNS_12HeaderRecordEtRKNS_9NumParserERKN7openpal6RSliceERNS_12IAPDUHandlerEEUlRSE_jE_E5CountEv
	.section	.text._ZNK8opendnp318BufferedCollectionINS_7IndexedINS_6BinaryEEEZNS_16CountIndexParser13InvokeCountOfINS_10Group2Var2EEEvRKNS_12HeaderRecordEtRKNS_9NumParserERKN7openpal6RSliceERNS_12IAPDUHandlerEEUlRSE_jE_E5CountEv,"axG",@progbits,_ZNK8opendnp318BufferedCollectionINS_7IndexedINS_6BinaryEEEZNS_16CountIndexParser13InvokeCountOfINS_10Group2Var2EEEvRKNS_12HeaderRecordEtRKNS_9NumParserERKN7openpal6RSliceERNS_12IAPDUHandlerEEUlRSE_jE_E5CountEv,comdat
	.align 2
	.p2align 4
	.weak	_ZNK8opendnp318BufferedCollectionINS_7IndexedINS_6BinaryEEEZNS_16CountIndexParser13InvokeCountOfINS_10Group2Var2EEEvRKNS_12HeaderRecordEtRKNS_9NumParserERKN7openpal6RSliceERNS_12IAPDUHandlerEEUlRSE_jE_E5CountEv
	.type	_ZNK8opendnp318BufferedCollectionINS_7IndexedINS_6BinaryEEEZNS_16CountIndexParser13InvokeCountOfINS_10Group2Var2EEEvRKNS_12HeaderRecordEtRKNS_9NumParserERKN7openpal6RSliceERNS_12IAPDUHandlerEEUlRSE_jE_E5CountEv, @function
_ZNK8opendnp318BufferedCollectionINS_7IndexedINS_6BinaryEEEZNS_16CountIndexParser13InvokeCountOfINS_10Group2Var2EEEvRKNS_12HeaderRecordEtRKNS_9NumParserERKN7openpal6RSliceERNS_12IAPDUHandlerEEUlRSE_jE_E5CountEv:
.LFB4041:
	.cfi_startproc
	movq	24(%rdi), %rax
	ret
	.cfi_endproc
.LFE4041:
	.size	_ZNK8opendnp318BufferedCollectionINS_7IndexedINS_6BinaryEEEZNS_16CountIndexParser13InvokeCountOfINS_10Group2Var2EEEvRKNS_12HeaderRecordEtRKNS_9NumParserERKN7openpal6RSliceERNS_12IAPDUHandlerEEUlRSE_jE_E5CountEv, .-_ZNK8opendnp318BufferedCollectionINS_7IndexedINS_6BinaryEEEZNS_16CountIndexParser13InvokeCountOfINS_10Group2Var2EEEvRKNS_12HeaderRecordEtRKNS_9NumParserERKN7openpal6RSliceERNS_12IAPDUHandlerEEUlRSE_jE_E5CountEv
	.section	.text._ZNK8opendnp318BufferedCollectionINS_7IndexedINS_6BinaryEEEZNS_16CountIndexParser13InvokeCountOfINS_10Group2Var1EEEvRKNS_12HeaderRecordEtRKNS_9NumParserERKN7openpal6RSliceERNS_12IAPDUHandlerEEUlRSE_jE_E5CountEv,"axG",@progbits,_ZNK8opendnp318BufferedCollectionINS_7IndexedINS_6BinaryEEEZNS_16CountIndexParser13InvokeCountOfINS_10Group2Var1EEEvRKNS_12HeaderRecordEtRKNS_9NumParserERKN7openpal6RSliceERNS_12IAPDUHandlerEEUlRSE_jE_E5CountEv,comdat
	.align 2
	.p2align 4
	.weak	_ZNK8opendnp318BufferedCollectionINS_7IndexedINS_6BinaryEEEZNS_16CountIndexParser13InvokeCountOfINS_10Group2Var1EEEvRKNS_12HeaderRecordEtRKNS_9NumParserERKN7openpal6RSliceERNS_12IAPDUHandlerEEUlRSE_jE_E5CountEv
	.type	_ZNK8opendnp318BufferedCollectionINS_7IndexedINS_6BinaryEEEZNS_16CountIndexParser13InvokeCountOfINS_10Group2Var1EEEvRKNS_12HeaderRecordEtRKNS_9NumParserERKN7openpal6RSliceERNS_12IAPDUHandlerEEUlRSE_jE_E5CountEv, @function
_ZNK8opendnp318BufferedCollectionINS_7IndexedINS_6BinaryEEEZNS_16CountIndexParser13InvokeCountOfINS_10Group2Var1EEEvRKNS_12HeaderRecordEtRKNS_9NumParserERKN7openpal6RSliceERNS_12IAPDUHandlerEEUlRSE_jE_E5CountEv:
.LFB4043:
	.cfi_startproc
	movq	24(%rdi), %rax
	ret
	.cfi_endproc
.LFE4043:
	.size	_ZNK8opendnp318BufferedCollectionINS_7IndexedINS_6BinaryEEEZNS_16CountIndexParser13InvokeCountOfINS_10Group2Var1EEEvRKNS_12HeaderRecordEtRKNS_9NumParserERKN7openpal6RSliceERNS_12IAPDUHandlerEEUlRSE_jE_E5CountEv, .-_ZNK8opendnp318BufferedCollectionINS_7IndexedINS_6BinaryEEEZNS_16CountIndexParser13InvokeCountOfINS_10Group2Var1EEEvRKNS_12HeaderRecordEtRKNS_9NumParserERKN7openpal6RSliceERNS_12IAPDUHandlerEEUlRSE_jE_E5CountEv
	.text
	.align 2
	.p2align 4
	.type	_ZNK8opendnp318BufferedCollectionINS_7IndexedINS_11OctetStringEEEZNS_16CountIndexParser27ParseIndexPrefixedOctetDataERN7openpal6RSliceERKNS_12HeaderRecordERKNS_9NumParserEjPNS5_6LoggerEPNS_12IAPDUHandlerEEUlS7_jE_E5CountEv, @function
_ZNK8opendnp318BufferedCollectionINS_7IndexedINS_11OctetStringEEEZNS_16CountIndexParser27ParseIndexPrefixedOctetDataERN7openpal6RSliceERKNS_12HeaderRecordERKNS_9NumParserEjPNS5_6LoggerEPNS_12IAPDUHandlerEEUlS7_jE_E5CountEv:
.LFB4045:
	.cfi_startproc
	movq	24(%rdi), %rax
	ret
	.cfi_endproc
.LFE4045:
	.size	_ZNK8opendnp318BufferedCollectionINS_7IndexedINS_11OctetStringEEEZNS_16CountIndexParser27ParseIndexPrefixedOctetDataERN7openpal6RSliceERKNS_12HeaderRecordERKNS_9NumParserEjPNS5_6LoggerEPNS_12IAPDUHandlerEEUlS7_jE_E5CountEv, .-_ZNK8opendnp318BufferedCollectionINS_7IndexedINS_11OctetStringEEEZNS_16CountIndexParser27ParseIndexPrefixedOctetDataERN7openpal6RSliceERKNS_12HeaderRecordERKNS_9NumParserEjPNS5_6LoggerEPNS_12IAPDUHandlerEEUlS7_jE_E5CountEv
	.section	.text._ZN8opendnp316CountIndexParser13InvokeCountOfINS_10Group2Var1EEEvRKNS_12HeaderRecordEtRKNS_9NumParserERKN7openpal6RSliceERNS_12IAPDUHandlerE,"axG",@progbits,_ZN8opendnp316CountIndexParser13InvokeCountOfINS_10Group2Var1EEEvRKNS_12HeaderRecordEtRKNS_9NumParserERKN7openpal6RSliceERNS_12IAPDUHandlerE,comdat
	.align 2
	.p2align 4
	.weak	_ZN8opendnp316CountIndexParser13InvokeCountOfINS_10Group2Var1EEEvRKNS_12HeaderRecordEtRKNS_9NumParserERKN7openpal6RSliceERNS_12IAPDUHandlerE
	.type	_ZN8opendnp316CountIndexParser13InvokeCountOfINS_10Group2Var1EEEvRKNS_12HeaderRecordEtRKNS_9NumParserERKN7openpal6RSliceERNS_12IAPDUHandlerE, @function
_ZN8opendnp316CountIndexParser13InvokeCountOfINS_10Group2Var1EEEvRKNS_12HeaderRecordEtRKNS_9NumParserERKN7openpal6RSliceERNS_12IAPDUHandlerE:
.LFB3110:
	.cfi_startproc
	subq	$88, %rsp
	.cfi_def_cfa_offset 96
	movdqu	(%rcx), %xmm0
	movq	_ZTVN8opendnp318BufferedCollectionINS_7IndexedINS_6BinaryEEEZNS_16CountIndexParser13InvokeCountOfINS_10Group2Var1EEEvRKNS_12HeaderRecordEtRKNS_9NumParserERKN7openpal6RSliceERNS_12IAPDUHandlerEEUlRSE_jE_EE@GOTPCREL(%rip), %rax
	movq	%rdx, 64(%rsp)
	leaq	32(%rsp), %rdx
	movups	%xmm0, 40(%rsp)
	addq	$16, %rax
	movdqu	(%rdi), %xmm0
	movq	%r8, %rdi
	movq	%rax, 32(%rsp)
	movzwl	%si, %eax
	movw	%si, 16(%rsp)
	movq	%rsp, %rsi
	movq	%rax, 56(%rsp)
	movaps	%xmm0, (%rsp)
	call	_ZN8opendnp312IAPDUHandler8OnHeaderERKNS_12PrefixHeaderERKNS_11ICollectionINS_7IndexedINS_6BinaryEEEEE@PLT
	addq	$88, %rsp
	.cfi_def_cfa_offset 8
	ret
	.cfi_endproc
.LFE3110:
	.size	_ZN8opendnp316CountIndexParser13InvokeCountOfINS_10Group2Var1EEEvRKNS_12HeaderRecordEtRKNS_9NumParserERKN7openpal6RSliceERNS_12IAPDUHandlerE, .-_ZN8opendnp316CountIndexParser13InvokeCountOfINS_10Group2Var1EEEvRKNS_12HeaderRecordEtRKNS_9NumParserERKN7openpal6RSliceERNS_12IAPDUHandlerE
	.section	.text._ZN8opendnp316CountIndexParser13InvokeCountOfINS_10Group2Var2EEEvRKNS_12HeaderRecordEtRKNS_9NumParserERKN7openpal6RSliceERNS_12IAPDUHandlerE,"axG",@progbits,_ZN8opendnp316CountIndexParser13InvokeCountOfINS_10Group2Var2EEEvRKNS_12HeaderRecordEtRKNS_9NumParserERKN7openpal6RSliceERNS_12IAPDUHandlerE,comdat
	.align 2
	.p2align 4
	.weak	_ZN8opendnp316CountIndexParser13InvokeCountOfINS_10Group2Var2EEEvRKNS_12HeaderRecordEtRKNS_9NumParserERKN7openpal6RSliceERNS_12IAPDUHandlerE
	.type	_ZN8opendnp316CountIndexParser13InvokeCountOfINS_10Group2Var2EEEvRKNS_12HeaderRecordEtRKNS_9NumParserERKN7openpal6RSliceERNS_12IAPDUHandlerE, @function
_ZN8opendnp316CountIndexParser13InvokeCountOfINS_10Group2Var2EEEvRKNS_12HeaderRecordEtRKNS_9NumParserERKN7openpal6RSliceERNS_12IAPDUHandlerE:
.LFB3118:
	.cfi_startproc
	subq	$88, %rsp
	.cfi_def_cfa_offset 96
	movdqu	(%rcx), %xmm0
	movq	_ZTVN8opendnp318BufferedCollectionINS_7IndexedINS_6BinaryEEEZNS_16CountIndexParser13InvokeCountOfINS_10Group2Var2EEEvRKNS_12HeaderRecordEtRKNS_9NumParserERKN7openpal6RSliceERNS_12IAPDUHandlerEEUlRSE_jE_EE@GOTPCREL(%rip), %rax
	movq	%rdx, 64(%rsp)
	leaq	32(%rsp), %rdx
	movups	%xmm0, 40(%rsp)
	addq	$16, %rax
	movdqu	(%rdi), %xmm0
	movq	%r8, %rdi
	movq	%rax, 32(%rsp)
	movzwl	%si, %eax
	movw	%si, 16(%rsp)
	movq	%rsp, %rsi
	movq	%rax, 56(%rsp)
	movaps	%xmm0, (%rsp)
	call	_ZN8opendnp312IAPDUHandler8OnHeaderERKNS_12PrefixHeaderERKNS_11ICollectionINS_7IndexedINS_6BinaryEEEEE@PLT
	addq	$88, %rsp
	.cfi_def_cfa_offset 8
	ret
	.cfi_endproc
.LFE3118:
	.size	_ZN8opendnp316CountIndexParser13InvokeCountOfINS_10Group2Var2EEEvRKNS_12HeaderRecordEtRKNS_9NumParserERKN7openpal6RSliceERNS_12IAPDUHandlerE, .-_ZN8opendnp316CountIndexParser13InvokeCountOfINS_10Group2Var2EEEvRKNS_12HeaderRecordEtRKNS_9NumParserERKN7openpal6RSliceERNS_12IAPDUHandlerE
	.section	.text._ZN8opendnp316CountIndexParser13InvokeCountOfINS_10Group2Var3EEEvRKNS_12HeaderRecordEtRKNS_9NumParserERKN7openpal6RSliceERNS_12IAPDUHandlerE,"axG",@progbits,_ZN8opendnp316CountIndexParser13InvokeCountOfINS_10Group2Var3EEEvRKNS_12HeaderRecordEtRKNS_9NumParserERKN7openpal6RSliceERNS_12IAPDUHandlerE,comdat
	.align 2
	.p2align 4
	.weak	_ZN8opendnp316CountIndexParser13InvokeCountOfINS_10Group2Var3EEEvRKNS_12HeaderRecordEtRKNS_9NumParserERKN7openpal6RSliceERNS_12IAPDUHandlerE
	.type	_ZN8opendnp316CountIndexParser13InvokeCountOfINS_10Group2Var3EEEvRKNS_12HeaderRecordEtRKNS_9NumParserERKN7openpal6RSliceERNS_12IAPDUHandlerE, @function
_ZN8opendnp316CountIndexParser13InvokeCountOfINS_10Group2Var3EEEvRKNS_12HeaderRecordEtRKNS_9NumParserERKN7openpal6RSliceERNS_12IAPDUHandlerE:
.LFB3123:
	.cfi_startproc
	subq	$88, %rsp
	.cfi_def_cfa_offset 96
	movdqu	(%rcx), %xmm0
	movq	_ZTVN8opendnp318BufferedCollectionINS_7IndexedINS_6BinaryEEEZNS_16CountIndexParser13InvokeCountOfINS_10Group2Var3EEEvRKNS_12HeaderRecordEtRKNS_9NumParserERKN7openpal6RSliceERNS_12IAPDUHandlerEEUlRSE_jE_EE@GOTPCREL(%rip), %rax
	movq	%rdx, 64(%rsp)
	leaq	32(%rsp), %rdx
	movups	%xmm0, 40(%rsp)
	addq	$16, %rax
	movdqu	(%rdi), %xmm0
	movq	%r8, %rdi
	movq	%rax, 32(%rsp)
	movzwl	%si, %eax
	movw	%si, 16(%rsp)
	movq	%rsp, %rsi
	movq	%rax, 56(%rsp)
	movaps	%xmm0, (%rsp)
	call	_ZN8opendnp312IAPDUHandler8OnHeaderERKNS_12PrefixHeaderERKNS_11ICollectionINS_7IndexedINS_6BinaryEEEEE@PLT
	addq	$88, %rsp
	.cfi_def_cfa_offset 8
	ret
	.cfi_endproc
.LFE3123:
	.size	_ZN8opendnp316CountIndexParser13InvokeCountOfINS_10Group2Var3EEEvRKNS_12HeaderRecordEtRKNS_9NumParserERKN7openpal6RSliceERNS_12IAPDUHandlerE, .-_ZN8opendnp316CountIndexParser13InvokeCountOfINS_10Group2Var3EEEvRKNS_12HeaderRecordEtRKNS_9NumParserERKN7openpal6RSliceERNS_12IAPDUHandlerE
	.section	.text._ZN8opendnp316CountIndexParser13InvokeCountOfINS_10Group4Var1EEEvRKNS_12HeaderRecordEtRKNS_9NumParserERKN7openpal6RSliceERNS_12IAPDUHandlerE,"axG",@progbits,_ZN8opendnp316CountIndexParser13InvokeCountOfINS_10Group4Var1EEEvRKNS_12HeaderRecordEtRKNS_9NumParserERKN7openpal6RSliceERNS_12IAPDUHandlerE,comdat
	.align 2
	.p2align 4
	.weak	_ZN8opendnp316CountIndexParser13InvokeCountOfINS_10Group4Var1EEEvRKNS_12HeaderRecordEtRKNS_9NumParserERKN7openpal6RSliceERNS_12IAPDUHandlerE
	.type	_ZN8opendnp316CountIndexParser13InvokeCountOfINS_10Group4Var1EEEvRKNS_12HeaderRecordEtRKNS_9NumParserERKN7openpal6RSliceERNS_12IAPDUHandlerE, @function
_ZN8opendnp316CountIndexParser13InvokeCountOfINS_10Group4Var1EEEvRKNS_12HeaderRecordEtRKNS_9NumParserERKN7openpal6RSliceERNS_12IAPDUHandlerE:
.LFB3128:
	.cfi_startproc
	subq	$88, %rsp
	.cfi_def_cfa_offset 96
	movdqu	(%rcx), %xmm0
	movq	_ZTVN8opendnp318BufferedCollectionINS_7IndexedINS_15DoubleBitBinaryEEEZNS_16CountIndexParser13InvokeCountOfINS_10Group4Var1EEEvRKNS_12HeaderRecordEtRKNS_9NumParserERKN7openpal6RSliceERNS_12IAPDUHandlerEEUlRSE_jE_EE@GOTPCREL(%rip), %rax
	movq	%rdx, 64(%rsp)
	leaq	32(%rsp), %rdx
	movups	%xmm0, 40(%rsp)
	addq	$16, %rax
	movdqu	(%rdi), %xmm0
	movq	%r8, %rdi
	movq	%rax, 32(%rsp)
	movzwl	%si, %eax
	movw	%si, 16(%rsp)
	movq	%rsp, %rsi
	movq	%rax, 56(%rsp)
	movaps	%xmm0, (%rsp)
	call	_ZN8opendnp312IAPDUHandler8OnHeaderERKNS_12PrefixHeaderERKNS_11ICollectionINS_7IndexedINS_15DoubleBitBinaryEEEEE@PLT
	addq	$88, %rsp
	.cfi_def_cfa_offset 8
	ret
	.cfi_endproc
.LFE3128:
	.size	_ZN8opendnp316CountIndexParser13InvokeCountOfINS_10Group4Var1EEEvRKNS_12HeaderRecordEtRKNS_9NumParserERKN7openpal6RSliceERNS_12IAPDUHandlerE, .-_ZN8opendnp316CountIndexParser13InvokeCountOfINS_10Group4Var1EEEvRKNS_12HeaderRecordEtRKNS_9NumParserERKN7openpal6RSliceERNS_12IAPDUHandlerE
	.section	.text._ZN8opendnp316CountIndexParser13InvokeCountOfINS_10Group4Var2EEEvRKNS_12HeaderRecordEtRKNS_9NumParserERKN7openpal6RSliceERNS_12IAPDUHandlerE,"axG",@progbits,_ZN8opendnp316CountIndexParser13InvokeCountOfINS_10Group4Var2EEEvRKNS_12HeaderRecordEtRKNS_9NumParserERKN7openpal6RSliceERNS_12IAPDUHandlerE,comdat
	.align 2
	.p2align 4
	.weak	_ZN8opendnp316CountIndexParser13InvokeCountOfINS_10Group4Var2EEEvRKNS_12HeaderRecordEtRKNS_9NumParserERKN7openpal6RSliceERNS_12IAPDUHandlerE
	.type	_ZN8opendnp316CountIndexParser13InvokeCountOfINS_10Group4Var2EEEvRKNS_12HeaderRecordEtRKNS_9NumParserERKN7openpal6RSliceERNS_12IAPDUHandlerE, @function
_ZN8opendnp316CountIndexParser13InvokeCountOfINS_10Group4Var2EEEvRKNS_12HeaderRecordEtRKNS_9NumParserERKN7openpal6RSliceERNS_12IAPDUHandlerE:
.LFB3136:
	.cfi_startproc
	subq	$88, %rsp
	.cfi_def_cfa_offset 96
	movdqu	(%rcx), %xmm0
	movq	_ZTVN8opendnp318BufferedCollectionINS_7IndexedINS_15DoubleBitBinaryEEEZNS_16CountIndexParser13InvokeCountOfINS_10Group4Var2EEEvRKNS_12HeaderRecordEtRKNS_9NumParserERKN7openpal6RSliceERNS_12IAPDUHandlerEEUlRSE_jE_EE@GOTPCREL(%rip), %rax
	movq	%rdx, 64(%rsp)
	leaq	32(%rsp), %rdx
	movups	%xmm0, 40(%rsp)
	addq	$16, %rax
	movdqu	(%rdi), %xmm0
	movq	%r8, %rdi
	movq	%rax, 32(%rsp)
	movzwl	%si, %eax
	movw	%si, 16(%rsp)
	movq	%rsp, %rsi
	movq	%rax, 56(%rsp)
	movaps	%xmm0, (%rsp)
	call	_ZN8opendnp312IAPDUHandler8OnHeaderERKNS_12PrefixHeaderERKNS_11ICollectionINS_7IndexedINS_15DoubleBitBinaryEEEEE@PLT
	addq	$88, %rsp
	.cfi_def_cfa_offset 8
	ret
	.cfi_endproc
.LFE3136:
	.size	_ZN8opendnp316CountIndexParser13InvokeCountOfINS_10Group4Var2EEEvRKNS_12HeaderRecordEtRKNS_9NumParserERKN7openpal6RSliceERNS_12IAPDUHandlerE, .-_ZN8opendnp316CountIndexParser13InvokeCountOfINS_10Group4Var2EEEvRKNS_12HeaderRecordEtRKNS_9NumParserERKN7openpal6RSliceERNS_12IAPDUHandlerE
	.section	.text._ZN8opendnp316CountIndexParser13InvokeCountOfINS_10Group4Var3EEEvRKNS_12HeaderRecordEtRKNS_9NumParserERKN7openpal6RSliceERNS_12IAPDUHandlerE,"axG",@progbits,_ZN8opendnp316CountIndexParser13InvokeCountOfINS_10Group4Var3EEEvRKNS_12HeaderRecordEtRKNS_9NumParserERKN7openpal6RSliceERNS_12IAPDUHandlerE,comdat
	.align 2
	.p2align 4
	.weak	_ZN8opendnp316CountIndexParser13InvokeCountOfINS_10Group4Var3EEEvRKNS_12HeaderRecordEtRKNS_9NumParserERKN7openpal6RSliceERNS_12IAPDUHandlerE
	.type	_ZN8opendnp316CountIndexParser13InvokeCountOfINS_10Group4Var3EEEvRKNS_12HeaderRecordEtRKNS_9NumParserERKN7openpal6RSliceERNS_12IAPDUHandlerE, @function
_ZN8opendnp316CountIndexParser13InvokeCountOfINS_10Group4Var3EEEvRKNS_12HeaderRecordEtRKNS_9NumParserERKN7openpal6RSliceERNS_12IAPDUHandlerE:
.LFB3141:
	.cfi_startproc
	subq	$88, %rsp
	.cfi_def_cfa_offset 96
	movdqu	(%rcx), %xmm0
	movq	_ZTVN8opendnp318BufferedCollectionINS_7IndexedINS_15DoubleBitBinaryEEEZNS_16CountIndexParser13InvokeCountOfINS_10Group4Var3EEEvRKNS_12HeaderRecordEtRKNS_9NumParserERKN7openpal6RSliceERNS_12IAPDUHandlerEEUlRSE_jE_EE@GOTPCREL(%rip), %rax
	movq	%rdx, 64(%rsp)
	leaq	32(%rsp), %rdx
	movups	%xmm0, 40(%rsp)
	addq	$16, %rax
	movdqu	(%rdi), %xmm0
	movq	%r8, %rdi
	movq	%rax, 32(%rsp)
	movzwl	%si, %eax
	movw	%si, 16(%rsp)
	movq	%rsp, %rsi
	movq	%rax, 56(%rsp)
	movaps	%xmm0, (%rsp)
	call	_ZN8opendnp312IAPDUHandler8OnHeaderERKNS_12PrefixHeaderERKNS_11ICollectionINS_7IndexedINS_15DoubleBitBinaryEEEEE@PLT
	addq	$88, %rsp
	.cfi_def_cfa_offset 8
	ret
	.cfi_endproc
.LFE3141:
	.size	_ZN8opendnp316CountIndexParser13InvokeCountOfINS_10Group4Var3EEEvRKNS_12HeaderRecordEtRKNS_9NumParserERKN7openpal6RSliceERNS_12IAPDUHandlerE, .-_ZN8opendnp316CountIndexParser13InvokeCountOfINS_10Group4Var3EEEvRKNS_12HeaderRecordEtRKNS_9NumParserERKN7openpal6RSliceERNS_12IAPDUHandlerE
	.section	.text._ZN8opendnp316CountIndexParser13InvokeCountOfINS_11Group11Var1EEEvRKNS_12HeaderRecordEtRKNS_9NumParserERKN7openpal6RSliceERNS_12IAPDUHandlerE,"axG",@progbits,_ZN8opendnp316CountIndexParser13InvokeCountOfINS_11Group11Var1EEEvRKNS_12HeaderRecordEtRKNS_9NumParserERKN7openpal6RSliceERNS_12IAPDUHandlerE,comdat
	.align 2
	.p2align 4
	.weak	_ZN8opendnp316CountIndexParser13InvokeCountOfINS_11Group11Var1EEEvRKNS_12HeaderRecordEtRKNS_9NumParserERKN7openpal6RSliceERNS_12IAPDUHandlerE
	.type	_ZN8opendnp316CountIndexParser13InvokeCountOfINS_11Group11Var1EEEvRKNS_12HeaderRecordEtRKNS_9NumParserERKN7openpal6RSliceERNS_12IAPDUHandlerE, @function
_ZN8opendnp316CountIndexParser13InvokeCountOfINS_11Group11Var1EEEvRKNS_12HeaderRecordEtRKNS_9NumParserERKN7openpal6RSliceERNS_12IAPDUHandlerE:
.LFB3146:
	.cfi_startproc
	subq	$88, %rsp
	.cfi_def_cfa_offset 96
	movdqu	(%rcx), %xmm0
	movq	_ZTVN8opendnp318BufferedCollectionINS_7IndexedINS_18BinaryOutputStatusEEEZNS_16CountIndexParser13InvokeCountOfINS_11Group11Var1EEEvRKNS_12HeaderRecordEtRKNS_9NumParserERKN7openpal6RSliceERNS_12IAPDUHandlerEEUlRSE_jE_EE@GOTPCREL(%rip), %rax
	movq	%rdx, 64(%rsp)
	leaq	32(%rsp), %rdx
	movups	%xmm0, 40(%rsp)
	addq	$16, %rax
	movdqu	(%rdi), %xmm0
	movq	%r8, %rdi
	movq	%rax, 32(%rsp)
	movzwl	%si, %eax
	movw	%si, 16(%rsp)
	movq	%rsp, %rsi
	movq	%rax, 56(%rsp)
	movaps	%xmm0, (%rsp)
	call	_ZN8opendnp312IAPDUHandler8OnHeaderERKNS_12PrefixHeaderERKNS_11ICollectionINS_7IndexedINS_18BinaryOutputStatusEEEEE@PLT
	addq	$88, %rsp
	.cfi_def_cfa_offset 8
	ret
	.cfi_endproc
.LFE3146:
	.size	_ZN8opendnp316CountIndexParser13InvokeCountOfINS_11Group11Var1EEEvRKNS_12HeaderRecordEtRKNS_9NumParserERKN7openpal6RSliceERNS_12IAPDUHandlerE, .-_ZN8opendnp316CountIndexParser13InvokeCountOfINS_11Group11Var1EEEvRKNS_12HeaderRecordEtRKNS_9NumParserERKN7openpal6RSliceERNS_12IAPDUHandlerE
	.section	.text._ZN8opendnp316CountIndexParser13InvokeCountOfINS_11Group11Var2EEEvRKNS_12HeaderRecordEtRKNS_9NumParserERKN7openpal6RSliceERNS_12IAPDUHandlerE,"axG",@progbits,_ZN8opendnp316CountIndexParser13InvokeCountOfINS_11Group11Var2EEEvRKNS_12HeaderRecordEtRKNS_9NumParserERKN7openpal6RSliceERNS_12IAPDUHandlerE,comdat
	.align 2
	.p2align 4
	.weak	_ZN8opendnp316CountIndexParser13InvokeCountOfINS_11Group11Var2EEEvRKNS_12HeaderRecordEtRKNS_9NumParserERKN7openpal6RSliceERNS_12IAPDUHandlerE
	.type	_ZN8opendnp316CountIndexParser13InvokeCountOfINS_11Group11Var2EEEvRKNS_12HeaderRecordEtRKNS_9NumParserERKN7openpal6RSliceERNS_12IAPDUHandlerE, @function
_ZN8opendnp316CountIndexParser13InvokeCountOfINS_11Group11Var2EEEvRKNS_12HeaderRecordEtRKNS_9NumParserERKN7openpal6RSliceERNS_12IAPDUHandlerE:
.LFB3154:
	.cfi_startproc
	subq	$88, %rsp
	.cfi_def_cfa_offset 96
	movdqu	(%rcx), %xmm0
	movq	_ZTVN8opendnp318BufferedCollectionINS_7IndexedINS_18BinaryOutputStatusEEEZNS_16CountIndexParser13InvokeCountOfINS_11Group11Var2EEEvRKNS_12HeaderRecordEtRKNS_9NumParserERKN7openpal6RSliceERNS_12IAPDUHandlerEEUlRSE_jE_EE@GOTPCREL(%rip), %rax
	movq	%rdx, 64(%rsp)
	leaq	32(%rsp), %rdx
	movups	%xmm0, 40(%rsp)
	addq	$16, %rax
	movdqu	(%rdi), %xmm0
	movq	%r8, %rdi
	movq	%rax, 32(%rsp)
	movzwl	%si, %eax
	movw	%si, 16(%rsp)
	movq	%rsp, %rsi
	movq	%rax, 56(%rsp)
	movaps	%xmm0, (%rsp)
	call	_ZN8opendnp312IAPDUHandler8OnHeaderERKNS_12PrefixHeaderERKNS_11ICollectionINS_7IndexedINS_18BinaryOutputStatusEEEEE@PLT
	addq	$88, %rsp
	.cfi_def_cfa_offset 8
	ret
	.cfi_endproc
.LFE3154:
	.size	_ZN8opendnp316CountIndexParser13InvokeCountOfINS_11Group11Var2EEEvRKNS_12HeaderRecordEtRKNS_9NumParserERKN7openpal6RSliceERNS_12IAPDUHandlerE, .-_ZN8opendnp316CountIndexParser13InvokeCountOfINS_11Group11Var2EEEvRKNS_12HeaderRecordEtRKNS_9NumParserERKN7openpal6RSliceERNS_12IAPDUHandlerE
	.section	.text._ZN8opendnp316CountIndexParser13InvokeCountOfINS_11Group12Var1EEEvRKNS_12HeaderRecordEtRKNS_9NumParserERKN7openpal6RSliceERNS_12IAPDUHandlerE,"axG",@progbits,_ZN8opendnp316CountIndexParser13InvokeCountOfINS_11Group12Var1EEEvRKNS_12HeaderRecordEtRKNS_9NumParserERKN7openpal6RSliceERNS_12IAPDUHandlerE,comdat
	.align 2
	.p2align 4
	.weak	_ZN8opendnp316CountIndexParser13InvokeCountOfINS_11Group12Var1EEEvRKNS_12HeaderRecordEtRKNS_9NumParserERKN7openpal6RSliceERNS_12IAPDUHandlerE
	.type	_ZN8opendnp316CountIndexParser13InvokeCountOfINS_11Group12Var1EEEvRKNS_12HeaderRecordEtRKNS_9NumParserERKN7openpal6RSliceERNS_12IAPDUHandlerE, @function
_ZN8opendnp316CountIndexParser13InvokeCountOfINS_11Group12Var1EEEvRKNS_12HeaderRecordEtRKNS_9NumParserERKN7openpal6RSliceERNS_12IAPDUHandlerE:
.LFB3159:
	.cfi_startproc
	subq	$88, %rsp
	.cfi_def_cfa_offset 96
	movdqu	(%rcx), %xmm0
	movq	_ZTVN8opendnp318BufferedCollectionINS_7IndexedINS_23ControlRelayOutputBlockEEEZNS_16CountIndexParser13InvokeCountOfINS_11Group12Var1EEEvRKNS_12HeaderRecordEtRKNS_9NumParserERKN7openpal6RSliceERNS_12IAPDUHandlerEEUlRSE_jE_EE@GOTPCREL(%rip), %rax
	movq	%rdx, 64(%rsp)
	leaq	32(%rsp), %rdx
	movups	%xmm0, 40(%rsp)
	addq	$16, %rax
	movdqu	(%rdi), %xmm0
	movq	%r8, %rdi
	movq	%rax, 32(%rsp)
	movzwl	%si, %eax
	movw	%si, 16(%rsp)
	movq	%rsp, %rsi
	movq	%rax, 56(%rsp)
	movaps	%xmm0, (%rsp)
	call	_ZN8opendnp312IAPDUHandler8OnHeaderERKNS_12PrefixHeaderERKNS_11ICollectionINS_7IndexedINS_23ControlRelayOutputBlockEEEEE@PLT
	addq	$88, %rsp
	.cfi_def_cfa_offset 8
	ret
	.cfi_endproc
.LFE3159:
	.size	_ZN8opendnp316CountIndexParser13InvokeCountOfINS_11Group12Var1EEEvRKNS_12HeaderRecordEtRKNS_9NumParserERKN7openpal6RSliceERNS_12IAPDUHandlerE, .-_ZN8opendnp316CountIndexParser13InvokeCountOfINS_11Group12Var1EEEvRKNS_12HeaderRecordEtRKNS_9NumParserERKN7openpal6RSliceERNS_12IAPDUHandlerE
	.section	.text._ZN8opendnp316CountIndexParser13InvokeCountOfINS_11Group13Var1EEEvRKNS_12HeaderRecordEtRKNS_9NumParserERKN7openpal6RSliceERNS_12IAPDUHandlerE,"axG",@progbits,_ZN8opendnp316CountIndexParser13InvokeCountOfINS_11Group13Var1EEEvRKNS_12HeaderRecordEtRKNS_9NumParserERKN7openpal6RSliceERNS_12IAPDUHandlerE,comdat
	.align 2
	.p2align 4
	.weak	_ZN8opendnp316CountIndexParser13InvokeCountOfINS_11Group13Var1EEEvRKNS_12HeaderRecordEtRKNS_9NumParserERKN7openpal6RSliceERNS_12IAPDUHandlerE
	.type	_ZN8opendnp316CountIndexParser13InvokeCountOfINS_11Group13Var1EEEvRKNS_12HeaderRecordEtRKNS_9NumParserERKN7openpal6RSliceERNS_12IAPDUHandlerE, @function
_ZN8opendnp316CountIndexParser13InvokeCountOfINS_11Group13Var1EEEvRKNS_12HeaderRecordEtRKNS_9NumParserERKN7openpal6RSliceERNS_12IAPDUHandlerE:
.LFB3167:
	.cfi_startproc
	subq	$88, %rsp
	.cfi_def_cfa_offset 96
	movdqu	(%rcx), %xmm0
	movq	_ZTVN8opendnp318BufferedCollectionINS_7IndexedINS_18BinaryCommandEventEEEZNS_16CountIndexParser13InvokeCountOfINS_11Group13Var1EEEvRKNS_12HeaderRecordEtRKNS_9NumParserERKN7openpal6RSliceERNS_12IAPDUHandlerEEUlRSE_jE_EE@GOTPCREL(%rip), %rax
	movq	%rdx, 64(%rsp)
	leaq	32(%rsp), %rdx
	movups	%xmm0, 40(%rsp)
	addq	$16, %rax
	movdqu	(%rdi), %xmm0
	movq	%r8, %rdi
	movq	%rax, 32(%rsp)
	movzwl	%si, %eax
	movw	%si, 16(%rsp)
	movq	%rsp, %rsi
	movq	%rax, 56(%rsp)
	movaps	%xmm0, (%rsp)
	call	_ZN8opendnp312IAPDUHandler8OnHeaderERKNS_12PrefixHeaderERKNS_11ICollectionINS_7IndexedINS_18BinaryCommandEventEEEEE@PLT
	addq	$88, %rsp
	.cfi_def_cfa_offset 8
	ret
	.cfi_endproc
.LFE3167:
	.size	_ZN8opendnp316CountIndexParser13InvokeCountOfINS_11Group13Var1EEEvRKNS_12HeaderRecordEtRKNS_9NumParserERKN7openpal6RSliceERNS_12IAPDUHandlerE, .-_ZN8opendnp316CountIndexParser13InvokeCountOfINS_11Group13Var1EEEvRKNS_12HeaderRecordEtRKNS_9NumParserERKN7openpal6RSliceERNS_12IAPDUHandlerE
	.section	.text._ZN8opendnp316CountIndexParser13InvokeCountOfINS_11Group13Var2EEEvRKNS_12HeaderRecordEtRKNS_9NumParserERKN7openpal6RSliceERNS_12IAPDUHandlerE,"axG",@progbits,_ZN8opendnp316CountIndexParser13InvokeCountOfINS_11Group13Var2EEEvRKNS_12HeaderRecordEtRKNS_9NumParserERKN7openpal6RSliceERNS_12IAPDUHandlerE,comdat
	.align 2
	.p2align 4
	.weak	_ZN8opendnp316CountIndexParser13InvokeCountOfINS_11Group13Var2EEEvRKNS_12HeaderRecordEtRKNS_9NumParserERKN7openpal6RSliceERNS_12IAPDUHandlerE
	.type	_ZN8opendnp316CountIndexParser13InvokeCountOfINS_11Group13Var2EEEvRKNS_12HeaderRecordEtRKNS_9NumParserERKN7openpal6RSliceERNS_12IAPDUHandlerE, @function
_ZN8opendnp316CountIndexParser13InvokeCountOfINS_11Group13Var2EEEvRKNS_12HeaderRecordEtRKNS_9NumParserERKN7openpal6RSliceERNS_12IAPDUHandlerE:
.LFB3175:
	.cfi_startproc
	subq	$88, %rsp
	.cfi_def_cfa_offset 96
	movdqu	(%rcx), %xmm0
	movq	_ZTVN8opendnp318BufferedCollectionINS_7IndexedINS_18BinaryCommandEventEEEZNS_16CountIndexParser13InvokeCountOfINS_11Group13Var2EEEvRKNS_12HeaderRecordEtRKNS_9NumParserERKN7openpal6RSliceERNS_12IAPDUHandlerEEUlRSE_jE_EE@GOTPCREL(%rip), %rax
	movq	%rdx, 64(%rsp)
	leaq	32(%rsp), %rdx
	movups	%xmm0, 40(%rsp)
	addq	$16, %rax
	movdqu	(%rdi), %xmm0
	movq	%r8, %rdi
	movq	%rax, 32(%rsp)
	movzwl	%si, %eax
	movw	%si, 16(%rsp)
	movq	%rsp, %rsi
	movq	%rax, 56(%rsp)
	movaps	%xmm0, (%rsp)
	call	_ZN8opendnp312IAPDUHandler8OnHeaderERKNS_12PrefixHeaderERKNS_11ICollectionINS_7IndexedINS_18BinaryCommandEventEEEEE@PLT
	addq	$88, %rsp
	.cfi_def_cfa_offset 8
	ret
	.cfi_endproc
.LFE3175:
	.size	_ZN8opendnp316CountIndexParser13InvokeCountOfINS_11Group13Var2EEEvRKNS_12HeaderRecordEtRKNS_9NumParserERKN7openpal6RSliceERNS_12IAPDUHandlerE, .-_ZN8opendnp316CountIndexParser13InvokeCountOfINS_11Group13Var2EEEvRKNS_12HeaderRecordEtRKNS_9NumParserERKN7openpal6RSliceERNS_12IAPDUHandlerE
	.section	.text._ZN8opendnp316CountIndexParser13InvokeCountOfINS_11Group22Var1EEEvRKNS_12HeaderRecordEtRKNS_9NumParserERKN7openpal6RSliceERNS_12IAPDUHandlerE,"axG",@progbits,_ZN8opendnp316CountIndexParser13InvokeCountOfINS_11Group22Var1EEEvRKNS_12HeaderRecordEtRKNS_9NumParserERKN7openpal6RSliceERNS_12IAPDUHandlerE,comdat
	.align 2
	.p2align 4
	.weak	_ZN8opendnp316CountIndexParser13InvokeCountOfINS_11Group22Var1EEEvRKNS_12HeaderRecordEtRKNS_9NumParserERKN7openpal6RSliceERNS_12IAPDUHandlerE
	.type	_ZN8opendnp316CountIndexParser13InvokeCountOfINS_11Group22Var1EEEvRKNS_12HeaderRecordEtRKNS_9NumParserERKN7openpal6RSliceERNS_12IAPDUHandlerE, @function
_ZN8opendnp316CountIndexParser13InvokeCountOfINS_11Group22Var1EEEvRKNS_12HeaderRecordEtRKNS_9NumParserERKN7openpal6RSliceERNS_12IAPDUHandlerE:
.LFB3180:
	.cfi_startproc
	subq	$88, %rsp
	.cfi_def_cfa_offset 96
	movdqu	(%rcx), %xmm0
	movq	_ZTVN8opendnp318BufferedCollectionINS_7IndexedINS_7CounterEEEZNS_16CountIndexParser13InvokeCountOfINS_11Group22Var1EEEvRKNS_12HeaderRecordEtRKNS_9NumParserERKN7openpal6RSliceERNS_12IAPDUHandlerEEUlRSE_jE_EE@GOTPCREL(%rip), %rax
	movq	%rdx, 64(%rsp)
	leaq	32(%rsp), %rdx
	movups	%xmm0, 40(%rsp)
	addq	$16, %rax
	movdqu	(%rdi), %xmm0
	movq	%r8, %rdi
	movq	%rax, 32(%rsp)
	movzwl	%si, %eax
	movw	%si, 16(%rsp)
	movq	%rsp, %rsi
	movq	%rax, 56(%rsp)
	movaps	%xmm0, (%rsp)
	call	_ZN8opendnp312IAPDUHandler8OnHeaderERKNS_12PrefixHeaderERKNS_11ICollectionINS_7IndexedINS_7CounterEEEEE@PLT
	addq	$88, %rsp
	.cfi_def_cfa_offset 8
	ret
	.cfi_endproc
.LFE3180:
	.size	_ZN8opendnp316CountIndexParser13InvokeCountOfINS_11Group22Var1EEEvRKNS_12HeaderRecordEtRKNS_9NumParserERKN7openpal6RSliceERNS_12IAPDUHandlerE, .-_ZN8opendnp316CountIndexParser13InvokeCountOfINS_11Group22Var1EEEvRKNS_12HeaderRecordEtRKNS_9NumParserERKN7openpal6RSliceERNS_12IAPDUHandlerE
	.section	.text._ZN8opendnp316CountIndexParser13InvokeCountOfINS_11Group22Var2EEEvRKNS_12HeaderRecordEtRKNS_9NumParserERKN7openpal6RSliceERNS_12IAPDUHandlerE,"axG",@progbits,_ZN8opendnp316CountIndexParser13InvokeCountOfINS_11Group22Var2EEEvRKNS_12HeaderRecordEtRKNS_9NumParserERKN7openpal6RSliceERNS_12IAPDUHandlerE,comdat
	.align 2
	.p2align 4
	.weak	_ZN8opendnp316CountIndexParser13InvokeCountOfINS_11Group22Var2EEEvRKNS_12HeaderRecordEtRKNS_9NumParserERKN7openpal6RSliceERNS_12IAPDUHandlerE
	.type	_ZN8opendnp316CountIndexParser13InvokeCountOfINS_11Group22Var2EEEvRKNS_12HeaderRecordEtRKNS_9NumParserERKN7openpal6RSliceERNS_12IAPDUHandlerE, @function
_ZN8opendnp316CountIndexParser13InvokeCountOfINS_11Group22Var2EEEvRKNS_12HeaderRecordEtRKNS_9NumParserERKN7openpal6RSliceERNS_12IAPDUHandlerE:
.LFB3188:
	.cfi_startproc
	subq	$88, %rsp
	.cfi_def_cfa_offset 96
	movdqu	(%rcx), %xmm0
	movq	_ZTVN8opendnp318BufferedCollectionINS_7IndexedINS_7CounterEEEZNS_16CountIndexParser13InvokeCountOfINS_11Group22Var2EEEvRKNS_12HeaderRecordEtRKNS_9NumParserERKN7openpal6RSliceERNS_12IAPDUHandlerEEUlRSE_jE_EE@GOTPCREL(%rip), %rax
	movq	%rdx, 64(%rsp)
	leaq	32(%rsp), %rdx
	movups	%xmm0, 40(%rsp)
	addq	$16, %rax
	movdqu	(%rdi), %xmm0
	movq	%r8, %rdi
	movq	%rax, 32(%rsp)
	movzwl	%si, %eax
	movw	%si, 16(%rsp)
	movq	%rsp, %rsi
	movq	%rax, 56(%rsp)
	movaps	%xmm0, (%rsp)
	call	_ZN8opendnp312IAPDUHandler8OnHeaderERKNS_12PrefixHeaderERKNS_11ICollectionINS_7IndexedINS_7CounterEEEEE@PLT
	addq	$88, %rsp
	.cfi_def_cfa_offset 8
	ret
	.cfi_endproc
.LFE3188:
	.size	_ZN8opendnp316CountIndexParser13InvokeCountOfINS_11Group22Var2EEEvRKNS_12HeaderRecordEtRKNS_9NumParserERKN7openpal6RSliceERNS_12IAPDUHandlerE, .-_ZN8opendnp316CountIndexParser13InvokeCountOfINS_11Group22Var2EEEvRKNS_12HeaderRecordEtRKNS_9NumParserERKN7openpal6RSliceERNS_12IAPDUHandlerE
	.section	.text._ZN8opendnp316CountIndexParser13InvokeCountOfINS_11Group22Var5EEEvRKNS_12HeaderRecordEtRKNS_9NumParserERKN7openpal6RSliceERNS_12IAPDUHandlerE,"axG",@progbits,_ZN8opendnp316CountIndexParser13InvokeCountOfINS_11Group22Var5EEEvRKNS_12HeaderRecordEtRKNS_9NumParserERKN7openpal6RSliceERNS_12IAPDUHandlerE,comdat
	.align 2
	.p2align 4
	.weak	_ZN8opendnp316CountIndexParser13InvokeCountOfINS_11Group22Var5EEEvRKNS_12HeaderRecordEtRKNS_9NumParserERKN7openpal6RSliceERNS_12IAPDUHandlerE
	.type	_ZN8opendnp316CountIndexParser13InvokeCountOfINS_11Group22Var5EEEvRKNS_12HeaderRecordEtRKNS_9NumParserERKN7openpal6RSliceERNS_12IAPDUHandlerE, @function
_ZN8opendnp316CountIndexParser13InvokeCountOfINS_11Group22Var5EEEvRKNS_12HeaderRecordEtRKNS_9NumParserERKN7openpal6RSliceERNS_12IAPDUHandlerE:
.LFB3193:
	.cfi_startproc
	subq	$88, %rsp
	.cfi_def_cfa_offset 96
	movdqu	(%rcx), %xmm0
	movq	_ZTVN8opendnp318BufferedCollectionINS_7IndexedINS_7CounterEEEZNS_16CountIndexParser13InvokeCountOfINS_11Group22Var5EEEvRKNS_12HeaderRecordEtRKNS_9NumParserERKN7openpal6RSliceERNS_12IAPDUHandlerEEUlRSE_jE_EE@GOTPCREL(%rip), %rax
	movq	%rdx, 64(%rsp)
	leaq	32(%rsp), %rdx
	movups	%xmm0, 40(%rsp)
	addq	$16, %rax
	movdqu	(%rdi), %xmm0
	movq	%r8, %rdi
	movq	%rax, 32(%rsp)
	movzwl	%si, %eax
	movw	%si, 16(%rsp)
	movq	%rsp, %rsi
	movq	%rax, 56(%rsp)
	movaps	%xmm0, (%rsp)
	call	_ZN8opendnp312IAPDUHandler8OnHeaderERKNS_12PrefixHeaderERKNS_11ICollectionINS_7IndexedINS_7CounterEEEEE@PLT
	addq	$88, %rsp
	.cfi_def_cfa_offset 8
	ret
	.cfi_endproc
.LFE3193:
	.size	_ZN8opendnp316CountIndexParser13InvokeCountOfINS_11Group22Var5EEEvRKNS_12HeaderRecordEtRKNS_9NumParserERKN7openpal6RSliceERNS_12IAPDUHandlerE, .-_ZN8opendnp316CountIndexParser13InvokeCountOfINS_11Group22Var5EEEvRKNS_12HeaderRecordEtRKNS_9NumParserERKN7openpal6RSliceERNS_12IAPDUHandlerE
	.section	.text._ZN8opendnp316CountIndexParser13InvokeCountOfINS_11Group22Var6EEEvRKNS_12HeaderRecordEtRKNS_9NumParserERKN7openpal6RSliceERNS_12IAPDUHandlerE,"axG",@progbits,_ZN8opendnp316CountIndexParser13InvokeCountOfINS_11Group22Var6EEEvRKNS_12HeaderRecordEtRKNS_9NumParserERKN7openpal6RSliceERNS_12IAPDUHandlerE,comdat
	.align 2
	.p2align 4
	.weak	_ZN8opendnp316CountIndexParser13InvokeCountOfINS_11Group22Var6EEEvRKNS_12HeaderRecordEtRKNS_9NumParserERKN7openpal6RSliceERNS_12IAPDUHandlerE
	.type	_ZN8opendnp316CountIndexParser13InvokeCountOfINS_11Group22Var6EEEvRKNS_12HeaderRecordEtRKNS_9NumParserERKN7openpal6RSliceERNS_12IAPDUHandlerE, @function
_ZN8opendnp316CountIndexParser13InvokeCountOfINS_11Group22Var6EEEvRKNS_12HeaderRecordEtRKNS_9NumParserERKN7openpal6RSliceERNS_12IAPDUHandlerE:
.LFB3198:
	.cfi_startproc
	subq	$88, %rsp
	.cfi_def_cfa_offset 96
	movdqu	(%rcx), %xmm0
	movq	_ZTVN8opendnp318BufferedCollectionINS_7IndexedINS_7CounterEEEZNS_16CountIndexParser13InvokeCountOfINS_11Group22Var6EEEvRKNS_12HeaderRecordEtRKNS_9NumParserERKN7openpal6RSliceERNS_12IAPDUHandlerEEUlRSE_jE_EE@GOTPCREL(%rip), %rax
	movq	%rdx, 64(%rsp)
	leaq	32(%rsp), %rdx
	movups	%xmm0, 40(%rsp)
	addq	$16, %rax
	movdqu	(%rdi), %xmm0
	movq	%r8, %rdi
	movq	%rax, 32(%rsp)
	movzwl	%si, %eax
	movw	%si, 16(%rsp)
	movq	%rsp, %rsi
	movq	%rax, 56(%rsp)
	movaps	%xmm0, (%rsp)
	call	_ZN8opendnp312IAPDUHandler8OnHeaderERKNS_12PrefixHeaderERKNS_11ICollectionINS_7IndexedINS_7CounterEEEEE@PLT
	addq	$88, %rsp
	.cfi_def_cfa_offset 8
	ret
	.cfi_endproc
.LFE3198:
	.size	_ZN8opendnp316CountIndexParser13InvokeCountOfINS_11Group22Var6EEEvRKNS_12HeaderRecordEtRKNS_9NumParserERKN7openpal6RSliceERNS_12IAPDUHandlerE, .-_ZN8opendnp316CountIndexParser13InvokeCountOfINS_11Group22Var6EEEvRKNS_12HeaderRecordEtRKNS_9NumParserERKN7openpal6RSliceERNS_12IAPDUHandlerE
	.section	.text._ZN8opendnp316CountIndexParser13InvokeCountOfINS_11Group23Var1EEEvRKNS_12HeaderRecordEtRKNS_9NumParserERKN7openpal6RSliceERNS_12IAPDUHandlerE,"axG",@progbits,_ZN8opendnp316CountIndexParser13InvokeCountOfINS_11Group23Var1EEEvRKNS_12HeaderRecordEtRKNS_9NumParserERKN7openpal6RSliceERNS_12IAPDUHandlerE,comdat
	.align 2
	.p2align 4
	.weak	_ZN8opendnp316CountIndexParser13InvokeCountOfINS_11Group23Var1EEEvRKNS_12HeaderRecordEtRKNS_9NumParserERKN7openpal6RSliceERNS_12IAPDUHandlerE
	.type	_ZN8opendnp316CountIndexParser13InvokeCountOfINS_11Group23Var1EEEvRKNS_12HeaderRecordEtRKNS_9NumParserERKN7openpal6RSliceERNS_12IAPDUHandlerE, @function
_ZN8opendnp316CountIndexParser13InvokeCountOfINS_11Group23Var1EEEvRKNS_12HeaderRecordEtRKNS_9NumParserERKN7openpal6RSliceERNS_12IAPDUHandlerE:
.LFB3203:
	.cfi_startproc
	subq	$88, %rsp
	.cfi_def_cfa_offset 96
	movdqu	(%rcx), %xmm0
	movq	_ZTVN8opendnp318BufferedCollectionINS_7IndexedINS_13FrozenCounterEEEZNS_16CountIndexParser13InvokeCountOfINS_11Group23Var1EEEvRKNS_12HeaderRecordEtRKNS_9NumParserERKN7openpal6RSliceERNS_12IAPDUHandlerEEUlRSE_jE_EE@GOTPCREL(%rip), %rax
	movq	%rdx, 64(%rsp)
	leaq	32(%rsp), %rdx
	movups	%xmm0, 40(%rsp)
	addq	$16, %rax
	movdqu	(%rdi), %xmm0
	movq	%r8, %rdi
	movq	%rax, 32(%rsp)
	movzwl	%si, %eax
	movw	%si, 16(%rsp)
	movq	%rsp, %rsi
	movq	%rax, 56(%rsp)
	movaps	%xmm0, (%rsp)
	call	_ZN8opendnp312IAPDUHandler8OnHeaderERKNS_12PrefixHeaderERKNS_11ICollectionINS_7IndexedINS_13FrozenCounterEEEEE@PLT
	addq	$88, %rsp
	.cfi_def_cfa_offset 8
	ret
	.cfi_endproc
.LFE3203:
	.size	_ZN8opendnp316CountIndexParser13InvokeCountOfINS_11Group23Var1EEEvRKNS_12HeaderRecordEtRKNS_9NumParserERKN7openpal6RSliceERNS_12IAPDUHandlerE, .-_ZN8opendnp316CountIndexParser13InvokeCountOfINS_11Group23Var1EEEvRKNS_12HeaderRecordEtRKNS_9NumParserERKN7openpal6RSliceERNS_12IAPDUHandlerE
	.section	.text._ZN8opendnp316CountIndexParser13InvokeCountOfINS_11Group23Var2EEEvRKNS_12HeaderRecordEtRKNS_9NumParserERKN7openpal6RSliceERNS_12IAPDUHandlerE,"axG",@progbits,_ZN8opendnp316CountIndexParser13InvokeCountOfINS_11Group23Var2EEEvRKNS_12HeaderRecordEtRKNS_9NumParserERKN7openpal6RSliceERNS_12IAPDUHandlerE,comdat
	.align 2
	.p2align 4
	.weak	_ZN8opendnp316CountIndexParser13InvokeCountOfINS_11Group23Var2EEEvRKNS_12HeaderRecordEtRKNS_9NumParserERKN7openpal6RSliceERNS_12IAPDUHandlerE
	.type	_ZN8opendnp316CountIndexParser13InvokeCountOfINS_11Group23Var2EEEvRKNS_12HeaderRecordEtRKNS_9NumParserERKN7openpal6RSliceERNS_12IAPDUHandlerE, @function
_ZN8opendnp316CountIndexParser13InvokeCountOfINS_11Group23Var2EEEvRKNS_12HeaderRecordEtRKNS_9NumParserERKN7openpal6RSliceERNS_12IAPDUHandlerE:
.LFB3211:
	.cfi_startproc
	subq	$88, %rsp
	.cfi_def_cfa_offset 96
	movdqu	(%rcx), %xmm0
	movq	_ZTVN8opendnp318BufferedCollectionINS_7IndexedINS_13FrozenCounterEEEZNS_16CountIndexParser13InvokeCountOfINS_11Group23Var2EEEvRKNS_12HeaderRecordEtRKNS_9NumParserERKN7openpal6RSliceERNS_12IAPDUHandlerEEUlRSE_jE_EE@GOTPCREL(%rip), %rax
	movq	%rdx, 64(%rsp)
	leaq	32(%rsp), %rdx
	movups	%xmm0, 40(%rsp)
	addq	$16, %rax
	movdqu	(%rdi), %xmm0
	movq	%r8, %rdi
	movq	%rax, 32(%rsp)
	movzwl	%si, %eax
	movw	%si, 16(%rsp)
	movq	%rsp, %rsi
	movq	%rax, 56(%rsp)
	movaps	%xmm0, (%rsp)
	call	_ZN8opendnp312IAPDUHandler8OnHeaderERKNS_12PrefixHeaderERKNS_11ICollectionINS_7IndexedINS_13FrozenCounterEEEEE@PLT
	addq	$88, %rsp
	.cfi_def_cfa_offset 8
	ret
	.cfi_endproc
.LFE3211:
	.size	_ZN8opendnp316CountIndexParser13InvokeCountOfINS_11Group23Var2EEEvRKNS_12HeaderRecordEtRKNS_9NumParserERKN7openpal6RSliceERNS_12IAPDUHandlerE, .-_ZN8opendnp316CountIndexParser13InvokeCountOfINS_11Group23Var2EEEvRKNS_12HeaderRecordEtRKNS_9NumParserERKN7openpal6RSliceERNS_12IAPDUHandlerE
	.section	.text._ZN8opendnp316CountIndexParser13InvokeCountOfINS_11Group23Var5EEEvRKNS_12HeaderRecordEtRKNS_9NumParserERKN7openpal6RSliceERNS_12IAPDUHandlerE,"axG",@progbits,_ZN8opendnp316CountIndexParser13InvokeCountOfINS_11Group23Var5EEEvRKNS_12HeaderRecordEtRKNS_9NumParserERKN7openpal6RSliceERNS_12IAPDUHandlerE,comdat
	.align 2
	.p2align 4
	.weak	_ZN8opendnp316CountIndexParser13InvokeCountOfINS_11Group23Var5EEEvRKNS_12HeaderRecordEtRKNS_9NumParserERKN7openpal6RSliceERNS_12IAPDUHandlerE
	.type	_ZN8opendnp316CountIndexParser13InvokeCountOfINS_11Group23Var5EEEvRKNS_12HeaderRecordEtRKNS_9NumParserERKN7openpal6RSliceERNS_12IAPDUHandlerE, @function
_ZN8opendnp316CountIndexParser13InvokeCountOfINS_11Group23Var5EEEvRKNS_12HeaderRecordEtRKNS_9NumParserERKN7openpal6RSliceERNS_12IAPDUHandlerE:
.LFB3216:
	.cfi_startproc
	subq	$88, %rsp
	.cfi_def_cfa_offset 96
	movdqu	(%rcx), %xmm0
	movq	_ZTVN8opendnp318BufferedCollectionINS_7IndexedINS_13FrozenCounterEEEZNS_16CountIndexParser13InvokeCountOfINS_11Group23Var5EEEvRKNS_12HeaderRecordEtRKNS_9NumParserERKN7openpal6RSliceERNS_12IAPDUHandlerEEUlRSE_jE_EE@GOTPCREL(%rip), %rax
	movq	%rdx, 64(%rsp)
	leaq	32(%rsp), %rdx
	movups	%xmm0, 40(%rsp)
	addq	$16, %rax
	movdqu	(%rdi), %xmm0
	movq	%r8, %rdi
	movq	%rax, 32(%rsp)
	movzwl	%si, %eax
	movw	%si, 16(%rsp)
	movq	%rsp, %rsi
	movq	%rax, 56(%rsp)
	movaps	%xmm0, (%rsp)
	call	_ZN8opendnp312IAPDUHandler8OnHeaderERKNS_12PrefixHeaderERKNS_11ICollectionINS_7IndexedINS_13FrozenCounterEEEEE@PLT
	addq	$88, %rsp
	.cfi_def_cfa_offset 8
	ret
	.cfi_endproc
.LFE3216:
	.size	_ZN8opendnp316CountIndexParser13InvokeCountOfINS_11Group23Var5EEEvRKNS_12HeaderRecordEtRKNS_9NumParserERKN7openpal6RSliceERNS_12IAPDUHandlerE, .-_ZN8opendnp316CountIndexParser13InvokeCountOfINS_11Group23Var5EEEvRKNS_12HeaderRecordEtRKNS_9NumParserERKN7openpal6RSliceERNS_12IAPDUHandlerE
	.section	.text._ZN8opendnp316CountIndexParser13InvokeCountOfINS_11Group23Var6EEEvRKNS_12HeaderRecordEtRKNS_9NumParserERKN7openpal6RSliceERNS_12IAPDUHandlerE,"axG",@progbits,_ZN8opendnp316CountIndexParser13InvokeCountOfINS_11Group23Var6EEEvRKNS_12HeaderRecordEtRKNS_9NumParserERKN7openpal6RSliceERNS_12IAPDUHandlerE,comdat
	.align 2
	.p2align 4
	.weak	_ZN8opendnp316CountIndexParser13InvokeCountOfINS_11Group23Var6EEEvRKNS_12HeaderRecordEtRKNS_9NumParserERKN7openpal6RSliceERNS_12IAPDUHandlerE
	.type	_ZN8opendnp316CountIndexParser13InvokeCountOfINS_11Group23Var6EEEvRKNS_12HeaderRecordEtRKNS_9NumParserERKN7openpal6RSliceERNS_12IAPDUHandlerE, @function
_ZN8opendnp316CountIndexParser13InvokeCountOfINS_11Group23Var6EEEvRKNS_12HeaderRecordEtRKNS_9NumParserERKN7openpal6RSliceERNS_12IAPDUHandlerE:
.LFB3221:
	.cfi_startproc
	subq	$88, %rsp
	.cfi_def_cfa_offset 96
	movdqu	(%rcx), %xmm0
	movq	_ZTVN8opendnp318BufferedCollectionINS_7IndexedINS_13FrozenCounterEEEZNS_16CountIndexParser13InvokeCountOfINS_11Group23Var6EEEvRKNS_12HeaderRecordEtRKNS_9NumParserERKN7openpal6RSliceERNS_12IAPDUHandlerEEUlRSE_jE_EE@GOTPCREL(%rip), %rax
	movq	%rdx, 64(%rsp)
	leaq	32(%rsp), %rdx
	movups	%xmm0, 40(%rsp)
	addq	$16, %rax
	movdqu	(%rdi), %xmm0
	movq	%r8, %rdi
	movq	%rax, 32(%rsp)
	movzwl	%si, %eax
	movw	%si, 16(%rsp)
	movq	%rsp, %rsi
	movq	%rax, 56(%rsp)
	movaps	%xmm0, (%rsp)
	call	_ZN8opendnp312IAPDUHandler8OnHeaderERKNS_12PrefixHeaderERKNS_11ICollectionINS_7IndexedINS_13FrozenCounterEEEEE@PLT
	addq	$88, %rsp
	.cfi_def_cfa_offset 8
	ret
	.cfi_endproc
.LFE3221:
	.size	_ZN8opendnp316CountIndexParser13InvokeCountOfINS_11Group23Var6EEEvRKNS_12HeaderRecordEtRKNS_9NumParserERKN7openpal6RSliceERNS_12IAPDUHandlerE, .-_ZN8opendnp316CountIndexParser13InvokeCountOfINS_11Group23Var6EEEvRKNS_12HeaderRecordEtRKNS_9NumParserERKN7openpal6RSliceERNS_12IAPDUHandlerE
	.section	.text._ZN8opendnp316CountIndexParser13InvokeCountOfINS_11Group32Var1EEEvRKNS_12HeaderRecordEtRKNS_9NumParserERKN7openpal6RSliceERNS_12IAPDUHandlerE,"axG",@progbits,_ZN8opendnp316CountIndexParser13InvokeCountOfINS_11Group32Var1EEEvRKNS_12HeaderRecordEtRKNS_9NumParserERKN7openpal6RSliceERNS_12IAPDUHandlerE,comdat
	.align 2
	.p2align 4
	.weak	_ZN8opendnp316CountIndexParser13InvokeCountOfINS_11Group32Var1EEEvRKNS_12HeaderRecordEtRKNS_9NumParserERKN7openpal6RSliceERNS_12IAPDUHandlerE
	.type	_ZN8opendnp316CountIndexParser13InvokeCountOfINS_11Group32Var1EEEvRKNS_12HeaderRecordEtRKNS_9NumParserERKN7openpal6RSliceERNS_12IAPDUHandlerE, @function
_ZN8opendnp316CountIndexParser13InvokeCountOfINS_11Group32Var1EEEvRKNS_12HeaderRecordEtRKNS_9NumParserERKN7openpal6RSliceERNS_12IAPDUHandlerE:
.LFB3226:
	.cfi_startproc
	subq	$88, %rsp
	.cfi_def_cfa_offset 96
	movdqu	(%rcx), %xmm0
	movq	_ZTVN8opendnp318BufferedCollectionINS_7IndexedINS_6AnalogEEEZNS_16CountIndexParser13InvokeCountOfINS_11Group32Var1EEEvRKNS_12HeaderRecordEtRKNS_9NumParserERKN7openpal6RSliceERNS_12IAPDUHandlerEEUlRSE_jE_EE@GOTPCREL(%rip), %rax
	movq	%rdx, 64(%rsp)
	leaq	32(%rsp), %rdx
	movups	%xmm0, 40(%rsp)
	addq	$16, %rax
	movdqu	(%rdi), %xmm0
	movq	%r8, %rdi
	movq	%rax, 32(%rsp)
	movzwl	%si, %eax
	movw	%si, 16(%rsp)
	movq	%rsp, %rsi
	movq	%rax, 56(%rsp)
	movaps	%xmm0, (%rsp)
	call	_ZN8opendnp312IAPDUHandler8OnHeaderERKNS_12PrefixHeaderERKNS_11ICollectionINS_7IndexedINS_6AnalogEEEEE@PLT
	addq	$88, %rsp
	.cfi_def_cfa_offset 8
	ret
	.cfi_endproc
.LFE3226:
	.size	_ZN8opendnp316CountIndexParser13InvokeCountOfINS_11Group32Var1EEEvRKNS_12HeaderRecordEtRKNS_9NumParserERKN7openpal6RSliceERNS_12IAPDUHandlerE, .-_ZN8opendnp316CountIndexParser13InvokeCountOfINS_11Group32Var1EEEvRKNS_12HeaderRecordEtRKNS_9NumParserERKN7openpal6RSliceERNS_12IAPDUHandlerE
	.section	.text._ZN8opendnp316CountIndexParser13InvokeCountOfINS_11Group32Var2EEEvRKNS_12HeaderRecordEtRKNS_9NumParserERKN7openpal6RSliceERNS_12IAPDUHandlerE,"axG",@progbits,_ZN8opendnp316CountIndexParser13InvokeCountOfINS_11Group32Var2EEEvRKNS_12HeaderRecordEtRKNS_9NumParserERKN7openpal6RSliceERNS_12IAPDUHandlerE,comdat
	.align 2
	.p2align 4
	.weak	_ZN8opendnp316CountIndexParser13InvokeCountOfINS_11Group32Var2EEEvRKNS_12HeaderRecordEtRKNS_9NumParserERKN7openpal6RSliceERNS_12IAPDUHandlerE
	.type	_ZN8opendnp316CountIndexParser13InvokeCountOfINS_11Group32Var2EEEvRKNS_12HeaderRecordEtRKNS_9NumParserERKN7openpal6RSliceERNS_12IAPDUHandlerE, @function
_ZN8opendnp316CountIndexParser13InvokeCountOfINS_11Group32Var2EEEvRKNS_12HeaderRecordEtRKNS_9NumParserERKN7openpal6RSliceERNS_12IAPDUHandlerE:
.LFB3234:
	.cfi_startproc
	subq	$88, %rsp
	.cfi_def_cfa_offset 96
	movdqu	(%rcx), %xmm0
	movq	_ZTVN8opendnp318BufferedCollectionINS_7IndexedINS_6AnalogEEEZNS_16CountIndexParser13InvokeCountOfINS_11Group32Var2EEEvRKNS_12HeaderRecordEtRKNS_9NumParserERKN7openpal6RSliceERNS_12IAPDUHandlerEEUlRSE_jE_EE@GOTPCREL(%rip), %rax
	movq	%rdx, 64(%rsp)
	leaq	32(%rsp), %rdx
	movups	%xmm0, 40(%rsp)
	addq	$16, %rax
	movdqu	(%rdi), %xmm0
	movq	%r8, %rdi
	movq	%rax, 32(%rsp)
	movzwl	%si, %eax
	movw	%si, 16(%rsp)
	movq	%rsp, %rsi
	movq	%rax, 56(%rsp)
	movaps	%xmm0, (%rsp)
	call	_ZN8opendnp312IAPDUHandler8OnHeaderERKNS_12PrefixHeaderERKNS_11ICollectionINS_7IndexedINS_6AnalogEEEEE@PLT
	addq	$88, %rsp
	.cfi_def_cfa_offset 8
	ret
	.cfi_endproc
.LFE3234:
	.size	_ZN8opendnp316CountIndexParser13InvokeCountOfINS_11Group32Var2EEEvRKNS_12HeaderRecordEtRKNS_9NumParserERKN7openpal6RSliceERNS_12IAPDUHandlerE, .-_ZN8opendnp316CountIndexParser13InvokeCountOfINS_11Group32Var2EEEvRKNS_12HeaderRecordEtRKNS_9NumParserERKN7openpal6RSliceERNS_12IAPDUHandlerE
	.section	.text._ZN8opendnp316CountIndexParser13InvokeCountOfINS_11Group32Var3EEEvRKNS_12HeaderRecordEtRKNS_9NumParserERKN7openpal6RSliceERNS_12IAPDUHandlerE,"axG",@progbits,_ZN8opendnp316CountIndexParser13InvokeCountOfINS_11Group32Var3EEEvRKNS_12HeaderRecordEtRKNS_9NumParserERKN7openpal6RSliceERNS_12IAPDUHandlerE,comdat
	.align 2
	.p2align 4
	.weak	_ZN8opendnp316CountIndexParser13InvokeCountOfINS_11Group32Var3EEEvRKNS_12HeaderRecordEtRKNS_9NumParserERKN7openpal6RSliceERNS_12IAPDUHandlerE
	.type	_ZN8opendnp316CountIndexParser13InvokeCountOfINS_11Group32Var3EEEvRKNS_12HeaderRecordEtRKNS_9NumParserERKN7openpal6RSliceERNS_12IAPDUHandlerE, @function
_ZN8opendnp316CountIndexParser13InvokeCountOfINS_11Group32Var3EEEvRKNS_12HeaderRecordEtRKNS_9NumParserERKN7openpal6RSliceERNS_12IAPDUHandlerE:
.LFB3239:
	.cfi_startproc
	subq	$88, %rsp
	.cfi_def_cfa_offset 96
	movdqu	(%rcx), %xmm0
	movq	_ZTVN8opendnp318BufferedCollectionINS_7IndexedINS_6AnalogEEEZNS_16CountIndexParser13InvokeCountOfINS_11Group32Var3EEEvRKNS_12HeaderRecordEtRKNS_9NumParserERKN7openpal6RSliceERNS_12IAPDUHandlerEEUlRSE_jE_EE@GOTPCREL(%rip), %rax
	movq	%rdx, 64(%rsp)
	leaq	32(%rsp), %rdx
	movups	%xmm0, 40(%rsp)
	addq	$16, %rax
	movdqu	(%rdi), %xmm0
	movq	%r8, %rdi
	movq	%rax, 32(%rsp)
	movzwl	%si, %eax
	movw	%si, 16(%rsp)
	movq	%rsp, %rsi
	movq	%rax, 56(%rsp)
	movaps	%xmm0, (%rsp)
	call	_ZN8opendnp312IAPDUHandler8OnHeaderERKNS_12PrefixHeaderERKNS_11ICollectionINS_7IndexedINS_6AnalogEEEEE@PLT
	addq	$88, %rsp
	.cfi_def_cfa_offset 8
	ret
	.cfi_endproc
.LFE3239:
	.size	_ZN8opendnp316CountIndexParser13InvokeCountOfINS_11Group32Var3EEEvRKNS_12HeaderRecordEtRKNS_9NumParserERKN7openpal6RSliceERNS_12IAPDUHandlerE, .-_ZN8opendnp316CountIndexParser13InvokeCountOfINS_11Group32Var3EEEvRKNS_12HeaderRecordEtRKNS_9NumParserERKN7openpal6RSliceERNS_12IAPDUHandlerE
	.section	.text._ZN8opendnp316CountIndexParser13InvokeCountOfINS_11Group32Var4EEEvRKNS_12HeaderRecordEtRKNS_9NumParserERKN7openpal6RSliceERNS_12IAPDUHandlerE,"axG",@progbits,_ZN8opendnp316CountIndexParser13InvokeCountOfINS_11Group32Var4EEEvRKNS_12HeaderRecordEtRKNS_9NumParserERKN7openpal6RSliceERNS_12IAPDUHandlerE,comdat
	.align 2
	.p2align 4
	.weak	_ZN8opendnp316CountIndexParser13InvokeCountOfINS_11Group32Var4EEEvRKNS_12HeaderRecordEtRKNS_9NumParserERKN7openpal6RSliceERNS_12IAPDUHandlerE
	.type	_ZN8opendnp316CountIndexParser13InvokeCountOfINS_11Group32Var4EEEvRKNS_12HeaderRecordEtRKNS_9NumParserERKN7openpal6RSliceERNS_12IAPDUHandlerE, @function
_ZN8opendnp316CountIndexParser13InvokeCountOfINS_11Group32Var4EEEvRKNS_12HeaderRecordEtRKNS_9NumParserERKN7openpal6RSliceERNS_12IAPDUHandlerE:
.LFB3244:
	.cfi_startproc
	subq	$88, %rsp
	.cfi_def_cfa_offset 96
	movdqu	(%rcx), %xmm0
	movq	_ZTVN8opendnp318BufferedCollectionINS_7IndexedINS_6AnalogEEEZNS_16CountIndexParser13InvokeCountOfINS_11Group32Var4EEEvRKNS_12HeaderRecordEtRKNS_9NumParserERKN7openpal6RSliceERNS_12IAPDUHandlerEEUlRSE_jE_EE@GOTPCREL(%rip), %rax
	movq	%rdx, 64(%rsp)
	leaq	32(%rsp), %rdx
	movups	%xmm0, 40(%rsp)
	addq	$16, %rax
	movdqu	(%rdi), %xmm0
	movq	%r8, %rdi
	movq	%rax, 32(%rsp)
	movzwl	%si, %eax
	movw	%si, 16(%rsp)
	movq	%rsp, %rsi
	movq	%rax, 56(%rsp)
	movaps	%xmm0, (%rsp)
	call	_ZN8opendnp312IAPDUHandler8OnHeaderERKNS_12PrefixHeaderERKNS_11ICollectionINS_7IndexedINS_6AnalogEEEEE@PLT
	addq	$88, %rsp
	.cfi_def_cfa_offset 8
	ret
	.cfi_endproc
.LFE3244:
	.size	_ZN8opendnp316CountIndexParser13InvokeCountOfINS_11Group32Var4EEEvRKNS_12HeaderRecordEtRKNS_9NumParserERKN7openpal6RSliceERNS_12IAPDUHandlerE, .-_ZN8opendnp316CountIndexParser13InvokeCountOfINS_11Group32Var4EEEvRKNS_12HeaderRecordEtRKNS_9NumParserERKN7openpal6RSliceERNS_12IAPDUHandlerE
	.section	.text._ZN8opendnp316CountIndexParser13InvokeCountOfINS_11Group32Var5EEEvRKNS_12HeaderRecordEtRKNS_9NumParserERKN7openpal6RSliceERNS_12IAPDUHandlerE,"axG",@progbits,_ZN8opendnp316CountIndexParser13InvokeCountOfINS_11Group32Var5EEEvRKNS_12HeaderRecordEtRKNS_9NumParserERKN7openpal6RSliceERNS_12IAPDUHandlerE,comdat
	.align 2
	.p2align 4
	.weak	_ZN8opendnp316CountIndexParser13InvokeCountOfINS_11Group32Var5EEEvRKNS_12HeaderRecordEtRKNS_9NumParserERKN7openpal6RSliceERNS_12IAPDUHandlerE
	.type	_ZN8opendnp316CountIndexParser13InvokeCountOfINS_11Group32Var5EEEvRKNS_12HeaderRecordEtRKNS_9NumParserERKN7openpal6RSliceERNS_12IAPDUHandlerE, @function
_ZN8opendnp316CountIndexParser13InvokeCountOfINS_11Group32Var5EEEvRKNS_12HeaderRecordEtRKNS_9NumParserERKN7openpal6RSliceERNS_12IAPDUHandlerE:
.LFB3249:
	.cfi_startproc
	subq	$88, %rsp
	.cfi_def_cfa_offset 96
	movdqu	(%rcx), %xmm0
	movq	_ZTVN8opendnp318BufferedCollectionINS_7IndexedINS_6AnalogEEEZNS_16CountIndexParser13InvokeCountOfINS_11Group32Var5EEEvRKNS_12HeaderRecordEtRKNS_9NumParserERKN7openpal6RSliceERNS_12IAPDUHandlerEEUlRSE_jE_EE@GOTPCREL(%rip), %rax
	movq	%rdx, 64(%rsp)
	leaq	32(%rsp), %rdx
	movups	%xmm0, 40(%rsp)
	addq	$16, %rax
	movdqu	(%rdi), %xmm0
	movq	%r8, %rdi
	movq	%rax, 32(%rsp)
	movzwl	%si, %eax
	movw	%si, 16(%rsp)
	movq	%rsp, %rsi
	movq	%rax, 56(%rsp)
	movaps	%xmm0, (%rsp)
	call	_ZN8opendnp312IAPDUHandler8OnHeaderERKNS_12PrefixHeaderERKNS_11ICollectionINS_7IndexedINS_6AnalogEEEEE@PLT
	addq	$88, %rsp
	.cfi_def_cfa_offset 8
	ret
	.cfi_endproc
.LFE3249:
	.size	_ZN8opendnp316CountIndexParser13InvokeCountOfINS_11Group32Var5EEEvRKNS_12HeaderRecordEtRKNS_9NumParserERKN7openpal6RSliceERNS_12IAPDUHandlerE, .-_ZN8opendnp316CountIndexParser13InvokeCountOfINS_11Group32Var5EEEvRKNS_12HeaderRecordEtRKNS_9NumParserERKN7openpal6RSliceERNS_12IAPDUHandlerE
	.section	.text._ZN8opendnp316CountIndexParser13InvokeCountOfINS_11Group32Var6EEEvRKNS_12HeaderRecordEtRKNS_9NumParserERKN7openpal6RSliceERNS_12IAPDUHandlerE,"axG",@progbits,_ZN8opendnp316CountIndexParser13InvokeCountOfINS_11Group32Var6EEEvRKNS_12HeaderRecordEtRKNS_9NumParserERKN7openpal6RSliceERNS_12IAPDUHandlerE,comdat
	.align 2
	.p2align 4
	.weak	_ZN8opendnp316CountIndexParser13InvokeCountOfINS_11Group32Var6EEEvRKNS_12HeaderRecordEtRKNS_9NumParserERKN7openpal6RSliceERNS_12IAPDUHandlerE
	.type	_ZN8opendnp316CountIndexParser13InvokeCountOfINS_11Group32Var6EEEvRKNS_12HeaderRecordEtRKNS_9NumParserERKN7openpal6RSliceERNS_12IAPDUHandlerE, @function
_ZN8opendnp316CountIndexParser13InvokeCountOfINS_11Group32Var6EEEvRKNS_12HeaderRecordEtRKNS_9NumParserERKN7openpal6RSliceERNS_12IAPDUHandlerE:
.LFB3254:
	.cfi_startproc
	subq	$88, %rsp
	.cfi_def_cfa_offset 96
	movdqu	(%rcx), %xmm0
	movq	_ZTVN8opendnp318BufferedCollectionINS_7IndexedINS_6AnalogEEEZNS_16CountIndexParser13InvokeCountOfINS_11Group32Var6EEEvRKNS_12HeaderRecordEtRKNS_9NumParserERKN7openpal6RSliceERNS_12IAPDUHandlerEEUlRSE_jE_EE@GOTPCREL(%rip), %rax
	movq	%rdx, 64(%rsp)
	leaq	32(%rsp), %rdx
	movups	%xmm0, 40(%rsp)
	addq	$16, %rax
	movdqu	(%rdi), %xmm0
	movq	%r8, %rdi
	movq	%rax, 32(%rsp)
	movzwl	%si, %eax
	movw	%si, 16(%rsp)
	movq	%rsp, %rsi
	movq	%rax, 56(%rsp)
	movaps	%xmm0, (%rsp)
	call	_ZN8opendnp312IAPDUHandler8OnHeaderERKNS_12PrefixHeaderERKNS_11ICollectionINS_7IndexedINS_6AnalogEEEEE@PLT
	addq	$88, %rsp
	.cfi_def_cfa_offset 8
	ret
	.cfi_endproc
.LFE3254:
	.size	_ZN8opendnp316CountIndexParser13InvokeCountOfINS_11Group32Var6EEEvRKNS_12HeaderRecordEtRKNS_9NumParserERKN7openpal6RSliceERNS_12IAPDUHandlerE, .-_ZN8opendnp316CountIndexParser13InvokeCountOfINS_11Group32Var6EEEvRKNS_12HeaderRecordEtRKNS_9NumParserERKN7openpal6RSliceERNS_12IAPDUHandlerE
	.section	.text._ZN8opendnp316CountIndexParser13InvokeCountOfINS_11Group32Var7EEEvRKNS_12HeaderRecordEtRKNS_9NumParserERKN7openpal6RSliceERNS_12IAPDUHandlerE,"axG",@progbits,_ZN8opendnp316CountIndexParser13InvokeCountOfINS_11Group32Var7EEEvRKNS_12HeaderRecordEtRKNS_9NumParserERKN7openpal6RSliceERNS_12IAPDUHandlerE,comdat
	.align 2
	.p2align 4
	.weak	_ZN8opendnp316CountIndexParser13InvokeCountOfINS_11Group32Var7EEEvRKNS_12HeaderRecordEtRKNS_9NumParserERKN7openpal6RSliceERNS_12IAPDUHandlerE
	.type	_ZN8opendnp316CountIndexParser13InvokeCountOfINS_11Group32Var7EEEvRKNS_12HeaderRecordEtRKNS_9NumParserERKN7openpal6RSliceERNS_12IAPDUHandlerE, @function
_ZN8opendnp316CountIndexParser13InvokeCountOfINS_11Group32Var7EEEvRKNS_12HeaderRecordEtRKNS_9NumParserERKN7openpal6RSliceERNS_12IAPDUHandlerE:
.LFB3259:
	.cfi_startproc
	subq	$88, %rsp
	.cfi_def_cfa_offset 96
	movdqu	(%rcx), %xmm0
	movq	_ZTVN8opendnp318BufferedCollectionINS_7IndexedINS_6AnalogEEEZNS_16CountIndexParser13InvokeCountOfINS_11Group32Var7EEEvRKNS_12HeaderRecordEtRKNS_9NumParserERKN7openpal6RSliceERNS_12IAPDUHandlerEEUlRSE_jE_EE@GOTPCREL(%rip), %rax
	movq	%rdx, 64(%rsp)
	leaq	32(%rsp), %rdx
	movups	%xmm0, 40(%rsp)
	addq	$16, %rax
	movdqu	(%rdi), %xmm0
	movq	%r8, %rdi
	movq	%rax, 32(%rsp)
	movzwl	%si, %eax
	movw	%si, 16(%rsp)
	movq	%rsp, %rsi
	movq	%rax, 56(%rsp)
	movaps	%xmm0, (%rsp)
	call	_ZN8opendnp312IAPDUHandler8OnHeaderERKNS_12PrefixHeaderERKNS_11ICollectionINS_7IndexedINS_6AnalogEEEEE@PLT
	addq	$88, %rsp
	.cfi_def_cfa_offset 8
	ret
	.cfi_endproc
.LFE3259:
	.size	_ZN8opendnp316CountIndexParser13InvokeCountOfINS_11Group32Var7EEEvRKNS_12HeaderRecordEtRKNS_9NumParserERKN7openpal6RSliceERNS_12IAPDUHandlerE, .-_ZN8opendnp316CountIndexParser13InvokeCountOfINS_11Group32Var7EEEvRKNS_12HeaderRecordEtRKNS_9NumParserERKN7openpal6RSliceERNS_12IAPDUHandlerE
	.section	.text._ZN8opendnp316CountIndexParser13InvokeCountOfINS_11Group32Var8EEEvRKNS_12HeaderRecordEtRKNS_9NumParserERKN7openpal6RSliceERNS_12IAPDUHandlerE,"axG",@progbits,_ZN8opendnp316CountIndexParser13InvokeCountOfINS_11Group32Var8EEEvRKNS_12HeaderRecordEtRKNS_9NumParserERKN7openpal6RSliceERNS_12IAPDUHandlerE,comdat
	.align 2
	.p2align 4
	.weak	_ZN8opendnp316CountIndexParser13InvokeCountOfINS_11Group32Var8EEEvRKNS_12HeaderRecordEtRKNS_9NumParserERKN7openpal6RSliceERNS_12IAPDUHandlerE
	.type	_ZN8opendnp316CountIndexParser13InvokeCountOfINS_11Group32Var8EEEvRKNS_12HeaderRecordEtRKNS_9NumParserERKN7openpal6RSliceERNS_12IAPDUHandlerE, @function
_ZN8opendnp316CountIndexParser13InvokeCountOfINS_11Group32Var8EEEvRKNS_12HeaderRecordEtRKNS_9NumParserERKN7openpal6RSliceERNS_12IAPDUHandlerE:
.LFB3264:
	.cfi_startproc
	subq	$88, %rsp
	.cfi_def_cfa_offset 96
	movdqu	(%rcx), %xmm0
	movq	_ZTVN8opendnp318BufferedCollectionINS_7IndexedINS_6AnalogEEEZNS_16CountIndexParser13InvokeCountOfINS_11Group32Var8EEEvRKNS_12HeaderRecordEtRKNS_9NumParserERKN7openpal6RSliceERNS_12IAPDUHandlerEEUlRSE_jE_EE@GOTPCREL(%rip), %rax
	movq	%rdx, 64(%rsp)
	leaq	32(%rsp), %rdx
	movups	%xmm0, 40(%rsp)
	addq	$16, %rax
	movdqu	(%rdi), %xmm0
	movq	%r8, %rdi
	movq	%rax, 32(%rsp)
	movzwl	%si, %eax
	movw	%si, 16(%rsp)
	movq	%rsp, %rsi
	movq	%rax, 56(%rsp)
	movaps	%xmm0, (%rsp)
	call	_ZN8opendnp312IAPDUHandler8OnHeaderERKNS_12PrefixHeaderERKNS_11ICollectionINS_7IndexedINS_6AnalogEEEEE@PLT
	addq	$88, %rsp
	.cfi_def_cfa_offset 8
	ret
	.cfi_endproc
.LFE3264:
	.size	_ZN8opendnp316CountIndexParser13InvokeCountOfINS_11Group32Var8EEEvRKNS_12HeaderRecordEtRKNS_9NumParserERKN7openpal6RSliceERNS_12IAPDUHandlerE, .-_ZN8opendnp316CountIndexParser13InvokeCountOfINS_11Group32Var8EEEvRKNS_12HeaderRecordEtRKNS_9NumParserERKN7openpal6RSliceERNS_12IAPDUHandlerE
	.section	.text._ZN8opendnp316CountIndexParser13InvokeCountOfINS_11Group41Var1EEEvRKNS_12HeaderRecordEtRKNS_9NumParserERKN7openpal6RSliceERNS_12IAPDUHandlerE,"axG",@progbits,_ZN8opendnp316CountIndexParser13InvokeCountOfINS_11Group41Var1EEEvRKNS_12HeaderRecordEtRKNS_9NumParserERKN7openpal6RSliceERNS_12IAPDUHandlerE,comdat
	.align 2
	.p2align 4
	.weak	_ZN8opendnp316CountIndexParser13InvokeCountOfINS_11Group41Var1EEEvRKNS_12HeaderRecordEtRKNS_9NumParserERKN7openpal6RSliceERNS_12IAPDUHandlerE
	.type	_ZN8opendnp316CountIndexParser13InvokeCountOfINS_11Group41Var1EEEvRKNS_12HeaderRecordEtRKNS_9NumParserERKN7openpal6RSliceERNS_12IAPDUHandlerE, @function
_ZN8opendnp316CountIndexParser13InvokeCountOfINS_11Group41Var1EEEvRKNS_12HeaderRecordEtRKNS_9NumParserERKN7openpal6RSliceERNS_12IAPDUHandlerE:
.LFB3269:
	.cfi_startproc
	subq	$88, %rsp
	.cfi_def_cfa_offset 96
	movdqu	(%rcx), %xmm0
	movq	_ZTVN8opendnp318BufferedCollectionINS_7IndexedINS_17AnalogOutputInt32EEEZNS_16CountIndexParser13InvokeCountOfINS_11Group41Var1EEEvRKNS_12HeaderRecordEtRKNS_9NumParserERKN7openpal6RSliceERNS_12IAPDUHandlerEEUlRSE_jE_EE@GOTPCREL(%rip), %rax
	movq	%rdx, 64(%rsp)
	leaq	32(%rsp), %rdx
	movups	%xmm0, 40(%rsp)
	addq	$16, %rax
	movdqu	(%rdi), %xmm0
	movq	%r8, %rdi
	movq	%rax, 32(%rsp)
	movzwl	%si, %eax
	movw	%si, 16(%rsp)
	movq	%rsp, %rsi
	movq	%rax, 56(%rsp)
	movaps	%xmm0, (%rsp)
	call	_ZN8opendnp312IAPDUHandler8OnHeaderERKNS_12PrefixHeaderERKNS_11ICollectionINS_7IndexedINS_17AnalogOutputInt32EEEEE@PLT
	addq	$88, %rsp
	.cfi_def_cfa_offset 8
	ret
	.cfi_endproc
.LFE3269:
	.size	_ZN8opendnp316CountIndexParser13InvokeCountOfINS_11Group41Var1EEEvRKNS_12HeaderRecordEtRKNS_9NumParserERKN7openpal6RSliceERNS_12IAPDUHandlerE, .-_ZN8opendnp316CountIndexParser13InvokeCountOfINS_11Group41Var1EEEvRKNS_12HeaderRecordEtRKNS_9NumParserERKN7openpal6RSliceERNS_12IAPDUHandlerE
	.section	.text._ZN8opendnp316CountIndexParser13InvokeCountOfINS_11Group41Var2EEEvRKNS_12HeaderRecordEtRKNS_9NumParserERKN7openpal6RSliceERNS_12IAPDUHandlerE,"axG",@progbits,_ZN8opendnp316CountIndexParser13InvokeCountOfINS_11Group41Var2EEEvRKNS_12HeaderRecordEtRKNS_9NumParserERKN7openpal6RSliceERNS_12IAPDUHandlerE,comdat
	.align 2
	.p2align 4
	.weak	_ZN8opendnp316CountIndexParser13InvokeCountOfINS_11Group41Var2EEEvRKNS_12HeaderRecordEtRKNS_9NumParserERKN7openpal6RSliceERNS_12IAPDUHandlerE
	.type	_ZN8opendnp316CountIndexParser13InvokeCountOfINS_11Group41Var2EEEvRKNS_12HeaderRecordEtRKNS_9NumParserERKN7openpal6RSliceERNS_12IAPDUHandlerE, @function
_ZN8opendnp316CountIndexParser13InvokeCountOfINS_11Group41Var2EEEvRKNS_12HeaderRecordEtRKNS_9NumParserERKN7openpal6RSliceERNS_12IAPDUHandlerE:
.LFB3277:
	.cfi_startproc
	subq	$88, %rsp
	.cfi_def_cfa_offset 96
	movdqu	(%rcx), %xmm0
	movq	_ZTVN8opendnp318BufferedCollectionINS_7IndexedINS_17AnalogOutputInt16EEEZNS_16CountIndexParser13InvokeCountOfINS_11Group41Var2EEEvRKNS_12HeaderRecordEtRKNS_9NumParserERKN7openpal6RSliceERNS_12IAPDUHandlerEEUlRSE_jE_EE@GOTPCREL(%rip), %rax
	movq	%rdx, 64(%rsp)
	leaq	32(%rsp), %rdx
	movups	%xmm0, 40(%rsp)
	addq	$16, %rax
	movdqu	(%rdi), %xmm0
	movq	%r8, %rdi
	movq	%rax, 32(%rsp)
	movzwl	%si, %eax
	movw	%si, 16(%rsp)
	movq	%rsp, %rsi
	movq	%rax, 56(%rsp)
	movaps	%xmm0, (%rsp)
	call	_ZN8opendnp312IAPDUHandler8OnHeaderERKNS_12PrefixHeaderERKNS_11ICollectionINS_7IndexedINS_17AnalogOutputInt16EEEEE@PLT
	addq	$88, %rsp
	.cfi_def_cfa_offset 8
	ret
	.cfi_endproc
.LFE3277:
	.size	_ZN8opendnp316CountIndexParser13InvokeCountOfINS_11Group41Var2EEEvRKNS_12HeaderRecordEtRKNS_9NumParserERKN7openpal6RSliceERNS_12IAPDUHandlerE, .-_ZN8opendnp316CountIndexParser13InvokeCountOfINS_11Group41Var2EEEvRKNS_12HeaderRecordEtRKNS_9NumParserERKN7openpal6RSliceERNS_12IAPDUHandlerE
	.section	.text._ZN8opendnp316CountIndexParser13InvokeCountOfINS_11Group41Var3EEEvRKNS_12HeaderRecordEtRKNS_9NumParserERKN7openpal6RSliceERNS_12IAPDUHandlerE,"axG",@progbits,_ZN8opendnp316CountIndexParser13InvokeCountOfINS_11Group41Var3EEEvRKNS_12HeaderRecordEtRKNS_9NumParserERKN7openpal6RSliceERNS_12IAPDUHandlerE,comdat
	.align 2
	.p2align 4
	.weak	_ZN8opendnp316CountIndexParser13InvokeCountOfINS_11Group41Var3EEEvRKNS_12HeaderRecordEtRKNS_9NumParserERKN7openpal6RSliceERNS_12IAPDUHandlerE
	.type	_ZN8opendnp316CountIndexParser13InvokeCountOfINS_11Group41Var3EEEvRKNS_12HeaderRecordEtRKNS_9NumParserERKN7openpal6RSliceERNS_12IAPDUHandlerE, @function
_ZN8opendnp316CountIndexParser13InvokeCountOfINS_11Group41Var3EEEvRKNS_12HeaderRecordEtRKNS_9NumParserERKN7openpal6RSliceERNS_12IAPDUHandlerE:
.LFB3285:
	.cfi_startproc
	subq	$88, %rsp
	.cfi_def_cfa_offset 96
	movdqu	(%rcx), %xmm0
	movq	_ZTVN8opendnp318BufferedCollectionINS_7IndexedINS_19AnalogOutputFloat32EEEZNS_16CountIndexParser13InvokeCountOfINS_11Group41Var3EEEvRKNS_12HeaderRecordEtRKNS_9NumParserERKN7openpal6RSliceERNS_12IAPDUHandlerEEUlRSE_jE_EE@GOTPCREL(%rip), %rax
	movq	%rdx, 64(%rsp)
	leaq	32(%rsp), %rdx
	movups	%xmm0, 40(%rsp)
	addq	$16, %rax
	movdqu	(%rdi), %xmm0
	movq	%r8, %rdi
	movq	%rax, 32(%rsp)
	movzwl	%si, %eax
	movw	%si, 16(%rsp)
	movq	%rsp, %rsi
	movq	%rax, 56(%rsp)
	movaps	%xmm0, (%rsp)
	call	_ZN8opendnp312IAPDUHandler8OnHeaderERKNS_12PrefixHeaderERKNS_11ICollectionINS_7IndexedINS_19AnalogOutputFloat32EEEEE@PLT
	addq	$88, %rsp
	.cfi_def_cfa_offset 8
	ret
	.cfi_endproc
.LFE3285:
	.size	_ZN8opendnp316CountIndexParser13InvokeCountOfINS_11Group41Var3EEEvRKNS_12HeaderRecordEtRKNS_9NumParserERKN7openpal6RSliceERNS_12IAPDUHandlerE, .-_ZN8opendnp316CountIndexParser13InvokeCountOfINS_11Group41Var3EEEvRKNS_12HeaderRecordEtRKNS_9NumParserERKN7openpal6RSliceERNS_12IAPDUHandlerE
	.section	.text._ZN8opendnp316CountIndexParser13InvokeCountOfINS_11Group41Var4EEEvRKNS_12HeaderRecordEtRKNS_9NumParserERKN7openpal6RSliceERNS_12IAPDUHandlerE,"axG",@progbits,_ZN8opendnp316CountIndexParser13InvokeCountOfINS_11Group41Var4EEEvRKNS_12HeaderRecordEtRKNS_9NumParserERKN7openpal6RSliceERNS_12IAPDUHandlerE,comdat
	.align 2
	.p2align 4
	.weak	_ZN8opendnp316CountIndexParser13InvokeCountOfINS_11Group41Var4EEEvRKNS_12HeaderRecordEtRKNS_9NumParserERKN7openpal6RSliceERNS_12IAPDUHandlerE
	.type	_ZN8opendnp316CountIndexParser13InvokeCountOfINS_11Group41Var4EEEvRKNS_12HeaderRecordEtRKNS_9NumParserERKN7openpal6RSliceERNS_12IAPDUHandlerE, @function
_ZN8opendnp316CountIndexParser13InvokeCountOfINS_11Group41Var4EEEvRKNS_12HeaderRecordEtRKNS_9NumParserERKN7openpal6RSliceERNS_12IAPDUHandlerE:
.LFB3293:
	.cfi_startproc
	subq	$88, %rsp
	.cfi_def_cfa_offset 96
	movdqu	(%rcx), %xmm0
	movq	_ZTVN8opendnp318BufferedCollectionINS_7IndexedINS_20AnalogOutputDouble64EEEZNS_16CountIndexParser13InvokeCountOfINS_11Group41Var4EEEvRKNS_12HeaderRecordEtRKNS_9NumParserERKN7openpal6RSliceERNS_12IAPDUHandlerEEUlRSE_jE_EE@GOTPCREL(%rip), %rax
	movq	%rdx, 64(%rsp)
	leaq	32(%rsp), %rdx
	movups	%xmm0, 40(%rsp)
	addq	$16, %rax
	movdqu	(%rdi), %xmm0
	movq	%r8, %rdi
	movq	%rax, 32(%rsp)
	movzwl	%si, %eax
	movw	%si, 16(%rsp)
	movq	%rsp, %rsi
	movq	%rax, 56(%rsp)
	movaps	%xmm0, (%rsp)
	call	_ZN8opendnp312IAPDUHandler8OnHeaderERKNS_12PrefixHeaderERKNS_11ICollectionINS_7IndexedINS_20AnalogOutputDouble64EEEEE@PLT
	addq	$88, %rsp
	.cfi_def_cfa_offset 8
	ret
	.cfi_endproc
.LFE3293:
	.size	_ZN8opendnp316CountIndexParser13InvokeCountOfINS_11Group41Var4EEEvRKNS_12HeaderRecordEtRKNS_9NumParserERKN7openpal6RSliceERNS_12IAPDUHandlerE, .-_ZN8opendnp316CountIndexParser13InvokeCountOfINS_11Group41Var4EEEvRKNS_12HeaderRecordEtRKNS_9NumParserERKN7openpal6RSliceERNS_12IAPDUHandlerE
	.section	.text._ZN8opendnp316CountIndexParser13InvokeCountOfINS_11Group42Var1EEEvRKNS_12HeaderRecordEtRKNS_9NumParserERKN7openpal6RSliceERNS_12IAPDUHandlerE,"axG",@progbits,_ZN8opendnp316CountIndexParser13InvokeCountOfINS_11Group42Var1EEEvRKNS_12HeaderRecordEtRKNS_9NumParserERKN7openpal6RSliceERNS_12IAPDUHandlerE,comdat
	.align 2
	.p2align 4
	.weak	_ZN8opendnp316CountIndexParser13InvokeCountOfINS_11Group42Var1EEEvRKNS_12HeaderRecordEtRKNS_9NumParserERKN7openpal6RSliceERNS_12IAPDUHandlerE
	.type	_ZN8opendnp316CountIndexParser13InvokeCountOfINS_11Group42Var1EEEvRKNS_12HeaderRecordEtRKNS_9NumParserERKN7openpal6RSliceERNS_12IAPDUHandlerE, @function
_ZN8opendnp316CountIndexParser13InvokeCountOfINS_11Group42Var1EEEvRKNS_12HeaderRecordEtRKNS_9NumParserERKN7openpal6RSliceERNS_12IAPDUHandlerE:
.LFB3301:
	.cfi_startproc
	subq	$88, %rsp
	.cfi_def_cfa_offset 96
	movdqu	(%rcx), %xmm0
	movq	_ZTVN8opendnp318BufferedCollectionINS_7IndexedINS_18AnalogOutputStatusEEEZNS_16CountIndexParser13InvokeCountOfINS_11Group42Var1EEEvRKNS_12HeaderRecordEtRKNS_9NumParserERKN7openpal6RSliceERNS_12IAPDUHandlerEEUlRSE_jE_EE@GOTPCREL(%rip), %rax
	movq	%rdx, 64(%rsp)
	leaq	32(%rsp), %rdx
	movups	%xmm0, 40(%rsp)
	addq	$16, %rax
	movdqu	(%rdi), %xmm0
	movq	%r8, %rdi
	movq	%rax, 32(%rsp)
	movzwl	%si, %eax
	movw	%si, 16(%rsp)
	movq	%rsp, %rsi
	movq	%rax, 56(%rsp)
	movaps	%xmm0, (%rsp)
	call	_ZN8opendnp312IAPDUHandler8OnHeaderERKNS_12PrefixHeaderERKNS_11ICollectionINS_7IndexedINS_18AnalogOutputStatusEEEEE@PLT
	addq	$88, %rsp
	.cfi_def_cfa_offset 8
	ret
	.cfi_endproc
.LFE3301:
	.size	_ZN8opendnp316CountIndexParser13InvokeCountOfINS_11Group42Var1EEEvRKNS_12HeaderRecordEtRKNS_9NumParserERKN7openpal6RSliceERNS_12IAPDUHandlerE, .-_ZN8opendnp316CountIndexParser13InvokeCountOfINS_11Group42Var1EEEvRKNS_12HeaderRecordEtRKNS_9NumParserERKN7openpal6RSliceERNS_12IAPDUHandlerE
	.section	.text._ZN8opendnp316CountIndexParser13InvokeCountOfINS_11Group42Var2EEEvRKNS_12HeaderRecordEtRKNS_9NumParserERKN7openpal6RSliceERNS_12IAPDUHandlerE,"axG",@progbits,_ZN8opendnp316CountIndexParser13InvokeCountOfINS_11Group42Var2EEEvRKNS_12HeaderRecordEtRKNS_9NumParserERKN7openpal6RSliceERNS_12IAPDUHandlerE,comdat
	.align 2
	.p2align 4
	.weak	_ZN8opendnp316CountIndexParser13InvokeCountOfINS_11Group42Var2EEEvRKNS_12HeaderRecordEtRKNS_9NumParserERKN7openpal6RSliceERNS_12IAPDUHandlerE
	.type	_ZN8opendnp316CountIndexParser13InvokeCountOfINS_11Group42Var2EEEvRKNS_12HeaderRecordEtRKNS_9NumParserERKN7openpal6RSliceERNS_12IAPDUHandlerE, @function
_ZN8opendnp316CountIndexParser13InvokeCountOfINS_11Group42Var2EEEvRKNS_12HeaderRecordEtRKNS_9NumParserERKN7openpal6RSliceERNS_12IAPDUHandlerE:
.LFB3309:
	.cfi_startproc
	subq	$88, %rsp
	.cfi_def_cfa_offset 96
	movdqu	(%rcx), %xmm0
	movq	_ZTVN8opendnp318BufferedCollectionINS_7IndexedINS_18AnalogOutputStatusEEEZNS_16CountIndexParser13InvokeCountOfINS_11Group42Var2EEEvRKNS_12HeaderRecordEtRKNS_9NumParserERKN7openpal6RSliceERNS_12IAPDUHandlerEEUlRSE_jE_EE@GOTPCREL(%rip), %rax
	movq	%rdx, 64(%rsp)
	leaq	32(%rsp), %rdx
	movups	%xmm0, 40(%rsp)
	addq	$16, %rax
	movdqu	(%rdi), %xmm0
	movq	%r8, %rdi
	movq	%rax, 32(%rsp)
	movzwl	%si, %eax
	movw	%si, 16(%rsp)
	movq	%rsp, %rsi
	movq	%rax, 56(%rsp)
	movaps	%xmm0, (%rsp)
	call	_ZN8opendnp312IAPDUHandler8OnHeaderERKNS_12PrefixHeaderERKNS_11ICollectionINS_7IndexedINS_18AnalogOutputStatusEEEEE@PLT
	addq	$88, %rsp
	.cfi_def_cfa_offset 8
	ret
	.cfi_endproc
.LFE3309:
	.size	_ZN8opendnp316CountIndexParser13InvokeCountOfINS_11Group42Var2EEEvRKNS_12HeaderRecordEtRKNS_9NumParserERKN7openpal6RSliceERNS_12IAPDUHandlerE, .-_ZN8opendnp316CountIndexParser13InvokeCountOfINS_11Group42Var2EEEvRKNS_12HeaderRecordEtRKNS_9NumParserERKN7openpal6RSliceERNS_12IAPDUHandlerE
	.section	.text._ZN8opendnp316CountIndexParser13InvokeCountOfINS_11Group42Var3EEEvRKNS_12HeaderRecordEtRKNS_9NumParserERKN7openpal6RSliceERNS_12IAPDUHandlerE,"axG",@progbits,_ZN8opendnp316CountIndexParser13InvokeCountOfINS_11Group42Var3EEEvRKNS_12HeaderRecordEtRKNS_9NumParserERKN7openpal6RSliceERNS_12IAPDUHandlerE,comdat
	.align 2
	.p2align 4
	.weak	_ZN8opendnp316CountIndexParser13InvokeCountOfINS_11Group42Var3EEEvRKNS_12HeaderRecordEtRKNS_9NumParserERKN7openpal6RSliceERNS_12IAPDUHandlerE
	.type	_ZN8opendnp316CountIndexParser13InvokeCountOfINS_11Group42Var3EEEvRKNS_12HeaderRecordEtRKNS_9NumParserERKN7openpal6RSliceERNS_12IAPDUHandlerE, @function
_ZN8opendnp316CountIndexParser13InvokeCountOfINS_11Group42Var3EEEvRKNS_12HeaderRecordEtRKNS_9NumParserERKN7openpal6RSliceERNS_12IAPDUHandlerE:
.LFB3314:
	.cfi_startproc
	subq	$88, %rsp
	.cfi_def_cfa_offset 96
	movdqu	(%rcx), %xmm0
	movq	_ZTVN8opendnp318BufferedCollectionINS_7IndexedINS_18AnalogOutputStatusEEEZNS_16CountIndexParser13InvokeCountOfINS_11Group42Var3EEEvRKNS_12HeaderRecordEtRKNS_9NumParserERKN7openpal6RSliceERNS_12IAPDUHandlerEEUlRSE_jE_EE@GOTPCREL(%rip), %rax
	movq	%rdx, 64(%rsp)
	leaq	32(%rsp), %rdx
	movups	%xmm0, 40(%rsp)
	addq	$16, %rax
	movdqu	(%rdi), %xmm0
	movq	%r8, %rdi
	movq	%rax, 32(%rsp)
	movzwl	%si, %eax
	movw	%si, 16(%rsp)
	movq	%rsp, %rsi
	movq	%rax, 56(%rsp)
	movaps	%xmm0, (%rsp)
	call	_ZN8opendnp312IAPDUHandler8OnHeaderERKNS_12PrefixHeaderERKNS_11ICollectionINS_7IndexedINS_18AnalogOutputStatusEEEEE@PLT
	addq	$88, %rsp
	.cfi_def_cfa_offset 8
	ret
	.cfi_endproc
.LFE3314:
	.size	_ZN8opendnp316CountIndexParser13InvokeCountOfINS_11Group42Var3EEEvRKNS_12HeaderRecordEtRKNS_9NumParserERKN7openpal6RSliceERNS_12IAPDUHandlerE, .-_ZN8opendnp316CountIndexParser13InvokeCountOfINS_11Group42Var3EEEvRKNS_12HeaderRecordEtRKNS_9NumParserERKN7openpal6RSliceERNS_12IAPDUHandlerE
	.section	.text._ZN8opendnp316CountIndexParser13InvokeCountOfINS_11Group42Var4EEEvRKNS_12HeaderRecordEtRKNS_9NumParserERKN7openpal6RSliceERNS_12IAPDUHandlerE,"axG",@progbits,_ZN8opendnp316CountIndexParser13InvokeCountOfINS_11Group42Var4EEEvRKNS_12HeaderRecordEtRKNS_9NumParserERKN7openpal6RSliceERNS_12IAPDUHandlerE,comdat
	.align 2
	.p2align 4
	.weak	_ZN8opendnp316CountIndexParser13InvokeCountOfINS_11Group42Var4EEEvRKNS_12HeaderRecordEtRKNS_9NumParserERKN7openpal6RSliceERNS_12IAPDUHandlerE
	.type	_ZN8opendnp316CountIndexParser13InvokeCountOfINS_11Group42Var4EEEvRKNS_12HeaderRecordEtRKNS_9NumParserERKN7openpal6RSliceERNS_12IAPDUHandlerE, @function
_ZN8opendnp316CountIndexParser13InvokeCountOfINS_11Group42Var4EEEvRKNS_12HeaderRecordEtRKNS_9NumParserERKN7openpal6RSliceERNS_12IAPDUHandlerE:
.LFB3319:
	.cfi_startproc
	subq	$88, %rsp
	.cfi_def_cfa_offset 96
	movdqu	(%rcx), %xmm0
	movq	_ZTVN8opendnp318BufferedCollectionINS_7IndexedINS_18AnalogOutputStatusEEEZNS_16CountIndexParser13InvokeCountOfINS_11Group42Var4EEEvRKNS_12HeaderRecordEtRKNS_9NumParserERKN7openpal6RSliceERNS_12IAPDUHandlerEEUlRSE_jE_EE@GOTPCREL(%rip), %rax
	movq	%rdx, 64(%rsp)
	leaq	32(%rsp), %rdx
	movups	%xmm0, 40(%rsp)
	addq	$16, %rax
	movdqu	(%rdi), %xmm0
	movq	%r8, %rdi
	movq	%rax, 32(%rsp)
	movzwl	%si, %eax
	movw	%si, 16(%rsp)
	movq	%rsp, %rsi
	movq	%rax, 56(%rsp)
	movaps	%xmm0, (%rsp)
	call	_ZN8opendnp312IAPDUHandler8OnHeaderERKNS_12PrefixHeaderERKNS_11ICollectionINS_7IndexedINS_18AnalogOutputStatusEEEEE@PLT
	addq	$88, %rsp
	.cfi_def_cfa_offset 8
	ret
	.cfi_endproc
.LFE3319:
	.size	_ZN8opendnp316CountIndexParser13InvokeCountOfINS_11Group42Var4EEEvRKNS_12HeaderRecordEtRKNS_9NumParserERKN7openpal6RSliceERNS_12IAPDUHandlerE, .-_ZN8opendnp316CountIndexParser13InvokeCountOfINS_11Group42Var4EEEvRKNS_12HeaderRecordEtRKNS_9NumParserERKN7openpal6RSliceERNS_12IAPDUHandlerE
	.section	.text._ZN8opendnp316CountIndexParser13InvokeCountOfINS_11Group42Var5EEEvRKNS_12HeaderRecordEtRKNS_9NumParserERKN7openpal6RSliceERNS_12IAPDUHandlerE,"axG",@progbits,_ZN8opendnp316CountIndexParser13InvokeCountOfINS_11Group42Var5EEEvRKNS_12HeaderRecordEtRKNS_9NumParserERKN7openpal6RSliceERNS_12IAPDUHandlerE,comdat
	.align 2
	.p2align 4
	.weak	_ZN8opendnp316CountIndexParser13InvokeCountOfINS_11Group42Var5EEEvRKNS_12HeaderRecordEtRKNS_9NumParserERKN7openpal6RSliceERNS_12IAPDUHandlerE
	.type	_ZN8opendnp316CountIndexParser13InvokeCountOfINS_11Group42Var5EEEvRKNS_12HeaderRecordEtRKNS_9NumParserERKN7openpal6RSliceERNS_12IAPDUHandlerE, @function
_ZN8opendnp316CountIndexParser13InvokeCountOfINS_11Group42Var5EEEvRKNS_12HeaderRecordEtRKNS_9NumParserERKN7openpal6RSliceERNS_12IAPDUHandlerE:
.LFB3324:
	.cfi_startproc
	subq	$88, %rsp
	.cfi_def_cfa_offset 96
	movdqu	(%rcx), %xmm0
	movq	_ZTVN8opendnp318BufferedCollectionINS_7IndexedINS_18AnalogOutputStatusEEEZNS_16CountIndexParser13InvokeCountOfINS_11Group42Var5EEEvRKNS_12HeaderRecordEtRKNS_9NumParserERKN7openpal6RSliceERNS_12IAPDUHandlerEEUlRSE_jE_EE@GOTPCREL(%rip), %rax
	movq	%rdx, 64(%rsp)
	leaq	32(%rsp), %rdx
	movups	%xmm0, 40(%rsp)
	addq	$16, %rax
	movdqu	(%rdi), %xmm0
	movq	%r8, %rdi
	movq	%rax, 32(%rsp)
	movzwl	%si, %eax
	movw	%si, 16(%rsp)
	movq	%rsp, %rsi
	movq	%rax, 56(%rsp)
	movaps	%xmm0, (%rsp)
	call	_ZN8opendnp312IAPDUHandler8OnHeaderERKNS_12PrefixHeaderERKNS_11ICollectionINS_7IndexedINS_18AnalogOutputStatusEEEEE@PLT
	addq	$88, %rsp
	.cfi_def_cfa_offset 8
	ret
	.cfi_endproc
.LFE3324:
	.size	_ZN8opendnp316CountIndexParser13InvokeCountOfINS_11Group42Var5EEEvRKNS_12HeaderRecordEtRKNS_9NumParserERKN7openpal6RSliceERNS_12IAPDUHandlerE, .-_ZN8opendnp316CountIndexParser13InvokeCountOfINS_11Group42Var5EEEvRKNS_12HeaderRecordEtRKNS_9NumParserERKN7openpal6RSliceERNS_12IAPDUHandlerE
	.section	.text._ZN8opendnp316CountIndexParser13InvokeCountOfINS_11Group42Var6EEEvRKNS_12HeaderRecordEtRKNS_9NumParserERKN7openpal6RSliceERNS_12IAPDUHandlerE,"axG",@progbits,_ZN8opendnp316CountIndexParser13InvokeCountOfINS_11Group42Var6EEEvRKNS_12HeaderRecordEtRKNS_9NumParserERKN7openpal6RSliceERNS_12IAPDUHandlerE,comdat
	.align 2
	.p2align 4
	.weak	_ZN8opendnp316CountIndexParser13InvokeCountOfINS_11Group42Var6EEEvRKNS_12HeaderRecordEtRKNS_9NumParserERKN7openpal6RSliceERNS_12IAPDUHandlerE
	.type	_ZN8opendnp316CountIndexParser13InvokeCountOfINS_11Group42Var6EEEvRKNS_12HeaderRecordEtRKNS_9NumParserERKN7openpal6RSliceERNS_12IAPDUHandlerE, @function
_ZN8opendnp316CountIndexParser13InvokeCountOfINS_11Group42Var6EEEvRKNS_12HeaderRecordEtRKNS_9NumParserERKN7openpal6RSliceERNS_12IAPDUHandlerE:
.LFB3329:
	.cfi_startproc
	subq	$88, %rsp
	.cfi_def_cfa_offset 96
	movdqu	(%rcx), %xmm0
	movq	_ZTVN8opendnp318BufferedCollectionINS_7IndexedINS_18AnalogOutputStatusEEEZNS_16CountIndexParser13InvokeCountOfINS_11Group42Var6EEEvRKNS_12HeaderRecordEtRKNS_9NumParserERKN7openpal6RSliceERNS_12IAPDUHandlerEEUlRSE_jE_EE@GOTPCREL(%rip), %rax
	movq	%rdx, 64(%rsp)
	leaq	32(%rsp), %rdx
	movups	%xmm0, 40(%rsp)
	addq	$16, %rax
	movdqu	(%rdi), %xmm0
	movq	%r8, %rdi
	movq	%rax, 32(%rsp)
	movzwl	%si, %eax
	movw	%si, 16(%rsp)
	movq	%rsp, %rsi
	movq	%rax, 56(%rsp)
	movaps	%xmm0, (%rsp)
	call	_ZN8opendnp312IAPDUHandler8OnHeaderERKNS_12PrefixHeaderERKNS_11ICollectionINS_7IndexedINS_18AnalogOutputStatusEEEEE@PLT
	addq	$88, %rsp
	.cfi_def_cfa_offset 8
	ret
	.cfi_endproc
.LFE3329:
	.size	_ZN8opendnp316CountIndexParser13InvokeCountOfINS_11Group42Var6EEEvRKNS_12HeaderRecordEtRKNS_9NumParserERKN7openpal6RSliceERNS_12IAPDUHandlerE, .-_ZN8opendnp316CountIndexParser13InvokeCountOfINS_11Group42Var6EEEvRKNS_12HeaderRecordEtRKNS_9NumParserERKN7openpal6RSliceERNS_12IAPDUHandlerE
	.section	.text._ZN8opendnp316CountIndexParser13InvokeCountOfINS_11Group42Var7EEEvRKNS_12HeaderRecordEtRKNS_9NumParserERKN7openpal6RSliceERNS_12IAPDUHandlerE,"axG",@progbits,_ZN8opendnp316CountIndexParser13InvokeCountOfINS_11Group42Var7EEEvRKNS_12HeaderRecordEtRKNS_9NumParserERKN7openpal6RSliceERNS_12IAPDUHandlerE,comdat
	.align 2
	.p2align 4
	.weak	_ZN8opendnp316CountIndexParser13InvokeCountOfINS_11Group42Var7EEEvRKNS_12HeaderRecordEtRKNS_9NumParserERKN7openpal6RSliceERNS_12IAPDUHandlerE
	.type	_ZN8opendnp316CountIndexParser13InvokeCountOfINS_11Group42Var7EEEvRKNS_12HeaderRecordEtRKNS_9NumParserERKN7openpal6RSliceERNS_12IAPDUHandlerE, @function
_ZN8opendnp316CountIndexParser13InvokeCountOfINS_11Group42Var7EEEvRKNS_12HeaderRecordEtRKNS_9NumParserERKN7openpal6RSliceERNS_12IAPDUHandlerE:
.LFB3334:
	.cfi_startproc
	subq	$88, %rsp
	.cfi_def_cfa_offset 96
	movdqu	(%rcx), %xmm0
	movq	_ZTVN8opendnp318BufferedCollectionINS_7IndexedINS_18AnalogOutputStatusEEEZNS_16CountIndexParser13InvokeCountOfINS_11Group42Var7EEEvRKNS_12HeaderRecordEtRKNS_9NumParserERKN7openpal6RSliceERNS_12IAPDUHandlerEEUlRSE_jE_EE@GOTPCREL(%rip), %rax
	movq	%rdx, 64(%rsp)
	leaq	32(%rsp), %rdx
	movups	%xmm0, 40(%rsp)
	addq	$16, %rax
	movdqu	(%rdi), %xmm0
	movq	%r8, %rdi
	movq	%rax, 32(%rsp)
	movzwl	%si, %eax
	movw	%si, 16(%rsp)
	movq	%rsp, %rsi
	movq	%rax, 56(%rsp)
	movaps	%xmm0, (%rsp)
	call	_ZN8opendnp312IAPDUHandler8OnHeaderERKNS_12PrefixHeaderERKNS_11ICollectionINS_7IndexedINS_18AnalogOutputStatusEEEEE@PLT
	addq	$88, %rsp
	.cfi_def_cfa_offset 8
	ret
	.cfi_endproc
.LFE3334:
	.size	_ZN8opendnp316CountIndexParser13InvokeCountOfINS_11Group42Var7EEEvRKNS_12HeaderRecordEtRKNS_9NumParserERKN7openpal6RSliceERNS_12IAPDUHandlerE, .-_ZN8opendnp316CountIndexParser13InvokeCountOfINS_11Group42Var7EEEvRKNS_12HeaderRecordEtRKNS_9NumParserERKN7openpal6RSliceERNS_12IAPDUHandlerE
	.section	.text._ZN8opendnp316CountIndexParser13InvokeCountOfINS_11Group42Var8EEEvRKNS_12HeaderRecordEtRKNS_9NumParserERKN7openpal6RSliceERNS_12IAPDUHandlerE,"axG",@progbits,_ZN8opendnp316CountIndexParser13InvokeCountOfINS_11Group42Var8EEEvRKNS_12HeaderRecordEtRKNS_9NumParserERKN7openpal6RSliceERNS_12IAPDUHandlerE,comdat
	.align 2
	.p2align 4
	.weak	_ZN8opendnp316CountIndexParser13InvokeCountOfINS_11Group42Var8EEEvRKNS_12HeaderRecordEtRKNS_9NumParserERKN7openpal6RSliceERNS_12IAPDUHandlerE
	.type	_ZN8opendnp316CountIndexParser13InvokeCountOfINS_11Group42Var8EEEvRKNS_12HeaderRecordEtRKNS_9NumParserERKN7openpal6RSliceERNS_12IAPDUHandlerE, @function
_ZN8opendnp316CountIndexParser13InvokeCountOfINS_11Group42Var8EEEvRKNS_12HeaderRecordEtRKNS_9NumParserERKN7openpal6RSliceERNS_12IAPDUHandlerE:
.LFB3339:
	.cfi_startproc
	subq	$88, %rsp
	.cfi_def_cfa_offset 96
	movdqu	(%rcx), %xmm0
	movq	_ZTVN8opendnp318BufferedCollectionINS_7IndexedINS_18AnalogOutputStatusEEEZNS_16CountIndexParser13InvokeCountOfINS_11Group42Var8EEEvRKNS_12HeaderRecordEtRKNS_9NumParserERKN7openpal6RSliceERNS_12IAPDUHandlerEEUlRSE_jE_EE@GOTPCREL(%rip), %rax
	movq	%rdx, 64(%rsp)
	leaq	32(%rsp), %rdx
	movups	%xmm0, 40(%rsp)
	addq	$16, %rax
	movdqu	(%rdi), %xmm0
	movq	%r8, %rdi
	movq	%rax, 32(%rsp)
	movzwl	%si, %eax
	movw	%si, 16(%rsp)
	movq	%rsp, %rsi
	movq	%rax, 56(%rsp)
	movaps	%xmm0, (%rsp)
	call	_ZN8opendnp312IAPDUHandler8OnHeaderERKNS_12PrefixHeaderERKNS_11ICollectionINS_7IndexedINS_18AnalogOutputStatusEEEEE@PLT
	addq	$88, %rsp
	.cfi_def_cfa_offset 8
	ret
	.cfi_endproc
.LFE3339:
	.size	_ZN8opendnp316CountIndexParser13InvokeCountOfINS_11Group42Var8EEEvRKNS_12HeaderRecordEtRKNS_9NumParserERKN7openpal6RSliceERNS_12IAPDUHandlerE, .-_ZN8opendnp316CountIndexParser13InvokeCountOfINS_11Group42Var8EEEvRKNS_12HeaderRecordEtRKNS_9NumParserERKN7openpal6RSliceERNS_12IAPDUHandlerE
	.section	.text._ZN8opendnp316CountIndexParser13InvokeCountOfINS_11Group43Var1EEEvRKNS_12HeaderRecordEtRKNS_9NumParserERKN7openpal6RSliceERNS_12IAPDUHandlerE,"axG",@progbits,_ZN8opendnp316CountIndexParser13InvokeCountOfINS_11Group43Var1EEEvRKNS_12HeaderRecordEtRKNS_9NumParserERKN7openpal6RSliceERNS_12IAPDUHandlerE,comdat
	.align 2
	.p2align 4
	.weak	_ZN8opendnp316CountIndexParser13InvokeCountOfINS_11Group43Var1EEEvRKNS_12HeaderRecordEtRKNS_9NumParserERKN7openpal6RSliceERNS_12IAPDUHandlerE
	.type	_ZN8opendnp316CountIndexParser13InvokeCountOfINS_11Group43Var1EEEvRKNS_12HeaderRecordEtRKNS_9NumParserERKN7openpal6RSliceERNS_12IAPDUHandlerE, @function
_ZN8opendnp316CountIndexParser13InvokeCountOfINS_11Group43Var1EEEvRKNS_12HeaderRecordEtRKNS_9NumParserERKN7openpal6RSliceERNS_12IAPDUHandlerE:
.LFB3344:
	.cfi_startproc
	subq	$88, %rsp
	.cfi_def_cfa_offset 96
	movdqu	(%rcx), %xmm0
	movq	_ZTVN8opendnp318BufferedCollectionINS_7IndexedINS_18AnalogCommandEventEEEZNS_16CountIndexParser13InvokeCountOfINS_11Group43Var1EEEvRKNS_12HeaderRecordEtRKNS_9NumParserERKN7openpal6RSliceERNS_12IAPDUHandlerEEUlRSE_jE_EE@GOTPCREL(%rip), %rax
	movq	%rdx, 64(%rsp)
	leaq	32(%rsp), %rdx
	movups	%xmm0, 40(%rsp)
	addq	$16, %rax
	movdqu	(%rdi), %xmm0
	movq	%r8, %rdi
	movq	%rax, 32(%rsp)
	movzwl	%si, %eax
	movw	%si, 16(%rsp)
	movq	%rsp, %rsi
	movq	%rax, 56(%rsp)
	movaps	%xmm0, (%rsp)
	call	_ZN8opendnp312IAPDUHandler8OnHeaderERKNS_12PrefixHeaderERKNS_11ICollectionINS_7IndexedINS_18AnalogCommandEventEEEEE@PLT
	addq	$88, %rsp
	.cfi_def_cfa_offset 8
	ret
	.cfi_endproc
.LFE3344:
	.size	_ZN8opendnp316CountIndexParser13InvokeCountOfINS_11Group43Var1EEEvRKNS_12HeaderRecordEtRKNS_9NumParserERKN7openpal6RSliceERNS_12IAPDUHandlerE, .-_ZN8opendnp316CountIndexParser13InvokeCountOfINS_11Group43Var1EEEvRKNS_12HeaderRecordEtRKNS_9NumParserERKN7openpal6RSliceERNS_12IAPDUHandlerE
	.section	.text._ZN8opendnp316CountIndexParser13InvokeCountOfINS_11Group43Var2EEEvRKNS_12HeaderRecordEtRKNS_9NumParserERKN7openpal6RSliceERNS_12IAPDUHandlerE,"axG",@progbits,_ZN8opendnp316CountIndexParser13InvokeCountOfINS_11Group43Var2EEEvRKNS_12HeaderRecordEtRKNS_9NumParserERKN7openpal6RSliceERNS_12IAPDUHandlerE,comdat
	.align 2
	.p2align 4
	.weak	_ZN8opendnp316CountIndexParser13InvokeCountOfINS_11Group43Var2EEEvRKNS_12HeaderRecordEtRKNS_9NumParserERKN7openpal6RSliceERNS_12IAPDUHandlerE
	.type	_ZN8opendnp316CountIndexParser13InvokeCountOfINS_11Group43Var2EEEvRKNS_12HeaderRecordEtRKNS_9NumParserERKN7openpal6RSliceERNS_12IAPDUHandlerE, @function
_ZN8opendnp316CountIndexParser13InvokeCountOfINS_11Group43Var2EEEvRKNS_12HeaderRecordEtRKNS_9NumParserERKN7openpal6RSliceERNS_12IAPDUHandlerE:
.LFB3352:
	.cfi_startproc
	subq	$88, %rsp
	.cfi_def_cfa_offset 96
	movdqu	(%rcx), %xmm0
	movq	_ZTVN8opendnp318BufferedCollectionINS_7IndexedINS_18AnalogCommandEventEEEZNS_16CountIndexParser13InvokeCountOfINS_11Group43Var2EEEvRKNS_12HeaderRecordEtRKNS_9NumParserERKN7openpal6RSliceERNS_12IAPDUHandlerEEUlRSE_jE_EE@GOTPCREL(%rip), %rax
	movq	%rdx, 64(%rsp)
	leaq	32(%rsp), %rdx
	movups	%xmm0, 40(%rsp)
	addq	$16, %rax
	movdqu	(%rdi), %xmm0
	movq	%r8, %rdi
	movq	%rax, 32(%rsp)
	movzwl	%si, %eax
	movw	%si, 16(%rsp)
	movq	%rsp, %rsi
	movq	%rax, 56(%rsp)
	movaps	%xmm0, (%rsp)
	call	_ZN8opendnp312IAPDUHandler8OnHeaderERKNS_12PrefixHeaderERKNS_11ICollectionINS_7IndexedINS_18AnalogCommandEventEEEEE@PLT
	addq	$88, %rsp
	.cfi_def_cfa_offset 8
	ret
	.cfi_endproc
.LFE3352:
	.size	_ZN8opendnp316CountIndexParser13InvokeCountOfINS_11Group43Var2EEEvRKNS_12HeaderRecordEtRKNS_9NumParserERKN7openpal6RSliceERNS_12IAPDUHandlerE, .-_ZN8opendnp316CountIndexParser13InvokeCountOfINS_11Group43Var2EEEvRKNS_12HeaderRecordEtRKNS_9NumParserERKN7openpal6RSliceERNS_12IAPDUHandlerE
	.section	.text._ZN8opendnp316CountIndexParser13InvokeCountOfINS_11Group43Var3EEEvRKNS_12HeaderRecordEtRKNS_9NumParserERKN7openpal6RSliceERNS_12IAPDUHandlerE,"axG",@progbits,_ZN8opendnp316CountIndexParser13InvokeCountOfINS_11Group43Var3EEEvRKNS_12HeaderRecordEtRKNS_9NumParserERKN7openpal6RSliceERNS_12IAPDUHandlerE,comdat
	.align 2
	.p2align 4
	.weak	_ZN8opendnp316CountIndexParser13InvokeCountOfINS_11Group43Var3EEEvRKNS_12HeaderRecordEtRKNS_9NumParserERKN7openpal6RSliceERNS_12IAPDUHandlerE
	.type	_ZN8opendnp316CountIndexParser13InvokeCountOfINS_11Group43Var3EEEvRKNS_12HeaderRecordEtRKNS_9NumParserERKN7openpal6RSliceERNS_12IAPDUHandlerE, @function
_ZN8opendnp316CountIndexParser13InvokeCountOfINS_11Group43Var3EEEvRKNS_12HeaderRecordEtRKNS_9NumParserERKN7openpal6RSliceERNS_12IAPDUHandlerE:
.LFB3357:
	.cfi_startproc
	subq	$88, %rsp
	.cfi_def_cfa_offset 96
	movdqu	(%rcx), %xmm0
	movq	_ZTVN8opendnp318BufferedCollectionINS_7IndexedINS_18AnalogCommandEventEEEZNS_16CountIndexParser13InvokeCountOfINS_11Group43Var3EEEvRKNS_12HeaderRecordEtRKNS_9NumParserERKN7openpal6RSliceERNS_12IAPDUHandlerEEUlRSE_jE_EE@GOTPCREL(%rip), %rax
	movq	%rdx, 64(%rsp)
	leaq	32(%rsp), %rdx
	movups	%xmm0, 40(%rsp)
	addq	$16, %rax
	movdqu	(%rdi), %xmm0
	movq	%r8, %rdi
	movq	%rax, 32(%rsp)
	movzwl	%si, %eax
	movw	%si, 16(%rsp)
	movq	%rsp, %rsi
	movq	%rax, 56(%rsp)
	movaps	%xmm0, (%rsp)
	call	_ZN8opendnp312IAPDUHandler8OnHeaderERKNS_12PrefixHeaderERKNS_11ICollectionINS_7IndexedINS_18AnalogCommandEventEEEEE@PLT
	addq	$88, %rsp
	.cfi_def_cfa_offset 8
	ret
	.cfi_endproc
.LFE3357:
	.size	_ZN8opendnp316CountIndexParser13InvokeCountOfINS_11Group43Var3EEEvRKNS_12HeaderRecordEtRKNS_9NumParserERKN7openpal6RSliceERNS_12IAPDUHandlerE, .-_ZN8opendnp316CountIndexParser13InvokeCountOfINS_11Group43Var3EEEvRKNS_12HeaderRecordEtRKNS_9NumParserERKN7openpal6RSliceERNS_12IAPDUHandlerE
	.section	.text._ZN8opendnp316CountIndexParser13InvokeCountOfINS_11Group43Var4EEEvRKNS_12HeaderRecordEtRKNS_9NumParserERKN7openpal6RSliceERNS_12IAPDUHandlerE,"axG",@progbits,_ZN8opendnp316CountIndexParser13InvokeCountOfINS_11Group43Var4EEEvRKNS_12HeaderRecordEtRKNS_9NumParserERKN7openpal6RSliceERNS_12IAPDUHandlerE,comdat
	.align 2
	.p2align 4
	.weak	_ZN8opendnp316CountIndexParser13InvokeCountOfINS_11Group43Var4EEEvRKNS_12HeaderRecordEtRKNS_9NumParserERKN7openpal6RSliceERNS_12IAPDUHandlerE
	.type	_ZN8opendnp316CountIndexParser13InvokeCountOfINS_11Group43Var4EEEvRKNS_12HeaderRecordEtRKNS_9NumParserERKN7openpal6RSliceERNS_12IAPDUHandlerE, @function
_ZN8opendnp316CountIndexParser13InvokeCountOfINS_11Group43Var4EEEvRKNS_12HeaderRecordEtRKNS_9NumParserERKN7openpal6RSliceERNS_12IAPDUHandlerE:
.LFB3362:
	.cfi_startproc
	subq	$88, %rsp
	.cfi_def_cfa_offset 96
	movdqu	(%rcx), %xmm0
	movq	_ZTVN8opendnp318BufferedCollectionINS_7IndexedINS_18AnalogCommandEventEEEZNS_16CountIndexParser13InvokeCountOfINS_11Group43Var4EEEvRKNS_12HeaderRecordEtRKNS_9NumParserERKN7openpal6RSliceERNS_12IAPDUHandlerEEUlRSE_jE_EE@GOTPCREL(%rip), %rax
	movq	%rdx, 64(%rsp)
	leaq	32(%rsp), %rdx
	movups	%xmm0, 40(%rsp)
	addq	$16, %rax
	movdqu	(%rdi), %xmm0
	movq	%r8, %rdi
	movq	%rax, 32(%rsp)
	movzwl	%si, %eax
	movw	%si, 16(%rsp)
	movq	%rsp, %rsi
	movq	%rax, 56(%rsp)
	movaps	%xmm0, (%rsp)
	call	_ZN8opendnp312IAPDUHandler8OnHeaderERKNS_12PrefixHeaderERKNS_11ICollectionINS_7IndexedINS_18AnalogCommandEventEEEEE@PLT
	addq	$88, %rsp
	.cfi_def_cfa_offset 8
	ret
	.cfi_endproc
.LFE3362:
	.size	_ZN8opendnp316CountIndexParser13InvokeCountOfINS_11Group43Var4EEEvRKNS_12HeaderRecordEtRKNS_9NumParserERKN7openpal6RSliceERNS_12IAPDUHandlerE, .-_ZN8opendnp316CountIndexParser13InvokeCountOfINS_11Group43Var4EEEvRKNS_12HeaderRecordEtRKNS_9NumParserERKN7openpal6RSliceERNS_12IAPDUHandlerE
	.section	.text._ZN8opendnp316CountIndexParser13InvokeCountOfINS_11Group43Var5EEEvRKNS_12HeaderRecordEtRKNS_9NumParserERKN7openpal6RSliceERNS_12IAPDUHandlerE,"axG",@progbits,_ZN8opendnp316CountIndexParser13InvokeCountOfINS_11Group43Var5EEEvRKNS_12HeaderRecordEtRKNS_9NumParserERKN7openpal6RSliceERNS_12IAPDUHandlerE,comdat
	.align 2
	.p2align 4
	.weak	_ZN8opendnp316CountIndexParser13InvokeCountOfINS_11Group43Var5EEEvRKNS_12HeaderRecordEtRKNS_9NumParserERKN7openpal6RSliceERNS_12IAPDUHandlerE
	.type	_ZN8opendnp316CountIndexParser13InvokeCountOfINS_11Group43Var5EEEvRKNS_12HeaderRecordEtRKNS_9NumParserERKN7openpal6RSliceERNS_12IAPDUHandlerE, @function
_ZN8opendnp316CountIndexParser13InvokeCountOfINS_11Group43Var5EEEvRKNS_12HeaderRecordEtRKNS_9NumParserERKN7openpal6RSliceERNS_12IAPDUHandlerE:
.LFB3367:
	.cfi_startproc
	subq	$88, %rsp
	.cfi_def_cfa_offset 96
	movdqu	(%rcx), %xmm0
	movq	_ZTVN8opendnp318BufferedCollectionINS_7IndexedINS_18AnalogCommandEventEEEZNS_16CountIndexParser13InvokeCountOfINS_11Group43Var5EEEvRKNS_12HeaderRecordEtRKNS_9NumParserERKN7openpal6RSliceERNS_12IAPDUHandlerEEUlRSE_jE_EE@GOTPCREL(%rip), %rax
	movq	%rdx, 64(%rsp)
	leaq	32(%rsp), %rdx
	movups	%xmm0, 40(%rsp)
	addq	$16, %rax
	movdqu	(%rdi), %xmm0
	movq	%r8, %rdi
	movq	%rax, 32(%rsp)
	movzwl	%si, %eax
	movw	%si, 16(%rsp)
	movq	%rsp, %rsi
	movq	%rax, 56(%rsp)
	movaps	%xmm0, (%rsp)
	call	_ZN8opendnp312IAPDUHandler8OnHeaderERKNS_12PrefixHeaderERKNS_11ICollectionINS_7IndexedINS_18AnalogCommandEventEEEEE@PLT
	addq	$88, %rsp
	.cfi_def_cfa_offset 8
	ret
	.cfi_endproc
.LFE3367:
	.size	_ZN8opendnp316CountIndexParser13InvokeCountOfINS_11Group43Var5EEEvRKNS_12HeaderRecordEtRKNS_9NumParserERKN7openpal6RSliceERNS_12IAPDUHandlerE, .-_ZN8opendnp316CountIndexParser13InvokeCountOfINS_11Group43Var5EEEvRKNS_12HeaderRecordEtRKNS_9NumParserERKN7openpal6RSliceERNS_12IAPDUHandlerE
	.section	.text._ZN8opendnp316CountIndexParser13InvokeCountOfINS_11Group43Var6EEEvRKNS_12HeaderRecordEtRKNS_9NumParserERKN7openpal6RSliceERNS_12IAPDUHandlerE,"axG",@progbits,_ZN8opendnp316CountIndexParser13InvokeCountOfINS_11Group43Var6EEEvRKNS_12HeaderRecordEtRKNS_9NumParserERKN7openpal6RSliceERNS_12IAPDUHandlerE,comdat
	.align 2
	.p2align 4
	.weak	_ZN8opendnp316CountIndexParser13InvokeCountOfINS_11Group43Var6EEEvRKNS_12HeaderRecordEtRKNS_9NumParserERKN7openpal6RSliceERNS_12IAPDUHandlerE
	.type	_ZN8opendnp316CountIndexParser13InvokeCountOfINS_11Group43Var6EEEvRKNS_12HeaderRecordEtRKNS_9NumParserERKN7openpal6RSliceERNS_12IAPDUHandlerE, @function
_ZN8opendnp316CountIndexParser13InvokeCountOfINS_11Group43Var6EEEvRKNS_12HeaderRecordEtRKNS_9NumParserERKN7openpal6RSliceERNS_12IAPDUHandlerE:
.LFB3372:
	.cfi_startproc
	subq	$88, %rsp
	.cfi_def_cfa_offset 96
	movdqu	(%rcx), %xmm0
	movq	_ZTVN8opendnp318BufferedCollectionINS_7IndexedINS_18AnalogCommandEventEEEZNS_16CountIndexParser13InvokeCountOfINS_11Group43Var6EEEvRKNS_12HeaderRecordEtRKNS_9NumParserERKN7openpal6RSliceERNS_12IAPDUHandlerEEUlRSE_jE_EE@GOTPCREL(%rip), %rax
	movq	%rdx, 64(%rsp)
	leaq	32(%rsp), %rdx
	movups	%xmm0, 40(%rsp)
	addq	$16, %rax
	movdqu	(%rdi), %xmm0
	movq	%r8, %rdi
	movq	%rax, 32(%rsp)
	movzwl	%si, %eax
	movw	%si, 16(%rsp)
	movq	%rsp, %rsi
	movq	%rax, 56(%rsp)
	movaps	%xmm0, (%rsp)
	call	_ZN8opendnp312IAPDUHandler8OnHeaderERKNS_12PrefixHeaderERKNS_11ICollectionINS_7IndexedINS_18AnalogCommandEventEEEEE@PLT
	addq	$88, %rsp
	.cfi_def_cfa_offset 8
	ret
	.cfi_endproc
.LFE3372:
	.size	_ZN8opendnp316CountIndexParser13InvokeCountOfINS_11Group43Var6EEEvRKNS_12HeaderRecordEtRKNS_9NumParserERKN7openpal6RSliceERNS_12IAPDUHandlerE, .-_ZN8opendnp316CountIndexParser13InvokeCountOfINS_11Group43Var6EEEvRKNS_12HeaderRecordEtRKNS_9NumParserERKN7openpal6RSliceERNS_12IAPDUHandlerE
	.section	.text._ZN8opendnp316CountIndexParser13InvokeCountOfINS_11Group43Var7EEEvRKNS_12HeaderRecordEtRKNS_9NumParserERKN7openpal6RSliceERNS_12IAPDUHandlerE,"axG",@progbits,_ZN8opendnp316CountIndexParser13InvokeCountOfINS_11Group43Var7EEEvRKNS_12HeaderRecordEtRKNS_9NumParserERKN7openpal6RSliceERNS_12IAPDUHandlerE,comdat
	.align 2
	.p2align 4
	.weak	_ZN8opendnp316CountIndexParser13InvokeCountOfINS_11Group43Var7EEEvRKNS_12HeaderRecordEtRKNS_9NumParserERKN7openpal6RSliceERNS_12IAPDUHandlerE
	.type	_ZN8opendnp316CountIndexParser13InvokeCountOfINS_11Group43Var7EEEvRKNS_12HeaderRecordEtRKNS_9NumParserERKN7openpal6RSliceERNS_12IAPDUHandlerE, @function
_ZN8opendnp316CountIndexParser13InvokeCountOfINS_11Group43Var7EEEvRKNS_12HeaderRecordEtRKNS_9NumParserERKN7openpal6RSliceERNS_12IAPDUHandlerE:
.LFB3377:
	.cfi_startproc
	subq	$88, %rsp
	.cfi_def_cfa_offset 96
	movdqu	(%rcx), %xmm0
	movq	_ZTVN8opendnp318BufferedCollectionINS_7IndexedINS_18AnalogCommandEventEEEZNS_16CountIndexParser13InvokeCountOfINS_11Group43Var7EEEvRKNS_12HeaderRecordEtRKNS_9NumParserERKN7openpal6RSliceERNS_12IAPDUHandlerEEUlRSE_jE_EE@GOTPCREL(%rip), %rax
	movq	%rdx, 64(%rsp)
	leaq	32(%rsp), %rdx
	movups	%xmm0, 40(%rsp)
	addq	$16, %rax
	movdqu	(%rdi), %xmm0
	movq	%r8, %rdi
	movq	%rax, 32(%rsp)
	movzwl	%si, %eax
	movw	%si, 16(%rsp)
	movq	%rsp, %rsi
	movq	%rax, 56(%rsp)
	movaps	%xmm0, (%rsp)
	call	_ZN8opendnp312IAPDUHandler8OnHeaderERKNS_12PrefixHeaderERKNS_11ICollectionINS_7IndexedINS_18AnalogCommandEventEEEEE@PLT
	addq	$88, %rsp
	.cfi_def_cfa_offset 8
	ret
	.cfi_endproc
.LFE3377:
	.size	_ZN8opendnp316CountIndexParser13InvokeCountOfINS_11Group43Var7EEEvRKNS_12HeaderRecordEtRKNS_9NumParserERKN7openpal6RSliceERNS_12IAPDUHandlerE, .-_ZN8opendnp316CountIndexParser13InvokeCountOfINS_11Group43Var7EEEvRKNS_12HeaderRecordEtRKNS_9NumParserERKN7openpal6RSliceERNS_12IAPDUHandlerE
	.section	.text._ZN8opendnp316CountIndexParser13InvokeCountOfINS_11Group43Var8EEEvRKNS_12HeaderRecordEtRKNS_9NumParserERKN7openpal6RSliceERNS_12IAPDUHandlerE,"axG",@progbits,_ZN8opendnp316CountIndexParser13InvokeCountOfINS_11Group43Var8EEEvRKNS_12HeaderRecordEtRKNS_9NumParserERKN7openpal6RSliceERNS_12IAPDUHandlerE,comdat
	.align 2
	.p2align 4
	.weak	_ZN8opendnp316CountIndexParser13InvokeCountOfINS_11Group43Var8EEEvRKNS_12HeaderRecordEtRKNS_9NumParserERKN7openpal6RSliceERNS_12IAPDUHandlerE
	.type	_ZN8opendnp316CountIndexParser13InvokeCountOfINS_11Group43Var8EEEvRKNS_12HeaderRecordEtRKNS_9NumParserERKN7openpal6RSliceERNS_12IAPDUHandlerE, @function
_ZN8opendnp316CountIndexParser13InvokeCountOfINS_11Group43Var8EEEvRKNS_12HeaderRecordEtRKNS_9NumParserERKN7openpal6RSliceERNS_12IAPDUHandlerE:
.LFB3382:
	.cfi_startproc
	subq	$88, %rsp
	.cfi_def_cfa_offset 96
	movdqu	(%rcx), %xmm0
	movq	_ZTVN8opendnp318BufferedCollectionINS_7IndexedINS_18AnalogCommandEventEEEZNS_16CountIndexParser13InvokeCountOfINS_11Group43Var8EEEvRKNS_12HeaderRecordEtRKNS_9NumParserERKN7openpal6RSliceERNS_12IAPDUHandlerEEUlRSE_jE_EE@GOTPCREL(%rip), %rax
	movq	%rdx, 64(%rsp)
	leaq	32(%rsp), %rdx
	movups	%xmm0, 40(%rsp)
	addq	$16, %rax
	movdqu	(%rdi), %xmm0
	movq	%r8, %rdi
	movq	%rax, 32(%rsp)
	movzwl	%si, %eax
	movw	%si, 16(%rsp)
	movq	%rsp, %rsi
	movq	%rax, 56(%rsp)
	movaps	%xmm0, (%rsp)
	call	_ZN8opendnp312IAPDUHandler8OnHeaderERKNS_12PrefixHeaderERKNS_11ICollectionINS_7IndexedINS_18AnalogCommandEventEEEEE@PLT
	addq	$88, %rsp
	.cfi_def_cfa_offset 8
	ret
	.cfi_endproc
.LFE3382:
	.size	_ZN8opendnp316CountIndexParser13InvokeCountOfINS_11Group43Var8EEEvRKNS_12HeaderRecordEtRKNS_9NumParserERKN7openpal6RSliceERNS_12IAPDUHandlerE, .-_ZN8opendnp316CountIndexParser13InvokeCountOfINS_11Group43Var8EEEvRKNS_12HeaderRecordEtRKNS_9NumParserERKN7openpal6RSliceERNS_12IAPDUHandlerE
	.section	.text._ZN8opendnp316CountIndexParser13InvokeCountOfINS_11Group50Var4EEEvRKNS_12HeaderRecordEtRKNS_9NumParserERKN7openpal6RSliceERNS_12IAPDUHandlerE,"axG",@progbits,_ZN8opendnp316CountIndexParser13InvokeCountOfINS_11Group50Var4EEEvRKNS_12HeaderRecordEtRKNS_9NumParserERKN7openpal6RSliceERNS_12IAPDUHandlerE,comdat
	.align 2
	.p2align 4
	.weak	_ZN8opendnp316CountIndexParser13InvokeCountOfINS_11Group50Var4EEEvRKNS_12HeaderRecordEtRKNS_9NumParserERKN7openpal6RSliceERNS_12IAPDUHandlerE
	.type	_ZN8opendnp316CountIndexParser13InvokeCountOfINS_11Group50Var4EEEvRKNS_12HeaderRecordEtRKNS_9NumParserERKN7openpal6RSliceERNS_12IAPDUHandlerE, @function
_ZN8opendnp316CountIndexParser13InvokeCountOfINS_11Group50Var4EEEvRKNS_12HeaderRecordEtRKNS_9NumParserERKN7openpal6RSliceERNS_12IAPDUHandlerE:
.LFB3387:
	.cfi_startproc
	subq	$88, %rsp
	.cfi_def_cfa_offset 96
	movdqu	(%rcx), %xmm0
	movq	_ZTVN8opendnp318BufferedCollectionINS_7IndexedINS_15TimeAndIntervalEEEZNS_16CountIndexParser13InvokeCountOfINS_11Group50Var4EEEvRKNS_12HeaderRecordEtRKNS_9NumParserERKN7openpal6RSliceERNS_12IAPDUHandlerEEUlRSE_jE_EE@GOTPCREL(%rip), %rax
	movq	%rdx, 64(%rsp)
	leaq	32(%rsp), %rdx
	movups	%xmm0, 40(%rsp)
	addq	$16, %rax
	movdqu	(%rdi), %xmm0
	movq	%r8, %rdi
	movq	%rax, 32(%rsp)
	movzwl	%si, %eax
	movw	%si, 16(%rsp)
	movq	%rsp, %rsi
	movq	%rax, 56(%rsp)
	movaps	%xmm0, (%rsp)
	call	_ZN8opendnp312IAPDUHandler8OnHeaderERKNS_12PrefixHeaderERKNS_11ICollectionINS_7IndexedINS_15TimeAndIntervalEEEEE@PLT
	addq	$88, %rsp
	.cfi_def_cfa_offset 8
	ret
	.cfi_endproc
.LFE3387:
	.size	_ZN8opendnp316CountIndexParser13InvokeCountOfINS_11Group50Var4EEEvRKNS_12HeaderRecordEtRKNS_9NumParserERKN7openpal6RSliceERNS_12IAPDUHandlerE, .-_ZN8opendnp316CountIndexParser13InvokeCountOfINS_11Group50Var4EEEvRKNS_12HeaderRecordEtRKNS_9NumParserERKN7openpal6RSliceERNS_12IAPDUHandlerE
	.section	.text._ZN8opendnp316CountIndexParser17InvokeCountOfTypeINS_12Group122Var1EEEvRKNS_12HeaderRecordEtRKNS_9NumParserERKN7openpal6RSliceERNS_12IAPDUHandlerE,"axG",@progbits,_ZN8opendnp316CountIndexParser17InvokeCountOfTypeINS_12Group122Var1EEEvRKNS_12HeaderRecordEtRKNS_9NumParserERKN7openpal6RSliceERNS_12IAPDUHandlerE,comdat
	.align 2
	.p2align 4
	.weak	_ZN8opendnp316CountIndexParser17InvokeCountOfTypeINS_12Group122Var1EEEvRKNS_12HeaderRecordEtRKNS_9NumParserERKN7openpal6RSliceERNS_12IAPDUHandlerE
	.type	_ZN8opendnp316CountIndexParser17InvokeCountOfTypeINS_12Group122Var1EEEvRKNS_12HeaderRecordEtRKNS_9NumParserERKN7openpal6RSliceERNS_12IAPDUHandlerE, @function
_ZN8opendnp316CountIndexParser17InvokeCountOfTypeINS_12Group122Var1EEEvRKNS_12HeaderRecordEtRKNS_9NumParserERKN7openpal6RSliceERNS_12IAPDUHandlerE:
.LFB3395:
	.cfi_startproc
	subq	$88, %rsp
	.cfi_def_cfa_offset 96
	movdqu	(%rcx), %xmm0
	movq	_ZTVN8opendnp318BufferedCollectionINS_7IndexedINS_12Group122Var1EEEZNS_16CountIndexParser17InvokeCountOfTypeIS2_EEvRKNS_12HeaderRecordEtRKNS_9NumParserERKN7openpal6RSliceERNS_12IAPDUHandlerEEUlRSD_jE_EE@GOTPCREL(%rip), %rax
	movq	%rdx, 64(%rsp)
	leaq	32(%rsp), %rdx
	movups	%xmm0, 40(%rsp)
	addq	$16, %rax
	movdqu	(%rdi), %xmm0
	movq	%r8, %rdi
	movq	%rax, 32(%rsp)
	movzwl	%si, %eax
	movw	%si, 16(%rsp)
	movq	%rsp, %rsi
	movq	%rax, 56(%rsp)
	movaps	%xmm0, (%rsp)
	call	_ZN8opendnp312IAPDUHandler8OnHeaderERKNS_12PrefixHeaderERKNS_11ICollectionINS_7IndexedINS_12Group122Var1EEEEE@PLT
	addq	$88, %rsp
	.cfi_def_cfa_offset 8
	ret
	.cfi_endproc
.LFE3395:
	.size	_ZN8opendnp316CountIndexParser17InvokeCountOfTypeINS_12Group122Var1EEEvRKNS_12HeaderRecordEtRKNS_9NumParserERKN7openpal6RSliceERNS_12IAPDUHandlerE, .-_ZN8opendnp316CountIndexParser17InvokeCountOfTypeINS_12Group122Var1EEEvRKNS_12HeaderRecordEtRKNS_9NumParserERKN7openpal6RSliceERNS_12IAPDUHandlerE
	.section	.text._ZN8opendnp316CountIndexParser17InvokeCountOfTypeINS_12Group122Var2EEEvRKNS_12HeaderRecordEtRKNS_9NumParserERKN7openpal6RSliceERNS_12IAPDUHandlerE,"axG",@progbits,_ZN8opendnp316CountIndexParser17InvokeCountOfTypeINS_12Group122Var2EEEvRKNS_12HeaderRecordEtRKNS_9NumParserERKN7openpal6RSliceERNS_12IAPDUHandlerE,comdat
	.align 2
	.p2align 4
	.weak	_ZN8opendnp316CountIndexParser17InvokeCountOfTypeINS_12Group122Var2EEEvRKNS_12HeaderRecordEtRKNS_9NumParserERKN7openpal6RSliceERNS_12IAPDUHandlerE
	.type	_ZN8opendnp316CountIndexParser17InvokeCountOfTypeINS_12Group122Var2EEEvRKNS_12HeaderRecordEtRKNS_9NumParserERKN7openpal6RSliceERNS_12IAPDUHandlerE, @function
_ZN8opendnp316CountIndexParser17InvokeCountOfTypeINS_12Group122Var2EEEvRKNS_12HeaderRecordEtRKNS_9NumParserERKN7openpal6RSliceERNS_12IAPDUHandlerE:
.LFB3403:
	.cfi_startproc
	subq	$88, %rsp
	.cfi_def_cfa_offset 96
	movdqu	(%rcx), %xmm0
	movq	_ZTVN8opendnp318BufferedCollectionINS_7IndexedINS_12Group122Var2EEEZNS_16CountIndexParser17InvokeCountOfTypeIS2_EEvRKNS_12HeaderRecordEtRKNS_9NumParserERKN7openpal6RSliceERNS_12IAPDUHandlerEEUlRSD_jE_EE@GOTPCREL(%rip), %rax
	movq	%rdx, 64(%rsp)
	leaq	32(%rsp), %rdx
	movups	%xmm0, 40(%rsp)
	addq	$16, %rax
	movdqu	(%rdi), %xmm0
	movq	%r8, %rdi
	movq	%rax, 32(%rsp)
	movzwl	%si, %eax
	movw	%si, 16(%rsp)
	movq	%rsp, %rsi
	movq	%rax, 56(%rsp)
	movaps	%xmm0, (%rsp)
	call	_ZN8opendnp312IAPDUHandler8OnHeaderERKNS_12PrefixHeaderERKNS_11ICollectionINS_7IndexedINS_12Group122Var2EEEEE@PLT
	addq	$88, %rsp
	.cfi_def_cfa_offset 8
	ret
	.cfi_endproc
.LFE3403:
	.size	_ZN8opendnp316CountIndexParser17InvokeCountOfTypeINS_12Group122Var2EEEvRKNS_12HeaderRecordEtRKNS_9NumParserERKN7openpal6RSliceERNS_12IAPDUHandlerE, .-_ZN8opendnp316CountIndexParser17InvokeCountOfTypeINS_12Group122Var2EEEvRKNS_12HeaderRecordEtRKNS_9NumParserERKN7openpal6RSliceERNS_12IAPDUHandlerE
	.section	.text._ZN7openpal12StaticBufferILj255EED0Ev,"axG",@progbits,_ZN7openpal12StaticBufferILj255EED5Ev,comdat
	.align 2
	.p2align 4
	.weak	_ZN7openpal12StaticBufferILj255EED0Ev
	.type	_ZN7openpal12StaticBufferILj255EED0Ev, @function
_ZN7openpal12StaticBufferILj255EED0Ev:
.LFB2783:
	.cfi_startproc
	movl	$264, %esi
	jmp	_ZdlPvm@PLT
	.cfi_endproc
.LFE2783:
	.size	_ZN7openpal12StaticBufferILj255EED0Ev, .-_ZN7openpal12StaticBufferILj255EED0Ev
	.section	.text._ZNK8opendnp318BufferedCollectionINS_7IndexedINS_12Group122Var2EEEZNS_16CountIndexParser17InvokeCountOfTypeIS2_EEvRKNS_12HeaderRecordEtRKNS_9NumParserERKN7openpal6RSliceERNS_12IAPDUHandlerEEUlRSD_jE_E7ForeachERNS_8IVisitorIS3_EE,"axG",@progbits,_ZNK8opendnp318BufferedCollectionINS_7IndexedINS_12Group122Var2EEEZNS_16CountIndexParser17InvokeCountOfTypeIS2_EEvRKNS_12HeaderRecordEtRKNS_9NumParserERKN7openpal6RSliceERNS_12IAPDUHandlerEEUlRSD_jE_E7ForeachERNS_8IVisitorIS3_EE,comdat
	.align 2
	.p2align 4
	.weak	_ZNK8opendnp318BufferedCollectionINS_7IndexedINS_12Group122Var2EEEZNS_16CountIndexParser17InvokeCountOfTypeIS2_EEvRKNS_12HeaderRecordEtRKNS_9NumParserERKN7openpal6RSliceERNS_12IAPDUHandlerEEUlRSD_jE_E7ForeachERNS_8IVisitorIS3_EE
	.type	_ZNK8opendnp318BufferedCollectionINS_7IndexedINS_12Group122Var2EEEZNS_16CountIndexParser17InvokeCountOfTypeIS2_EEvRKNS_12HeaderRecordEtRKNS_9NumParserERKN7openpal6RSliceERNS_12IAPDUHandlerEEUlRSD_jE_E7ForeachERNS_8IVisitorIS3_EE, @function
_ZNK8opendnp318BufferedCollectionINS_7IndexedINS_12Group122Var2EEEZNS_16CountIndexParser17InvokeCountOfTypeIS2_EEvRKNS_12HeaderRecordEtRKNS_9NumParserERKN7openpal6RSliceERNS_12IAPDUHandlerEEUlRSD_jE_E7ForeachERNS_8IVisitorIS3_EE:
.LFB3946:
	.cfi_startproc
	pushq	%r15
	.cfi_def_cfa_offset 16
	.cfi_offset 15, -16
	pushq	%r14
	.cfi_def_cfa_offset 24
	.cfi_offset 14, -24
	pushq	%r13
	.cfi_def_cfa_offset 32
	.cfi_offset 13, -32
	pushq	%r12
	.cfi_def_cfa_offset 40
	.cfi_offset 12, -40
	pushq	%rbp
	.cfi_def_cfa_offset 48
	.cfi_offset 6, -48
	pushq	%rbx
	.cfi_def_cfa_offset 56
	.cfi_offset 3, -56
	subq	$56, %rsp
	.cfi_def_cfa_offset 112
	movdqu	8(%rdi), %xmm0
	movaps	%xmm0, (%rsp)
	cmpq	$0, 24(%rdi)
	je	.L155
	movq	%rsi, %r13
	movq	%rdi, %r12
	xorl	%ebp, %ebp
	.p2align 4
	.p2align 3
.L157:
	movq	0(%r13), %rax
	leaq	16(%rsp), %rdi
	movq	(%rax), %r15
	call	_ZN8opendnp312Group122Var2C1Ev@PLT
	movq	32(%r12), %rdi
	xorl	%eax, %eax
	movq	%rsp, %rsi
	movw	%ax, 32(%rsp)
	call	_ZNK8opendnp39NumParser7ReadNumERN7openpal6RSliceE@PLT
	leaq	16(%rsp), %rsi
	movq	%rsp, %rdi
	movw	%ax, 32(%rsp)
	call	_ZN8opendnp312Group122Var24ReadERN7openpal6RSliceERS0_@PLT
	leaq	16(%rsp), %rsi
	movq	%r13, %rdi
	call	*%r15
	leal	1(%rbp), %eax
	movq	%rax, %rbp
	cmpq	24(%r12), %rax
	jb	.L157
.L155:
	addq	$56, %rsp
	.cfi_def_cfa_offset 56
	popq	%rbx
	.cfi_def_cfa_offset 48
	popq	%rbp
	.cfi_def_cfa_offset 40
	popq	%r12
	.cfi_def_cfa_offset 32
	popq	%r13
	.cfi_def_cfa_offset 24
	popq	%r14
	.cfi_def_cfa_offset 16
	popq	%r15
	.cfi_def_cfa_offset 8
	ret
	.cfi_endproc
.LFE3946:
	.size	_ZNK8opendnp318BufferedCollectionINS_7IndexedINS_12Group122Var2EEEZNS_16CountIndexParser17InvokeCountOfTypeIS2_EEvRKNS_12HeaderRecordEtRKNS_9NumParserERKN7openpal6RSliceERNS_12IAPDUHandlerEEUlRSD_jE_E7ForeachERNS_8IVisitorIS3_EE, .-_ZNK8opendnp318BufferedCollectionINS_7IndexedINS_12Group122Var2EEEZNS_16CountIndexParser17InvokeCountOfTypeIS2_EEvRKNS_12HeaderRecordEtRKNS_9NumParserERKN7openpal6RSliceERNS_12IAPDUHandlerEEUlRSD_jE_E7ForeachERNS_8IVisitorIS3_EE
	.section	.text._ZNK8opendnp318BufferedCollectionINS_7IndexedINS_12Group122Var1EEEZNS_16CountIndexParser17InvokeCountOfTypeIS2_EEvRKNS_12HeaderRecordEtRKNS_9NumParserERKN7openpal6RSliceERNS_12IAPDUHandlerEEUlRSD_jE_E7ForeachERNS_8IVisitorIS3_EE,"axG",@progbits,_ZNK8opendnp318BufferedCollectionINS_7IndexedINS_12Group122Var1EEEZNS_16CountIndexParser17InvokeCountOfTypeIS2_EEvRKNS_12HeaderRecordEtRKNS_9NumParserERKN7openpal6RSliceERNS_12IAPDUHandlerEEUlRSD_jE_E7ForeachERNS_8IVisitorIS3_EE,comdat
	.align 2
	.p2align 4
	.weak	_ZNK8opendnp318BufferedCollectionINS_7IndexedINS_12Group122Var1EEEZNS_16CountIndexParser17InvokeCountOfTypeIS2_EEvRKNS_12HeaderRecordEtRKNS_9NumParserERKN7openpal6RSliceERNS_12IAPDUHandlerEEUlRSD_jE_E7ForeachERNS_8IVisitorIS3_EE
	.type	_ZNK8opendnp318BufferedCollectionINS_7IndexedINS_12Group122Var1EEEZNS_16CountIndexParser17InvokeCountOfTypeIS2_EEvRKNS_12HeaderRecordEtRKNS_9NumParserERKN7openpal6RSliceERNS_12IAPDUHandlerEEUlRSD_jE_E7ForeachERNS_8IVisitorIS3_EE, @function
_ZNK8opendnp318BufferedCollectionINS_7IndexedINS_12Group122Var1EEEZNS_16CountIndexParser17InvokeCountOfTypeIS2_EEvRKNS_12HeaderRecordEtRKNS_9NumParserERKN7openpal6RSliceERNS_12IAPDUHandlerEEUlRSD_jE_E7ForeachERNS_8IVisitorIS3_EE:
.LFB3948:
	.cfi_startproc
	pushq	%r15
	.cfi_def_cfa_offset 16
	.cfi_offset 15, -16
	pushq	%r14
	.cfi_def_cfa_offset 24
	.cfi_offset 14, -24
	pushq	%r13
	.cfi_def_cfa_offset 32
	.cfi_offset 13, -32
	pushq	%r12
	.cfi_def_cfa_offset 40
	.cfi_offset 12, -40
	pushq	%rbp
	.cfi_def_cfa_offset 48
	.cfi_offset 6, -48
	pushq	%rbx
	.cfi_def_cfa_offset 56
	.cfi_offset 3, -56
	subq	$40, %rsp
	.cfi_def_cfa_offset 96
	movdqu	8(%rdi), %xmm0
	movaps	%xmm0, 16(%rsp)
	cmpq	$0, 24(%rdi)
	je	.L160
	movq	%rsi, %r13
	movq	%rdi, %r12
	xorl	%ebp, %ebp
	.p2align 4
	.p2align 3
.L162:
	movq	0(%r13), %rax
	leaq	4(%rsp), %rdi
	movq	(%rax), %r15
	call	_ZN8opendnp312Group122Var1C1Ev@PLT
	movq	32(%r12), %rdi
	xorl	%eax, %eax
	leaq	16(%rsp), %rsi
	movw	%ax, 12(%rsp)
	call	_ZNK8opendnp39NumParser7ReadNumERN7openpal6RSliceE@PLT
	leaq	4(%rsp), %rsi
	leaq	16(%rsp), %rdi
	movw	%ax, 12(%rsp)
	call	_ZN8opendnp312Group122Var14ReadERN7openpal6RSliceERS0_@PLT
	leaq	4(%rsp), %rsi
	movq	%r13, %rdi
	call	*%r15
	leal	1(%rbp), %eax
	movq	%rax, %rbp
	cmpq	24(%r12), %rax
	jb	.L162
.L160:
	addq	$40, %rsp
	.cfi_def_cfa_offset 56
	popq	%rbx
	.cfi_def_cfa_offset 48
	popq	%rbp
	.cfi_def_cfa_offset 40
	popq	%r12
	.cfi_def_cfa_offset 32
	popq	%r13
	.cfi_def_cfa_offset 24
	popq	%r14
	.cfi_def_cfa_offset 16
	popq	%r15
	.cfi_def_cfa_offset 8
	ret
	.cfi_endproc
.LFE3948:
	.size	_ZNK8opendnp318BufferedCollectionINS_7IndexedINS_12Group122Var1EEEZNS_16CountIndexParser17InvokeCountOfTypeIS2_EEvRKNS_12HeaderRecordEtRKNS_9NumParserERKN7openpal6RSliceERNS_12IAPDUHandlerEEUlRSD_jE_E7ForeachERNS_8IVisitorIS3_EE, .-_ZNK8opendnp318BufferedCollectionINS_7IndexedINS_12Group122Var1EEEZNS_16CountIndexParser17InvokeCountOfTypeIS2_EEvRKNS_12HeaderRecordEtRKNS_9NumParserERKN7openpal6RSliceERNS_12IAPDUHandlerEEUlRSD_jE_E7ForeachERNS_8IVisitorIS3_EE
	.section	.text._ZNK8opendnp318BufferedCollectionINS_7IndexedINS_15TimeAndIntervalEEEZNS_16CountIndexParser13InvokeCountOfINS_11Group50Var4EEEvRKNS_12HeaderRecordEtRKNS_9NumParserERKN7openpal6RSliceERNS_12IAPDUHandlerEEUlRSE_jE_E7ForeachERNS_8IVisitorIS3_EE,"axG",@progbits,_ZNK8opendnp318BufferedCollectionINS_7IndexedINS_15TimeAndIntervalEEEZNS_16CountIndexParser13InvokeCountOfINS_11Group50Var4EEEvRKNS_12HeaderRecordEtRKNS_9NumParserERKN7openpal6RSliceERNS_12IAPDUHandlerEEUlRSE_jE_E7ForeachERNS_8IVisitorIS3_EE,comdat
	.align 2
	.p2align 4
	.weak	_ZNK8opendnp318BufferedCollectionINS_7IndexedINS_15TimeAndIntervalEEEZNS_16CountIndexParser13InvokeCountOfINS_11Group50Var4EEEvRKNS_12HeaderRecordEtRKNS_9NumParserERKN7openpal6RSliceERNS_12IAPDUHandlerEEUlRSE_jE_E7ForeachERNS_8IVisitorIS3_EE
	.type	_ZNK8opendnp318BufferedCollectionINS_7IndexedINS_15TimeAndIntervalEEEZNS_16CountIndexParser13InvokeCountOfINS_11Group50Var4EEEvRKNS_12HeaderRecordEtRKNS_9NumParserERKN7openpal6RSliceERNS_12IAPDUHandlerEEUlRSE_jE_E7ForeachERNS_8IVisitorIS3_EE, @function
_ZNK8opendnp318BufferedCollectionINS_7IndexedINS_15TimeAndIntervalEEEZNS_16CountIndexParser13InvokeCountOfINS_11Group50Var4EEEvRKNS_12HeaderRecordEtRKNS_9NumParserERKN7openpal6RSliceERNS_12IAPDUHandlerEEUlRSE_jE_E7ForeachERNS_8IVisitorIS3_EE:
.LFB3950:
	.cfi_startproc
	pushq	%r15
	.cfi_def_cfa_offset 16
	.cfi_offset 15, -16
	pushq	%r14
	.cfi_def_cfa_offset 24
	.cfi_offset 14, -24
	pushq	%r13
	.cfi_def_cfa_offset 32
	.cfi_offset 13, -32
	pushq	%r12
	.cfi_def_cfa_offset 40
	.cfi_offset 12, -40
	pushq	%rbp
	.cfi_def_cfa_offset 48
	.cfi_offset 6, -48
	pushq	%rbx
	.cfi_def_cfa_offset 56
	.cfi_offset 3, -56
	subq	$56, %rsp
	.cfi_def_cfa_offset 112
	movdqu	8(%rdi), %xmm0
	movaps	%xmm0, (%rsp)
	cmpq	$0, 24(%rdi)
	je	.L165
	movq	%rsi, %r13
	movq	%rdi, %r12
	xorl	%ebp, %ebp
	.p2align 4
	.p2align 3
.L167:
	movq	0(%r13), %rax
	leaq	16(%rsp), %rdi
	movq	(%rax), %r15
	call	_ZN8opendnp315TimeAndIntervalC1Ev@PLT
	movq	32(%r12), %rdi
	xorl	%eax, %eax
	movq	%rsp, %rsi
	movw	%ax, 32(%rsp)
	call	_ZNK8opendnp39NumParser7ReadNumERN7openpal6RSliceE@PLT
	leaq	16(%rsp), %rsi
	movq	%rsp, %rdi
	movw	%ax, 32(%rsp)
	call	_ZN8opendnp311Group50Var410ReadTargetERN7openpal6RSliceERNS_15TimeAndIntervalE@PLT
	leaq	16(%rsp), %rsi
	movq	%r13, %rdi
	call	*%r15
	leal	1(%rbp), %eax
	movq	%rax, %rbp
	cmpq	24(%r12), %rax
	jb	.L167
.L165:
	addq	$56, %rsp
	.cfi_def_cfa_offset 56
	popq	%rbx
	.cfi_def_cfa_offset 48
	popq	%rbp
	.cfi_def_cfa_offset 40
	popq	%r12
	.cfi_def_cfa_offset 32
	popq	%r13
	.cfi_def_cfa_offset 24
	popq	%r14
	.cfi_def_cfa_offset 16
	popq	%r15
	.cfi_def_cfa_offset 8
	ret
	.cfi_endproc
.LFE3950:
	.size	_ZNK8opendnp318BufferedCollectionINS_7IndexedINS_15TimeAndIntervalEEEZNS_16CountIndexParser13InvokeCountOfINS_11Group50Var4EEEvRKNS_12HeaderRecordEtRKNS_9NumParserERKN7openpal6RSliceERNS_12IAPDUHandlerEEUlRSE_jE_E7ForeachERNS_8IVisitorIS3_EE, .-_ZNK8opendnp318BufferedCollectionINS_7IndexedINS_15TimeAndIntervalEEEZNS_16CountIndexParser13InvokeCountOfINS_11Group50Var4EEEvRKNS_12HeaderRecordEtRKNS_9NumParserERKN7openpal6RSliceERNS_12IAPDUHandlerEEUlRSE_jE_E7ForeachERNS_8IVisitorIS3_EE
	.section	.text._ZNK8opendnp318BufferedCollectionINS_7IndexedINS_18AnalogCommandEventEEEZNS_16CountIndexParser13InvokeCountOfINS_11Group43Var8EEEvRKNS_12HeaderRecordEtRKNS_9NumParserERKN7openpal6RSliceERNS_12IAPDUHandlerEEUlRSE_jE_E7ForeachERNS_8IVisitorIS3_EE,"axG",@progbits,_ZNK8opendnp318BufferedCollectionINS_7IndexedINS_18AnalogCommandEventEEEZNS_16CountIndexParser13InvokeCountOfINS_11Group43Var8EEEvRKNS_12HeaderRecordEtRKNS_9NumParserERKN7openpal6RSliceERNS_12IAPDUHandlerEEUlRSE_jE_E7ForeachERNS_8IVisitorIS3_EE,comdat
	.align 2
	.p2align 4
	.weak	_ZNK8opendnp318BufferedCollectionINS_7IndexedINS_18AnalogCommandEventEEEZNS_16CountIndexParser13InvokeCountOfINS_11Group43Var8EEEvRKNS_12HeaderRecordEtRKNS_9NumParserERKN7openpal6RSliceERNS_12IAPDUHandlerEEUlRSE_jE_E7ForeachERNS_8IVisitorIS3_EE
	.type	_ZNK8opendnp318BufferedCollectionINS_7IndexedINS_18AnalogCommandEventEEEZNS_16CountIndexParser13InvokeCountOfINS_11Group43Var8EEEvRKNS_12HeaderRecordEtRKNS_9NumParserERKN7openpal6RSliceERNS_12IAPDUHandlerEEUlRSE_jE_E7ForeachERNS_8IVisitorIS3_EE, @function
_ZNK8opendnp318BufferedCollectionINS_7IndexedINS_18AnalogCommandEventEEEZNS_16CountIndexParser13InvokeCountOfINS_11Group43Var8EEEvRKNS_12HeaderRecordEtRKNS_9NumParserERKN7openpal6RSliceERNS_12IAPDUHandlerEEUlRSE_jE_E7ForeachERNS_8IVisitorIS3_EE:
.LFB3952:
	.cfi_startproc
	pushq	%r15
	.cfi_def_cfa_offset 16
	.cfi_offset 15, -16
	pushq	%r14
	.cfi_def_cfa_offset 24
	.cfi_offset 14, -24
	pushq	%r13
	.cfi_def_cfa_offset 32
	.cfi_offset 13, -32
	pushq	%r12
	.cfi_def_cfa_offset 40
	.cfi_offset 12, -40
	pushq	%rbp
	.cfi_def_cfa_offset 48
	.cfi_offset 6, -48
	pushq	%rbx
	.cfi_def_cfa_offset 56
	.cfi_offset 3, -56
	subq	$56, %rsp
	.cfi_def_cfa_offset 112
	movdqu	8(%rdi), %xmm0
	movaps	%xmm0, (%rsp)
	cmpq	$0, 24(%rdi)
	je	.L170
	movq	%rsi, %r13
	movq	%rdi, %r12
	xorl	%ebp, %ebp
	.p2align 4
	.p2align 3
.L172:
	movq	0(%r13), %rax
	leaq	16(%rsp), %rdi
	movq	(%rax), %r15
	call	_ZN8opendnp318AnalogCommandEventC1Ev@PLT
	movq	32(%r12), %rdi
	xorl	%eax, %eax
	movq	%rsp, %rsi
	movw	%ax, 40(%rsp)
	call	_ZNK8opendnp39NumParser7ReadNumERN7openpal6RSliceE@PLT
	leaq	16(%rsp), %rsi
	movq	%rsp, %rdi
	movw	%ax, 40(%rsp)
	call	_ZN8opendnp311Group43Var810ReadTargetERN7openpal6RSliceERNS_18AnalogCommandEventE@PLT
	leaq	16(%rsp), %rsi
	movq	%r13, %rdi
	call	*%r15
	leal	1(%rbp), %eax
	movq	%rax, %rbp
	cmpq	24(%r12), %rax
	jb	.L172
.L170:
	addq	$56, %rsp
	.cfi_def_cfa_offset 56
	popq	%rbx
	.cfi_def_cfa_offset 48
	popq	%rbp
	.cfi_def_cfa_offset 40
	popq	%r12
	.cfi_def_cfa_offset 32
	popq	%r13
	.cfi_def_cfa_offset 24
	popq	%r14
	.cfi_def_cfa_offset 16
	popq	%r15
	.cfi_def_cfa_offset 8
	ret
	.cfi_endproc
.LFE3952:
	.size	_ZNK8opendnp318BufferedCollectionINS_7IndexedINS_18AnalogCommandEventEEEZNS_16CountIndexParser13InvokeCountOfINS_11Group43Var8EEEvRKNS_12HeaderRecordEtRKNS_9NumParserERKN7openpal6RSliceERNS_12IAPDUHandlerEEUlRSE_jE_E7ForeachERNS_8IVisitorIS3_EE, .-_ZNK8opendnp318BufferedCollectionINS_7IndexedINS_18AnalogCommandEventEEEZNS_16CountIndexParser13InvokeCountOfINS_11Group43Var8EEEvRKNS_12HeaderRecordEtRKNS_9NumParserERKN7openpal6RSliceERNS_12IAPDUHandlerEEUlRSE_jE_E7ForeachERNS_8IVisitorIS3_EE
	.section	.text._ZNK8opendnp318BufferedCollectionINS_7IndexedINS_18AnalogCommandEventEEEZNS_16CountIndexParser13InvokeCountOfINS_11Group43Var7EEEvRKNS_12HeaderRecordEtRKNS_9NumParserERKN7openpal6RSliceERNS_12IAPDUHandlerEEUlRSE_jE_E7ForeachERNS_8IVisitorIS3_EE,"axG",@progbits,_ZNK8opendnp318BufferedCollectionINS_7IndexedINS_18AnalogCommandEventEEEZNS_16CountIndexParser13InvokeCountOfINS_11Group43Var7EEEvRKNS_12HeaderRecordEtRKNS_9NumParserERKN7openpal6RSliceERNS_12IAPDUHandlerEEUlRSE_jE_E7ForeachERNS_8IVisitorIS3_EE,comdat
	.align 2
	.p2align 4
	.weak	_ZNK8opendnp318BufferedCollectionINS_7IndexedINS_18AnalogCommandEventEEEZNS_16CountIndexParser13InvokeCountOfINS_11Group43Var7EEEvRKNS_12HeaderRecordEtRKNS_9NumParserERKN7openpal6RSliceERNS_12IAPDUHandlerEEUlRSE_jE_E7ForeachERNS_8IVisitorIS3_EE
	.type	_ZNK8opendnp318BufferedCollectionINS_7IndexedINS_18AnalogCommandEventEEEZNS_16CountIndexParser13InvokeCountOfINS_11Group43Var7EEEvRKNS_12HeaderRecordEtRKNS_9NumParserERKN7openpal6RSliceERNS_12IAPDUHandlerEEUlRSE_jE_E7ForeachERNS_8IVisitorIS3_EE, @function
_ZNK8opendnp318BufferedCollectionINS_7IndexedINS_18AnalogCommandEventEEEZNS_16CountIndexParser13InvokeCountOfINS_11Group43Var7EEEvRKNS_12HeaderRecordEtRKNS_9NumParserERKN7openpal6RSliceERNS_12IAPDUHandlerEEUlRSE_jE_E7ForeachERNS_8IVisitorIS3_EE:
.LFB3954:
	.cfi_startproc
	pushq	%r15
	.cfi_def_cfa_offset 16
	.cfi_offset 15, -16
	pushq	%r14
	.cfi_def_cfa_offset 24
	.cfi_offset 14, -24
	pushq	%r13
	.cfi_def_cfa_offset 32
	.cfi_offset 13, -32
	pushq	%r12
	.cfi_def_cfa_offset 40
	.cfi_offset 12, -40
	pushq	%rbp
	.cfi_def_cfa_offset 48
	.cfi_offset 6, -48
	pushq	%rbx
	.cfi_def_cfa_offset 56
	.cfi_offset 3, -56
	subq	$56, %rsp
	.cfi_def_cfa_offset 112
	movdqu	8(%rdi), %xmm0
	movaps	%xmm0, (%rsp)
	cmpq	$0, 24(%rdi)
	je	.L175
	movq	%rsi, %r13
	movq	%rdi, %r12
	xorl	%ebp, %ebp
	.p2align 4
	.p2align 3
.L177:
	movq	0(%r13), %rax
	leaq	16(%rsp), %rdi
	movq	(%rax), %r15
	call	_ZN8opendnp318AnalogCommandEventC1Ev@PLT
	movq	32(%r12), %rdi
	xorl	%eax, %eax
	movq	%rsp, %rsi
	movw	%ax, 40(%rsp)
	call	_ZNK8opendnp39NumParser7ReadNumERN7openpal6RSliceE@PLT
	leaq	16(%rsp), %rsi
	movq	%rsp, %rdi
	movw	%ax, 40(%rsp)
	call	_ZN8opendnp311Group43Var710ReadTargetERN7openpal6RSliceERNS_18AnalogCommandEventE@PLT
	leaq	16(%rsp), %rsi
	movq	%r13, %rdi
	call	*%r15
	leal	1(%rbp), %eax
	movq	%rax, %rbp
	cmpq	24(%r12), %rax
	jb	.L177
.L175:
	addq	$56, %rsp
	.cfi_def_cfa_offset 56
	popq	%rbx
	.cfi_def_cfa_offset 48
	popq	%rbp
	.cfi_def_cfa_offset 40
	popq	%r12
	.cfi_def_cfa_offset 32
	popq	%r13
	.cfi_def_cfa_offset 24
	popq	%r14
	.cfi_def_cfa_offset 16
	popq	%r15
	.cfi_def_cfa_offset 8
	ret
	.cfi_endproc
.LFE3954:
	.size	_ZNK8opendnp318BufferedCollectionINS_7IndexedINS_18AnalogCommandEventEEEZNS_16CountIndexParser13InvokeCountOfINS_11Group43Var7EEEvRKNS_12HeaderRecordEtRKNS_9NumParserERKN7openpal6RSliceERNS_12IAPDUHandlerEEUlRSE_jE_E7ForeachERNS_8IVisitorIS3_EE, .-_ZNK8opendnp318BufferedCollectionINS_7IndexedINS_18AnalogCommandEventEEEZNS_16CountIndexParser13InvokeCountOfINS_11Group43Var7EEEvRKNS_12HeaderRecordEtRKNS_9NumParserERKN7openpal6RSliceERNS_12IAPDUHandlerEEUlRSE_jE_E7ForeachERNS_8IVisitorIS3_EE
	.section	.text._ZNK8opendnp318BufferedCollectionINS_7IndexedINS_18AnalogCommandEventEEEZNS_16CountIndexParser13InvokeCountOfINS_11Group43Var6EEEvRKNS_12HeaderRecordEtRKNS_9NumParserERKN7openpal6RSliceERNS_12IAPDUHandlerEEUlRSE_jE_E7ForeachERNS_8IVisitorIS3_EE,"axG",@progbits,_ZNK8opendnp318BufferedCollectionINS_7IndexedINS_18AnalogCommandEventEEEZNS_16CountIndexParser13InvokeCountOfINS_11Group43Var6EEEvRKNS_12HeaderRecordEtRKNS_9NumParserERKN7openpal6RSliceERNS_12IAPDUHandlerEEUlRSE_jE_E7ForeachERNS_8IVisitorIS3_EE,comdat
	.align 2
	.p2align 4
	.weak	_ZNK8opendnp318BufferedCollectionINS_7IndexedINS_18AnalogCommandEventEEEZNS_16CountIndexParser13InvokeCountOfINS_11Group43Var6EEEvRKNS_12HeaderRecordEtRKNS_9NumParserERKN7openpal6RSliceERNS_12IAPDUHandlerEEUlRSE_jE_E7ForeachERNS_8IVisitorIS3_EE
	.type	_ZNK8opendnp318BufferedCollectionINS_7IndexedINS_18AnalogCommandEventEEEZNS_16CountIndexParser13InvokeCountOfINS_11Group43Var6EEEvRKNS_12HeaderRecordEtRKNS_9NumParserERKN7openpal6RSliceERNS_12IAPDUHandlerEEUlRSE_jE_E7ForeachERNS_8IVisitorIS3_EE, @function
_ZNK8opendnp318BufferedCollectionINS_7IndexedINS_18AnalogCommandEventEEEZNS_16CountIndexParser13InvokeCountOfINS_11Group43Var6EEEvRKNS_12HeaderRecordEtRKNS_9NumParserERKN7openpal6RSliceERNS_12IAPDUHandlerEEUlRSE_jE_E7ForeachERNS_8IVisitorIS3_EE:
.LFB3956:
	.cfi_startproc
	pushq	%r15
	.cfi_def_cfa_offset 16
	.cfi_offset 15, -16
	pushq	%r14
	.cfi_def_cfa_offset 24
	.cfi_offset 14, -24
	pushq	%r13
	.cfi_def_cfa_offset 32
	.cfi_offset 13, -32
	pushq	%r12
	.cfi_def_cfa_offset 40
	.cfi_offset 12, -40
	pushq	%rbp
	.cfi_def_cfa_offset 48
	.cfi_offset 6, -48
	pushq	%rbx
	.cfi_def_cfa_offset 56
	.cfi_offset 3, -56
	subq	$56, %rsp
	.cfi_def_cfa_offset 112
	movdqu	8(%rdi), %xmm0
	movaps	%xmm0, (%rsp)
	cmpq	$0, 24(%rdi)
	je	.L180
	movq	%rsi, %r13
	movq	%rdi, %r12
	xorl	%ebp, %ebp
	.p2align 4
	.p2align 3
.L182:
	movq	0(%r13), %rax
	leaq	16(%rsp), %rdi
	movq	(%rax), %r15
	call	_ZN8opendnp318AnalogCommandEventC1Ev@PLT
	movq	32(%r12), %rdi
	xorl	%eax, %eax
	movq	%rsp, %rsi
	movw	%ax, 40(%rsp)
	call	_ZNK8opendnp39NumParser7ReadNumERN7openpal6RSliceE@PLT
	leaq	16(%rsp), %rsi
	movq	%rsp, %rdi
	movw	%ax, 40(%rsp)
	call	_ZN8opendnp311Group43Var610ReadTargetERN7openpal6RSliceERNS_18AnalogCommandEventE@PLT
	leaq	16(%rsp), %rsi
	movq	%r13, %rdi
	call	*%r15
	leal	1(%rbp), %eax
	movq	%rax, %rbp
	cmpq	24(%r12), %rax
	jb	.L182
.L180:
	addq	$56, %rsp
	.cfi_def_cfa_offset 56
	popq	%rbx
	.cfi_def_cfa_offset 48
	popq	%rbp
	.cfi_def_cfa_offset 40
	popq	%r12
	.cfi_def_cfa_offset 32
	popq	%r13
	.cfi_def_cfa_offset 24
	popq	%r14
	.cfi_def_cfa_offset 16
	popq	%r15
	.cfi_def_cfa_offset 8
	ret
	.cfi_endproc
.LFE3956:
	.size	_ZNK8opendnp318BufferedCollectionINS_7IndexedINS_18AnalogCommandEventEEEZNS_16CountIndexParser13InvokeCountOfINS_11Group43Var6EEEvRKNS_12HeaderRecordEtRKNS_9NumParserERKN7openpal6RSliceERNS_12IAPDUHandlerEEUlRSE_jE_E7ForeachERNS_8IVisitorIS3_EE, .-_ZNK8opendnp318BufferedCollectionINS_7IndexedINS_18AnalogCommandEventEEEZNS_16CountIndexParser13InvokeCountOfINS_11Group43Var6EEEvRKNS_12HeaderRecordEtRKNS_9NumParserERKN7openpal6RSliceERNS_12IAPDUHandlerEEUlRSE_jE_E7ForeachERNS_8IVisitorIS3_EE
	.section	.text._ZNK8opendnp318BufferedCollectionINS_7IndexedINS_18AnalogCommandEventEEEZNS_16CountIndexParser13InvokeCountOfINS_11Group43Var5EEEvRKNS_12HeaderRecordEtRKNS_9NumParserERKN7openpal6RSliceERNS_12IAPDUHandlerEEUlRSE_jE_E7ForeachERNS_8IVisitorIS3_EE,"axG",@progbits,_ZNK8opendnp318BufferedCollectionINS_7IndexedINS_18AnalogCommandEventEEEZNS_16CountIndexParser13InvokeCountOfINS_11Group43Var5EEEvRKNS_12HeaderRecordEtRKNS_9NumParserERKN7openpal6RSliceERNS_12IAPDUHandlerEEUlRSE_jE_E7ForeachERNS_8IVisitorIS3_EE,comdat
	.align 2
	.p2align 4
	.weak	_ZNK8opendnp318BufferedCollectionINS_7IndexedINS_18AnalogCommandEventEEEZNS_16CountIndexParser13InvokeCountOfINS_11Group43Var5EEEvRKNS_12HeaderRecordEtRKNS_9NumParserERKN7openpal6RSliceERNS_12IAPDUHandlerEEUlRSE_jE_E7ForeachERNS_8IVisitorIS3_EE
	.type	_ZNK8opendnp318BufferedCollectionINS_7IndexedINS_18AnalogCommandEventEEEZNS_16CountIndexParser13InvokeCountOfINS_11Group43Var5EEEvRKNS_12HeaderRecordEtRKNS_9NumParserERKN7openpal6RSliceERNS_12IAPDUHandlerEEUlRSE_jE_E7ForeachERNS_8IVisitorIS3_EE, @function
_ZNK8opendnp318BufferedCollectionINS_7IndexedINS_18AnalogCommandEventEEEZNS_16CountIndexParser13InvokeCountOfINS_11Group43Var5EEEvRKNS_12HeaderRecordEtRKNS_9NumParserERKN7openpal6RSliceERNS_12IAPDUHandlerEEUlRSE_jE_E7ForeachERNS_8IVisitorIS3_EE:
.LFB3958:
	.cfi_startproc
	pushq	%r15
	.cfi_def_cfa_offset 16
	.cfi_offset 15, -16
	pushq	%r14
	.cfi_def_cfa_offset 24
	.cfi_offset 14, -24
	pushq	%r13
	.cfi_def_cfa_offset 32
	.cfi_offset 13, -32
	pushq	%r12
	.cfi_def_cfa_offset 40
	.cfi_offset 12, -40
	pushq	%rbp
	.cfi_def_cfa_offset 48
	.cfi_offset 6, -48
	pushq	%rbx
	.cfi_def_cfa_offset 56
	.cfi_offset 3, -56
	subq	$56, %rsp
	.cfi_def_cfa_offset 112
	movdqu	8(%rdi), %xmm0
	movaps	%xmm0, (%rsp)
	cmpq	$0, 24(%rdi)
	je	.L185
	movq	%rsi, %r13
	movq	%rdi, %r12
	xorl	%ebp, %ebp
	.p2align 4
	.p2align 3
.L187:
	movq	0(%r13), %rax
	leaq	16(%rsp), %rdi
	movq	(%rax), %r15
	call	_ZN8opendnp318AnalogCommandEventC1Ev@PLT
	movq	32(%r12), %rdi
	xorl	%eax, %eax
	movq	%rsp, %rsi
	movw	%ax, 40(%rsp)
	call	_ZNK8opendnp39NumParser7ReadNumERN7openpal6RSliceE@PLT
	leaq	16(%rsp), %rsi
	movq	%rsp, %rdi
	movw	%ax, 40(%rsp)
	call	_ZN8opendnp311Group43Var510ReadTargetERN7openpal6RSliceERNS_18AnalogCommandEventE@PLT
	leaq	16(%rsp), %rsi
	movq	%r13, %rdi
	call	*%r15
	leal	1(%rbp), %eax
	movq	%rax, %rbp
	cmpq	24(%r12), %rax
	jb	.L187
.L185:
	addq	$56, %rsp
	.cfi_def_cfa_offset 56
	popq	%rbx
	.cfi_def_cfa_offset 48
	popq	%rbp
	.cfi_def_cfa_offset 40
	popq	%r12
	.cfi_def_cfa_offset 32
	popq	%r13
	.cfi_def_cfa_offset 24
	popq	%r14
	.cfi_def_cfa_offset 16
	popq	%r15
	.cfi_def_cfa_offset 8
	ret
	.cfi_endproc
.LFE3958:
	.size	_ZNK8opendnp318BufferedCollectionINS_7IndexedINS_18AnalogCommandEventEEEZNS_16CountIndexParser13InvokeCountOfINS_11Group43Var5EEEvRKNS_12HeaderRecordEtRKNS_9NumParserERKN7openpal6RSliceERNS_12IAPDUHandlerEEUlRSE_jE_E7ForeachERNS_8IVisitorIS3_EE, .-_ZNK8opendnp318BufferedCollectionINS_7IndexedINS_18AnalogCommandEventEEEZNS_16CountIndexParser13InvokeCountOfINS_11Group43Var5EEEvRKNS_12HeaderRecordEtRKNS_9NumParserERKN7openpal6RSliceERNS_12IAPDUHandlerEEUlRSE_jE_E7ForeachERNS_8IVisitorIS3_EE
	.section	.text._ZNK8opendnp318BufferedCollectionINS_7IndexedINS_18AnalogCommandEventEEEZNS_16CountIndexParser13InvokeCountOfINS_11Group43Var4EEEvRKNS_12HeaderRecordEtRKNS_9NumParserERKN7openpal6RSliceERNS_12IAPDUHandlerEEUlRSE_jE_E7ForeachERNS_8IVisitorIS3_EE,"axG",@progbits,_ZNK8opendnp318BufferedCollectionINS_7IndexedINS_18AnalogCommandEventEEEZNS_16CountIndexParser13InvokeCountOfINS_11Group43Var4EEEvRKNS_12HeaderRecordEtRKNS_9NumParserERKN7openpal6RSliceERNS_12IAPDUHandlerEEUlRSE_jE_E7ForeachERNS_8IVisitorIS3_EE,comdat
	.align 2
	.p2align 4
	.weak	_ZNK8opendnp318BufferedCollectionINS_7IndexedINS_18AnalogCommandEventEEEZNS_16CountIndexParser13InvokeCountOfINS_11Group43Var4EEEvRKNS_12HeaderRecordEtRKNS_9NumParserERKN7openpal6RSliceERNS_12IAPDUHandlerEEUlRSE_jE_E7ForeachERNS_8IVisitorIS3_EE
	.type	_ZNK8opendnp318BufferedCollectionINS_7IndexedINS_18AnalogCommandEventEEEZNS_16CountIndexParser13InvokeCountOfINS_11Group43Var4EEEvRKNS_12HeaderRecordEtRKNS_9NumParserERKN7openpal6RSliceERNS_12IAPDUHandlerEEUlRSE_jE_E7ForeachERNS_8IVisitorIS3_EE, @function
_ZNK8opendnp318BufferedCollectionINS_7IndexedINS_18AnalogCommandEventEEEZNS_16CountIndexParser13InvokeCountOfINS_11Group43Var4EEEvRKNS_12HeaderRecordEtRKNS_9NumParserERKN7openpal6RSliceERNS_12IAPDUHandlerEEUlRSE_jE_E7ForeachERNS_8IVisitorIS3_EE:
.LFB3960:
	.cfi_startproc
	pushq	%r15
	.cfi_def_cfa_offset 16
	.cfi_offset 15, -16
	pushq	%r14
	.cfi_def_cfa_offset 24
	.cfi_offset 14, -24
	pushq	%r13
	.cfi_def_cfa_offset 32
	.cfi_offset 13, -32
	pushq	%r12
	.cfi_def_cfa_offset 40
	.cfi_offset 12, -40
	pushq	%rbp
	.cfi_def_cfa_offset 48
	.cfi_offset 6, -48
	pushq	%rbx
	.cfi_def_cfa_offset 56
	.cfi_offset 3, -56
	subq	$56, %rsp
	.cfi_def_cfa_offset 112
	movdqu	8(%rdi), %xmm0
	movaps	%xmm0, (%rsp)
	cmpq	$0, 24(%rdi)
	je	.L190
	movq	%rsi, %r13
	movq	%rdi, %r12
	xorl	%ebp, %ebp
	.p2align 4
	.p2align 3
.L192:
	movq	0(%r13), %rax
	leaq	16(%rsp), %rdi
	movq	(%rax), %r15
	call	_ZN8opendnp318AnalogCommandEventC1Ev@PLT
	movq	32(%r12), %rdi
	xorl	%eax, %eax
	movq	%rsp, %rsi
	movw	%ax, 40(%rsp)
	call	_ZNK8opendnp39NumParser7ReadNumERN7openpal6RSliceE@PLT
	leaq	16(%rsp), %rsi
	movq	%rsp, %rdi
	movw	%ax, 40(%rsp)
	call	_ZN8opendnp311Group43Var410ReadTargetERN7openpal6RSliceERNS_18AnalogCommandEventE@PLT
	leaq	16(%rsp), %rsi
	movq	%r13, %rdi
	call	*%r15
	leal	1(%rbp), %eax
	movq	%rax, %rbp
	cmpq	24(%r12), %rax
	jb	.L192
.L190:
	addq	$56, %rsp
	.cfi_def_cfa_offset 56
	popq	%rbx
	.cfi_def_cfa_offset 48
	popq	%rbp
	.cfi_def_cfa_offset 40
	popq	%r12
	.cfi_def_cfa_offset 32
	popq	%r13
	.cfi_def_cfa_offset 24
	popq	%r14
	.cfi_def_cfa_offset 16
	popq	%r15
	.cfi_def_cfa_offset 8
	ret
	.cfi_endproc
.LFE3960:
	.size	_ZNK8opendnp318BufferedCollectionINS_7IndexedINS_18AnalogCommandEventEEEZNS_16CountIndexParser13InvokeCountOfINS_11Group43Var4EEEvRKNS_12HeaderRecordEtRKNS_9NumParserERKN7openpal6RSliceERNS_12IAPDUHandlerEEUlRSE_jE_E7ForeachERNS_8IVisitorIS3_EE, .-_ZNK8opendnp318BufferedCollectionINS_7IndexedINS_18AnalogCommandEventEEEZNS_16CountIndexParser13InvokeCountOfINS_11Group43Var4EEEvRKNS_12HeaderRecordEtRKNS_9NumParserERKN7openpal6RSliceERNS_12IAPDUHandlerEEUlRSE_jE_E7ForeachERNS_8IVisitorIS3_EE
	.section	.text._ZNK8opendnp318BufferedCollectionINS_7IndexedINS_18AnalogCommandEventEEEZNS_16CountIndexParser13InvokeCountOfINS_11Group43Var3EEEvRKNS_12HeaderRecordEtRKNS_9NumParserERKN7openpal6RSliceERNS_12IAPDUHandlerEEUlRSE_jE_E7ForeachERNS_8IVisitorIS3_EE,"axG",@progbits,_ZNK8opendnp318BufferedCollectionINS_7IndexedINS_18AnalogCommandEventEEEZNS_16CountIndexParser13InvokeCountOfINS_11Group43Var3EEEvRKNS_12HeaderRecordEtRKNS_9NumParserERKN7openpal6RSliceERNS_12IAPDUHandlerEEUlRSE_jE_E7ForeachERNS_8IVisitorIS3_EE,comdat
	.align 2
	.p2align 4
	.weak	_ZNK8opendnp318BufferedCollectionINS_7IndexedINS_18AnalogCommandEventEEEZNS_16CountIndexParser13InvokeCountOfINS_11Group43Var3EEEvRKNS_12HeaderRecordEtRKNS_9NumParserERKN7openpal6RSliceERNS_12IAPDUHandlerEEUlRSE_jE_E7ForeachERNS_8IVisitorIS3_EE
	.type	_ZNK8opendnp318BufferedCollectionINS_7IndexedINS_18AnalogCommandEventEEEZNS_16CountIndexParser13InvokeCountOfINS_11Group43Var3EEEvRKNS_12HeaderRecordEtRKNS_9NumParserERKN7openpal6RSliceERNS_12IAPDUHandlerEEUlRSE_jE_E7ForeachERNS_8IVisitorIS3_EE, @function
_ZNK8opendnp318BufferedCollectionINS_7IndexedINS_18AnalogCommandEventEEEZNS_16CountIndexParser13InvokeCountOfINS_11Group43Var3EEEvRKNS_12HeaderRecordEtRKNS_9NumParserERKN7openpal6RSliceERNS_12IAPDUHandlerEEUlRSE_jE_E7ForeachERNS_8IVisitorIS3_EE:
.LFB3962:
	.cfi_startproc
	pushq	%r15
	.cfi_def_cfa_offset 16
	.cfi_offset 15, -16
	pushq	%r14
	.cfi_def_cfa_offset 24
	.cfi_offset 14, -24
	pushq	%r13
	.cfi_def_cfa_offset 32
	.cfi_offset 13, -32
	pushq	%r12
	.cfi_def_cfa_offset 40
	.cfi_offset 12, -40
	pushq	%rbp
	.cfi_def_cfa_offset 48
	.cfi_offset 6, -48
	pushq	%rbx
	.cfi_def_cfa_offset 56
	.cfi_offset 3, -56
	subq	$56, %rsp
	.cfi_def_cfa_offset 112
	movdqu	8(%rdi), %xmm0
	movaps	%xmm0, (%rsp)
	cmpq	$0, 24(%rdi)
	je	.L195
	movq	%rsi, %r13
	movq	%rdi, %r12
	xorl	%ebp, %ebp
	.p2align 4
	.p2align 3
.L197:
	movq	0(%r13), %rax
	leaq	16(%rsp), %rdi
	movq	(%rax), %r15
	call	_ZN8opendnp318AnalogCommandEventC1Ev@PLT
	movq	32(%r12), %rdi
	xorl	%eax, %eax
	movq	%rsp, %rsi
	movw	%ax, 40(%rsp)
	call	_ZNK8opendnp39NumParser7ReadNumERN7openpal6RSliceE@PLT
	leaq	16(%rsp), %rsi
	movq	%rsp, %rdi
	movw	%ax, 40(%rsp)
	call	_ZN8opendnp311Group43Var310ReadTargetERN7openpal6RSliceERNS_18AnalogCommandEventE@PLT
	leaq	16(%rsp), %rsi
	movq	%r13, %rdi
	call	*%r15
	leal	1(%rbp), %eax
	movq	%rax, %rbp
	cmpq	24(%r12), %rax
	jb	.L197
.L195:
	addq	$56, %rsp
	.cfi_def_cfa_offset 56
	popq	%rbx
	.cfi_def_cfa_offset 48
	popq	%rbp
	.cfi_def_cfa_offset 40
	popq	%r12
	.cfi_def_cfa_offset 32
	popq	%r13
	.cfi_def_cfa_offset 24
	popq	%r14
	.cfi_def_cfa_offset 16
	popq	%r15
	.cfi_def_cfa_offset 8
	ret
	.cfi_endproc
.LFE3962:
	.size	_ZNK8opendnp318BufferedCollectionINS_7IndexedINS_18AnalogCommandEventEEEZNS_16CountIndexParser13InvokeCountOfINS_11Group43Var3EEEvRKNS_12HeaderRecordEtRKNS_9NumParserERKN7openpal6RSliceERNS_12IAPDUHandlerEEUlRSE_jE_E7ForeachERNS_8IVisitorIS3_EE, .-_ZNK8opendnp318BufferedCollectionINS_7IndexedINS_18AnalogCommandEventEEEZNS_16CountIndexParser13InvokeCountOfINS_11Group43Var3EEEvRKNS_12HeaderRecordEtRKNS_9NumParserERKN7openpal6RSliceERNS_12IAPDUHandlerEEUlRSE_jE_E7ForeachERNS_8IVisitorIS3_EE
	.section	.text._ZNK8opendnp318BufferedCollectionINS_7IndexedINS_18AnalogCommandEventEEEZNS_16CountIndexParser13InvokeCountOfINS_11Group43Var2EEEvRKNS_12HeaderRecordEtRKNS_9NumParserERKN7openpal6RSliceERNS_12IAPDUHandlerEEUlRSE_jE_E7ForeachERNS_8IVisitorIS3_EE,"axG",@progbits,_ZNK8opendnp318BufferedCollectionINS_7IndexedINS_18AnalogCommandEventEEEZNS_16CountIndexParser13InvokeCountOfINS_11Group43Var2EEEvRKNS_12HeaderRecordEtRKNS_9NumParserERKN7openpal6RSliceERNS_12IAPDUHandlerEEUlRSE_jE_E7ForeachERNS_8IVisitorIS3_EE,comdat
	.align 2
	.p2align 4
	.weak	_ZNK8opendnp318BufferedCollectionINS_7IndexedINS_18AnalogCommandEventEEEZNS_16CountIndexParser13InvokeCountOfINS_11Group43Var2EEEvRKNS_12HeaderRecordEtRKNS_9NumParserERKN7openpal6RSliceERNS_12IAPDUHandlerEEUlRSE_jE_E7ForeachERNS_8IVisitorIS3_EE
	.type	_ZNK8opendnp318BufferedCollectionINS_7IndexedINS_18AnalogCommandEventEEEZNS_16CountIndexParser13InvokeCountOfINS_11Group43Var2EEEvRKNS_12HeaderRecordEtRKNS_9NumParserERKN7openpal6RSliceERNS_12IAPDUHandlerEEUlRSE_jE_E7ForeachERNS_8IVisitorIS3_EE, @function
_ZNK8opendnp318BufferedCollectionINS_7IndexedINS_18AnalogCommandEventEEEZNS_16CountIndexParser13InvokeCountOfINS_11Group43Var2EEEvRKNS_12HeaderRecordEtRKNS_9NumParserERKN7openpal6RSliceERNS_12IAPDUHandlerEEUlRSE_jE_E7ForeachERNS_8IVisitorIS3_EE:
.LFB3964:
	.cfi_startproc
	pushq	%r15
	.cfi_def_cfa_offset 16
	.cfi_offset 15, -16
	pushq	%r14
	.cfi_def_cfa_offset 24
	.cfi_offset 14, -24
	pushq	%r13
	.cfi_def_cfa_offset 32
	.cfi_offset 13, -32
	pushq	%r12
	.cfi_def_cfa_offset 40
	.cfi_offset 12, -40
	pushq	%rbp
	.cfi_def_cfa_offset 48
	.cfi_offset 6, -48
	pushq	%rbx
	.cfi_def_cfa_offset 56
	.cfi_offset 3, -56
	subq	$56, %rsp
	.cfi_def_cfa_offset 112
	movdqu	8(%rdi), %xmm0
	movaps	%xmm0, (%rsp)
	cmpq	$0, 24(%rdi)
	je	.L200
	movq	%rsi, %r13
	movq	%rdi, %r12
	xorl	%ebp, %ebp
	.p2align 4
	.p2align 3
.L202:
	movq	0(%r13), %rax
	leaq	16(%rsp), %rdi
	movq	(%rax), %r15
	call	_ZN8opendnp318AnalogCommandEventC1Ev@PLT
	movq	32(%r12), %rdi
	xorl	%eax, %eax
	movq	%rsp, %rsi
	movw	%ax, 40(%rsp)
	call	_ZNK8opendnp39NumParser7ReadNumERN7openpal6RSliceE@PLT
	leaq	16(%rsp), %rsi
	movq	%rsp, %rdi
	movw	%ax, 40(%rsp)
	call	_ZN8opendnp311Group43Var210ReadTargetERN7openpal6RSliceERNS_18AnalogCommandEventE@PLT
	leaq	16(%rsp), %rsi
	movq	%r13, %rdi
	call	*%r15
	leal	1(%rbp), %eax
	movq	%rax, %rbp
	cmpq	24(%r12), %rax
	jb	.L202
.L200:
	addq	$56, %rsp
	.cfi_def_cfa_offset 56
	popq	%rbx
	.cfi_def_cfa_offset 48
	popq	%rbp
	.cfi_def_cfa_offset 40
	popq	%r12
	.cfi_def_cfa_offset 32
	popq	%r13
	.cfi_def_cfa_offset 24
	popq	%r14
	.cfi_def_cfa_offset 16
	popq	%r15
	.cfi_def_cfa_offset 8
	ret
	.cfi_endproc
.LFE3964:
	.size	_ZNK8opendnp318BufferedCollectionINS_7IndexedINS_18AnalogCommandEventEEEZNS_16CountIndexParser13InvokeCountOfINS_11Group43Var2EEEvRKNS_12HeaderRecordEtRKNS_9NumParserERKN7openpal6RSliceERNS_12IAPDUHandlerEEUlRSE_jE_E7ForeachERNS_8IVisitorIS3_EE, .-_ZNK8opendnp318BufferedCollectionINS_7IndexedINS_18AnalogCommandEventEEEZNS_16CountIndexParser13InvokeCountOfINS_11Group43Var2EEEvRKNS_12HeaderRecordEtRKNS_9NumParserERKN7openpal6RSliceERNS_12IAPDUHandlerEEUlRSE_jE_E7ForeachERNS_8IVisitorIS3_EE
	.section	.text._ZNK8opendnp318BufferedCollectionINS_7IndexedINS_18AnalogCommandEventEEEZNS_16CountIndexParser13InvokeCountOfINS_11Group43Var1EEEvRKNS_12HeaderRecordEtRKNS_9NumParserERKN7openpal6RSliceERNS_12IAPDUHandlerEEUlRSE_jE_E7ForeachERNS_8IVisitorIS3_EE,"axG",@progbits,_ZNK8opendnp318BufferedCollectionINS_7IndexedINS_18AnalogCommandEventEEEZNS_16CountIndexParser13InvokeCountOfINS_11Group43Var1EEEvRKNS_12HeaderRecordEtRKNS_9NumParserERKN7openpal6RSliceERNS_12IAPDUHandlerEEUlRSE_jE_E7ForeachERNS_8IVisitorIS3_EE,comdat
	.align 2
	.p2align 4
	.weak	_ZNK8opendnp318BufferedCollectionINS_7IndexedINS_18AnalogCommandEventEEEZNS_16CountIndexParser13InvokeCountOfINS_11Group43Var1EEEvRKNS_12HeaderRecordEtRKNS_9NumParserERKN7openpal6RSliceERNS_12IAPDUHandlerEEUlRSE_jE_E7ForeachERNS_8IVisitorIS3_EE
	.type	_ZNK8opendnp318BufferedCollectionINS_7IndexedINS_18AnalogCommandEventEEEZNS_16CountIndexParser13InvokeCountOfINS_11Group43Var1EEEvRKNS_12HeaderRecordEtRKNS_9NumParserERKN7openpal6RSliceERNS_12IAPDUHandlerEEUlRSE_jE_E7ForeachERNS_8IVisitorIS3_EE, @function
_ZNK8opendnp318BufferedCollectionINS_7IndexedINS_18AnalogCommandEventEEEZNS_16CountIndexParser13InvokeCountOfINS_11Group43Var1EEEvRKNS_12HeaderRecordEtRKNS_9NumParserERKN7openpal6RSliceERNS_12IAPDUHandlerEEUlRSE_jE_E7ForeachERNS_8IVisitorIS3_EE:
.LFB3966:
	.cfi_startproc
	pushq	%r15
	.cfi_def_cfa_offset 16
	.cfi_offset 15, -16
	pushq	%r14
	.cfi_def_cfa_offset 24
	.cfi_offset 14, -24
	pushq	%r13
	.cfi_def_cfa_offset 32
	.cfi_offset 13, -32
	pushq	%r12
	.cfi_def_cfa_offset 40
	.cfi_offset 12, -40
	pushq	%rbp
	.cfi_def_cfa_offset 48
	.cfi_offset 6, -48
	pushq	%rbx
	.cfi_def_cfa_offset 56
	.cfi_offset 3, -56
	subq	$56, %rsp
	.cfi_def_cfa_offset 112
	movdqu	8(%rdi), %xmm0
	movaps	%xmm0, (%rsp)
	cmpq	$0, 24(%rdi)
	je	.L205
	movq	%rsi, %r13
	movq	%rdi, %r12
	xorl	%ebp, %ebp
	.p2align 4
	.p2align 3
.L207:
	movq	0(%r13), %rax
	leaq	16(%rsp), %rdi
	movq	(%rax), %r15
	call	_ZN8opendnp318AnalogCommandEventC1Ev@PLT
	movq	32(%r12), %rdi
	xorl	%eax, %eax
	movq	%rsp, %rsi
	movw	%ax, 40(%rsp)
	call	_ZNK8opendnp39NumParser7ReadNumERN7openpal6RSliceE@PLT
	leaq	16(%rsp), %rsi
	movq	%rsp, %rdi
	movw	%ax, 40(%rsp)
	call	_ZN8opendnp311Group43Var110ReadTargetERN7openpal6RSliceERNS_18AnalogCommandEventE@PLT
	leaq	16(%rsp), %rsi
	movq	%r13, %rdi
	call	*%r15
	leal	1(%rbp), %eax
	movq	%rax, %rbp
	cmpq	24(%r12), %rax
	jb	.L207
.L205:
	addq	$56, %rsp
	.cfi_def_cfa_offset 56
	popq	%rbx
	.cfi_def_cfa_offset 48
	popq	%rbp
	.cfi_def_cfa_offset 40
	popq	%r12
	.cfi_def_cfa_offset 32
	popq	%r13
	.cfi_def_cfa_offset 24
	popq	%r14
	.cfi_def_cfa_offset 16
	popq	%r15
	.cfi_def_cfa_offset 8
	ret
	.cfi_endproc
.LFE3966:
	.size	_ZNK8opendnp318BufferedCollectionINS_7IndexedINS_18AnalogCommandEventEEEZNS_16CountIndexParser13InvokeCountOfINS_11Group43Var1EEEvRKNS_12HeaderRecordEtRKNS_9NumParserERKN7openpal6RSliceERNS_12IAPDUHandlerEEUlRSE_jE_E7ForeachERNS_8IVisitorIS3_EE, .-_ZNK8opendnp318BufferedCollectionINS_7IndexedINS_18AnalogCommandEventEEEZNS_16CountIndexParser13InvokeCountOfINS_11Group43Var1EEEvRKNS_12HeaderRecordEtRKNS_9NumParserERKN7openpal6RSliceERNS_12IAPDUHandlerEEUlRSE_jE_E7ForeachERNS_8IVisitorIS3_EE
	.section	.text._ZNK8opendnp318BufferedCollectionINS_7IndexedINS_18AnalogOutputStatusEEEZNS_16CountIndexParser13InvokeCountOfINS_11Group42Var8EEEvRKNS_12HeaderRecordEtRKNS_9NumParserERKN7openpal6RSliceERNS_12IAPDUHandlerEEUlRSE_jE_E7ForeachERNS_8IVisitorIS3_EE,"axG",@progbits,_ZNK8opendnp318BufferedCollectionINS_7IndexedINS_18AnalogOutputStatusEEEZNS_16CountIndexParser13InvokeCountOfINS_11Group42Var8EEEvRKNS_12HeaderRecordEtRKNS_9NumParserERKN7openpal6RSliceERNS_12IAPDUHandlerEEUlRSE_jE_E7ForeachERNS_8IVisitorIS3_EE,comdat
	.align 2
	.p2align 4
	.weak	_ZNK8opendnp318BufferedCollectionINS_7IndexedINS_18AnalogOutputStatusEEEZNS_16CountIndexParser13InvokeCountOfINS_11Group42Var8EEEvRKNS_12HeaderRecordEtRKNS_9NumParserERKN7openpal6RSliceERNS_12IAPDUHandlerEEUlRSE_jE_E7ForeachERNS_8IVisitorIS3_EE
	.type	_ZNK8opendnp318BufferedCollectionINS_7IndexedINS_18AnalogOutputStatusEEEZNS_16CountIndexParser13InvokeCountOfINS_11Group42Var8EEEvRKNS_12HeaderRecordEtRKNS_9NumParserERKN7openpal6RSliceERNS_12IAPDUHandlerEEUlRSE_jE_E7ForeachERNS_8IVisitorIS3_EE, @function
_ZNK8opendnp318BufferedCollectionINS_7IndexedINS_18AnalogOutputStatusEEEZNS_16CountIndexParser13InvokeCountOfINS_11Group42Var8EEEvRKNS_12HeaderRecordEtRKNS_9NumParserERKN7openpal6RSliceERNS_12IAPDUHandlerEEUlRSE_jE_E7ForeachERNS_8IVisitorIS3_EE:
.LFB3968:
	.cfi_startproc
	pushq	%r15
	.cfi_def_cfa_offset 16
	.cfi_offset 15, -16
	pushq	%r14
	.cfi_def_cfa_offset 24
	.cfi_offset 14, -24
	pushq	%r13
	.cfi_def_cfa_offset 32
	.cfi_offset 13, -32
	pushq	%r12
	.cfi_def_cfa_offset 40
	.cfi_offset 12, -40
	pushq	%rbp
	.cfi_def_cfa_offset 48
	.cfi_offset 6, -48
	pushq	%rbx
	.cfi_def_cfa_offset 56
	.cfi_offset 3, -56
	subq	$56, %rsp
	.cfi_def_cfa_offset 112
	movdqu	8(%rdi), %xmm0
	movaps	%xmm0, (%rsp)
	cmpq	$0, 24(%rdi)
	je	.L210
	movq	%rsi, %r13
	movq	%rdi, %r12
	xorl	%ebp, %ebp
	.p2align 4
	.p2align 3
.L212:
	movq	0(%r13), %rax
	leaq	16(%rsp), %rdi
	movq	(%rax), %r15
	call	_ZN8opendnp318AnalogOutputStatusC1Ev@PLT
	movq	32(%r12), %rdi
	xorl	%eax, %eax
	movq	%rsp, %rsi
	movw	%ax, 40(%rsp)
	call	_ZNK8opendnp39NumParser7ReadNumERN7openpal6RSliceE@PLT
	leaq	16(%rsp), %rsi
	movq	%rsp, %rdi
	movw	%ax, 40(%rsp)
	call	_ZN8opendnp311Group42Var810ReadTargetERN7openpal6RSliceERNS_18AnalogOutputStatusE@PLT
	leaq	16(%rsp), %rsi
	movq	%r13, %rdi
	call	*%r15
	leal	1(%rbp), %eax
	movq	%rax, %rbp
	cmpq	24(%r12), %rax
	jb	.L212
.L210:
	addq	$56, %rsp
	.cfi_def_cfa_offset 56
	popq	%rbx
	.cfi_def_cfa_offset 48
	popq	%rbp
	.cfi_def_cfa_offset 40
	popq	%r12
	.cfi_def_cfa_offset 32
	popq	%r13
	.cfi_def_cfa_offset 24
	popq	%r14
	.cfi_def_cfa_offset 16
	popq	%r15
	.cfi_def_cfa_offset 8
	ret
	.cfi_endproc
.LFE3968:
	.size	_ZNK8opendnp318BufferedCollectionINS_7IndexedINS_18AnalogOutputStatusEEEZNS_16CountIndexParser13InvokeCountOfINS_11Group42Var8EEEvRKNS_12HeaderRecordEtRKNS_9NumParserERKN7openpal6RSliceERNS_12IAPDUHandlerEEUlRSE_jE_E7ForeachERNS_8IVisitorIS3_EE, .-_ZNK8opendnp318BufferedCollectionINS_7IndexedINS_18AnalogOutputStatusEEEZNS_16CountIndexParser13InvokeCountOfINS_11Group42Var8EEEvRKNS_12HeaderRecordEtRKNS_9NumParserERKN7openpal6RSliceERNS_12IAPDUHandlerEEUlRSE_jE_E7ForeachERNS_8IVisitorIS3_EE
	.section	.text._ZNK8opendnp318BufferedCollectionINS_7IndexedINS_18AnalogOutputStatusEEEZNS_16CountIndexParser13InvokeCountOfINS_11Group42Var7EEEvRKNS_12HeaderRecordEtRKNS_9NumParserERKN7openpal6RSliceERNS_12IAPDUHandlerEEUlRSE_jE_E7ForeachERNS_8IVisitorIS3_EE,"axG",@progbits,_ZNK8opendnp318BufferedCollectionINS_7IndexedINS_18AnalogOutputStatusEEEZNS_16CountIndexParser13InvokeCountOfINS_11Group42Var7EEEvRKNS_12HeaderRecordEtRKNS_9NumParserERKN7openpal6RSliceERNS_12IAPDUHandlerEEUlRSE_jE_E7ForeachERNS_8IVisitorIS3_EE,comdat
	.align 2
	.p2align 4
	.weak	_ZNK8opendnp318BufferedCollectionINS_7IndexedINS_18AnalogOutputStatusEEEZNS_16CountIndexParser13InvokeCountOfINS_11Group42Var7EEEvRKNS_12HeaderRecordEtRKNS_9NumParserERKN7openpal6RSliceERNS_12IAPDUHandlerEEUlRSE_jE_E7ForeachERNS_8IVisitorIS3_EE
	.type	_ZNK8opendnp318BufferedCollectionINS_7IndexedINS_18AnalogOutputStatusEEEZNS_16CountIndexParser13InvokeCountOfINS_11Group42Var7EEEvRKNS_12HeaderRecordEtRKNS_9NumParserERKN7openpal6RSliceERNS_12IAPDUHandlerEEUlRSE_jE_E7ForeachERNS_8IVisitorIS3_EE, @function
_ZNK8opendnp318BufferedCollectionINS_7IndexedINS_18AnalogOutputStatusEEEZNS_16CountIndexParser13InvokeCountOfINS_11Group42Var7EEEvRKNS_12HeaderRecordEtRKNS_9NumParserERKN7openpal6RSliceERNS_12IAPDUHandlerEEUlRSE_jE_E7ForeachERNS_8IVisitorIS3_EE:
.LFB3970:
	.cfi_startproc
	pushq	%r15
	.cfi_def_cfa_offset 16
	.cfi_offset 15, -16
	pushq	%r14
	.cfi_def_cfa_offset 24
	.cfi_offset 14, -24
	pushq	%r13
	.cfi_def_cfa_offset 32
	.cfi_offset 13, -32
	pushq	%r12
	.cfi_def_cfa_offset 40
	.cfi_offset 12, -40
	pushq	%rbp
	.cfi_def_cfa_offset 48
	.cfi_offset 6, -48
	pushq	%rbx
	.cfi_def_cfa_offset 56
	.cfi_offset 3, -56
	subq	$56, %rsp
	.cfi_def_cfa_offset 112
	movdqu	8(%rdi), %xmm0
	movaps	%xmm0, (%rsp)
	cmpq	$0, 24(%rdi)
	je	.L215
	movq	%rsi, %r13
	movq	%rdi, %r12
	xorl	%ebp, %ebp
	.p2align 4
	.p2align 3
.L217:
	movq	0(%r13), %rax
	leaq	16(%rsp), %rdi
	movq	(%rax), %r15
	call	_ZN8opendnp318AnalogOutputStatusC1Ev@PLT
	movq	32(%r12), %rdi
	xorl	%eax, %eax
	movq	%rsp, %rsi
	movw	%ax, 40(%rsp)
	call	_ZNK8opendnp39NumParser7ReadNumERN7openpal6RSliceE@PLT
	leaq	16(%rsp), %rsi
	movq	%rsp, %rdi
	movw	%ax, 40(%rsp)
	call	_ZN8opendnp311Group42Var710ReadTargetERN7openpal6RSliceERNS_18AnalogOutputStatusE@PLT
	leaq	16(%rsp), %rsi
	movq	%r13, %rdi
	call	*%r15
	leal	1(%rbp), %eax
	movq	%rax, %rbp
	cmpq	24(%r12), %rax
	jb	.L217
.L215:
	addq	$56, %rsp
	.cfi_def_cfa_offset 56
	popq	%rbx
	.cfi_def_cfa_offset 48
	popq	%rbp
	.cfi_def_cfa_offset 40
	popq	%r12
	.cfi_def_cfa_offset 32
	popq	%r13
	.cfi_def_cfa_offset 24
	popq	%r14
	.cfi_def_cfa_offset 16
	popq	%r15
	.cfi_def_cfa_offset 8
	ret
	.cfi_endproc
.LFE3970:
	.size	_ZNK8opendnp318BufferedCollectionINS_7IndexedINS_18AnalogOutputStatusEEEZNS_16CountIndexParser13InvokeCountOfINS_11Group42Var7EEEvRKNS_12HeaderRecordEtRKNS_9NumParserERKN7openpal6RSliceERNS_12IAPDUHandlerEEUlRSE_jE_E7ForeachERNS_8IVisitorIS3_EE, .-_ZNK8opendnp318BufferedCollectionINS_7IndexedINS_18AnalogOutputStatusEEEZNS_16CountIndexParser13InvokeCountOfINS_11Group42Var7EEEvRKNS_12HeaderRecordEtRKNS_9NumParserERKN7openpal6RSliceERNS_12IAPDUHandlerEEUlRSE_jE_E7ForeachERNS_8IVisitorIS3_EE
	.section	.text._ZNK8opendnp318BufferedCollectionINS_7IndexedINS_18AnalogOutputStatusEEEZNS_16CountIndexParser13InvokeCountOfINS_11Group42Var6EEEvRKNS_12HeaderRecordEtRKNS_9NumParserERKN7openpal6RSliceERNS_12IAPDUHandlerEEUlRSE_jE_E7ForeachERNS_8IVisitorIS3_EE,"axG",@progbits,_ZNK8opendnp318BufferedCollectionINS_7IndexedINS_18AnalogOutputStatusEEEZNS_16CountIndexParser13InvokeCountOfINS_11Group42Var6EEEvRKNS_12HeaderRecordEtRKNS_9NumParserERKN7openpal6RSliceERNS_12IAPDUHandlerEEUlRSE_jE_E7ForeachERNS_8IVisitorIS3_EE,comdat
	.align 2
	.p2align 4
	.weak	_ZNK8opendnp318BufferedCollectionINS_7IndexedINS_18AnalogOutputStatusEEEZNS_16CountIndexParser13InvokeCountOfINS_11Group42Var6EEEvRKNS_12HeaderRecordEtRKNS_9NumParserERKN7openpal6RSliceERNS_12IAPDUHandlerEEUlRSE_jE_E7ForeachERNS_8IVisitorIS3_EE
	.type	_ZNK8opendnp318BufferedCollectionINS_7IndexedINS_18AnalogOutputStatusEEEZNS_16CountIndexParser13InvokeCountOfINS_11Group42Var6EEEvRKNS_12HeaderRecordEtRKNS_9NumParserERKN7openpal6RSliceERNS_12IAPDUHandlerEEUlRSE_jE_E7ForeachERNS_8IVisitorIS3_EE, @function
_ZNK8opendnp318BufferedCollectionINS_7IndexedINS_18AnalogOutputStatusEEEZNS_16CountIndexParser13InvokeCountOfINS_11Group42Var6EEEvRKNS_12HeaderRecordEtRKNS_9NumParserERKN7openpal6RSliceERNS_12IAPDUHandlerEEUlRSE_jE_E7ForeachERNS_8IVisitorIS3_EE:
.LFB3972:
	.cfi_startproc
	pushq	%r15
	.cfi_def_cfa_offset 16
	.cfi_offset 15, -16
	pushq	%r14
	.cfi_def_cfa_offset 24
	.cfi_offset 14, -24
	pushq	%r13
	.cfi_def_cfa_offset 32
	.cfi_offset 13, -32
	pushq	%r12
	.cfi_def_cfa_offset 40
	.cfi_offset 12, -40
	pushq	%rbp
	.cfi_def_cfa_offset 48
	.cfi_offset 6, -48
	pushq	%rbx
	.cfi_def_cfa_offset 56
	.cfi_offset 3, -56
	subq	$56, %rsp
	.cfi_def_cfa_offset 112
	movdqu	8(%rdi), %xmm0
	movaps	%xmm0, (%rsp)
	cmpq	$0, 24(%rdi)
	je	.L220
	movq	%rsi, %r13
	movq	%rdi, %r12
	xorl	%ebp, %ebp
	.p2align 4
	.p2align 3
.L222:
	movq	0(%r13), %rax
	leaq	16(%rsp), %rdi
	movq	(%rax), %r15
	call	_ZN8opendnp318AnalogOutputStatusC1Ev@PLT
	movq	32(%r12), %rdi
	xorl	%eax, %eax
	movq	%rsp, %rsi
	movw	%ax, 40(%rsp)
	call	_ZNK8opendnp39NumParser7ReadNumERN7openpal6RSliceE@PLT
	leaq	16(%rsp), %rsi
	movq	%rsp, %rdi
	movw	%ax, 40(%rsp)
	call	_ZN8opendnp311Group42Var610ReadTargetERN7openpal6RSliceERNS_18AnalogOutputStatusE@PLT
	leaq	16(%rsp), %rsi
	movq	%r13, %rdi
	call	*%r15
	leal	1(%rbp), %eax
	movq	%rax, %rbp
	cmpq	24(%r12), %rax
	jb	.L222
.L220:
	addq	$56, %rsp
	.cfi_def_cfa_offset 56
	popq	%rbx
	.cfi_def_cfa_offset 48
	popq	%rbp
	.cfi_def_cfa_offset 40
	popq	%r12
	.cfi_def_cfa_offset 32
	popq	%r13
	.cfi_def_cfa_offset 24
	popq	%r14
	.cfi_def_cfa_offset 16
	popq	%r15
	.cfi_def_cfa_offset 8
	ret
	.cfi_endproc
.LFE3972:
	.size	_ZNK8opendnp318BufferedCollectionINS_7IndexedINS_18AnalogOutputStatusEEEZNS_16CountIndexParser13InvokeCountOfINS_11Group42Var6EEEvRKNS_12HeaderRecordEtRKNS_9NumParserERKN7openpal6RSliceERNS_12IAPDUHandlerEEUlRSE_jE_E7ForeachERNS_8IVisitorIS3_EE, .-_ZNK8opendnp318BufferedCollectionINS_7IndexedINS_18AnalogOutputStatusEEEZNS_16CountIndexParser13InvokeCountOfINS_11Group42Var6EEEvRKNS_12HeaderRecordEtRKNS_9NumParserERKN7openpal6RSliceERNS_12IAPDUHandlerEEUlRSE_jE_E7ForeachERNS_8IVisitorIS3_EE
	.section	.text._ZNK8opendnp318BufferedCollectionINS_7IndexedINS_18AnalogOutputStatusEEEZNS_16CountIndexParser13InvokeCountOfINS_11Group42Var5EEEvRKNS_12HeaderRecordEtRKNS_9NumParserERKN7openpal6RSliceERNS_12IAPDUHandlerEEUlRSE_jE_E7ForeachERNS_8IVisitorIS3_EE,"axG",@progbits,_ZNK8opendnp318BufferedCollectionINS_7IndexedINS_18AnalogOutputStatusEEEZNS_16CountIndexParser13InvokeCountOfINS_11Group42Var5EEEvRKNS_12HeaderRecordEtRKNS_9NumParserERKN7openpal6RSliceERNS_12IAPDUHandlerEEUlRSE_jE_E7ForeachERNS_8IVisitorIS3_EE,comdat
	.align 2
	.p2align 4
	.weak	_ZNK8opendnp318BufferedCollectionINS_7IndexedINS_18AnalogOutputStatusEEEZNS_16CountIndexParser13InvokeCountOfINS_11Group42Var5EEEvRKNS_12HeaderRecordEtRKNS_9NumParserERKN7openpal6RSliceERNS_12IAPDUHandlerEEUlRSE_jE_E7ForeachERNS_8IVisitorIS3_EE
	.type	_ZNK8opendnp318BufferedCollectionINS_7IndexedINS_18AnalogOutputStatusEEEZNS_16CountIndexParser13InvokeCountOfINS_11Group42Var5EEEvRKNS_12HeaderRecordEtRKNS_9NumParserERKN7openpal6RSliceERNS_12IAPDUHandlerEEUlRSE_jE_E7ForeachERNS_8IVisitorIS3_EE, @function
_ZNK8opendnp318BufferedCollectionINS_7IndexedINS_18AnalogOutputStatusEEEZNS_16CountIndexParser13InvokeCountOfINS_11Group42Var5EEEvRKNS_12HeaderRecordEtRKNS_9NumParserERKN7openpal6RSliceERNS_12IAPDUHandlerEEUlRSE_jE_E7ForeachERNS_8IVisitorIS3_EE:
.LFB3974:
	.cfi_startproc
	pushq	%r15
	.cfi_def_cfa_offset 16
	.cfi_offset 15, -16
	pushq	%r14
	.cfi_def_cfa_offset 24
	.cfi_offset 14, -24
	pushq	%r13
	.cfi_def_cfa_offset 32
	.cfi_offset 13, -32
	pushq	%r12
	.cfi_def_cfa_offset 40
	.cfi_offset 12, -40
	pushq	%rbp
	.cfi_def_cfa_offset 48
	.cfi_offset 6, -48
	pushq	%rbx
	.cfi_def_cfa_offset 56
	.cfi_offset 3, -56
	subq	$56, %rsp
	.cfi_def_cfa_offset 112
	movdqu	8(%rdi), %xmm0
	movaps	%xmm0, (%rsp)
	cmpq	$0, 24(%rdi)
	je	.L225
	movq	%rsi, %r13
	movq	%rdi, %r12
	xorl	%ebp, %ebp
	.p2align 4
	.p2align 3
.L227:
	movq	0(%r13), %rax
	leaq	16(%rsp), %rdi
	movq	(%rax), %r15
	call	_ZN8opendnp318AnalogOutputStatusC1Ev@PLT
	movq	32(%r12), %rdi
	xorl	%eax, %eax
	movq	%rsp, %rsi
	movw	%ax, 40(%rsp)
	call	_ZNK8opendnp39NumParser7ReadNumERN7openpal6RSliceE@PLT
	leaq	16(%rsp), %rsi
	movq	%rsp, %rdi
	movw	%ax, 40(%rsp)
	call	_ZN8opendnp311Group42Var510ReadTargetERN7openpal6RSliceERNS_18AnalogOutputStatusE@PLT
	leaq	16(%rsp), %rsi
	movq	%r13, %rdi
	call	*%r15
	leal	1(%rbp), %eax
	movq	%rax, %rbp
	cmpq	24(%r12), %rax
	jb	.L227
.L225:
	addq	$56, %rsp
	.cfi_def_cfa_offset 56
	popq	%rbx
	.cfi_def_cfa_offset 48
	popq	%rbp
	.cfi_def_cfa_offset 40
	popq	%r12
	.cfi_def_cfa_offset 32
	popq	%r13
	.cfi_def_cfa_offset 24
	popq	%r14
	.cfi_def_cfa_offset 16
	popq	%r15
	.cfi_def_cfa_offset 8
	ret
	.cfi_endproc
.LFE3974:
	.size	_ZNK8opendnp318BufferedCollectionINS_7IndexedINS_18AnalogOutputStatusEEEZNS_16CountIndexParser13InvokeCountOfINS_11Group42Var5EEEvRKNS_12HeaderRecordEtRKNS_9NumParserERKN7openpal6RSliceERNS_12IAPDUHandlerEEUlRSE_jE_E7ForeachERNS_8IVisitorIS3_EE, .-_ZNK8opendnp318BufferedCollectionINS_7IndexedINS_18AnalogOutputStatusEEEZNS_16CountIndexParser13InvokeCountOfINS_11Group42Var5EEEvRKNS_12HeaderRecordEtRKNS_9NumParserERKN7openpal6RSliceERNS_12IAPDUHandlerEEUlRSE_jE_E7ForeachERNS_8IVisitorIS3_EE
	.section	.text._ZNK8opendnp318BufferedCollectionINS_7IndexedINS_18AnalogOutputStatusEEEZNS_16CountIndexParser13InvokeCountOfINS_11Group42Var4EEEvRKNS_12HeaderRecordEtRKNS_9NumParserERKN7openpal6RSliceERNS_12IAPDUHandlerEEUlRSE_jE_E7ForeachERNS_8IVisitorIS3_EE,"axG",@progbits,_ZNK8opendnp318BufferedCollectionINS_7IndexedINS_18AnalogOutputStatusEEEZNS_16CountIndexParser13InvokeCountOfINS_11Group42Var4EEEvRKNS_12HeaderRecordEtRKNS_9NumParserERKN7openpal6RSliceERNS_12IAPDUHandlerEEUlRSE_jE_E7ForeachERNS_8IVisitorIS3_EE,comdat
	.align 2
	.p2align 4
	.weak	_ZNK8opendnp318BufferedCollectionINS_7IndexedINS_18AnalogOutputStatusEEEZNS_16CountIndexParser13InvokeCountOfINS_11Group42Var4EEEvRKNS_12HeaderRecordEtRKNS_9NumParserERKN7openpal6RSliceERNS_12IAPDUHandlerEEUlRSE_jE_E7ForeachERNS_8IVisitorIS3_EE
	.type	_ZNK8opendnp318BufferedCollectionINS_7IndexedINS_18AnalogOutputStatusEEEZNS_16CountIndexParser13InvokeCountOfINS_11Group42Var4EEEvRKNS_12HeaderRecordEtRKNS_9NumParserERKN7openpal6RSliceERNS_12IAPDUHandlerEEUlRSE_jE_E7ForeachERNS_8IVisitorIS3_EE, @function
_ZNK8opendnp318BufferedCollectionINS_7IndexedINS_18AnalogOutputStatusEEEZNS_16CountIndexParser13InvokeCountOfINS_11Group42Var4EEEvRKNS_12HeaderRecordEtRKNS_9NumParserERKN7openpal6RSliceERNS_12IAPDUHandlerEEUlRSE_jE_E7ForeachERNS_8IVisitorIS3_EE:
.LFB3976:
	.cfi_startproc
	pushq	%r15
	.cfi_def_cfa_offset 16
	.cfi_offset 15, -16
	pushq	%r14
	.cfi_def_cfa_offset 24
	.cfi_offset 14, -24
	pushq	%r13
	.cfi_def_cfa_offset 32
	.cfi_offset 13, -32
	pushq	%r12
	.cfi_def_cfa_offset 40
	.cfi_offset 12, -40
	pushq	%rbp
	.cfi_def_cfa_offset 48
	.cfi_offset 6, -48
	pushq	%rbx
	.cfi_def_cfa_offset 56
	.cfi_offset 3, -56
	subq	$56, %rsp
	.cfi_def_cfa_offset 112
	movdqu	8(%rdi), %xmm0
	movaps	%xmm0, (%rsp)
	cmpq	$0, 24(%rdi)
	je	.L230
	movq	%rsi, %r13
	movq	%rdi, %r12
	xorl	%ebp, %ebp
	.p2align 4
	.p2align 3
.L232:
	movq	0(%r13), %rax
	leaq	16(%rsp), %rdi
	movq	(%rax), %r15
	call	_ZN8opendnp318AnalogOutputStatusC1Ev@PLT
	movq	32(%r12), %rdi
	xorl	%eax, %eax
	movq	%rsp, %rsi
	movw	%ax, 40(%rsp)
	call	_ZNK8opendnp39NumParser7ReadNumERN7openpal6RSliceE@PLT
	leaq	16(%rsp), %rsi
	movq	%rsp, %rdi
	movw	%ax, 40(%rsp)
	call	_ZN8opendnp311Group42Var410ReadTargetERN7openpal6RSliceERNS_18AnalogOutputStatusE@PLT
	leaq	16(%rsp), %rsi
	movq	%r13, %rdi
	call	*%r15
	leal	1(%rbp), %eax
	movq	%rax, %rbp
	cmpq	24(%r12), %rax
	jb	.L232
.L230:
	addq	$56, %rsp
	.cfi_def_cfa_offset 56
	popq	%rbx
	.cfi_def_cfa_offset 48
	popq	%rbp
	.cfi_def_cfa_offset 40
	popq	%r12
	.cfi_def_cfa_offset 32
	popq	%r13
	.cfi_def_cfa_offset 24
	popq	%r14
	.cfi_def_cfa_offset 16
	popq	%r15
	.cfi_def_cfa_offset 8
	ret
	.cfi_endproc
.LFE3976:
	.size	_ZNK8opendnp318BufferedCollectionINS_7IndexedINS_18AnalogOutputStatusEEEZNS_16CountIndexParser13InvokeCountOfINS_11Group42Var4EEEvRKNS_12HeaderRecordEtRKNS_9NumParserERKN7openpal6RSliceERNS_12IAPDUHandlerEEUlRSE_jE_E7ForeachERNS_8IVisitorIS3_EE, .-_ZNK8opendnp318BufferedCollectionINS_7IndexedINS_18AnalogOutputStatusEEEZNS_16CountIndexParser13InvokeCountOfINS_11Group42Var4EEEvRKNS_12HeaderRecordEtRKNS_9NumParserERKN7openpal6RSliceERNS_12IAPDUHandlerEEUlRSE_jE_E7ForeachERNS_8IVisitorIS3_EE
	.section	.text._ZNK8opendnp318BufferedCollectionINS_7IndexedINS_18AnalogOutputStatusEEEZNS_16CountIndexParser13InvokeCountOfINS_11Group42Var3EEEvRKNS_12HeaderRecordEtRKNS_9NumParserERKN7openpal6RSliceERNS_12IAPDUHandlerEEUlRSE_jE_E7ForeachERNS_8IVisitorIS3_EE,"axG",@progbits,_ZNK8opendnp318BufferedCollectionINS_7IndexedINS_18AnalogOutputStatusEEEZNS_16CountIndexParser13InvokeCountOfINS_11Group42Var3EEEvRKNS_12HeaderRecordEtRKNS_9NumParserERKN7openpal6RSliceERNS_12IAPDUHandlerEEUlRSE_jE_E7ForeachERNS_8IVisitorIS3_EE,comdat
	.align 2
	.p2align 4
	.weak	_ZNK8opendnp318BufferedCollectionINS_7IndexedINS_18AnalogOutputStatusEEEZNS_16CountIndexParser13InvokeCountOfINS_11Group42Var3EEEvRKNS_12HeaderRecordEtRKNS_9NumParserERKN7openpal6RSliceERNS_12IAPDUHandlerEEUlRSE_jE_E7ForeachERNS_8IVisitorIS3_EE
	.type	_ZNK8opendnp318BufferedCollectionINS_7IndexedINS_18AnalogOutputStatusEEEZNS_16CountIndexParser13InvokeCountOfINS_11Group42Var3EEEvRKNS_12HeaderRecordEtRKNS_9NumParserERKN7openpal6RSliceERNS_12IAPDUHandlerEEUlRSE_jE_E7ForeachERNS_8IVisitorIS3_EE, @function
_ZNK8opendnp318BufferedCollectionINS_7IndexedINS_18AnalogOutputStatusEEEZNS_16CountIndexParser13InvokeCountOfINS_11Group42Var3EEEvRKNS_12HeaderRecordEtRKNS_9NumParserERKN7openpal6RSliceERNS_12IAPDUHandlerEEUlRSE_jE_E7ForeachERNS_8IVisitorIS3_EE:
.LFB3978:
	.cfi_startproc
	pushq	%r15
	.cfi_def_cfa_offset 16
	.cfi_offset 15, -16
	pushq	%r14
	.cfi_def_cfa_offset 24
	.cfi_offset 14, -24
	pushq	%r13
	.cfi_def_cfa_offset 32
	.cfi_offset 13, -32
	pushq	%r12
	.cfi_def_cfa_offset 40
	.cfi_offset 12, -40
	pushq	%rbp
	.cfi_def_cfa_offset 48
	.cfi_offset 6, -48
	pushq	%rbx
	.cfi_def_cfa_offset 56
	.cfi_offset 3, -56
	subq	$56, %rsp
	.cfi_def_cfa_offset 112
	movdqu	8(%rdi), %xmm0
	movaps	%xmm0, (%rsp)
	cmpq	$0, 24(%rdi)
	je	.L235
	movq	%rsi, %r13
	movq	%rdi, %r12
	xorl	%ebp, %ebp
	.p2align 4
	.p2align 3
.L237:
	movq	0(%r13), %rax
	leaq	16(%rsp), %rdi
	movq	(%rax), %r15
	call	_ZN8opendnp318AnalogOutputStatusC1Ev@PLT
	movq	32(%r12), %rdi
	xorl	%eax, %eax
	movq	%rsp, %rsi
	movw	%ax, 40(%rsp)
	call	_ZNK8opendnp39NumParser7ReadNumERN7openpal6RSliceE@PLT
	leaq	16(%rsp), %rsi
	movq	%rsp, %rdi
	movw	%ax, 40(%rsp)
	call	_ZN8opendnp311Group42Var310ReadTargetERN7openpal6RSliceERNS_18AnalogOutputStatusE@PLT
	leaq	16(%rsp), %rsi
	movq	%r13, %rdi
	call	*%r15
	leal	1(%rbp), %eax
	movq	%rax, %rbp
	cmpq	24(%r12), %rax
	jb	.L237
.L235:
	addq	$56, %rsp
	.cfi_def_cfa_offset 56
	popq	%rbx
	.cfi_def_cfa_offset 48
	popq	%rbp
	.cfi_def_cfa_offset 40
	popq	%r12
	.cfi_def_cfa_offset 32
	popq	%r13
	.cfi_def_cfa_offset 24
	popq	%r14
	.cfi_def_cfa_offset 16
	popq	%r15
	.cfi_def_cfa_offset 8
	ret
	.cfi_endproc
.LFE3978:
	.size	_ZNK8opendnp318BufferedCollectionINS_7IndexedINS_18AnalogOutputStatusEEEZNS_16CountIndexParser13InvokeCountOfINS_11Group42Var3EEEvRKNS_12HeaderRecordEtRKNS_9NumParserERKN7openpal6RSliceERNS_12IAPDUHandlerEEUlRSE_jE_E7ForeachERNS_8IVisitorIS3_EE, .-_ZNK8opendnp318BufferedCollectionINS_7IndexedINS_18AnalogOutputStatusEEEZNS_16CountIndexParser13InvokeCountOfINS_11Group42Var3EEEvRKNS_12HeaderRecordEtRKNS_9NumParserERKN7openpal6RSliceERNS_12IAPDUHandlerEEUlRSE_jE_E7ForeachERNS_8IVisitorIS3_EE
	.section	.text._ZNK8opendnp318BufferedCollectionINS_7IndexedINS_18AnalogOutputStatusEEEZNS_16CountIndexParser13InvokeCountOfINS_11Group42Var2EEEvRKNS_12HeaderRecordEtRKNS_9NumParserERKN7openpal6RSliceERNS_12IAPDUHandlerEEUlRSE_jE_E7ForeachERNS_8IVisitorIS3_EE,"axG",@progbits,_ZNK8opendnp318BufferedCollectionINS_7IndexedINS_18AnalogOutputStatusEEEZNS_16CountIndexParser13InvokeCountOfINS_11Group42Var2EEEvRKNS_12HeaderRecordEtRKNS_9NumParserERKN7openpal6RSliceERNS_12IAPDUHandlerEEUlRSE_jE_E7ForeachERNS_8IVisitorIS3_EE,comdat
	.align 2
	.p2align 4
	.weak	_ZNK8opendnp318BufferedCollectionINS_7IndexedINS_18AnalogOutputStatusEEEZNS_16CountIndexParser13InvokeCountOfINS_11Group42Var2EEEvRKNS_12HeaderRecordEtRKNS_9NumParserERKN7openpal6RSliceERNS_12IAPDUHandlerEEUlRSE_jE_E7ForeachERNS_8IVisitorIS3_EE
	.type	_ZNK8opendnp318BufferedCollectionINS_7IndexedINS_18AnalogOutputStatusEEEZNS_16CountIndexParser13InvokeCountOfINS_11Group42Var2EEEvRKNS_12HeaderRecordEtRKNS_9NumParserERKN7openpal6RSliceERNS_12IAPDUHandlerEEUlRSE_jE_E7ForeachERNS_8IVisitorIS3_EE, @function
_ZNK8opendnp318BufferedCollectionINS_7IndexedINS_18AnalogOutputStatusEEEZNS_16CountIndexParser13InvokeCountOfINS_11Group42Var2EEEvRKNS_12HeaderRecordEtRKNS_9NumParserERKN7openpal6RSliceERNS_12IAPDUHandlerEEUlRSE_jE_E7ForeachERNS_8IVisitorIS3_EE:
.LFB3980:
	.cfi_startproc
	pushq	%r15
	.cfi_def_cfa_offset 16
	.cfi_offset 15, -16
	pushq	%r14
	.cfi_def_cfa_offset 24
	.cfi_offset 14, -24
	pushq	%r13
	.cfi_def_cfa_offset 32
	.cfi_offset 13, -32
	pushq	%r12
	.cfi_def_cfa_offset 40
	.cfi_offset 12, -40
	pushq	%rbp
	.cfi_def_cfa_offset 48
	.cfi_offset 6, -48
	pushq	%rbx
	.cfi_def_cfa_offset 56
	.cfi_offset 3, -56
	subq	$56, %rsp
	.cfi_def_cfa_offset 112
	movdqu	8(%rdi), %xmm0
	movaps	%xmm0, (%rsp)
	cmpq	$0, 24(%rdi)
	je	.L240
	movq	%rsi, %r13
	movq	%rdi, %r12
	xorl	%ebp, %ebp
	.p2align 4
	.p2align 3
.L242:
	movq	0(%r13), %rax
	leaq	16(%rsp), %rdi
	movq	(%rax), %r15
	call	_ZN8opendnp318AnalogOutputStatusC1Ev@PLT
	movq	32(%r12), %rdi
	xorl	%eax, %eax
	movq	%rsp, %rsi
	movw	%ax, 40(%rsp)
	call	_ZNK8opendnp39NumParser7ReadNumERN7openpal6RSliceE@PLT
	leaq	16(%rsp), %rsi
	movq	%rsp, %rdi
	movw	%ax, 40(%rsp)
	call	_ZN8opendnp311Group42Var210ReadTargetERN7openpal6RSliceERNS_18AnalogOutputStatusE@PLT
	leaq	16(%rsp), %rsi
	movq	%r13, %rdi
	call	*%r15
	leal	1(%rbp), %eax
	movq	%rax, %rbp
	cmpq	24(%r12), %rax
	jb	.L242
.L240:
	addq	$56, %rsp
	.cfi_def_cfa_offset 56
	popq	%rbx
	.cfi_def_cfa_offset 48
	popq	%rbp
	.cfi_def_cfa_offset 40
	popq	%r12
	.cfi_def_cfa_offset 32
	popq	%r13
	.cfi_def_cfa_offset 24
	popq	%r14
	.cfi_def_cfa_offset 16
	popq	%r15
	.cfi_def_cfa_offset 8
	ret
	.cfi_endproc
.LFE3980:
	.size	_ZNK8opendnp318BufferedCollectionINS_7IndexedINS_18AnalogOutputStatusEEEZNS_16CountIndexParser13InvokeCountOfINS_11Group42Var2EEEvRKNS_12HeaderRecordEtRKNS_9NumParserERKN7openpal6RSliceERNS_12IAPDUHandlerEEUlRSE_jE_E7ForeachERNS_8IVisitorIS3_EE, .-_ZNK8opendnp318BufferedCollectionINS_7IndexedINS_18AnalogOutputStatusEEEZNS_16CountIndexParser13InvokeCountOfINS_11Group42Var2EEEvRKNS_12HeaderRecordEtRKNS_9NumParserERKN7openpal6RSliceERNS_12IAPDUHandlerEEUlRSE_jE_E7ForeachERNS_8IVisitorIS3_EE
	.section	.text._ZNK8opendnp318BufferedCollectionINS_7IndexedINS_18AnalogOutputStatusEEEZNS_16CountIndexParser13InvokeCountOfINS_11Group42Var1EEEvRKNS_12HeaderRecordEtRKNS_9NumParserERKN7openpal6RSliceERNS_12IAPDUHandlerEEUlRSE_jE_E7ForeachERNS_8IVisitorIS3_EE,"axG",@progbits,_ZNK8opendnp318BufferedCollectionINS_7IndexedINS_18AnalogOutputStatusEEEZNS_16CountIndexParser13InvokeCountOfINS_11Group42Var1EEEvRKNS_12HeaderRecordEtRKNS_9NumParserERKN7openpal6RSliceERNS_12IAPDUHandlerEEUlRSE_jE_E7ForeachERNS_8IVisitorIS3_EE,comdat
	.align 2
	.p2align 4
	.weak	_ZNK8opendnp318BufferedCollectionINS_7IndexedINS_18AnalogOutputStatusEEEZNS_16CountIndexParser13InvokeCountOfINS_11Group42Var1EEEvRKNS_12HeaderRecordEtRKNS_9NumParserERKN7openpal6RSliceERNS_12IAPDUHandlerEEUlRSE_jE_E7ForeachERNS_8IVisitorIS3_EE
	.type	_ZNK8opendnp318BufferedCollectionINS_7IndexedINS_18AnalogOutputStatusEEEZNS_16CountIndexParser13InvokeCountOfINS_11Group42Var1EEEvRKNS_12HeaderRecordEtRKNS_9NumParserERKN7openpal6RSliceERNS_12IAPDUHandlerEEUlRSE_jE_E7ForeachERNS_8IVisitorIS3_EE, @function
_ZNK8opendnp318BufferedCollectionINS_7IndexedINS_18AnalogOutputStatusEEEZNS_16CountIndexParser13InvokeCountOfINS_11Group42Var1EEEvRKNS_12HeaderRecordEtRKNS_9NumParserERKN7openpal6RSliceERNS_12IAPDUHandlerEEUlRSE_jE_E7ForeachERNS_8IVisitorIS3_EE:
.LFB3982:
	.cfi_startproc
	pushq	%r15
	.cfi_def_cfa_offset 16
	.cfi_offset 15, -16
	pushq	%r14
	.cfi_def_cfa_offset 24
	.cfi_offset 14, -24
	pushq	%r13
	.cfi_def_cfa_offset 32
	.cfi_offset 13, -32
	pushq	%r12
	.cfi_def_cfa_offset 40
	.cfi_offset 12, -40
	pushq	%rbp
	.cfi_def_cfa_offset 48
	.cfi_offset 6, -48
	pushq	%rbx
	.cfi_def_cfa_offset 56
	.cfi_offset 3, -56
	subq	$56, %rsp
	.cfi_def_cfa_offset 112
	movdqu	8(%rdi), %xmm0
	movaps	%xmm0, (%rsp)
	cmpq	$0, 24(%rdi)
	je	.L245
	movq	%rsi, %r13
	movq	%rdi, %r12
	xorl	%ebp, %ebp
	.p2align 4
	.p2align 3
.L247:
	movq	0(%r13), %rax
	leaq	16(%rsp), %rdi
	movq	(%rax), %r15
	call	_ZN8opendnp318AnalogOutputStatusC1Ev@PLT
	movq	32(%r12), %rdi
	xorl	%eax, %eax
	movq	%rsp, %rsi
	movw	%ax, 40(%rsp)
	call	_ZNK8opendnp39NumParser7ReadNumERN7openpal6RSliceE@PLT
	leaq	16(%rsp), %rsi
	movq	%rsp, %rdi
	movw	%ax, 40(%rsp)
	call	_ZN8opendnp311Group42Var110ReadTargetERN7openpal6RSliceERNS_18AnalogOutputStatusE@PLT
	leaq	16(%rsp), %rsi
	movq	%r13, %rdi
	call	*%r15
	leal	1(%rbp), %eax
	movq	%rax, %rbp
	cmpq	24(%r12), %rax
	jb	.L247
.L245:
	addq	$56, %rsp
	.cfi_def_cfa_offset 56
	popq	%rbx
	.cfi_def_cfa_offset 48
	popq	%rbp
	.cfi_def_cfa_offset 40
	popq	%r12
	.cfi_def_cfa_offset 32
	popq	%r13
	.cfi_def_cfa_offset 24
	popq	%r14
	.cfi_def_cfa_offset 16
	popq	%r15
	.cfi_def_cfa_offset 8
	ret
	.cfi_endproc
.LFE3982:
	.size	_ZNK8opendnp318BufferedCollectionINS_7IndexedINS_18AnalogOutputStatusEEEZNS_16CountIndexParser13InvokeCountOfINS_11Group42Var1EEEvRKNS_12HeaderRecordEtRKNS_9NumParserERKN7openpal6RSliceERNS_12IAPDUHandlerEEUlRSE_jE_E7ForeachERNS_8IVisitorIS3_EE, .-_ZNK8opendnp318BufferedCollectionINS_7IndexedINS_18AnalogOutputStatusEEEZNS_16CountIndexParser13InvokeCountOfINS_11Group42Var1EEEvRKNS_12HeaderRecordEtRKNS_9NumParserERKN7openpal6RSliceERNS_12IAPDUHandlerEEUlRSE_jE_E7ForeachERNS_8IVisitorIS3_EE
	.section	.text._ZNK8opendnp318BufferedCollectionINS_7IndexedINS_20AnalogOutputDouble64EEEZNS_16CountIndexParser13InvokeCountOfINS_11Group41Var4EEEvRKNS_12HeaderRecordEtRKNS_9NumParserERKN7openpal6RSliceERNS_12IAPDUHandlerEEUlRSE_jE_E7ForeachERNS_8IVisitorIS3_EE,"axG",@progbits,_ZNK8opendnp318BufferedCollectionINS_7IndexedINS_20AnalogOutputDouble64EEEZNS_16CountIndexParser13InvokeCountOfINS_11Group41Var4EEEvRKNS_12HeaderRecordEtRKNS_9NumParserERKN7openpal6RSliceERNS_12IAPDUHandlerEEUlRSE_jE_E7ForeachERNS_8IVisitorIS3_EE,comdat
	.align 2
	.p2align 4
	.weak	_ZNK8opendnp318BufferedCollectionINS_7IndexedINS_20AnalogOutputDouble64EEEZNS_16CountIndexParser13InvokeCountOfINS_11Group41Var4EEEvRKNS_12HeaderRecordEtRKNS_9NumParserERKN7openpal6RSliceERNS_12IAPDUHandlerEEUlRSE_jE_E7ForeachERNS_8IVisitorIS3_EE
	.type	_ZNK8opendnp318BufferedCollectionINS_7IndexedINS_20AnalogOutputDouble64EEEZNS_16CountIndexParser13InvokeCountOfINS_11Group41Var4EEEvRKNS_12HeaderRecordEtRKNS_9NumParserERKN7openpal6RSliceERNS_12IAPDUHandlerEEUlRSE_jE_E7ForeachERNS_8IVisitorIS3_EE, @function
_ZNK8opendnp318BufferedCollectionINS_7IndexedINS_20AnalogOutputDouble64EEEZNS_16CountIndexParser13InvokeCountOfINS_11Group41Var4EEEvRKNS_12HeaderRecordEtRKNS_9NumParserERKN7openpal6RSliceERNS_12IAPDUHandlerEEUlRSE_jE_E7ForeachERNS_8IVisitorIS3_EE:
.LFB3984:
	.cfi_startproc
	pushq	%r15
	.cfi_def_cfa_offset 16
	.cfi_offset 15, -16
	pushq	%r14
	.cfi_def_cfa_offset 24
	.cfi_offset 14, -24
	pushq	%r13
	.cfi_def_cfa_offset 32
	.cfi_offset 13, -32
	pushq	%r12
	.cfi_def_cfa_offset 40
	.cfi_offset 12, -40
	pushq	%rbp
	.cfi_def_cfa_offset 48
	.cfi_offset 6, -48
	pushq	%rbx
	.cfi_def_cfa_offset 56
	.cfi_offset 3, -56
	subq	$56, %rsp
	.cfi_def_cfa_offset 112
	movdqu	8(%rdi), %xmm0
	movaps	%xmm0, (%rsp)
	cmpq	$0, 24(%rdi)
	je	.L250
	movq	%rsi, %r13
	movq	%rdi, %r12
	xorl	%ebp, %ebp
	.p2align 4
	.p2align 3
.L252:
	movq	0(%r13), %rax
	leaq	16(%rsp), %rdi
	movq	(%rax), %r15
	call	_ZN8opendnp320AnalogOutputDouble64C1Ev@PLT
	movq	32(%r12), %rdi
	xorl	%eax, %eax
	movq	%rsp, %rsi
	movw	%ax, 32(%rsp)
	call	_ZNK8opendnp39NumParser7ReadNumERN7openpal6RSliceE@PLT
	leaq	16(%rsp), %rsi
	movq	%rsp, %rdi
	movw	%ax, 32(%rsp)
	call	_ZN8opendnp311Group41Var410ReadTargetERN7openpal6RSliceERNS_20AnalogOutputDouble64E@PLT
	leaq	16(%rsp), %rsi
	movq	%r13, %rdi
	call	*%r15
	leal	1(%rbp), %eax
	movq	%rax, %rbp
	cmpq	24(%r12), %rax
	jb	.L252
.L250:
	addq	$56, %rsp
	.cfi_def_cfa_offset 56
	popq	%rbx
	.cfi_def_cfa_offset 48
	popq	%rbp
	.cfi_def_cfa_offset 40
	popq	%r12
	.cfi_def_cfa_offset 32
	popq	%r13
	.cfi_def_cfa_offset 24
	popq	%r14
	.cfi_def_cfa_offset 16
	popq	%r15
	.cfi_def_cfa_offset 8
	ret
	.cfi_endproc
.LFE3984:
	.size	_ZNK8opendnp318BufferedCollectionINS_7IndexedINS_20AnalogOutputDouble64EEEZNS_16CountIndexParser13InvokeCountOfINS_11Group41Var4EEEvRKNS_12HeaderRecordEtRKNS_9NumParserERKN7openpal6RSliceERNS_12IAPDUHandlerEEUlRSE_jE_E7ForeachERNS_8IVisitorIS3_EE, .-_ZNK8opendnp318BufferedCollectionINS_7IndexedINS_20AnalogOutputDouble64EEEZNS_16CountIndexParser13InvokeCountOfINS_11Group41Var4EEEvRKNS_12HeaderRecordEtRKNS_9NumParserERKN7openpal6RSliceERNS_12IAPDUHandlerEEUlRSE_jE_E7ForeachERNS_8IVisitorIS3_EE
	.section	.text._ZNK8opendnp318BufferedCollectionINS_7IndexedINS_19AnalogOutputFloat32EEEZNS_16CountIndexParser13InvokeCountOfINS_11Group41Var3EEEvRKNS_12HeaderRecordEtRKNS_9NumParserERKN7openpal6RSliceERNS_12IAPDUHandlerEEUlRSE_jE_E7ForeachERNS_8IVisitorIS3_EE,"axG",@progbits,_ZNK8opendnp318BufferedCollectionINS_7IndexedINS_19AnalogOutputFloat32EEEZNS_16CountIndexParser13InvokeCountOfINS_11Group41Var3EEEvRKNS_12HeaderRecordEtRKNS_9NumParserERKN7openpal6RSliceERNS_12IAPDUHandlerEEUlRSE_jE_E7ForeachERNS_8IVisitorIS3_EE,comdat
	.align 2
	.p2align 4
	.weak	_ZNK8opendnp318BufferedCollectionINS_7IndexedINS_19AnalogOutputFloat32EEEZNS_16CountIndexParser13InvokeCountOfINS_11Group41Var3EEEvRKNS_12HeaderRecordEtRKNS_9NumParserERKN7openpal6RSliceERNS_12IAPDUHandlerEEUlRSE_jE_E7ForeachERNS_8IVisitorIS3_EE
	.type	_ZNK8opendnp318BufferedCollectionINS_7IndexedINS_19AnalogOutputFloat32EEEZNS_16CountIndexParser13InvokeCountOfINS_11Group41Var3EEEvRKNS_12HeaderRecordEtRKNS_9NumParserERKN7openpal6RSliceERNS_12IAPDUHandlerEEUlRSE_jE_E7ForeachERNS_8IVisitorIS3_EE, @function
_ZNK8opendnp318BufferedCollectionINS_7IndexedINS_19AnalogOutputFloat32EEEZNS_16CountIndexParser13InvokeCountOfINS_11Group41Var3EEEvRKNS_12HeaderRecordEtRKNS_9NumParserERKN7openpal6RSliceERNS_12IAPDUHandlerEEUlRSE_jE_E7ForeachERNS_8IVisitorIS3_EE:
.LFB3986:
	.cfi_startproc
	pushq	%r15
	.cfi_def_cfa_offset 16
	.cfi_offset 15, -16
	pushq	%r14
	.cfi_def_cfa_offset 24
	.cfi_offset 14, -24
	pushq	%r13
	.cfi_def_cfa_offset 32
	.cfi_offset 13, -32
	pushq	%r12
	.cfi_def_cfa_offset 40
	.cfi_offset 12, -40
	pushq	%rbp
	.cfi_def_cfa_offset 48
	.cfi_offset 6, -48
	pushq	%rbx
	.cfi_def_cfa_offset 56
	.cfi_offset 3, -56
	subq	$40, %rsp
	.cfi_def_cfa_offset 96
	movdqu	8(%rdi), %xmm0
	movaps	%xmm0, 16(%rsp)
	cmpq	$0, 24(%rdi)
	je	.L255
	movq	%rsi, %r13
	movq	%rdi, %r12
	xorl	%ebp, %ebp
	.p2align 4
	.p2align 3
.L257:
	movq	0(%r13), %rax
	leaq	4(%rsp), %rdi
	movq	(%rax), %r15
	call	_ZN8opendnp319AnalogOutputFloat32C1Ev@PLT
	movq	32(%r12), %rdi
	xorl	%eax, %eax
	leaq	16(%rsp), %rsi
	movw	%ax, 12(%rsp)
	call	_ZNK8opendnp39NumParser7ReadNumERN7openpal6RSliceE@PLT
	leaq	4(%rsp), %rsi
	leaq	16(%rsp), %rdi
	movw	%ax, 12(%rsp)
	call	_ZN8opendnp311Group41Var310ReadTargetERN7openpal6RSliceERNS_19AnalogOutputFloat32E@PLT
	leaq	4(%rsp), %rsi
	movq	%r13, %rdi
	call	*%r15
	leal	1(%rbp), %eax
	movq	%rax, %rbp
	cmpq	24(%r12), %rax
	jb	.L257
.L255:
	addq	$40, %rsp
	.cfi_def_cfa_offset 56
	popq	%rbx
	.cfi_def_cfa_offset 48
	popq	%rbp
	.cfi_def_cfa_offset 40
	popq	%r12
	.cfi_def_cfa_offset 32
	popq	%r13
	.cfi_def_cfa_offset 24
	popq	%r14
	.cfi_def_cfa_offset 16
	popq	%r15
	.cfi_def_cfa_offset 8
	ret
	.cfi_endproc
.LFE3986:
	.size	_ZNK8opendnp318BufferedCollectionINS_7IndexedINS_19AnalogOutputFloat32EEEZNS_16CountIndexParser13InvokeCountOfINS_11Group41Var3EEEvRKNS_12HeaderRecordEtRKNS_9NumParserERKN7openpal6RSliceERNS_12IAPDUHandlerEEUlRSE_jE_E7ForeachERNS_8IVisitorIS3_EE, .-_ZNK8opendnp318BufferedCollectionINS_7IndexedINS_19AnalogOutputFloat32EEEZNS_16CountIndexParser13InvokeCountOfINS_11Group41Var3EEEvRKNS_12HeaderRecordEtRKNS_9NumParserERKN7openpal6RSliceERNS_12IAPDUHandlerEEUlRSE_jE_E7ForeachERNS_8IVisitorIS3_EE
	.section	.text._ZNK8opendnp318BufferedCollectionINS_7IndexedINS_17AnalogOutputInt16EEEZNS_16CountIndexParser13InvokeCountOfINS_11Group41Var2EEEvRKNS_12HeaderRecordEtRKNS_9NumParserERKN7openpal6RSliceERNS_12IAPDUHandlerEEUlRSE_jE_E7ForeachERNS_8IVisitorIS3_EE,"axG",@progbits,_ZNK8opendnp318BufferedCollectionINS_7IndexedINS_17AnalogOutputInt16EEEZNS_16CountIndexParser13InvokeCountOfINS_11Group41Var2EEEvRKNS_12HeaderRecordEtRKNS_9NumParserERKN7openpal6RSliceERNS_12IAPDUHandlerEEUlRSE_jE_E7ForeachERNS_8IVisitorIS3_EE,comdat
	.align 2
	.p2align 4
	.weak	_ZNK8opendnp318BufferedCollectionINS_7IndexedINS_17AnalogOutputInt16EEEZNS_16CountIndexParser13InvokeCountOfINS_11Group41Var2EEEvRKNS_12HeaderRecordEtRKNS_9NumParserERKN7openpal6RSliceERNS_12IAPDUHandlerEEUlRSE_jE_E7ForeachERNS_8IVisitorIS3_EE
	.type	_ZNK8opendnp318BufferedCollectionINS_7IndexedINS_17AnalogOutputInt16EEEZNS_16CountIndexParser13InvokeCountOfINS_11Group41Var2EEEvRKNS_12HeaderRecordEtRKNS_9NumParserERKN7openpal6RSliceERNS_12IAPDUHandlerEEUlRSE_jE_E7ForeachERNS_8IVisitorIS3_EE, @function
_ZNK8opendnp318BufferedCollectionINS_7IndexedINS_17AnalogOutputInt16EEEZNS_16CountIndexParser13InvokeCountOfINS_11Group41Var2EEEvRKNS_12HeaderRecordEtRKNS_9NumParserERKN7openpal6RSliceERNS_12IAPDUHandlerEEUlRSE_jE_E7ForeachERNS_8IVisitorIS3_EE:
.LFB3988:
	.cfi_startproc
	pushq	%r15
	.cfi_def_cfa_offset 16
	.cfi_offset 15, -16
	pushq	%r14
	.cfi_def_cfa_offset 24
	.cfi_offset 14, -24
	pushq	%r13
	.cfi_def_cfa_offset 32
	.cfi_offset 13, -32
	pushq	%r12
	.cfi_def_cfa_offset 40
	.cfi_offset 12, -40
	pushq	%rbp
	.cfi_def_cfa_offset 48
	.cfi_offset 6, -48
	pushq	%rbx
	.cfi_def_cfa_offset 56
	.cfi_offset 3, -56
	subq	$40, %rsp
	.cfi_def_cfa_offset 96
	movdqu	8(%rdi), %xmm0
	movaps	%xmm0, 16(%rsp)
	cmpq	$0, 24(%rdi)
	je	.L260
	movq	%rsi, %r13
	movq	%rdi, %r12
	xorl	%ebp, %ebp
	.p2align 4
	.p2align 3
.L262:
	movq	0(%r13), %rax
	leaq	10(%rsp), %rdi
	movq	(%rax), %r15
	call	_ZN8opendnp317AnalogOutputInt16C1Ev@PLT
	movq	32(%r12), %rdi
	xorl	%eax, %eax
	leaq	16(%rsp), %rsi
	movw	%ax, 14(%rsp)
	call	_ZNK8opendnp39NumParser7ReadNumERN7openpal6RSliceE@PLT
	leaq	10(%rsp), %rsi
	leaq	16(%rsp), %rdi
	movw	%ax, 14(%rsp)
	call	_ZN8opendnp311Group41Var210ReadTargetERN7openpal6RSliceERNS_17AnalogOutputInt16E@PLT
	leaq	10(%rsp), %rsi
	movq	%r13, %rdi
	call	*%r15
	leal	1(%rbp), %eax
	movq	%rax, %rbp
	cmpq	24(%r12), %rax
	jb	.L262
.L260:
	addq	$40, %rsp
	.cfi_def_cfa_offset 56
	popq	%rbx
	.cfi_def_cfa_offset 48
	popq	%rbp
	.cfi_def_cfa_offset 40
	popq	%r12
	.cfi_def_cfa_offset 32
	popq	%r13
	.cfi_def_cfa_offset 24
	popq	%r14
	.cfi_def_cfa_offset 16
	popq	%r15
	.cfi_def_cfa_offset 8
	ret
	.cfi_endproc
.LFE3988:
	.size	_ZNK8opendnp318BufferedCollectionINS_7IndexedINS_17AnalogOutputInt16EEEZNS_16CountIndexParser13InvokeCountOfINS_11Group41Var2EEEvRKNS_12HeaderRecordEtRKNS_9NumParserERKN7openpal6RSliceERNS_12IAPDUHandlerEEUlRSE_jE_E7ForeachERNS_8IVisitorIS3_EE, .-_ZNK8opendnp318BufferedCollectionINS_7IndexedINS_17AnalogOutputInt16EEEZNS_16CountIndexParser13InvokeCountOfINS_11Group41Var2EEEvRKNS_12HeaderRecordEtRKNS_9NumParserERKN7openpal6RSliceERNS_12IAPDUHandlerEEUlRSE_jE_E7ForeachERNS_8IVisitorIS3_EE
