	.file	"DefaultMasterApplication.cpp"
	.text
	.section	.text._ZN8opendnp313ILinkListener20OnKeepAliveInitiatedEv,"axG",@progbits,_ZN8opendnp313ILinkListener20OnKeepAliveInitiatedEv,comdat
	.align 2
	.p2align 4
	.weak	_ZN8opendnp313ILinkListener20OnKeepAliveInitiatedEv
	.type	_ZN8opendnp313ILinkListener20OnKeepAliveInitiatedEv, @function
_ZN8opendnp313ILinkListener20OnKeepAliveInitiatedEv:
.LFB58:
	.cfi_startproc
	ret
	.cfi_endproc
.LFE58:
	.size	_ZN8opendnp313ILinkListener20OnKeepAliveInitiatedEv, .-_ZN8opendnp313ILinkListener20OnKeepAliveInitiatedEv
	.section	.text._ZN8opendnp313ILinkListener18OnKeepAliveFailureEv,"axG",@progbits,_ZN8opendnp313ILinkListener18OnKeepAliveFailureEv,comdat
	.align 2
	.p2align 4
	.weak	_ZN8opendnp313ILinkListener18OnKeepAliveFailureEv
	.type	_ZN8opendnp313ILinkListener18OnKeepAliveFailureEv, @function
_ZN8opendnp313ILinkListener18OnKeepAliveFailureEv:
.LFB59:
	.cfi_startproc
	ret
	.cfi_endproc
.LFE59:
	.size	_ZN8opendnp313ILinkListener18OnKeepAliveFailureEv, .-_ZN8opendnp313ILinkListener18OnKeepAliveFailureEv
	.section	.text._ZN8opendnp313ILinkListener18OnKeepAliveSuccessEv,"axG",@progbits,_ZN8opendnp313ILinkListener18OnKeepAliveSuccessEv,comdat
	.align 2
	.p2align 4
	.weak	_ZN8opendnp313ILinkListener18OnKeepAliveSuccessEv
	.type	_ZN8opendnp313ILinkListener18OnKeepAliveSuccessEv, @function
_ZN8opendnp313ILinkListener18OnKeepAliveSuccessEv:
.LFB60:
	.cfi_startproc
	ret
	.cfi_endproc
.LFE60:
	.size	_ZN8opendnp313ILinkListener18OnKeepAliveSuccessEv, .-_ZN8opendnp313ILinkListener18OnKeepAliveSuccessEv
	.section	.text._ZN8opendnp318IMasterApplication6OnOpenEv,"axG",@progbits,_ZN8opendnp318IMasterApplication6OnOpenEv,comdat
	.align 2
	.p2align 4
	.weak	_ZN8opendnp318IMasterApplication6OnOpenEv
	.type	_ZN8opendnp318IMasterApplication6OnOpenEv, @function
_ZN8opendnp318IMasterApplication6OnOpenEv:
.LFB589:
	.cfi_startproc
	ret
	.cfi_endproc
.LFE589:
	.size	_ZN8opendnp318IMasterApplication6OnOpenEv, .-_ZN8opendnp318IMasterApplication6OnOpenEv
	.section	.text._ZN8opendnp318IMasterApplication7OnCloseEv,"axG",@progbits,_ZN8opendnp318IMasterApplication7OnCloseEv,comdat
	.align 2
	.p2align 4
	.weak	_ZN8opendnp318IMasterApplication7OnCloseEv
	.type	_ZN8opendnp318IMasterApplication7OnCloseEv, @function
_ZN8opendnp318IMasterApplication7OnCloseEv:
.LFB590:
	.cfi_startproc
	ret
	.cfi_endproc
.LFE590:
	.size	_ZN8opendnp318IMasterApplication7OnCloseEv, .-_ZN8opendnp318IMasterApplication7OnCloseEv
	.section	.text._ZN8asiodnp324DefaultMasterApplication12OnReceiveIINERKN8opendnp38IINFieldE,"axG",@progbits,_ZN8asiodnp324DefaultMasterApplication12OnReceiveIINERKN8opendnp38IINFieldE,comdat
	.align 2
	.p2align 4
	.weak	_ZN8asiodnp324DefaultMasterApplication12OnReceiveIINERKN8opendnp38IINFieldE
	.type	_ZN8asiodnp324DefaultMasterApplication12OnReceiveIINERKN8opendnp38IINFieldE, @function
_ZN8asiodnp324DefaultMasterApplication12OnReceiveIINERKN8opendnp38IINFieldE:
.LFB1727:
	.cfi_startproc
	ret
	.cfi_endproc
.LFE1727:
	.size	_ZN8asiodnp324DefaultMasterApplication12OnReceiveIINERKN8opendnp38IINFieldE, .-_ZN8asiodnp324DefaultMasterApplication12OnReceiveIINERKN8opendnp38IINFieldE
	.section	.text._ZN8asiodnp324DefaultMasterApplication11OnTaskStartEN8opendnp314MasterTaskTypeENS1_6TaskIdE,"axG",@progbits,_ZN8asiodnp324DefaultMasterApplication11OnTaskStartEN8opendnp314MasterTaskTypeENS1_6TaskIdE,comdat
	.align 2
	.p2align 4
	.weak	_ZN8asiodnp324DefaultMasterApplication11OnTaskStartEN8opendnp314MasterTaskTypeENS1_6TaskIdE
	.type	_ZN8asiodnp324DefaultMasterApplication11OnTaskStartEN8opendnp314MasterTaskTypeENS1_6TaskIdE, @function
_ZN8asiodnp324DefaultMasterApplication11OnTaskStartEN8opendnp314MasterTaskTypeENS1_6TaskIdE:
.LFB1728:
	.cfi_startproc
	ret
	.cfi_endproc
.LFE1728:
	.size	_ZN8asiodnp324DefaultMasterApplication11OnTaskStartEN8opendnp314MasterTaskTypeENS1_6TaskIdE, .-_ZN8asiodnp324DefaultMasterApplication11OnTaskStartEN8opendnp314MasterTaskTypeENS1_6TaskIdE
	.section	.text._ZN8asiodnp324DefaultMasterApplication14OnTaskCompleteERKN8opendnp38TaskInfoE,"axG",@progbits,_ZN8asiodnp324DefaultMasterApplication14OnTaskCompleteERKN8opendnp38TaskInfoE,comdat
	.align 2
	.p2align 4
	.weak	_ZN8asiodnp324DefaultMasterApplication14OnTaskCompleteERKN8opendnp38TaskInfoE
	.type	_ZN8asiodnp324DefaultMasterApplication14OnTaskCompleteERKN8opendnp38TaskInfoE, @function
_ZN8asiodnp324DefaultMasterApplication14OnTaskCompleteERKN8opendnp38TaskInfoE:
.LFB1729:
	.cfi_startproc
	ret
	.cfi_endproc
.LFE1729:
	.size	_ZN8asiodnp324DefaultMasterApplication14OnTaskCompleteERKN8opendnp38TaskInfoE, .-_ZN8asiodnp324DefaultMasterApplication14OnTaskCompleteERKN8opendnp38TaskInfoE
	.section	.text._ZN8asiodnp324DefaultMasterApplication24AssignClassDuringStartupEv,"axG",@progbits,_ZN8asiodnp324DefaultMasterApplication24AssignClassDuringStartupEv,comdat
	.align 2
	.p2align 4
	.weak	_ZN8asiodnp324DefaultMasterApplication24AssignClassDuringStartupEv
	.type	_ZN8asiodnp324DefaultMasterApplication24AssignClassDuringStartupEv, @function
_ZN8asiodnp324DefaultMasterApplication24AssignClassDuringStartupEv:
.LFB1730:
	.cfi_startproc
	xorl	%eax, %eax
	ret
	.cfi_endproc
.LFE1730:
	.size	_ZN8asiodnp324DefaultMasterApplication24AssignClassDuringStartupEv, .-_ZN8asiodnp324DefaultMasterApplication24AssignClassDuringStartupEv
	.section	.text._ZN8asiodnp324DefaultMasterApplication27ConfigureAssignClassRequestERKSt8functionIFvRKN8opendnp36HeaderEEE,"axG",@progbits,_ZN8asiodnp324DefaultMasterApplication27ConfigureAssignClassRequestERKSt8functionIFvRKN8opendnp36HeaderEEE,comdat
	.align 2
	.p2align 4
	.weak	_ZN8asiodnp324DefaultMasterApplication27ConfigureAssignClassRequestERKSt8functionIFvRKN8opendnp36HeaderEEE
	.type	_ZN8asiodnp324DefaultMasterApplication27ConfigureAssignClassRequestERKSt8functionIFvRKN8opendnp36HeaderEEE, @function
_ZN8asiodnp324DefaultMasterApplication27ConfigureAssignClassRequestERKSt8functionIFvRKN8opendnp36HeaderEEE:
.LFB1731:
	.cfi_startproc
	ret
	.cfi_endproc
.LFE1731:
	.size	_ZN8asiodnp324DefaultMasterApplication27ConfigureAssignClassRequestERKSt8functionIFvRKN8opendnp36HeaderEEE, .-_ZN8asiodnp324DefaultMasterApplication27ConfigureAssignClassRequestERKSt8functionIFvRKN8opendnp36HeaderEEE
	.section	.text._ZN8asiodnp324DefaultMasterApplication13OnStateChangeEN8opendnp310LinkStatusE,"axG",@progbits,_ZN8asiodnp324DefaultMasterApplication13OnStateChangeEN8opendnp310LinkStatusE,comdat
	.align 2
	.p2align 4
	.weak	_ZN8asiodnp324DefaultMasterApplication13OnStateChangeEN8opendnp310LinkStatusE
	.type	_ZN8asiodnp324DefaultMasterApplication13OnStateChangeEN8opendnp310LinkStatusE, @function
_ZN8asiodnp324DefaultMasterApplication13OnStateChangeEN8opendnp310LinkStatusE:
.LFB1732:
	.cfi_startproc
	ret
	.cfi_endproc
.LFE1732:
	.size	_ZN8asiodnp324DefaultMasterApplication13OnStateChangeEN8opendnp310LinkStatusE, .-_ZN8asiodnp324DefaultMasterApplication13OnStateChangeEN8opendnp310LinkStatusE
	.section	.text._ZN8asiodnp324DefaultMasterApplicationD2Ev,"axG",@progbits,_ZN8asiodnp324DefaultMasterApplicationD5Ev,comdat
	.align 2
	.p2align 4
	.weak	_ZN8asiodnp324DefaultMasterApplicationD2Ev
	.type	_ZN8asiodnp324DefaultMasterApplicationD2Ev, @function
_ZN8asiodnp324DefaultMasterApplicationD2Ev:
.LFB2213:
	.cfi_startproc
	ret
	.cfi_endproc
.LFE2213:
	.size	_ZN8asiodnp324DefaultMasterApplicationD2Ev, .-_ZN8asiodnp324DefaultMasterApplicationD2Ev
	.weak	_ZN8asiodnp324DefaultMasterApplicationD1Ev
	.set	_ZN8asiodnp324DefaultMasterApplicationD1Ev,_ZN8asiodnp324DefaultMasterApplicationD2Ev
	.text
	.align 2
	.p2align 4
	.globl	_ZN8asiodnp324DefaultMasterApplication3NowEv
	.type	_ZN8asiodnp324DefaultMasterApplication3NowEv, @function
_ZN8asiodnp324DefaultMasterApplication3NowEv:
.LFB2079:
	.cfi_startproc
	subq	$8, %rsp
	.cfi_def_cfa_offset 16
	call	_ZNSt6chrono3_V212system_clock3nowEv@PLT
	addq	$8, %rsp
	.cfi_def_cfa_offset 8
	movq	%rax, %rcx
	movabsq	$4835703278458516699, %rax
	imulq	%rcx
	sarq	$63, %rcx
	sarq	$18, %rdx
	movq	%rdx, %rax
	subq	%rcx, %rax
	ret
	.cfi_endproc
.LFE2079:
	.size	_ZN8asiodnp324DefaultMasterApplication3NowEv, .-_ZN8asiodnp324DefaultMasterApplication3NowEv
	.section	.text._ZN8asiodnp324DefaultMasterApplicationD0Ev,"axG",@progbits,_ZN8asiodnp324DefaultMasterApplicationD5Ev,comdat
	.align 2
	.p2align 4
	.weak	_ZN8asiodnp324DefaultMasterApplicationD0Ev
	.type	_ZN8asiodnp324DefaultMasterApplicationD0Ev, @function
_ZN8asiodnp324DefaultMasterApplicationD0Ev:
.LFB2215:
	.cfi_startproc
	movl	$16, %esi
	jmp	_ZdlPvm@PLT
	.cfi_endproc
.LFE2215:
	.size	_ZN8asiodnp324DefaultMasterApplicationD0Ev, .-_ZN8asiodnp324DefaultMasterApplicationD0Ev
	.text
	.p2align 4
	.globl	_ZThn8_N8asiodnp324DefaultMasterApplication3NowEv
	.type	_ZThn8_N8asiodnp324DefaultMasterApplication3NowEv, @function
_ZThn8_N8asiodnp324DefaultMasterApplication3NowEv:
.LFB2227:
	.cfi_startproc
	subq	$8, %rsp
	.cfi_def_cfa_offset 16
	call	_ZNSt6chrono3_V212system_clock3nowEv@PLT
	addq	$8, %rsp
	.cfi_def_cfa_offset 8
	movq	%rax, %rcx
	movabsq	$4835703278458516699, %rax
	imulq	%rcx
	sarq	$63, %rcx
	sarq	$18, %rdx
	movq	%rdx, %rax
	subq	%rcx, %rax
	ret
	.cfi_endproc
.LFE2227:
	.size	_ZThn8_N8asiodnp324DefaultMasterApplication3NowEv, .-_ZThn8_N8asiodnp324DefaultMasterApplication3NowEv
	.weak	_ZTSN7openpal14IUTCTimeSourceE
	.section	.rodata._ZTSN7openpal14IUTCTimeSourceE,"aG",@progbits,_ZTSN7openpal14IUTCTimeSourceE,comdat
	.align 16
	.type	_ZTSN7openpal14IUTCTimeSourceE, @object
	.size	_ZTSN7openpal14IUTCTimeSourceE, 27
_ZTSN7openpal14IUTCTimeSourceE:
	.string	"N7openpal14IUTCTimeSourceE"
	.weak	_ZTIN7openpal14IUTCTimeSourceE
	.section	.data.rel.ro._ZTIN7openpal14IUTCTimeSourceE,"awG",@progbits,_ZTIN7openpal14IUTCTimeSourceE,comdat
	.align 8
	.type	_ZTIN7openpal14IUTCTimeSourceE, @object
	.size	_ZTIN7openpal14IUTCTimeSourceE, 16
_ZTIN7openpal14IUTCTimeSourceE:
	.quad	_ZTVN10__cxxabiv117__class_type_infoE+16
	.quad	_ZTSN7openpal14IUTCTimeSourceE
	.weak	_ZTSN8opendnp313ILinkListenerE
	.section	.rodata._ZTSN8opendnp313ILinkListenerE,"aG",@progbits,_ZTSN8opendnp313ILinkListenerE,comdat
	.align 16
	.type	_ZTSN8opendnp313ILinkListenerE, @object
	.size	_ZTSN8opendnp313ILinkListenerE, 27
_ZTSN8opendnp313ILinkListenerE:
	.string	"N8opendnp313ILinkListenerE"
	.weak	_ZTIN8opendnp313ILinkListenerE
	.section	.data.rel.ro._ZTIN8opendnp313ILinkListenerE,"awG",@progbits,_ZTIN8opendnp313ILinkListenerE,comdat
	.align 8
	.type	_ZTIN8opendnp313ILinkListenerE, @object
	.size	_ZTIN8opendnp313ILinkListenerE, 16
_ZTIN8opendnp313ILinkListenerE:
	.quad	_ZTVN10__cxxabiv117__class_type_infoE+16
	.quad	_ZTSN8opendnp313ILinkListenerE
	.weak	_ZTSN8opendnp318IMasterApplicationE
	.section	.rodata._ZTSN8opendnp318IMasterApplicationE,"aG",@progbits,_ZTSN8opendnp318IMasterApplicationE,comdat
	.align 32
	.type	_ZTSN8opendnp318IMasterApplicationE, @object
	.size	_ZTSN8opendnp318IMasterApplicationE, 32
_ZTSN8opendnp318IMasterApplicationE:
	.string	"N8opendnp318IMasterApplicationE"
	.weak	_ZTIN8opendnp318IMasterApplicationE
	.section	.data.rel.ro._ZTIN8opendnp318IMasterApplicationE,"awG",@progbits,_ZTIN8opendnp318IMasterApplicationE,comdat
	.align 8
	.type	_ZTIN8opendnp318IMasterApplicationE, @object
	.size	_ZTIN8opendnp318IMasterApplicationE, 56
_ZTIN8opendnp318IMasterApplicationE:
	.quad	_ZTVN10__cxxabiv121__vmi_class_type_infoE+16
	.quad	_ZTSN8opendnp318IMasterApplicationE
	.long	0
	.long	2
	.quad	_ZTIN8opendnp313ILinkListenerE
	.quad	2
	.quad	_ZTIN7openpal14IUTCTimeSourceE
	.quad	2050
	.weak	_ZTSN8asiodnp324DefaultMasterApplicationE
	.section	.rodata._ZTSN8asiodnp324DefaultMasterApplicationE,"aG",@progbits,_ZTSN8asiodnp324DefaultMasterApplicationE,comdat
	.align 32
	.type	_ZTSN8asiodnp324DefaultMasterApplicationE, @object
	.size	_ZTSN8asiodnp324DefaultMasterApplicationE, 38
_ZTSN8asiodnp324DefaultMasterApplicationE:
	.string	"N8asiodnp324DefaultMasterApplicationE"
	.weak	_ZTIN8asiodnp324DefaultMasterApplicationE
	.section	.data.rel.ro._ZTIN8asiodnp324DefaultMasterApplicationE,"awG",@progbits,_ZTIN8asiodnp324DefaultMasterApplicationE,comdat
	.align 8
	.type	_ZTIN8asiodnp324DefaultMasterApplicationE, @object
	.size	_ZTIN8asiodnp324DefaultMasterApplicationE, 24
_ZTIN8asiodnp324DefaultMasterApplicationE:
	.quad	_ZTVN10__cxxabiv120__si_class_type_infoE+16
	.quad	_ZTSN8asiodnp324DefaultMasterApplicationE
	.quad	_ZTIN8opendnp318IMasterApplicationE
	.weak	_ZTVN8asiodnp324DefaultMasterApplicationE
	.section	.data.rel.ro._ZTVN8asiodnp324DefaultMasterApplicationE,"awG",@progbits,_ZTVN8asiodnp324DefaultMasterApplicationE,comdat
	.align 8
	.type	_ZTVN8asiodnp324DefaultMasterApplicationE, @object
	.size	_ZTVN8asiodnp324DefaultMasterApplicationE, 152
_ZTVN8asiodnp324DefaultMasterApplicationE:
	.quad	0
	.quad	_ZTIN8asiodnp324DefaultMasterApplicationE
	.quad	_ZN8asiodnp324DefaultMasterApplication13OnStateChangeEN8opendnp310LinkStatusE
	.quad	_ZN8opendnp313ILinkListener20OnKeepAliveInitiatedEv
	.quad	_ZN8opendnp313ILinkListener18OnKeepAliveFailureEv
	.quad	_ZN8opendnp313ILinkListener18OnKeepAliveSuccessEv
	.quad	_ZN8asiodnp324DefaultMasterApplicationD1Ev
	.quad	_ZN8asiodnp324DefaultMasterApplicationD0Ev
	.quad	_ZN8asiodnp324DefaultMasterApplication12OnReceiveIINERKN8opendnp38IINFieldE
	.quad	_ZN8asiodnp324DefaultMasterApplication11OnTaskStartEN8opendnp314MasterTaskTypeENS1_6TaskIdE
	.quad	_ZN8asiodnp324DefaultMasterApplication14OnTaskCompleteERKN8opendnp38TaskInfoE
	.quad	_ZN8opendnp318IMasterApplication6OnOpenEv
	.quad	_ZN8opendnp318IMasterApplication7OnCloseEv
	.quad	_ZN8asiodnp324DefaultMasterApplication24AssignClassDuringStartupEv
	.quad	_ZN8asiodnp324DefaultMasterApplication27ConfigureAssignClassRequestERKSt8functionIFvRKN8opendnp36HeaderEEE
	.quad	_ZN8asiodnp324DefaultMasterApplication3NowEv
	.quad	-8
	.quad	_ZTIN8asiodnp324DefaultMasterApplicationE
	.quad	_ZThn8_N8asiodnp324DefaultMasterApplication3NowEv
	.ident	"GCC: (Debian 15.2.0-4) 15.2.0"
	.section	.note.GNU-stack,"",@progbits
