	.file	"DefaultListenCallbacks.cpp"
	.text
#APP
	.globl _ZSt21ios_base_library_initv
#NO_APP
	.section	.text._ZN8asiodnp322DefaultListenCallbacksD2Ev,"axG",@progbits,_ZN8asiodnp322DefaultListenCallbacksD5Ev,comdat
	.align 2
	.p2align 4
	.weak	_ZN8asiodnp322DefaultListenCallbacksD2Ev
	.type	_ZN8asiodnp322DefaultListenCallbacksD2Ev, @function
_ZN8asiodnp322DefaultListenCallbacksD2Ev:
.LFB3300:
	.cfi_startproc
	ret
	.cfi_endproc
.LFE3300:
	.size	_ZN8asiodnp322DefaultListenCallbacksD2Ev, .-_ZN8asiodnp322DefaultListenCallbacksD2Ev
	.weak	_ZN8asiodnp322DefaultListenCallbacksD1Ev
	.set	_ZN8asiodnp322DefaultListenCallbacksD1Ev,_ZN8asiodnp322DefaultListenCallbacksD2Ev
	.text
	.align 2
	.p2align 4
	.globl	_ZN8asiodnp322DefaultListenCallbacks16AcceptConnectionEmRKNSt7__cxx1112basic_stringIcSt11char_traitsIcESaIcEEE
	.type	_ZN8asiodnp322DefaultListenCallbacks16AcceptConnectionEmRKNSt7__cxx1112basic_stringIcSt11char_traitsIcESaIcEEE, @function
_ZN8asiodnp322DefaultListenCallbacks16AcceptConnectionEmRKNSt7__cxx1112basic_stringIcSt11char_traitsIcESaIcEEE:
.LFB3309:
	.cfi_startproc
	movl	$1, %eax
	ret
	.cfi_endproc
.LFE3309:
	.size	_ZN8asiodnp322DefaultListenCallbacks16AcceptConnectionEmRKNSt7__cxx1112basic_stringIcSt11char_traitsIcESaIcEEE, .-_ZN8asiodnp322DefaultListenCallbacks16AcceptConnectionEmRKNSt7__cxx1112basic_stringIcSt11char_traitsIcESaIcEEE
	.globl	_ZN8asiodnp322DefaultListenCallbacks17AcceptCertificateEmRKNS_8X509InfoE
	.set	_ZN8asiodnp322DefaultListenCallbacks17AcceptCertificateEmRKNS_8X509InfoE,_ZN8asiodnp322DefaultListenCallbacks16AcceptConnectionEmRKNSt7__cxx1112basic_stringIcSt11char_traitsIcESaIcEEE
	.align 2
	.p2align 4
	.globl	_ZN8asiodnp322DefaultListenCallbacks17OnConnectionCloseEmRKSt10shared_ptrINS_14IMasterSessionEE
	.type	_ZN8asiodnp322DefaultListenCallbacks17OnConnectionCloseEmRKSt10shared_ptrINS_14IMasterSessionEE, @function
_ZN8asiodnp322DefaultListenCallbacks17OnConnectionCloseEmRKSt10shared_ptrINS_14IMasterSessionEE:
.LFB3319:
	.cfi_startproc
	ret
	.cfi_endproc
.LFE3319:
	.size	_ZN8asiodnp322DefaultListenCallbacks17OnConnectionCloseEmRKSt10shared_ptrINS_14IMasterSessionEE, .-_ZN8asiodnp322DefaultListenCallbacks17OnConnectionCloseEmRKSt10shared_ptrINS_14IMasterSessionEE
	.align 2
	.p2align 4
	.globl	_ZN8asiodnp322DefaultListenCallbacks18OnCertificateErrorEmRKNS_8X509InfoEi
	.type	_ZN8asiodnp322DefaultListenCallbacks18OnCertificateErrorEmRKNS_8X509InfoEi, @function
_ZN8asiodnp322DefaultListenCallbacks18OnCertificateErrorEmRKNS_8X509InfoEi:
.LFB3320:
	.cfi_startproc
	ret
	.cfi_endproc
.LFE3320:
	.size	_ZN8asiodnp322DefaultListenCallbacks18OnCertificateErrorEmRKNS_8X509InfoEi, .-_ZN8asiodnp322DefaultListenCallbacks18OnCertificateErrorEmRKNS_8X509InfoEi
	.section	.text._ZNSt23_Sp_counted_ptr_inplaceIN8asiodnp324DefaultMasterApplicationESaIvELN9__gnu_cxx12_Lock_policyE2EED2Ev,"axG",@progbits,_ZNSt23_Sp_counted_ptr_inplaceIN8asiodnp324DefaultMasterApplicationESaIvELN9__gnu_cxx12_Lock_policyE2EED5Ev,comdat
	.align 2
	.p2align 4
	.weak	_ZNSt23_Sp_counted_ptr_inplaceIN8asiodnp324DefaultMasterApplicationESaIvELN9__gnu_cxx12_Lock_policyE2EED2Ev
	.type	_ZNSt23_Sp_counted_ptr_inplaceIN8asiodnp324DefaultMasterApplicationESaIvELN9__gnu_cxx12_Lock_policyE2EED2Ev, @function
_ZNSt23_Sp_counted_ptr_inplaceIN8asiodnp324DefaultMasterApplicationESaIvELN9__gnu_cxx12_Lock_policyE2EED2Ev:
.LFB4191:
	.cfi_startproc
	ret
	.cfi_endproc
.LFE4191:
	.size	_ZNSt23_Sp_counted_ptr_inplaceIN8asiodnp324DefaultMasterApplicationESaIvELN9__gnu_cxx12_Lock_policyE2EED2Ev, .-_ZNSt23_Sp_counted_ptr_inplaceIN8asiodnp324DefaultMasterApplicationESaIvELN9__gnu_cxx12_Lock_policyE2EED2Ev
	.weak	_ZNSt23_Sp_counted_ptr_inplaceIN8asiodnp324DefaultMasterApplicationESaIvELN9__gnu_cxx12_Lock_policyE2EED1Ev
	.set	_ZNSt23_Sp_counted_ptr_inplaceIN8asiodnp324DefaultMasterApplicationESaIvELN9__gnu_cxx12_Lock_policyE2EED1Ev,_ZNSt23_Sp_counted_ptr_inplaceIN8asiodnp324DefaultMasterApplicationESaIvELN9__gnu_cxx12_Lock_policyE2EED2Ev
	.section	.text._ZNSt23_Sp_counted_ptr_inplaceIN8asiodnp324DefaultMasterApplicationESaIvELN9__gnu_cxx12_Lock_policyE2EE10_M_disposeEv,"axG",@progbits,_ZNSt23_Sp_counted_ptr_inplaceIN8asiodnp324DefaultMasterApplicationESaIvELN9__gnu_cxx12_Lock_policyE2EE10_M_disposeEv,comdat
	.align 2
	.p2align 4
	.weak	_ZNSt23_Sp_counted_ptr_inplaceIN8asiodnp324DefaultMasterApplicationESaIvELN9__gnu_cxx12_Lock_policyE2EE10_M_disposeEv
	.type	_ZNSt23_Sp_counted_ptr_inplaceIN8asiodnp324DefaultMasterApplicationESaIvELN9__gnu_cxx12_Lock_policyE2EE10_M_disposeEv, @function
_ZNSt23_Sp_counted_ptr_inplaceIN8asiodnp324DefaultMasterApplicationESaIvELN9__gnu_cxx12_Lock_policyE2EE10_M_disposeEv:
.LFB4194:
	.cfi_startproc
	movq	16(%rdi), %rax
	addq	$16, %rdi
	movq	32(%rax), %rax
	jmp	*%rax
	.cfi_endproc
.LFE4194:
	.size	_ZNSt23_Sp_counted_ptr_inplaceIN8asiodnp324DefaultMasterApplicationESaIvELN9__gnu_cxx12_Lock_policyE2EE10_M_disposeEv, .-_ZNSt23_Sp_counted_ptr_inplaceIN8asiodnp324DefaultMasterApplicationESaIvELN9__gnu_cxx12_Lock_policyE2EE10_M_disposeEv
	.section	.text._ZNSt23_Sp_counted_ptr_inplaceIN8asiodnp318PrintingSOEHandlerESaIvELN9__gnu_cxx12_Lock_policyE2EED2Ev,"axG",@progbits,_ZNSt23_Sp_counted_ptr_inplaceIN8asiodnp318PrintingSOEHandlerESaIvELN9__gnu_cxx12_Lock_policyE2EED5Ev,comdat
	.align 2
	.p2align 4
	.weak	_ZNSt23_Sp_counted_ptr_inplaceIN8asiodnp318PrintingSOEHandlerESaIvELN9__gnu_cxx12_Lock_policyE2EED2Ev
	.type	_ZNSt23_Sp_counted_ptr_inplaceIN8asiodnp318PrintingSOEHandlerESaIvELN9__gnu_cxx12_Lock_policyE2EED2Ev, @function
_ZNSt23_Sp_counted_ptr_inplaceIN8asiodnp318PrintingSOEHandlerESaIvELN9__gnu_cxx12_Lock_policyE2EED2Ev:
.LFB4198:
	.cfi_startproc
	ret
	.cfi_endproc
.LFE4198:
	.size	_ZNSt23_Sp_counted_ptr_inplaceIN8asiodnp318PrintingSOEHandlerESaIvELN9__gnu_cxx12_Lock_policyE2EED2Ev, .-_ZNSt23_Sp_counted_ptr_inplaceIN8asiodnp318PrintingSOEHandlerESaIvELN9__gnu_cxx12_Lock_policyE2EED2Ev
	.weak	_ZNSt23_Sp_counted_ptr_inplaceIN8asiodnp318PrintingSOEHandlerESaIvELN9__gnu_cxx12_Lock_policyE2EED1Ev
	.set	_ZNSt23_Sp_counted_ptr_inplaceIN8asiodnp318PrintingSOEHandlerESaIvELN9__gnu_cxx12_Lock_policyE2EED1Ev,_ZNSt23_Sp_counted_ptr_inplaceIN8asiodnp318PrintingSOEHandlerESaIvELN9__gnu_cxx12_Lock_policyE2EED2Ev
	.section	.text._ZNSt23_Sp_counted_ptr_inplaceIN8asiodnp318PrintingSOEHandlerESaIvELN9__gnu_cxx12_Lock_policyE2EE10_M_disposeEv,"axG",@progbits,_ZNSt23_Sp_counted_ptr_inplaceIN8asiodnp318PrintingSOEHandlerESaIvELN9__gnu_cxx12_Lock_policyE2EE10_M_disposeEv,comdat
	.align 2
	.p2align 4
	.weak	_ZNSt23_Sp_counted_ptr_inplaceIN8asiodnp318PrintingSOEHandlerESaIvELN9__gnu_cxx12_Lock_policyE2EE10_M_disposeEv
	.type	_ZNSt23_Sp_counted_ptr_inplaceIN8asiodnp318PrintingSOEHandlerESaIvELN9__gnu_cxx12_Lock_policyE2EE10_M_disposeEv, @function
_ZNSt23_Sp_counted_ptr_inplaceIN8asiodnp318PrintingSOEHandlerESaIvELN9__gnu_cxx12_Lock_policyE2EE10_M_disposeEv:
.LFB4201:
	.cfi_startproc
	ret
	.cfi_endproc
.LFE4201:
	.size	_ZNSt23_Sp_counted_ptr_inplaceIN8asiodnp318PrintingSOEHandlerESaIvELN9__gnu_cxx12_Lock_policyE2EE10_M_disposeEv, .-_ZNSt23_Sp_counted_ptr_inplaceIN8asiodnp318PrintingSOEHandlerESaIvELN9__gnu_cxx12_Lock_policyE2EE10_M_disposeEv
	.text
	.align 2
	.p2align 4
	.globl	_ZN8asiodnp322DefaultListenCallbacks20GetFirstFrameTimeoutEv
	.type	_ZN8asiodnp322DefaultListenCallbacks20GetFirstFrameTimeoutEv, @function
_ZN8asiodnp322DefaultListenCallbacks20GetFirstFrameTimeoutEv:
.LFB3311:
	.cfi_startproc
	movl	$30, %edi
	jmp	_ZN7openpal12TimeDuration7SecondsEl@PLT
	.cfi_endproc
.LFE3311:
	.size	_ZN8asiodnp322DefaultListenCallbacks20GetFirstFrameTimeoutEv, .-_ZN8asiodnp322DefaultListenCallbacks20GetFirstFrameTimeoutEv
	.section	.text._ZN8asiodnp322DefaultListenCallbacksD0Ev,"axG",@progbits,_ZN8asiodnp322DefaultListenCallbacksD5Ev,comdat
	.align 2
	.p2align 4
	.weak	_ZN8asiodnp322DefaultListenCallbacksD0Ev
	.type	_ZN8asiodnp322DefaultListenCallbacksD0Ev, @function
_ZN8asiodnp322DefaultListenCallbacksD0Ev:
.LFB3302:
	.cfi_startproc
	movl	$8, %esi
	jmp	_ZdlPvm@PLT
	.cfi_endproc
.LFE3302:
	.size	_ZN8asiodnp322DefaultListenCallbacksD0Ev, .-_ZN8asiodnp322DefaultListenCallbacksD0Ev
	.section	.text._ZNSt23_Sp_counted_ptr_inplaceIN8asiodnp318PrintingSOEHandlerESaIvELN9__gnu_cxx12_Lock_policyE2EED0Ev,"axG",@progbits,_ZNSt23_Sp_counted_ptr_inplaceIN8asiodnp318PrintingSOEHandlerESaIvELN9__gnu_cxx12_Lock_policyE2EED5Ev,comdat
	.align 2
	.p2align 4
	.weak	_ZNSt23_Sp_counted_ptr_inplaceIN8asiodnp318PrintingSOEHandlerESaIvELN9__gnu_cxx12_Lock_policyE2EED0Ev
	.type	_ZNSt23_Sp_counted_ptr_inplaceIN8asiodnp318PrintingSOEHandlerESaIvELN9__gnu_cxx12_Lock_policyE2EED0Ev, @function
_ZNSt23_Sp_counted_ptr_inplaceIN8asiodnp318PrintingSOEHandlerESaIvELN9__gnu_cxx12_Lock_policyE2EED0Ev:
.LFB4200:
	.cfi_startproc
	movl	$24, %esi
	jmp	_ZdlPvm@PLT
	.cfi_endproc
.LFE4200:
	.size	_ZNSt23_Sp_counted_ptr_inplaceIN8asiodnp318PrintingSOEHandlerESaIvELN9__gnu_cxx12_Lock_policyE2EED0Ev, .-_ZNSt23_Sp_counted_ptr_inplaceIN8asiodnp318PrintingSOEHandlerESaIvELN9__gnu_cxx12_Lock_policyE2EED0Ev
	.section	.text._ZNSt23_Sp_counted_ptr_inplaceIN8asiodnp324DefaultMasterApplicationESaIvELN9__gnu_cxx12_Lock_policyE2EED0Ev,"axG",@progbits,_ZNSt23_Sp_counted_ptr_inplaceIN8asiodnp324DefaultMasterApplicationESaIvELN9__gnu_cxx12_Lock_policyE2EED5Ev,comdat
	.align 2
	.p2align 4
	.weak	_ZNSt23_Sp_counted_ptr_inplaceIN8asiodnp324DefaultMasterApplicationESaIvELN9__gnu_cxx12_Lock_policyE2EED0Ev
	.type	_ZNSt23_Sp_counted_ptr_inplaceIN8asiodnp324DefaultMasterApplicationESaIvELN9__gnu_cxx12_Lock_policyE2EED0Ev, @function
_ZNSt23_Sp_counted_ptr_inplaceIN8asiodnp324DefaultMasterApplicationESaIvELN9__gnu_cxx12_Lock_policyE2EED0Ev:
.LFB4193:
	.cfi_startproc
	movl	$32, %esi
	jmp	_ZdlPvm@PLT
	.cfi_endproc
.LFE4193:
	.size	_ZNSt23_Sp_counted_ptr_inplaceIN8asiodnp324DefaultMasterApplicationESaIvELN9__gnu_cxx12_Lock_policyE2EED0Ev, .-_ZNSt23_Sp_counted_ptr_inplaceIN8asiodnp324DefaultMasterApplicationESaIvELN9__gnu_cxx12_Lock_policyE2EED0Ev
	.section	.text._ZNSt23_Sp_counted_ptr_inplaceIN8asiodnp318PrintingSOEHandlerESaIvELN9__gnu_cxx12_Lock_policyE2EE10_M_destroyEv,"axG",@progbits,_ZNSt23_Sp_counted_ptr_inplaceIN8asiodnp318PrintingSOEHandlerESaIvELN9__gnu_cxx12_Lock_policyE2EE10_M_destroyEv,comdat
	.align 2
	.p2align 4
	.weak	_ZNSt23_Sp_counted_ptr_inplaceIN8asiodnp318PrintingSOEHandlerESaIvELN9__gnu_cxx12_Lock_policyE2EE10_M_destroyEv
	.type	_ZNSt23_Sp_counted_ptr_inplaceIN8asiodnp318PrintingSOEHandlerESaIvELN9__gnu_cxx12_Lock_policyE2EE10_M_destroyEv, @function
_ZNSt23_Sp_counted_ptr_inplaceIN8asiodnp318PrintingSOEHandlerESaIvELN9__gnu_cxx12_Lock_policyE2EE10_M_destroyEv:
.LFB4202:
	.cfi_startproc
	movl	$24, %esi
	jmp	_ZdlPvm@PLT
	.cfi_endproc
.LFE4202:
	.size	_ZNSt23_Sp_counted_ptr_inplaceIN8asiodnp318PrintingSOEHandlerESaIvELN9__gnu_cxx12_Lock_policyE2EE10_M_destroyEv, .-_ZNSt23_Sp_counted_ptr_inplaceIN8asiodnp318PrintingSOEHandlerESaIvELN9__gnu_cxx12_Lock_policyE2EE10_M_destroyEv
	.section	.text._ZNSt23_Sp_counted_ptr_inplaceIN8asiodnp324DefaultMasterApplicationESaIvELN9__gnu_cxx12_Lock_policyE2EE10_M_destroyEv,"axG",@progbits,_ZNSt23_Sp_counted_ptr_inplaceIN8asiodnp324DefaultMasterApplicationESaIvELN9__gnu_cxx12_Lock_policyE2EE10_M_destroyEv,comdat
	.align 2
	.p2align 4
	.weak	_ZNSt23_Sp_counted_ptr_inplaceIN8asiodnp324DefaultMasterApplicationESaIvELN9__gnu_cxx12_Lock_policyE2EE10_M_destroyEv
	.type	_ZNSt23_Sp_counted_ptr_inplaceIN8asiodnp324DefaultMasterApplicationESaIvELN9__gnu_cxx12_Lock_policyE2EE10_M_destroyEv, @function
_ZNSt23_Sp_counted_ptr_inplaceIN8asiodnp324DefaultMasterApplicationESaIvELN9__gnu_cxx12_Lock_policyE2EE10_M_destroyEv:
.LFB4195:
	.cfi_startproc
	movl	$32, %esi
	jmp	_ZdlPvm@PLT
	.cfi_endproc
.LFE4195:
	.size	_ZNSt23_Sp_counted_ptr_inplaceIN8asiodnp324DefaultMasterApplicationESaIvELN9__gnu_cxx12_Lock_policyE2EE10_M_destroyEv, .-_ZNSt23_Sp_counted_ptr_inplaceIN8asiodnp324DefaultMasterApplicationESaIvELN9__gnu_cxx12_Lock_policyE2EE10_M_destroyEv
	.section	.text._ZNSt23_Sp_counted_ptr_inplaceIN8asiodnp324DefaultMasterApplicationESaIvELN9__gnu_cxx12_Lock_policyE2EE14_M_get_deleterERKSt9type_info,"axG",@progbits,_ZNSt23_Sp_counted_ptr_inplaceIN8asiodnp324DefaultMasterApplicationESaIvELN9__gnu_cxx12_Lock_policyE2EE14_M_get_deleterERKSt9type_info,comdat
	.align 2
	.p2align 4
	.weak	_ZNSt23_Sp_counted_ptr_inplaceIN8asiodnp324DefaultMasterApplicationESaIvELN9__gnu_cxx12_Lock_policyE2EE14_M_get_deleterERKSt9type_info
	.type	_ZNSt23_Sp_counted_ptr_inplaceIN8asiodnp324DefaultMasterApplicationESaIvELN9__gnu_cxx12_Lock_policyE2EE14_M_get_deleterERKSt9type_info, @function
_ZNSt23_Sp_counted_ptr_inplaceIN8asiodnp324DefaultMasterApplicationESaIvELN9__gnu_cxx12_Lock_policyE2EE14_M_get_deleterERKSt9type_info:
.LFB4196:
	.cfi_startproc
	cmpq	_ZZNSt19_Sp_make_shared_tag5_S_tiEvE5__tag@GOTPCREL(%rip), %rsi
	movq	%rdi, %rcx
	je	.L22
	movq	8(%rsi), %rdi
	movq	_ZTSSt19_Sp_make_shared_tag@GOTPCREL(%rip), %rsi
	cmpq	%rsi, %rdi
	je	.L22
	xorl	%edx, %edx
	cmpb	$42, (%rdi)
	je	.L23
	subq	$24, %rsp
	.cfi_def_cfa_offset 32
	movq	%rdx, (%rsp)
	movq	%rcx, 8(%rsp)
	call	strcmp@PLT
	xorl	%edx, %edx
	movq	8(%rsp), %rcx
	testl	%eax, %eax
	jne	.L16
	leaq	16(%rcx), %rdx
.L16:
	movq	%rdx, %rax
	addq	$24, %rsp
	.cfi_def_cfa_offset 8
	ret
	.p2align 4,,10
	.p2align 3
.L22:
	leaq	16(%rcx), %rdx
.L23:
	movq	%rdx, %rax
	ret
	.cfi_endproc
.LFE4196:
	.size	_ZNSt23_Sp_counted_ptr_inplaceIN8asiodnp324DefaultMasterApplicationESaIvELN9__gnu_cxx12_Lock_policyE2EE14_M_get_deleterERKSt9type_info, .-_ZNSt23_Sp_counted_ptr_inplaceIN8asiodnp324DefaultMasterApplicationESaIvELN9__gnu_cxx12_Lock_policyE2EE14_M_get_deleterERKSt9type_info
	.section	.text._ZNSt23_Sp_counted_ptr_inplaceIN8asiodnp318PrintingSOEHandlerESaIvELN9__gnu_cxx12_Lock_policyE2EE14_M_get_deleterERKSt9type_info,"axG",@progbits,_ZNSt23_Sp_counted_ptr_inplaceIN8asiodnp318PrintingSOEHandlerESaIvELN9__gnu_cxx12_Lock_policyE2EE14_M_get_deleterERKSt9type_info,comdat
	.align 2
	.p2align 4
	.weak	_ZNSt23_Sp_counted_ptr_inplaceIN8asiodnp318PrintingSOEHandlerESaIvELN9__gnu_cxx12_Lock_policyE2EE14_M_get_deleterERKSt9type_info
	.type	_ZNSt23_Sp_counted_ptr_inplaceIN8asiodnp318PrintingSOEHandlerESaIvELN9__gnu_cxx12_Lock_policyE2EE14_M_get_deleterERKSt9type_info, @function
_ZNSt23_Sp_counted_ptr_inplaceIN8asiodnp318PrintingSOEHandlerESaIvELN9__gnu_cxx12_Lock_policyE2EE14_M_get_deleterERKSt9type_info:
.LFB4203:
	.cfi_startproc
	cmpq	_ZZNSt19_Sp_make_shared_tag5_S_tiEvE5__tag@GOTPCREL(%rip), %rsi
	movq	%rdi, %rcx
	je	.L32
	movq	8(%rsi), %rdi
	movq	_ZTSSt19_Sp_make_shared_tag@GOTPCREL(%rip), %rsi
	cmpq	%rsi, %rdi
	je	.L32
	xorl	%edx, %edx
	cmpb	$42, (%rdi)
	je	.L33
	subq	$24, %rsp
	.cfi_def_cfa_offset 32
	movq	%rdx, (%rsp)
	movq	%rcx, 8(%rsp)
	call	strcmp@PLT
	xorl	%edx, %edx
	movq	8(%rsp), %rcx
	testl	%eax, %eax
	jne	.L26
	leaq	16(%rcx), %rdx
.L26:
	movq	%rdx, %rax
	addq	$24, %rsp
	.cfi_def_cfa_offset 8
	ret
	.p2align 4,,10
	.p2align 3
.L32:
	leaq	16(%rcx), %rdx
.L33:
	movq	%rdx, %rax
	ret
	.cfi_endproc
.LFE4203:
	.size	_ZNSt23_Sp_counted_ptr_inplaceIN8asiodnp318PrintingSOEHandlerESaIvELN9__gnu_cxx12_Lock_policyE2EE14_M_get_deleterERKSt9type_info, .-_ZNSt23_Sp_counted_ptr_inplaceIN8asiodnp318PrintingSOEHandlerESaIvELN9__gnu_cxx12_Lock_policyE2EE14_M_get_deleterERKSt9type_info
	.text
	.align 2
	.p2align 4
	.globl	_ZN8asiodnp322DefaultListenCallbacksC2Ev
	.type	_ZN8asiodnp322DefaultListenCallbacksC2Ev, @function
_ZN8asiodnp322DefaultListenCallbacksC2Ev:
.LFB3307:
	.cfi_startproc
	movq	_ZTVN8asiodnp322DefaultListenCallbacksE@GOTPCREL(%rip), %rax
	addq	$16, %rax
	movq	%rax, (%rdi)
	ret
	.cfi_endproc
.LFE3307:
	.size	_ZN8asiodnp322DefaultListenCallbacksC2Ev, .-_ZN8asiodnp322DefaultListenCallbacksC2Ev
	.globl	_ZN8asiodnp322DefaultListenCallbacksC1Ev
	.set	_ZN8asiodnp322DefaultListenCallbacksC1Ev,_ZN8asiodnp322DefaultListenCallbacksC2Ev
	.section	.text._ZNSt16_Sp_counted_baseILN9__gnu_cxx12_Lock_policyE2EE24_M_release_last_use_coldEv,"axG",@progbits,_ZNSt16_Sp_counted_baseILN9__gnu_cxx12_Lock_policyE2EE24_M_release_last_use_coldEv,comdat
	.align 2
	.p2align 4
	.weak	_ZNSt16_Sp_counted_baseILN9__gnu_cxx12_Lock_policyE2EE24_M_release_last_use_coldEv
	.type	_ZNSt16_Sp_counted_baseILN9__gnu_cxx12_Lock_policyE2EE24_M_release_last_use_coldEv, @function
_ZNSt16_Sp_counted_baseILN9__gnu_cxx12_Lock_policyE2EE24_M_release_last_use_coldEv:
.LFB3356:
	.cfi_startproc
	pushq	%rbx
	.cfi_def_cfa_offset 16
	.cfi_offset 3, -16
	movq	(%rdi), %rax
	movq	%rdi, %rbx
	call	*16(%rax)
	movq	__libc_single_threaded@GOTPCREL(%rip), %rax
	cmpb	$0, (%rax)
	je	.L38
	movl	12(%rbx), %eax
	leal	-1(%rax), %edx
	movl	%edx, 12(%rbx)
.L39:
	cmpl	$1, %eax
	je	.L42
	popq	%rbx
	.cfi_remember_state
	.cfi_def_cfa_offset 8
	ret
	.p2align 4,,10
	.p2align 3
.L42:
	.cfi_restore_state
	movq	(%rbx), %rax
	movq	%rbx, %rdi
	popq	%rbx
	.cfi_remember_state
	.cfi_def_cfa_offset 8
	movq	24(%rax), %rax
	jmp	*%rax
	.p2align 4,,10
	.p2align 3
.L38:
	.cfi_restore_state
	movl	$-1, %eax
	lock xaddl	%eax, 12(%rbx)
	jmp	.L39
	.cfi_endproc
.LFE3356:
	.size	_ZNSt16_Sp_counted_baseILN9__gnu_cxx12_Lock_policyE2EE24_M_release_last_use_coldEv, .-_ZNSt16_Sp_counted_baseILN9__gnu_cxx12_Lock_policyE2EE24_M_release_last_use_coldEv
	.section	.text._ZNSt16_Sp_counted_baseILN9__gnu_cxx12_Lock_policyE2EE10_M_releaseEv,"axG",@progbits,_ZNSt16_Sp_counted_baseILN9__gnu_cxx12_Lock_policyE2EE10_M_releaseEv,comdat
	.align 2
	.p2align 4
	.weak	_ZNSt16_Sp_counted_baseILN9__gnu_cxx12_Lock_policyE2EE10_M_releaseEv
	.type	_ZNSt16_Sp_counted_baseILN9__gnu_cxx12_Lock_policyE2EE10_M_releaseEv, @function
_ZNSt16_Sp_counted_baseILN9__gnu_cxx12_Lock_policyE2EE10_M_releaseEv:
.LFB1873:
	.cfi_startproc
	movabsq	$4294967297, %rax
	movq	8(%rdi), %rdx
	cmpq	%rax, %rdx
	je	.L51
	movq	__libc_single_threaded@GOTPCREL(%rip), %rax
	cmpb	$0, (%rax)
	je	.L45
	movl	8(%rdi), %eax
	leal	-1(%rax), %edx
	movl	%edx, 8(%rdi)
.L46:
	cmpl	$1, %eax
	je	.L52
	ret
	.p2align 4,,10
	.p2align 3
.L45:
	leaq	8(%rdi), %rcx
	movl	$-1, %eax
	lock xaddl	%eax, (%rcx)
	jmp	.L46
	.p2align 4,,10
	.p2align 3
.L51:
	subq	$24, %rsp
	.cfi_def_cfa_offset 32
	movq	(%rdi), %rax
	movq	$0, 8(%rdi)
	movq	%rdi, 8(%rsp)
	call	*16(%rax)
	movq	8(%rsp), %rdi
	movq	(%rdi), %rax
	movq	24(%rax), %rax
	addq	$24, %rsp
	.cfi_def_cfa_offset 8
	jmp	*%rax
	.p2align 4,,10
	.p2align 3
.L52:
	jmp	_ZNSt16_Sp_counted_baseILN9__gnu_cxx12_Lock_policyE2EE24_M_release_last_use_coldEv@PLT
	.cfi_endproc
.LFE1873:
	.size	_ZNSt16_Sp_counted_baseILN9__gnu_cxx12_Lock_policyE2EE10_M_releaseEv, .-_ZNSt16_Sp_counted_baseILN9__gnu_cxx12_Lock_policyE2EE10_M_releaseEv
	.section	.rodata.str1.1,"aMS",@progbits,1
.LC0:
	.string	"session-"
	.section	.text.unlikely,"ax",@progbits
	.align 2
.LCOLDB1:
	.text
.LHOTB1:
	.align 2
	.p2align 4
	.globl	_ZN8asiodnp322DefaultListenCallbacks17SessionIdToStringB5cxx11Em
	.type	_ZN8asiodnp322DefaultListenCallbacks17SessionIdToStringB5cxx11Em, @function
_ZN8asiodnp322DefaultListenCallbacks17SessionIdToStringB5cxx11Em:
.LFB3321:
	.cfi_startproc
	.cfi_personality 0x9b,DW.ref.__gxx_personality_v0
	.cfi_lsda 0x1b,.LLSDA3321
	pushq	%r15
	.cfi_def_cfa_offset 16
	.cfi_offset 15, -16
	pushq	%r14
	.cfi_def_cfa_offset 24
	.cfi_offset 14, -24
	pushq	%r13
	.cfi_def_cfa_offset 32
	.cfi_offset 13, -32
	pushq	%r12
	.cfi_def_cfa_offset 40
	.cfi_offset 12, -40
	pushq	%rbp
	.cfi_def_cfa_offset 48
	.cfi_offset 6, -48
	pushq	%rbx
	.cfi_def_cfa_offset 56
	.cfi_offset 3, -56
	movq	%rdi, %rbx
	subq	$424, %rsp
	.cfi_def_cfa_offset 480
	movq	_ZTVSt15basic_streambufIcSt11char_traitsIcEE@GOTPCREL(%rip), %rax
	movq	_ZTVNSt7__cxx1119basic_ostringstreamIcSt11char_traitsIcESaIcEEE@GOTPCREL(%rip), %r12
	leaq	144(%rsp), %rdi
	movq	%rdx, 24(%rsp)
	addq	$16, %rax
	leaq	24(%r12), %rcx
	movq	%rax, %xmm2
	movq	%rcx, %xmm0
	punpcklqdq	%xmm2, %xmm0
	movaps	%xmm0, (%rsp)
	call	_ZNSt8ios_baseC2Ev@PLT
	pxor	%xmm1, %xmm1
	leaq	32(%rsp), %rdi
	xorl	%esi, %esi
	movq	_ZTVSt9basic_iosIcSt11char_traitsIcEE@GOTPCREL(%rip), %rax
	movups	%xmm1, 376(%rsp)
	movups	%xmm1, 392(%rsp)
	movq	$0, 360(%rsp)
	addq	$16, %rax
	movq	%rax, 144(%rsp)
	xorl	%eax, %eax
	movw	%ax, 368(%rsp)
	movq	_ZTTNSt7__cxx1119basic_ostringstreamIcSt11char_traitsIcESaIcEEE@GOTPCREL(%rip), %rax
	movq	8(%rax), %rbp
	movq	16(%rax), %r15
	addq	-24(%rbp), %rdi
	movq	%rbp, 32(%rsp)
	movq	%r15, (%rdi)
.LEHB0:
	call	_ZNSt9basic_iosIcSt11char_traitsIcEE4initEPSt15basic_streambufIcS1_E@PLT
.LEHE0:
	movdqa	(%rsp), %xmm0
	leaq	64(%r12), %rax
	movq	%rax, 144(%rsp)
	leaq	96(%rsp), %rax
	movq	%rax, %rdi
	movaps	%xmm0, 32(%rsp)
	pxor	%xmm0, %xmm0
	movq	%rax, (%rsp)
	movaps	%xmm0, 48(%rsp)
	movaps	%xmm0, 64(%rsp)
	movaps	%xmm0, 80(%rsp)
	call	_ZNSt6localeC1Ev@PLT
	movq	_ZTVNSt7__cxx1115basic_stringbufIcSt11char_traitsIcESaIcEEE@GOTPCREL(%rip), %rax
	leaq	40(%rsp), %rsi
	leaq	144(%rsp), %rdi
	movl	$16, 104(%rsp)
	addq	$16, %rax
	movb	$0, 128(%rsp)
	movq	%rax, 40(%rsp)
	leaq	128(%rsp), %rax
	movq	%rax, 16(%rsp)
	movq	%rax, 112(%rsp)
	movq	$0, 120(%rsp)
.LEHB1:
	call	_ZNSt9basic_iosIcSt11char_traitsIcEE4initEPSt15basic_streambufIcS1_E@PLT
.LEHE1:
	movl	$8, %edx
	leaq	.LC0(%rip), %rsi
	leaq	32(%rsp), %rdi
.LEHB2:
	call	_ZSt16__ostream_insertIcSt11char_traitsIcEERSt13basic_ostreamIT_T0_ES6_PKS3_l@PLT
	movq	24(%rsp), %rsi
	leaq	32(%rsp), %rdi
	call	_ZNSo9_M_insertImEERSoT_@PLT
.LEHE2:
	movq	80(%rsp), %r8
	leaq	16(%rbx), %rax
	movq	$0, 8(%rbx)
	movq	%rax, (%rbx)
	movb	$0, 16(%rbx)
	testq	%r8, %r8
	je	.L57
	movq	64(%rsp), %rax
	movq	%r8, %rdx
	movq	72(%rsp), %rcx
	movq	%rbx, %rdi
	cmpq	%r8, %rax
	cmovnb	%rax, %r8
	testq	%rax, %rax
	cmove	%rdx, %r8
	xorl	%edx, %edx
	xorl	%esi, %esi
	subq	%rcx, %r8
.LEHB3:
	call	_ZNSt7__cxx1112basic_stringIcSt11char_traitsIcESaIcEE10_M_replaceEmmPKcm@PLT
.L61:
	leaq	24(%r12), %rax
	movq	112(%rsp), %rdi
	movq	%rax, 32(%rsp)
	leaq	64(%r12), %rax
	movq	%rax, 144(%rsp)
	cmpq	16(%rsp), %rdi
	je	.L59
	movq	128(%rsp), %rax
	leaq	1(%rax), %rsi
	call	_ZdlPvm@PLT
.L59:
	movq	_ZTVSt15basic_streambufIcSt11char_traitsIcEE@GOTPCREL(%rip), %rax
	movq	(%rsp), %rdi
	addq	$16, %rax
	movq	%rax, 40(%rsp)
	call	_ZNSt6localeD1Ev@PLT
	movq	-24(%rbp), %rax
	movq	%rbp, 32(%rsp)
	leaq	144(%rsp), %rdi
	movq	%r15, 32(%rsp,%rax)
	movq	_ZTVSt9basic_iosIcSt11char_traitsIcEE@GOTPCREL(%rip), %rax
	addq	$16, %rax
	movq	%rax, 144(%rsp)
	call	_ZNSt8ios_baseD2Ev@PLT
	addq	$424, %rsp
	.cfi_remember_state
	.cfi_def_cfa_offset 56
	movq	%rbx, %rax
	popq	%rbx
	.cfi_def_cfa_offset 48
	popq	%rbp
	.cfi_def_cfa_offset 40
	popq	%r12
	.cfi_def_cfa_offset 32
	popq	%r13
	.cfi_def_cfa_offset 24
	popq	%r14
	.cfi_def_cfa_offset 16
	popq	%r15
	.cfi_def_cfa_offset 8
	ret
	.p2align 4,,10
	.p2align 3
.L57:
	.cfi_restore_state
	leaq	112(%rsp), %rsi
	movq	%rbx, %rdi
	call	_ZNSt7__cxx1112basic_stringIcSt11char_traitsIcESaIcEE9_M_assignERKS4_@PLT
.LEHE3:
	jmp	.L61
.L67:
	movq	%rax, %rbp
	jmp	.L62
.L64:
	movq	%rax, %rbp
	jmp	.L63
.L66:
	movq	%rax, %rbx
	jmp	.L55
.L65:
	movq	%rax, %rbx
	jmp	.L56
	.section	.gcc_except_table,"a",@progbits
.LLSDA3321:
	.byte	0xff
	.byte	0xff
	.byte	0x1
	.uleb128 .LLSDACSE3321-.LLSDACSB3321
.LLSDACSB3321:
	.uleb128 .LEHB0-.LFB3321
	.uleb128 .LEHE0-.LEHB0
	.uleb128 .L65-.LFB3321
	.uleb128 0
	.uleb128 .LEHB1-.LFB3321
	.uleb128 .LEHE1-.LEHB1
	.uleb128 .L66-.LFB3321
	.uleb128 0
	.uleb128 .LEHB2-.LFB3321
	.uleb128 .LEHE2-.LEHB2
	.uleb128 .L64-.LFB3321
	.uleb128 0
	.uleb128 .LEHB3-.LFB3321
	.uleb128 .LEHE3-.LEHB3
	.uleb128 .L67-.LFB3321
	.uleb128 0
.LLSDACSE3321:
	.text
	.cfi_endproc
	.section	.text.unlikely
	.cfi_startproc
	.cfi_personality 0x9b,DW.ref.__gxx_personality_v0
	.cfi_lsda 0x1b,.LLSDAC3321
	.type	_ZN8asiodnp322DefaultListenCallbacks17SessionIdToStringB5cxx11Em.cold, @function
_ZN8asiodnp322DefaultListenCallbacks17SessionIdToStringB5cxx11Em.cold:
.LFSB3321:
.L62:
	.cfi_def_cfa_offset 480
	.cfi_offset 3, -56
	.cfi_offset 6, -48
	.cfi_offset 12, -40
	.cfi_offset 13, -32
	.cfi_offset 14, -24
	.cfi_offset 15, -16
	movq	%rbx, %rdi
	call	_ZNSt7__cxx1112basic_stringIcSt11char_traitsIcESaIcEE10_M_disposeEv@PLT
.L63:
	leaq	32(%rsp), %rdi
	call	_ZNSt7__cxx1119basic_ostringstreamIcSt11char_traitsIcESaIcEED1Ev@PLT
	movq	%rbp, %rdi
.LEHB4:
	call	_Unwind_Resume@PLT
.L55:
	movq	_ZTVNSt7__cxx1115basic_stringbufIcSt11char_traitsIcESaIcEEE@GOTPCREL(%rip), %rax
	leaq	112(%rsp), %rdi
	addq	$16, %rax
	movq	%rax, 40(%rsp)
	call	_ZNSt7__cxx1112basic_stringIcSt11char_traitsIcESaIcEE10_M_disposeEv@PLT
	movq	_ZTVSt15basic_streambufIcSt11char_traitsIcEE@GOTPCREL(%rip), %rax
	movq	(%rsp), %rdi
	addq	$16, %rax
	movq	%rax, 40(%rsp)
	call	_ZNSt6localeD1Ev@PLT
	movq	-24(%rbp), %rax
	movq	%rbp, 32(%rsp)
	movq	%r15, 32(%rsp,%rax)
.L56:
	movq	_ZTVSt9basic_iosIcSt11char_traitsIcEE@GOTPCREL(%rip), %rax
	leaq	144(%rsp), %rdi
	addq	$16, %rax
	movq	%rax, 144(%rsp)
	call	_ZNSt8ios_baseD2Ev@PLT
	movq	%rbx, %rdi
	call	_Unwind_Resume@PLT
.LEHE4:
	.cfi_endproc
.LFE3321:
	.section	.gcc_except_table
.LLSDAC3321:
	.byte	0xff
	.byte	0xff
	.byte	0x1
	.uleb128 .LLSDACSEC3321-.LLSDACSBC3321
.LLSDACSBC3321:
	.uleb128 .LEHB4-.LCOLDB1
	.uleb128 .LEHE4-.LEHB4
	.uleb128 0
	.uleb128 0
.LLSDACSEC3321:
	.section	.text.unlikely
	.text
	.size	_ZN8asiodnp322DefaultListenCallbacks17SessionIdToStringB5cxx11Em, .-_ZN8asiodnp322DefaultListenCallbacks17SessionIdToStringB5cxx11Em
	.section	.text.unlikely
	.size	_ZN8asiodnp322DefaultListenCallbacks17SessionIdToStringB5cxx11Em.cold, .-_ZN8asiodnp322DefaultListenCallbacks17SessionIdToStringB5cxx11Em.cold
.LCOLDE1:
	.text
.LHOTE1:
	.section	.text.unlikely
	.align 2
.LCOLDB8:
	.text
.LHOTB8:
	.align 2
	.p2align 4
	.globl	_ZN8asiodnp322DefaultListenCallbacks12OnFirstFrameEmRKN8opendnp316LinkHeaderFieldsERNS_16ISessionAcceptorE
	.type	_ZN8asiodnp322DefaultListenCallbacks12OnFirstFrameEmRKN8opendnp316LinkHeaderFieldsERNS_16ISessionAcceptorE, @function
_ZN8asiodnp322DefaultListenCallbacks12OnFirstFrameEmRKN8opendnp316LinkHeaderFieldsERNS_16ISessionAcceptorE:
.LFB3312:
	.cfi_startproc
	.cfi_personality 0x9b,DW.ref.__gxx_personality_v0
	.cfi_lsda 0x1b,.LLSDA3312
	pushq	%r15
	.cfi_def_cfa_offset 16
	.cfi_offset 15, -16
	pushq	%r14
	.cfi_def_cfa_offset 24
	.cfi_offset 14, -24
	movq	%rcx, %r14
	pushq	%r13
	.cfi_def_cfa_offset 32
	.cfi_offset 13, -32
	pushq	%r12
	.cfi_def_cfa_offset 40
	.cfi_offset 12, -40
	pushq	%rbp
	.cfi_def_cfa_offset 48
	.cfi_offset 6, -48
	pushq	%rbx
	.cfi_def_cfa_offset 56
	.cfi_offset 3, -56
	movq	%rdx, %rbx
	subq	$200, %rsp
	.cfi_def_cfa_offset 256
	movq	%rdi, (%rsp)
	movl	$5, %edi
	movq	%rsi, 8(%rsp)
.LEHB5:
	call	_ZN7openpal12TimeDuration7SecondsEl@PLT
	movb	$0, 120(%rsp)
	movq	%rax, 112(%rsp)
	movl	$1, %eax
	movw	%ax, 121(%rsp)
	call	_ZN8opendnp310ClassField15AllEventClassesEv@PLT
	movb	%al, 123(%rsp)
	call	_ZN8opendnp310ClassField10AllClassesEv@PLT
	movb	$1, 125(%rsp)
	movb	%al, 124(%rsp)
	call	_ZN8opendnp310ClassField4NoneEv@PLT
	movl	$5, %edi
	movb	%al, 126(%rsp)
	call	_ZN7openpal12TimeDuration7SecondsEl@PLT
	movl	$10, %edi
	movq	%rax, 128(%rsp)
	call	_ZN7openpal12TimeDuration7SecondsEl@PLT
	movl	$1, %edi
	movq	$1, 152(%rsp)
	movq	%rax, 136(%rsp)
	movq	.LC3(%rip), %rax
	movq	$67108865, 160(%rsp)
	movq	%rax, 144(%rsp)
	call	_ZN7openpal12TimeDuration7SecondsEl@PLT
	movl	$1, %edi
	movq	%rax, 168(%rsp)
	call	_ZN7openpal12TimeDuration7MinutesEl@PLT
	movl	$24, %edi
	movq	%rax, 176(%rsp)
	movl	4(%rbx), %eax
	movl	%eax, 160(%rsp)
	call	_Znwm@PLT
.LEHE5:
	movq	.LC4(%rip), %r12
	movl	$32, %edi
	movq	%rax, %rbp
	leaq	8(%rax), %rax
	movq	%rax, 16(%rsp)
	movq	_ZTVSt23_Sp_counted_ptr_inplaceIN8asiodnp318PrintingSOEHandlerESaIvELN9__gnu_cxx12_Lock_policyE2EE@GOTPCREL(%rip), %rax
	movq	%r12, 8(%rbp)
	addq	$16, %rax
	movq	%rax, 0(%rbp)
	movq	_ZTVN8asiodnp318PrintingSOEHandlerE@GOTPCREL(%rip), %rax
	addq	$16, %rax
	movq	%rax, 16(%rbp)
.LEHB6:
	call	_Znwm@PLT
.LEHE6:
	movq	%rax, %rbx
	leaq	8(%rax), %rax
	leaq	16(%rbp), %r13
	movq	%rax, 24(%rsp)
	movq	_ZTVSt23_Sp_counted_ptr_inplaceIN8asiodnp324DefaultMasterApplicationESaIvELN9__gnu_cxx12_Lock_policyE2EE@GOTPCREL(%rip), %rax
	movq	%r12, 8(%rbx)
	movq	__libc_single_threaded@GOTPCREL(%rip), %r12
	addq	$16, %rax
	movq	%rbx, 72(%rsp)
	movq	%rax, (%rbx)
	movq	_ZTVN8asiodnp324DefaultMasterApplicationE@GOTPCREL(%rip), %rax
	leaq	144(%rax), %rdx
	addq	$16, %rax
	movq	%rax, %xmm0
	movq	%rdx, %xmm1
	movq	(%r14), %rax
	leaq	16(%rbx), %rdx
	punpcklqdq	%xmm1, %xmm0
	movq	%rdx, 64(%rsp)
	movq	16(%rax), %r15
	movups	%xmm0, 16(%rbx)
	cmpb	$0, (%r12)
	je	.L73
	movl	$2, 8(%rbx)
	movq	%r13, 48(%rsp)
	movq	%rbp, 56(%rsp)
.L74:
	addl	$1, 8(%rbp)
.L76:
	movq	8(%rsp), %rdx
	movq	(%rsp), %rsi
	leaq	80(%rsp), %rdi
.LEHB7:
	call	_ZN8asiodnp322DefaultListenCallbacks17SessionIdToStringB5cxx11Em@PLT
.LEHE7:
	leaq	32(%rsp), %rdi
	leaq	48(%rsp), %rcx
	movq	%r14, %rsi
	leaq	112(%rsp), %r9
	leaq	64(%rsp), %r8
	leaq	80(%rsp), %rdx
.LEHB8:
	call	*%r15
.LEHE8:
	movq	80(%rsp), %rdi
	leaq	96(%rsp), %rax
	cmpq	%rax, %rdi
	je	.L77
	movq	96(%rsp), %rax
	leaq	1(%rax), %rsi
	call	_ZdlPvm@PLT
.L77:
	movq	56(%rsp), %r13
	testq	%r13, %r13
	je	.L79
	movq	8(%r13), %rdx
	leaq	8(%r13), %rcx
	movabsq	$4294967297, %rax
	cmpq	%rax, %rdx
	je	.L119
	cmpb	$0, (%r12)
	je	.L81
	movl	8(%r13), %eax
	leal	-1(%rax), %edx
	movl	%edx, 8(%r13)
.L82:
	cmpl	$1, %eax
	je	.L120
.L79:
	movq	72(%rsp), %r13
	testq	%r13, %r13
	je	.L85
	movq	8(%r13), %rdx
	leaq	8(%r13), %rcx
	movabsq	$4294967297, %rax
	cmpq	%rax, %rdx
	je	.L121
	cmpb	$0, (%r12)
	je	.L87
	movl	8(%r13), %eax
	leal	-1(%rax), %edx
	movl	%edx, 8(%r13)
.L88:
	cmpl	$1, %eax
	je	.L122
.L85:
	movq	40(%rsp), %r13
	testq	%r13, %r13
	je	.L91
	movq	8(%r13), %rdx
	leaq	8(%r13), %rcx
	movabsq	$4294967297, %rax
	cmpq	%rax, %rdx
	je	.L123
	cmpb	$0, (%r12)
	je	.L93
	movl	8(%r13), %eax
	leal	-1(%rax), %edx
	movl	%edx, 8(%r13)
.L94:
	cmpl	$1, %eax
	je	.L124
.L91:
	movabsq	$4294967297, %rax
	movq	8(%rbx), %rdx
	cmpq	%rax, %rdx
	je	.L125
	cmpb	$0, (%r12)
	je	.L98
	movl	8(%rbx), %eax
	leal	-1(%rax), %edx
	movl	%edx, 8(%rbx)
.L99:
	cmpl	$1, %eax
	je	.L126
.L97:
	movabsq	$4294967297, %rax
	movq	8(%rbp), %rdx
	cmpq	%rax, %rdx
	je	.L127
	cmpb	$0, (%r12)
	je	.L102
	movl	8(%rbp), %eax
	leal	-1(%rax), %edx
	movl	%edx, 8(%rbp)
.L103:
	cmpl	$1, %eax
	je	.L128
.L72:
	addq	$200, %rsp
	.cfi_remember_state
	.cfi_def_cfa_offset 56
	popq	%rbx
	.cfi_def_cfa_offset 48
	popq	%rbp
	.cfi_def_cfa_offset 40
	popq	%r12
	.cfi_def_cfa_offset 32
	popq	%r13
	.cfi_def_cfa_offset 24
	popq	%r14
	.cfi_def_cfa_offset 16
	popq	%r15
	.cfi_def_cfa_offset 8
	ret
	.p2align 4,,10
	.p2align 3
.L73:
	.cfi_restore_state
	lock addl	$1, 8(%rbx)
	movq	%r13, 48(%rsp)
	movq	%rbp, 56(%rsp)
	cmpb	$0, (%r12)
	jne	.L74
	lock addl	$1, 8(%rbp)
	jmp	.L76
	.p2align 4,,10
	.p2align 3
.L102:
	movq	16(%rsp), %rsi
	movl	$-1, %eax
	lock xaddl	%eax, (%rsi)
	jmp	.L103
	.p2align 4,,10
	.p2align 3
.L98:
	movq	24(%rsp), %rsi
	movl	$-1, %eax
	lock xaddl	%eax, (%rsi)
	jmp	.L99
	.p2align 4,,10
	.p2align 3
.L125:
	movq	(%rbx), %rax
	movq	%rbx, %rdi
	movq	$0, 8(%rbx)
	call	*16(%rax)
	movq	(%rbx), %rax
	movq	%rbx, %rdi
	call	*24(%rax)
	jmp	.L97
	.p2align 4,,10
	.p2align 3
.L127:
	movq	0(%rbp), %rax
	movq	%rbp, %rdi
	movq	$0, 8(%rbp)
	call	*16(%rax)
	movq	0(%rbp), %rax
	movq	%rbp, %rdi
	call	*24(%rax)
	jmp	.L72
	.p2align 4,,10
	.p2align 3
.L81:
	movl	$-1, %eax
	lock xaddl	%eax, (%rcx)
	jmp	.L82
	.p2align 4,,10
	.p2align 3
.L93:
	movl	$-1, %eax
	lock xaddl	%eax, (%rcx)
	jmp	.L94
	.p2align 4,,10
	.p2align 3
.L87:
	movl	$-1, %eax
	lock xaddl	%eax, (%rcx)
	jmp	.L88
	.p2align 4,,10
	.p2align 3
.L121:
	movq	0(%r13), %rax
	movq	%r13, %rdi
	movq	$0, 8(%r13)
	call	*16(%rax)
	movq	0(%r13), %rax
	movq	%r13, %rdi
	call	*24(%rax)
	jmp	.L85
	.p2align 4,,10
	.p2align 3
.L119:
	movq	0(%r13), %rax
	movq	%r13, %rdi
	movq	$0, 8(%r13)
	call	*16(%rax)
	movq	0(%r13), %rax
	movq	%r13, %rdi
	call	*24(%rax)
	jmp	.L79
	.p2align 4,,10
	.p2align 3
.L123:
	movq	0(%r13), %rax
	movq	%r13, %rdi
	movq	$0, 8(%r13)
	call	*16(%rax)
	movq	0(%r13), %rax
	movq	%r13, %rdi
	call	*24(%rax)
	jmp	.L91
	.p2align 4,,10
	.p2align 3
.L126:
	movq	%rbx, %rdi
	call	_ZNSt16_Sp_counted_baseILN9__gnu_cxx12_Lock_policyE2EE24_M_release_last_use_coldEv@PLT
	jmp	.L97
	.p2align 4,,10
	.p2align 3
.L128:
	movq	%rbp, %rdi
	call	_ZNSt16_Sp_counted_baseILN9__gnu_cxx12_Lock_policyE2EE24_M_release_last_use_coldEv@PLT
	jmp	.L72
	.p2align 4,,10
	.p2align 3
.L122:
	movq	%r13, %rdi
	call	_ZNSt16_Sp_counted_baseILN9__gnu_cxx12_Lock_policyE2EE24_M_release_last_use_coldEv@PLT
	jmp	.L85
	.p2align 4,,10
	.p2align 3
.L124:
	movq	%r13, %rdi
	call	_ZNSt16_Sp_counted_baseILN9__gnu_cxx12_Lock_policyE2EE24_M_release_last_use_coldEv@PLT
	jmp	.L91
	.p2align 4,,10
	.p2align 3
.L120:
	movq	%r13, %rdi
	call	_ZNSt16_Sp_counted_baseILN9__gnu_cxx12_Lock_policyE2EE24_M_release_last_use_coldEv@PLT
	jmp	.L79
.L110:
	movq	%rax, %r12
	jmp	.L105
.L111:
	movq	%rax, %r12
	jmp	.L104
.L109:
	movq	%rax, %r12
	jmp	.L108
	.section	.gcc_except_table
.LLSDA3312:
	.byte	0xff
	.byte	0xff
	.byte	0x1
	.uleb128 .LLSDACSE3312-.LLSDACSB3312
.LLSDACSB3312:
	.uleb128 .LEHB5-.LFB3312
	.uleb128 .LEHE5-.LEHB5
	.uleb128 0
	.uleb128 0
	.uleb128 .LEHB6-.LFB3312
	.uleb128 .LEHE6-.LEHB6
	.uleb128 .L109-.LFB3312
	.uleb128 0
	.uleb128 .LEHB7-.LFB3312
	.uleb128 .LEHE7-.LEHB7
	.uleb128 .L110-.LFB3312
	.uleb128 0
	.uleb128 .LEHB8-.LFB3312
	.uleb128 .LEHE8-.LEHB8
	.uleb128 .L111-.LFB3312
	.uleb128 0
.LLSDACSE3312:
	.text
	.cfi_endproc
	.section	.text.unlikely
	.cfi_startproc
	.cfi_personality 0x9b,DW.ref.__gxx_personality_v0
	.cfi_lsda 0x1b,.LLSDAC3312
	.type	_ZN8asiodnp322DefaultListenCallbacks12OnFirstFrameEmRKN8opendnp316LinkHeaderFieldsERNS_16ISessionAcceptorE.cold, @function
_ZN8asiodnp322DefaultListenCallbacks12OnFirstFrameEmRKN8opendnp316LinkHeaderFieldsERNS_16ISessionAcceptorE.cold:
.LFSB3312:
.L104:
	.cfi_def_cfa_offset 256
	.cfi_offset 3, -56
	.cfi_offset 6, -48
	.cfi_offset 12, -40
	.cfi_offset 13, -32
	.cfi_offset 14, -24
	.cfi_offset 15, -16
	leaq	80(%rsp), %rdi
	call	_ZNSt7__cxx1112basic_stringIcSt11char_traitsIcESaIcEE10_M_disposeEv@PLT
.L105:
	movq	56(%rsp), %rdi
	testq	%rdi, %rdi
	je	.L106
	call	_ZNSt16_Sp_counted_baseILN9__gnu_cxx12_Lock_policyE2EE10_M_releaseEv@PLT
.L106:
	movq	72(%rsp), %rdi
	testq	%rdi, %rdi
	je	.L107
	call	_ZNSt16_Sp_counted_baseILN9__gnu_cxx12_Lock_policyE2EE10_M_releaseEv@PLT
.L107:
	movq	%rbx, %rdi
	call	_ZNSt16_Sp_counted_baseILN9__gnu_cxx12_Lock_policyE2EE10_M_releaseEv@PLT
.L108:
	movq	%rbp, %rdi
	call	_ZNSt16_Sp_counted_baseILN9__gnu_cxx12_Lock_policyE2EE10_M_releaseEv@PLT
	movq	%r12, %rdi
.LEHB9:
	call	_Unwind_Resume@PLT
.LEHE9:
	.cfi_endproc
.LFE3312:
	.section	.gcc_except_table
.LLSDAC3312:
	.byte	0xff
	.byte	0xff
	.byte	0x1
	.uleb128 .LLSDACSEC3312-.LLSDACSBC3312
.LLSDACSBC3312:
	.uleb128 .LEHB9-.LCOLDB8
	.uleb128 .LEHE9-.LEHB9
	.uleb128 0
	.uleb128 0
.LLSDACSEC3312:
	.section	.text.unlikely
	.text
	.size	_ZN8asiodnp322DefaultListenCallbacks12OnFirstFrameEmRKN8opendnp316LinkHeaderFieldsERNS_16ISessionAcceptorE, .-_ZN8asiodnp322DefaultListenCallbacks12OnFirstFrameEmRKN8opendnp316LinkHeaderFieldsERNS_16ISessionAcceptorE
	.section	.text.unlikely
	.size	_ZN8asiodnp322DefaultListenCallbacks12OnFirstFrameEmRKN8opendnp316LinkHeaderFieldsERNS_16ISessionAcceptorE.cold, .-_ZN8asiodnp322DefaultListenCallbacks12OnFirstFrameEmRKN8opendnp316LinkHeaderFieldsERNS_16ISessionAcceptorE.cold
.LCOLDE8:
	.text
.LHOTE8:
	.section	.text.startup,"ax",@progbits
	.p2align 4
	.type	_GLOBAL__sub_I_DefaultListenCallbacks.cpp, @function
_GLOBAL__sub_I_DefaultListenCallbacks.cpp:
.LFB4219:
	.cfi_startproc
	movl	$5000, %edi
	jmp	_ZN7openpal12TimeDuration12MillisecondsEl@PLT
	.cfi_endproc
.LFE4219:
	.size	_GLOBAL__sub_I_DefaultListenCallbacks.cpp, .-_GLOBAL__sub_I_DefaultListenCallbacks.cpp
	.section	.init_array,"aw"
	.align 8
	.quad	_GLOBAL__sub_I_DefaultListenCallbacks.cpp
	.weak	_ZTSSt11_Mutex_baseILN9__gnu_cxx12_Lock_policyE2EE
	.section	.rodata._ZTSSt11_Mutex_baseILN9__gnu_cxx12_Lock_policyE2EE,"aG",@progbits,_ZTSSt11_Mutex_baseILN9__gnu_cxx12_Lock_policyE2EE,comdat
	.align 32
	.type	_ZTSSt11_Mutex_baseILN9__gnu_cxx12_Lock_policyE2EE, @object
	.size	_ZTSSt11_Mutex_baseILN9__gnu_cxx12_Lock_policyE2EE, 47
_ZTSSt11_Mutex_baseILN9__gnu_cxx12_Lock_policyE2EE:
	.string	"St11_Mutex_baseILN9__gnu_cxx12_Lock_policyE2EE"
	.weak	_ZTISt11_Mutex_baseILN9__gnu_cxx12_Lock_policyE2EE
	.section	.data.rel.ro._ZTISt11_Mutex_baseILN9__gnu_cxx12_Lock_policyE2EE,"awG",@progbits,_ZTISt11_Mutex_baseILN9__gnu_cxx12_Lock_policyE2EE,comdat
	.align 8
	.type	_ZTISt11_Mutex_baseILN9__gnu_cxx12_Lock_policyE2EE, @object
	.size	_ZTISt11_Mutex_baseILN9__gnu_cxx12_Lock_policyE2EE, 16
_ZTISt11_Mutex_baseILN9__gnu_cxx12_Lock_policyE2EE:
	.quad	_ZTVN10__cxxabiv117__class_type_infoE+16
	.quad	_ZTSSt11_Mutex_baseILN9__gnu_cxx12_Lock_policyE2EE
	.weak	_ZTSSt19_Sp_make_shared_tag
	.section	.rodata._ZTSSt19_Sp_make_shared_tag,"aG",@progbits,_ZTSSt19_Sp_make_shared_tag,comdat
	.align 16
	.type	_ZTSSt19_Sp_make_shared_tag, @object
	.size	_ZTSSt19_Sp_make_shared_tag, 24
_ZTSSt19_Sp_make_shared_tag:
	.string	"St19_Sp_make_shared_tag"
	.weak	_ZTSSt16_Sp_counted_baseILN9__gnu_cxx12_Lock_policyE2EE
	.section	.rodata._ZTSSt16_Sp_counted_baseILN9__gnu_cxx12_Lock_policyE2EE,"aG",@progbits,_ZTSSt16_Sp_counted_baseILN9__gnu_cxx12_Lock_policyE2EE,comdat
	.align 32
	.type	_ZTSSt16_Sp_counted_baseILN9__gnu_cxx12_Lock_policyE2EE, @object
	.size	_ZTSSt16_Sp_counted_baseILN9__gnu_cxx12_Lock_policyE2EE, 52
_ZTSSt16_Sp_counted_baseILN9__gnu_cxx12_Lock_policyE2EE:
	.string	"St16_Sp_counted_baseILN9__gnu_cxx12_Lock_policyE2EE"
	.weak	_ZTISt16_Sp_counted_baseILN9__gnu_cxx12_Lock_policyE2EE
	.section	.data.rel.ro._ZTISt16_Sp_counted_baseILN9__gnu_cxx12_Lock_policyE2EE,"awG",@progbits,_ZTISt16_Sp_counted_baseILN9__gnu_cxx12_Lock_policyE2EE,comdat
	.align 8
	.type	_ZTISt16_Sp_counted_baseILN9__gnu_cxx12_Lock_policyE2EE, @object
	.size	_ZTISt16_Sp_counted_baseILN9__gnu_cxx12_Lock_policyE2EE, 24
_ZTISt16_Sp_counted_baseILN9__gnu_cxx12_Lock_policyE2EE:
	.quad	_ZTVN10__cxxabiv120__si_class_type_infoE+16
	.quad	_ZTSSt16_Sp_counted_baseILN9__gnu_cxx12_Lock_policyE2EE
	.quad	_ZTISt11_Mutex_baseILN9__gnu_cxx12_Lock_policyE2EE
	.weak	_ZTSN8asiodnp316IListenCallbacksE
	.section	.rodata._ZTSN8asiodnp316IListenCallbacksE,"aG",@progbits,_ZTSN8asiodnp316IListenCallbacksE,comdat
	.align 16
	.type	_ZTSN8asiodnp316IListenCallbacksE, @object
	.size	_ZTSN8asiodnp316IListenCallbacksE, 30
_ZTSN8asiodnp316IListenCallbacksE:
	.string	"N8asiodnp316IListenCallbacksE"
	.weak	_ZTIN8asiodnp316IListenCallbacksE
	.section	.data.rel.ro._ZTIN8asiodnp316IListenCallbacksE,"awG",@progbits,_ZTIN8asiodnp316IListenCallbacksE,comdat
	.align 8
	.type	_ZTIN8asiodnp316IListenCallbacksE, @object
	.size	_ZTIN8asiodnp316IListenCallbacksE, 16
_ZTIN8asiodnp316IListenCallbacksE:
	.quad	_ZTVN10__cxxabiv117__class_type_infoE+16
	.quad	_ZTSN8asiodnp316IListenCallbacksE
	.weak	_ZTSN8asiodnp322DefaultListenCallbacksE
	.section	.rodata._ZTSN8asiodnp322DefaultListenCallbacksE,"aG",@progbits,_ZTSN8asiodnp322DefaultListenCallbacksE,comdat
	.align 32
	.type	_ZTSN8asiodnp322DefaultListenCallbacksE, @object
	.size	_ZTSN8asiodnp322DefaultListenCallbacksE, 36
_ZTSN8asiodnp322DefaultListenCallbacksE:
	.string	"N8asiodnp322DefaultListenCallbacksE"
	.weak	_ZTIN8asiodnp322DefaultListenCallbacksE
	.section	.data.rel.ro._ZTIN8asiodnp322DefaultListenCallbacksE,"awG",@progbits,_ZTIN8asiodnp322DefaultListenCallbacksE,comdat
	.align 8
	.type	_ZTIN8asiodnp322DefaultListenCallbacksE, @object
	.size	_ZTIN8asiodnp322DefaultListenCallbacksE, 24
_ZTIN8asiodnp322DefaultListenCallbacksE:
	.quad	_ZTVN10__cxxabiv120__si_class_type_infoE+16
	.quad	_ZTSN8asiodnp322DefaultListenCallbacksE
	.quad	_ZTIN8asiodnp316IListenCallbacksE
	.weak	_ZTSSt23_Sp_counted_ptr_inplaceIN8asiodnp318PrintingSOEHandlerESaIvELN9__gnu_cxx12_Lock_policyE2EE
	.section	.rodata._ZTSSt23_Sp_counted_ptr_inplaceIN8asiodnp318PrintingSOEHandlerESaIvELN9__gnu_cxx12_Lock_policyE2EE,"aG",@progbits,_ZTSSt23_Sp_counted_ptr_inplaceIN8asiodnp318PrintingSOEHandlerESaIvELN9__gnu_cxx12_Lock_policyE2EE,comdat
	.align 32
	.type	_ZTSSt23_Sp_counted_ptr_inplaceIN8asiodnp318PrintingSOEHandlerESaIvELN9__gnu_cxx12_Lock_policyE2EE, @object
	.size	_ZTSSt23_Sp_counted_ptr_inplaceIN8asiodnp318PrintingSOEHandlerESaIvELN9__gnu_cxx12_Lock_policyE2EE, 95
_ZTSSt23_Sp_counted_ptr_inplaceIN8asiodnp318PrintingSOEHandlerESaIvELN9__gnu_cxx12_Lock_policyE2EE:
	.string	"St23_Sp_counted_ptr_inplaceIN8asiodnp318PrintingSOEHandlerESaIvELN9__gnu_cxx12_Lock_policyE2EE"
	.weak	_ZTISt23_Sp_counted_ptr_inplaceIN8asiodnp318PrintingSOEHandlerESaIvELN9__gnu_cxx12_Lock_policyE2EE
	.section	.data.rel.ro._ZTISt23_Sp_counted_ptr_inplaceIN8asiodnp318PrintingSOEHandlerESaIvELN9__gnu_cxx12_Lock_policyE2EE,"awG",@progbits,_ZTISt23_Sp_counted_ptr_inplaceIN8asiodnp318PrintingSOEHandlerESaIvELN9__gnu_cxx12_Lock_policyE2EE,comdat
	.align 8
	.type	_ZTISt23_Sp_counted_ptr_inplaceIN8asiodnp318PrintingSOEHandlerESaIvELN9__gnu_cxx12_Lock_policyE2EE, @object
	.size	_ZTISt23_Sp_counted_ptr_inplaceIN8asiodnp318PrintingSOEHandlerESaIvELN9__gnu_cxx12_Lock_policyE2EE, 24
_ZTISt23_Sp_counted_ptr_inplaceIN8asiodnp318PrintingSOEHandlerESaIvELN9__gnu_cxx12_Lock_policyE2EE:
	.quad	_ZTVN10__cxxabiv120__si_class_type_infoE+16
	.quad	_ZTSSt23_Sp_counted_ptr_inplaceIN8asiodnp318PrintingSOEHandlerESaIvELN9__gnu_cxx12_Lock_policyE2EE
	.quad	_ZTISt16_Sp_counted_baseILN9__gnu_cxx12_Lock_policyE2EE
	.weak	_ZTSSt23_Sp_counted_ptr_inplaceIN8asiodnp324DefaultMasterApplicationESaIvELN9__gnu_cxx12_Lock_policyE2EE
	.section	.rodata._ZTSSt23_Sp_counted_ptr_inplaceIN8asiodnp324DefaultMasterApplicationESaIvELN9__gnu_cxx12_Lock_policyE2EE,"aG",@progbits,_ZTSSt23_Sp_counted_ptr_inplaceIN8asiodnp324DefaultMasterApplicationESaIvELN9__gnu_cxx12_Lock_policyE2EE,comdat
	.align 32
	.type	_ZTSSt23_Sp_counted_ptr_inplaceIN8asiodnp324DefaultMasterApplicationESaIvELN9__gnu_cxx12_Lock_policyE2EE, @object
	.size	_ZTSSt23_Sp_counted_ptr_inplaceIN8asiodnp324DefaultMasterApplicationESaIvELN9__gnu_cxx12_Lock_policyE2EE, 101
_ZTSSt23_Sp_counted_ptr_inplaceIN8asiodnp324DefaultMasterApplicationESaIvELN9__gnu_cxx12_Lock_policyE2EE:
	.string	"St23_Sp_counted_ptr_inplaceIN8asiodnp324DefaultMasterApplicationESaIvELN9__gnu_cxx12_Lock_policyE2EE"
	.weak	_ZTISt23_Sp_counted_ptr_inplaceIN8asiodnp324DefaultMasterApplicationESaIvELN9__gnu_cxx12_Lock_policyE2EE
	.section	.data.rel.ro._ZTISt23_Sp_counted_ptr_inplaceIN8asiodnp324DefaultMasterApplicationESaIvELN9__gnu_cxx12_Lock_policyE2EE,"awG",@progbits,_ZTISt23_Sp_counted_ptr_inplaceIN8asiodnp324DefaultMasterApplicationESaIvELN9__gnu_cxx12_Lock_policyE2EE,comdat
	.align 8
	.type	_ZTISt23_Sp_counted_ptr_inplaceIN8asiodnp324DefaultMasterApplicationESaIvELN9__gnu_cxx12_Lock_policyE2EE, @object
	.size	_ZTISt23_Sp_counted_ptr_inplaceIN8asiodnp324DefaultMasterApplicationESaIvELN9__gnu_cxx12_Lock_policyE2EE, 24
_ZTISt23_Sp_counted_ptr_inplaceIN8asiodnp324DefaultMasterApplicationESaIvELN9__gnu_cxx12_Lock_policyE2EE:
	.quad	_ZTVN10__cxxabiv120__si_class_type_infoE+16
	.quad	_ZTSSt23_Sp_counted_ptr_inplaceIN8asiodnp324DefaultMasterApplicationESaIvELN9__gnu_cxx12_Lock_policyE2EE
	.quad	_ZTISt16_Sp_counted_baseILN9__gnu_cxx12_Lock_policyE2EE
	.weak	_ZTVN8asiodnp322DefaultListenCallbacksE
	.section	.data.rel.ro._ZTVN8asiodnp322DefaultListenCallbacksE,"awG",@progbits,_ZTVN8asiodnp322DefaultListenCallbacksE,comdat
	.align 8
	.type	_ZTVN8asiodnp322DefaultListenCallbacksE, @object
	.size	_ZTVN8asiodnp322DefaultListenCallbacksE, 80
_ZTVN8asiodnp322DefaultListenCallbacksE:
	.quad	0
	.quad	_ZTIN8asiodnp322DefaultListenCallbacksE
	.quad	_ZN8asiodnp322DefaultListenCallbacksD1Ev
	.quad	_ZN8asiodnp322DefaultListenCallbacksD0Ev
	.quad	_ZN8asiodnp322DefaultListenCallbacks16AcceptConnectionEmRKNSt7__cxx1112basic_stringIcSt11char_traitsIcESaIcEEE
	.quad	_ZN8asiodnp322DefaultListenCallbacks17AcceptCertificateEmRKNS_8X509InfoE
	.quad	_ZN8asiodnp322DefaultListenCallbacks20GetFirstFrameTimeoutEv
	.quad	_ZN8asiodnp322DefaultListenCallbacks12OnFirstFrameEmRKN8opendnp316LinkHeaderFieldsERNS_16ISessionAcceptorE
	.quad	_ZN8asiodnp322DefaultListenCallbacks17OnConnectionCloseEmRKSt10shared_ptrINS_14IMasterSessionEE
	.quad	_ZN8asiodnp322DefaultListenCallbacks18OnCertificateErrorEmRKNS_8X509InfoEi
	.weak	_ZTVSt23_Sp_counted_ptr_inplaceIN8asiodnp318PrintingSOEHandlerESaIvELN9__gnu_cxx12_Lock_policyE2EE
	.section	.data.rel.ro._ZTVSt23_Sp_counted_ptr_inplaceIN8asiodnp318PrintingSOEHandlerESaIvELN9__gnu_cxx12_Lock_policyE2EE,"awG",@progbits,_ZTVSt23_Sp_counted_ptr_inplaceIN8asiodnp318PrintingSOEHandlerESaIvELN9__gnu_cxx12_Lock_policyE2EE,comdat
	.align 8
	.type	_ZTVSt23_Sp_counted_ptr_inplaceIN8asiodnp318PrintingSOEHandlerESaIvELN9__gnu_cxx12_Lock_policyE2EE, @object
	.size	_ZTVSt23_Sp_counted_ptr_inplaceIN8asiodnp318PrintingSOEHandlerESaIvELN9__gnu_cxx12_Lock_policyE2EE, 56
_ZTVSt23_Sp_counted_ptr_inplaceIN8asiodnp318PrintingSOEHandlerESaIvELN9__gnu_cxx12_Lock_policyE2EE:
	.quad	0
	.quad	_ZTISt23_Sp_counted_ptr_inplaceIN8asiodnp318PrintingSOEHandlerESaIvELN9__gnu_cxx12_Lock_policyE2EE
	.quad	_ZNSt23_Sp_counted_ptr_inplaceIN8asiodnp318PrintingSOEHandlerESaIvELN9__gnu_cxx12_Lock_policyE2EED1Ev
	.quad	_ZNSt23_Sp_counted_ptr_inplaceIN8asiodnp318PrintingSOEHandlerESaIvELN9__gnu_cxx12_Lock_policyE2EED0Ev
	.quad	_ZNSt23_Sp_counted_ptr_inplaceIN8asiodnp318PrintingSOEHandlerESaIvELN9__gnu_cxx12_Lock_policyE2EE10_M_disposeEv
	.quad	_ZNSt23_Sp_counted_ptr_inplaceIN8asiodnp318PrintingSOEHandlerESaIvELN9__gnu_cxx12_Lock_policyE2EE10_M_destroyEv
	.quad	_ZNSt23_Sp_counted_ptr_inplaceIN8asiodnp318PrintingSOEHandlerESaIvELN9__gnu_cxx12_Lock_policyE2EE14_M_get_deleterERKSt9type_info
	.weak	_ZTVSt23_Sp_counted_ptr_inplaceIN8asiodnp324DefaultMasterApplicationESaIvELN9__gnu_cxx12_Lock_policyE2EE
	.section	.data.rel.ro._ZTVSt23_Sp_counted_ptr_inplaceIN8asiodnp324DefaultMasterApplicationESaIvELN9__gnu_cxx12_Lock_policyE2EE,"awG",@progbits,_ZTVSt23_Sp_counted_ptr_inplaceIN8asiodnp324DefaultMasterApplicationESaIvELN9__gnu_cxx12_Lock_policyE2EE,comdat
	.align 8
	.type	_ZTVSt23_Sp_counted_ptr_inplaceIN8asiodnp324DefaultMasterApplicationESaIvELN9__gnu_cxx12_Lock_policyE2EE, @object
	.size	_ZTVSt23_Sp_counted_ptr_inplaceIN8asiodnp324DefaultMasterApplicationESaIvELN9__gnu_cxx12_Lock_policyE2EE, 56
_ZTVSt23_Sp_counted_ptr_inplaceIN8asiodnp324DefaultMasterApplicationESaIvELN9__gnu_cxx12_Lock_policyE2EE:
	.quad	0
	.quad	_ZTISt23_Sp_counted_ptr_inplaceIN8asiodnp324DefaultMasterApplicationESaIvELN9__gnu_cxx12_Lock_policyE2EE
	.quad	_ZNSt23_Sp_counted_ptr_inplaceIN8asiodnp324DefaultMasterApplicationESaIvELN9__gnu_cxx12_Lock_policyE2EED1Ev
	.quad	_ZNSt23_Sp_counted_ptr_inplaceIN8asiodnp324DefaultMasterApplicationESaIvELN9__gnu_cxx12_Lock_policyE2EED0Ev
	.quad	_ZNSt23_Sp_counted_ptr_inplaceIN8asiodnp324DefaultMasterApplicationESaIvELN9__gnu_cxx12_Lock_policyE2EE10_M_disposeEv
	.quad	_ZNSt23_Sp_counted_ptr_inplaceIN8asiodnp324DefaultMasterApplicationESaIvELN9__gnu_cxx12_Lock_policyE2EE10_M_destroyEv
	.quad	_ZNSt23_Sp_counted_ptr_inplaceIN8asiodnp324DefaultMasterApplicationESaIvELN9__gnu_cxx12_Lock_policyE2EE14_M_get_deleterERKSt9type_info
	.weak	_ZZNSt19_Sp_make_shared_tag5_S_tiEvE5__tag
	.section	.rodata._ZZNSt19_Sp_make_shared_tag5_S_tiEvE5__tag,"aG",@progbits,_ZZNSt19_Sp_make_shared_tag5_S_tiEvE5__tag,comdat
	.align 8
	.type	_ZZNSt19_Sp_make_shared_tag5_S_tiEvE5__tag, @gnu_unique_object
	.size	_ZZNSt19_Sp_make_shared_tag5_S_tiEvE5__tag, 16
_ZZNSt19_Sp_make_shared_tag5_S_tiEvE5__tag:
	.zero	16
	.section	.rodata.cst8,"aM",@progbits,8
	.align 8
.LC3:
	.long	2048
	.long	2048
	.align 8
.LC4:
	.long	1
	.long	1
	.hidden	DW.ref.__gxx_personality_v0
	.weak	DW.ref.__gxx_personality_v0
	.section	.data.rel.local.DW.ref.__gxx_personality_v0,"awG",@progbits,DW.ref.__gxx_personality_v0,comdat
	.align 8
	.type	DW.ref.__gxx_personality_v0, @object
	.size	DW.ref.__gxx_personality_v0, 8
DW.ref.__gxx_personality_v0:
	.quad	__gxx_personality_v0
	.globl	__gxx_personality_v0
	.ident	"GCC: (Debian 15.2.0-4) 15.2.0"
	.section	.note.GNU-stack,"",@progbits
