	.file	"LinkSession.cpp"
	.text
	.section	.rodata._ZNK4asio6detail15system_category4nameEv.str1.1,"aMS",@progbits,1
.LC0:
	.string	"asio.system"
	.section	.text._ZNK4asio6detail15system_category4nameEv,"axG",@progbits,_ZNK4asio6detail15system_category4nameEv,comdat
	.align 2
	.p2align 4
	.weak	_ZNK4asio6detail15system_category4nameEv
	.type	_ZNK4asio6detail15system_category4nameEv, @function
_ZNK4asio6detail15system_category4nameEv:
.LFB2402:
	.cfi_startproc
	leaq	.LC0(%rip), %rax
	ret
	.cfi_endproc
.LFE2402:
	.size	_ZNK4asio6detail15system_category4nameEv, .-_ZNK4asio6detail15system_category4nameEv
	.section	.rodata._ZNK4asio5error6detail14netdb_category4nameEv.str1.1,"aMS",@progbits,1
.LC1:
	.string	"asio.netdb"
	.section	.text._ZNK4asio5error6detail14netdb_category4nameEv,"axG",@progbits,_ZNK4asio5error6detail14netdb_category4nameEv,comdat
	.align 2
	.p2align 4
	.weak	_ZNK4asio5error6detail14netdb_category4nameEv
	.type	_ZNK4asio5error6detail14netdb_category4nameEv, @function
_ZNK4asio5error6detail14netdb_category4nameEv:
.LFB2446:
	.cfi_startproc
	leaq	.LC1(%rip), %rax
	ret
	.cfi_endproc
.LFE2446:
	.size	_ZNK4asio5error6detail14netdb_category4nameEv, .-_ZNK4asio5error6detail14netdb_category4nameEv
	.section	.rodata._ZNK4asio5error6detail17addrinfo_category4nameEv.str1.1,"aMS",@progbits,1
.LC2:
	.string	"asio.addrinfo"
	.section	.text._ZNK4asio5error6detail17addrinfo_category4nameEv,"axG",@progbits,_ZNK4asio5error6detail17addrinfo_category4nameEv,comdat
	.align 2
	.p2align 4
	.weak	_ZNK4asio5error6detail17addrinfo_category4nameEv
	.type	_ZNK4asio5error6detail17addrinfo_category4nameEv, @function
_ZNK4asio5error6detail17addrinfo_category4nameEv:
.LFB2456:
	.cfi_startproc
	leaq	.LC2(%rip), %rax
	ret
	.cfi_endproc
.LFE2456:
	.size	_ZNK4asio5error6detail17addrinfo_category4nameEv, .-_ZNK4asio5error6detail17addrinfo_category4nameEv
	.section	.rodata._ZNK4asio5error6detail13misc_category4nameEv.str1.1,"aMS",@progbits,1
.LC3:
	.string	"asio.misc"
	.section	.text._ZNK4asio5error6detail13misc_category4nameEv,"axG",@progbits,_ZNK4asio5error6detail13misc_category4nameEv,comdat
	.align 2
	.p2align 4
	.weak	_ZNK4asio5error6detail13misc_category4nameEv
	.type	_ZNK4asio5error6detail13misc_category4nameEv, @function
_ZNK4asio5error6detail13misc_category4nameEv:
.LFB2466:
	.cfi_startproc
	leaq	.LC3(%rip), %rax
	ret
	.cfi_endproc
.LFE2466:
	.size	_ZNK4asio5error6detail13misc_category4nameEv, .-_ZNK4asio5error6detail13misc_category4nameEv
	.section	.text._ZN4asio6detail7tss_ptrINS0_10call_stackINS0_14strand_service11strand_implEhE7contextEED2Ev,"axG",@progbits,_ZN4asio6detail7tss_ptrINS0_10call_stackINS0_14strand_service11strand_implEhE7contextEED5Ev,comdat
	.align 2
	.p2align 4
	.weak	_ZN4asio6detail7tss_ptrINS0_10call_stackINS0_14strand_service11strand_implEhE7contextEED2Ev
	.type	_ZN4asio6detail7tss_ptrINS0_10call_stackINS0_14strand_service11strand_implEhE7contextEED2Ev, @function
_ZN4asio6detail7tss_ptrINS0_10call_stackINS0_14strand_service11strand_implEhE7contextEED2Ev:
.LFB10454:
	.cfi_startproc
	ret
	.cfi_endproc
.LFE10454:
	.size	_ZN4asio6detail7tss_ptrINS0_10call_stackINS0_14strand_service11strand_implEhE7contextEED2Ev, .-_ZN4asio6detail7tss_ptrINS0_10call_stackINS0_14strand_service11strand_implEhE7contextEED2Ev
	.weak	_ZN4asio6detail7tss_ptrINS0_10call_stackINS0_14strand_service11strand_implEhE7contextEED1Ev
	.set	_ZN4asio6detail7tss_ptrINS0_10call_stackINS0_14strand_service11strand_implEhE7contextEED1Ev,_ZN4asio6detail7tss_ptrINS0_10call_stackINS0_14strand_service11strand_implEhE7contextEED2Ev
	.section	.text._ZN4asio6detail15system_categoryD2Ev,"axG",@progbits,_ZN4asio6detail15system_categoryD5Ev,comdat
	.align 2
	.p2align 4
	.weak	_ZN4asio6detail15system_categoryD2Ev
	.type	_ZN4asio6detail15system_categoryD2Ev, @function
_ZN4asio6detail15system_categoryD2Ev:
.LFB2414:
	.cfi_startproc
	movq	_ZTVN4asio6detail15system_categoryE@GOTPCREL(%rip), %rax
	addq	$16, %rax
	movq	%rax, (%rdi)
	jmp	_ZNSt3_V214error_categoryD2Ev@PLT
	.cfi_endproc
.LFE2414:
	.size	_ZN4asio6detail15system_categoryD2Ev, .-_ZN4asio6detail15system_categoryD2Ev
	.weak	_ZN4asio6detail15system_categoryD1Ev
	.set	_ZN4asio6detail15system_categoryD1Ev,_ZN4asio6detail15system_categoryD2Ev
	.section	.text._ZN4asio6detail15system_categoryD0Ev,"axG",@progbits,_ZN4asio6detail15system_categoryD5Ev,comdat
	.align 2
	.p2align 4
	.weak	_ZN4asio6detail15system_categoryD0Ev
	.type	_ZN4asio6detail15system_categoryD0Ev, @function
_ZN4asio6detail15system_categoryD0Ev:
.LFB2416:
	.cfi_startproc
	subq	$24, %rsp
	.cfi_def_cfa_offset 32
	movq	_ZTVN4asio6detail15system_categoryE@GOTPCREL(%rip), %rax
	movq	%rdi, 8(%rsp)
	addq	$16, %rax
	movq	%rax, (%rdi)
	call	_ZNSt3_V214error_categoryD2Ev@PLT
	movq	8(%rsp), %rdi
	movl	$8, %esi
	addq	$24, %rsp
	.cfi_def_cfa_offset 8
	jmp	_ZdlPvm@PLT
	.cfi_endproc
.LFE2416:
	.size	_ZN4asio6detail15system_categoryD0Ev, .-_ZN4asio6detail15system_categoryD0Ev
	.section	.text._ZN4asio5error6detail14netdb_categoryD2Ev,"axG",@progbits,_ZN4asio5error6detail14netdb_categoryD5Ev,comdat
	.align 2
	.p2align 4
	.weak	_ZN4asio5error6detail14netdb_categoryD2Ev
	.type	_ZN4asio5error6detail14netdb_categoryD2Ev, @function
_ZN4asio5error6detail14netdb_categoryD2Ev:
.LFB2453:
	.cfi_startproc
	movq	_ZTVN4asio5error6detail14netdb_categoryE@GOTPCREL(%rip), %rax
	addq	$16, %rax
	movq	%rax, (%rdi)
	jmp	_ZNSt3_V214error_categoryD2Ev@PLT
	.cfi_endproc
.LFE2453:
	.size	_ZN4asio5error6detail14netdb_categoryD2Ev, .-_ZN4asio5error6detail14netdb_categoryD2Ev
	.weak	_ZN4asio5error6detail14netdb_categoryD1Ev
	.set	_ZN4asio5error6detail14netdb_categoryD1Ev,_ZN4asio5error6detail14netdb_categoryD2Ev
	.section	.text._ZN4asio5error6detail14netdb_categoryD0Ev,"axG",@progbits,_ZN4asio5error6detail14netdb_categoryD5Ev,comdat
	.align 2
	.p2align 4
	.weak	_ZN4asio5error6detail14netdb_categoryD0Ev
	.type	_ZN4asio5error6detail14netdb_categoryD0Ev, @function
_ZN4asio5error6detail14netdb_categoryD0Ev:
.LFB2455:
	.cfi_startproc
	subq	$24, %rsp
	.cfi_def_cfa_offset 32
	movq	_ZTVN4asio5error6detail14netdb_categoryE@GOTPCREL(%rip), %rax
	movq	%rdi, 8(%rsp)
	addq	$16, %rax
	movq	%rax, (%rdi)
	call	_ZNSt3_V214error_categoryD2Ev@PLT
	movq	8(%rsp), %rdi
	movl	$8, %esi
	addq	$24, %rsp
	.cfi_def_cfa_offset 8
	jmp	_ZdlPvm@PLT
	.cfi_endproc
.LFE2455:
	.size	_ZN4asio5error6detail14netdb_categoryD0Ev, .-_ZN4asio5error6detail14netdb_categoryD0Ev
	.section	.text._ZN4asio5error6detail17addrinfo_categoryD2Ev,"axG",@progbits,_ZN4asio5error6detail17addrinfo_categoryD5Ev,comdat
	.align 2
	.p2align 4
	.weak	_ZN4asio5error6detail17addrinfo_categoryD2Ev
	.type	_ZN4asio5error6detail17addrinfo_categoryD2Ev, @function
_ZN4asio5error6detail17addrinfo_categoryD2Ev:
.LFB2463:
	.cfi_startproc
	movq	_ZTVN4asio5error6detail17addrinfo_categoryE@GOTPCREL(%rip), %rax
	addq	$16, %rax
	movq	%rax, (%rdi)
	jmp	_ZNSt3_V214error_categoryD2Ev@PLT
	.cfi_endproc
.LFE2463:
	.size	_ZN4asio5error6detail17addrinfo_categoryD2Ev, .-_ZN4asio5error6detail17addrinfo_categoryD2Ev
	.weak	_ZN4asio5error6detail17addrinfo_categoryD1Ev
	.set	_ZN4asio5error6detail17addrinfo_categoryD1Ev,_ZN4asio5error6detail17addrinfo_categoryD2Ev
	.section	.text._ZN4asio5error6detail17addrinfo_categoryD0Ev,"axG",@progbits,_ZN4asio5error6detail17addrinfo_categoryD5Ev,comdat
	.align 2
	.p2align 4
	.weak	_ZN4asio5error6detail17addrinfo_categoryD0Ev
	.type	_ZN4asio5error6detail17addrinfo_categoryD0Ev, @function
_ZN4asio5error6detail17addrinfo_categoryD0Ev:
.LFB2465:
	.cfi_startproc
	subq	$24, %rsp
	.cfi_def_cfa_offset 32
	movq	_ZTVN4asio5error6detail17addrinfo_categoryE@GOTPCREL(%rip), %rax
	movq	%rdi, 8(%rsp)
	addq	$16, %rax
	movq	%rax, (%rdi)
	call	_ZNSt3_V214error_categoryD2Ev@PLT
	movq	8(%rsp), %rdi
	movl	$8, %esi
	addq	$24, %rsp
	.cfi_def_cfa_offset 8
	jmp	_ZdlPvm@PLT
	.cfi_endproc
.LFE2465:
	.size	_ZN4asio5error6detail17addrinfo_categoryD0Ev, .-_ZN4asio5error6detail17addrinfo_categoryD0Ev
	.section	.text._ZN4asio5error6detail13misc_categoryD2Ev,"axG",@progbits,_ZN4asio5error6detail13misc_categoryD5Ev,comdat
	.align 2
	.p2align 4
	.weak	_ZN4asio5error6detail13misc_categoryD2Ev
	.type	_ZN4asio5error6detail13misc_categoryD2Ev, @function
_ZN4asio5error6detail13misc_categoryD2Ev:
.LFB2473:
	.cfi_startproc
	movq	_ZTVN4asio5error6detail13misc_categoryE@GOTPCREL(%rip), %rax
	addq	$16, %rax
	movq	%rax, (%rdi)
	jmp	_ZNSt3_V214error_categoryD2Ev@PLT
	.cfi_endproc
.LFE2473:
	.size	_ZN4asio5error6detail13misc_categoryD2Ev, .-_ZN4asio5error6detail13misc_categoryD2Ev
	.weak	_ZN4asio5error6detail13misc_categoryD1Ev
	.set	_ZN4asio5error6detail13misc_categoryD1Ev,_ZN4asio5error6detail13misc_categoryD2Ev
	.section	.text._ZN4asio5error6detail13misc_categoryD0Ev,"axG",@progbits,_ZN4asio5error6detail13misc_categoryD5Ev,comdat
	.align 2
	.p2align 4
	.weak	_ZN4asio5error6detail13misc_categoryD0Ev
	.type	_ZN4asio5error6detail13misc_categoryD0Ev, @function
_ZN4asio5error6detail13misc_categoryD0Ev:
.LFB2475:
	.cfi_startproc
	subq	$24, %rsp
	.cfi_def_cfa_offset 32
	movq	_ZTVN4asio5error6detail13misc_categoryE@GOTPCREL(%rip), %rax
	movq	%rdi, 8(%rsp)
	addq	$16, %rax
	movq	%rax, (%rdi)
	call	_ZNSt3_V214error_categoryD2Ev@PLT
	movq	8(%rsp), %rdi
	movl	$8, %esi
	addq	$24, %rsp
	.cfi_def_cfa_offset 8
	jmp	_ZdlPvm@PLT
	.cfi_endproc
.LFE2475:
	.size	_ZN4asio5error6detail13misc_categoryD0Ev, .-_ZN4asio5error6detail13misc_categoryD0Ev
	.text
	.align 2
	.p2align 4
	.globl	_ZN8asiodnp311LinkSession13BeginTransmitERKN7openpal6RSliceERN8opendnp312ILinkSessionE
	.type	_ZN8asiodnp311LinkSession13BeginTransmitERKN7openpal6RSliceERN8opendnp312ILinkSessionE, @function
_ZN8asiodnp311LinkSession13BeginTransmitERKN7openpal6RSliceERN8opendnp312ILinkSessionE:
.LFB7960:
	.cfi_startproc
	movq	136(%rdi), %rdi
	cmpq	$0, 40(%rdi)
	je	.L19
	cmpb	$0, 56(%rdi)
	jne	.L19
	cmpb	$0, 58(%rdi)
	jne	.L19
	movq	(%rdi), %rax
	movb	$1, 58(%rdi)
	jmp	*24(%rax)
	.p2align 4,,10
	.p2align 3
.L19:
	ret
	.cfi_endproc
.LFE7960:
	.size	_ZN8asiodnp311LinkSession13BeginTransmitERKN7openpal6RSliceERN8opendnp312ILinkSessionE, .-_ZN8asiodnp311LinkSession13BeginTransmitERKN7openpal6RSliceERN8opendnp312ILinkSessionE
	.section	.rodata._ZNK4asio6detail15system_category7messageB5cxx11Ei.str1.8,"aMS",@progbits,1
	.align 8
.LC4:
	.string	"basic_string: construction from null is not valid"
	.section	.text._ZNK4asio6detail15system_category7messageB5cxx11Ei,"axG",@progbits,_ZNK4asio6detail15system_category7messageB5cxx11Ei,comdat
	.align 2
	.p2align 4
	.weak	_ZNK4asio6detail15system_category7messageB5cxx11Ei
	.type	_ZNK4asio6detail15system_category7messageB5cxx11Ei, @function
_ZNK4asio6detail15system_category7messageB5cxx11Ei:
.LFB2403:
	.cfi_startproc
	pushq	%r12
	.cfi_def_cfa_offset 16
	.cfi_offset 12, -16
	pushq	%rbp
	.cfi_def_cfa_offset 24
	.cfi_offset 6, -24
	pushq	%rbx
	.cfi_def_cfa_offset 32
	.cfi_offset 3, -32
	movq	%rdi, %rbx
	subq	$288, %rsp
	.cfi_def_cfa_offset 320
	cmpl	$125, %edx
	je	.L33
	pxor	%xmm0, %xmm0
	leaq	32(%rsp), %rsi
	leaq	16(%rbx), %rbp
	movl	%edx, %edi
	movl	$256, %edx
	movaps	%xmm0, 32(%rsp)
	movaps	%xmm0, 48(%rsp)
	movaps	%xmm0, 64(%rsp)
	movaps	%xmm0, 80(%rsp)
	movaps	%xmm0, 96(%rsp)
	movaps	%xmm0, 112(%rsp)
	movaps	%xmm0, 128(%rsp)
	movaps	%xmm0, 144(%rsp)
	movaps	%xmm0, 160(%rsp)
	movaps	%xmm0, 176(%rsp)
	movaps	%xmm0, 192(%rsp)
	movaps	%xmm0, 208(%rsp)
	movaps	%xmm0, 224(%rsp)
	movaps	%xmm0, 240(%rsp)
	movaps	%xmm0, 256(%rsp)
	movaps	%xmm0, 272(%rsp)
	call	strerror_r@PLT
	movq	%rbp, (%rbx)
	movq	%rax, %r12
	testq	%rax, %rax
	je	.L34
	movq	%rax, %rdi
	call	strlen@PLT
	movq	%rax, 24(%rsp)
	movq	%rax, %rcx
	cmpq	$15, %rax
	ja	.L35
	cmpq	$1, %rax
	jne	.L27
	movzbl	(%r12), %edx
	movb	%dl, 16(%rbx)
.L28:
	movq	%rax, 8(%rbx)
	movb	$0, 0(%rbp,%rax)
	addq	$288, %rsp
	.cfi_remember_state
	.cfi_def_cfa_offset 32
	movq	%rbx, %rax
	popq	%rbx
	.cfi_def_cfa_offset 24
	popq	%rbp
	.cfi_def_cfa_offset 16
	popq	%r12
	.cfi_def_cfa_offset 8
	ret
	.p2align 4,,10
	.p2align 3
.L35:
	.cfi_restore_state
	leaq	24(%rsp), %rsi
	xorl	%edx, %edx
	movq	%rbx, %rdi
	movq	%rax, 8(%rsp)
	call	_ZNSt7__cxx1112basic_stringIcSt11char_traitsIcESaIcEE9_M_createERmm@PLT
	movq	8(%rsp), %rcx
	movq	%rax, (%rbx)
	movq	%rax, %rbp
	movq	24(%rsp), %rax
	movq	%rax, 16(%rbx)
.L26:
	movq	%rbp, %rdi
	movq	%rcx, %rdx
	movq	%r12, %rsi
	call	memcpy@PLT
	movq	24(%rsp), %rax
	movq	(%rbx), %rbp
	jmp	.L28
	.p2align 4,,10
	.p2align 3
.L33:
	leaq	16(%rdi), %rax
	leaq	32(%rsp), %rsi
	xorl	%edx, %edx
	movq	$18, 32(%rsp)
	movq	%rax, (%rdi)
	call	_ZNSt7__cxx1112basic_stringIcSt11char_traitsIcESaIcEE9_M_createERmm@PLT
	movq	32(%rsp), %rdx
	movdqa	.LC5(%rip), %xmm0
	movq	%rax, (%rbx)
	movq	%rdx, 16(%rbx)
	movl	$11876, %edx
	movw	%dx, 16(%rax)
	movups	%xmm0, (%rax)
	movq	32(%rsp), %rax
	movq	(%rbx), %rdx
	movq	%rax, 8(%rbx)
	movb	$0, (%rdx,%rax)
	addq	$288, %rsp
	.cfi_remember_state
	.cfi_def_cfa_offset 32
	movq	%rbx, %rax
	popq	%rbx
	.cfi_def_cfa_offset 24
	popq	%rbp
	.cfi_def_cfa_offset 16
	popq	%r12
	.cfi_def_cfa_offset 8
	ret
	.p2align 4,,10
	.p2align 3
.L27:
	.cfi_restore_state
	testq	%rax, %rax
	je	.L28
	jmp	.L26
.L34:
	leaq	.LC4(%rip), %rdi
	call	_ZSt19__throw_logic_errorPKc@PLT
	.cfi_endproc
.LFE2403:
	.size	_ZNK4asio6detail15system_category7messageB5cxx11Ei, .-_ZNK4asio6detail15system_category7messageB5cxx11Ei
	.section	.text._ZNK4asio5error6detail17addrinfo_category7messageB5cxx11Ei,"axG",@progbits,_ZNK4asio5error6detail17addrinfo_category7messageB5cxx11Ei,comdat
	.align 2
	.p2align 4
	.weak	_ZNK4asio5error6detail17addrinfo_category7messageB5cxx11Ei
	.type	_ZNK4asio5error6detail17addrinfo_category7messageB5cxx11Ei, @function
_ZNK4asio5error6detail17addrinfo_category7messageB5cxx11Ei:
.LFB2457:
	.cfi_startproc
	pushq	%rbx
	.cfi_def_cfa_offset 16
	.cfi_offset 3, -16
	leaq	16(%rdi), %rax
	movq	%rdi, %rbx
	subq	$16, %rsp
	.cfi_def_cfa_offset 32
	movq	%rax, (%rdi)
	cmpl	$-8, %edx
	je	.L41
	cmpl	$-7, %edx
	je	.L42
	movq	$19, 8(%rsp)
	leaq	8(%rsp), %rsi
	xorl	%edx, %edx
	call	_ZNSt7__cxx1112basic_stringIcSt11char_traitsIcESaIcEE9_M_createERmm@PLT
	movq	8(%rsp), %rdx
	movdqa	.LC10(%rip), %xmm0
	movq	%rax, (%rbx)
	movq	%rdx, 16(%rbx)
	movups	%xmm0, (%rax)
	movl	$1919906418, 15(%rax)
	movq	8(%rsp), %rax
	movq	(%rbx), %rdx
	movq	%rax, 8(%rbx)
	movb	$0, (%rdx,%rax)
	addq	$16, %rsp
	.cfi_remember_state
	.cfi_def_cfa_offset 16
	movq	%rbx, %rax
	popq	%rbx
	.cfi_def_cfa_offset 8
	ret
	.p2align 4,,10
	.p2align 3
.L42:
	.cfi_restore_state
	movq	$25, 8(%rsp)
	leaq	8(%rsp), %rsi
	xorl	%edx, %edx
	call	_ZNSt7__cxx1112basic_stringIcSt11char_traitsIcESaIcEE9_M_createERmm@PLT
	movq	8(%rsp), %rdx
	movdqa	.LC8(%rip), %xmm0
	movq	%rax, (%rbx)
	movq	%rdx, 16(%rbx)
	movups	%xmm0, (%rax)
	movdqa	.LC9(%rip), %xmm0
	movups	%xmm0, 9(%rax)
	movq	8(%rsp), %rax
	movq	(%rbx), %rdx
	movq	%rax, 8(%rbx)
	movb	$0, (%rdx,%rax)
	addq	$16, %rsp
	.cfi_remember_state
	.cfi_def_cfa_offset 16
	movq	%rbx, %rax
	popq	%rbx
	.cfi_def_cfa_offset 8
	ret
	.p2align 4,,10
	.p2align 3
.L41:
	.cfi_restore_state
	movq	$17, 8(%rsp)
	leaq	8(%rsp), %rsi
	xorl	%edx, %edx
	call	_ZNSt7__cxx1112basic_stringIcSt11char_traitsIcESaIcEE9_M_createERmm@PLT
	movq	8(%rsp), %rdx
	movdqa	.LC7(%rip), %xmm0
	movq	%rax, (%rbx)
	movq	%rdx, 16(%rbx)
	movb	$100, 16(%rax)
	movups	%xmm0, (%rax)
	movq	8(%rsp), %rax
	movq	(%rbx), %rdx
	movq	%rax, 8(%rbx)
	movb	$0, (%rdx,%rax)
	addq	$16, %rsp
	.cfi_def_cfa_offset 16
	movq	%rbx, %rax
	popq	%rbx
	.cfi_def_cfa_offset 8
	ret
	.cfi_endproc
.LFE2457:
	.size	_ZNK4asio5error6detail17addrinfo_category7messageB5cxx11Ei, .-_ZNK4asio5error6detail17addrinfo_category7messageB5cxx11Ei
	.section	.text._ZNK4asio5error6detail14netdb_category7messageB5cxx11Ei,"axG",@progbits,_ZNK4asio5error6detail14netdb_category7messageB5cxx11Ei,comdat
	.align 2
	.p2align 4
	.weak	_ZNK4asio5error6detail14netdb_category7messageB5cxx11Ei
	.type	_ZNK4asio5error6detail14netdb_category7messageB5cxx11Ei, @function
_ZNK4asio5error6detail14netdb_category7messageB5cxx11Ei:
.LFB2447:
	.cfi_startproc
	pushq	%rbx
	.cfi_def_cfa_offset 16
	.cfi_offset 3, -16
	leaq	16(%rdi), %rax
	movq	%rdi, %rbx
	subq	$16, %rsp
	.cfi_def_cfa_offset 32
	movq	%rax, (%rdi)
	cmpl	$1, %edx
	je	.L50
	cmpl	$2, %edx
	je	.L51
	cmpl	$4, %edx
	je	.L52
	cmpl	$3, %edx
	je	.L53
	movq	$16, 8(%rsp)
	leaq	8(%rsp), %rsi
	xorl	%edx, %edx
	call	_ZNSt7__cxx1112basic_stringIcSt11char_traitsIcESaIcEE9_M_createERmm@PLT
	movq	8(%rsp), %rdx
	movdqa	.LC21(%rip), %xmm0
	movq	%rax, (%rbx)
	movq	%rdx, 16(%rbx)
	movups	%xmm0, (%rax)
	movq	8(%rsp), %rax
	movq	(%rbx), %rdx
	movq	%rax, 8(%rbx)
	movb	$0, (%rdx,%rax)
	addq	$16, %rsp
	.cfi_remember_state
	.cfi_def_cfa_offset 16
	movq	%rbx, %rax
	popq	%rbx
	.cfi_def_cfa_offset 8
	ret
	.p2align 4,,10
	.p2align 3
.L50:
	.cfi_restore_state
	movq	$30, 8(%rsp)
	leaq	8(%rsp), %rsi
	xorl	%edx, %edx
	call	_ZNSt7__cxx1112basic_stringIcSt11char_traitsIcESaIcEE9_M_createERmm@PLT
	movq	8(%rsp), %rdx
	movdqa	.LC11(%rip), %xmm0
	movq	%rax, (%rbx)
	movq	%rdx, 16(%rbx)
	movups	%xmm0, (%rax)
	movdqa	.LC12(%rip), %xmm0
	movups	%xmm0, 14(%rax)
	movq	8(%rsp), %rax
	movq	(%rbx), %rdx
	movq	%rax, 8(%rbx)
	movb	$0, (%rdx,%rax)
	addq	$16, %rsp
	.cfi_remember_state
	.cfi_def_cfa_offset 16
	movq	%rbx, %rax
	popq	%rbx
	.cfi_def_cfa_offset 8
	ret
	.p2align 4,,10
	.p2align 3
.L53:
	.cfi_restore_state
	movq	$55, 8(%rsp)
	leaq	8(%rsp), %rsi
	xorl	%edx, %edx
	call	_ZNSt7__cxx1112basic_stringIcSt11char_traitsIcESaIcEE9_M_createERmm@PLT
	movq	8(%rsp), %rdx
	movdqa	.LC18(%rip), %xmm0
	movabsq	$8103501230877974629, %rcx
	movq	%rax, (%rbx)
	movq	%rdx, 16(%rbx)
	movups	%xmm0, (%rax)
	movdqa	.LC19(%rip), %xmm0
	movups	%xmm0, 16(%rax)
	movdqa	.LC20(%rip), %xmm0
	movups	%xmm0, 32(%rax)
	movq	%rcx, 47(%rax)
	movq	8(%rsp), %rax
	movq	(%rbx), %rdx
	movq	%rax, 8(%rbx)
	movb	$0, (%rdx,%rax)
	addq	$16, %rsp
	.cfi_remember_state
	.cfi_def_cfa_offset 16
	movq	%rbx, %rax
	popq	%rbx
	.cfi_def_cfa_offset 8
	ret
	.p2align 4,,10
	.p2align 3
.L51:
	.cfi_restore_state
	movq	$51, 8(%rsp)
	leaq	8(%rsp), %rsi
	xorl	%edx, %edx
	call	_ZNSt7__cxx1112basic_stringIcSt11char_traitsIcESaIcEE9_M_createERmm@PLT
	movq	8(%rsp), %rdx
	movdqa	.LC11(%rip), %xmm0
	movq	%rax, (%rbx)
	movq	%rdx, 16(%rbx)
	movups	%xmm0, (%rax)
	movdqa	.LC13(%rip), %xmm0
	movups	%xmm0, 16(%rax)
	movdqa	.LC14(%rip), %xmm0
	movups	%xmm0, 32(%rax)
	movl	$1919251553, 47(%rax)
	movq	8(%rsp), %rax
	movq	(%rbx), %rdx
	movq	%rax, 8(%rbx)
	movb	$0, (%rdx,%rax)
	addq	$16, %rsp
	.cfi_remember_state
	.cfi_def_cfa_offset 16
	movq	%rbx, %rax
	popq	%rbx
	.cfi_def_cfa_offset 8
	ret
	.p2align 4,,10
	.p2align 3
.L52:
	.cfi_restore_state
	movq	$56, 8(%rsp)
	leaq	8(%rsp), %rsi
	xorl	%edx, %edx
	call	_ZNSt7__cxx1112basic_stringIcSt11char_traitsIcESaIcEE9_M_createERmm@PLT
	movq	8(%rsp), %rdx
	movdqa	.LC15(%rip), %xmm0
	movabsq	$7022344801645520244, %rcx
	movq	%rax, (%rbx)
	movq	%rdx, 16(%rbx)
	movups	%xmm0, (%rax)
	movdqa	.LC16(%rip), %xmm0
	movq	%rcx, 48(%rax)
	movups	%xmm0, 16(%rax)
	movdqa	.LC17(%rip), %xmm0
	movups	%xmm0, 32(%rax)
	movq	8(%rsp), %rax
	movq	(%rbx), %rdx
	movq	%rax, 8(%rbx)
	movb	$0, (%rdx,%rax)
	addq	$16, %rsp
	.cfi_def_cfa_offset 16
	movq	%rbx, %rax
	popq	%rbx
	.cfi_def_cfa_offset 8
	ret
	.cfi_endproc
.LFE2447:
	.size	_ZNK4asio5error6detail14netdb_category7messageB5cxx11Ei, .-_ZNK4asio5error6detail14netdb_category7messageB5cxx11Ei
	.section	.text._ZNK4asio5error6detail13misc_category7messageB5cxx11Ei,"axG",@progbits,_ZNK4asio5error6detail13misc_category7messageB5cxx11Ei,comdat
	.align 2
	.p2align 4
	.weak	_ZNK4asio5error6detail13misc_category7messageB5cxx11Ei
	.type	_ZNK4asio5error6detail13misc_category7messageB5cxx11Ei, @function
_ZNK4asio5error6detail13misc_category7messageB5cxx11Ei:
.LFB2467:
	.cfi_startproc
	cmpl	$1, %edx
	je	.L63
	cmpl	$2, %edx
	je	.L64
	leaq	16(%rdi), %rax
	subq	$40, %rsp
	.cfi_def_cfa_offset 48
	movq	%rax, (%rdi)
	cmpl	$3, %edx
	je	.L65
	cmpl	$4, %edx
	je	.L66
	movabsq	$8316298233121436513, %rcx
	movq	$15, 8(%rdi)
	movq	%rdi, %rax
	movq	%rcx, 16(%rdi)
	movabsq	$8245935278387127155, %rcx
	movq	%rcx, 23(%rdi)
	movb	$0, 31(%rdi)
	addq	$40, %rsp
	.cfi_def_cfa_offset 8
	ret
	.p2align 4,,10
	.p2align 3
.L63:
	leaq	16(%rdi), %rax
	movl	$1852141679, 24(%rdi)
	movabsq	$2340011850872286273, %rsi
	movq	%rax, (%rdi)
	movq	%rdi, %rax
	movq	%rsi, 16(%rdi)
	movq	$12, 8(%rdi)
	movb	$0, 28(%rdi)
	ret
	.p2align 4,,10
	.p2align 3
.L66:
	.cfi_def_cfa_offset 48
	leaq	24(%rsp), %rsi
	xorl	%edx, %edx
	movq	%rdi, 8(%rsp)
	movq	$57, 24(%rsp)
	call	_ZNSt7__cxx1112basic_stringIcSt11char_traitsIcESaIcEE9_M_createERmm@PLT
	movq	24(%rsp), %rdx
	movq	8(%rsp), %rdi
	movdqa	.LC23(%rip), %xmm0
	movq	%rax, (%rdi)
	movq	%rdx, 16(%rdi)
	movups	%xmm0, (%rax)
	movdqa	.LC24(%rip), %xmm0
	movups	%xmm0, 16(%rax)
	movdqa	.LC25(%rip), %xmm0
	movups	%xmm0, 32(%rax)
	movdqa	.LC26(%rip), %xmm0
	movups	%xmm0, 41(%rax)
	movq	24(%rsp), %rax
	movq	(%rdi), %rdx
	movq	%rax, 8(%rdi)
	movb	$0, (%rdx,%rax)
	movq	%rdi, %rax
	addq	$40, %rsp
	.cfi_def_cfa_offset 8
	ret
	.p2align 4,,10
	.p2align 3
.L64:
	leaq	16(%rdi), %rax
	movq	$11, 8(%rdi)
	movabsq	$7358994418594246213, %rsi
	movq	%rax, (%rdi)
	movq	%rdi, %rax
	movq	%rsi, 16(%rdi)
	movb	$0, 27(%rdi)
	movl	$1701603686, 23(%rdi)
	ret
	.p2align 4,,10
	.p2align 3
.L65:
	.cfi_def_cfa_offset 48
	leaq	24(%rsp), %rsi
	xorl	%edx, %edx
	movq	%rdi, 8(%rsp)
	movq	$17, 24(%rsp)
	call	_ZNSt7__cxx1112basic_stringIcSt11char_traitsIcESaIcEE9_M_createERmm@PLT
	movq	8(%rsp), %rdi
	movq	24(%rsp), %rdx
	movdqa	.LC22(%rip), %xmm0
	movq	%rax, (%rdi)
	movq	%rdx, 16(%rdi)
	movb	$100, 16(%rax)
	movups	%xmm0, (%rax)
	movq	24(%rsp), %rax
	movq	(%rdi), %rdx
	movq	%rax, 8(%rdi)
	movb	$0, (%rdx,%rax)
	movq	%rdi, %rax
	addq	$40, %rsp
	.cfi_def_cfa_offset 8
	ret
	.cfi_endproc
.LFE2467:
	.size	_ZNK4asio5error6detail13misc_category7messageB5cxx11Ei, .-_ZNK4asio5error6detail13misc_category7messageB5cxx11Ei
	.text
	.align 2
	.p2align 4
	.globl	_ZN8asiodnp311LinkSession13SetLogFiltersEN7openpal10LogFiltersE
	.type	_ZN8asiodnp311LinkSession13SetLogFiltersEN7openpal10LogFiltersE, @function
_ZN8asiodnp311LinkSession13SetLogFiltersEN7openpal10LogFiltersE:
.LFB7957:
	.cfi_startproc
	movq	80(%rdi), %rax
	movl	%esi, 32(%rax)
	ret
	.cfi_endproc
.LFE7957:
	.size	_ZN8asiodnp311LinkSession13SetLogFiltersEN7openpal10LogFiltersE, .-_ZN8asiodnp311LinkSession13SetLogFiltersEN7openpal10LogFiltersE
	.align 2
	.p2align 4
	.globl	_ZN8asiodnp311LinkSession12BeginReceiveEv
	.type	_ZN8asiodnp311LinkSession12BeginReceiveEv, @function
_ZN8asiodnp311LinkSession12BeginReceiveEv:
.LFB7981:
	.cfi_startproc
	pushq	%rbx
	.cfi_def_cfa_offset 16
	.cfi_offset 3, -16
	movq	%rdi, %rbx
	addq	$152, %rdi
	call	_ZNK8opendnp315LinkLayerParser9WriteBuffEv@PLT
	movq	136(%rbx), %rdi
	cmpq	$0, 40(%rdi)
	je	.L69
	cmpb	$0, 56(%rdi)
	jne	.L69
	cmpb	$0, 57(%rdi)
	jne	.L69
	movl	%eax, %esi
	movq	(%rdi), %rax
	movb	$1, 57(%rdi)
	popq	%rbx
	.cfi_remember_state
	.cfi_def_cfa_offset 8
	movq	16(%rax), %rax
	jmp	*%rax
	.p2align 4,,10
	.p2align 3
.L69:
	.cfi_restore_state
	popq	%rbx
	.cfi_def_cfa_offset 8
	ret
	.cfi_endproc
.LFE7981:
	.size	_ZN8asiodnp311LinkSession12BeginReceiveEv, .-_ZN8asiodnp311LinkSession12BeginReceiveEv
	.section	.text._ZNSt16_Sp_counted_baseILN9__gnu_cxx12_Lock_policyE2EE24_M_release_last_use_coldEv,"axG",@progbits,_ZNSt16_Sp_counted_baseILN9__gnu_cxx12_Lock_policyE2EE24_M_release_last_use_coldEv,comdat
	.align 2
	.p2align 4
	.weak	_ZNSt16_Sp_counted_baseILN9__gnu_cxx12_Lock_policyE2EE24_M_release_last_use_coldEv
	.type	_ZNSt16_Sp_counted_baseILN9__gnu_cxx12_Lock_policyE2EE24_M_release_last_use_coldEv, @function
_ZNSt16_Sp_counted_baseILN9__gnu_cxx12_Lock_policyE2EE24_M_release_last_use_coldEv:
.LFB7988:
	.cfi_startproc
	pushq	%rbx
	.cfi_def_cfa_offset 16
	.cfi_offset 3, -16
	movq	(%rdi), %rax
	movq	%rdi, %rbx
	call	*16(%rax)
	movq	__libc_single_threaded@GOTPCREL(%rip), %rax
	cmpb	$0, (%rax)
	je	.L72
	movl	12(%rbx), %eax
	leal	-1(%rax), %edx
	movl	%edx, 12(%rbx)
.L73:
	cmpl	$1, %eax
	je	.L76
	popq	%rbx
	.cfi_remember_state
	.cfi_def_cfa_offset 8
	ret
	.p2align 4,,10
	.p2align 3
.L76:
	.cfi_restore_state
	movq	(%rbx), %rax
	movq	%rbx, %rdi
	popq	%rbx
	.cfi_remember_state
	.cfi_def_cfa_offset 8
	movq	24(%rax), %rax
	jmp	*%rax
	.p2align 4,,10
	.p2align 3
.L72:
	.cfi_restore_state
	movl	$-1, %eax
	lock xaddl	%eax, 12(%rbx)
	jmp	.L73
	.cfi_endproc
.LFE7988:
	.size	_ZNSt16_Sp_counted_baseILN9__gnu_cxx12_Lock_policyE2EE24_M_release_last_use_coldEv, .-_ZNSt16_Sp_counted_baseILN9__gnu_cxx12_Lock_policyE2EE24_M_release_last_use_coldEv
	.section	.text._ZNSt16_Sp_counted_baseILN9__gnu_cxx12_Lock_policyE2EE10_M_releaseEv,"axG",@progbits,_ZNSt16_Sp_counted_baseILN9__gnu_cxx12_Lock_policyE2EE10_M_releaseEv,comdat
	.align 2
	.p2align 4
	.weak	_ZNSt16_Sp_counted_baseILN9__gnu_cxx12_Lock_policyE2EE10_M_releaseEv
	.type	_ZNSt16_Sp_counted_baseILN9__gnu_cxx12_Lock_policyE2EE10_M_releaseEv, @function
_ZNSt16_Sp_counted_baseILN9__gnu_cxx12_Lock_policyE2EE10_M_releaseEv:
.LFB1188:
	.cfi_startproc
	movabsq	$4294967297, %rax
	movq	8(%rdi), %rdx
	cmpq	%rax, %rdx
	je	.L85
	movq	__libc_single_threaded@GOTPCREL(%rip), %rax
	cmpb	$0, (%rax)
	je	.L79
	movl	8(%rdi), %eax
	leal	-1(%rax), %edx
	movl	%edx, 8(%rdi)
.L80:
	cmpl	$1, %eax
	je	.L86
	ret
	.p2align 4,,10
	.p2align 3
.L79:
	leaq	8(%rdi), %rcx
	movl	$-1, %eax
	lock xaddl	%eax, (%rcx)
	jmp	.L80
	.p2align 4,,10
	.p2align 3
.L85:
	subq	$24, %rsp
	.cfi_def_cfa_offset 32
	movq	(%rdi), %rax
	movq	$0, 8(%rdi)
	movq	%rdi, 8(%rsp)
	call	*16(%rax)
	movq	8(%rsp), %rdi
	movq	(%rdi), %rax
	movq	24(%rax), %rax
	addq	$24, %rsp
	.cfi_def_cfa_offset 8
	jmp	*%rax
	.p2align 4,,10
	.p2align 3
.L86:
	jmp	_ZNSt16_Sp_counted_baseILN9__gnu_cxx12_Lock_policyE2EE24_M_release_last_use_coldEv@PLT
	.cfi_endproc
.LFE1188:
	.size	_ZNSt16_Sp_counted_baseILN9__gnu_cxx12_Lock_policyE2EE10_M_releaseEv, .-_ZNSt16_Sp_counted_baseILN9__gnu_cxx12_Lock_policyE2EE10_M_releaseEv
	.section	.text._ZN7openpal6LoggerD2Ev,"axG",@progbits,_ZN7openpal6LoggerD5Ev,comdat
	.align 2
	.p2align 4
	.weak	_ZN7openpal6LoggerD2Ev
	.type	_ZN7openpal6LoggerD2Ev, @function
_ZN7openpal6LoggerD2Ev:
.LFB1998:
	.cfi_startproc
	subq	$24, %rsp
	.cfi_def_cfa_offset 32
	movq	%rdi, %rax
	movq	24(%rdi), %rdi
	testq	%rdi, %rdi
	je	.L89
	movq	8(%rdi), %rcx
	leaq	8(%rdi), %rsi
	movabsq	$4294967297, %rdx
	cmpq	%rdx, %rcx
	je	.L101
	movq	__libc_single_threaded@GOTPCREL(%rip), %rdx
	cmpb	$0, (%rdx)
	je	.L91
	movl	8(%rdi), %edx
	leal	-1(%rdx), %ecx
	movl	%ecx, 8(%rdi)
.L92:
	cmpl	$1, %edx
	je	.L102
.L89:
	movq	8(%rax), %rdi
	testq	%rdi, %rdi
	je	.L87
	movq	8(%rdi), %rdx
	leaq	8(%rdi), %rcx
	movabsq	$4294967297, %rax
	cmpq	%rax, %rdx
	je	.L103
	movq	__libc_single_threaded@GOTPCREL(%rip), %rax
	cmpb	$0, (%rax)
	je	.L97
	movl	8(%rdi), %eax
	leal	-1(%rax), %edx
	movl	%edx, 8(%rdi)
.L98:
	cmpl	$1, %eax
	je	.L104
.L87:
	addq	$24, %rsp
	.cfi_remember_state
	.cfi_def_cfa_offset 8
	ret
	.p2align 4,,10
	.p2align 3
.L103:
	.cfi_restore_state
	movq	(%rdi), %rax
	movq	%rdi, (%rsp)
	movq	$0, 8(%rdi)
	call	*16(%rax)
	movq	(%rsp), %rdi
	movq	(%rdi), %rax
	movq	24(%rax), %rax
	addq	$24, %rsp
	.cfi_remember_state
	.cfi_def_cfa_offset 8
	jmp	*%rax
	.p2align 4,,10
	.p2align 3
.L101:
	.cfi_restore_state
	movq	(%rdi), %rdx
	movq	%rax, 8(%rsp)
	movq	$0, 8(%rdi)
	movq	%rdi, (%rsp)
	call	*16(%rdx)
	movq	(%rsp), %rdi
	movq	(%rdi), %rdx
	call	*24(%rdx)
	movq	8(%rsp), %rax
	jmp	.L89
	.p2align 4,,10
	.p2align 3
.L97:
	movl	$-1, %eax
	lock xaddl	%eax, (%rcx)
	jmp	.L98
	.p2align 4,,10
	.p2align 3
.L91:
	movl	$-1, %edx
	lock xaddl	%edx, (%rsi)
	jmp	.L92
	.p2align 4,,10
	.p2align 3
.L102:
	movq	%rax, (%rsp)
	call	_ZNSt16_Sp_counted_baseILN9__gnu_cxx12_Lock_policyE2EE24_M_release_last_use_coldEv@PLT
	movq	(%rsp), %rax
	jmp	.L89
	.p2align 4,,10
	.p2align 3
.L104:
	addq	$24, %rsp
	.cfi_def_cfa_offset 8
	jmp	_ZNSt16_Sp_counted_baseILN9__gnu_cxx12_Lock_policyE2EE24_M_release_last_use_coldEv@PLT
	.cfi_endproc
.LFE1998:
	.size	_ZN7openpal6LoggerD2Ev, .-_ZN7openpal6LoggerD2Ev
	.weak	_ZN7openpal6LoggerD1Ev
	.set	_ZN7openpal6LoggerD1Ev,_ZN7openpal6LoggerD2Ev
	.section	.text.unlikely,"ax",@progbits
	.align 2
.LCOLDB27:
	.text
.LHOTB27:
	.align 2
	.p2align 4
	.globl	_ZN8asiodnp311LinkSessionC2ERKN7openpal6LoggerEmRKSt10shared_ptrIN7asiopal16IResourceManagerEERKS5_INS_16IListenCallbacksEERKS5_INS6_13IAsyncChannelEE
	.type	_ZN8asiodnp311LinkSessionC2ERKN7openpal6LoggerEmRKSt10shared_ptrIN7asiopal16IResourceManagerEERKS5_INS_16IListenCallbacksEERKS5_INS6_13IAsyncChannelEE, @function
_ZN8asiodnp311LinkSessionC2ERKN7openpal6LoggerEmRKSt10shared_ptrIN7asiopal16IResourceManagerEERKS5_INS_16IListenCallbacksEERKS5_INS6_13IAsyncChannelEE:
.LFB7920:
	.cfi_startproc
	.cfi_personality 0x9b,DW.ref.__gxx_personality_v0
	.cfi_lsda 0x1b,.LLSDA7920
	movq	_ZTVN8asiodnp311LinkSessionE@GOTPCREL(%rip), %rax
	pushq	%r12
	.cfi_def_cfa_offset 16
	.cfi_offset 12, -16
	pushq	%rbp
	.cfi_def_cfa_offset 24
	.cfi_offset 6, -24
	movq	%r9, %rbp
	pushq	%rbx
	.cfi_def_cfa_offset 32
	.cfi_offset 3, -32
	leaq	16(%rax), %r10
	movq	%rdi, %rbx
	movq	%rdx, %rdi
	leaq	96(%rax), %rdx
	movq	%r10, %xmm0
	movb	$0, 56(%rbx)
	movq	%rdx, %xmm1
	leaq	144(%rax), %rdx
	punpcklqdq	%xmm1, %xmm0
	movups	%xmm0, (%rbx)
	movq	%rdx, %xmm0
	leaq	184(%rax), %rdx
	addq	$224, %rax
	movups	%xmm0, 16(%rbx)
	movq	%rdx, %xmm2
	pxor	%xmm0, %xmm0
	punpcklqdq	%xmm2, %xmm0
	movq	%rax, 48(%rbx)
	movups	%xmm0, 32(%rbx)
	movdqu	(%rsi), %xmm0
	movhlps	%xmm0, %xmm3
	movups	%xmm0, 64(%rbx)
	movq	%xmm3, %rax
	testq	%rax, %rax
	je	.L106
	movq	__libc_single_threaded@GOTPCREL(%rip), %rdx
	cmpb	$0, (%rdx)
	je	.L107
	addl	$1, 8(%rax)
.L106:
	movdqu	16(%rsi), %xmm0
	movhlps	%xmm0, %xmm4
	movups	%xmm0, 80(%rbx)
	movq	%xmm4, %rax
	testq	%rax, %rax
	je	.L108
	movq	__libc_single_threaded@GOTPCREL(%rip), %rdx
	cmpb	$0, (%rdx)
	je	.L109
	addl	$1, 8(%rax)
.L108:
	movq	%rdi, 96(%rbx)
	movdqu	(%rcx), %xmm0
	movhlps	%xmm0, %xmm5
	movups	%xmm0, 104(%rbx)
	movq	%xmm5, %rax
	testq	%rax, %rax
	je	.L110
	movq	__libc_single_threaded@GOTPCREL(%rip), %rdx
	cmpb	$0, (%rdx)
	je	.L111
	addl	$1, 8(%rax)
.L110:
	movdqu	(%r8), %xmm0
	movhlps	%xmm0, %xmm6
	movups	%xmm0, 120(%rbx)
	movq	%xmm6, %rax
	testq	%rax, %rax
	je	.L112
	movq	__libc_single_threaded@GOTPCREL(%rip), %rdx
	cmpb	$0, (%rdx)
	je	.L113
	addl	$1, 8(%rax)
.L112:
	movdqu	0(%rbp), %xmm0
	movhlps	%xmm0, %xmm7
	movups	%xmm0, 136(%rbx)
	movq	%xmm7, %rax
	testq	%rax, %rax
	je	.L114
	movq	__libc_single_threaded@GOTPCREL(%rip), %rdx
	cmpb	$0, (%rdx)
	je	.L115
	addl	$1, 8(%rax)
.L114:
	leaq	152(%rbx), %rdi
.LEHB0:
	call	_ZN8opendnp315LinkLayerParserC1ERKN7openpal6LoggerE@PLT
.LEHE0:
	movq	0(%rbp), %rax
	leaq	568(%rbx), %rdi
	movq	24(%rax), %rsi
.LEHB1:
	call	_ZN7openpal8TimerRefC1ERNS_9IExecutorE@PLT
.LEHE1:
	movl	$0, 584(%rbx)
	pxor	%xmm0, %xmm0
	movups	%xmm0, 592(%rbx)
	popq	%rbx
	.cfi_remember_state
	.cfi_def_cfa_offset 24
	popq	%rbp
	.cfi_def_cfa_offset 16
	popq	%r12
	.cfi_def_cfa_offset 8
	ret
	.p2align 4,,10
	.p2align 3
.L115:
	.cfi_restore_state
	lock addl	$1, 8(%rax)
	jmp	.L114
	.p2align 4,,10
	.p2align 3
.L109:
	lock addl	$1, 8(%rax)
	jmp	.L108
	.p2align 4,,10
	.p2align 3
.L107:
	lock addl	$1, 8(%rax)
	jmp	.L106
	.p2align 4,,10
	.p2align 3
.L113:
	lock addl	$1, 8(%rax)
	jmp	.L112
	.p2align 4,,10
	.p2align 3
.L111:
	lock addl	$1, 8(%rax)
	jmp	.L110
.L127:
	movq	%rax, %rbp
	jmp	.L116
.L126:
	movq	%rax, %rbp
	jmp	.L117
	.section	.gcc_except_table,"a",@progbits
.LLSDA7920:
	.byte	0xff
	.byte	0xff
	.byte	0x1
	.uleb128 .LLSDACSE7920-.LLSDACSB7920
.LLSDACSB7920:
	.uleb128 .LEHB0-.LFB7920
	.uleb128 .LEHE0-.LEHB0
	.uleb128 .L126-.LFB7920
	.uleb128 0
	.uleb128 .LEHB1-.LFB7920
	.uleb128 .LEHE1-.LEHB1
	.uleb128 .L127-.LFB7920
	.uleb128 0
.LLSDACSE7920:
	.text
	.cfi_endproc
	.section	.text.unlikely
	.cfi_startproc
	.cfi_personality 0x9b,DW.ref.__gxx_personality_v0
	.cfi_lsda 0x1b,.LLSDAC7920
	.type	_ZN8asiodnp311LinkSessionC2ERKN7openpal6LoggerEmRKSt10shared_ptrIN7asiopal16IResourceManagerEERKS5_INS_16IListenCallbacksEERKS5_INS6_13IAsyncChannelEE.cold, @function
_ZN8asiodnp311LinkSessionC2ERKN7openpal6LoggerEmRKSt10shared_ptrIN7asiopal16IResourceManagerEERKS5_INS_16IListenCallbacksEERKS5_INS6_13IAsyncChannelEE.cold:
.LFSB7920:
.L116:
	.cfi_def_cfa_offset 32
	.cfi_offset 3, -32
	.cfi_offset 6, -24
	.cfi_offset 12, -16
	leaq	152(%rbx), %rdi
	call	_ZN7openpal6LoggerD1Ev@PLT
.L117:
	movq	144(%rbx), %rdi
	testq	%rdi, %rdi
	je	.L118
	call	_ZNSt16_Sp_counted_baseILN9__gnu_cxx12_Lock_policyE2EE10_M_releaseEv@PLT
.L118:
	movq	128(%rbx), %rdi
	testq	%rdi, %rdi
	je	.L119
	call	_ZNSt16_Sp_counted_baseILN9__gnu_cxx12_Lock_policyE2EE10_M_releaseEv@PLT
.L119:
	movq	112(%rbx), %rdi
	testq	%rdi, %rdi
	je	.L120
	call	_ZNSt16_Sp_counted_baseILN9__gnu_cxx12_Lock_policyE2EE10_M_releaseEv@PLT
.L120:
	leaq	64(%rbx), %rdi
	call	_ZN7openpal6LoggerD1Ev@PLT
	movq	32(%rbx), %rdi
	testq	%rdi, %rdi
	je	.L122
	movq	__libc_single_threaded@GOTPCREL(%rip), %rax
	cmpb	$0, (%rax)
	je	.L123
	movl	12(%rdi), %eax
	leal	-1(%rax), %edx
	movl	%edx, 12(%rdi)
.L124:
	subl	$1, %eax
	je	.L154
.L122:
	movq	%rbp, %rdi
.LEHB2:
	call	_Unwind_Resume@PLT
.LEHE2:
.L123:
	movl	$-1, %eax
	lock xaddl	%eax, 12(%rdi)
	jmp	.L124
.L154:
	movq	(%rdi), %rax
	call	*24(%rax)
	jmp	.L122
	.cfi_endproc
.LFE7920:
	.section	.gcc_except_table
.LLSDAC7920:
	.byte	0xff
	.byte	0xff
	.byte	0x1
	.uleb128 .LLSDACSEC7920-.LLSDACSBC7920
.LLSDACSBC7920:
	.uleb128 .LEHB2-.LCOLDB27
	.uleb128 .LEHE2-.LEHB2
	.uleb128 0
	.uleb128 0
.LLSDACSEC7920:
	.section	.text.unlikely
	.text
	.size	_ZN8asiodnp311LinkSessionC2ERKN7openpal6LoggerEmRKSt10shared_ptrIN7asiopal16IResourceManagerEERKS5_INS_16IListenCallbacksEERKS5_INS6_13IAsyncChannelEE, .-_ZN8asiodnp311LinkSessionC2ERKN7openpal6LoggerEmRKSt10shared_ptrIN7asiopal16IResourceManagerEERKS5_INS_16IListenCallbacksEERKS5_INS6_13IAsyncChannelEE
	.section	.text.unlikely
	.size	_ZN8asiodnp311LinkSessionC2ERKN7openpal6LoggerEmRKSt10shared_ptrIN7asiopal16IResourceManagerEERKS5_INS_16IListenCallbacksEERKS5_INS6_13IAsyncChannelEE.cold, .-_ZN8asiodnp311LinkSessionC2ERKN7openpal6LoggerEmRKSt10shared_ptrIN7asiopal16IResourceManagerEERKS5_INS_16IListenCallbacksEERKS5_INS6_13IAsyncChannelEE.cold
.LCOLDE27:
	.text
.LHOTE27:
	.globl	_ZN8asiodnp311LinkSessionC1ERKN7openpal6LoggerEmRKSt10shared_ptrIN7asiopal16IResourceManagerEERKS5_INS_16IListenCallbacksEERKS5_INS6_13IAsyncChannelEE
	.set	_ZN8asiodnp311LinkSessionC1ERKN7openpal6LoggerEmRKSt10shared_ptrIN7asiopal16IResourceManagerEERKS5_INS_16IListenCallbacksEERKS5_INS6_13IAsyncChannelEE,_ZN8asiodnp311LinkSessionC2ERKN7openpal6LoggerEmRKSt10shared_ptrIN7asiopal16IResourceManagerEERKS5_INS_16IListenCallbacksEERKS5_INS6_13IAsyncChannelEE
	.section	.rodata.str1.8,"aMS",@progbits,1
	.align 8
.LC28:
	.string	"SocketSession already has a master bound"
	.align 8
.LC29:
	.string	"/opt/PLC/OpenPLC_v3/utils/dnp3_src/cpp/libs/src/asiodnp3/LinkSession.cpp(161)"
	.section	.text.unlikely
.LCOLDB30:
	.text
.LHOTB30:
	.p2align 4
	.globl	_ZThn48_N8asiodnp311LinkSession13AcceptSessionERKNSt7__cxx1112basic_stringIcSt11char_traitsIcESaIcEEESt10shared_ptrIN8opendnp311ISOEHandlerEES9_INSA_18IMasterApplicationEERKNS_17MasterStackConfigE
	.type	_ZThn48_N8asiodnp311LinkSession13AcceptSessionERKNSt7__cxx1112basic_stringIcSt11char_traitsIcESaIcEEESt10shared_ptrIN8opendnp311ISOEHandlerEES9_INSA_18IMasterApplicationEERKNS_17MasterStackConfigE, @function
_ZThn48_N8asiodnp311LinkSession13AcceptSessionERKNSt7__cxx1112basic_stringIcSt11char_traitsIcESaIcEEESt10shared_ptrIN8opendnp311ISOEHandlerEES9_INSA_18IMasterApplicationEERKNS_17MasterStackConfigE:
.LFB10597:
	.cfi_startproc
	.cfi_personality 0x9b,DW.ref.__gxx_personality_v0
	.cfi_lsda 0x1b,.LLSDA10597
	pushq	%rbp
	.cfi_def_cfa_offset 16
	.cfi_offset 6, -16
	movq	%rsp, %rbp
	.cfi_def_cfa_register 6
	pushq	%r14
	.cfi_offset 14, -24
	movq	%rdi, %r14
	pushq	%r12
	pushq	%rbx
	.cfi_offset 12, -32
	.cfi_offset 3, -40
	movq	%rsi, %rbx
	subq	$56, %rsp
	cmpq	$0, 544(%rsi)
	je	.L156
	leaq	-48(%rbp), %rsi
	leaq	16(%rbx), %rdi
	movl	$2, -48(%rbp)
.LEHB3:
	call	_ZNK7openpal6Logger9IsEnabledERKNS_10LogFiltersE@PLT
	testb	%al, %al
	jne	.L201
.L157:
	pxor	%xmm0, %xmm0
	movups	%xmm0, (%r14)
.L155:
	leaq	-24(%rbp), %rsp
	movq	%r14, %rax
	popq	%rbx
	popq	%r12
	popq	%r14
	popq	%rbp
	.cfi_remember_state
	.cfi_def_cfa 7, 8
	ret
	.p2align 4,,10
	.p2align 3
.L201:
	.cfi_restore_state
	leaq	-48(%rbp), %rsi
	leaq	16(%rbx), %rdi
	movl	$2, -48(%rbp)
	leaq	.LC28(%rip), %rcx
	leaq	.LC29(%rip), %rdx
	call	_ZN7openpal6Logger3LogERKNS_10LogFiltersEPKcS5_@PLT
	jmp	.L157
	.p2align 4,,10
	.p2align 3
.L156:
	movq	32(%rsi), %rdi
	movq	%rdx, %rsi
	movq	%r8, -80(%rbp)
	movq	%r9, %r12
	movq	%rcx, -72(%rbp)
	call	_ZNSt7__cxx1112basic_stringIcSt11char_traitsIcESaIcEE9_M_assignERKS4_@PLT
.LEHE3:
	movq	-16(%rbx), %rax
	movq	%rax, -56(%rbp)
	testq	%rax, %rax
	je	.L160
	movq	-72(%rbp), %rcx
	movq	-80(%rbp), %r8
	leaq	8(%rax), %rdx
	movl	8(%rax), %eax
.L162:
	testl	%eax, %eax
	je	.L160
	leal	1(%rax), %esi
	lock cmpxchgl	%esi, (%rdx)
	jne	.L162
	movq	-24(%rbx), %rax
	leaq	-48(%rbp), %rdi
	leaq	16(%rbx), %rsi
	leaq	-64(%rbp), %r9
	movq	%rax, -64(%rbp)
	movq	88(%rbx), %rax
	pushq	%r12
	leaq	24(%rax), %rdx
	leaq	-48(%rbx), %rax
	pushq	%rax
.LEHB4:
	.cfi_escape 0x2e,0x10
	call	_ZN8asiodnp318MasterSessionStack6CreateERKN7openpal6LoggerERKSt10shared_ptrIN7asiopal8ExecutorEERKS5_IN8opendnp311ISOEHandlerEERKS5_INSB_18IMasterApplicationEERKS5_INS_11LinkSessionEERNSB_7ILinkTxERKNS_17MasterStackConfigE@PLT
.LEHE4:
	movdqa	-48(%rbp), %xmm0
	movq	552(%rbx), %r12
	pxor	%xmm1, %xmm1
	popq	%rax
	popq	%rdx
	movaps	%xmm1, -48(%rbp)
	movups	%xmm0, 544(%rbx)
	testq	%r12, %r12
	je	.L164
	movq	8(%r12), %rdx
	leaq	8(%r12), %rcx
	movabsq	$4294967297, %rax
	cmpq	%rax, %rdx
	je	.L202
	movq	__libc_single_threaded@GOTPCREL(%rip), %rax
	cmpb	$0, (%rax)
	je	.L167
	movl	8(%r12), %eax
	leal	-1(%rax), %edx
	movl	%edx, 8(%r12)
.L168:
	cmpl	$1, %eax
	je	.L203
.L166:
	movq	-40(%rbp), %r12
	testq	%r12, %r12
	je	.L164
	movq	8(%r12), %rdx
	leaq	8(%r12), %rcx
	movabsq	$4294967297, %rax
	cmpq	%rax, %rdx
	je	.L204
	movq	__libc_single_threaded@GOTPCREL(%rip), %rax
	cmpb	$0, (%rax)
	je	.L171
	movl	8(%r12), %eax
	leal	-1(%rax), %edx
	movl	%edx, 8(%r12)
.L172:
	cmpl	$1, %eax
	je	.L205
.L164:
	movq	-56(%rbp), %r12
	testq	%r12, %r12
	je	.L174
	movq	8(%r12), %rdx
	leaq	8(%r12), %rcx
	movabsq	$4294967297, %rax
	cmpq	%rax, %rdx
	je	.L206
	movq	__libc_single_threaded@GOTPCREL(%rip), %rax
	cmpb	$0, (%rax)
	je	.L176
	movl	8(%r12), %eax
	leal	-1(%rax), %edx
	movl	%edx, 8(%r12)
.L177:
	cmpl	$1, %eax
	je	.L207
.L174:
	movdqu	544(%rbx), %xmm0
	movhlps	%xmm0, %xmm2
	movups	%xmm0, (%r14)
	movq	%xmm2, %rax
	testq	%rax, %rax
	je	.L155
	movq	__libc_single_threaded@GOTPCREL(%rip), %rdx
	cmpb	$0, (%rdx)
	je	.L179
	addl	$1, 8(%rax)
	leaq	-24(%rbp), %rsp
	movq	%r14, %rax
	popq	%rbx
	popq	%r12
	popq	%r14
	popq	%rbp
	.cfi_remember_state
	.cfi_def_cfa 7, 8
	ret
	.p2align 4,,10
	.p2align 3
.L179:
	.cfi_restore_state
	lock addl	$1, 8(%rax)
	jmp	.L155
	.p2align 4,,10
	.p2align 3
.L205:
	movq	%r12, %rdi
	call	_ZNSt16_Sp_counted_baseILN9__gnu_cxx12_Lock_policyE2EE24_M_release_last_use_coldEv@PLT
	jmp	.L164
	.p2align 4,,10
	.p2align 3
.L207:
	movq	%r12, %rdi
	call	_ZNSt16_Sp_counted_baseILN9__gnu_cxx12_Lock_policyE2EE24_M_release_last_use_coldEv@PLT
	jmp	.L174
	.p2align 4,,10
	.p2align 3
.L171:
	movl	$-1, %eax
	lock xaddl	%eax, (%rcx)
	jmp	.L172
	.p2align 4,,10
	.p2align 3
.L167:
	movl	$-1, %eax
	lock xaddl	%eax, (%rcx)
	jmp	.L168
	.p2align 4,,10
	.p2align 3
.L176:
	movl	$-1, %eax
	lock xaddl	%eax, (%rcx)
	jmp	.L177
	.p2align 4,,10
	.p2align 3
.L202:
	movq	$0, 8(%r12)
	movq	(%r12), %rax
	movq	%r12, %rdi
	call	*16(%rax)
	movq	(%r12), %rax
	movq	%r12, %rdi
	call	*24(%rax)
	jmp	.L166
	.p2align 4,,10
	.p2align 3
.L204:
	movq	$0, 8(%r12)
	movq	(%r12), %rax
	movq	%r12, %rdi
	call	*16(%rax)
	movq	(%r12), %rax
	movq	%r12, %rdi
	call	*24(%rax)
	jmp	.L164
	.p2align 4,,10
	.p2align 3
.L206:
	movq	$0, 8(%r12)
	movq	(%r12), %rax
	movq	%r12, %rdi
	call	*16(%rax)
	movq	(%r12), %rax
	movq	%r12, %rdi
	call	*24(%rax)
	jmp	.L174
	.p2align 4,,10
	.p2align 3
.L203:
	movq	%r12, %rdi
	call	_ZNSt16_Sp_counted_baseILN9__gnu_cxx12_Lock_policyE2EE24_M_release_last_use_coldEv@PLT
	jmp	.L166
.L183:
	movq	%rax, %rbx
	jmp	.L180
	.section	.gcc_except_table
.LLSDA10597:
	.byte	0xff
	.byte	0xff
	.byte	0x1
	.uleb128 .LLSDACSE10597-.LLSDACSB10597
.LLSDACSB10597:
	.uleb128 .LEHB3-.LFB10597
	.uleb128 .LEHE3-.LEHB3
	.uleb128 0
	.uleb128 0
	.uleb128 .LEHB4-.LFB10597
	.uleb128 .LEHE4-.LEHB4
	.uleb128 .L183-.LFB10597
	.uleb128 0
.LLSDACSE10597:
	.text
	.cfi_endproc
	.section	.text.unlikely
	.cfi_startproc
	.cfi_personality 0x9b,DW.ref.__gxx_personality_v0
	.cfi_lsda 0x1b,.LLSDAC10597
	.type	_ZThn48_N8asiodnp311LinkSession13AcceptSessionERKNSt7__cxx1112basic_stringIcSt11char_traitsIcESaIcEEESt10shared_ptrIN8opendnp311ISOEHandlerEES9_INSA_18IMasterApplicationEERKNS_17MasterStackConfigE.cold, @function
_ZThn48_N8asiodnp311LinkSession13AcceptSessionERKNSt7__cxx1112basic_stringIcSt11char_traitsIcESaIcEEESt10shared_ptrIN8opendnp311ISOEHandlerEES9_INSA_18IMasterApplicationEERKNS_17MasterStackConfigE.cold:
.LFSB10597:
.L160:
	.cfi_def_cfa 6, 16
	.cfi_offset 3, -40
	.cfi_offset 6, -16
	.cfi_offset 12, -32
	.cfi_offset 14, -24
	movl	$8, %edi
	call	__cxa_allocate_exception@PLT
	movq	_ZTVSt12bad_weak_ptr@GOTPCREL(%rip), %rdx
	movq	_ZTISt12bad_weak_ptr@GOTPCREL(%rip), %rsi
	movq	%rax, %rdi
	addq	$16, %rdx
	movq	%rdx, (%rax)
	movq	_ZNSt12bad_weak_ptrD1Ev@GOTPCREL(%rip), %rdx
.LEHB5:
	call	__cxa_throw@PLT
.L180:
	movq	-56(%rbp), %rdi
	testq	%rdi, %rdi
	je	.L181
	call	_ZNSt16_Sp_counted_baseILN9__gnu_cxx12_Lock_policyE2EE10_M_releaseEv@PLT
.L181:
	movq	%rbx, %rdi
	call	_Unwind_Resume@PLT
.LEHE5:
	.cfi_endproc
.LFE10597:
	.section	.gcc_except_table
.LLSDAC10597:
	.byte	0xff
	.byte	0xff
	.byte	0x1
	.uleb128 .LLSDACSEC10597-.LLSDACSBC10597
.LLSDACSBC10597:
	.uleb128 .LEHB5-.LCOLDB30
	.uleb128 .LEHE5-.LEHB5
	.uleb128 0
	.uleb128 0
.LLSDACSEC10597:
	.section	.text.unlikely
	.text
	.size	_ZThn48_N8asiodnp311LinkSession13AcceptSessionERKNSt7__cxx1112basic_stringIcSt11char_traitsIcESaIcEEESt10shared_ptrIN8opendnp311ISOEHandlerEES9_INSA_18IMasterApplicationEERKNS_17MasterStackConfigE, .-_ZThn48_N8asiodnp311LinkSession13AcceptSessionERKNSt7__cxx1112basic_stringIcSt11char_traitsIcESaIcEEESt10shared_ptrIN8opendnp311ISOEHandlerEES9_INSA_18IMasterApplicationEERKNS_17MasterStackConfigE
	.section	.text.unlikely
	.size	_ZThn48_N8asiodnp311LinkSession13AcceptSessionERKNSt7__cxx1112basic_stringIcSt11char_traitsIcESaIcEEESt10shared_ptrIN8opendnp311ISOEHandlerEES9_INSA_18IMasterApplicationEERKNS_17MasterStackConfigE.cold, .-_ZThn48_N8asiodnp311LinkSession13AcceptSessionERKNSt7__cxx1112basic_stringIcSt11char_traitsIcESaIcEEESt10shared_ptrIN8opendnp311ISOEHandlerEES9_INSA_18IMasterApplicationEERKNS_17MasterStackConfigE.cold
.LCOLDE30:
	.text
.LHOTE30:
	.section	.text.unlikely
	.align 2
.LCOLDB32:
	.text
.LHOTB32:
	.align 2
	.p2align 4
	.globl	_ZN8asiodnp311LinkSession8ShutdownEv
	.type	_ZN8asiodnp311LinkSession8ShutdownEv, @function
_ZN8asiodnp311LinkSession8ShutdownEv:
.LFB7922:
	.cfi_startproc
	.cfi_personality 0x9b,DW.ref.__gxx_personality_v0
	.cfi_lsda 0x1b,.LLSDA7922
	pushq	%r13
	.cfi_def_cfa_offset 16
	.cfi_offset 13, -16
	pushq	%r12
	.cfi_def_cfa_offset 24
	.cfi_offset 12, -24
	pushq	%rbp
	.cfi_def_cfa_offset 32
	.cfi_offset 6, -32
	pushq	%rbx
	.cfi_def_cfa_offset 40
	.cfi_offset 3, -40
	subq	$56, %rsp
	.cfi_def_cfa_offset 96
	movq	32(%rdi), %rbx
	testq	%rbx, %rbx
	je	.L210
	movl	8(%rbx), %eax
	leaq	8(%rbx), %rbp
.L212:
	testl	%eax, %eax
	je	.L210
	leal	1(%rax), %edx
	lock cmpxchgl	%edx, 0(%rbp)
	jne	.L212
	movq	24(%rdi), %xmm0
	movq	136(%rdi), %rax
	pxor	%xmm1, %xmm1
	movl	$16, %edi
	movaps	%xmm1, 16(%rsp)
	movq	24(%rax), %r13
	movq	%xmm0, 8(%rsp)
	movq	$0, 32(%rsp)
	movq	$0, 40(%rsp)
.LEHB6:
	call	_Znwm@PLT
.LEHE6:
	movq	8(%rsp), %xmm0
	movq	%rbx, %xmm3
	movq	__libc_single_threaded@GOTPCREL(%rip), %rcx
	punpcklqdq	%xmm3, %xmm0
	movups	%xmm0, (%rax)
	cmpb	$0, (%rcx)
	je	.L237
	addl	$1, 8(%rbx)
.L214:
	movq	%rax, 16(%rsp)
	leaq	_ZNSt17_Function_handlerIFvvEZN8asiodnp311LinkSession8ShutdownEvEUlvE_E9_M_invokeERKSt9_Any_data(%rip), %rax
	leaq	16(%rsp), %rsi
	movq	%r13, %rdi
	movq	.LC31(%rip), %xmm0
	movq	%rax, %xmm2
	punpcklqdq	%xmm2, %xmm0
	movaps	%xmm0, 32(%rsp)
.LEHB7:
	call	_ZN7asiopal8Executor18BlockUntilAndFlushERKSt8functionIFvvEE@PLT
.LEHE7:
	movq	32(%rsp), %rax
	testq	%rax, %rax
	je	.L215
	movl	$3, %edx
	leaq	16(%rsp), %rsi
	leaq	16(%rsp), %rdi
	call	*%rax
.L215:
	movabsq	$4294967297, %rax
	movq	8(%rbx), %rdx
	cmpq	%rax, %rdx
	je	.L238
	movq	__libc_single_threaded@GOTPCREL(%rip), %rax
	cmpb	$0, (%rax)
	je	.L217
	movl	8(%rbx), %eax
	leal	-1(%rax), %edx
	movl	%edx, 8(%rbx)
.L218:
	cmpl	$1, %eax
	je	.L239
	addq	$56, %rsp
	.cfi_remember_state
	.cfi_def_cfa_offset 40
	popq	%rbx
	.cfi_def_cfa_offset 32
	popq	%rbp
	.cfi_def_cfa_offset 24
	popq	%r12
	.cfi_def_cfa_offset 16
	popq	%r13
	.cfi_def_cfa_offset 8
	ret
	.p2align 4,,10
	.p2align 3
.L237:
	.cfi_restore_state
	lock addl	$1, 8(%rbx)
	jmp	.L214
	.p2align 4,,10
	.p2align 3
.L217:
	movl	$-1, %eax
	lock xaddl	%eax, 0(%rbp)
	jmp	.L218
	.p2align 4,,10
	.p2align 3
.L238:
	movq	(%rbx), %rax
	movq	%rbx, %rdi
	movq	$0, 8(%rbx)
	call	*16(%rax)
	movq	(%rbx), %rax
	movq	%rbx, %rdi
	movq	24(%rax), %rax
	addq	$56, %rsp
	.cfi_remember_state
	.cfi_def_cfa_offset 40
	popq	%rbx
	.cfi_def_cfa_offset 32
	popq	%rbp
	.cfi_def_cfa_offset 24
	popq	%r12
	.cfi_def_cfa_offset 16
	popq	%r13
	.cfi_def_cfa_offset 8
.LEHB8:
	jmp	*%rax
	.p2align 4,,10
	.p2align 3
.L239:
	.cfi_restore_state
	addq	$56, %rsp
	.cfi_remember_state
	.cfi_def_cfa_offset 40
	movq	%rbx, %rdi
	popq	%rbx
	.cfi_def_cfa_offset 32
	popq	%rbp
	.cfi_def_cfa_offset 24
	popq	%r12
	.cfi_def_cfa_offset 16
	popq	%r13
	.cfi_def_cfa_offset 8
	jmp	_ZNSt16_Sp_counted_baseILN9__gnu_cxx12_Lock_policyE2EE24_M_release_last_use_coldEv@PLT
.LEHE8:
.L224:
	.cfi_restore_state
	movq	%rax, %rbp
	jmp	.L222
.L225:
	movq	%rax, %rbp
	jmp	.L220
	.section	.gcc_except_table
.LLSDA7922:
	.byte	0xff
	.byte	0xff
	.byte	0x1
	.uleb128 .LLSDACSE7922-.LLSDACSB7922
.LLSDACSB7922:
	.uleb128 .LEHB6-.LFB7922
	.uleb128 .LEHE6-.LEHB6
	.uleb128 .L224-.LFB7922
	.uleb128 0
	.uleb128 .LEHB7-.LFB7922
	.uleb128 .LEHE7-.LEHB7
	.uleb128 .L225-.LFB7922
	.uleb128 0
	.uleb128 .LEHB8-.LFB7922
	.uleb128 .LEHE8-.LEHB8
	.uleb128 0
	.uleb128 0
.LLSDACSE7922:
	.text
	.cfi_endproc
	.section	.text.unlikely
	.cfi_startproc
	.cfi_personality 0x9b,DW.ref.__gxx_personality_v0
	.cfi_lsda 0x1b,.LLSDAC7922
	.type	_ZN8asiodnp311LinkSession8ShutdownEv.cold, @function
_ZN8asiodnp311LinkSession8ShutdownEv.cold:
.LFSB7922:
.L210:
	.cfi_def_cfa_offset 96
	.cfi_offset 3, -40
	.cfi_offset 6, -32
	.cfi_offset 12, -24
	.cfi_offset 13, -16
	movl	$8, %edi
	call	__cxa_allocate_exception@PLT
	movq	_ZTVSt12bad_weak_ptr@GOTPCREL(%rip), %rdx
	movq	_ZTISt12bad_weak_ptr@GOTPCREL(%rip), %rsi
	movq	%rax, %rdi
	addq	$16, %rdx
	movq	%rdx, (%rax)
	movq	_ZNSt12bad_weak_ptrD1Ev@GOTPCREL(%rip), %rdx
.LEHB9:
	call	__cxa_throw@PLT
.LEHE9:
.L220:
	movq	32(%rsp), %rax
	testq	%rax, %rax
	je	.L222
	movl	$3, %edx
	leaq	16(%rsp), %rsi
	leaq	16(%rsp), %rdi
	call	*%rax
.L222:
	movq	%rbx, %rdi
	call	_ZNSt16_Sp_counted_baseILN9__gnu_cxx12_Lock_policyE2EE10_M_releaseEv@PLT
	movq	%rbp, %rdi
.LEHB10:
	call	_Unwind_Resume@PLT
.LEHE10:
	.cfi_endproc
.LFE7922:
	.section	.gcc_except_table
.LLSDAC7922:
	.byte	0xff
	.byte	0xff
	.byte	0x1
	.uleb128 .LLSDACSEC7922-.LLSDACSBC7922
.LLSDACSBC7922:
	.uleb128 .LEHB9-.LCOLDB32
	.uleb128 .LEHE9-.LEHB9
	.uleb128 0
	.uleb128 0
	.uleb128 .LEHB10-.LCOLDB32
	.uleb128 .LEHE10-.LEHB10
	.uleb128 0
	.uleb128 0
.LLSDACSEC7922:
	.section	.text.unlikely
	.text
	.size	_ZN8asiodnp311LinkSession8ShutdownEv, .-_ZN8asiodnp311LinkSession8ShutdownEv
	.section	.text.unlikely
	.size	_ZN8asiodnp311LinkSession8ShutdownEv.cold, .-_ZN8asiodnp311LinkSession8ShutdownEv.cold
.LCOLDE32:
	.text
.LHOTE32:
	.set	.LTHUNK2,_ZN8asiodnp311LinkSession8ShutdownEv
	.p2align 4
	.globl	_ZThn40_N8asiodnp311LinkSession8ShutdownEv
	.type	_ZThn40_N8asiodnp311LinkSession8ShutdownEv, @function
_ZThn40_N8asiodnp311LinkSession8ShutdownEv:
.LFB10606:
	.cfi_startproc
	subq	$40, %rdi
	jmp	.LTHUNK2
	.cfi_endproc
.LFE10606:
	.size	_ZThn40_N8asiodnp311LinkSession8ShutdownEv, .-_ZThn40_N8asiodnp311LinkSession8ShutdownEv
	.section	.text._ZN8asiodnp311LinkSessionD2Ev,"axG",@progbits,_ZN8asiodnp311LinkSessionD5Ev,comdat
	.p2align 4
	.weak	_ZThn8_N8asiodnp311LinkSessionD1Ev
	.type	_ZThn8_N8asiodnp311LinkSessionD1Ev, @function
_ZThn8_N8asiodnp311LinkSessionD1Ev:
.LFB10593:
	.cfi_startproc
	pushq	%rbx
	.cfi_def_cfa_offset 16
	.cfi_offset 3, -16
	movq	%rdi, %rbx
	subq	$16, %rsp
	.cfi_def_cfa_offset 32
	movq	_ZTVN8asiodnp311LinkSessionE@GOTPCREL(%rip), %rax
	leaq	96(%rax), %rdx
	leaq	16(%rax), %rsi
	movq	%rdx, %xmm1
	movq	%rsi, %xmm0
	leaq	144(%rax), %rdx
	movq	%rdx, 8(%rdi)
	punpcklqdq	%xmm1, %xmm0
	leaq	224(%rax), %rdx
	addq	$184, %rax
	movups	%xmm0, -8(%rdi)
	movq	%rdx, %xmm2
	movq	%rax, %xmm0
	punpcklqdq	%xmm2, %xmm0
	movups	%xmm0, 32(%rdi)
	movq	592(%rdi), %rdi
	testq	%rdi, %rdi
	je	.L242
	movq	8(%rdi), %rdx
	leaq	8(%rdi), %rcx
	movabsq	$4294967297, %rax
	cmpq	%rax, %rdx
	je	.L295
	movq	__libc_single_threaded@GOTPCREL(%rip), %rax
	cmpb	$0, (%rax)
	je	.L244
	movl	8(%rdi), %eax
	leal	-1(%rax), %edx
	movl	%edx, 8(%rdi)
.L245:
	cmpl	$1, %eax
	je	.L296
.L242:
	leaq	560(%rbx), %rdi
	call	_ZN7openpal8TimerRefD1Ev@PLT
	movq	168(%rbx), %rdi
	testq	%rdi, %rdi
	je	.L248
	movq	8(%rdi), %rdx
	leaq	8(%rdi), %rcx
	movabsq	$4294967297, %rax
	cmpq	%rax, %rdx
	je	.L297
	movq	__libc_single_threaded@GOTPCREL(%rip), %rax
	cmpb	$0, (%rax)
	je	.L250
	movl	8(%rdi), %eax
	leal	-1(%rax), %edx
	movl	%edx, 8(%rdi)
.L251:
	cmpl	$1, %eax
	je	.L298
.L248:
	movq	152(%rbx), %rdi
	testq	%rdi, %rdi
	je	.L254
	movq	8(%rdi), %rdx
	leaq	8(%rdi), %rcx
	movabsq	$4294967297, %rax
	cmpq	%rax, %rdx
	je	.L299
	movq	__libc_single_threaded@GOTPCREL(%rip), %rax
	cmpb	$0, (%rax)
	je	.L256
	movl	8(%rdi), %eax
	leal	-1(%rax), %edx
	movl	%edx, 8(%rdi)
.L257:
	cmpl	$1, %eax
	je	.L300
.L254:
	movq	136(%rbx), %rdi
	testq	%rdi, %rdi
	je	.L260
	movq	8(%rdi), %rdx
	leaq	8(%rdi), %rcx
	movabsq	$4294967297, %rax
	cmpq	%rax, %rdx
	je	.L301
	movq	__libc_single_threaded@GOTPCREL(%rip), %rax
	cmpb	$0, (%rax)
	je	.L262
	movl	8(%rdi), %eax
	leal	-1(%rax), %edx
	movl	%edx, 8(%rdi)
.L263:
	cmpl	$1, %eax
	je	.L302
.L260:
	movq	120(%rbx), %rdi
	testq	%rdi, %rdi
	je	.L266
	movq	8(%rdi), %rdx
	leaq	8(%rdi), %rcx
	movabsq	$4294967297, %rax
	cmpq	%rax, %rdx
	je	.L303
	movq	__libc_single_threaded@GOTPCREL(%rip), %rax
	cmpb	$0, (%rax)
	je	.L268
	movl	8(%rdi), %eax
	leal	-1(%rax), %edx
	movl	%edx, 8(%rdi)
.L269:
	cmpl	$1, %eax
	je	.L304
.L266:
	movq	104(%rbx), %rdi
	testq	%rdi, %rdi
	je	.L272
	movq	8(%rdi), %rdx
	leaq	8(%rdi), %rcx
	movabsq	$4294967297, %rax
	cmpq	%rax, %rdx
	je	.L305
	movq	__libc_single_threaded@GOTPCREL(%rip), %rax
	cmpb	$0, (%rax)
	je	.L274
	movl	8(%rdi), %eax
	leal	-1(%rax), %edx
	movl	%edx, 8(%rdi)
.L275:
	cmpl	$1, %eax
	je	.L306
.L272:
	movq	80(%rbx), %rdi
	testq	%rdi, %rdi
	je	.L278
	movq	8(%rdi), %rdx
	leaq	8(%rdi), %rcx
	movabsq	$4294967297, %rax
	cmpq	%rax, %rdx
	je	.L307
	movq	__libc_single_threaded@GOTPCREL(%rip), %rax
	cmpb	$0, (%rax)
	je	.L280
	movl	8(%rdi), %eax
	leal	-1(%rax), %edx
	movl	%edx, 8(%rdi)
.L281:
	cmpl	$1, %eax
	je	.L308
.L278:
	movq	64(%rbx), %rdi
	testq	%rdi, %rdi
	je	.L284
	movq	8(%rdi), %rdx
	leaq	8(%rdi), %rcx
	movabsq	$4294967297, %rax
	cmpq	%rax, %rdx
	je	.L309
	movq	__libc_single_threaded@GOTPCREL(%rip), %rax
	cmpb	$0, (%rax)
	je	.L286
	movl	8(%rdi), %eax
	leal	-1(%rax), %edx
	movl	%edx, 8(%rdi)
.L287:
	cmpl	$1, %eax
	je	.L310
.L284:
	movq	24(%rbx), %rdi
	testq	%rdi, %rdi
	je	.L240
	movq	__libc_single_threaded@GOTPCREL(%rip), %rax
	cmpb	$0, (%rax)
	je	.L291
	movl	12(%rdi), %eax
	leal	-1(%rax), %edx
	movl	%edx, 12(%rdi)
.L292:
	cmpl	$1, %eax
	je	.L311
.L240:
	addq	$16, %rsp
	.cfi_remember_state
	.cfi_def_cfa_offset 16
	popq	%rbx
	.cfi_def_cfa_offset 8
	ret
	.p2align 4,,10
	.p2align 3
.L311:
	.cfi_restore_state
	movq	(%rdi), %rax
	movq	24(%rax), %rax
	addq	$16, %rsp
	.cfi_remember_state
	.cfi_def_cfa_offset 16
	popq	%rbx
	.cfi_def_cfa_offset 8
	jmp	*%rax
	.p2align 4,,10
	.p2align 3
.L291:
	.cfi_restore_state
	movl	$-1, %eax
	lock xaddl	%eax, 12(%rdi)
	jmp	.L292
	.p2align 4,,10
	.p2align 3
.L301:
	movq	(%rdi), %rax
	movq	%rdi, 8(%rsp)
	movq	$0, 8(%rdi)
	call	*16(%rax)
	movq	8(%rsp), %rdi
	movq	(%rdi), %rax
	call	*24(%rax)
	jmp	.L260
	.p2align 4,,10
	.p2align 3
.L297:
	movq	(%rdi), %rax
	movq	%rdi, 8(%rsp)
	movq	$0, 8(%rdi)
	call	*16(%rax)
	movq	8(%rsp), %rdi
	movq	(%rdi), %rax
	call	*24(%rax)
	jmp	.L248
	.p2align 4,,10
	.p2align 3
.L299:
	movq	(%rdi), %rax
	movq	%rdi, 8(%rsp)
	movq	$0, 8(%rdi)
	call	*16(%rax)
	movq	8(%rsp), %rdi
	movq	(%rdi), %rax
	call	*24(%rax)
	jmp	.L254
	.p2align 4,,10
	.p2align 3
.L305:
	movq	(%rdi), %rax
	movq	%rdi, 8(%rsp)
	movq	$0, 8(%rdi)
	call	*16(%rax)
	movq	8(%rsp), %rdi
	movq	(%rdi), %rax
	call	*24(%rax)
	jmp	.L272
	.p2align 4,,10
	.p2align 3
.L307:
	movq	(%rdi), %rax
	movq	%rdi, 8(%rsp)
	movq	$0, 8(%rdi)
	call	*16(%rax)
	movq	8(%rsp), %rdi
	movq	(%rdi), %rax
	call	*24(%rax)
	jmp	.L278
	.p2align 4,,10
	.p2align 3
.L309:
	movq	(%rdi), %rax
	movq	%rdi, 8(%rsp)
	movq	$0, 8(%rdi)
	call	*16(%rax)
	movq	8(%rsp), %rdi
	movq	(%rdi), %rax
	call	*24(%rax)
	jmp	.L284
	.p2align 4,,10
	.p2align 3
.L295:
	movq	(%rdi), %rax
	movq	%rdi, 8(%rsp)
	movq	$0, 8(%rdi)
	call	*16(%rax)
	movq	8(%rsp), %rdi
	movq	(%rdi), %rax
	call	*24(%rax)
	jmp	.L242
	.p2align 4,,10
	.p2align 3
.L303:
	movq	(%rdi), %rax
	movq	%rdi, 8(%rsp)
	movq	$0, 8(%rdi)
	call	*16(%rax)
	movq	8(%rsp), %rdi
	movq	(%rdi), %rax
	call	*24(%rax)
	jmp	.L266
	.p2align 4,,10
	.p2align 3
.L256:
	movl	$-1, %eax
	lock xaddl	%eax, (%rcx)
	jmp	.L257
	.p2align 4,,10
	.p2align 3
.L262:
	movl	$-1, %eax
	lock xaddl	%eax, (%rcx)
	jmp	.L263
	.p2align 4,,10
	.p2align 3
.L244:
	movl	$-1, %eax
	lock xaddl	%eax, (%rcx)
	jmp	.L245
	.p2align 4,,10
	.p2align 3
.L250:
	movl	$-1, %eax
	lock xaddl	%eax, (%rcx)
	jmp	.L251
	.p2align 4,,10
	.p2align 3
.L268:
	movl	$-1, %eax
	lock xaddl	%eax, (%rcx)
	jmp	.L269
	.p2align 4,,10
	.p2align 3
.L274:
	movl	$-1, %eax
	lock xaddl	%eax, (%rcx)
	jmp	.L275
	.p2align 4,,10
	.p2align 3
.L286:
	movl	$-1, %eax
	lock xaddl	%eax, (%rcx)
	jmp	.L287
	.p2align 4,,10
	.p2align 3
.L280:
	movl	$-1, %eax
	lock xaddl	%eax, (%rcx)
	jmp	.L281
	.p2align 4,,10
	.p2align 3
.L296:
	call	_ZNSt16_Sp_counted_baseILN9__gnu_cxx12_Lock_policyE2EE24_M_release_last_use_coldEv@PLT
	jmp	.L242
	.p2align 4,,10
	.p2align 3
.L304:
	call	_ZNSt16_Sp_counted_baseILN9__gnu_cxx12_Lock_policyE2EE24_M_release_last_use_coldEv@PLT
	jmp	.L266
	.p2align 4,,10
	.p2align 3
.L302:
	call	_ZNSt16_Sp_counted_baseILN9__gnu_cxx12_Lock_policyE2EE24_M_release_last_use_coldEv@PLT
	jmp	.L260
	.p2align 4,,10
	.p2align 3
.L300:
	call	_ZNSt16_Sp_counted_baseILN9__gnu_cxx12_Lock_policyE2EE24_M_release_last_use_coldEv@PLT
	jmp	.L254
	.p2align 4,,10
	.p2align 3
.L298:
	call	_ZNSt16_Sp_counted_baseILN9__gnu_cxx12_Lock_policyE2EE24_M_release_last_use_coldEv@PLT
	jmp	.L248
	.p2align 4,,10
	.p2align 3
.L308:
	call	_ZNSt16_Sp_counted_baseILN9__gnu_cxx12_Lock_policyE2EE24_M_release_last_use_coldEv@PLT
	jmp	.L278
	.p2align 4,,10
	.p2align 3
.L306:
	call	_ZNSt16_Sp_counted_baseILN9__gnu_cxx12_Lock_policyE2EE24_M_release_last_use_coldEv@PLT
	jmp	.L272
	.p2align 4,,10
	.p2align 3
.L310:
	call	_ZNSt16_Sp_counted_baseILN9__gnu_cxx12_Lock_policyE2EE24_M_release_last_use_coldEv@PLT
	jmp	.L284
	.cfi_endproc
.LFE10593:
	.size	_ZThn8_N8asiodnp311LinkSessionD1Ev, .-_ZThn8_N8asiodnp311LinkSessionD1Ev
	.p2align 4
	.weak	_ZThn16_N8asiodnp311LinkSessionD1Ev
	.type	_ZThn16_N8asiodnp311LinkSessionD1Ev, @function
_ZThn16_N8asiodnp311LinkSessionD1Ev:
.LFB10594:
	.cfi_startproc
	pushq	%rbx
	.cfi_def_cfa_offset 16
	.cfi_offset 3, -16
	movq	%rdi, %rbx
	subq	$16, %rsp
	.cfi_def_cfa_offset 32
	movq	_ZTVN8asiodnp311LinkSessionE@GOTPCREL(%rip), %rax
	leaq	96(%rax), %rdx
	leaq	16(%rax), %rsi
	movq	%rdx, %xmm1
	movq	%rsi, %xmm0
	leaq	144(%rax), %rdx
	movq	%rdx, (%rdi)
	punpcklqdq	%xmm1, %xmm0
	leaq	224(%rax), %rdx
	addq	$184, %rax
	movups	%xmm0, -16(%rdi)
	movq	%rdx, %xmm2
	movq	%rax, %xmm0
	punpcklqdq	%xmm2, %xmm0
	movups	%xmm0, 24(%rdi)
	movq	584(%rdi), %rdi
	testq	%rdi, %rdi
	je	.L314
	movq	8(%rdi), %rdx
	leaq	8(%rdi), %rcx
	movabsq	$4294967297, %rax
	cmpq	%rax, %rdx
	je	.L367
	movq	__libc_single_threaded@GOTPCREL(%rip), %rax
	cmpb	$0, (%rax)
	je	.L316
	movl	8(%rdi), %eax
	leal	-1(%rax), %edx
	movl	%edx, 8(%rdi)
.L317:
	cmpl	$1, %eax
	je	.L368
.L314:
	leaq	552(%rbx), %rdi
	call	_ZN7openpal8TimerRefD1Ev@PLT
	movq	160(%rbx), %rdi
	testq	%rdi, %rdi
	je	.L320
	movq	8(%rdi), %rdx
	leaq	8(%rdi), %rcx
	movabsq	$4294967297, %rax
	cmpq	%rax, %rdx
	je	.L369
	movq	__libc_single_threaded@GOTPCREL(%rip), %rax
	cmpb	$0, (%rax)
	je	.L322
	movl	8(%rdi), %eax
	leal	-1(%rax), %edx
	movl	%edx, 8(%rdi)
.L323:
	cmpl	$1, %eax
	je	.L370
.L320:
	movq	144(%rbx), %rdi
	testq	%rdi, %rdi
	je	.L326
	movq	8(%rdi), %rdx
	leaq	8(%rdi), %rcx
	movabsq	$4294967297, %rax
	cmpq	%rax, %rdx
	je	.L371
	movq	__libc_single_threaded@GOTPCREL(%rip), %rax
	cmpb	$0, (%rax)
	je	.L328
	movl	8(%rdi), %eax
	leal	-1(%rax), %edx
	movl	%edx, 8(%rdi)
.L329:
	cmpl	$1, %eax
	je	.L372
.L326:
	movq	128(%rbx), %rdi
	testq	%rdi, %rdi
	je	.L332
	movq	8(%rdi), %rdx
	leaq	8(%rdi), %rcx
	movabsq	$4294967297, %rax
	cmpq	%rax, %rdx
	je	.L373
	movq	__libc_single_threaded@GOTPCREL(%rip), %rax
	cmpb	$0, (%rax)
	je	.L334
	movl	8(%rdi), %eax
	leal	-1(%rax), %edx
	movl	%edx, 8(%rdi)
.L335:
	cmpl	$1, %eax
	je	.L374
.L332:
	movq	112(%rbx), %rdi
	testq	%rdi, %rdi
	je	.L338
	movq	8(%rdi), %rdx
	leaq	8(%rdi), %rcx
	movabsq	$4294967297, %rax
	cmpq	%rax, %rdx
	je	.L375
	movq	__libc_single_threaded@GOTPCREL(%rip), %rax
	cmpb	$0, (%rax)
	je	.L340
	movl	8(%rdi), %eax
	leal	-1(%rax), %edx
	movl	%edx, 8(%rdi)
.L341:
	cmpl	$1, %eax
	je	.L376
.L338:
	movq	96(%rbx), %rdi
	testq	%rdi, %rdi
	je	.L344
	movq	8(%rdi), %rdx
	leaq	8(%rdi), %rcx
	movabsq	$4294967297, %rax
	cmpq	%rax, %rdx
	je	.L377
	movq	__libc_single_threaded@GOTPCREL(%rip), %rax
	cmpb	$0, (%rax)
	je	.L346
	movl	8(%rdi), %eax
	leal	-1(%rax), %edx
	movl	%edx, 8(%rdi)
.L347:
	cmpl	$1, %eax
	je	.L378
.L344:
	movq	72(%rbx), %rdi
	testq	%rdi, %rdi
	je	.L350
	movq	8(%rdi), %rdx
	leaq	8(%rdi), %rcx
	movabsq	$4294967297, %rax
	cmpq	%rax, %rdx
	je	.L379
	movq	__libc_single_threaded@GOTPCREL(%rip), %rax
	cmpb	$0, (%rax)
	je	.L352
	movl	8(%rdi), %eax
	leal	-1(%rax), %edx
	movl	%edx, 8(%rdi)
.L353:
	cmpl	$1, %eax
	je	.L380
.L350:
	movq	56(%rbx), %rdi
	testq	%rdi, %rdi
	je	.L356
	movq	8(%rdi), %rdx
	leaq	8(%rdi), %rcx
	movabsq	$4294967297, %rax
	cmpq	%rax, %rdx
	je	.L381
	movq	__libc_single_threaded@GOTPCREL(%rip), %rax
	cmpb	$0, (%rax)
	je	.L358
	movl	8(%rdi), %eax
	leal	-1(%rax), %edx
	movl	%edx, 8(%rdi)
.L359:
	cmpl	$1, %eax
	je	.L382
.L356:
	movq	16(%rbx), %rdi
	testq	%rdi, %rdi
	je	.L312
	movq	__libc_single_threaded@GOTPCREL(%rip), %rax
	cmpb	$0, (%rax)
	je	.L363
	movl	12(%rdi), %eax
	leal	-1(%rax), %edx
	movl	%edx, 12(%rdi)
.L364:
	cmpl	$1, %eax
	je	.L383
.L312:
	addq	$16, %rsp
	.cfi_remember_state
	.cfi_def_cfa_offset 16
	popq	%rbx
	.cfi_def_cfa_offset 8
	ret
	.p2align 4,,10
	.p2align 3
.L383:
	.cfi_restore_state
	movq	(%rdi), %rax
	movq	24(%rax), %rax
	addq	$16, %rsp
	.cfi_remember_state
	.cfi_def_cfa_offset 16
	popq	%rbx
	.cfi_def_cfa_offset 8
	jmp	*%rax
	.p2align 4,,10
	.p2align 3
.L363:
	.cfi_restore_state
	movl	$-1, %eax
	lock xaddl	%eax, 12(%rdi)
	jmp	.L364
	.p2align 4,,10
	.p2align 3
.L373:
	movq	(%rdi), %rax
	movq	%rdi, 8(%rsp)
	movq	$0, 8(%rdi)
	call	*16(%rax)
	movq	8(%rsp), %rdi
	movq	(%rdi), %rax
	call	*24(%rax)
	jmp	.L332
	.p2align 4,,10
	.p2align 3
.L369:
	movq	(%rdi), %rax
	movq	%rdi, 8(%rsp)
	movq	$0, 8(%rdi)
	call	*16(%rax)
	movq	8(%rsp), %rdi
	movq	(%rdi), %rax
	call	*24(%rax)
	jmp	.L320
	.p2align 4,,10
	.p2align 3
.L371:
	movq	(%rdi), %rax
	movq	%rdi, 8(%rsp)
	movq	$0, 8(%rdi)
	call	*16(%rax)
	movq	8(%rsp), %rdi
	movq	(%rdi), %rax
	call	*24(%rax)
	jmp	.L326
	.p2align 4,,10
	.p2align 3
.L377:
	movq	(%rdi), %rax
	movq	%rdi, 8(%rsp)
	movq	$0, 8(%rdi)
	call	*16(%rax)
	movq	8(%rsp), %rdi
	movq	(%rdi), %rax
	call	*24(%rax)
	jmp	.L344
	.p2align 4,,10
	.p2align 3
.L379:
	movq	(%rdi), %rax
	movq	%rdi, 8(%rsp)
	movq	$0, 8(%rdi)
	call	*16(%rax)
	movq	8(%rsp), %rdi
	movq	(%rdi), %rax
	call	*24(%rax)
	jmp	.L350
	.p2align 4,,10
	.p2align 3
.L381:
	movq	(%rdi), %rax
	movq	%rdi, 8(%rsp)
	movq	$0, 8(%rdi)
	call	*16(%rax)
	movq	8(%rsp), %rdi
	movq	(%rdi), %rax
	call	*24(%rax)
	jmp	.L356
	.p2align 4,,10
	.p2align 3
.L367:
	movq	(%rdi), %rax
	movq	%rdi, 8(%rsp)
	movq	$0, 8(%rdi)
	call	*16(%rax)
	movq	8(%rsp), %rdi
	movq	(%rdi), %rax
	call	*24(%rax)
	jmp	.L314
	.p2align 4,,10
	.p2align 3
.L375:
	movq	(%rdi), %rax
	movq	%rdi, 8(%rsp)
	movq	$0, 8(%rdi)
	call	*16(%rax)
	movq	8(%rsp), %rdi
	movq	(%rdi), %rax
	call	*24(%rax)
	jmp	.L338
	.p2align 4,,10
	.p2align 3
.L328:
	movl	$-1, %eax
	lock xaddl	%eax, (%rcx)
	jmp	.L329
	.p2align 4,,10
	.p2align 3
.L334:
	movl	$-1, %eax
	lock xaddl	%eax, (%rcx)
	jmp	.L335
	.p2align 4,,10
	.p2align 3
.L316:
	movl	$-1, %eax
	lock xaddl	%eax, (%rcx)
	jmp	.L317
	.p2align 4,,10
	.p2align 3
.L322:
	movl	$-1, %eax
	lock xaddl	%eax, (%rcx)
	jmp	.L323
	.p2align 4,,10
	.p2align 3
.L340:
	movl	$-1, %eax
	lock xaddl	%eax, (%rcx)
	jmp	.L341
	.p2align 4,,10
	.p2align 3
.L346:
	movl	$-1, %eax
	lock xaddl	%eax, (%rcx)
	jmp	.L347
	.p2align 4,,10
	.p2align 3
.L358:
	movl	$-1, %eax
	lock xaddl	%eax, (%rcx)
	jmp	.L359
	.p2align 4,,10
	.p2align 3
.L352:
	movl	$-1, %eax
	lock xaddl	%eax, (%rcx)
	jmp	.L353
	.p2align 4,,10
	.p2align 3
.L368:
	call	_ZNSt16_Sp_counted_baseILN9__gnu_cxx12_Lock_policyE2EE24_M_release_last_use_coldEv@PLT
	jmp	.L314
	.p2align 4,,10
	.p2align 3
.L376:
	call	_ZNSt16_Sp_counted_baseILN9__gnu_cxx12_Lock_policyE2EE24_M_release_last_use_coldEv@PLT
	jmp	.L338
	.p2align 4,,10
	.p2align 3
.L374:
	call	_ZNSt16_Sp_counted_baseILN9__gnu_cxx12_Lock_policyE2EE24_M_release_last_use_coldEv@PLT
	jmp	.L332
	.p2align 4,,10
	.p2align 3
.L372:
	call	_ZNSt16_Sp_counted_baseILN9__gnu_cxx12_Lock_policyE2EE24_M_release_last_use_coldEv@PLT
	jmp	.L326
	.p2align 4,,10
	.p2align 3
.L370:
	call	_ZNSt16_Sp_counted_baseILN9__gnu_cxx12_Lock_policyE2EE24_M_release_last_use_coldEv@PLT
	jmp	.L320
	.p2align 4,,10
	.p2align 3
.L380:
	call	_ZNSt16_Sp_counted_baseILN9__gnu_cxx12_Lock_policyE2EE24_M_release_last_use_coldEv@PLT
	jmp	.L350
	.p2align 4,,10
	.p2align 3
.L378:
	call	_ZNSt16_Sp_counted_baseILN9__gnu_cxx12_Lock_policyE2EE24_M_release_last_use_coldEv@PLT
	jmp	.L344
	.p2align 4,,10
	.p2align 3
.L382:
	call	_ZNSt16_Sp_counted_baseILN9__gnu_cxx12_Lock_policyE2EE24_M_release_last_use_coldEv@PLT
	jmp	.L356
	.cfi_endproc
.LFE10594:
	.size	_ZThn16_N8asiodnp311LinkSessionD1Ev, .-_ZThn16_N8asiodnp311LinkSessionD1Ev
	.p2align 4
	.weak	_ZThn40_N8asiodnp311LinkSessionD1Ev
	.type	_ZThn40_N8asiodnp311LinkSessionD1Ev, @function
_ZThn40_N8asiodnp311LinkSessionD1Ev:
.LFB10595:
	.cfi_startproc
	pushq	%rbx
	.cfi_def_cfa_offset 16
	.cfi_offset 3, -16
	movq	%rdi, %rbx
	subq	$16, %rsp
	.cfi_def_cfa_offset 32
	movq	_ZTVN8asiodnp311LinkSessionE@GOTPCREL(%rip), %rax
	leaq	96(%rax), %rdx
	leaq	16(%rax), %rsi
	movq	%rdx, %xmm1
	movq	%rsi, %xmm0
	leaq	144(%rax), %rdx
	movq	%rdx, -24(%rdi)
	punpcklqdq	%xmm1, %xmm0
	leaq	224(%rax), %rdx
	addq	$184, %rax
	movups	%xmm0, -40(%rdi)
	movq	%rdx, %xmm2
	movq	%rax, %xmm0
	punpcklqdq	%xmm2, %xmm0
	movups	%xmm0, (%rdi)
	movq	560(%rdi), %rdi
	testq	%rdi, %rdi
	je	.L386
	movq	8(%rdi), %rdx
	leaq	8(%rdi), %rcx
	movabsq	$4294967297, %rax
	cmpq	%rax, %rdx
	je	.L439
	movq	__libc_single_threaded@GOTPCREL(%rip), %rax
	cmpb	$0, (%rax)
	je	.L388
	movl	8(%rdi), %eax
	leal	-1(%rax), %edx
	movl	%edx, 8(%rdi)
.L389:
	cmpl	$1, %eax
	je	.L440
.L386:
	leaq	528(%rbx), %rdi
	call	_ZN7openpal8TimerRefD1Ev@PLT
	movq	136(%rbx), %rdi
	testq	%rdi, %rdi
	je	.L392
	movq	8(%rdi), %rdx
	leaq	8(%rdi), %rcx
	movabsq	$4294967297, %rax
	cmpq	%rax, %rdx
	je	.L441
	movq	__libc_single_threaded@GOTPCREL(%rip), %rax
	cmpb	$0, (%rax)
	je	.L394
	movl	8(%rdi), %eax
	leal	-1(%rax), %edx
	movl	%edx, 8(%rdi)
.L395:
	cmpl	$1, %eax
	je	.L442
.L392:
	movq	120(%rbx), %rdi
	testq	%rdi, %rdi
	je	.L398
	movq	8(%rdi), %rdx
	leaq	8(%rdi), %rcx
	movabsq	$4294967297, %rax
	cmpq	%rax, %rdx
	je	.L443
	movq	__libc_single_threaded@GOTPCREL(%rip), %rax
	cmpb	$0, (%rax)
	je	.L400
	movl	8(%rdi), %eax
	leal	-1(%rax), %edx
	movl	%edx, 8(%rdi)
.L401:
	cmpl	$1, %eax
	je	.L444
.L398:
	movq	104(%rbx), %rdi
	testq	%rdi, %rdi
	je	.L404
	movq	8(%rdi), %rdx
	leaq	8(%rdi), %rcx
	movabsq	$4294967297, %rax
	cmpq	%rax, %rdx
	je	.L445
	movq	__libc_single_threaded@GOTPCREL(%rip), %rax
	cmpb	$0, (%rax)
	je	.L406
	movl	8(%rdi), %eax
	leal	-1(%rax), %edx
	movl	%edx, 8(%rdi)
.L407:
	cmpl	$1, %eax
	je	.L446
.L404:
	movq	88(%rbx), %rdi
	testq	%rdi, %rdi
	je	.L410
	movq	8(%rdi), %rdx
	leaq	8(%rdi), %rcx
	movabsq	$4294967297, %rax
	cmpq	%rax, %rdx
	je	.L447
	movq	__libc_single_threaded@GOTPCREL(%rip), %rax
	cmpb	$0, (%rax)
	je	.L412
	movl	8(%rdi), %eax
	leal	-1(%rax), %edx
	movl	%edx, 8(%rdi)
.L413:
	cmpl	$1, %eax
	je	.L448
.L410:
	movq	72(%rbx), %rdi
	testq	%rdi, %rdi
	je	.L416
	movq	8(%rdi), %rdx
	leaq	8(%rdi), %rcx
	movabsq	$4294967297, %rax
	cmpq	%rax, %rdx
	je	.L449
	movq	__libc_single_threaded@GOTPCREL(%rip), %rax
	cmpb	$0, (%rax)
	je	.L418
	movl	8(%rdi), %eax
	leal	-1(%rax), %edx
	movl	%edx, 8(%rdi)
.L419:
	cmpl	$1, %eax
	je	.L450
.L416:
	movq	48(%rbx), %rdi
	testq	%rdi, %rdi
	je	.L422
	movq	8(%rdi), %rdx
	leaq	8(%rdi), %rcx
	movabsq	$4294967297, %rax
	cmpq	%rax, %rdx
	je	.L451
	movq	__libc_single_threaded@GOTPCREL(%rip), %rax
	cmpb	$0, (%rax)
	je	.L424
	movl	8(%rdi), %eax
	leal	-1(%rax), %edx
	movl	%edx, 8(%rdi)
.L425:
	cmpl	$1, %eax
	je	.L452
.L422:
	movq	32(%rbx), %rdi
	testq	%rdi, %rdi
	je	.L428
	movq	8(%rdi), %rdx
	leaq	8(%rdi), %rcx
	movabsq	$4294967297, %rax
	cmpq	%rax, %rdx
	je	.L453
	movq	__libc_single_threaded@GOTPCREL(%rip), %rax
	cmpb	$0, (%rax)
	je	.L430
	movl	8(%rdi), %eax
	leal	-1(%rax), %edx
	movl	%edx, 8(%rdi)
.L431:
	cmpl	$1, %eax
	je	.L454
.L428:
	movq	-8(%rbx), %rdi
	testq	%rdi, %rdi
	je	.L384
	movq	__libc_single_threaded@GOTPCREL(%rip), %rax
	cmpb	$0, (%rax)
	je	.L435
	movl	12(%rdi), %eax
	leal	-1(%rax), %edx
	movl	%edx, 12(%rdi)
.L436:
	cmpl	$1, %eax
	je	.L455
.L384:
	addq	$16, %rsp
	.cfi_remember_state
	.cfi_def_cfa_offset 16
	popq	%rbx
	.cfi_def_cfa_offset 8
	ret
	.p2align 4,,10
	.p2align 3
.L455:
	.cfi_restore_state
	movq	(%rdi), %rax
	movq	24(%rax), %rax
	addq	$16, %rsp
	.cfi_remember_state
	.cfi_def_cfa_offset 16
	popq	%rbx
	.cfi_def_cfa_offset 8
	jmp	*%rax
	.p2align 4,,10
	.p2align 3
.L435:
	.cfi_restore_state
	movl	$-1, %eax
	lock xaddl	%eax, 12(%rdi)
	jmp	.L436
	.p2align 4,,10
	.p2align 3
.L445:
	movq	(%rdi), %rax
	movq	%rdi, 8(%rsp)
	movq	$0, 8(%rdi)
	call	*16(%rax)
	movq	8(%rsp), %rdi
	movq	(%rdi), %rax
	call	*24(%rax)
	jmp	.L404
	.p2align 4,,10
	.p2align 3
.L441:
	movq	(%rdi), %rax
	movq	%rdi, 8(%rsp)
	movq	$0, 8(%rdi)
	call	*16(%rax)
	movq	8(%rsp), %rdi
	movq	(%rdi), %rax
	call	*24(%rax)
	jmp	.L392
	.p2align 4,,10
	.p2align 3
.L443:
	movq	(%rdi), %rax
	movq	%rdi, 8(%rsp)
	movq	$0, 8(%rdi)
	call	*16(%rax)
	movq	8(%rsp), %rdi
	movq	(%rdi), %rax
	call	*24(%rax)
	jmp	.L398
	.p2align 4,,10
	.p2align 3
.L449:
	movq	(%rdi), %rax
	movq	%rdi, 8(%rsp)
	movq	$0, 8(%rdi)
	call	*16(%rax)
	movq	8(%rsp), %rdi
	movq	(%rdi), %rax
	call	*24(%rax)
	jmp	.L416
	.p2align 4,,10
	.p2align 3
.L451:
	movq	(%rdi), %rax
	movq	%rdi, 8(%rsp)
	movq	$0, 8(%rdi)
	call	*16(%rax)
	movq	8(%rsp), %rdi
	movq	(%rdi), %rax
	call	*24(%rax)
	jmp	.L422
	.p2align 4,,10
	.p2align 3
.L453:
	movq	(%rdi), %rax
	movq	%rdi, 8(%rsp)
	movq	$0, 8(%rdi)
	call	*16(%rax)
	movq	8(%rsp), %rdi
	movq	(%rdi), %rax
	call	*24(%rax)
	jmp	.L428
	.p2align 4,,10
	.p2align 3
.L439:
	movq	(%rdi), %rax
	movq	%rdi, 8(%rsp)
	movq	$0, 8(%rdi)
	call	*16(%rax)
	movq	8(%rsp), %rdi
	movq	(%rdi), %rax
	call	*24(%rax)
	jmp	.L386
	.p2align 4,,10
	.p2align 3
.L447:
	movq	(%rdi), %rax
	movq	%rdi, 8(%rsp)
	movq	$0, 8(%rdi)
	call	*16(%rax)
	movq	8(%rsp), %rdi
	movq	(%rdi), %rax
	call	*24(%rax)
	jmp	.L410
	.p2align 4,,10
	.p2align 3
.L400:
	movl	$-1, %eax
	lock xaddl	%eax, (%rcx)
	jmp	.L401
	.p2align 4,,10
	.p2align 3
.L406:
	movl	$-1, %eax
	lock xaddl	%eax, (%rcx)
	jmp	.L407
	.p2align 4,,10
	.p2align 3
.L388:
	movl	$-1, %eax
	lock xaddl	%eax, (%rcx)
	jmp	.L389
	.p2align 4,,10
	.p2align 3
.L394:
	movl	$-1, %eax
	lock xaddl	%eax, (%rcx)
	jmp	.L395
	.p2align 4,,10
	.p2align 3
.L412:
	movl	$-1, %eax
	lock xaddl	%eax, (%rcx)
	jmp	.L413
	.p2align 4,,10
	.p2align 3
.L418:
	movl	$-1, %eax
	lock xaddl	%eax, (%rcx)
	jmp	.L419
	.p2align 4,,10
	.p2align 3
.L430:
	movl	$-1, %eax
	lock xaddl	%eax, (%rcx)
	jmp	.L431
	.p2align 4,,10
	.p2align 3
.L424:
	movl	$-1, %eax
	lock xaddl	%eax, (%rcx)
	jmp	.L425
	.p2align 4,,10
	.p2align 3
.L440:
	call	_ZNSt16_Sp_counted_baseILN9__gnu_cxx12_Lock_policyE2EE24_M_release_last_use_coldEv@PLT
	jmp	.L386
	.p2align 4,,10
	.p2align 3
.L448:
	call	_ZNSt16_Sp_counted_baseILN9__gnu_cxx12_Lock_policyE2EE24_M_release_last_use_coldEv@PLT
	jmp	.L410
	.p2align 4,,10
	.p2align 3
.L446:
	call	_ZNSt16_Sp_counted_baseILN9__gnu_cxx12_Lock_policyE2EE24_M_release_last_use_coldEv@PLT
	jmp	.L404
	.p2align 4,,10
	.p2align 3
.L444:
	call	_ZNSt16_Sp_counted_baseILN9__gnu_cxx12_Lock_policyE2EE24_M_release_last_use_coldEv@PLT
	jmp	.L398
	.p2align 4,,10
	.p2align 3
.L442:
	call	_ZNSt16_Sp_counted_baseILN9__gnu_cxx12_Lock_policyE2EE24_M_release_last_use_coldEv@PLT
	jmp	.L392
	.p2align 4,,10
	.p2align 3
.L452:
	call	_ZNSt16_Sp_counted_baseILN9__gnu_cxx12_Lock_policyE2EE24_M_release_last_use_coldEv@PLT
	jmp	.L422
	.p2align 4,,10
	.p2align 3
.L450:
	call	_ZNSt16_Sp_counted_baseILN9__gnu_cxx12_Lock_policyE2EE24_M_release_last_use_coldEv@PLT
	jmp	.L416
	.p2align 4,,10
	.p2align 3
.L454:
	call	_ZNSt16_Sp_counted_baseILN9__gnu_cxx12_Lock_policyE2EE24_M_release_last_use_coldEv@PLT
	jmp	.L428
	.cfi_endproc
.LFE10595:
	.size	_ZThn40_N8asiodnp311LinkSessionD1Ev, .-_ZThn40_N8asiodnp311LinkSessionD1Ev
	.p2align 4
	.weak	_ZThn48_N8asiodnp311LinkSessionD1Ev
	.type	_ZThn48_N8asiodnp311LinkSessionD1Ev, @function
_ZThn48_N8asiodnp311LinkSessionD1Ev:
.LFB10596:
	.cfi_startproc
	pushq	%rbx
	.cfi_def_cfa_offset 16
	.cfi_offset 3, -16
	movq	%rdi, %rbx
	subq	$16, %rsp
	.cfi_def_cfa_offset 32
	movq	_ZTVN8asiodnp311LinkSessionE@GOTPCREL(%rip), %rax
	leaq	96(%rax), %rdx
	leaq	16(%rax), %rsi
	movq	%rdx, %xmm1
	movq	%rsi, %xmm0
	leaq	144(%rax), %rdx
	movq	%rdx, -32(%rdi)
	punpcklqdq	%xmm1, %xmm0
	leaq	224(%rax), %rdx
	addq	$184, %rax
	movups	%xmm0, -48(%rdi)
	movq	%rdx, %xmm2
	movq	%rax, %xmm0
	punpcklqdq	%xmm2, %xmm0
	movups	%xmm0, -8(%rdi)
	movq	552(%rdi), %rdi
	testq	%rdi, %rdi
	je	.L458
	movq	8(%rdi), %rdx
	leaq	8(%rdi), %rcx
	movabsq	$4294967297, %rax
	cmpq	%rax, %rdx
	je	.L511
	movq	__libc_single_threaded@GOTPCREL(%rip), %rax
	cmpb	$0, (%rax)
	je	.L460
	movl	8(%rdi), %eax
	leal	-1(%rax), %edx
	movl	%edx, 8(%rdi)
.L461:
	cmpl	$1, %eax
	je	.L512
.L458:
	leaq	520(%rbx), %rdi
	call	_ZN7openpal8TimerRefD1Ev@PLT
	movq	128(%rbx), %rdi
	testq	%rdi, %rdi
	je	.L464
	movq	8(%rdi), %rdx
	leaq	8(%rdi), %rcx
	movabsq	$4294967297, %rax
	cmpq	%rax, %rdx
	je	.L513
	movq	__libc_single_threaded@GOTPCREL(%rip), %rax
	cmpb	$0, (%rax)
	je	.L466
	movl	8(%rdi), %eax
	leal	-1(%rax), %edx
	movl	%edx, 8(%rdi)
.L467:
	cmpl	$1, %eax
	je	.L514
.L464:
	movq	112(%rbx), %rdi
	testq	%rdi, %rdi
	je	.L470
	movq	8(%rdi), %rdx
	leaq	8(%rdi), %rcx
	movabsq	$4294967297, %rax
	cmpq	%rax, %rdx
	je	.L515
	movq	__libc_single_threaded@GOTPCREL(%rip), %rax
	cmpb	$0, (%rax)
	je	.L472
	movl	8(%rdi), %eax
	leal	-1(%rax), %edx
	movl	%edx, 8(%rdi)
.L473:
	cmpl	$1, %eax
	je	.L516
.L470:
	movq	96(%rbx), %rdi
	testq	%rdi, %rdi
	je	.L476
	movq	8(%rdi), %rdx
	leaq	8(%rdi), %rcx
	movabsq	$4294967297, %rax
	cmpq	%rax, %rdx
	je	.L517
	movq	__libc_single_threaded@GOTPCREL(%rip), %rax
	cmpb	$0, (%rax)
	je	.L478
	movl	8(%rdi), %eax
	leal	-1(%rax), %edx
	movl	%edx, 8(%rdi)
.L479:
	cmpl	$1, %eax
	je	.L518
.L476:
	movq	80(%rbx), %rdi
	testq	%rdi, %rdi
	je	.L482
	movq	8(%rdi), %rdx
	leaq	8(%rdi), %rcx
	movabsq	$4294967297, %rax
	cmpq	%rax, %rdx
	je	.L519
	movq	__libc_single_threaded@GOTPCREL(%rip), %rax
	cmpb	$0, (%rax)
	je	.L484
	movl	8(%rdi), %eax
	leal	-1(%rax), %edx
	movl	%edx, 8(%rdi)
.L485:
	cmpl	$1, %eax
	je	.L520
.L482:
	movq	64(%rbx), %rdi
	testq	%rdi, %rdi
	je	.L488
	movq	8(%rdi), %rdx
	leaq	8(%rdi), %rcx
	movabsq	$4294967297, %rax
	cmpq	%rax, %rdx
	je	.L521
	movq	__libc_single_threaded@GOTPCREL(%rip), %rax
	cmpb	$0, (%rax)
	je	.L490
	movl	8(%rdi), %eax
	leal	-1(%rax), %edx
	movl	%edx, 8(%rdi)
.L491:
	cmpl	$1, %eax
	je	.L522
.L488:
	movq	40(%rbx), %rdi
	testq	%rdi, %rdi
	je	.L494
	movq	8(%rdi), %rdx
	leaq	8(%rdi), %rcx
	movabsq	$4294967297, %rax
	cmpq	%rax, %rdx
	je	.L523
	movq	__libc_single_threaded@GOTPCREL(%rip), %rax
	cmpb	$0, (%rax)
	je	.L496
	movl	8(%rdi), %eax
	leal	-1(%rax), %edx
	movl	%edx, 8(%rdi)
.L497:
	cmpl	$1, %eax
	je	.L524
.L494:
	movq	24(%rbx), %rdi
	testq	%rdi, %rdi
	je	.L500
	movq	8(%rdi), %rdx
	leaq	8(%rdi), %rcx
	movabsq	$4294967297, %rax
	cmpq	%rax, %rdx
	je	.L525
	movq	__libc_single_threaded@GOTPCREL(%rip), %rax
	cmpb	$0, (%rax)
	je	.L502
	movl	8(%rdi), %eax
	leal	-1(%rax), %edx
	movl	%edx, 8(%rdi)
.L503:
	cmpl	$1, %eax
	je	.L526
.L500:
	movq	-16(%rbx), %rdi
	testq	%rdi, %rdi
	je	.L456
	movq	__libc_single_threaded@GOTPCREL(%rip), %rax
	cmpb	$0, (%rax)
	je	.L507
	movl	12(%rdi), %eax
	leal	-1(%rax), %edx
	movl	%edx, 12(%rdi)
.L508:
	cmpl	$1, %eax
	je	.L527
.L456:
	addq	$16, %rsp
	.cfi_remember_state
	.cfi_def_cfa_offset 16
	popq	%rbx
	.cfi_def_cfa_offset 8
	ret
	.p2align 4,,10
	.p2align 3
.L527:
	.cfi_restore_state
	movq	(%rdi), %rax
	movq	24(%rax), %rax
	addq	$16, %rsp
	.cfi_remember_state
	.cfi_def_cfa_offset 16
	popq	%rbx
	.cfi_def_cfa_offset 8
	jmp	*%rax
	.p2align 4,,10
	.p2align 3
.L507:
	.cfi_restore_state
	movl	$-1, %eax
	lock xaddl	%eax, 12(%rdi)
	jmp	.L508
	.p2align 4,,10
	.p2align 3
.L517:
	movq	(%rdi), %rax
	movq	%rdi, 8(%rsp)
	movq	$0, 8(%rdi)
	call	*16(%rax)
	movq	8(%rsp), %rdi
	movq	(%rdi), %rax
	call	*24(%rax)
	jmp	.L476
	.p2align 4,,10
	.p2align 3
.L513:
	movq	(%rdi), %rax
	movq	%rdi, 8(%rsp)
	movq	$0, 8(%rdi)
	call	*16(%rax)
	movq	8(%rsp), %rdi
	movq	(%rdi), %rax
	call	*24(%rax)
	jmp	.L464
	.p2align 4,,10
	.p2align 3
.L515:
	movq	(%rdi), %rax
	movq	%rdi, 8(%rsp)
	movq	$0, 8(%rdi)
	call	*16(%rax)
	movq	8(%rsp), %rdi
	movq	(%rdi), %rax
	call	*24(%rax)
	jmp	.L470
	.p2align 4,,10
	.p2align 3
.L521:
	movq	(%rdi), %rax
	movq	%rdi, 8(%rsp)
	movq	$0, 8(%rdi)
	call	*16(%rax)
	movq	8(%rsp), %rdi
	movq	(%rdi), %rax
	call	*24(%rax)
	jmp	.L488
	.p2align 4,,10
	.p2align 3
.L523:
	movq	(%rdi), %rax
	movq	%rdi, 8(%rsp)
	movq	$0, 8(%rdi)
	call	*16(%rax)
	movq	8(%rsp), %rdi
	movq	(%rdi), %rax
	call	*24(%rax)
	jmp	.L494
	.p2align 4,,10
	.p2align 3
.L525:
	movq	(%rdi), %rax
	movq	%rdi, 8(%rsp)
	movq	$0, 8(%rdi)
	call	*16(%rax)
	movq	8(%rsp), %rdi
	movq	(%rdi), %rax
	call	*24(%rax)
	jmp	.L500
	.p2align 4,,10
	.p2align 3
.L511:
	movq	(%rdi), %rax
	movq	%rdi, 8(%rsp)
	movq	$0, 8(%rdi)
	call	*16(%rax)
	movq	8(%rsp), %rdi
	movq	(%rdi), %rax
	call	*24(%rax)
	jmp	.L458
	.p2align 4,,10
	.p2align 3
.L519:
	movq	(%rdi), %rax
	movq	%rdi, 8(%rsp)
	movq	$0, 8(%rdi)
	call	*16(%rax)
	movq	8(%rsp), %rdi
	movq	(%rdi), %rax
	call	*24(%rax)
	jmp	.L482
	.p2align 4,,10
	.p2align 3
.L472:
	movl	$-1, %eax
	lock xaddl	%eax, (%rcx)
	jmp	.L473
	.p2align 4,,10
	.p2align 3
.L478:
	movl	$-1, %eax
	lock xaddl	%eax, (%rcx)
	jmp	.L479
	.p2align 4,,10
	.p2align 3
.L460:
	movl	$-1, %eax
	lock xaddl	%eax, (%rcx)
	jmp	.L461
	.p2align 4,,10
	.p2align 3
.L466:
	movl	$-1, %eax
	lock xaddl	%eax, (%rcx)
	jmp	.L467
	.p2align 4,,10
	.p2align 3
.L484:
	movl	$-1, %eax
	lock xaddl	%eax, (%rcx)
	jmp	.L485
	.p2align 4,,10
	.p2align 3
.L490:
	movl	$-1, %eax
	lock xaddl	%eax, (%rcx)
	jmp	.L491
	.p2align 4,,10
	.p2align 3
.L502:
	movl	$-1, %eax
	lock xaddl	%eax, (%rcx)
	jmp	.L503
	.p2align 4,,10
	.p2align 3
.L496:
	movl	$-1, %eax
	lock xaddl	%eax, (%rcx)
	jmp	.L497
	.p2align 4,,10
	.p2align 3
.L512:
	call	_ZNSt16_Sp_counted_baseILN9__gnu_cxx12_Lock_policyE2EE24_M_release_last_use_coldEv@PLT
	jmp	.L458
	.p2align 4,,10
	.p2align 3
.L520:
	call	_ZNSt16_Sp_counted_baseILN9__gnu_cxx12_Lock_policyE2EE24_M_release_last_use_coldEv@PLT
	jmp	.L482
	.p2align 4,,10
	.p2align 3
.L518:
	call	_ZNSt16_Sp_counted_baseILN9__gnu_cxx12_Lock_policyE2EE24_M_release_last_use_coldEv@PLT
	jmp	.L476
	.p2align 4,,10
	.p2align 3
.L516:
	call	_ZNSt16_Sp_counted_baseILN9__gnu_cxx12_Lock_policyE2EE24_M_release_last_use_coldEv@PLT
	jmp	.L470
	.p2align 4,,10
	.p2align 3
.L514:
	call	_ZNSt16_Sp_counted_baseILN9__gnu_cxx12_Lock_policyE2EE24_M_release_last_use_coldEv@PLT
	jmp	.L464
	.p2align 4,,10
	.p2align 3
.L524:
	call	_ZNSt16_Sp_counted_baseILN9__gnu_cxx12_Lock_policyE2EE24_M_release_last_use_coldEv@PLT
	jmp	.L494
	.p2align 4,,10
	.p2align 3
.L522:
	call	_ZNSt16_Sp_counted_baseILN9__gnu_cxx12_Lock_policyE2EE24_M_release_last_use_coldEv@PLT
	jmp	.L488
	.p2align 4,,10
	.p2align 3
.L526:
	call	_ZNSt16_Sp_counted_baseILN9__gnu_cxx12_Lock_policyE2EE24_M_release_last_use_coldEv@PLT
	jmp	.L500
	.cfi_endproc
.LFE10596:
	.size	_ZThn48_N8asiodnp311LinkSessionD1Ev, .-_ZThn48_N8asiodnp311LinkSessionD1Ev
	.section	.text._ZN8asiodnp311LinkSessionD0Ev,"axG",@progbits,_ZN8asiodnp311LinkSessionD5Ev,comdat
	.p2align 4
	.weak	_ZThn8_N8asiodnp311LinkSessionD0Ev
	.type	_ZThn8_N8asiodnp311LinkSessionD0Ev, @function
_ZThn8_N8asiodnp311LinkSessionD0Ev:
.LFB10586:
	.cfi_startproc
	pushq	%rbp
	.cfi_def_cfa_offset 16
	.cfi_offset 6, -16
	leaq	-8(%rdi), %rbp
	pushq	%rbx
	.cfi_def_cfa_offset 24
	.cfi_offset 3, -24
	movq	%rdi, %rbx
	subq	$24, %rsp
	.cfi_def_cfa_offset 48
	movq	_ZTVN8asiodnp311LinkSessionE@GOTPCREL(%rip), %rax
	leaq	96(%rax), %rdx
	leaq	16(%rax), %rsi
	movq	%rdx, %xmm1
	movq	%rsi, %xmm0
	leaq	144(%rax), %rdx
	movq	%rdx, 8(%rdi)
	punpcklqdq	%xmm1, %xmm0
	leaq	224(%rax), %rdx
	addq	$184, %rax
	movups	%xmm0, -8(%rdi)
	movq	%rdx, %xmm2
	movq	%rax, %xmm0
	punpcklqdq	%xmm2, %xmm0
	movups	%xmm0, 32(%rdi)
	movq	592(%rdi), %rdi
	testq	%rdi, %rdi
	je	.L530
	movq	8(%rdi), %rdx
	leaq	8(%rdi), %rcx
	movabsq	$4294967297, %rax
	cmpq	%rax, %rdx
	je	.L583
	movq	__libc_single_threaded@GOTPCREL(%rip), %rax
	cmpb	$0, (%rax)
	je	.L532
	movl	8(%rdi), %eax
	leal	-1(%rax), %edx
	movl	%edx, 8(%rdi)
.L533:
	cmpl	$1, %eax
	je	.L584
.L530:
	leaq	560(%rbx), %rdi
	call	_ZN7openpal8TimerRefD1Ev@PLT
	movq	168(%rbx), %rdi
	testq	%rdi, %rdi
	je	.L536
	movq	8(%rdi), %rdx
	leaq	8(%rdi), %rcx
	movabsq	$4294967297, %rax
	cmpq	%rax, %rdx
	je	.L585
	movq	__libc_single_threaded@GOTPCREL(%rip), %rax
	cmpb	$0, (%rax)
	je	.L538
	movl	8(%rdi), %eax
	leal	-1(%rax), %edx
	movl	%edx, 8(%rdi)
.L539:
	cmpl	$1, %eax
	je	.L586
.L536:
	movq	152(%rbx), %rdi
	testq	%rdi, %rdi
	je	.L542
	movq	8(%rdi), %rdx
	leaq	8(%rdi), %rcx
	movabsq	$4294967297, %rax
	cmpq	%rax, %rdx
	je	.L587
	movq	__libc_single_threaded@GOTPCREL(%rip), %rax
	cmpb	$0, (%rax)
	je	.L544
	movl	8(%rdi), %eax
	leal	-1(%rax), %edx
	movl	%edx, 8(%rdi)
.L545:
	cmpl	$1, %eax
	je	.L588
.L542:
	movq	136(%rbx), %rdi
	testq	%rdi, %rdi
	je	.L548
	movq	8(%rdi), %rdx
	leaq	8(%rdi), %rcx
	movabsq	$4294967297, %rax
	cmpq	%rax, %rdx
	je	.L589
	movq	__libc_single_threaded@GOTPCREL(%rip), %rax
	cmpb	$0, (%rax)
	je	.L550
	movl	8(%rdi), %eax
	leal	-1(%rax), %edx
	movl	%edx, 8(%rdi)
.L551:
	cmpl	$1, %eax
	je	.L590
.L548:
	movq	120(%rbx), %rdi
	testq	%rdi, %rdi
	je	.L554
	movq	8(%rdi), %rdx
	leaq	8(%rdi), %rcx
	movabsq	$4294967297, %rax
	cmpq	%rax, %rdx
	je	.L591
	movq	__libc_single_threaded@GOTPCREL(%rip), %rax
	cmpb	$0, (%rax)
	je	.L556
	movl	8(%rdi), %eax
	leal	-1(%rax), %edx
	movl	%edx, 8(%rdi)
.L557:
	cmpl	$1, %eax
	je	.L592
.L554:
	movq	104(%rbx), %rdi
	testq	%rdi, %rdi
	je	.L560
	movq	8(%rdi), %rdx
	leaq	8(%rdi), %rcx
	movabsq	$4294967297, %rax
	cmpq	%rax, %rdx
	je	.L593
	movq	__libc_single_threaded@GOTPCREL(%rip), %rax
	cmpb	$0, (%rax)
	je	.L562
	movl	8(%rdi), %eax
	leal	-1(%rax), %edx
	movl	%edx, 8(%rdi)
.L563:
	cmpl	$1, %eax
	je	.L594
.L560:
	movq	80(%rbx), %rdi
	testq	%rdi, %rdi
	je	.L566
	movq	8(%rdi), %rdx
	leaq	8(%rdi), %rcx
	movabsq	$4294967297, %rax
	cmpq	%rax, %rdx
	je	.L595
	movq	__libc_single_threaded@GOTPCREL(%rip), %rax
	cmpb	$0, (%rax)
	je	.L568
	movl	8(%rdi), %eax
	leal	-1(%rax), %edx
	movl	%edx, 8(%rdi)
.L569:
	cmpl	$1, %eax
	je	.L596
.L566:
	movq	64(%rbx), %rdi
	testq	%rdi, %rdi
	je	.L572
	movq	8(%rdi), %rdx
	leaq	8(%rdi), %rcx
	movabsq	$4294967297, %rax
	cmpq	%rax, %rdx
	je	.L597
	movq	__libc_single_threaded@GOTPCREL(%rip), %rax
	cmpb	$0, (%rax)
	je	.L574
	movl	8(%rdi), %eax
	leal	-1(%rax), %edx
	movl	%edx, 8(%rdi)
.L575:
	cmpl	$1, %eax
	je	.L598
.L572:
	movq	24(%rbx), %rdi
	testq	%rdi, %rdi
	je	.L578
	movq	__libc_single_threaded@GOTPCREL(%rip), %rax
	cmpb	$0, (%rax)
	je	.L579
	movl	12(%rdi), %eax
	leal	-1(%rax), %edx
	movl	%edx, 12(%rdi)
.L580:
	cmpl	$1, %eax
	je	.L599
.L578:
	addq	$24, %rsp
	.cfi_remember_state
	.cfi_def_cfa_offset 24
	movq	%rbp, %rdi
	movl	$608, %esi
	popq	%rbx
	.cfi_def_cfa_offset 16
	popq	%rbp
	.cfi_def_cfa_offset 8
	jmp	_ZdlPvm@PLT
	.p2align 4,,10
	.p2align 3
.L599:
	.cfi_restore_state
	movq	(%rdi), %rax
	call	*24(%rax)
	jmp	.L578
	.p2align 4,,10
	.p2align 3
.L579:
	movl	$-1, %eax
	lock xaddl	%eax, 12(%rdi)
	jmp	.L580
	.p2align 4,,10
	.p2align 3
.L589:
	movq	(%rdi), %rax
	movq	%rdi, 8(%rsp)
	movq	$0, 8(%rdi)
	call	*16(%rax)
	movq	8(%rsp), %rdi
	movq	(%rdi), %rax
	call	*24(%rax)
	jmp	.L548
	.p2align 4,,10
	.p2align 3
.L585:
	movq	(%rdi), %rax
	movq	%rdi, 8(%rsp)
	movq	$0, 8(%rdi)
	call	*16(%rax)
	movq	8(%rsp), %rdi
	movq	(%rdi), %rax
	call	*24(%rax)
	jmp	.L536
	.p2align 4,,10
	.p2align 3
.L587:
	movq	(%rdi), %rax
	movq	%rdi, 8(%rsp)
	movq	$0, 8(%rdi)
	call	*16(%rax)
	movq	8(%rsp), %rdi
	movq	(%rdi), %rax
	call	*24(%rax)
	jmp	.L542
	.p2align 4,,10
	.p2align 3
.L593:
	movq	(%rdi), %rax
	movq	%rdi, 8(%rsp)
	movq	$0, 8(%rdi)
	call	*16(%rax)
	movq	8(%rsp), %rdi
	movq	(%rdi), %rax
	call	*24(%rax)
	jmp	.L560
	.p2align 4,,10
	.p2align 3
.L595:
	movq	(%rdi), %rax
	movq	%rdi, 8(%rsp)
	movq	$0, 8(%rdi)
	call	*16(%rax)
	movq	8(%rsp), %rdi
	movq	(%rdi), %rax
	call	*24(%rax)
	jmp	.L566
	.p2align 4,,10
	.p2align 3
.L597:
	movq	(%rdi), %rax
	movq	%rdi, 8(%rsp)
	movq	$0, 8(%rdi)
	call	*16(%rax)
	movq	8(%rsp), %rdi
	movq	(%rdi), %rax
	call	*24(%rax)
	jmp	.L572
	.p2align 4,,10
	.p2align 3
.L583:
	movq	(%rdi), %rax
	movq	%rdi, 8(%rsp)
	movq	$0, 8(%rdi)
	call	*16(%rax)
	movq	8(%rsp), %rdi
	movq	(%rdi), %rax
	call	*24(%rax)
	jmp	.L530
	.p2align 4,,10
	.p2align 3
.L591:
	movq	(%rdi), %rax
	movq	%rdi, 8(%rsp)
	movq	$0, 8(%rdi)
	call	*16(%rax)
	movq	8(%rsp), %rdi
	movq	(%rdi), %rax
	call	*24(%rax)
	jmp	.L554
	.p2align 4,,10
	.p2align 3
.L544:
	movl	$-1, %eax
	lock xaddl	%eax, (%rcx)
	jmp	.L545
	.p2align 4,,10
	.p2align 3
.L550:
	movl	$-1, %eax
	lock xaddl	%eax, (%rcx)
	jmp	.L551
	.p2align 4,,10
	.p2align 3
.L532:
	movl	$-1, %eax
	lock xaddl	%eax, (%rcx)
	jmp	.L533
	.p2align 4,,10
	.p2align 3
.L538:
	movl	$-1, %eax
	lock xaddl	%eax, (%rcx)
	jmp	.L539
	.p2align 4,,10
	.p2align 3
.L556:
	movl	$-1, %eax
	lock xaddl	%eax, (%rcx)
	jmp	.L557
	.p2align 4,,10
	.p2align 3
.L562:
	movl	$-1, %eax
	lock xaddl	%eax, (%rcx)
	jmp	.L563
	.p2align 4,,10
	.p2align 3
.L574:
	movl	$-1, %eax
	lock xaddl	%eax, (%rcx)
	jmp	.L575
	.p2align 4,,10
	.p2align 3
.L568:
	movl	$-1, %eax
	lock xaddl	%eax, (%rcx)
	jmp	.L569
	.p2align 4,,10
	.p2align 3
.L584:
	call	_ZNSt16_Sp_counted_baseILN9__gnu_cxx12_Lock_policyE2EE24_M_release_last_use_coldEv@PLT
	jmp	.L530
	.p2align 4,,10
	.p2align 3
.L592:
	call	_ZNSt16_Sp_counted_baseILN9__gnu_cxx12_Lock_policyE2EE24_M_release_last_use_coldEv@PLT
	jmp	.L554
	.p2align 4,,10
	.p2align 3
.L590:
	call	_ZNSt16_Sp_counted_baseILN9__gnu_cxx12_Lock_policyE2EE24_M_release_last_use_coldEv@PLT
	jmp	.L548
	.p2align 4,,10
	.p2align 3
.L588:
	call	_ZNSt16_Sp_counted_baseILN9__gnu_cxx12_Lock_policyE2EE24_M_release_last_use_coldEv@PLT
	jmp	.L542
	.p2align 4,,10
	.p2align 3
.L586:
	call	_ZNSt16_Sp_counted_baseILN9__gnu_cxx12_Lock_policyE2EE24_M_release_last_use_coldEv@PLT
	jmp	.L536
	.p2align 4,,10
	.p2align 3
.L596:
	call	_ZNSt16_Sp_counted_baseILN9__gnu_cxx12_Lock_policyE2EE24_M_release_last_use_coldEv@PLT
	jmp	.L566
	.p2align 4,,10
	.p2align 3
.L594:
	call	_ZNSt16_Sp_counted_baseILN9__gnu_cxx12_Lock_policyE2EE24_M_release_last_use_coldEv@PLT
	jmp	.L560
	.p2align 4,,10
	.p2align 3
.L598:
	call	_ZNSt16_Sp_counted_baseILN9__gnu_cxx12_Lock_policyE2EE24_M_release_last_use_coldEv@PLT
	jmp	.L572
	.cfi_endproc
.LFE10586:
	.size	_ZThn8_N8asiodnp311LinkSessionD0Ev, .-_ZThn8_N8asiodnp311LinkSessionD0Ev
	.p2align 4
	.weak	_ZThn16_N8asiodnp311LinkSessionD0Ev
	.type	_ZThn16_N8asiodnp311LinkSessionD0Ev, @function
_ZThn16_N8asiodnp311LinkSessionD0Ev:
.LFB10587:
	.cfi_startproc
	pushq	%rbp
	.cfi_def_cfa_offset 16
	.cfi_offset 6, -16
	leaq	-16(%rdi), %rbp
	pushq	%rbx
	.cfi_def_cfa_offset 24
	.cfi_offset 3, -24
	movq	%rdi, %rbx
	subq	$24, %rsp
	.cfi_def_cfa_offset 48
	movq	_ZTVN8asiodnp311LinkSessionE@GOTPCREL(%rip), %rax
	leaq	96(%rax), %rdx
	leaq	16(%rax), %rsi
	movq	%rdx, %xmm1
	movq	%rsi, %xmm0
	leaq	144(%rax), %rdx
	movq	%rdx, (%rdi)
	punpcklqdq	%xmm1, %xmm0
	leaq	224(%rax), %rdx
	addq	$184, %rax
	movups	%xmm0, -16(%rdi)
	movq	%rdx, %xmm2
	movq	%rax, %xmm0
	punpcklqdq	%xmm2, %xmm0
	movups	%xmm0, 24(%rdi)
	movq	584(%rdi), %rdi
	testq	%rdi, %rdi
	je	.L602
	movq	8(%rdi), %rdx
	leaq	8(%rdi), %rcx
	movabsq	$4294967297, %rax
	cmpq	%rax, %rdx
	je	.L655
	movq	__libc_single_threaded@GOTPCREL(%rip), %rax
	cmpb	$0, (%rax)
	je	.L604
	movl	8(%rdi), %eax
	leal	-1(%rax), %edx
	movl	%edx, 8(%rdi)
.L605:
	cmpl	$1, %eax
	je	.L656
.L602:
	leaq	552(%rbx), %rdi
	call	_ZN7openpal8TimerRefD1Ev@PLT
	movq	160(%rbx), %rdi
	testq	%rdi, %rdi
	je	.L608
	movq	8(%rdi), %rdx
	leaq	8(%rdi), %rcx
	movabsq	$4294967297, %rax
	cmpq	%rax, %rdx
	je	.L657
	movq	__libc_single_threaded@GOTPCREL(%rip), %rax
	cmpb	$0, (%rax)
	je	.L610
	movl	8(%rdi), %eax
	leal	-1(%rax), %edx
	movl	%edx, 8(%rdi)
.L611:
	cmpl	$1, %eax
	je	.L658
.L608:
	movq	144(%rbx), %rdi
	testq	%rdi, %rdi
	je	.L614
	movq	8(%rdi), %rdx
	leaq	8(%rdi), %rcx
	movabsq	$4294967297, %rax
	cmpq	%rax, %rdx
	je	.L659
	movq	__libc_single_threaded@GOTPCREL(%rip), %rax
	cmpb	$0, (%rax)
	je	.L616
	movl	8(%rdi), %eax
	leal	-1(%rax), %edx
	movl	%edx, 8(%rdi)
.L617:
	cmpl	$1, %eax
	je	.L660
.L614:
	movq	128(%rbx), %rdi
	testq	%rdi, %rdi
	je	.L620
	movq	8(%rdi), %rdx
	leaq	8(%rdi), %rcx
	movabsq	$4294967297, %rax
	cmpq	%rax, %rdx
	je	.L661
	movq	__libc_single_threaded@GOTPCREL(%rip), %rax
	cmpb	$0, (%rax)
	je	.L622
	movl	8(%rdi), %eax
	leal	-1(%rax), %edx
	movl	%edx, 8(%rdi)
.L623:
	cmpl	$1, %eax
	je	.L662
.L620:
	movq	112(%rbx), %rdi
	testq	%rdi, %rdi
	je	.L626
	movq	8(%rdi), %rdx
	leaq	8(%rdi), %rcx
	movabsq	$4294967297, %rax
	cmpq	%rax, %rdx
	je	.L663
	movq	__libc_single_threaded@GOTPCREL(%rip), %rax
	cmpb	$0, (%rax)
	je	.L628
	movl	8(%rdi), %eax
	leal	-1(%rax), %edx
	movl	%edx, 8(%rdi)
.L629:
	cmpl	$1, %eax
	je	.L664
.L626:
	movq	96(%rbx), %rdi
	testq	%rdi, %rdi
	je	.L632
	movq	8(%rdi), %rdx
	leaq	8(%rdi), %rcx
	movabsq	$4294967297, %rax
	cmpq	%rax, %rdx
	je	.L665
	movq	__libc_single_threaded@GOTPCREL(%rip), %rax
	cmpb	$0, (%rax)
	je	.L634
	movl	8(%rdi), %eax
	leal	-1(%rax), %edx
	movl	%edx, 8(%rdi)
.L635:
	cmpl	$1, %eax
	je	.L666
.L632:
	movq	72(%rbx), %rdi
	testq	%rdi, %rdi
	je	.L638
	movq	8(%rdi), %rdx
	leaq	8(%rdi), %rcx
	movabsq	$4294967297, %rax
	cmpq	%rax, %rdx
	je	.L667
	movq	__libc_single_threaded@GOTPCREL(%rip), %rax
	cmpb	$0, (%rax)
	je	.L640
	movl	8(%rdi), %eax
	leal	-1(%rax), %edx
	movl	%edx, 8(%rdi)
.L641:
	cmpl	$1, %eax
	je	.L668
.L638:
	movq	56(%rbx), %rdi
	testq	%rdi, %rdi
	je	.L644
	movq	8(%rdi), %rdx
	leaq	8(%rdi), %rcx
	movabsq	$4294967297, %rax
	cmpq	%rax, %rdx
	je	.L669
	movq	__libc_single_threaded@GOTPCREL(%rip), %rax
	cmpb	$0, (%rax)
	je	.L646
	movl	8(%rdi), %eax
	leal	-1(%rax), %edx
	movl	%edx, 8(%rdi)
.L647:
	cmpl	$1, %eax
	je	.L670
.L644:
	movq	16(%rbx), %rdi
	testq	%rdi, %rdi
	je	.L650
	movq	__libc_single_threaded@GOTPCREL(%rip), %rax
	cmpb	$0, (%rax)
	je	.L651
	movl	12(%rdi), %eax
	leal	-1(%rax), %edx
	movl	%edx, 12(%rdi)
.L652:
	cmpl	$1, %eax
	je	.L671
.L650:
	addq	$24, %rsp
	.cfi_remember_state
	.cfi_def_cfa_offset 24
	movq	%rbp, %rdi
	movl	$608, %esi
	popq	%rbx
	.cfi_def_cfa_offset 16
	popq	%rbp
	.cfi_def_cfa_offset 8
	jmp	_ZdlPvm@PLT
	.p2align 4,,10
	.p2align 3
.L671:
	.cfi_restore_state
	movq	(%rdi), %rax
	call	*24(%rax)
	jmp	.L650
	.p2align 4,,10
	.p2align 3
.L651:
	movl	$-1, %eax
	lock xaddl	%eax, 12(%rdi)
	jmp	.L652
	.p2align 4,,10
	.p2align 3
.L661:
	movq	(%rdi), %rax
	movq	%rdi, 8(%rsp)
	movq	$0, 8(%rdi)
	call	*16(%rax)
	movq	8(%rsp), %rdi
	movq	(%rdi), %rax
	call	*24(%rax)
	jmp	.L620
	.p2align 4,,10
	.p2align 3
.L657:
	movq	(%rdi), %rax
	movq	%rdi, 8(%rsp)
	movq	$0, 8(%rdi)
	call	*16(%rax)
	movq	8(%rsp), %rdi
	movq	(%rdi), %rax
	call	*24(%rax)
	jmp	.L608
	.p2align 4,,10
	.p2align 3
.L659:
	movq	(%rdi), %rax
	movq	%rdi, 8(%rsp)
	movq	$0, 8(%rdi)
	call	*16(%rax)
	movq	8(%rsp), %rdi
	movq	(%rdi), %rax
	call	*24(%rax)
	jmp	.L614
	.p2align 4,,10
	.p2align 3
.L665:
	movq	(%rdi), %rax
	movq	%rdi, 8(%rsp)
	movq	$0, 8(%rdi)
	call	*16(%rax)
	movq	8(%rsp), %rdi
	movq	(%rdi), %rax
	call	*24(%rax)
	jmp	.L632
	.p2align 4,,10
	.p2align 3
.L667:
	movq	(%rdi), %rax
	movq	%rdi, 8(%rsp)
	movq	$0, 8(%rdi)
	call	*16(%rax)
	movq	8(%rsp), %rdi
	movq	(%rdi), %rax
	call	*24(%rax)
	jmp	.L638
	.p2align 4,,10
	.p2align 3
.L669:
	movq	(%rdi), %rax
	movq	%rdi, 8(%rsp)
	movq	$0, 8(%rdi)
	call	*16(%rax)
	movq	8(%rsp), %rdi
	movq	(%rdi), %rax
	call	*24(%rax)
	jmp	.L644
	.p2align 4,,10
	.p2align 3
.L655:
	movq	(%rdi), %rax
	movq	%rdi, 8(%rsp)
	movq	$0, 8(%rdi)
	call	*16(%rax)
	movq	8(%rsp), %rdi
	movq	(%rdi), %rax
	call	*24(%rax)
	jmp	.L602
	.p2align 4,,10
	.p2align 3
.L663:
	movq	(%rdi), %rax
	movq	%rdi, 8(%rsp)
	movq	$0, 8(%rdi)
	call	*16(%rax)
	movq	8(%rsp), %rdi
	movq	(%rdi), %rax
	call	*24(%rax)
	jmp	.L626
	.p2align 4,,10
	.p2align 3
.L616:
	movl	$-1, %eax
	lock xaddl	%eax, (%rcx)
	jmp	.L617
	.p2align 4,,10
	.p2align 3
.L622:
	movl	$-1, %eax
	lock xaddl	%eax, (%rcx)
	jmp	.L623
	.p2align 4,,10
	.p2align 3
.L604:
	movl	$-1, %eax
	lock xaddl	%eax, (%rcx)
	jmp	.L605
	.p2align 4,,10
	.p2align 3
.L610:
	movl	$-1, %eax
	lock xaddl	%eax, (%rcx)
	jmp	.L611
	.p2align 4,,10
	.p2align 3
.L628:
	movl	$-1, %eax
	lock xaddl	%eax, (%rcx)
	jmp	.L629
	.p2align 4,,10
	.p2align 3
.L634:
	movl	$-1, %eax
	lock xaddl	%eax, (%rcx)
	jmp	.L635
	.p2align 4,,10
	.p2align 3
.L646:
	movl	$-1, %eax
	lock xaddl	%eax, (%rcx)
	jmp	.L647
	.p2align 4,,10
	.p2align 3
.L640:
	movl	$-1, %eax
	lock xaddl	%eax, (%rcx)
	jmp	.L641
	.p2align 4,,10
	.p2align 3
.L656:
	call	_ZNSt16_Sp_counted_baseILN9__gnu_cxx12_Lock_policyE2EE24_M_release_last_use_coldEv@PLT
	jmp	.L602
	.p2align 4,,10
	.p2align 3
.L664:
	call	_ZNSt16_Sp_counted_baseILN9__gnu_cxx12_Lock_policyE2EE24_M_release_last_use_coldEv@PLT
	jmp	.L626
	.p2align 4,,10
	.p2align 3
.L662:
	call	_ZNSt16_Sp_counted_baseILN9__gnu_cxx12_Lock_policyE2EE24_M_release_last_use_coldEv@PLT
	jmp	.L620
	.p2align 4,,10
	.p2align 3
.L660:
	call	_ZNSt16_Sp_counted_baseILN9__gnu_cxx12_Lock_policyE2EE24_M_release_last_use_coldEv@PLT
	jmp	.L614
	.p2align 4,,10
	.p2align 3
.L658:
	call	_ZNSt16_Sp_counted_baseILN9__gnu_cxx12_Lock_policyE2EE24_M_release_last_use_coldEv@PLT
	jmp	.L608
	.p2align 4,,10
	.p2align 3
.L668:
	call	_ZNSt16_Sp_counted_baseILN9__gnu_cxx12_Lock_policyE2EE24_M_release_last_use_coldEv@PLT
	jmp	.L638
	.p2align 4,,10
	.p2align 3
.L666:
	call	_ZNSt16_Sp_counted_baseILN9__gnu_cxx12_Lock_policyE2EE24_M_release_last_use_coldEv@PLT
	jmp	.L632
	.p2align 4,,10
	.p2align 3
.L670:
	call	_ZNSt16_Sp_counted_baseILN9__gnu_cxx12_Lock_policyE2EE24_M_release_last_use_coldEv@PLT
	jmp	.L644
	.cfi_endproc
.LFE10587:
	.size	_ZThn16_N8asiodnp311LinkSessionD0Ev, .-_ZThn16_N8asiodnp311LinkSessionD0Ev
	.p2align 4
	.weak	_ZThn40_N8asiodnp311LinkSessionD0Ev
	.type	_ZThn40_N8asiodnp311LinkSessionD0Ev, @function
_ZThn40_N8asiodnp311LinkSessionD0Ev:
.LFB10588:
	.cfi_startproc
	pushq	%rbp
	.cfi_def_cfa_offset 16
	.cfi_offset 6, -16
	leaq	-40(%rdi), %rbp
	pushq	%rbx
	.cfi_def_cfa_offset 24
	.cfi_offset 3, -24
	movq	%rdi, %rbx
	subq	$24, %rsp
	.cfi_def_cfa_offset 48
	movq	_ZTVN8asiodnp311LinkSessionE@GOTPCREL(%rip), %rax
	leaq	96(%rax), %rdx
	leaq	16(%rax), %rsi
	movq	%rdx, %xmm1
	movq	%rsi, %xmm0
	leaq	144(%rax), %rdx
	movq	%rdx, -24(%rdi)
	punpcklqdq	%xmm1, %xmm0
	leaq	224(%rax), %rdx
	addq	$184, %rax
	movups	%xmm0, -40(%rdi)
	movq	%rdx, %xmm2
	movq	%rax, %xmm0
	punpcklqdq	%xmm2, %xmm0
	movups	%xmm0, (%rdi)
	movq	560(%rdi), %rdi
	testq	%rdi, %rdi
	je	.L674
	movq	8(%rdi), %rdx
	leaq	8(%rdi), %rcx
	movabsq	$4294967297, %rax
	cmpq	%rax, %rdx
	je	.L727
	movq	__libc_single_threaded@GOTPCREL(%rip), %rax
	cmpb	$0, (%rax)
	je	.L676
	movl	8(%rdi), %eax
	leal	-1(%rax), %edx
	movl	%edx, 8(%rdi)
.L677:
	cmpl	$1, %eax
	je	.L728
.L674:
	leaq	528(%rbx), %rdi
	call	_ZN7openpal8TimerRefD1Ev@PLT
	movq	136(%rbx), %rdi
	testq	%rdi, %rdi
	je	.L680
	movq	8(%rdi), %rdx
	leaq	8(%rdi), %rcx
	movabsq	$4294967297, %rax
	cmpq	%rax, %rdx
	je	.L729
	movq	__libc_single_threaded@GOTPCREL(%rip), %rax
	cmpb	$0, (%rax)
	je	.L682
	movl	8(%rdi), %eax
	leal	-1(%rax), %edx
	movl	%edx, 8(%rdi)
.L683:
	cmpl	$1, %eax
	je	.L730
.L680:
	movq	120(%rbx), %rdi
	testq	%rdi, %rdi
	je	.L686
	movq	8(%rdi), %rdx
	leaq	8(%rdi), %rcx
	movabsq	$4294967297, %rax
	cmpq	%rax, %rdx
	je	.L731
	movq	__libc_single_threaded@GOTPCREL(%rip), %rax
	cmpb	$0, (%rax)
	je	.L688
	movl	8(%rdi), %eax
	leal	-1(%rax), %edx
	movl	%edx, 8(%rdi)
.L689:
	cmpl	$1, %eax
	je	.L732
.L686:
	movq	104(%rbx), %rdi
	testq	%rdi, %rdi
	je	.L692
	movq	8(%rdi), %rdx
	leaq	8(%rdi), %rcx
	movabsq	$4294967297, %rax
	cmpq	%rax, %rdx
	je	.L733
	movq	__libc_single_threaded@GOTPCREL(%rip), %rax
	cmpb	$0, (%rax)
	je	.L694
	movl	8(%rdi), %eax
	leal	-1(%rax), %edx
	movl	%edx, 8(%rdi)
.L695:
	cmpl	$1, %eax
	je	.L734
.L692:
	movq	88(%rbx), %rdi
	testq	%rdi, %rdi
	je	.L698
	movq	8(%rdi), %rdx
	leaq	8(%rdi), %rcx
	movabsq	$4294967297, %rax
	cmpq	%rax, %rdx
	je	.L735
	movq	__libc_single_threaded@GOTPCREL(%rip), %rax
	cmpb	$0, (%rax)
	je	.L700
	movl	8(%rdi), %eax
	leal	-1(%rax), %edx
	movl	%edx, 8(%rdi)
.L701:
	cmpl	$1, %eax
	je	.L736
.L698:
	movq	72(%rbx), %rdi
	testq	%rdi, %rdi
	je	.L704
	movq	8(%rdi), %rdx
	leaq	8(%rdi), %rcx
	movabsq	$4294967297, %rax
	cmpq	%rax, %rdx
	je	.L737
	movq	__libc_single_threaded@GOTPCREL(%rip), %rax
	cmpb	$0, (%rax)
	je	.L706
	movl	8(%rdi), %eax
	leal	-1(%rax), %edx
	movl	%edx, 8(%rdi)
.L707:
	cmpl	$1, %eax
	je	.L738
.L704:
	movq	48(%rbx), %rdi
	testq	%rdi, %rdi
	je	.L710
	movq	8(%rdi), %rdx
	leaq	8(%rdi), %rcx
	movabsq	$4294967297, %rax
	cmpq	%rax, %rdx
	je	.L739
	movq	__libc_single_threaded@GOTPCREL(%rip), %rax
	cmpb	$0, (%rax)
	je	.L712
	movl	8(%rdi), %eax
	leal	-1(%rax), %edx
	movl	%edx, 8(%rdi)
.L713:
	cmpl	$1, %eax
	je	.L740
.L710:
	movq	32(%rbx), %rdi
	testq	%rdi, %rdi
	je	.L716
	movq	8(%rdi), %rdx
	leaq	8(%rdi), %rcx
	movabsq	$4294967297, %rax
	cmpq	%rax, %rdx
	je	.L741
	movq	__libc_single_threaded@GOTPCREL(%rip), %rax
	cmpb	$0, (%rax)
	je	.L718
	movl	8(%rdi), %eax
	leal	-1(%rax), %edx
	movl	%edx, 8(%rdi)
.L719:
	cmpl	$1, %eax
	je	.L742
.L716:
	movq	-8(%rbx), %rdi
	testq	%rdi, %rdi
	je	.L722
	movq	__libc_single_threaded@GOTPCREL(%rip), %rax
	cmpb	$0, (%rax)
	je	.L723
	movl	12(%rdi), %eax
	leal	-1(%rax), %edx
	movl	%edx, 12(%rdi)
.L724:
	cmpl	$1, %eax
	je	.L743
.L722:
	addq	$24, %rsp
	.cfi_remember_state
	.cfi_def_cfa_offset 24
	movq	%rbp, %rdi
	movl	$608, %esi
	popq	%rbx
	.cfi_def_cfa_offset 16
	popq	%rbp
	.cfi_def_cfa_offset 8
	jmp	_ZdlPvm@PLT
	.p2align 4,,10
	.p2align 3
.L743:
	.cfi_restore_state
	movq	(%rdi), %rax
	call	*24(%rax)
	jmp	.L722
	.p2align 4,,10
	.p2align 3
.L723:
	movl	$-1, %eax
	lock xaddl	%eax, 12(%rdi)
	jmp	.L724
	.p2align 4,,10
	.p2align 3
.L733:
	movq	(%rdi), %rax
	movq	%rdi, 8(%rsp)
	movq	$0, 8(%rdi)
	call	*16(%rax)
	movq	8(%rsp), %rdi
	movq	(%rdi), %rax
	call	*24(%rax)
	jmp	.L692
	.p2align 4,,10
	.p2align 3
.L729:
	movq	(%rdi), %rax
	movq	%rdi, 8(%rsp)
	movq	$0, 8(%rdi)
	call	*16(%rax)
	movq	8(%rsp), %rdi
	movq	(%rdi), %rax
	call	*24(%rax)
	jmp	.L680
	.p2align 4,,10
	.p2align 3
.L731:
	movq	(%rdi), %rax
	movq	%rdi, 8(%rsp)
	movq	$0, 8(%rdi)
	call	*16(%rax)
	movq	8(%rsp), %rdi
	movq	(%rdi), %rax
	call	*24(%rax)
	jmp	.L686
	.p2align 4,,10
	.p2align 3
.L737:
	movq	(%rdi), %rax
	movq	%rdi, 8(%rsp)
	movq	$0, 8(%rdi)
	call	*16(%rax)
	movq	8(%rsp), %rdi
	movq	(%rdi), %rax
	call	*24(%rax)
	jmp	.L704
	.p2align 4,,10
	.p2align 3
.L739:
	movq	(%rdi), %rax
	movq	%rdi, 8(%rsp)
	movq	$0, 8(%rdi)
	call	*16(%rax)
	movq	8(%rsp), %rdi
	movq	(%rdi), %rax
	call	*24(%rax)
	jmp	.L710
	.p2align 4,,10
	.p2align 3
.L741:
	movq	(%rdi), %rax
	movq	%rdi, 8(%rsp)
	movq	$0, 8(%rdi)
	call	*16(%rax)
	movq	8(%rsp), %rdi
	movq	(%rdi), %rax
	call	*24(%rax)
	jmp	.L716
	.p2align 4,,10
	.p2align 3
.L727:
	movq	(%rdi), %rax
	movq	%rdi, 8(%rsp)
	movq	$0, 8(%rdi)
	call	*16(%rax)
	movq	8(%rsp), %rdi
	movq	(%rdi), %rax
	call	*24(%rax)
	jmp	.L674
	.p2align 4,,10
	.p2align 3
.L735:
	movq	(%rdi), %rax
	movq	%rdi, 8(%rsp)
	movq	$0, 8(%rdi)
	call	*16(%rax)
	movq	8(%rsp), %rdi
	movq	(%rdi), %rax
	call	*24(%rax)
	jmp	.L698
	.p2align 4,,10
	.p2align 3
.L688:
	movl	$-1, %eax
	lock xaddl	%eax, (%rcx)
	jmp	.L689
	.p2align 4,,10
	.p2align 3
.L694:
	movl	$-1, %eax
	lock xaddl	%eax, (%rcx)
	jmp	.L695
	.p2align 4,,10
	.p2align 3
.L676:
	movl	$-1, %eax
	lock xaddl	%eax, (%rcx)
	jmp	.L677
	.p2align 4,,10
	.p2align 3
.L682:
	movl	$-1, %eax
	lock xaddl	%eax, (%rcx)
	jmp	.L683
	.p2align 4,,10
	.p2align 3
.L700:
	movl	$-1, %eax
	lock xaddl	%eax, (%rcx)
	jmp	.L701
	.p2align 4,,10
	.p2align 3
.L706:
	movl	$-1, %eax
	lock xaddl	%eax, (%rcx)
	jmp	.L707
	.p2align 4,,10
	.p2align 3
.L718:
	movl	$-1, %eax
	lock xaddl	%eax, (%rcx)
	jmp	.L719
	.p2align 4,,10
	.p2align 3
.L712:
	movl	$-1, %eax
	lock xaddl	%eax, (%rcx)
	jmp	.L713
	.p2align 4,,10
	.p2align 3
.L728:
	call	_ZNSt16_Sp_counted_baseILN9__gnu_cxx12_Lock_policyE2EE24_M_release_last_use_coldEv@PLT
	jmp	.L674
	.p2align 4,,10
	.p2align 3
.L736:
	call	_ZNSt16_Sp_counted_baseILN9__gnu_cxx12_Lock_policyE2EE24_M_release_last_use_coldEv@PLT
	jmp	.L698
	.p2align 4,,10
	.p2align 3
.L734:
	call	_ZNSt16_Sp_counted_baseILN9__gnu_cxx12_Lock_policyE2EE24_M_release_last_use_coldEv@PLT
	jmp	.L692
	.p2align 4,,10
	.p2align 3
.L732:
	call	_ZNSt16_Sp_counted_baseILN9__gnu_cxx12_Lock_policyE2EE24_M_release_last_use_coldEv@PLT
	jmp	.L686
	.p2align 4,,10
	.p2align 3
.L730:
	call	_ZNSt16_Sp_counted_baseILN9__gnu_cxx12_Lock_policyE2EE24_M_release_last_use_coldEv@PLT
	jmp	.L680
	.p2align 4,,10
	.p2align 3
.L740:
	call	_ZNSt16_Sp_counted_baseILN9__gnu_cxx12_Lock_policyE2EE24_M_release_last_use_coldEv@PLT
	jmp	.L710
	.p2align 4,,10
	.p2align 3
.L738:
	call	_ZNSt16_Sp_counted_baseILN9__gnu_cxx12_Lock_policyE2EE24_M_release_last_use_coldEv@PLT
	jmp	.L704
	.p2align 4,,10
	.p2align 3
.L742:
	call	_ZNSt16_Sp_counted_baseILN9__gnu_cxx12_Lock_policyE2EE24_M_release_last_use_coldEv@PLT
	jmp	.L716
	.cfi_endproc
.LFE10588:
	.size	_ZThn40_N8asiodnp311LinkSessionD0Ev, .-_ZThn40_N8asiodnp311LinkSessionD0Ev
	.p2align 4
	.weak	_ZThn48_N8asiodnp311LinkSessionD0Ev
	.type	_ZThn48_N8asiodnp311LinkSessionD0Ev, @function
_ZThn48_N8asiodnp311LinkSessionD0Ev:
.LFB10589:
	.cfi_startproc
	pushq	%rbp
	.cfi_def_cfa_offset 16
	.cfi_offset 6, -16
	leaq	-48(%rdi), %rbp
	pushq	%rbx
	.cfi_def_cfa_offset 24
	.cfi_offset 3, -24
	movq	%rdi, %rbx
	subq	$24, %rsp
	.cfi_def_cfa_offset 48
	movq	_ZTVN8asiodnp311LinkSessionE@GOTPCREL(%rip), %rax
	leaq	96(%rax), %rdx
	leaq	16(%rax), %rsi
	movq	%rdx, %xmm1
	movq	%rsi, %xmm0
	leaq	144(%rax), %rdx
	movq	%rdx, -32(%rdi)
	punpcklqdq	%xmm1, %xmm0
	leaq	224(%rax), %rdx
	addq	$184, %rax
	movups	%xmm0, -48(%rdi)
	movq	%rdx, %xmm2
	movq	%rax, %xmm0
	punpcklqdq	%xmm2, %xmm0
	movups	%xmm0, -8(%rdi)
	movq	552(%rdi), %rdi
	testq	%rdi, %rdi
	je	.L746
	movq	8(%rdi), %rdx
	leaq	8(%rdi), %rcx
	movabsq	$4294967297, %rax
	cmpq	%rax, %rdx
	je	.L799
	movq	__libc_single_threaded@GOTPCREL(%rip), %rax
	cmpb	$0, (%rax)
	je	.L748
	movl	8(%rdi), %eax
	leal	-1(%rax), %edx
	movl	%edx, 8(%rdi)
.L749:
	cmpl	$1, %eax
	je	.L800
.L746:
	leaq	520(%rbx), %rdi
	call	_ZN7openpal8TimerRefD1Ev@PLT
	movq	128(%rbx), %rdi
	testq	%rdi, %rdi
	je	.L752
	movq	8(%rdi), %rdx
	leaq	8(%rdi), %rcx
	movabsq	$4294967297, %rax
	cmpq	%rax, %rdx
	je	.L801
	movq	__libc_single_threaded@GOTPCREL(%rip), %rax
	cmpb	$0, (%rax)
	je	.L754
	movl	8(%rdi), %eax
	leal	-1(%rax), %edx
	movl	%edx, 8(%rdi)
.L755:
	cmpl	$1, %eax
	je	.L802
.L752:
	movq	112(%rbx), %rdi
	testq	%rdi, %rdi
	je	.L758
	movq	8(%rdi), %rdx
	leaq	8(%rdi), %rcx
	movabsq	$4294967297, %rax
	cmpq	%rax, %rdx
	je	.L803
	movq	__libc_single_threaded@GOTPCREL(%rip), %rax
	cmpb	$0, (%rax)
	je	.L760
	movl	8(%rdi), %eax
	leal	-1(%rax), %edx
	movl	%edx, 8(%rdi)
.L761:
	cmpl	$1, %eax
	je	.L804
.L758:
	movq	96(%rbx), %rdi
	testq	%rdi, %rdi
	je	.L764
	movq	8(%rdi), %rdx
	leaq	8(%rdi), %rcx
	movabsq	$4294967297, %rax
	cmpq	%rax, %rdx
	je	.L805
	movq	__libc_single_threaded@GOTPCREL(%rip), %rax
	cmpb	$0, (%rax)
	je	.L766
	movl	8(%rdi), %eax
	leal	-1(%rax), %edx
	movl	%edx, 8(%rdi)
.L767:
	cmpl	$1, %eax
	je	.L806
.L764:
	movq	80(%rbx), %rdi
	testq	%rdi, %rdi
	je	.L770
	movq	8(%rdi), %rdx
	leaq	8(%rdi), %rcx
	movabsq	$4294967297, %rax
	cmpq	%rax, %rdx
	je	.L807
	movq	__libc_single_threaded@GOTPCREL(%rip), %rax
	cmpb	$0, (%rax)
	je	.L772
	movl	8(%rdi), %eax
	leal	-1(%rax), %edx
	movl	%edx, 8(%rdi)
.L773:
	cmpl	$1, %eax
	je	.L808
.L770:
	movq	64(%rbx), %rdi
	testq	%rdi, %rdi
	je	.L776
	movq	8(%rdi), %rdx
	leaq	8(%rdi), %rcx
	movabsq	$4294967297, %rax
	cmpq	%rax, %rdx
	je	.L809
	movq	__libc_single_threaded@GOTPCREL(%rip), %rax
	cmpb	$0, (%rax)
	je	.L778
	movl	8(%rdi), %eax
	leal	-1(%rax), %edx
	movl	%edx, 8(%rdi)
.L779:
	cmpl	$1, %eax
	je	.L810
.L776:
	movq	40(%rbx), %rdi
	testq	%rdi, %rdi
	je	.L782
	movq	8(%rdi), %rdx
	leaq	8(%rdi), %rcx
	movabsq	$4294967297, %rax
	cmpq	%rax, %rdx
	je	.L811
	movq	__libc_single_threaded@GOTPCREL(%rip), %rax
	cmpb	$0, (%rax)
	je	.L784
	movl	8(%rdi), %eax
	leal	-1(%rax), %edx
	movl	%edx, 8(%rdi)
.L785:
	cmpl	$1, %eax
	je	.L812
.L782:
	movq	24(%rbx), %rdi
	testq	%rdi, %rdi
	je	.L788
	movq	8(%rdi), %rdx
	leaq	8(%rdi), %rcx
	movabsq	$4294967297, %rax
	cmpq	%rax, %rdx
	je	.L813
	movq	__libc_single_threaded@GOTPCREL(%rip), %rax
	cmpb	$0, (%rax)
	je	.L790
	movl	8(%rdi), %eax
	leal	-1(%rax), %edx
	movl	%edx, 8(%rdi)
.L791:
	cmpl	$1, %eax
	je	.L814
.L788:
	movq	-16(%rbx), %rdi
	testq	%rdi, %rdi
	je	.L794
	movq	__libc_single_threaded@GOTPCREL(%rip), %rax
	cmpb	$0, (%rax)
	je	.L795
	movl	12(%rdi), %eax
	leal	-1(%rax), %edx
	movl	%edx, 12(%rdi)
.L796:
	cmpl	$1, %eax
	je	.L815
.L794:
	addq	$24, %rsp
	.cfi_remember_state
	.cfi_def_cfa_offset 24
	movq	%rbp, %rdi
	movl	$608, %esi
	popq	%rbx
	.cfi_def_cfa_offset 16
	popq	%rbp
	.cfi_def_cfa_offset 8
	jmp	_ZdlPvm@PLT
	.p2align 4,,10
	.p2align 3
.L815:
	.cfi_restore_state
	movq	(%rdi), %rax
	call	*24(%rax)
	jmp	.L794
	.p2align 4,,10
	.p2align 3
.L795:
	movl	$-1, %eax
	lock xaddl	%eax, 12(%rdi)
	jmp	.L796
	.p2align 4,,10
	.p2align 3
.L805:
	movq	(%rdi), %rax
	movq	%rdi, 8(%rsp)
	movq	$0, 8(%rdi)
	call	*16(%rax)
	movq	8(%rsp), %rdi
	movq	(%rdi), %rax
	call	*24(%rax)
	jmp	.L764
	.p2align 4,,10
	.p2align 3
.L801:
	movq	(%rdi), %rax
	movq	%rdi, 8(%rsp)
	movq	$0, 8(%rdi)
	call	*16(%rax)
	movq	8(%rsp), %rdi
	movq	(%rdi), %rax
	call	*24(%rax)
	jmp	.L752
	.p2align 4,,10
	.p2align 3
.L803:
	movq	(%rdi), %rax
	movq	%rdi, 8(%rsp)
	movq	$0, 8(%rdi)
	call	*16(%rax)
	movq	8(%rsp), %rdi
	movq	(%rdi), %rax
	call	*24(%rax)
	jmp	.L758
	.p2align 4,,10
	.p2align 3
.L809:
	movq	(%rdi), %rax
	movq	%rdi, 8(%rsp)
	movq	$0, 8(%rdi)
	call	*16(%rax)
	movq	8(%rsp), %rdi
	movq	(%rdi), %rax
	call	*24(%rax)
	jmp	.L776
	.p2align 4,,10
	.p2align 3
.L811:
	movq	(%rdi), %rax
	movq	%rdi, 8(%rsp)
	movq	$0, 8(%rdi)
	call	*16(%rax)
	movq	8(%rsp), %rdi
	movq	(%rdi), %rax
	call	*24(%rax)
	jmp	.L782
	.p2align 4,,10
	.p2align 3
.L813:
	movq	(%rdi), %rax
	movq	%rdi, 8(%rsp)
	movq	$0, 8(%rdi)
	call	*16(%rax)
	movq	8(%rsp), %rdi
	movq	(%rdi), %rax
	call	*24(%rax)
	jmp	.L788
	.p2align 4,,10
	.p2align 3
.L799:
	movq	(%rdi), %rax
	movq	%rdi, 8(%rsp)
	movq	$0, 8(%rdi)
	call	*16(%rax)
	movq	8(%rsp), %rdi
	movq	(%rdi), %rax
	call	*24(%rax)
	jmp	.L746
	.p2align 4,,10
	.p2align 3
.L807:
	movq	(%rdi), %rax
	movq	%rdi, 8(%rsp)
	movq	$0, 8(%rdi)
	call	*16(%rax)
	movq	8(%rsp), %rdi
	movq	(%rdi), %rax
	call	*24(%rax)
	jmp	.L770
	.p2align 4,,10
	.p2align 3
.L760:
	movl	$-1, %eax
	lock xaddl	%eax, (%rcx)
	jmp	.L761
	.p2align 4,,10
	.p2align 3
.L766:
	movl	$-1, %eax
	lock xaddl	%eax, (%rcx)
	jmp	.L767
	.p2align 4,,10
	.p2align 3
.L748:
	movl	$-1, %eax
	lock xaddl	%eax, (%rcx)
	jmp	.L749
	.p2align 4,,10
	.p2align 3
.L754:
	movl	$-1, %eax
	lock xaddl	%eax, (%rcx)
	jmp	.L755
	.p2align 4,,10
	.p2align 3
.L772:
	movl	$-1, %eax
	lock xaddl	%eax, (%rcx)
	jmp	.L773
	.p2align 4,,10
	.p2align 3
.L778:
	movl	$-1, %eax
	lock xaddl	%eax, (%rcx)
	jmp	.L779
	.p2align 4,,10
	.p2align 3
.L790:
	movl	$-1, %eax
	lock xaddl	%eax, (%rcx)
	jmp	.L791
	.p2align 4,,10
	.p2align 3
.L784:
	movl	$-1, %eax
	lock xaddl	%eax, (%rcx)
	jmp	.L785
	.p2align 4,,10
	.p2align 3
.L800:
	call	_ZNSt16_Sp_counted_baseILN9__gnu_cxx12_Lock_policyE2EE24_M_release_last_use_coldEv@PLT
	jmp	.L746
	.p2align 4,,10
	.p2align 3
.L808:
	call	_ZNSt16_Sp_counted_baseILN9__gnu_cxx12_Lock_policyE2EE24_M_release_last_use_coldEv@PLT
	jmp	.L770
	.p2align 4,,10
	.p2align 3
.L806:
	call	_ZNSt16_Sp_counted_baseILN9__gnu_cxx12_Lock_policyE2EE24_M_release_last_use_coldEv@PLT
	jmp	.L764
	.p2align 4,,10
	.p2align 3
.L804:
	call	_ZNSt16_Sp_counted_baseILN9__gnu_cxx12_Lock_policyE2EE24_M_release_last_use_coldEv@PLT
	jmp	.L758
	.p2align 4,,10
	.p2align 3
.L802:
	call	_ZNSt16_Sp_counted_baseILN9__gnu_cxx12_Lock_policyE2EE24_M_release_last_use_coldEv@PLT
	jmp	.L752
	.p2align 4,,10
	.p2align 3
.L812:
	call	_ZNSt16_Sp_counted_baseILN9__gnu_cxx12_Lock_policyE2EE24_M_release_last_use_coldEv@PLT
	jmp	.L782
	.p2align 4,,10
	.p2align 3
.L810:
	call	_ZNSt16_Sp_counted_baseILN9__gnu_cxx12_Lock_policyE2EE24_M_release_last_use_coldEv@PLT
	jmp	.L776
	.p2align 4,,10
	.p2align 3
.L814:
	call	_ZNSt16_Sp_counted_baseILN9__gnu_cxx12_Lock_policyE2EE24_M_release_last_use_coldEv@PLT
	jmp	.L788
	.cfi_endproc
.LFE10589:
	.size	_ZThn48_N8asiodnp311LinkSessionD0Ev, .-_ZThn48_N8asiodnp311LinkSessionD0Ev
	.align 2
	.p2align 4
	.weak	_ZN8asiodnp311LinkSessionD0Ev
	.type	_ZN8asiodnp311LinkSessionD0Ev, @function
_ZN8asiodnp311LinkSessionD0Ev:
.LFB10418:
	.cfi_startproc
	pushq	%rbx
	.cfi_def_cfa_offset 16
	.cfi_offset 3, -16
	movq	%rdi, %rbx
	subq	$16, %rsp
	.cfi_def_cfa_offset 32
	movq	_ZTVN8asiodnp311LinkSessionE@GOTPCREL(%rip), %rax
	leaq	96(%rax), %rdx
	leaq	16(%rax), %rsi
	movq	%rdx, %xmm1
	movq	%rsi, %xmm0
	leaq	144(%rax), %rdx
	movq	%rdx, 16(%rdi)
	punpcklqdq	%xmm1, %xmm0
	leaq	224(%rax), %rdx
	addq	$184, %rax
	movups	%xmm0, (%rdi)
	movq	%rdx, %xmm2
	movq	%rax, %xmm0
	punpcklqdq	%xmm2, %xmm0
	movups	%xmm0, 40(%rdi)
	movq	600(%rdi), %rdi
	testq	%rdi, %rdi
	je	.L818
	movq	8(%rdi), %rdx
	leaq	8(%rdi), %rcx
	movabsq	$4294967297, %rax
	cmpq	%rax, %rdx
	je	.L871
	movq	__libc_single_threaded@GOTPCREL(%rip), %rax
	cmpb	$0, (%rax)
	je	.L820
	movl	8(%rdi), %eax
	leal	-1(%rax), %edx
	movl	%edx, 8(%rdi)
.L821:
	cmpl	$1, %eax
	je	.L872
.L818:
	leaq	568(%rbx), %rdi
	call	_ZN7openpal8TimerRefD1Ev@PLT
	movq	176(%rbx), %rdi
	testq	%rdi, %rdi
	je	.L824
	movq	8(%rdi), %rdx
	leaq	8(%rdi), %rcx
	movabsq	$4294967297, %rax
	cmpq	%rax, %rdx
	je	.L873
	movq	__libc_single_threaded@GOTPCREL(%rip), %rax
	cmpb	$0, (%rax)
	je	.L826
	movl	8(%rdi), %eax
	leal	-1(%rax), %edx
	movl	%edx, 8(%rdi)
.L827:
	cmpl	$1, %eax
	je	.L874
.L824:
	movq	160(%rbx), %rdi
	testq	%rdi, %rdi
	je	.L830
	movq	8(%rdi), %rdx
	leaq	8(%rdi), %rcx
	movabsq	$4294967297, %rax
	cmpq	%rax, %rdx
	je	.L875
	movq	__libc_single_threaded@GOTPCREL(%rip), %rax
	cmpb	$0, (%rax)
	je	.L832
	movl	8(%rdi), %eax
	leal	-1(%rax), %edx
	movl	%edx, 8(%rdi)
.L833:
	cmpl	$1, %eax
	je	.L876
.L830:
	movq	144(%rbx), %rdi
	testq	%rdi, %rdi
	je	.L836
	movq	8(%rdi), %rdx
	leaq	8(%rdi), %rcx
	movabsq	$4294967297, %rax
	cmpq	%rax, %rdx
	je	.L877
	movq	__libc_single_threaded@GOTPCREL(%rip), %rax
	cmpb	$0, (%rax)
	je	.L838
	movl	8(%rdi), %eax
	leal	-1(%rax), %edx
	movl	%edx, 8(%rdi)
.L839:
	cmpl	$1, %eax
	je	.L878
.L836:
	movq	128(%rbx), %rdi
	testq	%rdi, %rdi
	je	.L842
	movq	8(%rdi), %rdx
	leaq	8(%rdi), %rcx
	movabsq	$4294967297, %rax
	cmpq	%rax, %rdx
	je	.L879
	movq	__libc_single_threaded@GOTPCREL(%rip), %rax
	cmpb	$0, (%rax)
	je	.L844
	movl	8(%rdi), %eax
	leal	-1(%rax), %edx
	movl	%edx, 8(%rdi)
.L845:
	cmpl	$1, %eax
	je	.L880
.L842:
	movq	112(%rbx), %rdi
	testq	%rdi, %rdi
	je	.L848
	movq	8(%rdi), %rdx
	leaq	8(%rdi), %rcx
	movabsq	$4294967297, %rax
	cmpq	%rax, %rdx
	je	.L881
	movq	__libc_single_threaded@GOTPCREL(%rip), %rax
	cmpb	$0, (%rax)
	je	.L850
	movl	8(%rdi), %eax
	leal	-1(%rax), %edx
	movl	%edx, 8(%rdi)
.L851:
	cmpl	$1, %eax
	je	.L882
.L848:
	movq	88(%rbx), %rdi
	testq	%rdi, %rdi
	je	.L854
	movq	8(%rdi), %rdx
	leaq	8(%rdi), %rcx
	movabsq	$4294967297, %rax
	cmpq	%rax, %rdx
	je	.L883
	movq	__libc_single_threaded@GOTPCREL(%rip), %rax
	cmpb	$0, (%rax)
	je	.L856
	movl	8(%rdi), %eax
	leal	-1(%rax), %edx
	movl	%edx, 8(%rdi)
.L857:
	cmpl	$1, %eax
	je	.L884
.L854:
	movq	72(%rbx), %rdi
	testq	%rdi, %rdi
	je	.L860
	movq	8(%rdi), %rdx
	leaq	8(%rdi), %rcx
	movabsq	$4294967297, %rax
	cmpq	%rax, %rdx
	je	.L885
	movq	__libc_single_threaded@GOTPCREL(%rip), %rax
	cmpb	$0, (%rax)
	je	.L862
	movl	8(%rdi), %eax
	leal	-1(%rax), %edx
	movl	%edx, 8(%rdi)
.L863:
	cmpl	$1, %eax
	je	.L886
.L860:
	movq	32(%rbx), %rdi
	testq	%rdi, %rdi
	je	.L866
	movq	__libc_single_threaded@GOTPCREL(%rip), %rax
	cmpb	$0, (%rax)
	je	.L867
	movl	12(%rdi), %eax
	leal	-1(%rax), %edx
	movl	%edx, 12(%rdi)
.L868:
	cmpl	$1, %eax
	je	.L887
.L866:
	addq	$16, %rsp
	.cfi_remember_state
	.cfi_def_cfa_offset 16
	movq	%rbx, %rdi
	movl	$608, %esi
	popq	%rbx
	.cfi_def_cfa_offset 8
	jmp	_ZdlPvm@PLT
	.p2align 4,,10
	.p2align 3
.L887:
	.cfi_restore_state
	movq	(%rdi), %rax
	call	*24(%rax)
	jmp	.L866
	.p2align 4,,10
	.p2align 3
.L867:
	movl	$-1, %eax
	lock xaddl	%eax, 12(%rdi)
	jmp	.L868
	.p2align 4,,10
	.p2align 3
.L877:
	movq	(%rdi), %rax
	movq	%rdi, 8(%rsp)
	movq	$0, 8(%rdi)
	call	*16(%rax)
	movq	8(%rsp), %rdi
	movq	(%rdi), %rax
	call	*24(%rax)
	jmp	.L836
	.p2align 4,,10
	.p2align 3
.L873:
	movq	(%rdi), %rax
	movq	%rdi, 8(%rsp)
	movq	$0, 8(%rdi)
	call	*16(%rax)
	movq	8(%rsp), %rdi
	movq	(%rdi), %rax
	call	*24(%rax)
	jmp	.L824
	.p2align 4,,10
	.p2align 3
.L875:
	movq	(%rdi), %rax
	movq	%rdi, 8(%rsp)
	movq	$0, 8(%rdi)
	call	*16(%rax)
	movq	8(%rsp), %rdi
	movq	(%rdi), %rax
	call	*24(%rax)
	jmp	.L830
	.p2align 4,,10
	.p2align 3
.L881:
	movq	(%rdi), %rax
	movq	%rdi, 8(%rsp)
	movq	$0, 8(%rdi)
	call	*16(%rax)
	movq	8(%rsp), %rdi
	movq	(%rdi), %rax
	call	*24(%rax)
	jmp	.L848
	.p2align 4,,10
	.p2align 3
.L883:
	movq	(%rdi), %rax
	movq	%rdi, 8(%rsp)
	movq	$0, 8(%rdi)
	call	*16(%rax)
	movq	8(%rsp), %rdi
	movq	(%rdi), %rax
	call	*24(%rax)
	jmp	.L854
	.p2align 4,,10
	.p2align 3
.L885:
	movq	(%rdi), %rax
	movq	%rdi, 8(%rsp)
	movq	$0, 8(%rdi)
	call	*16(%rax)
	movq	8(%rsp), %rdi
	movq	(%rdi), %rax
	call	*24(%rax)
	jmp	.L860
	.p2align 4,,10
	.p2align 3
.L871:
	movq	(%rdi), %rax
	movq	%rdi, 8(%rsp)
	movq	$0, 8(%rdi)
	call	*16(%rax)
	movq	8(%rsp), %rdi
	movq	(%rdi), %rax
	call	*24(%rax)
	jmp	.L818
	.p2align 4,,10
	.p2align 3
.L879:
	movq	(%rdi), %rax
	movq	%rdi, 8(%rsp)
	movq	$0, 8(%rdi)
	call	*16(%rax)
	movq	8(%rsp), %rdi
	movq	(%rdi), %rax
	call	*24(%rax)
	jmp	.L842
	.p2align 4,,10
	.p2align 3
.L832:
	movl	$-1, %eax
	lock xaddl	%eax, (%rcx)
	jmp	.L833
	.p2align 4,,10
	.p2align 3
.L838:
	movl	$-1, %eax
	lock xaddl	%eax, (%rcx)
	jmp	.L839
	.p2align 4,,10
	.p2align 3
.L820:
	movl	$-1, %eax
	lock xaddl	%eax, (%rcx)
	jmp	.L821
	.p2align 4,,10
	.p2align 3
.L826:
	movl	$-1, %eax
	lock xaddl	%eax, (%rcx)
	jmp	.L827
	.p2align 4,,10
	.p2align 3
.L844:
	movl	$-1, %eax
	lock xaddl	%eax, (%rcx)
	jmp	.L845
	.p2align 4,,10
	.p2align 3
.L850:
	movl	$-1, %eax
	lock xaddl	%eax, (%rcx)
	jmp	.L851
	.p2align 4,,10
	.p2align 3
.L862:
	movl	$-1, %eax
	lock xaddl	%eax, (%rcx)
	jmp	.L863
	.p2align 4,,10
	.p2align 3
.L856:
	movl	$-1, %eax
	lock xaddl	%eax, (%rcx)
	jmp	.L857
	.p2align 4,,10
	.p2align 3
.L872:
	call	_ZNSt16_Sp_counted_baseILN9__gnu_cxx12_Lock_policyE2EE24_M_release_last_use_coldEv@PLT
	jmp	.L818
	.p2align 4,,10
	.p2align 3
.L880:
	call	_ZNSt16_Sp_counted_baseILN9__gnu_cxx12_Lock_policyE2EE24_M_release_last_use_coldEv@PLT
	jmp	.L842
	.p2align 4,,10
	.p2align 3
.L878:
	call	_ZNSt16_Sp_counted_baseILN9__gnu_cxx12_Lock_policyE2EE24_M_release_last_use_coldEv@PLT
	jmp	.L836
	.p2align 4,,10
	.p2align 3
.L876:
	call	_ZNSt16_Sp_counted_baseILN9__gnu_cxx12_Lock_policyE2EE24_M_release_last_use_coldEv@PLT
	jmp	.L830
	.p2align 4,,10
	.p2align 3
.L874:
	call	_ZNSt16_Sp_counted_baseILN9__gnu_cxx12_Lock_policyE2EE24_M_release_last_use_coldEv@PLT
	jmp	.L824
	.p2align 4,,10
	.p2align 3
.L884:
	call	_ZNSt16_Sp_counted_baseILN9__gnu_cxx12_Lock_policyE2EE24_M_release_last_use_coldEv@PLT
	jmp	.L854
	.p2align 4,,10
	.p2align 3
.L882:
	call	_ZNSt16_Sp_counted_baseILN9__gnu_cxx12_Lock_policyE2EE24_M_release_last_use_coldEv@PLT
	jmp	.L848
	.p2align 4,,10
	.p2align 3
.L886:
	call	_ZNSt16_Sp_counted_baseILN9__gnu_cxx12_Lock_policyE2EE24_M_release_last_use_coldEv@PLT
	jmp	.L860
	.cfi_endproc
.LFE10418:
	.size	_ZN8asiodnp311LinkSessionD0Ev, .-_ZN8asiodnp311LinkSessionD0Ev
	.section	.text._ZN8asiodnp311LinkSessionD2Ev,"axG",@progbits,_ZN8asiodnp311LinkSessionD5Ev,comdat
	.align 2
	.p2align 4
	.weak	_ZN8asiodnp311LinkSessionD2Ev
	.type	_ZN8asiodnp311LinkSessionD2Ev, @function
_ZN8asiodnp311LinkSessionD2Ev:
.LFB10416:
	.cfi_startproc
	pushq	%rbx
	.cfi_def_cfa_offset 16
	.cfi_offset 3, -16
	movq	%rdi, %rbx
	subq	$16, %rsp
	.cfi_def_cfa_offset 32
	movq	_ZTVN8asiodnp311LinkSessionE@GOTPCREL(%rip), %rax
	leaq	96(%rax), %rdx
	leaq	16(%rax), %rsi
	movq	%rdx, %xmm1
	movq	%rsi, %xmm0
	leaq	144(%rax), %rdx
	movq	%rdx, 16(%rdi)
	punpcklqdq	%xmm1, %xmm0
	leaq	224(%rax), %rdx
	addq	$184, %rax
	movups	%xmm0, (%rdi)
	movq	%rdx, %xmm2
	movq	%rax, %xmm0
	punpcklqdq	%xmm2, %xmm0
	movups	%xmm0, 40(%rdi)
	movq	600(%rdi), %rdi
	testq	%rdi, %rdi
	je	.L890
	movq	8(%rdi), %rdx
	leaq	8(%rdi), %rcx
	movabsq	$4294967297, %rax
	cmpq	%rax, %rdx
	je	.L943
	movq	__libc_single_threaded@GOTPCREL(%rip), %rax
	cmpb	$0, (%rax)
	je	.L892
	movl	8(%rdi), %eax
	leal	-1(%rax), %edx
	movl	%edx, 8(%rdi)
.L893:
	cmpl	$1, %eax
	je	.L944
.L890:
	leaq	568(%rbx), %rdi
	call	_ZN7openpal8TimerRefD1Ev@PLT
	movq	176(%rbx), %rdi
	testq	%rdi, %rdi
	je	.L896
	movq	8(%rdi), %rdx
	leaq	8(%rdi), %rcx
	movabsq	$4294967297, %rax
	cmpq	%rax, %rdx
	je	.L945
	movq	__libc_single_threaded@GOTPCREL(%rip), %rax
	cmpb	$0, (%rax)
	je	.L898
	movl	8(%rdi), %eax
	leal	-1(%rax), %edx
	movl	%edx, 8(%rdi)
.L899:
	cmpl	$1, %eax
	je	.L946
.L896:
	movq	160(%rbx), %rdi
	testq	%rdi, %rdi
	je	.L902
	movq	8(%rdi), %rdx
	leaq	8(%rdi), %rcx
	movabsq	$4294967297, %rax
	cmpq	%rax, %rdx
	je	.L947
	movq	__libc_single_threaded@GOTPCREL(%rip), %rax
	cmpb	$0, (%rax)
	je	.L904
	movl	8(%rdi), %eax
	leal	-1(%rax), %edx
	movl	%edx, 8(%rdi)
.L905:
	cmpl	$1, %eax
	je	.L948
.L902:
	movq	144(%rbx), %rdi
	testq	%rdi, %rdi
	je	.L908
	movq	8(%rdi), %rdx
	leaq	8(%rdi), %rcx
	movabsq	$4294967297, %rax
	cmpq	%rax, %rdx
	je	.L949
	movq	__libc_single_threaded@GOTPCREL(%rip), %rax
	cmpb	$0, (%rax)
	je	.L910
	movl	8(%rdi), %eax
	leal	-1(%rax), %edx
	movl	%edx, 8(%rdi)
.L911:
	cmpl	$1, %eax
	je	.L950
.L908:
	movq	128(%rbx), %rdi
	testq	%rdi, %rdi
	je	.L914
	movq	8(%rdi), %rdx
	leaq	8(%rdi), %rcx
	movabsq	$4294967297, %rax
	cmpq	%rax, %rdx
	je	.L951
	movq	__libc_single_threaded@GOTPCREL(%rip), %rax
	cmpb	$0, (%rax)
	je	.L916
	movl	8(%rdi), %eax
	leal	-1(%rax), %edx
	movl	%edx, 8(%rdi)
.L917:
	cmpl	$1, %eax
	je	.L952
.L914:
	movq	112(%rbx), %rdi
	testq	%rdi, %rdi
	je	.L920
	movq	8(%rdi), %rdx
	leaq	8(%rdi), %rcx
	movabsq	$4294967297, %rax
	cmpq	%rax, %rdx
	je	.L953
	movq	__libc_single_threaded@GOTPCREL(%rip), %rax
	cmpb	$0, (%rax)
	je	.L922
	movl	8(%rdi), %eax
	leal	-1(%rax), %edx
	movl	%edx, 8(%rdi)
.L923:
	cmpl	$1, %eax
	je	.L954
.L920:
	movq	88(%rbx), %rdi
	testq	%rdi, %rdi
	je	.L926
	movq	8(%rdi), %rdx
	leaq	8(%rdi), %rcx
	movabsq	$4294967297, %rax
	cmpq	%rax, %rdx
	je	.L955
	movq	__libc_single_threaded@GOTPCREL(%rip), %rax
	cmpb	$0, (%rax)
	je	.L928
	movl	8(%rdi), %eax
	leal	-1(%rax), %edx
	movl	%edx, 8(%rdi)
.L929:
	cmpl	$1, %eax
	je	.L956
.L926:
	movq	72(%rbx), %rdi
	testq	%rdi, %rdi
	je	.L932
	movq	8(%rdi), %rdx
	leaq	8(%rdi), %rcx
	movabsq	$4294967297, %rax
	cmpq	%rax, %rdx
	je	.L957
	movq	__libc_single_threaded@GOTPCREL(%rip), %rax
	cmpb	$0, (%rax)
	je	.L934
	movl	8(%rdi), %eax
	leal	-1(%rax), %edx
	movl	%edx, 8(%rdi)
.L935:
	cmpl	$1, %eax
	je	.L958
.L932:
	movq	32(%rbx), %rdi
	testq	%rdi, %rdi
	je	.L888
	movq	__libc_single_threaded@GOTPCREL(%rip), %rax
	cmpb	$0, (%rax)
	je	.L939
	movl	12(%rdi), %eax
	leal	-1(%rax), %edx
	movl	%edx, 12(%rdi)
.L940:
	cmpl	$1, %eax
	je	.L959
.L888:
	addq	$16, %rsp
	.cfi_remember_state
	.cfi_def_cfa_offset 16
	popq	%rbx
	.cfi_def_cfa_offset 8
	ret
	.p2align 4,,10
	.p2align 3
.L959:
	.cfi_restore_state
	movq	(%rdi), %rax
	movq	24(%rax), %rax
	addq	$16, %rsp
	.cfi_remember_state
	.cfi_def_cfa_offset 16
	popq	%rbx
	.cfi_def_cfa_offset 8
	jmp	*%rax
	.p2align 4,,10
	.p2align 3
.L939:
	.cfi_restore_state
	movl	$-1, %eax
	lock xaddl	%eax, 12(%rdi)
	jmp	.L940
	.p2align 4,,10
	.p2align 3
.L949:
	movq	(%rdi), %rax
	movq	%rdi, 8(%rsp)
	movq	$0, 8(%rdi)
	call	*16(%rax)
	movq	8(%rsp), %rdi
	movq	(%rdi), %rax
	call	*24(%rax)
	jmp	.L908
	.p2align 4,,10
	.p2align 3
.L945:
	movq	(%rdi), %rax
	movq	%rdi, 8(%rsp)
	movq	$0, 8(%rdi)
	call	*16(%rax)
	movq	8(%rsp), %rdi
	movq	(%rdi), %rax
	call	*24(%rax)
	jmp	.L896
	.p2align 4,,10
	.p2align 3
.L947:
	movq	(%rdi), %rax
	movq	%rdi, 8(%rsp)
	movq	$0, 8(%rdi)
	call	*16(%rax)
	movq	8(%rsp), %rdi
	movq	(%rdi), %rax
	call	*24(%rax)
	jmp	.L902
	.p2align 4,,10
	.p2align 3
.L953:
	movq	(%rdi), %rax
	movq	%rdi, 8(%rsp)
	movq	$0, 8(%rdi)
	call	*16(%rax)
	movq	8(%rsp), %rdi
	movq	(%rdi), %rax
	call	*24(%rax)
	jmp	.L920
	.p2align 4,,10
	.p2align 3
.L955:
	movq	(%rdi), %rax
	movq	%rdi, 8(%rsp)
	movq	$0, 8(%rdi)
	call	*16(%rax)
	movq	8(%rsp), %rdi
	movq	(%rdi), %rax
	call	*24(%rax)
	jmp	.L926
	.p2align 4,,10
	.p2align 3
.L957:
	movq	(%rdi), %rax
	movq	%rdi, 8(%rsp)
	movq	$0, 8(%rdi)
	call	*16(%rax)
	movq	8(%rsp), %rdi
	movq	(%rdi), %rax
	call	*24(%rax)
	jmp	.L932
	.p2align 4,,10
	.p2align 3
.L943:
	movq	(%rdi), %rax
	movq	%rdi, 8(%rsp)
	movq	$0, 8(%rdi)
	call	*16(%rax)
	movq	8(%rsp), %rdi
	movq	(%rdi), %rax
	call	*24(%rax)
	jmp	.L890
	.p2align 4,,10
	.p2align 3
.L951:
	movq	(%rdi), %rax
	movq	%rdi, 8(%rsp)
	movq	$0, 8(%rdi)
	call	*16(%rax)
	movq	8(%rsp), %rdi
	movq	(%rdi), %rax
	call	*24(%rax)
	jmp	.L914
	.p2align 4,,10
	.p2align 3
.L904:
	movl	$-1, %eax
	lock xaddl	%eax, (%rcx)
	jmp	.L905
	.p2align 4,,10
	.p2align 3
.L910:
	movl	$-1, %eax
	lock xaddl	%eax, (%rcx)
	jmp	.L911
	.p2align 4,,10
	.p2align 3
.L892:
	movl	$-1, %eax
	lock xaddl	%eax, (%rcx)
	jmp	.L893
	.p2align 4,,10
	.p2align 3
.L898:
	movl	$-1, %eax
	lock xaddl	%eax, (%rcx)
	jmp	.L899
	.p2align 4,,10
	.p2align 3
.L916:
	movl	$-1, %eax
	lock xaddl	%eax, (%rcx)
	jmp	.L917
	.p2align 4,,10
	.p2align 3
.L922:
	movl	$-1, %eax
	lock xaddl	%eax, (%rcx)
	jmp	.L923
	.p2align 4,,10
	.p2align 3
.L934:
	movl	$-1, %eax
	lock xaddl	%eax, (%rcx)
	jmp	.L935
	.p2align 4,,10
	.p2align 3
.L928:
	movl	$-1, %eax
	lock xaddl	%eax, (%rcx)
	jmp	.L929
	.p2align 4,,10
	.p2align 3
.L944:
	call	_ZNSt16_Sp_counted_baseILN9__gnu_cxx12_Lock_policyE2EE24_M_release_last_use_coldEv@PLT
	jmp	.L890
	.p2align 4,,10
	.p2align 3
.L952:
	call	_ZNSt16_Sp_counted_baseILN9__gnu_cxx12_Lock_policyE2EE24_M_release_last_use_coldEv@PLT
	jmp	.L914
	.p2align 4,,10
	.p2align 3
.L950:
	call	_ZNSt16_Sp_counted_baseILN9__gnu_cxx12_Lock_policyE2EE24_M_release_last_use_coldEv@PLT
	jmp	.L908
	.p2align 4,,10
	.p2align 3
.L948:
	call	_ZNSt16_Sp_counted_baseILN9__gnu_cxx12_Lock_policyE2EE24_M_release_last_use_coldEv@PLT
	jmp	.L902
	.p2align 4,,10
	.p2align 3
.L946:
	call	_ZNSt16_Sp_counted_baseILN9__gnu_cxx12_Lock_policyE2EE24_M_release_last_use_coldEv@PLT
	jmp	.L896
	.p2align 4,,10
	.p2align 3
.L956:
	call	_ZNSt16_Sp_counted_baseILN9__gnu_cxx12_Lock_policyE2EE24_M_release_last_use_coldEv@PLT
	jmp	.L926
	.p2align 4,,10
	.p2align 3
.L954:
	call	_ZNSt16_Sp_counted_baseILN9__gnu_cxx12_Lock_policyE2EE24_M_release_last_use_coldEv@PLT
	jmp	.L920
	.p2align 4,,10
	.p2align 3
.L958:
	call	_ZNSt16_Sp_counted_baseILN9__gnu_cxx12_Lock_policyE2EE24_M_release_last_use_coldEv@PLT
	jmp	.L932
	.cfi_endproc
.LFE10416:
	.size	_ZN8asiodnp311LinkSessionD2Ev, .-_ZN8asiodnp311LinkSessionD2Ev
	.weak	_ZN8asiodnp311LinkSessionD1Ev
	.set	_ZN8asiodnp311LinkSessionD1Ev,_ZN8asiodnp311LinkSessionD2Ev
	.section	.text.unlikely
	.align 2
.LCOLDB34:
	.text
.LHOTB34:
	.align 2
	.p2align 4
	.globl	_ZN8asiodnp311LinkSession5StartEv
	.type	_ZN8asiodnp311LinkSession5StartEv, @function
_ZN8asiodnp311LinkSession5StartEv:
.LFB7972:
	.cfi_startproc
	.cfi_personality 0x9b,DW.ref.__gxx_personality_v0
	.cfi_lsda 0x1b,.LLSDA7972
	pushq	%r15
	.cfi_def_cfa_offset 16
	.cfi_offset 15, -16
	pushq	%r14
	.cfi_def_cfa_offset 24
	.cfi_offset 14, -24
	pushq	%r13
	.cfi_def_cfa_offset 32
	.cfi_offset 13, -32
	pushq	%r12
	.cfi_def_cfa_offset 40
	.cfi_offset 12, -40
	pushq	%rbp
	.cfi_def_cfa_offset 48
	.cfi_offset 6, -48
	pushq	%rbx
	.cfi_def_cfa_offset 56
	.cfi_offset 3, -56
	subq	$56, %rsp
	.cfi_def_cfa_offset 112
	movq	32(%rdi), %rbx
	movq	136(%rdi), %r13
	testq	%rbx, %rbx
	je	.L979
	movl	8(%rbx), %eax
	movq	%rdi, %rbp
	leaq	8(%rbx), %r14
.L964:
	testl	%eax, %eax
	je	.L979
	leal	1(%rax), %edx
	lock cmpxchgl	%edx, (%r14)
	jne	.L964
	movq	24(%rbp), %rax
	movq	48(%r13), %r15
	leaq	8(%rax), %rdx
	testq	%rax, %rax
	cmovne	%rdx, %rax
	movq	%rax, 40(%r13)
	cmpq	%r15, %rbx
	je	.L965
	movq	__libc_single_threaded@GOTPCREL(%rip), %r12
	cmpb	$0, (%r12)
	je	.L966
	addl	$1, 8(%rbx)
.L967:
	testq	%r15, %r15
	je	.L969
	movq	8(%r15), %rdx
	leaq	8(%r15), %rcx
	movabsq	$4294967297, %rax
	cmpq	%rax, %rdx
	je	.L1022
	cmpb	$0, (%r12)
	je	.L971
	movl	8(%r15), %eax
	leal	-1(%rax), %edx
	movl	%edx, 8(%r15)
.L972:
	cmpl	$1, %eax
	je	.L1023
.L969:
	movq	%rbx, 48(%r13)
.L965:
	movabsq	$4294967297, %rax
	movq	8(%rbx), %rdx
	cmpq	%rax, %rdx
	je	.L1024
	movq	__libc_single_threaded@GOTPCREL(%rip), %rax
	cmpb	$0, (%rax)
	je	.L976
	movl	8(%rbx), %eax
	leal	-1(%rax), %edx
	movl	%edx, 8(%rbx)
.L977:
	cmpl	$1, %eax
	je	.L1025
.L975:
	movq	32(%rbp), %rbx
	testq	%rbx, %rbx
	je	.L979
	movl	8(%rbx), %eax
	leaq	8(%rbx), %r13
.L981:
	testl	%eax, %eax
	je	.L979
	leal	1(%rax), %edx
	lock cmpxchgl	%edx, 0(%r13)
	jne	.L981
	movq	120(%rbp), %rdi
	movq	24(%rbp), %r15
	leaq	568(%rbp), %r14
	movq	(%rdi), %rax
.LEHB11:
	call	*32(%rax)
.LEHE11:
	movq	__libc_single_threaded@GOTPCREL(%rip), %r12
	movq	%rax, 8(%rsp)
	cmpb	$0, (%r12)
	je	.L1026
	addl	$1, 8(%rbx)
.L983:
	pxor	%xmm0, %xmm0
	movl	$24, %edi
	movq	$0, 32(%rsp)
	movq	$0, 40(%rsp)
	movaps	%xmm0, 16(%rsp)
.LEHB12:
	call	_Znwm@PLT
.LEHE12:
	movq	%r14, %xmm0
	movq	%r15, %xmm1
	movq	%rbx, 16(%rax)
	punpcklqdq	%xmm1, %xmm0
	movups	%xmm0, (%rax)
	cmpb	$0, (%r12)
	je	.L984
	addl	$1, 8(%rbx)
.L985:
	movq	%rax, 16(%rsp)
	leaq	_ZNSt17_Function_handlerIFvvEZN7openpal8TimerRef5StartIZN8asiodnp311LinkSession5StartEvEUlvE_EEbRKNS1_12TimeDurationERKT_EUlvE_E9_M_invokeERKSt9_Any_data(%rip), %rax
	leaq	8(%rsp), %rsi
	movq	%r14, %rdi
	movq	.LC33(%rip), %xmm0
	movq	%rax, %xmm2
	leaq	16(%rsp), %rdx
	punpcklqdq	%xmm2, %xmm0
	movaps	%xmm0, 32(%rsp)
.LEHB13:
	call	_ZN7openpal8TimerRef11StartActionERKNS_12TimeDurationERKSt8functionIFvvEE@PLT
.LEHE13:
	movq	32(%rsp), %rax
	testq	%rax, %rax
	je	.L986
	movl	$3, %edx
	leaq	16(%rsp), %rsi
	leaq	16(%rsp), %rdi
	call	*%rax
.L986:
	movabsq	$4294967297, %rax
	movq	8(%rbx), %rdx
	cmpq	%rax, %rdx
	je	.L1027
	cmpb	$0, (%r12)
	je	.L989
	movl	8(%rbx), %eax
	leal	-1(%rax), %edx
	movl	%edx, 8(%rbx)
.L990:
	cmpl	$1, %eax
	je	.L1028
.L988:
	movq	%rbp, %rdi
.LEHB14:
	call	_ZN8asiodnp311LinkSession12BeginReceiveEv@PLT
.LEHE14:
	movabsq	$4294967297, %rax
	movq	8(%rbx), %rdx
	cmpq	%rax, %rdx
	je	.L1029
	cmpb	$0, (%r12)
	je	.L997
	movl	8(%rbx), %eax
	leal	-1(%rax), %edx
	movl	%edx, 8(%rbx)
.L998:
	cmpl	$1, %eax
	je	.L1030
	addq	$56, %rsp
	.cfi_remember_state
	.cfi_def_cfa_offset 56
	popq	%rbx
	.cfi_def_cfa_offset 48
	popq	%rbp
	.cfi_def_cfa_offset 40
	popq	%r12
	.cfi_def_cfa_offset 32
	popq	%r13
	.cfi_def_cfa_offset 24
	popq	%r14
	.cfi_def_cfa_offset 16
	popq	%r15
	.cfi_def_cfa_offset 8
	ret
	.p2align 4,,10
	.p2align 3
.L984:
	.cfi_restore_state
	lock addl	$1, 8(%rbx)
	jmp	.L985
	.p2align 4,,10
	.p2align 3
.L1026:
	lock addl	$1, 8(%rbx)
	jmp	.L983
	.p2align 4,,10
	.p2align 3
.L966:
	lock addl	$1, 8(%rbx)
	movq	48(%r13), %r15
	jmp	.L967
	.p2align 4,,10
	.p2align 3
.L976:
	movl	$-1, %eax
	lock xaddl	%eax, (%r14)
	jmp	.L977
	.p2align 4,,10
	.p2align 3
.L971:
	movl	$-1, %eax
	lock xaddl	%eax, (%rcx)
	jmp	.L972
	.p2align 4,,10
	.p2align 3
.L997:
	movl	$-1, %eax
	lock xaddl	%eax, 0(%r13)
	jmp	.L998
	.p2align 4,,10
	.p2align 3
.L989:
	movl	$-1, %eax
	lock xaddl	%eax, 0(%r13)
	jmp	.L990
	.p2align 4,,10
	.p2align 3
.L1029:
	movq	(%rbx), %rax
	movq	%rbx, %rdi
	movq	$0, 8(%rbx)
	call	*16(%rax)
	movq	(%rbx), %rax
	movq	%rbx, %rdi
	movq	24(%rax), %rax
	addq	$56, %rsp
	.cfi_remember_state
	.cfi_def_cfa_offset 56
	popq	%rbx
	.cfi_def_cfa_offset 48
	popq	%rbp
	.cfi_def_cfa_offset 40
	popq	%r12
	.cfi_def_cfa_offset 32
	popq	%r13
	.cfi_def_cfa_offset 24
	popq	%r14
	.cfi_def_cfa_offset 16
	popq	%r15
	.cfi_def_cfa_offset 8
.LEHB15:
	jmp	*%rax
	.p2align 4,,10
	.p2align 3
.L1027:
	.cfi_restore_state
	movq	(%rbx), %rax
	movq	%rbx, %rdi
	movq	$0, 8(%rbx)
	call	*16(%rax)
	movq	(%rbx), %rax
	movq	%rbx, %rdi
	call	*24(%rax)
	jmp	.L988
	.p2align 4,,10
	.p2align 3
.L1024:
	movq	(%rbx), %rax
	movq	%rbx, %rdi
	movq	$0, 8(%rbx)
	call	*16(%rax)
	movq	(%rbx), %rax
	movq	%rbx, %rdi
	call	*24(%rax)
	jmp	.L975
	.p2align 4,,10
	.p2align 3
.L1022:
	movq	(%r15), %rax
	movq	%r15, %rdi
	movq	$0, 8(%r15)
	call	*16(%rax)
	movq	(%r15), %rax
	movq	%r15, %rdi
	call	*24(%rax)
	jmp	.L969
	.p2align 4,,10
	.p2align 3
.L1023:
	movq	%r15, %rdi
	call	_ZNSt16_Sp_counted_baseILN9__gnu_cxx12_Lock_policyE2EE24_M_release_last_use_coldEv@PLT
	jmp	.L969
	.p2align 4,,10
	.p2align 3
.L1030:
	addq	$56, %rsp
	.cfi_remember_state
	.cfi_def_cfa_offset 56
	movq	%rbx, %rdi
	popq	%rbx
	.cfi_def_cfa_offset 48
	popq	%rbp
	.cfi_def_cfa_offset 40
	popq	%r12
	.cfi_def_cfa_offset 32
	popq	%r13
	.cfi_def_cfa_offset 24
	popq	%r14
	.cfi_def_cfa_offset 16
	popq	%r15
	.cfi_def_cfa_offset 8
	jmp	_ZNSt16_Sp_counted_baseILN9__gnu_cxx12_Lock_policyE2EE24_M_release_last_use_coldEv@PLT
.LEHE15:
	.p2align 4,,10
	.p2align 3
.L1025:
	.cfi_restore_state
	movq	%rbx, %rdi
	call	_ZNSt16_Sp_counted_baseILN9__gnu_cxx12_Lock_policyE2EE24_M_release_last_use_coldEv@PLT
	jmp	.L975
	.p2align 4,,10
	.p2align 3
.L1028:
	movq	%rbx, %rdi
	call	_ZNSt16_Sp_counted_baseILN9__gnu_cxx12_Lock_policyE2EE24_M_release_last_use_coldEv@PLT
	jmp	.L988
.L1004:
	movq	%rax, %rbp
	jmp	.L994
.L1005:
	movq	%rax, %rbp
	jmp	.L992
.L1003:
	movq	%rax, %rbp
	jmp	.L995
	.section	.gcc_except_table
.LLSDA7972:
	.byte	0xff
	.byte	0xff
	.byte	0x1
	.uleb128 .LLSDACSE7972-.LLSDACSB7972
.LLSDACSB7972:
	.uleb128 .LEHB11-.LFB7972
	.uleb128 .LEHE11-.LEHB11
	.uleb128 .L1003-.LFB7972
	.uleb128 0
	.uleb128 .LEHB12-.LFB7972
	.uleb128 .LEHE12-.LEHB12
	.uleb128 .L1004-.LFB7972
	.uleb128 0
	.uleb128 .LEHB13-.LFB7972
	.uleb128 .LEHE13-.LEHB13
	.uleb128 .L1005-.LFB7972
	.uleb128 0
	.uleb128 .LEHB14-.LFB7972
	.uleb128 .LEHE14-.LEHB14
	.uleb128 .L1003-.LFB7972
	.uleb128 0
	.uleb128 .LEHB15-.LFB7972
	.uleb128 .LEHE15-.LEHB15
	.uleb128 0
	.uleb128 0
.LLSDACSE7972:
	.text
	.cfi_endproc
	.section	.text.unlikely
	.cfi_startproc
	.cfi_personality 0x9b,DW.ref.__gxx_personality_v0
	.cfi_lsda 0x1b,.LLSDAC7972
	.type	_ZN8asiodnp311LinkSession5StartEv.cold, @function
_ZN8asiodnp311LinkSession5StartEv.cold:
.LFSB7972:
.L992:
	.cfi_def_cfa_offset 112
	.cfi_offset 3, -56
	.cfi_offset 6, -48
	.cfi_offset 12, -40
	.cfi_offset 13, -32
	.cfi_offset 14, -24
	.cfi_offset 15, -16
	movq	32(%rsp), %rax
	testq	%rax, %rax
	je	.L994
	movl	$3, %edx
	leaq	16(%rsp), %rsi
	leaq	16(%rsp), %rdi
	call	*%rax
.L994:
	movq	%rbx, %rdi
	call	_ZNSt16_Sp_counted_baseILN9__gnu_cxx12_Lock_policyE2EE10_M_releaseEv@PLT
.L995:
	movq	%rbx, %rdi
	call	_ZNSt16_Sp_counted_baseILN9__gnu_cxx12_Lock_policyE2EE10_M_releaseEv@PLT
	movq	%rbp, %rdi
.LEHB16:
	call	_Unwind_Resume@PLT
.L979:
	movl	$8, %edi
	call	__cxa_allocate_exception@PLT
	movq	_ZTVSt12bad_weak_ptr@GOTPCREL(%rip), %rdx
	movq	_ZTISt12bad_weak_ptr@GOTPCREL(%rip), %rsi
	movq	%rax, %rdi
	addq	$16, %rdx
	movq	%rdx, (%rax)
	movq	_ZNSt12bad_weak_ptrD1Ev@GOTPCREL(%rip), %rdx
	call	__cxa_throw@PLT
.LEHE16:
	.cfi_endproc
.LFE7972:
	.section	.gcc_except_table
.LLSDAC7972:
	.byte	0xff
	.byte	0xff
	.byte	0x1
	.uleb128 .LLSDACSEC7972-.LLSDACSBC7972
.LLSDACSBC7972:
	.uleb128 .LEHB16-.LCOLDB34
	.uleb128 .LEHE16-.LEHB16
	.uleb128 0
	.uleb128 0
.LLSDACSEC7972:
	.section	.text.unlikely
	.text
	.size	_ZN8asiodnp311LinkSession5StartEv, .-_ZN8asiodnp311LinkSession5StartEv
	.section	.text.unlikely
	.size	_ZN8asiodnp311LinkSession5StartEv.cold, .-_ZN8asiodnp311LinkSession5StartEv.cold
.LCOLDE34:
	.text
.LHOTE34:
	.section	.text.unlikely
.LCOLDB35:
	.text
.LHOTB35:
	.p2align 4
	.type	_ZN4asio6detail18completion_handlerIZN8asiodnp311LinkSession12ShutdownImplEvEUlvE_E11do_completeEPNS0_15task_io_serviceEPNS0_25task_io_service_operationERKSt10error_codem, @function
_ZN4asio6detail18completion_handlerIZN8asiodnp311LinkSession12ShutdownImplEvEUlvE_E11do_completeEPNS0_15task_io_serviceEPNS0_25task_io_service_operationERKSt10error_codem:
.LFB9916:
	.cfi_startproc
	.cfi_personality 0x9b,DW.ref.__gxx_personality_v0
	.cfi_lsda 0x1b,.LLSDA9916
	pushq	%r13
	.cfi_def_cfa_offset 16
	.cfi_offset 13, -16
	movq	%rdi, %r13
	pushq	%r12
	.cfi_def_cfa_offset 24
	.cfi_offset 12, -24
	movq	%rsi, %r12
	pushq	%rbp
	.cfi_def_cfa_offset 32
	.cfi_offset 6, -32
	pushq	%rbx
	.cfi_def_cfa_offset 40
	.cfi_offset 3, -40
	subq	$24, %rsp
	.cfi_def_cfa_offset 64
	movq	24(%rsi), %rbp
	movq	32(%rsi), %rbx
	data16	leaq	_ZN4asio6detail15keyword_tss_ptrINS0_10call_stackINS0_15task_io_serviceENS0_27task_io_service_thread_infoEE7contextEE6value_E@tlsgd(%rip), %rdi
	.value	0x6666
	rex64
	call	__tls_get_addr@PLT
	movq	(%rax), %rax
	testq	%rax, %rax
	je	.L1032
	movq	8(%rax), %rax
	testq	%rax, %rax
	je	.L1032
	cmpq	$0, (%rax)
	je	.L1071
.L1032:
	movq	%r12, %rdi
	call	_ZdlPv@PLT
.L1070:
	testq	%r13, %r13
	je	.L1068
	movq	104(%rbp), %rdi
	leaq	40(%rbp), %rcx
	movq	%rbx, %xmm1
	movq	%rcx, %xmm0
	movq	(%rdi), %rax
	punpcklqdq	%xmm1, %xmm0
	movaps	%xmm0, (%rsp)
	movq	16(%rax), %rax
	testq	%rbx, %rbx
	je	.L1037
	movq	__libc_single_threaded@GOTPCREL(%rip), %rdx
	cmpb	$0, (%rdx)
	je	.L1042
	addl	$1, 8(%rbx)
.L1037:
	movq	%rsp, %rsi
.LEHB17:
	call	*%rax
.LEHE17:
	movq	8(%rsp), %rbp
	testq	%rbp, %rbp
	je	.L1044
	movq	8(%rbp), %rdx
	leaq	8(%rbp), %rcx
	movabsq	$4294967297, %rax
	cmpq	%rax, %rdx
	je	.L1072
	movq	__libc_single_threaded@GOTPCREL(%rip), %rax
	cmpb	$0, (%rax)
	je	.L1046
	movl	8(%rbp), %eax
	leal	-1(%rax), %edx
	movl	%edx, 8(%rbp)
.L1047:
	cmpl	$1, %eax
	je	.L1073
.L1044:
	sfence
	testq	%rbx, %rbx
	je	.L1031
.L1038:
	movq	8(%rbx), %rdx
	leaq	8(%rbx), %rcx
	movabsq	$4294967297, %rax
	cmpq	%rax, %rdx
	je	.L1074
	movq	__libc_single_threaded@GOTPCREL(%rip), %rax
	cmpb	$0, (%rax)
	je	.L1055
	movl	8(%rbx), %eax
	leal	-1(%rax), %edx
	movl	%edx, 8(%rbx)
.L1056:
	cmpl	$1, %eax
	je	.L1075
.L1031:
	addq	$24, %rsp
	.cfi_remember_state
	.cfi_def_cfa_offset 40
	popq	%rbx
	.cfi_def_cfa_offset 32
	popq	%rbp
	.cfi_def_cfa_offset 24
	popq	%r12
	.cfi_def_cfa_offset 16
	popq	%r13
	.cfi_def_cfa_offset 8
	ret
	.p2align 4,,10
	.p2align 3
.L1068:
	.cfi_restore_state
	testq	%rbx, %rbx
	jne	.L1038
	jmp	.L1031
	.p2align 4,,10
	.p2align 3
.L1074:
	movq	(%rbx), %rax
	movq	%rbx, %rdi
	movq	$0, 8(%rbx)
	call	*16(%rax)
	movq	(%rbx), %rax
	movq	%rbx, %rdi
	movq	24(%rax), %rax
	addq	$24, %rsp
	.cfi_remember_state
	.cfi_def_cfa_offset 40
	popq	%rbx
	.cfi_def_cfa_offset 32
	popq	%rbp
	.cfi_def_cfa_offset 24
	popq	%r12
	.cfi_def_cfa_offset 16
	popq	%r13
	.cfi_def_cfa_offset 8
.LEHB18:
	jmp	*%rax
	.p2align 4,,10
	.p2align 3
.L1071:
	.cfi_restore_state
	movzbl	40(%r12), %edx
	movb	%dl, (%r12)
	movq	%r12, (%rax)
	jmp	.L1070
	.p2align 4,,10
	.p2align 3
.L1046:
	movl	$-1, %eax
	lock xaddl	%eax, (%rcx)
	jmp	.L1047
	.p2align 4,,10
	.p2align 3
.L1055:
	movl	$-1, %eax
	lock xaddl	%eax, (%rcx)
	jmp	.L1056
	.p2align 4,,10
	.p2align 3
.L1042:
	lock addl	$1, 8(%rbx)
	jmp	.L1037
	.p2align 4,,10
	.p2align 3
.L1072:
	movq	0(%rbp), %rax
	movq	%rbp, %rdi
	movq	$0, 8(%rbp)
	call	*16(%rax)
	movq	0(%rbp), %rax
	movq	%rbp, %rdi
	call	*24(%rax)
	jmp	.L1044
	.p2align 4,,10
	.p2align 3
.L1075:
	addq	$24, %rsp
	.cfi_remember_state
	.cfi_def_cfa_offset 40
	movq	%rbx, %rdi
	popq	%rbx
	.cfi_def_cfa_offset 32
	popq	%rbp
	.cfi_def_cfa_offset 24
	popq	%r12
	.cfi_def_cfa_offset 16
	popq	%r13
	.cfi_def_cfa_offset 8
	jmp	_ZNSt16_Sp_counted_baseILN9__gnu_cxx12_Lock_policyE2EE24_M_release_last_use_coldEv@PLT
.LEHE18:
	.p2align 4,,10
	.p2align 3
.L1073:
	.cfi_restore_state
	movq	%rbp, %rdi
	call	_ZNSt16_Sp_counted_baseILN9__gnu_cxx12_Lock_policyE2EE24_M_release_last_use_coldEv@PLT
	jmp	.L1044
.L1058:
	movq	%rax, %rbp
	jmp	.L1050
	.section	.gcc_except_table
.LLSDA9916:
	.byte	0xff
	.byte	0xff
	.byte	0x1
	.uleb128 .LLSDACSE9916-.LLSDACSB9916
.LLSDACSB9916:
	.uleb128 .LEHB17-.LFB9916
	.uleb128 .LEHE17-.LEHB17
	.uleb128 .L1058-.LFB9916
	.uleb128 0
	.uleb128 .LEHB18-.LFB9916
	.uleb128 .LEHE18-.LEHB18
	.uleb128 0
	.uleb128 0
.LLSDACSE9916:
	.text
	.cfi_endproc
	.section	.text.unlikely
	.cfi_startproc
	.cfi_personality 0x9b,DW.ref.__gxx_personality_v0
	.cfi_lsda 0x1b,.LLSDAC9916
	.type	_ZN4asio6detail18completion_handlerIZN8asiodnp311LinkSession12ShutdownImplEvEUlvE_E11do_completeEPNS0_15task_io_serviceEPNS0_25task_io_service_operationERKSt10error_codem.cold, @function
_ZN4asio6detail18completion_handlerIZN8asiodnp311LinkSession12ShutdownImplEvEUlvE_E11do_completeEPNS0_15task_io_serviceEPNS0_25task_io_service_operationERKSt10error_codem.cold:
.LFSB9916:
.L1050:
	.cfi_def_cfa_offset 64
	.cfi_offset 3, -40
	.cfi_offset 6, -32
	.cfi_offset 12, -24
	.cfi_offset 13, -16
	movq	8(%rsp), %rdi
	testq	%rdi, %rdi
	je	.L1051
	call	_ZNSt16_Sp_counted_baseILN9__gnu_cxx12_Lock_policyE2EE10_M_releaseEv@PLT
.L1051:
	sfence
	testq	%rbx, %rbx
	je	.L1053
	movq	%rbx, %rdi
	call	_ZNSt16_Sp_counted_baseILN9__gnu_cxx12_Lock_policyE2EE10_M_releaseEv@PLT
.L1053:
	movq	%rbp, %rdi
.LEHB19:
	call	_Unwind_Resume@PLT
.LEHE19:
	.cfi_endproc
.LFE9916:
	.section	.gcc_except_table
.LLSDAC9916:
	.byte	0xff
	.byte	0xff
	.byte	0x1
	.uleb128 .LLSDACSEC9916-.LLSDACSBC9916
.LLSDACSBC9916:
	.uleb128 .LEHB19-.LCOLDB35
	.uleb128 .LEHE19-.LEHB19
	.uleb128 0
	.uleb128 0
.LLSDACSEC9916:
	.section	.text.unlikely
	.text
	.size	_ZN4asio6detail18completion_handlerIZN8asiodnp311LinkSession12ShutdownImplEvEUlvE_E11do_completeEPNS0_15task_io_serviceEPNS0_25task_io_service_operationERKSt10error_codem, .-_ZN4asio6detail18completion_handlerIZN8asiodnp311LinkSession12ShutdownImplEvEUlvE_E11do_completeEPNS0_15task_io_serviceEPNS0_25task_io_service_operationERKSt10error_codem
	.section	.text.unlikely
	.size	_ZN4asio6detail18completion_handlerIZN8asiodnp311LinkSession12ShutdownImplEvEUlvE_E11do_completeEPNS0_15task_io_serviceEPNS0_25task_io_service_operationERKSt10error_codem.cold, .-_ZN4asio6detail18completion_handlerIZN8asiodnp311LinkSession12ShutdownImplEvEUlvE_E11do_completeEPNS0_15task_io_serviceEPNS0_25task_io_service_operationERKSt10error_codem.cold
.LCOLDE35:
	.text
.LHOTE35:
	.section	.rodata.str1.8
	.align 8
.LC36:
	.string	"Timed out before receving a frame. Closing socket."
	.align 8
.LC37:
	.string	"/opt/PLC/OpenPLC_v3/utils/dnp3_src/cpp/libs/src/asiodnp3/LinkSession.cpp(187)"
	.section	.text.unlikely
.LCOLDB38:
	.text
.LHOTB38:
	.p2align 4
	.type	_ZNSt17_Function_handlerIFvvEZN7openpal8TimerRef5StartIZN8asiodnp311LinkSession5StartEvEUlvE_EEbRKNS1_12TimeDurationERKT_EUlvE_E9_M_invokeERKSt9_Any_data, @function
_ZNSt17_Function_handlerIFvvEZN7openpal8TimerRef5StartIZN8asiodnp311LinkSession5StartEvEUlvE_EEbRKNS1_12TimeDurationERKT_EUlvE_E9_M_invokeERKSt9_Any_data:
.LFB9744:
	.cfi_startproc
	.cfi_personality 0x9b,DW.ref.__gxx_personality_v0
	.cfi_lsda 0x1b,.LLSDA9744
	pushq	%r15
	.cfi_def_cfa_offset 16
	.cfi_offset 15, -16
	pushq	%r14
	.cfi_def_cfa_offset 24
	.cfi_offset 14, -24
	pushq	%r13
	.cfi_def_cfa_offset 32
	.cfi_offset 13, -32
	pushq	%r12
	.cfi_def_cfa_offset 40
	.cfi_offset 12, -40
	pushq	%rbp
	.cfi_def_cfa_offset 48
	.cfi_offset 6, -48
	pushq	%rbx
	.cfi_def_cfa_offset 56
	.cfi_offset 3, -56
	subq	$72, %rsp
	.cfi_def_cfa_offset 128
	movq	(%rdi), %rbx
	leaq	52(%rsp), %rsi
	movq	(%rbx), %rax
	movq	$0, 8(%rax)
	movq	8(%rbx), %rax
	movl	$2, 52(%rsp)
	leaq	64(%rax), %rdi
.LEHB20:
	call	_ZNK7openpal6Logger9IsEnabledERKNS_10LogFiltersE@PLT
	testb	%al, %al
	jne	.L1138
.L1077:
	movq	8(%rbx), %rax
	movq	136(%rax), %rbp
	cmpb	$0, 56(%rbp)
	jne	.L1076
	movq	0(%rbp), %rax
	movb	$1, 56(%rbp)
	movq	%rbp, %rdi
	call	*32(%rax)
.LEHE20:
	movq	16(%rbp), %rbx
	testq	%rbx, %rbx
	je	.L1081
	movl	8(%rbx), %eax
	leaq	8(%rbx), %r13
.L1083:
	testl	%eax, %eax
	je	.L1081
	leal	1(%rax), %edx
	lock cmpxchgl	%edx, 0(%r13)
	jne	.L1083
	movq	__libc_single_threaded@GOTPCREL(%rip), %rax
	movq	8(%rbp), %r15
	movq	24(%rbp), %rbp
	cmpb	$0, (%rax)
	je	.L1139
	addl	$1, 8(%rbx)
.L1084:
	movq	40(%rbp), %rax
	movq	%rax, 8(%rsp)
	data16	leaq	_ZN4asio6detail15keyword_tss_ptrINS0_10call_stackINS0_15task_io_serviceENS0_27task_io_service_thread_infoEE7contextEE6value_E@tlsgd(%rip), %rdi
	.value	0x6666
	rex64
	call	__tls_get_addr@PLT
	movq	(%rax), %rax
	testq	%rax, %rax
	je	.L1085
	movq	8(%rax), %rax
	testq	%rax, %rax
	je	.L1085
	movq	(%rax), %r14
	testq	%r14, %r14
	je	.L1085
	movq	$0, (%rax)
	movzbl	(%r14), %eax
	cmpb	$39, %al
	jbe	.L1086
	movb	%al, 40(%r14)
	jmp	.L1087
	.p2align 4,,10
	.p2align 3
.L1086:
	movq	%r14, %rdi
	call	_ZdlPv@PLT
.L1085:
	movl	$41, %edi
.LEHB21:
	call	_Znwm@PLT
.LEHE21:
	movb	$40, 40(%rax)
	movq	%rax, %r14
.L1087:
	movq	%rbx, %xmm2
	movq	_ZN4asio6detail18completion_handlerIZN7asiopal13IAsyncChannel8ShutdownEvEUlvE_E11do_completeEPNS0_15task_io_serviceEPNS0_25task_io_service_operationERKSt10error_codem@GOTPCREL(%rip), %rax
	movq	%r15, %xmm0
	movq	$0, (%r14)
	punpcklqdq	%xmm2, %xmm0
	movl	$0, 16(%r14)
	movq	%r14, %xmm1
	movq	%rax, 8(%r14)
	punpcklqdq	%xmm1, %xmm1
	movups	%xmm0, 24(%r14)
	movq	48(%rbp), %rax
	movaps	%xmm1, 16(%rsp)
	leaq	24(%rax), %rdi
	call	pthread_mutex_lock@PLT
	movq	48(%rbp), %rdi
	cmpb	$0, 64(%rdi)
	je	.L1088
	movq	80(%rdi), %rax
	movq	$0, (%r14)
	testq	%rax, %rax
	je	.L1089
	movq	%r14, (%rax)
	movq	%r14, 80(%rdi)
.L1090:
	addq	$24, %rdi
	call	pthread_mutex_unlock@PLT
.L1091:
	movabsq	$4294967297, %rax
	movq	8(%rbx), %rdx
	cmpq	%rax, %rdx
	je	.L1140
	movq	__libc_single_threaded@GOTPCREL(%rip), %rax
	cmpb	$0, (%rax)
	je	.L1107
	movl	8(%rbx), %eax
	leal	-1(%rax), %edx
	movl	%edx, 8(%rbx)
.L1108:
	cmpl	$1, %eax
	je	.L1141
.L1076:
	addq	$72, %rsp
	.cfi_remember_state
	.cfi_def_cfa_offset 56
	popq	%rbx
	.cfi_def_cfa_offset 48
	popq	%rbp
	.cfi_def_cfa_offset 40
	popq	%r12
	.cfi_def_cfa_offset 32
	popq	%r13
	.cfi_def_cfa_offset 24
	popq	%r14
	.cfi_def_cfa_offset 16
	popq	%r15
	.cfi_def_cfa_offset 8
	ret
	.p2align 4,,10
	.p2align 3
.L1138:
	.cfi_restore_state
	movq	8(%rbx), %rax
	leaq	.LC36(%rip), %rcx
	leaq	.LC37(%rip), %rdx
	movl	$2, 52(%rsp)
	leaq	52(%rsp), %rsi
	leaq	64(%rax), %rdi
.LEHB22:
	call	_ZN7openpal6Logger3LogERKNS_10LogFiltersEPKcS5_@PLT
	jmp	.L1077
	.p2align 4,,10
	.p2align 3
.L1088:
	movb	$1, 64(%rdi)
	addq	$24, %rdi
	call	pthread_mutex_unlock@PLT
	movq	48(%rbp), %rdx
	movq	$0, (%r14)
	movq	%rdx, %xmm3
	movq	96(%rdx), %rax
	punpcklqdq	%xmm3, %xmm3
	movaps	%xmm3, 32(%rsp)
	testq	%rax, %rax
	je	.L1092
	movq	%r14, (%rax)
	movq	%r14, 96(%rdx)
.L1093:
	movq	8(%rsp), %rax
	movq	40(%rax), %rbp
	cmpb	$0, 40(%rbp)
	je	.L1094
	movq	%rdx, 8(%rsp)
	data16	leaq	_ZN4asio6detail15keyword_tss_ptrINS0_10call_stackINS0_15task_io_serviceENS0_27task_io_service_thread_infoEE7contextEE6value_E@tlsgd(%rip), %rdi
	.value	0x6666
	rex64
	call	__tls_get_addr@PLT
	movq	8(%rsp), %rdx
	movq	(%rax), %rax
	testq	%rax, %rax
	jne	.L1097
	jmp	.L1094
	.p2align 4
	.p2align 4,,10
	.p2align 3
.L1095:
	movq	16(%rax), %rax
	testq	%rax, %rax
	je	.L1094
.L1097:
	cmpq	(%rax), %rbp
	jne	.L1095
	movq	8(%rax), %rax
	testq	%rax, %rax
	je	.L1094
	movq	16(%rax), %rcx
	addq	$1, 24(%rax)
	movq	$0, (%rdx)
	testq	%rcx, %rcx
	je	.L1098
	movq	%rdx, (%rcx)
	movq	%rdx, 16(%rax)
	jmp	.L1091
	.p2align 4,,10
	.p2align 3
.L1139:
	lock addl	$1, 8(%rbx)
	jmp	.L1084
	.p2align 4,,10
	.p2align 3
.L1107:
	movl	$-1, %eax
	lock xaddl	%eax, 0(%r13)
	jmp	.L1108
	.p2align 4,,10
	.p2align 3
.L1092:
	movdqa	16(%rsp), %xmm5
	movups	%xmm5, 88(%rdx)
	jmp	.L1093
	.p2align 4,,10
	.p2align 3
.L1094:
	movq	%rdx, 8(%rsp)
	lock addq	$1, 184(%rbp)
	leaq	48(%rbp), %r14
	movq	%r14, %rdi
	call	pthread_mutex_lock@PLT
	movq	8(%rsp), %rdx
	movq	200(%rbp), %rax
	movq	$0, (%rdx)
	testq	%rax, %rax
	je	.L1099
	movq	%rdx, (%rax)
	movq	%rdx, 200(%rbp)
.L1100:
	movq	136(%rbp), %rax
	movq	%rax, %rdx
	orq	$1, %rdx
	movq	%rdx, 136(%rbp)
	cmpq	$1, %rax
	jbe	.L1101
	movq	%r14, %rdi
	call	pthread_mutex_unlock@PLT
	leaq	88(%rbp), %rdi
	call	pthread_cond_signal@PLT
	jmp	.L1091
	.p2align 4,,10
	.p2align 3
.L1089:
	movdqa	16(%rsp), %xmm4
	movups	%xmm4, 72(%rdi)
	jmp	.L1090
	.p2align 4,,10
	.p2align 3
.L1101:
	cmpb	$0, 176(%rbp)
	jne	.L1103
	movq	144(%rbp), %rax
	testq	%rax, %rax
	je	.L1103
	movb	$1, 176(%rbp)
	leaq	88(%rax), %rdx
	leaq	52(%rsp), %rcx
	movl	$3, %esi
	movq	%rdx, 56(%rsp)
	movl	88(%rax), %edx
	movl	$-2147483639, 52(%rsp)
	movl	96(%rax), %edi
	call	epoll_ctl@PLT
.L1103:
	movq	%r14, %rdi
	call	pthread_mutex_unlock@PLT
	jmp	.L1091
	.p2align 4,,10
	.p2align 3
.L1140:
	movq	(%rbx), %rax
	movq	%rbx, %rdi
	movq	$0, 8(%rbx)
	call	*16(%rax)
	movq	(%rbx), %rax
	movq	%rbx, %rdi
	movq	24(%rax), %rax
	addq	$72, %rsp
	.cfi_remember_state
	.cfi_def_cfa_offset 56
	popq	%rbx
	.cfi_def_cfa_offset 48
	popq	%rbp
	.cfi_def_cfa_offset 40
	popq	%r12
	.cfi_def_cfa_offset 32
	popq	%r13
	.cfi_def_cfa_offset 24
	popq	%r14
	.cfi_def_cfa_offset 16
	popq	%r15
	.cfi_def_cfa_offset 8
	jmp	*%rax
	.p2align 4,,10
	.p2align 3
.L1141:
	.cfi_restore_state
	addq	$72, %rsp
	.cfi_remember_state
	.cfi_def_cfa_offset 56
	movq	%rbx, %rdi
	popq	%rbx
	.cfi_def_cfa_offset 48
	popq	%rbp
	.cfi_def_cfa_offset 40
	popq	%r12
	.cfi_def_cfa_offset 32
	popq	%r13
	.cfi_def_cfa_offset 24
	popq	%r14
	.cfi_def_cfa_offset 16
	popq	%r15
	.cfi_def_cfa_offset 8
	jmp	_ZNSt16_Sp_counted_baseILN9__gnu_cxx12_Lock_policyE2EE24_M_release_last_use_coldEv@PLT
.LEHE22:
	.p2align 4,,10
	.p2align 3
.L1098:
	.cfi_restore_state
	movdqa	32(%rsp), %xmm7
	movups	%xmm7, 8(%rax)
	jmp	.L1091
	.p2align 4,,10
	.p2align 3
.L1099:
	movdqa	32(%rsp), %xmm6
	movups	%xmm6, 192(%rbp)
	jmp	.L1100
.L1112:
	movq	%rax, %rbp
	jmp	.L1106
	.section	.gcc_except_table
.LLSDA9744:
	.byte	0xff
	.byte	0xff
	.byte	0x1
	.uleb128 .LLSDACSE9744-.LLSDACSB9744
.LLSDACSB9744:
	.uleb128 .LEHB20-.LFB9744
	.uleb128 .LEHE20-.LEHB20
	.uleb128 0
	.uleb128 0
	.uleb128 .LEHB21-.LFB9744
	.uleb128 .LEHE21-.LEHB21
	.uleb128 .L1112-.LFB9744
	.uleb128 0
	.uleb128 .LEHB22-.LFB9744
	.uleb128 .LEHE22-.LEHB22
	.uleb128 0
	.uleb128 0
.LLSDACSE9744:
	.text
	.cfi_endproc
	.section	.text.unlikely
	.cfi_startproc
	.cfi_personality 0x9b,DW.ref.__gxx_personality_v0
	.cfi_lsda 0x1b,.LLSDAC9744
	.type	_ZNSt17_Function_handlerIFvvEZN7openpal8TimerRef5StartIZN8asiodnp311LinkSession5StartEvEUlvE_EEbRKNS1_12TimeDurationERKT_EUlvE_E9_M_invokeERKSt9_Any_data.cold, @function
_ZNSt17_Function_handlerIFvvEZN7openpal8TimerRef5StartIZN8asiodnp311LinkSession5StartEvEUlvE_EEbRKNS1_12TimeDurationERKT_EUlvE_E9_M_invokeERKSt9_Any_data.cold:
.LFSB9744:
.L1081:
	.cfi_def_cfa_offset 128
	.cfi_offset 3, -56
	.cfi_offset 6, -48
	.cfi_offset 12, -40
	.cfi_offset 13, -32
	.cfi_offset 14, -24
	.cfi_offset 15, -16
	movl	$8, %edi
	call	__cxa_allocate_exception@PLT
	movq	_ZTVSt12bad_weak_ptr@GOTPCREL(%rip), %rdx
	movq	_ZTISt12bad_weak_ptr@GOTPCREL(%rip), %rsi
	movq	%rax, %rdi
	addq	$16, %rdx
	movq	%rdx, (%rax)
	movq	_ZNSt12bad_weak_ptrD1Ev@GOTPCREL(%rip), %rdx
.LEHB23:
	call	__cxa_throw@PLT
.L1106:
	movq	%rbx, %rdi
	call	_ZNSt16_Sp_counted_baseILN9__gnu_cxx12_Lock_policyE2EE10_M_releaseEv@PLT
	movq	%rbx, %rdi
	call	_ZNSt16_Sp_counted_baseILN9__gnu_cxx12_Lock_policyE2EE10_M_releaseEv@PLT
	movq	%rbp, %rdi
	call	_Unwind_Resume@PLT
.LEHE23:
	.cfi_endproc
.LFE9744:
	.section	.gcc_except_table
.LLSDAC9744:
	.byte	0xff
	.byte	0xff
	.byte	0x1
	.uleb128 .LLSDACSEC9744-.LLSDACSBC9744
.LLSDACSBC9744:
	.uleb128 .LEHB23-.LCOLDB38
	.uleb128 .LEHE23-.LEHB23
	.uleb128 0
	.uleb128 0
.LLSDACSEC9744:
	.section	.text.unlikely
	.text
	.size	_ZNSt17_Function_handlerIFvvEZN7openpal8TimerRef5StartIZN8asiodnp311LinkSession5StartEvEUlvE_EEbRKNS1_12TimeDurationERKT_EUlvE_E9_M_invokeERKSt9_Any_data, .-_ZNSt17_Function_handlerIFvvEZN7openpal8TimerRef5StartIZN8asiodnp311LinkSession5StartEvEUlvE_EEbRKNS1_12TimeDurationERKT_EUlvE_E9_M_invokeERKSt9_Any_data
	.section	.text.unlikely
	.size	_ZNSt17_Function_handlerIFvvEZN7openpal8TimerRef5StartIZN8asiodnp311LinkSession5StartEvEUlvE_EEbRKNS1_12TimeDurationERKT_EUlvE_E9_M_invokeERKSt9_Any_data.cold, .-_ZNSt17_Function_handlerIFvvEZN7openpal8TimerRef5StartIZN8asiodnp311LinkSession5StartEvEUlvE_EEbRKNS1_12TimeDurationERKT_EUlvE_E9_M_invokeERKSt9_Any_data.cold
.LCOLDE38:
	.text
.LHOTE38:
	.section	.text.unlikely
	.align 2
.LCOLDB39:
	.text
.LHOTB39:
	.align 2
	.p2align 4
	.globl	_ZN8asiodnp311LinkSession13AcceptSessionERKNSt7__cxx1112basic_stringIcSt11char_traitsIcESaIcEEESt10shared_ptrIN8opendnp311ISOEHandlerEES9_INSA_18IMasterApplicationEERKNS_17MasterStackConfigE
	.type	_ZN8asiodnp311LinkSession13AcceptSessionERKNSt7__cxx1112basic_stringIcSt11char_traitsIcESaIcEEESt10shared_ptrIN8opendnp311ISOEHandlerEES9_INSA_18IMasterApplicationEERKNS_17MasterStackConfigE, @function
_ZN8asiodnp311LinkSession13AcceptSessionERKNSt7__cxx1112basic_stringIcSt11char_traitsIcESaIcEEESt10shared_ptrIN8opendnp311ISOEHandlerEES9_INSA_18IMasterApplicationEERKNS_17MasterStackConfigE:
.LFB7962:
	.cfi_startproc
	.cfi_personality 0x9b,DW.ref.__gxx_personality_v0
	.cfi_lsda 0x1b,.LLSDA7962
	pushq	%rbp
	.cfi_def_cfa_offset 16
	.cfi_offset 6, -16
	movq	%rsp, %rbp
	.cfi_def_cfa_register 6
	pushq	%r14
	.cfi_offset 14, -24
	movq	%rdi, %r14
	pushq	%r12
	pushq	%rbx
	.cfi_offset 12, -32
	.cfi_offset 3, -40
	movq	%rsi, %rbx
	subq	$56, %rsp
	cmpq	$0, 592(%rsi)
	je	.L1143
	leaq	-48(%rbp), %rsi
	leaq	64(%rbx), %rdi
	movl	$2, -48(%rbp)
.LEHB24:
	call	_ZNK7openpal6Logger9IsEnabledERKNS_10LogFiltersE@PLT
	testb	%al, %al
	jne	.L1188
.L1144:
	pxor	%xmm0, %xmm0
	movups	%xmm0, (%r14)
.L1142:
	leaq	-24(%rbp), %rsp
	movq	%r14, %rax
	popq	%rbx
	popq	%r12
	popq	%r14
	popq	%rbp
	.cfi_remember_state
	.cfi_def_cfa 7, 8
	ret
	.p2align 4,,10
	.p2align 3
.L1188:
	.cfi_restore_state
	leaq	-48(%rbp), %rsi
	leaq	64(%rbx), %rdi
	movl	$2, -48(%rbp)
	leaq	.LC28(%rip), %rcx
	leaq	.LC29(%rip), %rdx
	call	_ZN7openpal6Logger3LogERKNS_10LogFiltersEPKcS5_@PLT
	jmp	.L1144
	.p2align 4,,10
	.p2align 3
.L1143:
	movq	80(%rsi), %rdi
	movq	%rdx, %rsi
	movq	%r8, -80(%rbp)
	movq	%r9, %r12
	movq	%rcx, -72(%rbp)
	call	_ZNSt7__cxx1112basic_stringIcSt11char_traitsIcESaIcEE9_M_assignERKS4_@PLT
.LEHE24:
	movq	32(%rbx), %rax
	movq	%rax, -56(%rbp)
	testq	%rax, %rax
	je	.L1147
	movq	-72(%rbp), %rcx
	movq	-80(%rbp), %r8
	leaq	8(%rax), %rdx
	movl	8(%rax), %eax
.L1149:
	testl	%eax, %eax
	je	.L1147
	leal	1(%rax), %esi
	lock cmpxchgl	%esi, (%rdx)
	jne	.L1149
	movq	24(%rbx), %rax
	leaq	-48(%rbp), %rdi
	leaq	64(%rbx), %rsi
	leaq	-64(%rbp), %r9
	movq	%rax, -64(%rbp)
	movq	136(%rbx), %rax
	pushq	%r12
	pushq	%rbx
	leaq	24(%rax), %rdx
.LEHB25:
	.cfi_escape 0x2e,0x10
	call	_ZN8asiodnp318MasterSessionStack6CreateERKN7openpal6LoggerERKSt10shared_ptrIN7asiopal8ExecutorEERKS5_IN8opendnp311ISOEHandlerEERKS5_INSB_18IMasterApplicationEERKS5_INS_11LinkSessionEERNSB_7ILinkTxERKNS_17MasterStackConfigE@PLT
.LEHE25:
	movdqa	-48(%rbp), %xmm0
	movq	600(%rbx), %r12
	pxor	%xmm1, %xmm1
	popq	%rax
	popq	%rdx
	movaps	%xmm1, -48(%rbp)
	movups	%xmm0, 592(%rbx)
	testq	%r12, %r12
	je	.L1151
	movq	8(%r12), %rdx
	leaq	8(%r12), %rcx
	movabsq	$4294967297, %rax
	cmpq	%rax, %rdx
	je	.L1189
	movq	__libc_single_threaded@GOTPCREL(%rip), %rax
	cmpb	$0, (%rax)
	je	.L1154
	movl	8(%r12), %eax
	leal	-1(%rax), %edx
	movl	%edx, 8(%r12)
.L1155:
	cmpl	$1, %eax
	je	.L1190
.L1153:
	movq	-40(%rbp), %r12
	testq	%r12, %r12
	je	.L1151
	movq	8(%r12), %rdx
	leaq	8(%r12), %rcx
	movabsq	$4294967297, %rax
	cmpq	%rax, %rdx
	je	.L1191
	movq	__libc_single_threaded@GOTPCREL(%rip), %rax
	cmpb	$0, (%rax)
	je	.L1158
	movl	8(%r12), %eax
	leal	-1(%rax), %edx
	movl	%edx, 8(%r12)
.L1159:
	cmpl	$1, %eax
	je	.L1192
.L1151:
	movq	-56(%rbp), %r12
	testq	%r12, %r12
	je	.L1161
	movq	8(%r12), %rdx
	leaq	8(%r12), %rcx
	movabsq	$4294967297, %rax
	cmpq	%rax, %rdx
	je	.L1193
	movq	__libc_single_threaded@GOTPCREL(%rip), %rax
	cmpb	$0, (%rax)
	je	.L1163
	movl	8(%r12), %eax
	leal	-1(%rax), %edx
	movl	%edx, 8(%r12)
.L1164:
	cmpl	$1, %eax
	je	.L1194
.L1161:
	movdqu	592(%rbx), %xmm0
	movhlps	%xmm0, %xmm2
	movups	%xmm0, (%r14)
	movq	%xmm2, %rax
	testq	%rax, %rax
	je	.L1142
	movq	__libc_single_threaded@GOTPCREL(%rip), %rdx
	cmpb	$0, (%rdx)
	je	.L1166
	addl	$1, 8(%rax)
	leaq	-24(%rbp), %rsp
	movq	%r14, %rax
	popq	%rbx
	popq	%r12
	popq	%r14
	popq	%rbp
	.cfi_remember_state
	.cfi_def_cfa 7, 8
	ret
	.p2align 4,,10
	.p2align 3
.L1166:
	.cfi_restore_state
	lock addl	$1, 8(%rax)
	jmp	.L1142
	.p2align 4,,10
	.p2align 3
.L1192:
	movq	%r12, %rdi
	call	_ZNSt16_Sp_counted_baseILN9__gnu_cxx12_Lock_policyE2EE24_M_release_last_use_coldEv@PLT
	jmp	.L1151
	.p2align 4,,10
	.p2align 3
.L1194:
	movq	%r12, %rdi
	call	_ZNSt16_Sp_counted_baseILN9__gnu_cxx12_Lock_policyE2EE24_M_release_last_use_coldEv@PLT
	jmp	.L1161
	.p2align 4,,10
	.p2align 3
.L1158:
	movl	$-1, %eax
	lock xaddl	%eax, (%rcx)
	jmp	.L1159
	.p2align 4,,10
	.p2align 3
.L1154:
	movl	$-1, %eax
	lock xaddl	%eax, (%rcx)
	jmp	.L1155
	.p2align 4,,10
	.p2align 3
.L1163:
	movl	$-1, %eax
	lock xaddl	%eax, (%rcx)
	jmp	.L1164
	.p2align 4,,10
	.p2align 3
.L1189:
	movq	$0, 8(%r12)
	movq	(%r12), %rax
	movq	%r12, %rdi
	call	*16(%rax)
	movq	(%r12), %rax
	movq	%r12, %rdi
	call	*24(%rax)
	jmp	.L1153
	.p2align 4,,10
	.p2align 3
.L1191:
	movq	$0, 8(%r12)
	movq	(%r12), %rax
	movq	%r12, %rdi
	call	*16(%rax)
	movq	(%r12), %rax
	movq	%r12, %rdi
	call	*24(%rax)
	jmp	.L1151
	.p2align 4,,10
	.p2align 3
.L1193:
	movq	$0, 8(%r12)
	movq	(%r12), %rax
	movq	%r12, %rdi
	call	*16(%rax)
	movq	(%r12), %rax
	movq	%r12, %rdi
	call	*24(%rax)
	jmp	.L1161
	.p2align 4,,10
	.p2align 3
.L1190:
	movq	%r12, %rdi
	call	_ZNSt16_Sp_counted_baseILN9__gnu_cxx12_Lock_policyE2EE24_M_release_last_use_coldEv@PLT
	jmp	.L1153
.L1170:
	movq	%rax, %rbx
	jmp	.L1167
	.section	.gcc_except_table
.LLSDA7962:
	.byte	0xff
	.byte	0xff
	.byte	0x1
	.uleb128 .LLSDACSE7962-.LLSDACSB7962
.LLSDACSB7962:
	.uleb128 .LEHB24-.LFB7962
	.uleb128 .LEHE24-.LEHB24
	.uleb128 0
	.uleb128 0
	.uleb128 .LEHB25-.LFB7962
	.uleb128 .LEHE25-.LEHB25
	.uleb128 .L1170-.LFB7962
	.uleb128 0
.LLSDACSE7962:
	.text
	.cfi_endproc
	.section	.text.unlikely
	.cfi_startproc
	.cfi_personality 0x9b,DW.ref.__gxx_personality_v0
	.cfi_lsda 0x1b,.LLSDAC7962
	.type	_ZN8asiodnp311LinkSession13AcceptSessionERKNSt7__cxx1112basic_stringIcSt11char_traitsIcESaIcEEESt10shared_ptrIN8opendnp311ISOEHandlerEES9_INSA_18IMasterApplicationEERKNS_17MasterStackConfigE.cold, @function
_ZN8asiodnp311LinkSession13AcceptSessionERKNSt7__cxx1112basic_stringIcSt11char_traitsIcESaIcEEESt10shared_ptrIN8opendnp311ISOEHandlerEES9_INSA_18IMasterApplicationEERKNS_17MasterStackConfigE.cold:
.LFSB7962:
.L1147:
	.cfi_def_cfa 6, 16
	.cfi_offset 3, -40
	.cfi_offset 6, -16
	.cfi_offset 12, -32
	.cfi_offset 14, -24
	movl	$8, %edi
	call	__cxa_allocate_exception@PLT
	movq	_ZTVSt12bad_weak_ptr@GOTPCREL(%rip), %rdx
	movq	_ZTISt12bad_weak_ptr@GOTPCREL(%rip), %rsi
	movq	%rax, %rdi
	addq	$16, %rdx
	movq	%rdx, (%rax)
	movq	_ZNSt12bad_weak_ptrD1Ev@GOTPCREL(%rip), %rdx
.LEHB26:
	call	__cxa_throw@PLT
.L1167:
	movq	-56(%rbp), %rdi
	testq	%rdi, %rdi
	je	.L1168
	call	_ZNSt16_Sp_counted_baseILN9__gnu_cxx12_Lock_policyE2EE10_M_releaseEv@PLT
.L1168:
	movq	%rbx, %rdi
	call	_Unwind_Resume@PLT
.LEHE26:
	.cfi_endproc
.LFE7962:
	.section	.gcc_except_table
.LLSDAC7962:
	.byte	0xff
	.byte	0xff
	.byte	0x1
	.uleb128 .LLSDACSEC7962-.LLSDACSBC7962
.LLSDACSBC7962:
	.uleb128 .LEHB26-.LCOLDB39
	.uleb128 .LEHE26-.LEHB26
	.uleb128 0
	.uleb128 0
.LLSDACSEC7962:
	.section	.text.unlikely
	.text
	.size	_ZN8asiodnp311LinkSession13AcceptSessionERKNSt7__cxx1112basic_stringIcSt11char_traitsIcESaIcEEESt10shared_ptrIN8opendnp311ISOEHandlerEES9_INSA_18IMasterApplicationEERKNS_17MasterStackConfigE, .-_ZN8asiodnp311LinkSession13AcceptSessionERKNSt7__cxx1112basic_stringIcSt11char_traitsIcESaIcEEESt10shared_ptrIN8opendnp311ISOEHandlerEES9_INSA_18IMasterApplicationEERKNS_17MasterStackConfigE
	.section	.text.unlikely
	.size	_ZN8asiodnp311LinkSession13AcceptSessionERKNSt7__cxx1112basic_stringIcSt11char_traitsIcESaIcEEESt10shared_ptrIN8opendnp311ISOEHandlerEES9_INSA_18IMasterApplicationEERKNS_17MasterStackConfigE.cold, .-_ZN8asiodnp311LinkSession13AcceptSessionERKNSt7__cxx1112basic_stringIcSt11char_traitsIcESaIcEEESt10shared_ptrIN8opendnp311ISOEHandlerEES9_INSA_18IMasterApplicationEERKNS_17MasterStackConfigE.cold
.LCOLDE39:
	.text
.LHOTE39:
	.p2align 4
	.type	_ZNSt17_Function_handlerIFvvEZN8asiodnp311LinkSession8ShutdownEvEUlvE_E10_M_managerERSt9_Any_dataRKS5_St18_Manager_operation, @function
_ZNSt17_Function_handlerIFvvEZN8asiodnp311LinkSession8ShutdownEvEUlvE_E10_M_managerERSt9_Any_dataRKS5_St18_Manager_operation:
.LFB9442:
	.cfi_startproc
	testl	%edx, %edx
	je	.L1196
	cmpl	$1, %edx
	je	.L1197
	subq	$24, %rsp
	.cfi_def_cfa_offset 32
	cmpl	$2, %edx
	je	.L1200
	cmpl	$3, %edx
	je	.L1201
.L1199:
	xorl	%eax, %eax
	addq	$24, %rsp
	.cfi_def_cfa_offset 8
	ret
	.p2align 4,,10
	.p2align 3
.L1197:
	movq	(%rsi), %rax
	movq	%rax, (%rdi)
	xorl	%eax, %eax
	ret
	.p2align 4,,10
	.p2align 3
.L1196:
	leaq	_ZTIZN8asiodnp311LinkSession8ShutdownEvEUlvE_(%rip), %rax
	movq	%rax, (%rdi)
	xorl	%eax, %eax
	ret
	.p2align 4,,10
	.p2align 3
.L1201:
	.cfi_def_cfa_offset 32
	movq	(%rdi), %rax
	testq	%rax, %rax
	je	.L1199
	movq	8(%rax), %rdi
	testq	%rdi, %rdi
	je	.L1205
	movq	8(%rdi), %rcx
	leaq	8(%rdi), %rsi
	movabsq	$4294967297, %rdx
	cmpq	%rdx, %rcx
	je	.L1221
	movq	__libc_single_threaded@GOTPCREL(%rip), %rdx
	cmpb	$0, (%rdx)
	je	.L1207
	movl	8(%rdi), %edx
	leal	-1(%rdx), %ecx
	movl	%ecx, 8(%rdi)
.L1208:
	cmpl	$1, %edx
	je	.L1222
.L1205:
	movl	$16, %esi
	movq	%rax, %rdi
	call	_ZdlPvm@PLT
	jmp	.L1199
	.p2align 4,,10
	.p2align 3
.L1200:
	movq	(%rsi), %rsi
	movq	%rdi, 8(%rsp)
	movl	$16, %edi
	movq	%rsi, (%rsp)
	call	_Znwm@PLT
	movq	(%rsp), %rsi
	movq	8(%rsp), %rcx
	movq	%rax, %rdx
	movdqu	(%rsi), %xmm0
	movhlps	%xmm0, %xmm1
	movups	%xmm0, (%rdx)
	movq	%xmm1, %rax
	testq	%rax, %rax
	je	.L1202
	movq	__libc_single_threaded@GOTPCREL(%rip), %rsi
	cmpb	$0, (%rsi)
	je	.L1203
	addl	$1, 8(%rax)
.L1202:
	movq	%rdx, (%rcx)
	jmp	.L1199
	.p2align 4,,10
	.p2align 3
.L1203:
	lock addl	$1, 8(%rax)
	jmp	.L1202
.L1207:
	movl	$-1, %edx
	lock xaddl	%edx, (%rsi)
	jmp	.L1208
.L1221:
	movq	(%rdi), %rdx
	movq	%rax, 8(%rsp)
	movq	$0, 8(%rdi)
	movq	%rdi, (%rsp)
	call	*16(%rdx)
	movq	(%rsp), %rdi
	movq	(%rdi), %rdx
	call	*24(%rdx)
	movq	8(%rsp), %rax
	jmp	.L1205
.L1222:
	movq	%rax, (%rsp)
	call	_ZNSt16_Sp_counted_baseILN9__gnu_cxx12_Lock_policyE2EE24_M_release_last_use_coldEv@PLT
	movq	(%rsp), %rax
	jmp	.L1205
	.cfi_endproc
.LFE9442:
	.size	_ZNSt17_Function_handlerIFvvEZN8asiodnp311LinkSession8ShutdownEvEUlvE_E10_M_managerERSt9_Any_dataRKS5_St18_Manager_operation, .-_ZNSt17_Function_handlerIFvvEZN8asiodnp311LinkSession8ShutdownEvEUlvE_E10_M_managerERSt9_Any_dataRKS5_St18_Manager_operation
	.p2align 4
	.type	_ZNSt17_Function_handlerIFvvEZN7openpal8TimerRef5StartIZN8asiodnp311LinkSession5StartEvEUlvE_EEbRKNS1_12TimeDurationERKT_EUlvE_E10_M_managerERSt9_Any_dataRKSF_St18_Manager_operation, @function
_ZNSt17_Function_handlerIFvvEZN7openpal8TimerRef5StartIZN8asiodnp311LinkSession5StartEvEUlvE_EEbRKNS1_12TimeDurationERKT_EUlvE_E10_M_managerERSt9_Any_dataRKSF_St18_Manager_operation:
.LFB9745:
	.cfi_startproc
	testl	%edx, %edx
	je	.L1224
	cmpl	$1, %edx
	je	.L1225
	subq	$24, %rsp
	.cfi_def_cfa_offset 32
	cmpl	$2, %edx
	je	.L1228
	cmpl	$3, %edx
	je	.L1229
.L1227:
	xorl	%eax, %eax
	addq	$24, %rsp
	.cfi_def_cfa_offset 8
	ret
	.p2align 4,,10
	.p2align 3
.L1225:
	movq	(%rsi), %rax
	movq	%rax, (%rdi)
	xorl	%eax, %eax
	ret
	.p2align 4,,10
	.p2align 3
.L1224:
	leaq	_ZTIZN7openpal8TimerRef5StartIZN8asiodnp311LinkSession5StartEvEUlvE_EEbRKNS_12TimeDurationERKT_EUlvE_(%rip), %rax
	movq	%rax, (%rdi)
	xorl	%eax, %eax
	ret
	.p2align 4,,10
	.p2align 3
.L1229:
	.cfi_def_cfa_offset 32
	movq	(%rdi), %rax
	testq	%rax, %rax
	je	.L1227
	movq	16(%rax), %rdi
	testq	%rdi, %rdi
	je	.L1233
	movq	8(%rdi), %rcx
	leaq	8(%rdi), %rsi
	movabsq	$4294967297, %rdx
	cmpq	%rdx, %rcx
	je	.L1249
	movq	__libc_single_threaded@GOTPCREL(%rip), %rdx
	cmpb	$0, (%rdx)
	je	.L1235
	movl	8(%rdi), %edx
	leal	-1(%rdx), %ecx
	movl	%ecx, 8(%rdi)
.L1236:
	cmpl	$1, %edx
	je	.L1250
.L1233:
	movl	$24, %esi
	movq	%rax, %rdi
	call	_ZdlPvm@PLT
	jmp	.L1227
	.p2align 4,,10
	.p2align 3
.L1228:
	movq	(%rsi), %rsi
	movq	%rdi, 8(%rsp)
	movl	$24, %edi
	movq	%rsi, (%rsp)
	call	_Znwm@PLT
	movq	(%rsp), %rsi
	movq	8(%rsp), %rcx
	movq	%rax, %rdx
	movdqu	(%rsi), %xmm0
	movups	%xmm0, (%rax)
	movq	16(%rsi), %rax
	testq	%rax, %rax
	movq	%rax, 16(%rdx)
	je	.L1230
	movq	__libc_single_threaded@GOTPCREL(%rip), %rsi
	cmpb	$0, (%rsi)
	je	.L1231
	addl	$1, 8(%rax)
.L1230:
	movq	%rdx, (%rcx)
	jmp	.L1227
	.p2align 4,,10
	.p2align 3
.L1231:
	lock addl	$1, 8(%rax)
	jmp	.L1230
.L1235:
	movl	$-1, %edx
	lock xaddl	%edx, (%rsi)
	jmp	.L1236
.L1249:
	movq	(%rdi), %rdx
	movq	%rax, 8(%rsp)
	movq	$0, 8(%rdi)
	movq	%rdi, (%rsp)
	call	*16(%rdx)
	movq	(%rsp), %rdi
	movq	(%rdi), %rdx
	call	*24(%rdx)
	movq	8(%rsp), %rax
	jmp	.L1233
.L1250:
	movq	%rax, (%rsp)
	call	_ZNSt16_Sp_counted_baseILN9__gnu_cxx12_Lock_policyE2EE24_M_release_last_use_coldEv@PLT
	movq	(%rsp), %rax
	jmp	.L1233
	.cfi_endproc
.LFE9745:
	.size	_ZNSt17_Function_handlerIFvvEZN7openpal8TimerRef5StartIZN8asiodnp311LinkSession5StartEvEUlvE_EEbRKNS1_12TimeDurationERKT_EUlvE_E10_M_managerERSt9_Any_dataRKSF_St18_Manager_operation, .-_ZNSt17_Function_handlerIFvvEZN7openpal8TimerRef5StartIZN8asiodnp311LinkSession5StartEvEUlvE_EEbRKNS1_12TimeDurationERKT_EUlvE_E10_M_managerERSt9_Any_dataRKSF_St18_Manager_operation
	.section	.text.unlikely
	.align 2
.LCOLDB40:
	.text
.LHOTB40:
	.align 2
	.p2align 4
	.globl	_ZN8asiodnp311LinkSession12ShutdownImplEv
	.type	_ZN8asiodnp311LinkSession12ShutdownImplEv, @function
_ZN8asiodnp311LinkSession12ShutdownImplEv:
.LFB7935:
	.cfi_startproc
	.cfi_personality 0x9b,DW.ref.__gxx_personality_v0
	.cfi_lsda 0x1b,.LLSDA7935
	cmpb	$0, 56(%rdi)
	je	.L1389
	ret
	.p2align 4,,10
	.p2align 3
.L1389:
	pushq	%r15
	.cfi_def_cfa_offset 16
	.cfi_offset 15, -16
	pushq	%r14
	.cfi_def_cfa_offset 24
	.cfi_offset 14, -24
	pushq	%r13
	.cfi_def_cfa_offset 32
	.cfi_offset 13, -32
	pushq	%r12
	.cfi_def_cfa_offset 40
	.cfi_offset 12, -40
	pushq	%rbp
	.cfi_def_cfa_offset 48
	.cfi_offset 6, -48
	pushq	%rbx
	.cfi_def_cfa_offset 56
	.cfi_offset 3, -56
	subq	$88, %rsp
	.cfi_def_cfa_offset 144
	movq	120(%rdi), %rcx
	movdqu	592(%rdi), %xmm0
	movb	$1, 56(%rdi)
	movq	(%rcx), %rax
	movhlps	%xmm0, %xmm3
	movq	48(%rax), %r8
	movq	%xmm3, %rax
	movaps	%xmm0, 64(%rsp)
	testq	%rax, %rax
	je	.L1254
	movq	__libc_single_threaded@GOTPCREL(%rip), %rdx
	cmpb	$0, (%rdx)
	je	.L1255
	addl	$1, 8(%rax)
.L1254:
	leaq	64(%rsp), %rdx
	movq	96(%rdi), %rsi
	movq	%rdi, %rbx
	movq	%rcx, %rdi
	movq	%rdx, 24(%rsp)
.LEHB27:
	call	*%r8
.LEHE27:
	movq	72(%rsp), %rbp
	testq	%rbp, %rbp
	je	.L1257
	movq	8(%rbp), %rdx
	leaq	8(%rbp), %rcx
	movabsq	$4294967297, %rax
	cmpq	%rax, %rdx
	je	.L1390
	movq	__libc_single_threaded@GOTPCREL(%rip), %rax
	cmpb	$0, (%rax)
	je	.L1259
	movl	8(%rbp), %eax
	leal	-1(%rax), %edx
	movl	%edx, 8(%rbp)
.L1260:
	cmpl	$1, %eax
	je	.L1391
.L1257:
	movq	592(%rbx), %rdi
	testq	%rdi, %rdi
	je	.L1262
.LEHB28:
	call	_ZN8asiodnp318MasterSessionStack16OnLowerLayerDownEv@PLT
.L1262:
	leaq	568(%rbx), %rdi
	call	_ZN7openpal8TimerRef6CancelEv@PLT
	movq	136(%rbx), %r12
	cmpb	$0, 56(%r12)
	jne	.L1264
	movq	(%r12), %rax
	movb	$1, 56(%r12)
	movq	%r12, %rdi
	call	*32(%rax)
.LEHE28:
	movq	16(%r12), %rbp
	testq	%rbp, %rbp
	je	.L1266
	movl	8(%rbp), %eax
	leaq	8(%rbp), %r15
.L1268:
	testl	%eax, %eax
	je	.L1266
	leal	1(%rax), %edx
	lock cmpxchgl	%edx, (%r15)
	jne	.L1268
	movq	8(%r12), %rax
	movq	24(%r12), %r13
	movq	__libc_single_threaded@GOTPCREL(%rip), %r12
	movq	%rax, 16(%rsp)
	cmpb	$0, (%r12)
	je	.L1392
	addl	$1, 8(%rbp)
.L1269:
	movq	40(%r13), %rax
	movq	%rax, (%rsp)
	data16	leaq	_ZN4asio6detail15keyword_tss_ptrINS0_10call_stackINS0_15task_io_serviceENS0_27task_io_service_thread_infoEE7contextEE6value_E@tlsgd(%rip), %rdi
	.value	0x6666
	rex64
	call	__tls_get_addr@PLT
	movq	(%rax), %rax
	testq	%rax, %rax
	je	.L1270
	movq	8(%rax), %rax
	testq	%rax, %rax
	je	.L1270
	movq	(%rax), %r14
	testq	%r14, %r14
	je	.L1270
	movq	$0, (%rax)
	movzbl	(%r14), %eax
	cmpb	$39, %al
	jbe	.L1271
	movb	%al, 40(%r14)
	jmp	.L1272
	.p2align 4,,10
	.p2align 3
.L1271:
	movq	%r14, %rdi
	call	_ZdlPv@PLT
.L1270:
	movl	$41, %edi
.LEHB29:
	call	_Znwm@PLT
.LEHE29:
	movb	$40, 40(%rax)
	movq	%rax, %r14
.L1272:
	movq	16(%rsp), %xmm0
	movq	_ZN4asio6detail18completion_handlerIZN7asiopal13IAsyncChannel8ShutdownEvEUlvE_E11do_completeEPNS0_15task_io_serviceEPNS0_25task_io_service_operationERKSt10error_codem@GOTPCREL(%rip), %rax
	movq	%rbp, %xmm6
	movq	$0, (%r14)
	movl	$0, 16(%r14)
	movq	%r14, %xmm2
	punpcklqdq	%xmm6, %xmm0
	movq	%rax, 8(%r14)
	punpcklqdq	%xmm2, %xmm2
	movups	%xmm0, 24(%r14)
	movq	48(%r13), %rax
	movaps	%xmm2, 32(%rsp)
	leaq	24(%rax), %rdi
	call	pthread_mutex_lock@PLT
	movq	48(%r13), %rdi
	cmpb	$0, 64(%rdi)
	je	.L1273
	movq	80(%rdi), %rax
	movq	$0, (%r14)
	testq	%rax, %rax
	je	.L1274
	movq	%r14, (%rax)
	movq	%r14, 80(%rdi)
.L1275:
	addq	$24, %rdi
	call	pthread_mutex_unlock@PLT
.L1276:
	movabsq	$4294967297, %rax
	movq	8(%rbp), %rdx
	cmpq	%rax, %rdx
	je	.L1393
	cmpb	$0, (%r12)
	je	.L1292
	movl	8(%rbp), %eax
	leal	-1(%rax), %edx
	movl	%edx, 8(%rbp)
.L1293:
	cmpl	$1, %eax
	je	.L1394
.L1264:
	movq	32(%rbx), %rbp
	testq	%rbp, %rbp
	je	.L1296
	movl	8(%rbp), %eax
	leaq	8(%rbp), %r15
.L1298:
	testl	%eax, %eax
	je	.L1296
	leal	1(%rax), %edx
	lock cmpxchgl	%edx, (%r15)
	jne	.L1298
	movq	136(%rbx), %rax
	movq	__libc_single_threaded@GOTPCREL(%rip), %r12
	movq	24(%rbx), %r13
	movq	24(%rax), %rbx
	cmpb	$0, (%r12)
	je	.L1395
	addl	$1, 8(%rbp)
.L1299:
	movq	40(%rbx), %rax
	movq	%rax, 16(%rsp)
	data16	leaq	_ZN4asio6detail15keyword_tss_ptrINS0_10call_stackINS0_15task_io_serviceENS0_27task_io_service_thread_infoEE7contextEE6value_E@tlsgd(%rip), %rdi
	.value	0x6666
	rex64
	call	__tls_get_addr@PLT
	movq	(%rax), %rax
	testq	%rax, %rax
	je	.L1300
	movq	8(%rax), %rax
	testq	%rax, %rax
	je	.L1300
	movq	(%rax), %r14
	testq	%r14, %r14
	je	.L1300
	movq	$0, (%rax)
	movzbl	(%r14), %eax
	cmpb	$39, %al
	jbe	.L1301
	movb	%al, 40(%r14)
	jmp	.L1302
	.p2align 4,,10
	.p2align 3
.L1301:
	movq	%r14, %rdi
	call	_ZdlPv@PLT
.L1300:
	movl	$41, %edi
.LEHB30:
	call	_Znwm@PLT
.LEHE30:
	movb	$40, 40(%rax)
	movq	%rax, %r14
.L1302:
	movq	%rbp, %xmm4
	movq	%r13, %xmm0
	leaq	_ZN4asio6detail18completion_handlerIZN8asiodnp311LinkSession12ShutdownImplEvEUlvE_E11do_completeEPNS0_15task_io_serviceEPNS0_25task_io_service_operationERKSt10error_codem(%rip), %rax
	movq	$0, (%r14)
	punpcklqdq	%xmm4, %xmm0
	movq	%rax, 8(%r14)
	movq	%r14, %xmm1
	movups	%xmm0, 24(%r14)
	movq	48(%rbx), %rax
	punpcklqdq	%xmm1, %xmm1
	movl	$0, 16(%r14)
	leaq	24(%rax), %rdi
	movaps	%xmm1, (%rsp)
	call	pthread_mutex_lock@PLT
	movq	48(%rbx), %rdi
	cmpb	$0, 64(%rdi)
	je	.L1303
	movq	80(%rdi), %rax
	movq	$0, (%r14)
	testq	%rax, %rax
	je	.L1304
	movq	%r14, (%rax)
	movq	%r14, 80(%rdi)
.L1305:
	addq	$24, %rdi
	call	pthread_mutex_unlock@PLT
.L1306:
	movabsq	$4294967297, %rax
	movq	8(%rbp), %rdx
	cmpq	%rax, %rdx
	je	.L1396
	cmpb	$0, (%r12)
	je	.L1322
	movl	8(%rbp), %eax
	leal	-1(%rax), %edx
	movl	%edx, 8(%rbp)
.L1323:
	cmpl	$1, %eax
	je	.L1397
	addq	$88, %rsp
	.cfi_remember_state
	.cfi_def_cfa_offset 56
	popq	%rbx
	.cfi_def_cfa_offset 48
	popq	%rbp
	.cfi_def_cfa_offset 40
	popq	%r12
	.cfi_def_cfa_offset 32
	popq	%r13
	.cfi_def_cfa_offset 24
	popq	%r14
	.cfi_def_cfa_offset 16
	popq	%r15
	.cfi_def_cfa_offset 8
	ret
	.p2align 4,,10
	.p2align 3
.L1322:
	.cfi_restore_state
	movl	$-1, %eax
	lock xaddl	%eax, (%r15)
	jmp	.L1323
	.p2align 4,,10
	.p2align 3
.L1259:
	movl	$-1, %eax
	lock xaddl	%eax, (%rcx)
	jmp	.L1260
	.p2align 4,,10
	.p2align 3
.L1274:
	movdqa	32(%rsp), %xmm6
	movups	%xmm6, 72(%rdi)
	jmp	.L1275
	.p2align 4,,10
	.p2align 3
.L1303:
	movb	$1, 64(%rdi)
	addq	$24, %rdi
	call	pthread_mutex_unlock@PLT
	movq	48(%rbx), %r13
	movq	$0, (%r14)
	movq	%r13, %xmm5
	movq	96(%r13), %rax
	punpcklqdq	%xmm5, %xmm5
	movaps	%xmm5, 32(%rsp)
	testq	%rax, %rax
	je	.L1307
	movq	%r14, (%rax)
	movq	%r14, 96(%r13)
.L1308:
	movq	16(%rsp), %rax
	movq	40(%rax), %rbx
	cmpb	$0, 40(%rbx)
	je	.L1309
	data16	leaq	_ZN4asio6detail15keyword_tss_ptrINS0_10call_stackINS0_15task_io_serviceENS0_27task_io_service_thread_infoEE7contextEE6value_E@tlsgd(%rip), %rdi
	.value	0x6666
	rex64
	call	__tls_get_addr@PLT
	movq	(%rax), %rax
	testq	%rax, %rax
	jne	.L1312
	jmp	.L1309
	.p2align 4
	.p2align 4,,10
	.p2align 3
.L1310:
	movq	16(%rax), %rax
	testq	%rax, %rax
	je	.L1309
.L1312:
	cmpq	(%rax), %rbx
	jne	.L1310
	movq	8(%rax), %rax
	testq	%rax, %rax
	je	.L1309
	movq	16(%rax), %rdx
	addq	$1, 24(%rax)
	movq	$0, 0(%r13)
	testq	%rdx, %rdx
	je	.L1313
	movq	%r13, (%rdx)
	movq	%r13, 16(%rax)
	jmp	.L1306
	.p2align 4,,10
	.p2align 3
.L1309:
	lock addq	$1, 184(%rbx)
	leaq	48(%rbx), %r14
	movq	%r14, %rdi
	call	pthread_mutex_lock@PLT
	movq	200(%rbx), %rax
	movq	$0, 0(%r13)
	testq	%rax, %rax
	je	.L1314
	movq	%r13, (%rax)
	movq	%r13, 200(%rbx)
.L1315:
	movq	136(%rbx), %rax
	movq	%rax, %rdx
	orq	$1, %rdx
	movq	%rdx, 136(%rbx)
	cmpq	$1, %rax
	jbe	.L1316
	movq	%r14, %rdi
	call	pthread_mutex_unlock@PLT
	leaq	88(%rbx), %rdi
	call	pthread_cond_signal@PLT
	jmp	.L1306
	.p2align 4,,10
	.p2align 3
.L1255:
	lock addl	$1, 8(%rax)
	jmp	.L1254
	.p2align 4,,10
	.p2align 3
.L1395:
	lock addl	$1, 8(%rbp)
	jmp	.L1299
	.p2align 4,,10
	.p2align 3
.L1273:
	movb	$1, 64(%rdi)
	addq	$24, %rdi
	call	pthread_mutex_unlock@PLT
	movq	48(%r13), %r13
	movq	$0, (%r14)
	movq	%r13, %xmm7
	movq	96(%r13), %rax
	punpcklqdq	%xmm7, %xmm7
	movaps	%xmm7, 48(%rsp)
	testq	%rax, %rax
	je	.L1277
	movq	%r14, (%rax)
	movq	%r14, 96(%r13)
.L1278:
	movq	(%rsp), %rax
	movq	40(%rax), %r14
	cmpb	$0, 40(%r14)
	je	.L1279
	data16	leaq	_ZN4asio6detail15keyword_tss_ptrINS0_10call_stackINS0_15task_io_serviceENS0_27task_io_service_thread_infoEE7contextEE6value_E@tlsgd(%rip), %rdi
	.value	0x6666
	rex64
	call	__tls_get_addr@PLT
	movq	(%rax), %rax
	testq	%rax, %rax
	jne	.L1282
	jmp	.L1279
	.p2align 4
	.p2align 4,,10
	.p2align 3
.L1280:
	movq	16(%rax), %rax
	testq	%rax, %rax
	je	.L1279
.L1282:
	cmpq	(%rax), %r14
	jne	.L1280
	movq	8(%rax), %rax
	testq	%rax, %rax
	je	.L1279
	movq	16(%rax), %rdx
	addq	$1, 24(%rax)
	movq	$0, 0(%r13)
	testq	%rdx, %rdx
	je	.L1283
	movq	%r13, (%rdx)
	movq	%r13, 16(%rax)
	jmp	.L1276
	.p2align 4,,10
	.p2align 3
.L1304:
	movdqa	(%rsp), %xmm7
	movups	%xmm7, 72(%rdi)
	jmp	.L1305
	.p2align 4,,10
	.p2align 3
.L1279:
	lock addq	$1, 184(%r14)
	leaq	48(%r14), %r8
	movq	%r8, %rdi
	movq	%r8, 16(%rsp)
	call	pthread_mutex_lock@PLT
	movq	200(%r14), %rax
	movq	16(%rsp), %r8
	movq	$0, 0(%r13)
	testq	%rax, %rax
	je	.L1284
	movq	%r13, (%rax)
	movq	%r13, 200(%r14)
.L1285:
	movq	136(%r14), %rax
	movq	%rax, %rdx
	orq	$1, %rdx
	movq	%rdx, 136(%r14)
	cmpq	$1, %rax
	ja	.L1398
	cmpb	$0, 176(%r14)
	jne	.L1288
	movq	144(%r14), %rax
	testq	%rax, %rax
	je	.L1288
	leaq	88(%rax), %rdx
	movq	24(%rsp), %rcx
	movl	$3, %esi
	movb	$1, 176(%r14)
	movq	%rdx, 68(%rsp)
	movl	88(%rax), %edx
	movl	$-2147483639, 64(%rsp)
	movl	96(%rax), %edi
	movq	%r8, 16(%rsp)
	call	epoll_ctl@PLT
	movq	16(%rsp), %r8
.L1288:
	movq	%r8, %rdi
	call	pthread_mutex_unlock@PLT
	jmp	.L1276
	.p2align 4,,10
	.p2align 3
.L1392:
	lock addl	$1, 8(%rbp)
	jmp	.L1269
	.p2align 4,,10
	.p2align 3
.L1316:
	cmpb	$0, 176(%rbx)
	jne	.L1318
	movq	144(%rbx), %rax
	testq	%rax, %rax
	je	.L1318
	movb	$1, 176(%rbx)
	leaq	88(%rax), %rdx
	movq	24(%rsp), %rcx
	movl	$3, %esi
	movq	%rdx, 68(%rsp)
	movl	88(%rax), %edx
	movl	$-2147483639, 64(%rsp)
	movl	96(%rax), %edi
	call	epoll_ctl@PLT
.L1318:
	movq	%r14, %rdi
	call	pthread_mutex_unlock@PLT
	jmp	.L1306
	.p2align 4,,10
	.p2align 3
.L1390:
	movq	0(%rbp), %rax
	movq	%rbp, %rdi
	movq	$0, 8(%rbp)
	call	*16(%rax)
	movq	0(%rbp), %rax
	movq	%rbp, %rdi
	call	*24(%rax)
	jmp	.L1257
	.p2align 4,,10
	.p2align 3
.L1396:
	movq	0(%rbp), %rax
	movq	%rbp, %rdi
	movq	$0, 8(%rbp)
	call	*16(%rax)
	movq	0(%rbp), %rax
	movq	%rbp, %rdi
	movq	24(%rax), %rax
	addq	$88, %rsp
	.cfi_remember_state
	.cfi_def_cfa_offset 56
	popq	%rbx
	.cfi_restore 3
	.cfi_def_cfa_offset 48
	popq	%rbp
	.cfi_restore 6
	.cfi_def_cfa_offset 40
	popq	%r12
	.cfi_restore 12
	.cfi_def_cfa_offset 32
	popq	%r13
	.cfi_restore 13
	.cfi_def_cfa_offset 24
	popq	%r14
	.cfi_restore 14
	.cfi_def_cfa_offset 16
	popq	%r15
	.cfi_restore 15
	.cfi_def_cfa_offset 8
.LEHB31:
	jmp	*%rax
	.p2align 4,,10
	.p2align 3
.L1398:
	.cfi_restore_state
	movq	%r8, %rdi
	call	pthread_mutex_unlock@PLT
	leaq	88(%r14), %rdi
	call	pthread_cond_signal@PLT
	jmp	.L1276
	.p2align 4,,10
	.p2align 3
.L1391:
	movq	%rbp, %rdi
	call	_ZNSt16_Sp_counted_baseILN9__gnu_cxx12_Lock_policyE2EE24_M_release_last_use_coldEv@PLT
	jmp	.L1257
	.p2align 4,,10
	.p2align 3
.L1394:
	movq	%rbp, %rdi
	call	_ZNSt16_Sp_counted_baseILN9__gnu_cxx12_Lock_policyE2EE24_M_release_last_use_coldEv@PLT
	jmp	.L1264
	.p2align 4,,10
	.p2align 3
.L1307:
	movdqa	(%rsp), %xmm7
	movups	%xmm7, 88(%r13)
	jmp	.L1308
	.p2align 4,,10
	.p2align 3
.L1292:
	movl	$-1, %eax
	lock xaddl	%eax, (%r15)
	jmp	.L1293
	.p2align 4,,10
	.p2align 3
.L1393:
	movq	0(%rbp), %rax
	movq	%rbp, %rdi
	movq	$0, 8(%rbp)
	call	*16(%rax)
	movq	0(%rbp), %rax
	movq	%rbp, %rdi
	call	*24(%rax)
	jmp	.L1264
	.p2align 4,,10
	.p2align 3
.L1314:
	movdqa	32(%rsp), %xmm6
	movups	%xmm6, 192(%rbx)
	jmp	.L1315
	.p2align 4,,10
	.p2align 3
.L1277:
	movdqa	32(%rsp), %xmm5
	movups	%xmm5, 88(%r13)
	jmp	.L1278
	.p2align 4,,10
	.p2align 3
.L1284:
	movdqa	48(%rsp), %xmm7
	movups	%xmm7, 192(%r14)
	jmp	.L1285
	.p2align 4,,10
	.p2align 3
.L1397:
	addq	$88, %rsp
	.cfi_remember_state
	.cfi_def_cfa_offset 56
	movq	%rbp, %rdi
	popq	%rbx
	.cfi_restore 3
	.cfi_def_cfa_offset 48
	popq	%rbp
	.cfi_restore 6
	.cfi_def_cfa_offset 40
	popq	%r12
	.cfi_restore 12
	.cfi_def_cfa_offset 32
	popq	%r13
	.cfi_restore 13
	.cfi_def_cfa_offset 24
	popq	%r14
	.cfi_restore 14
	.cfi_def_cfa_offset 16
	popq	%r15
	.cfi_restore 15
	.cfi_def_cfa_offset 8
	jmp	_ZNSt16_Sp_counted_baseILN9__gnu_cxx12_Lock_policyE2EE24_M_release_last_use_coldEv@PLT
.LEHE31:
	.p2align 4,,10
	.p2align 3
.L1313:
	.cfi_restore_state
	movdqa	32(%rsp), %xmm6
	movups	%xmm6, 8(%rax)
	jmp	.L1306
.L1283:
	movdqa	48(%rsp), %xmm5
	movups	%xmm5, 8(%rax)
	jmp	.L1276
.L1332:
	movq	%rax, %rbx
	jmp	.L1321
.L1331:
	movq	%rax, %rbx
	jmp	.L1325
.L1333:
	movq	%rax, %rbx
	jmp	.L1291
	.section	.gcc_except_table
.LLSDA7935:
	.byte	0xff
	.byte	0xff
	.byte	0x1
	.uleb128 .LLSDACSE7935-.LLSDACSB7935
.LLSDACSB7935:
	.uleb128 .LEHB27-.LFB7935
	.uleb128 .LEHE27-.LEHB27
	.uleb128 .L1331-.LFB7935
	.uleb128 0
	.uleb128 .LEHB28-.LFB7935
	.uleb128 .LEHE28-.LEHB28
	.uleb128 0
	.uleb128 0
	.uleb128 .LEHB29-.LFB7935
	.uleb128 .LEHE29-.LEHB29
	.uleb128 .L1333-.LFB7935
	.uleb128 0
	.uleb128 .LEHB30-.LFB7935
	.uleb128 .LEHE30-.LEHB30
	.uleb128 .L1332-.LFB7935
	.uleb128 0
	.uleb128 .LEHB31-.LFB7935
	.uleb128 .LEHE31-.LEHB31
	.uleb128 0
	.uleb128 0
.LLSDACSE7935:
	.text
	.cfi_endproc
	.section	.text.unlikely
	.cfi_startproc
	.cfi_personality 0x9b,DW.ref.__gxx_personality_v0
	.cfi_lsda 0x1b,.LLSDAC7935
	.type	_ZN8asiodnp311LinkSession12ShutdownImplEv.cold, @function
_ZN8asiodnp311LinkSession12ShutdownImplEv.cold:
.LFSB7935:
.L1296:
	.cfi_def_cfa_offset 144
	.cfi_offset 3, -56
	.cfi_offset 6, -48
	.cfi_offset 12, -40
	.cfi_offset 13, -32
	.cfi_offset 14, -24
	.cfi_offset 15, -16
	movl	$8, %edi
	call	__cxa_allocate_exception@PLT
	movq	_ZTVSt12bad_weak_ptr@GOTPCREL(%rip), %rdx
	movq	_ZTISt12bad_weak_ptr@GOTPCREL(%rip), %rsi
	movq	%rax, %rdi
	addq	$16, %rdx
	movq	%rdx, (%rax)
	movq	_ZNSt12bad_weak_ptrD1Ev@GOTPCREL(%rip), %rdx
.LEHB32:
	call	__cxa_throw@PLT
.L1321:
	movq	%rbp, %rdi
	call	_ZNSt16_Sp_counted_baseILN9__gnu_cxx12_Lock_policyE2EE10_M_releaseEv@PLT
	movq	%rbp, %rdi
	call	_ZNSt16_Sp_counted_baseILN9__gnu_cxx12_Lock_policyE2EE10_M_releaseEv@PLT
	movq	%rbx, %rdi
	call	_Unwind_Resume@PLT
.L1291:
	movq	%rbp, %rdi
	call	_ZNSt16_Sp_counted_baseILN9__gnu_cxx12_Lock_policyE2EE10_M_releaseEv@PLT
	movq	%rbp, %rdi
	call	_ZNSt16_Sp_counted_baseILN9__gnu_cxx12_Lock_policyE2EE10_M_releaseEv@PLT
	movq	%rbx, %rdi
	call	_Unwind_Resume@PLT
.L1266:
	movl	$8, %edi
	call	__cxa_allocate_exception@PLT
	movq	_ZTVSt12bad_weak_ptr@GOTPCREL(%rip), %rdx
	movq	_ZTISt12bad_weak_ptr@GOTPCREL(%rip), %rsi
	movq	%rax, %rdi
	addq	$16, %rdx
	movq	%rdx, (%rax)
	movq	_ZNSt12bad_weak_ptrD1Ev@GOTPCREL(%rip), %rdx
	call	__cxa_throw@PLT
.L1325:
	movq	72(%rsp), %rdi
	testq	%rdi, %rdi
	je	.L1326
	call	_ZNSt16_Sp_counted_baseILN9__gnu_cxx12_Lock_policyE2EE10_M_releaseEv@PLT
.L1326:
	movq	%rbx, %rdi
	call	_Unwind_Resume@PLT
.LEHE32:
	.cfi_endproc
.LFE7935:
	.section	.gcc_except_table
.LLSDAC7935:
	.byte	0xff
	.byte	0xff
	.byte	0x1
	.uleb128 .LLSDACSEC7935-.LLSDACSBC7935
.LLSDACSBC7935:
	.uleb128 .LEHB32-.LCOLDB40
	.uleb128 .LEHE32-.LEHB32
	.uleb128 0
	.uleb128 0
.LLSDACSEC7935:
	.section	.text.unlikely
	.text
	.size	_ZN8asiodnp311LinkSession12ShutdownImplEv, .-_ZN8asiodnp311LinkSession12ShutdownImplEv
	.section	.text.unlikely
	.size	_ZN8asiodnp311LinkSession12ShutdownImplEv.cold, .-_ZN8asiodnp311LinkSession12ShutdownImplEv.cold
.LCOLDE40:
	.text
.LHOTE40:
	.p2align 4
	.type	_ZNSt17_Function_handlerIFvvEZN8asiodnp311LinkSession8ShutdownEvEUlvE_E9_M_invokeERKSt9_Any_data, @function
_ZNSt17_Function_handlerIFvvEZN8asiodnp311LinkSession8ShutdownEvEUlvE_E9_M_invokeERKSt9_Any_data:
.LFB9441:
	.cfi_startproc
	movq	(%rdi), %rax
	movq	(%rax), %rdi
	jmp	_ZN8asiodnp311LinkSession12ShutdownImplEv@PLT
	.cfi_endproc
.LFE9441:
	.size	_ZNSt17_Function_handlerIFvvEZN8asiodnp311LinkSession8ShutdownEvEUlvE_E9_M_invokeERKSt9_Any_data, .-_ZNSt17_Function_handlerIFvvEZN8asiodnp311LinkSession8ShutdownEvEUlvE_E9_M_invokeERKSt9_Any_data
	.section	.rodata.str1.8
	.align 8
.LC41:
	.string	"/opt/PLC/OpenPLC_v3/utils/dnp3_src/cpp/libs/src/asiodnp3/LinkSession.cpp(96)"
	.section	.text.unlikely
	.align 2
.LCOLDB42:
	.text
.LHOTB42:
	.align 2
	.p2align 4
	.globl	_ZN8asiodnp311LinkSession14OnReadCompleteERKSt10error_codem
	.type	_ZN8asiodnp311LinkSession14OnReadCompleteERKSt10error_codem, @function
_ZN8asiodnp311LinkSession14OnReadCompleteERKSt10error_codem:
.LFB7958:
	.cfi_startproc
	.cfi_personality 0x9b,DW.ref.__gxx_personality_v0
	.cfi_lsda 0x1b,.LLSDA7958
	pushq	%r15
	.cfi_def_cfa_offset 16
	.cfi_offset 15, -16
	movq	%rsi, %rcx
	pushq	%r14
	.cfi_def_cfa_offset 24
	.cfi_offset 14, -24
	pushq	%rbx
	.cfi_def_cfa_offset 32
	.cfi_offset 3, -32
	movq	%rdi, %rbx
	subq	$64, %rsp
	.cfi_def_cfa_offset 96
	movl	(%rsi), %eax
	testl	%eax, %eax
	je	.L1401
	leaq	32(%rsp), %rsi
	leaq	64(%rdi), %rdi
	movq	%rcx, 8(%rsp)
	movl	$4, 32(%rsp)
.LEHB33:
	call	_ZNK7openpal6Logger9IsEnabledERKNS_10LogFiltersE@PLT
	testb	%al, %al
	je	.L1402
	movq	8(%rsp), %rcx
	leaq	32(%rsp), %rdi
	movq	8(%rcx), %rsi
	movl	(%rcx), %edx
	movq	(%rsi), %rax
	call	*32(%rax)
.LEHE33:
	movq	32(%rsp), %rcx
	leaq	28(%rsp), %rsi
	leaq	64(%rbx), %rdi
	leaq	.LC41(%rip), %rdx
	movl	$4, 28(%rsp)
.LEHB34:
	call	_ZN7openpal6Logger3LogERKNS_10LogFiltersEPKcS5_@PLT
.LEHE34:
	movq	32(%rsp), %rdi
	leaq	48(%rsp), %rax
	cmpq	%rax, %rdi
	je	.L1402
	movq	48(%rsp), %rax
	leaq	1(%rax), %rsi
	call	_ZdlPvm@PLT
.L1402:
	addq	$64, %rsp
	.cfi_remember_state
	.cfi_def_cfa_offset 32
	movq	%rbx, %rdi
	popq	%rbx
	.cfi_def_cfa_offset 24
	popq	%r14
	.cfi_def_cfa_offset 16
	popq	%r15
	.cfi_def_cfa_offset 8
.LEHB35:
	jmp	_ZN8asiodnp311LinkSession12ShutdownImplEv@PLT
	.p2align 4,,10
	.p2align 3
.L1401:
	.cfi_restore_state
	movq	%rdx, %rsi
	leaq	16(%rdi), %rdx
	leaq	152(%rdi), %rdi
	call	_ZN8opendnp315LinkLayerParser6OnReadEjRNS_10IFrameSinkE@PLT
	addq	$64, %rsp
	.cfi_remember_state
	.cfi_def_cfa_offset 32
	movq	%rbx, %rdi
	popq	%rbx
	.cfi_def_cfa_offset 24
	popq	%r14
	.cfi_def_cfa_offset 16
	popq	%r15
	.cfi_def_cfa_offset 8
	jmp	_ZN8asiodnp311LinkSession12BeginReceiveEv@PLT
.LEHE35:
.L1405:
	.cfi_restore_state
	movq	%rax, %rbx
	jmp	.L1404
	.section	.gcc_except_table
.LLSDA7958:
	.byte	0xff
	.byte	0xff
	.byte	0x1
	.uleb128 .LLSDACSE7958-.LLSDACSB7958
.LLSDACSB7958:
	.uleb128 .LEHB33-.LFB7958
	.uleb128 .LEHE33-.LEHB33
	.uleb128 0
	.uleb128 0
	.uleb128 .LEHB34-.LFB7958
	.uleb128 .LEHE34-.LEHB34
	.uleb128 .L1405-.LFB7958
	.uleb128 0
	.uleb128 .LEHB35-.LFB7958
	.uleb128 .LEHE35-.LEHB35
	.uleb128 0
	.uleb128 0
.LLSDACSE7958:
	.text
	.cfi_endproc
	.section	.text.unlikely
	.cfi_startproc
	.cfi_personality 0x9b,DW.ref.__gxx_personality_v0
	.cfi_lsda 0x1b,.LLSDAC7958
	.type	_ZN8asiodnp311LinkSession14OnReadCompleteERKSt10error_codem.cold, @function
_ZN8asiodnp311LinkSession14OnReadCompleteERKSt10error_codem.cold:
.LFSB7958:
.L1404:
	.cfi_def_cfa_offset 96
	.cfi_offset 3, -32
	.cfi_offset 14, -24
	.cfi_offset 15, -16
	leaq	32(%rsp), %rdi
	call	_ZNSt7__cxx1112basic_stringIcSt11char_traitsIcESaIcEE10_M_disposeEv@PLT
	movq	%rbx, %rdi
.LEHB36:
	call	_Unwind_Resume@PLT
.LEHE36:
	.cfi_endproc
.LFE7958:
	.section	.gcc_except_table
.LLSDAC7958:
	.byte	0xff
	.byte	0xff
	.byte	0x1
	.uleb128 .LLSDACSEC7958-.LLSDACSBC7958
.LLSDACSBC7958:
	.uleb128 .LEHB36-.LCOLDB42
	.uleb128 .LEHE36-.LEHB36
	.uleb128 0
	.uleb128 0
.LLSDACSEC7958:
	.section	.text.unlikely
	.text
	.size	_ZN8asiodnp311LinkSession14OnReadCompleteERKSt10error_codem, .-_ZN8asiodnp311LinkSession14OnReadCompleteERKSt10error_codem
	.section	.text.unlikely
	.size	_ZN8asiodnp311LinkSession14OnReadCompleteERKSt10error_codem.cold, .-_ZN8asiodnp311LinkSession14OnReadCompleteERKSt10error_codem.cold
.LCOLDE42:
	.text
.LHOTE42:
	.section	.rodata.str1.8
	.align 8
.LC43:
	.string	"/opt/PLC/OpenPLC_v3/utils/dnp3_src/cpp/libs/src/asiodnp3/LinkSession.cpp(110)"
	.section	.text.unlikely
	.align 2
.LCOLDB44:
	.text
.LHOTB44:
	.align 2
	.p2align 4
	.globl	_ZN8asiodnp311LinkSession15OnWriteCompleteERKSt10error_codem
	.type	_ZN8asiodnp311LinkSession15OnWriteCompleteERKSt10error_codem, @function
_ZN8asiodnp311LinkSession15OnWriteCompleteERKSt10error_codem:
.LFB7959:
	.cfi_startproc
	.cfi_personality 0x9b,DW.ref.__gxx_personality_v0
	.cfi_lsda 0x1b,.LLSDA7959
	movl	(%rsi), %eax
	testl	%eax, %eax
	je	.L1411
	pushq	%r15
	.cfi_def_cfa_offset 16
	.cfi_offset 15, -16
	pushq	%r14
	.cfi_def_cfa_offset 24
	.cfi_offset 14, -24
	pushq	%rbx
	.cfi_def_cfa_offset 32
	.cfi_offset 3, -32
	movq	%rdi, %rbx
	leaq	64(%rdi), %rdi
	subq	$64, %rsp
	.cfi_def_cfa_offset 96
	movq	%rsi, 8(%rsp)
	leaq	32(%rsp), %rsi
	movl	$4, 32(%rsp)
.LEHB37:
	call	_ZNK7openpal6Logger9IsEnabledERKNS_10LogFiltersE@PLT
	testb	%al, %al
	je	.L1412
	movq	8(%rsp), %rdx
	leaq	32(%rsp), %rdi
	movq	8(%rdx), %rsi
	movl	(%rdx), %edx
	movq	(%rsi), %rax
	call	*32(%rax)
.LEHE37:
	movq	32(%rsp), %rcx
	leaq	28(%rsp), %rsi
	leaq	64(%rbx), %rdi
	leaq	.LC43(%rip), %rdx
	movl	$4, 28(%rsp)
.LEHB38:
	call	_ZN7openpal6Logger3LogERKNS_10LogFiltersEPKcS5_@PLT
.LEHE38:
	movq	32(%rsp), %rdi
	leaq	48(%rsp), %rax
	cmpq	%rax, %rdi
	je	.L1412
	movq	48(%rsp), %rax
	leaq	1(%rax), %rsi
	call	_ZdlPvm@PLT
.L1412:
	addq	$64, %rsp
	.cfi_def_cfa_offset 32
	movq	%rbx, %rdi
	popq	%rbx
	.cfi_restore 3
	.cfi_def_cfa_offset 24
	popq	%r14
	.cfi_restore 14
	.cfi_def_cfa_offset 16
	popq	%r15
	.cfi_restore 15
	.cfi_def_cfa_offset 8
.LEHB39:
	jmp	_ZN8asiodnp311LinkSession12ShutdownImplEv@PLT
	.p2align 4,,10
	.p2align 3
.L1411:
	movq	592(%rdi), %rdi
	movl	$1, %esi
	jmp	_ZN8asiodnp318MasterSessionStack18OnTransmitCompleteEb@PLT
.LEHE39:
.L1415:
	.cfi_def_cfa_offset 96
	.cfi_offset 3, -32
	.cfi_offset 14, -24
	.cfi_offset 15, -16
	movq	%rax, %rbx
	jmp	.L1414
	.section	.gcc_except_table
.LLSDA7959:
	.byte	0xff
	.byte	0xff
	.byte	0x1
	.uleb128 .LLSDACSE7959-.LLSDACSB7959
.LLSDACSB7959:
	.uleb128 .LEHB37-.LFB7959
	.uleb128 .LEHE37-.LEHB37
	.uleb128 0
	.uleb128 0
	.uleb128 .LEHB38-.LFB7959
	.uleb128 .LEHE38-.LEHB38
	.uleb128 .L1415-.LFB7959
	.uleb128 0
	.uleb128 .LEHB39-.LFB7959
	.uleb128 .LEHE39-.LEHB39
	.uleb128 0
	.uleb128 0
.LLSDACSE7959:
	.text
	.cfi_endproc
	.section	.text.unlikely
	.cfi_startproc
	.cfi_personality 0x9b,DW.ref.__gxx_personality_v0
	.cfi_lsda 0x1b,.LLSDAC7959
	.type	_ZN8asiodnp311LinkSession15OnWriteCompleteERKSt10error_codem.cold, @function
_ZN8asiodnp311LinkSession15OnWriteCompleteERKSt10error_codem.cold:
.LFSB7959:
.L1414:
	.cfi_def_cfa_offset 96
	.cfi_offset 3, -32
	.cfi_offset 14, -24
	.cfi_offset 15, -16
	leaq	32(%rsp), %rdi
	call	_ZNSt7__cxx1112basic_stringIcSt11char_traitsIcESaIcEE10_M_disposeEv@PLT
	movq	%rbx, %rdi
.LEHB40:
	call	_Unwind_Resume@PLT
.LEHE40:
	.cfi_endproc
.LFE7959:
	.section	.gcc_except_table
.LLSDAC7959:
	.byte	0xff
	.byte	0xff
	.byte	0x1
	.uleb128 .LLSDACSEC7959-.LLSDACSBC7959
.LLSDACSBC7959:
	.uleb128 .LEHB40-.LCOLDB44
	.uleb128 .LEHE40-.LEHB40
	.uleb128 0
	.uleb128 0
.LLSDACSEC7959:
	.section	.text.unlikely
	.text
	.size	_ZN8asiodnp311LinkSession15OnWriteCompleteERKSt10error_codem, .-_ZN8asiodnp311LinkSession15OnWriteCompleteERKSt10error_codem
	.section	.text.unlikely
	.size	_ZN8asiodnp311LinkSession15OnWriteCompleteERKSt10error_codem.cold, .-_ZN8asiodnp311LinkSession15OnWriteCompleteERKSt10error_codem.cold
.LCOLDE44:
	.text
.LHOTE44:
	.section	.rodata.str1.8
	.align 8
.LC45:
	.string	"No master created. Closing socket."
	.align 8
.LC46:
	.string	"/opt/PLC/OpenPLC_v3/utils/dnp3_src/cpp/libs/src/asiodnp3/LinkSession.cpp(145)"
	.text
	.align 2
	.p2align 4
	.globl	_ZN8asiodnp311LinkSession7OnFrameERKN8opendnp316LinkHeaderFieldsERKN7openpal6RSliceE
	.type	_ZN8asiodnp311LinkSession7OnFrameERKN8opendnp316LinkHeaderFieldsERKN7openpal6RSliceE, @function
_ZN8asiodnp311LinkSession7OnFrameERKN8opendnp316LinkHeaderFieldsERKN7openpal6RSliceE:
.LFB7961:
	.cfi_startproc
	pushq	%rbp
	.cfi_def_cfa_offset 16
	.cfi_offset 6, -16
	movq	%rsi, %rbp
	pushq	%rbx
	.cfi_def_cfa_offset 24
	.cfi_offset 3, -24
	movq	%rdi, %rbx
	subq	$40, %rsp
	.cfi_def_cfa_offset 64
	movq	592(%rdi), %rdi
	testq	%rdi, %rdi
	je	.L1423
.L1431:
	movq	%rbp, %rsi
	call	_ZN8asiodnp318MasterSessionStack7OnFrameERKN8opendnp316LinkHeaderFieldsERKN7openpal6RSliceE@PLT
.L1424:
	addq	$40, %rsp
	.cfi_remember_state
	.cfi_def_cfa_offset 24
	movl	$1, %eax
	popq	%rbx
	.cfi_def_cfa_offset 16
	popq	%rbp
	.cfi_def_cfa_offset 8
	ret
	.p2align 4,,10
	.p2align 3
.L1423:
	.cfi_restore_state
	leaq	568(%rbx), %rdi
	movq	%rdx, 8(%rsp)
	call	_ZN7openpal8TimerRef6CancelEv@PLT
	movq	120(%rbx), %rdi
	movq	96(%rbx), %rsi
	movq	%rbp, %rdx
	leaq	48(%rbx), %rcx
	movq	(%rdi), %rax
	call	*40(%rax)
	movq	592(%rbx), %rdi
	testq	%rdi, %rdi
	je	.L1425
	call	_ZN8asiodnp318MasterSessionStack14OnLowerLayerUpEv@PLT
	movq	592(%rbx), %rdi
	movq	8(%rsp), %rdx
	jmp	.L1431
	.p2align 4,,10
	.p2align 3
.L1425:
	leaq	64(%rbx), %rbp
	leaq	28(%rsp), %rsi
	movl	$4, 28(%rsp)
	movq	%rbp, %rdi
	movq	%rsi, 8(%rsp)
	call	_ZNK7openpal6Logger9IsEnabledERKNS_10LogFiltersE@PLT
	movq	8(%rsp), %rsi
	testb	%al, %al
	jne	.L1432
.L1426:
	movq	%rbx, %rdi
	call	_ZN8asiodnp311LinkSession12ShutdownImplEv@PLT
	jmp	.L1424
	.p2align 4,,10
	.p2align 3
.L1432:
	leaq	.LC45(%rip), %rcx
	leaq	.LC46(%rip), %rdx
	movq	%rbp, %rdi
	movl	$4, 28(%rsp)
	call	_ZN7openpal6Logger3LogERKNS_10LogFiltersEPKcS5_@PLT
	jmp	.L1426
	.cfi_endproc
.LFE7961:
	.size	_ZN8asiodnp311LinkSession7OnFrameERKN8opendnp316LinkHeaderFieldsERKN7openpal6RSliceE, .-_ZN8asiodnp311LinkSession7OnFrameERKN8opendnp316LinkHeaderFieldsERKN7openpal6RSliceE
	.p2align 4
	.globl	_ZThn16_N8asiodnp311LinkSession7OnFrameERKN8opendnp316LinkHeaderFieldsERKN7openpal6RSliceE
	.type	_ZThn16_N8asiodnp311LinkSession7OnFrameERKN8opendnp316LinkHeaderFieldsERKN7openpal6RSliceE, @function
_ZThn16_N8asiodnp311LinkSession7OnFrameERKN8opendnp316LinkHeaderFieldsERKN7openpal6RSliceE:
.LFB10590:
	.cfi_startproc
	pushq	%r14
	.cfi_def_cfa_offset 16
	.cfi_offset 14, -16
	pushq	%rbp
	.cfi_def_cfa_offset 24
	.cfi_offset 6, -24
	movq	%rsi, %rbp
	pushq	%rbx
	.cfi_def_cfa_offset 32
	.cfi_offset 3, -32
	movq	%rdi, %rbx
	subq	$32, %rsp
	.cfi_def_cfa_offset 64
	movq	576(%rdi), %rdi
	testq	%rdi, %rdi
	je	.L1434
.L1442:
	movq	%rbp, %rsi
	call	_ZN8asiodnp318MasterSessionStack7OnFrameERKN8opendnp316LinkHeaderFieldsERKN7openpal6RSliceE@PLT
.L1435:
	addq	$32, %rsp
	.cfi_remember_state
	.cfi_def_cfa_offset 32
	movl	$1, %eax
	popq	%rbx
	.cfi_def_cfa_offset 24
	popq	%rbp
	.cfi_def_cfa_offset 16
	popq	%r14
	.cfi_def_cfa_offset 8
	ret
	.p2align 4,,10
	.p2align 3
.L1434:
	.cfi_restore_state
	leaq	552(%rbx), %rdi
	movq	%rdx, 8(%rsp)
	leaq	-16(%rbx), %r14
	call	_ZN7openpal8TimerRef6CancelEv@PLT
	movq	104(%rbx), %rdi
	movq	80(%rbx), %rsi
	movq	%rbp, %rdx
	leaq	32(%rbx), %rcx
	movq	(%rdi), %rax
	call	*40(%rax)
	movq	576(%rbx), %rdi
	testq	%rdi, %rdi
	je	.L1436
	call	_ZN8asiodnp318MasterSessionStack14OnLowerLayerUpEv@PLT
	movq	576(%rbx), %rdi
	movq	8(%rsp), %rdx
	jmp	.L1442
	.p2align 4,,10
	.p2align 3
.L1436:
	leaq	28(%rsp), %rbp
	leaq	48(%rbx), %rdi
	movl	$4, 28(%rsp)
	movq	%rbp, %rsi
	call	_ZNK7openpal6Logger9IsEnabledERKNS_10LogFiltersE@PLT
	testb	%al, %al
	jne	.L1443
.L1437:
	movq	%r14, %rdi
	call	_ZN8asiodnp311LinkSession12ShutdownImplEv@PLT
	jmp	.L1435
	.p2align 4,,10
	.p2align 3
.L1443:
	leaq	.LC45(%rip), %rcx
	leaq	.LC46(%rip), %rdx
	movq	%rbp, %rsi
	movl	$4, 28(%rsp)
	leaq	48(%rbx), %rdi
	call	_ZN7openpal6Logger3LogERKNS_10LogFiltersEPKcS5_@PLT
	jmp	.L1437
	.cfi_endproc
.LFE10590:
	.size	_ZThn16_N8asiodnp311LinkSession7OnFrameERKN8opendnp316LinkHeaderFieldsERKN7openpal6RSliceE, .-_ZThn16_N8asiodnp311LinkSession7OnFrameERKN8opendnp316LinkHeaderFieldsERKN7openpal6RSliceE
	.section	.text.unlikely
.LCOLDB47:
	.text
.LHOTB47:
	.p2align 4
	.globl	_ZThn8_N8asiodnp311LinkSession15OnWriteCompleteERKSt10error_codem
	.type	_ZThn8_N8asiodnp311LinkSession15OnWriteCompleteERKSt10error_codem, @function
_ZThn8_N8asiodnp311LinkSession15OnWriteCompleteERKSt10error_codem:
.LFB10591:
	.cfi_startproc
	.cfi_personality 0x9b,DW.ref.__gxx_personality_v0
	.cfi_lsda 0x1b,.LLSDA10591
	movl	(%rsi), %eax
	testl	%eax, %eax
	je	.L1445
	pushq	%r15
	.cfi_def_cfa_offset 16
	.cfi_offset 15, -16
	pushq	%r14
	.cfi_def_cfa_offset 24
	.cfi_offset 14, -24
	pushq	%rbx
	.cfi_def_cfa_offset 32
	.cfi_offset 3, -32
	movq	%rdi, %rbx
	leaq	56(%rdi), %rdi
	subq	$64, %rsp
	.cfi_def_cfa_offset 96
	movq	%rsi, 8(%rsp)
	leaq	32(%rsp), %rsi
	movl	$4, 32(%rsp)
.LEHB41:
	call	_ZNK7openpal6Logger9IsEnabledERKNS_10LogFiltersE@PLT
	testb	%al, %al
	je	.L1446
	movq	8(%rsp), %rdx
	leaq	32(%rsp), %rdi
	movq	8(%rdx), %rsi
	movl	(%rdx), %edx
	movq	(%rsi), %rax
	call	*32(%rax)
.LEHE41:
	movq	32(%rsp), %rcx
	leaq	28(%rsp), %rsi
	leaq	56(%rbx), %rdi
	leaq	.LC43(%rip), %rdx
	movl	$4, 28(%rsp)
.LEHB42:
	call	_ZN7openpal6Logger3LogERKNS_10LogFiltersEPKcS5_@PLT
.LEHE42:
	movq	32(%rsp), %rdi
	leaq	48(%rsp), %rax
	cmpq	%rax, %rdi
	je	.L1446
	movq	48(%rsp), %rax
	leaq	1(%rax), %rsi
	call	_ZdlPvm@PLT
.L1446:
	addq	$64, %rsp
	.cfi_def_cfa_offset 32
	leaq	-8(%rbx), %rdi
	popq	%rbx
	.cfi_restore 3
	.cfi_def_cfa_offset 24
	popq	%r14
	.cfi_restore 14
	.cfi_def_cfa_offset 16
	popq	%r15
	.cfi_restore 15
	.cfi_def_cfa_offset 8
.LEHB43:
	jmp	_ZN8asiodnp311LinkSession12ShutdownImplEv@PLT
	.p2align 4,,10
	.p2align 3
.L1445:
	movq	584(%rdi), %rdi
	movl	$1, %esi
	jmp	_ZN8asiodnp318MasterSessionStack18OnTransmitCompleteEb@PLT
.LEHE43:
.L1449:
	.cfi_def_cfa_offset 96
	.cfi_offset 3, -32
	.cfi_offset 14, -24
	.cfi_offset 15, -16
	movq	%rax, %rbx
	jmp	.L1448
	.section	.gcc_except_table
.LLSDA10591:
	.byte	0xff
	.byte	0xff
	.byte	0x1
	.uleb128 .LLSDACSE10591-.LLSDACSB10591
.LLSDACSB10591:
	.uleb128 .LEHB41-.LFB10591
	.uleb128 .LEHE41-.LEHB41
	.uleb128 0
	.uleb128 0
	.uleb128 .LEHB42-.LFB10591
	.uleb128 .LEHE42-.LEHB42
	.uleb128 .L1449-.LFB10591
	.uleb128 0
	.uleb128 .LEHB43-.LFB10591
	.uleb128 .LEHE43-.LEHB43
	.uleb128 0
	.uleb128 0
.LLSDACSE10591:
	.text
	.cfi_endproc
	.section	.text.unlikely
	.cfi_startproc
	.cfi_personality 0x9b,DW.ref.__gxx_personality_v0
	.cfi_lsda 0x1b,.LLSDAC10591
	.type	_ZThn8_N8asiodnp311LinkSession15OnWriteCompleteERKSt10error_codem.cold, @function
_ZThn8_N8asiodnp311LinkSession15OnWriteCompleteERKSt10error_codem.cold:
.LFSB10591:
.L1448:
	.cfi_def_cfa_offset 96
	.cfi_offset 3, -32
	.cfi_offset 14, -24
	.cfi_offset 15, -16
	leaq	32(%rsp), %rdi
	call	_ZNSt7__cxx1112basic_stringIcSt11char_traitsIcESaIcEE10_M_disposeEv@PLT
	movq	%rbx, %rdi
.LEHB44:
	call	_Unwind_Resume@PLT
.LEHE44:
	.cfi_endproc
.LFE10591:
	.section	.gcc_except_table
.LLSDAC10591:
	.byte	0xff
	.byte	0xff
	.byte	0x1
	.uleb128 .LLSDACSEC10591-.LLSDACSBC10591
.LLSDACSBC10591:
	.uleb128 .LEHB44-.LCOLDB47
	.uleb128 .LEHE44-.LEHB44
	.uleb128 0
	.uleb128 0
.LLSDACSEC10591:
	.section	.text.unlikely
	.text
	.size	_ZThn8_N8asiodnp311LinkSession15OnWriteCompleteERKSt10error_codem, .-_ZThn8_N8asiodnp311LinkSession15OnWriteCompleteERKSt10error_codem
	.section	.text.unlikely
	.size	_ZThn8_N8asiodnp311LinkSession15OnWriteCompleteERKSt10error_codem.cold, .-_ZThn8_N8asiodnp311LinkSession15OnWriteCompleteERKSt10error_codem.cold
.LCOLDE47:
	.text
.LHOTE47:
	.section	.text.unlikely
.LCOLDB48:
	.text
.LHOTB48:
	.p2align 4
	.globl	_ZThn8_N8asiodnp311LinkSession14OnReadCompleteERKSt10error_codem
	.type	_ZThn8_N8asiodnp311LinkSession14OnReadCompleteERKSt10error_codem, @function
_ZThn8_N8asiodnp311LinkSession14OnReadCompleteERKSt10error_codem:
.LFB10592:
	.cfi_startproc
	.cfi_personality 0x9b,DW.ref.__gxx_personality_v0
	.cfi_lsda 0x1b,.LLSDA10592
	pushq	%r15
	.cfi_def_cfa_offset 16
	.cfi_offset 15, -16
	movq	%rsi, %rcx
	pushq	%r14
	.cfi_def_cfa_offset 24
	.cfi_offset 14, -24
	pushq	%rbx
	.cfi_def_cfa_offset 32
	.cfi_offset 3, -32
	leaq	-8(%rdi), %rbx
	subq	$64, %rsp
	.cfi_def_cfa_offset 96
	movl	(%rsi), %eax
	testl	%eax, %eax
	je	.L1457
	leaq	56(%rdi), %r15
	leaq	32(%rsp), %rsi
	movq	%rcx, 8(%rsp)
	movq	%r15, %rdi
	movl	$4, 32(%rsp)
.LEHB45:
	call	_ZNK7openpal6Logger9IsEnabledERKNS_10LogFiltersE@PLT
	testb	%al, %al
	je	.L1458
	movq	8(%rsp), %rcx
	leaq	32(%rsp), %rdi
	movq	8(%rcx), %rsi
	movl	(%rcx), %edx
	movq	(%rsi), %rax
	call	*32(%rax)
.LEHE45:
	movq	32(%rsp), %rcx
	leaq	28(%rsp), %rsi
	movq	%r15, %rdi
	leaq	.LC41(%rip), %rdx
	movl	$4, 28(%rsp)
.LEHB46:
	call	_ZN7openpal6Logger3LogERKNS_10LogFiltersEPKcS5_@PLT
.LEHE46:
	movq	32(%rsp), %rdi
	leaq	48(%rsp), %rax
	cmpq	%rax, %rdi
	je	.L1458
	movq	48(%rsp), %rax
	leaq	1(%rax), %rsi
	call	_ZdlPvm@PLT
.L1458:
	addq	$64, %rsp
	.cfi_remember_state
	.cfi_def_cfa_offset 32
	movq	%rbx, %rdi
	popq	%rbx
	.cfi_def_cfa_offset 24
	popq	%r14
	.cfi_def_cfa_offset 16
	popq	%r15
	.cfi_def_cfa_offset 8
.LEHB47:
	jmp	_ZN8asiodnp311LinkSession12ShutdownImplEv@PLT
	.p2align 4,,10
	.p2align 3
.L1457:
	.cfi_restore_state
	movq	%rdx, %rsi
	leaq	8(%rdi), %rdx
	addq	$144, %rdi
	call	_ZN8opendnp315LinkLayerParser6OnReadEjRNS_10IFrameSinkE@PLT
	addq	$64, %rsp
	.cfi_remember_state
	.cfi_def_cfa_offset 32
	movq	%rbx, %rdi
	popq	%rbx
	.cfi_def_cfa_offset 24
	popq	%r14
	.cfi_def_cfa_offset 16
	popq	%r15
	.cfi_def_cfa_offset 8
	jmp	_ZN8asiodnp311LinkSession12BeginReceiveEv@PLT
.LEHE47:
.L1461:
	.cfi_restore_state
	movq	%rax, %rbx
	jmp	.L1460
	.section	.gcc_except_table
.LLSDA10592:
	.byte	0xff
	.byte	0xff
	.byte	0x1
	.uleb128 .LLSDACSE10592-.LLSDACSB10592
.LLSDACSB10592:
	.uleb128 .LEHB45-.LFB10592
	.uleb128 .LEHE45-.LEHB45
	.uleb128 0
	.uleb128 0
	.uleb128 .LEHB46-.LFB10592
	.uleb128 .LEHE46-.LEHB46
	.uleb128 .L1461-.LFB10592
	.uleb128 0
	.uleb128 .LEHB47-.LFB10592
	.uleb128 .LEHE47-.LEHB47
	.uleb128 0
	.uleb128 0
.LLSDACSE10592:
	.text
	.cfi_endproc
	.section	.text.unlikely
	.cfi_startproc
	.cfi_personality 0x9b,DW.ref.__gxx_personality_v0
	.cfi_lsda 0x1b,.LLSDAC10592
	.type	_ZThn8_N8asiodnp311LinkSession14OnReadCompleteERKSt10error_codem.cold, @function
_ZThn8_N8asiodnp311LinkSession14OnReadCompleteERKSt10error_codem.cold:
.LFSB10592:
.L1460:
	.cfi_def_cfa_offset 96
	.cfi_offset 3, -32
	.cfi_offset 14, -24
	.cfi_offset 15, -16
	leaq	32(%rsp), %rdi
	call	_ZNSt7__cxx1112basic_stringIcSt11char_traitsIcESaIcEE10_M_disposeEv@PLT
	movq	%rbx, %rdi
.LEHB48:
	call	_Unwind_Resume@PLT
.LEHE48:
	.cfi_endproc
.LFE10592:
	.section	.gcc_except_table
.LLSDAC10592:
	.byte	0xff
	.byte	0xff
	.byte	0x1
	.uleb128 .LLSDACSEC10592-.LLSDACSBC10592
.LLSDACSBC10592:
	.uleb128 .LEHB48-.LCOLDB48
	.uleb128 .LEHE48-.LEHB48
	.uleb128 0
	.uleb128 0
.LLSDACSEC10592:
	.section	.text.unlikely
	.text
	.size	_ZThn8_N8asiodnp311LinkSession14OnReadCompleteERKSt10error_codem, .-_ZThn8_N8asiodnp311LinkSession14OnReadCompleteERKSt10error_codem
	.section	.text.unlikely
	.size	_ZThn8_N8asiodnp311LinkSession14OnReadCompleteERKSt10error_codem.cold, .-_ZThn8_N8asiodnp311LinkSession14OnReadCompleteERKSt10error_codem.cold
.LCOLDE48:
	.text
.LHOTE48:
	.section	.text._ZN4asio6detail18completion_handlerIZN7asiopal13IAsyncChannel8ShutdownEvEUlvE_E3ptr5resetEv,"axG",@progbits,_ZN4asio6detail18completion_handlerIZN7asiopal13IAsyncChannel8ShutdownEvEUlvE_E3ptr5resetEv,comdat
	.align 2
	.p2align 4
	.weak	_ZN4asio6detail18completion_handlerIZN7asiopal13IAsyncChannel8ShutdownEvEUlvE_E3ptr5resetEv
	.type	_ZN4asio6detail18completion_handlerIZN7asiopal13IAsyncChannel8ShutdownEvEUlvE_E3ptr5resetEv, @function
_ZN4asio6detail18completion_handlerIZN7asiopal13IAsyncChannel8ShutdownEvEUlvE_E3ptr5resetEv:
.LFB9884:
	.cfi_startproc
	pushq	%rbp
	.cfi_def_cfa_offset 16
	.cfi_offset 6, -16
	pushq	%rbx
	.cfi_def_cfa_offset 24
	.cfi_offset 3, -24
	movq	%rdi, %rbx
	subq	$8, %rsp
	.cfi_def_cfa_offset 32
	movq	16(%rdi), %rax
	testq	%rax, %rax
	je	.L1467
	movq	32(%rax), %rbp
	testq	%rbp, %rbp
	je	.L1469
	movq	8(%rbp), %rdx
	leaq	8(%rbp), %rcx
	movabsq	$4294967297, %rax
	cmpq	%rax, %rdx
	je	.L1490
	movq	__libc_single_threaded@GOTPCREL(%rip), %rax
	cmpb	$0, (%rax)
	je	.L1471
	movl	8(%rbp), %eax
	leal	-1(%rax), %edx
	movl	%edx, 8(%rbp)
.L1472:
	cmpl	$1, %eax
	je	.L1491
.L1469:
	movq	$0, 16(%rbx)
.L1467:
	movq	8(%rbx), %rbp
	testq	%rbp, %rbp
	je	.L1466
	data16	leaq	_ZN4asio6detail15keyword_tss_ptrINS0_10call_stackINS0_15task_io_serviceENS0_27task_io_service_thread_infoEE7contextEE6value_E@tlsgd(%rip), %rdi
	.value	0x6666
	rex64
	call	__tls_get_addr@PLT
	movq	(%rax), %rax
	testq	%rax, %rax
	je	.L1475
	movq	8(%rax), %rax
	testq	%rax, %rax
	je	.L1475
	cmpq	$0, (%rax)
	je	.L1492
.L1475:
	movq	%rbp, %rdi
	call	_ZdlPv@PLT
.L1476:
	movq	$0, 8(%rbx)
.L1466:
	addq	$8, %rsp
	.cfi_remember_state
	.cfi_def_cfa_offset 24
	popq	%rbx
	.cfi_def_cfa_offset 16
	popq	%rbp
	.cfi_def_cfa_offset 8
	ret
	.p2align 4,,10
	.p2align 3
.L1471:
	.cfi_restore_state
	movl	$-1, %eax
	lock xaddl	%eax, (%rcx)
	jmp	.L1472
	.p2align 4,,10
	.p2align 3
.L1492:
	movzbl	40(%rbp), %edx
	movb	%dl, 0(%rbp)
	movq	%rbp, (%rax)
	jmp	.L1476
	.p2align 4,,10
	.p2align 3
.L1490:
	movq	0(%rbp), %rax
	movq	%rbp, %rdi
	movq	$0, 8(%rbp)
	call	*16(%rax)
	movq	0(%rbp), %rax
	movq	%rbp, %rdi
	call	*24(%rax)
	jmp	.L1469
	.p2align 4,,10
	.p2align 3
.L1491:
	movq	%rbp, %rdi
	call	_ZNSt16_Sp_counted_baseILN9__gnu_cxx12_Lock_policyE2EE24_M_release_last_use_coldEv@PLT
	jmp	.L1469
	.cfi_endproc
.LFE9884:
	.size	_ZN4asio6detail18completion_handlerIZN7asiopal13IAsyncChannel8ShutdownEvEUlvE_E3ptr5resetEv, .-_ZN4asio6detail18completion_handlerIZN7asiopal13IAsyncChannel8ShutdownEvEUlvE_E3ptr5resetEv
	.section	.text._ZN4asio6detail18completion_handlerIZN7asiopal13IAsyncChannel8ShutdownEvEUlvE_E11do_completeEPNS0_15task_io_serviceEPNS0_25task_io_service_operationERKSt10error_codem,"axG",@progbits,_ZN4asio6detail18completion_handlerIZN7asiopal13IAsyncChannel8ShutdownEvEUlvE_E11do_completeEPNS0_15task_io_serviceEPNS0_25task_io_service_operationERKSt10error_codem,comdat
	.p2align 4
	.weak	_ZN4asio6detail18completion_handlerIZN7asiopal13IAsyncChannel8ShutdownEvEUlvE_E11do_completeEPNS0_15task_io_serviceEPNS0_25task_io_service_operationERKSt10error_codem
	.type	_ZN4asio6detail18completion_handlerIZN7asiopal13IAsyncChannel8ShutdownEvEUlvE_E11do_completeEPNS0_15task_io_serviceEPNS0_25task_io_service_operationERKSt10error_codem, @function
_ZN4asio6detail18completion_handlerIZN7asiopal13IAsyncChannel8ShutdownEvEUlvE_E11do_completeEPNS0_15task_io_serviceEPNS0_25task_io_service_operationERKSt10error_codem:
.LFB9888:
	.cfi_startproc
	.cfi_personality 0x9b,DW.ref.__gxx_personality_v0
	.cfi_lsda 0x1b,.LLSDA9888
	pushq	%r14
	.cfi_def_cfa_offset 16
	.cfi_offset 14, -16
	pushq	%r12
	.cfi_def_cfa_offset 24
	.cfi_offset 12, -24
	movq	%rdi, %r12
	pushq	%rbp
	.cfi_def_cfa_offset 32
	.cfi_offset 6, -32
	movq	%rsi, %rbp
	pushq	%rbx
	.cfi_def_cfa_offset 40
	.cfi_offset 3, -40
	subq	$120, %rsp
	.cfi_def_cfa_offset 160
	movdqu	24(%rsi), %xmm0
	leaq	64(%rsp), %rax
	movq	%rax, 80(%rsp)
	movaps	%xmm0, 64(%rsp)
	movaps	%xmm0, (%rsp)
	data16	leaq	_ZN4asio6detail15keyword_tss_ptrINS0_10call_stackINS0_15task_io_serviceENS0_27task_io_service_thread_infoEE7contextEE6value_E@tlsgd(%rip), %rdi
	.value	0x6666
	rex64
	call	__tls_get_addr@PLT
	movq	(%rax), %rax
	testq	%rax, %rax
	je	.L1494
	movq	8(%rax), %rax
	testq	%rax, %rax
	je	.L1494
	cmpq	$0, (%rax)
	je	.L1591
.L1494:
	movq	%rbp, %rdi
	call	_ZdlPv@PLT
	movq	72(%rsp), %rbx
.L1495:
	testq	%r12, %r12
	je	.L1590
	movq	64(%rsp), %rbp
	testq	%rbx, %rbx
	je	.L1498
	movq	__libc_single_threaded@GOTPCREL(%rip), %rdx
	cmpb	$0, (%rdx)
	je	.L1499
	movl	8(%rbx), %eax
	addl	$1, %eax
	movl	%eax, 8(%rbx)
	cmpb	$0, 57(%rbp)
	jne	.L1500
	cmpb	$0, 58(%rbp)
	jne	.L1500
.L1501:
	movq	48(%rbp), %r12
	pxor	%xmm0, %xmm0
	movups	%xmm0, 40(%rbp)
	testq	%r12, %r12
	je	.L1589
.L1558:
	movq	8(%r12), %rdx
	leaq	8(%r12), %rcx
	movabsq	$4294967297, %rax
	cmpq	%rax, %rdx
	je	.L1592
	movq	__libc_single_threaded@GOTPCREL(%rip), %rax
	cmpb	$0, (%rax)
	je	.L1543
	movl	8(%r12), %eax
	leal	-1(%rax), %edx
	movl	%edx, 8(%r12)
.L1544:
	cmpl	$1, %eax
	je	.L1593
.L1542:
	testq	%rbx, %rbx
	jne	.L1589
	.p2align 4
	.p2align 3
.L1531:
	sfence
	movq	72(%rsp), %rbx
.L1590:
	testq	%rbx, %rbx
	je	.L1493
	movq	8(%rbx), %rdx
	leaq	8(%rbx), %rcx
	movabsq	$4294967297, %rax
	cmpq	%rax, %rdx
	je	.L1594
	movq	__libc_single_threaded@GOTPCREL(%rip), %rax
	cmpb	$0, (%rax)
	je	.L1555
	movl	8(%rbx), %eax
	leal	-1(%rax), %edx
	movl	%edx, 8(%rbx)
.L1556:
	cmpl	$1, %eax
	je	.L1595
.L1493:
	addq	$120, %rsp
	.cfi_remember_state
	.cfi_def_cfa_offset 40
	popq	%rbx
	.cfi_def_cfa_offset 32
	popq	%rbp
	.cfi_def_cfa_offset 24
	popq	%r12
	.cfi_def_cfa_offset 16
	popq	%r14
	.cfi_def_cfa_offset 8
	ret
	.p2align 4,,10
	.p2align 3
.L1498:
	.cfi_restore_state
	cmpb	$0, 57(%rbp)
	jne	.L1504
	cmpb	$0, 58(%rbp)
	jne	.L1504
	movq	48(%rbp), %r12
	pxor	%xmm0, %xmm0
	movups	%xmm0, 40(%rbp)
	testq	%r12, %r12
	jne	.L1558
	jmp	.L1531
	.p2align 4,,10
	.p2align 3
.L1594:
	movq	(%rbx), %rax
	movq	%rbx, %rdi
	movq	$0, 8(%rbx)
	call	*16(%rax)
	movq	(%rbx), %rax
	movq	%rbx, %rdi
	call	*24(%rax)
	addq	$120, %rsp
	.cfi_remember_state
	.cfi_def_cfa_offset 40
	popq	%rbx
	.cfi_def_cfa_offset 32
	popq	%rbp
	.cfi_def_cfa_offset 24
	popq	%r12
	.cfi_def_cfa_offset 16
	popq	%r14
	.cfi_def_cfa_offset 8
	ret
	.p2align 4,,10
	.p2align 3
.L1591:
	.cfi_restore_state
	movzbl	40(%rbp), %edx
	movq	8(%rsp), %rbx
	movb	%dl, 0(%rbp)
	movq	%rbp, (%rax)
	jmp	.L1495
.L1599:
	movl	8(%rbx), %eax
	.p2align 4
	.p2align 3
.L1500:
	movq	24(%rbp), %r12
	addl	$1, %eax
.L1507:
	addl	$1, %eax
	movl	%eax, 8(%rbx)
.L1510:
	data16	leaq	_ZN4asio6detail15keyword_tss_ptrINS0_10call_stackINS0_15task_io_serviceENS0_27task_io_service_thread_infoEE7contextEE6value_E@tlsgd(%rip), %rdi
	.value	0x6666
	rex64
	call	__tls_get_addr@PLT
	movq	40(%r12), %r14
	movq	(%rax), %rax
	testq	%rax, %rax
	je	.L1511
	movq	8(%rax), %rax
	testq	%rax, %rax
	je	.L1511
	movq	(%rax), %rdx
	testq	%rdx, %rdx
	je	.L1511
	movq	$0, (%rax)
	movzbl	(%rdx), %eax
	cmpb	$39, %al
	jbe	.L1512
	movb	%al, 40(%rdx)
.L1513:
	movq	_ZN4asio6detail18completion_handlerIZN7asiopal13IAsyncChannel16CheckForShutdownESt10shared_ptrIS3_EEUlvE_E11do_completeEPNS0_15task_io_serviceEPNS0_25task_io_service_operationERKSt10error_codem@GOTPCREL(%rip), %rax
	movq	$0, (%rdx)
	movq	%rdx, %xmm1
	movl	$0, 16(%rdx)
	punpcklqdq	%xmm1, %xmm1
	movq	%rax, 8(%rdx)
	movq	48(%r12), %rax
	movq	%rbp, 24(%rdx)
	movq	%rbx, 32(%rdx)
	leaq	24(%rax), %rdi
	movq	%rdx, (%rsp)
	movaps	%xmm1, 16(%rsp)
	call	pthread_mutex_lock@PLT
	movq	48(%r12), %rdi
	movq	(%rsp), %rdx
	cmpb	$0, 64(%rdi)
	je	.L1514
	movq	80(%rdi), %rax
	movq	$0, (%rdx)
	testq	%rax, %rax
	je	.L1515
	movq	%rdx, (%rax)
	movq	%rdx, 80(%rdi)
.L1516:
	addq	$24, %rdi
	call	pthread_mutex_unlock@PLT
.L1517:
	testq	%rbx, %rbx
	je	.L1531
	movq	8(%rbx), %rcx
	leaq	8(%rbx), %rax
	movabsq	$4294967297, %rdx
	cmpq	%rdx, %rcx
	je	.L1596
	movq	__libc_single_threaded@GOTPCREL(%rip), %rdx
	cmpb	$0, (%rdx)
	je	.L1538
	movl	8(%rbx), %edx
	leal	-1(%rdx), %ecx
	movl	%ecx, 8(%rbx)
.L1539:
	cmpl	$1, %edx
	je	.L1597
.L1537:
	movabsq	$4294967297, %rdx
	movq	8(%rbx), %rcx
	cmpq	%rdx, %rcx
	je	.L1598
	movq	__libc_single_threaded@GOTPCREL(%rip), %rdx
	cmpb	$0, (%rdx)
	je	.L1549
	movl	8(%rbx), %eax
	leal	-1(%rax), %edx
	movl	%edx, 8(%rbx)
.L1550:
	cmpl	$1, %eax
	jne	.L1531
	movq	%rbx, %rdi
	call	_ZNSt16_Sp_counted_baseILN9__gnu_cxx12_Lock_policyE2EE24_M_release_last_use_coldEv@PLT
	jmp	.L1531
	.p2align 4,,10
	.p2align 3
.L1512:
	movq	%rdx, %rdi
	call	_ZdlPv@PLT
.L1511:
	movl	$41, %edi
.LEHB49:
	call	_Znwm@PLT
.LEHE49:
	movb	$40, 40(%rax)
	movq	%rax, %rdx
	jmp	.L1513
	.p2align 4,,10
	.p2align 3
.L1555:
	movl	$-1, %eax
	lock xaddl	%eax, (%rcx)
	jmp	.L1556
	.p2align 4,,10
	.p2align 3
.L1499:
	leaq	8(%rbx), %rax
	lock addl	$1, 8(%rbx)
	cmpb	$0, 57(%rbp)
	jne	.L1502
	cmpb	$0, 58(%rbp)
	je	.L1501
.L1502:
	cmpb	$0, (%rdx)
	jne	.L1599
	lock addl	$1, (%rax)
	movq	24(%rbp), %r12
	cmpb	$0, (%rdx)
	jne	.L1600
	lock addl	$1, (%rax)
	jmp	.L1510
	.p2align 4,,10
	.p2align 3
.L1514:
	movb	$1, 64(%rdi)
	addq	$24, %rdi
	movq	%rdx, (%rsp)
	call	pthread_mutex_unlock@PLT
	movq	48(%r12), %r12
	movq	(%rsp), %rdx
	movq	%r12, %xmm2
	movq	96(%r12), %rax
	movq	$0, (%rdx)
	punpcklqdq	%xmm2, %xmm2
	movaps	%xmm2, 32(%rsp)
	testq	%rax, %rax
	je	.L1518
	movq	%rdx, (%rax)
	movq	%rdx, 96(%r12)
.L1519:
	movq	40(%r14), %rbp
	cmpb	$0, 40(%rbp)
	je	.L1520
	data16	leaq	_ZN4asio6detail15keyword_tss_ptrINS0_10call_stackINS0_15task_io_serviceENS0_27task_io_service_thread_infoEE7contextEE6value_E@tlsgd(%rip), %rdi
	.value	0x6666
	rex64
	call	__tls_get_addr@PLT
	movq	(%rax), %rax
	testq	%rax, %rax
	jne	.L1523
	jmp	.L1520
	.p2align 4
	.p2align 4,,10
	.p2align 3
.L1521:
	movq	16(%rax), %rax
	testq	%rax, %rax
	je	.L1520
.L1523:
	cmpq	(%rax), %rbp
	jne	.L1521
	movq	8(%rax), %rax
	testq	%rax, %rax
	je	.L1520
	movq	16(%rax), %rdx
	addq	$1, 24(%rax)
	movq	$0, (%r12)
	testq	%rdx, %rdx
	je	.L1524
	movq	%r12, (%rdx)
	movq	%r12, 16(%rax)
	jmp	.L1517
	.p2align 4,,10
	.p2align 3
.L1504:
	movq	24(%rbp), %r12
	jmp	.L1510
	.p2align 4,,10
	.p2align 3
.L1589:
	leaq	8(%rbx), %rax
	jmp	.L1537
	.p2align 4,,10
	.p2align 3
.L1520:
	lock addq	$1, 184(%rbp)
	leaq	48(%rbp), %r8
	movq	%r8, %rdi
	movq	%r8, (%rsp)
	call	pthread_mutex_lock@PLT
	movq	200(%rbp), %rax
	movq	(%rsp), %r8
	movq	$0, (%r12)
	testq	%rax, %rax
	je	.L1525
	movq	%r12, (%rax)
	movq	%r12, 200(%rbp)
.L1526:
	movq	136(%rbp), %rax
	movq	%rax, %rdx
	orq	$1, %rdx
	movq	%rdx, 136(%rbp)
	cmpq	$1, %rax
	ja	.L1601
	cmpb	$0, 176(%rbp)
	jne	.L1529
	movq	144(%rbp), %rax
	testq	%rax, %rax
	je	.L1529
	leaq	88(%rax), %rdx
	movl	96(%rax), %edi
	leaq	52(%rsp), %rcx
	movq	%r8, (%rsp)
	movb	$1, 176(%rbp)
	movl	$3, %esi
	movq	%rdx, 56(%rsp)
	movl	88(%rax), %edx
	movl	$-2147483639, 52(%rsp)
	call	epoll_ctl@PLT
	movq	(%rsp), %r8
.L1529:
	movq	%r8, %rdi
	call	pthread_mutex_unlock@PLT
	jmp	.L1517
	.p2align 4,,10
	.p2align 3
.L1549:
	movl	$-1, %edx
	lock xaddl	%edx, (%rax)
	movl	%edx, %eax
	jmp	.L1550
	.p2align 4,,10
	.p2align 3
.L1515:
	movdqa	16(%rsp), %xmm4
	movups	%xmm4, 72(%rdi)
	jmp	.L1516
	.p2align 4,,10
	.p2align 3
.L1598:
	movq	(%rbx), %rax
	movq	%rbx, %rdi
	movq	$0, 8(%rbx)
	call	*16(%rax)
	movq	(%rbx), %rax
	movq	%rbx, %rdi
	call	*24(%rax)
	jmp	.L1531
	.p2align 4,,10
	.p2align 3
.L1601:
	movq	%r8, %rdi
	call	pthread_mutex_unlock@PLT
	leaq	88(%rbp), %rdi
	call	pthread_cond_signal@PLT
	jmp	.L1517
	.p2align 4,,10
	.p2align 3
.L1595:
	movq	%rbx, %rdi
	call	_ZNSt16_Sp_counted_baseILN9__gnu_cxx12_Lock_policyE2EE24_M_release_last_use_coldEv@PLT
	jmp	.L1493
	.p2align 4,,10
	.p2align 3
.L1538:
	movl	$-1, %edx
	lock xaddl	%edx, (%rax)
	jmp	.L1539
	.p2align 4,,10
	.p2align 3
.L1596:
	movq	(%rbx), %rdx
	movq	%rax, (%rsp)
	movq	%rbx, %rdi
	movq	$0, 8(%rbx)
	call	*16(%rdx)
	movq	(%rbx), %rdx
	movq	%rbx, %rdi
	call	*24(%rdx)
	movq	(%rsp), %rax
	jmp	.L1537
	.p2align 4,,10
	.p2align 3
.L1518:
	movdqa	16(%rsp), %xmm5
	movups	%xmm5, 88(%r12)
	jmp	.L1519
	.p2align 4,,10
	.p2align 3
.L1525:
	movdqa	32(%rsp), %xmm6
	movups	%xmm6, 192(%rbp)
	jmp	.L1526
	.p2align 4,,10
	.p2align 3
.L1543:
	movl	$-1, %eax
	lock xaddl	%eax, (%rcx)
	jmp	.L1544
	.p2align 4,,10
	.p2align 3
.L1592:
	movq	$0, 8(%r12)
	movq	(%r12), %rax
	movq	%r12, %rdi
	call	*16(%rax)
	movq	(%r12), %rax
	movq	%r12, %rdi
	call	*24(%rax)
	jmp	.L1542
	.p2align 4,,10
	.p2align 3
.L1597:
	movq	%rbx, %rdi
	movq	%rax, (%rsp)
	call	_ZNSt16_Sp_counted_baseILN9__gnu_cxx12_Lock_policyE2EE24_M_release_last_use_coldEv@PLT
	movq	(%rsp), %rax
	jmp	.L1537
.L1524:
	movdqa	32(%rsp), %xmm7
	movups	%xmm7, 8(%rax)
	jmp	.L1517
.L1593:
	movq	%r12, %rdi
	call	_ZNSt16_Sp_counted_baseILN9__gnu_cxx12_Lock_policyE2EE24_M_release_last_use_coldEv@PLT
	jmp	.L1542
.L1600:
	movl	8(%rbx), %eax
	jmp	.L1507
.L1559:
	movq	%rax, %rbp
.L1532:
	testq	%rbx, %rbx
	je	.L1547
	movq	%rbx, %rdi
	call	_ZNSt16_Sp_counted_baseILN9__gnu_cxx12_Lock_policyE2EE10_M_releaseEv@PLT
	movq	%rbx, %rdi
	call	_ZNSt16_Sp_counted_baseILN9__gnu_cxx12_Lock_policyE2EE10_M_releaseEv@PLT
	movq	%rbx, %rdi
	call	_ZNSt16_Sp_counted_baseILN9__gnu_cxx12_Lock_policyE2EE10_M_releaseEv@PLT
.L1547:
	sfence
	movq	72(%rsp), %rdi
	testq	%rdi, %rdi
	je	.L1553
	call	_ZNSt16_Sp_counted_baseILN9__gnu_cxx12_Lock_policyE2EE10_M_releaseEv@PLT
.L1553:
	pxor	%xmm0, %xmm0
	leaq	80(%rsp), %rdi
	movups	%xmm0, 88(%rsp)
	call	_ZN4asio6detail18completion_handlerIZN7asiopal13IAsyncChannel8ShutdownEvEUlvE_E3ptr5resetEv@PLT
	movq	%rbp, %rdi
.LEHB50:
	call	_Unwind_Resume@PLT
.LEHE50:
	.cfi_endproc
.LFE9888:
	.section	.gcc_except_table
.LLSDA9888:
	.byte	0xff
	.byte	0xff
	.byte	0x1
	.uleb128 .LLSDACSE9888-.LLSDACSB9888
.LLSDACSB9888:
	.uleb128 .LEHB49-.LFB9888
	.uleb128 .LEHE49-.LEHB49
	.uleb128 .L1559-.LFB9888
	.uleb128 0
	.uleb128 .LEHB50-.LFB9888
	.uleb128 .LEHE50-.LEHB50
	.uleb128 0
	.uleb128 0
.LLSDACSE9888:
	.section	.text._ZN4asio6detail18completion_handlerIZN7asiopal13IAsyncChannel8ShutdownEvEUlvE_E11do_completeEPNS0_15task_io_serviceEPNS0_25task_io_service_operationERKSt10error_codem,"axG",@progbits,_ZN4asio6detail18completion_handlerIZN7asiopal13IAsyncChannel8ShutdownEvEUlvE_E11do_completeEPNS0_15task_io_serviceEPNS0_25task_io_service_operationERKSt10error_codem,comdat
	.size	_ZN4asio6detail18completion_handlerIZN7asiopal13IAsyncChannel8ShutdownEvEUlvE_E11do_completeEPNS0_15task_io_serviceEPNS0_25task_io_service_operationERKSt10error_codem, .-_ZN4asio6detail18completion_handlerIZN7asiopal13IAsyncChannel8ShutdownEvEUlvE_E11do_completeEPNS0_15task_io_serviceEPNS0_25task_io_service_operationERKSt10error_codem
	.section	.text._ZN4asio6detail18completion_handlerIZN7asiopal13IAsyncChannel16CheckForShutdownESt10shared_ptrIS3_EEUlvE_E3ptr5resetEv,"axG",@progbits,_ZN4asio6detail18completion_handlerIZN7asiopal13IAsyncChannel16CheckForShutdownESt10shared_ptrIS3_EEUlvE_E3ptr5resetEv,comdat
	.align 2
	.p2align 4
	.weak	_ZN4asio6detail18completion_handlerIZN7asiopal13IAsyncChannel16CheckForShutdownESt10shared_ptrIS3_EEUlvE_E3ptr5resetEv
	.type	_ZN4asio6detail18completion_handlerIZN7asiopal13IAsyncChannel16CheckForShutdownESt10shared_ptrIS3_EEUlvE_E3ptr5resetEv, @function
_ZN4asio6detail18completion_handlerIZN7asiopal13IAsyncChannel16CheckForShutdownESt10shared_ptrIS3_EEUlvE_E3ptr5resetEv:
.LFB9890:
	.cfi_startproc
	pushq	%rbp
	.cfi_def_cfa_offset 16
	.cfi_offset 6, -16
	pushq	%rbx
	.cfi_def_cfa_offset 24
	.cfi_offset 3, -24
	movq	%rdi, %rbx
	subq	$8, %rsp
	.cfi_def_cfa_offset 32
	movq	16(%rdi), %rax
	testq	%rax, %rax
	je	.L1603
	movq	32(%rax), %rbp
	testq	%rbp, %rbp
	je	.L1605
	movq	8(%rbp), %rdx
	leaq	8(%rbp), %rcx
	movabsq	$4294967297, %rax
	cmpq	%rax, %rdx
	je	.L1626
	movq	__libc_single_threaded@GOTPCREL(%rip), %rax
	cmpb	$0, (%rax)
	je	.L1607
	movl	8(%rbp), %eax
	leal	-1(%rax), %edx
	movl	%edx, 8(%rbp)
.L1608:
	cmpl	$1, %eax
	je	.L1627
.L1605:
	movq	$0, 16(%rbx)
.L1603:
	movq	8(%rbx), %rbp
	testq	%rbp, %rbp
	je	.L1602
	data16	leaq	_ZN4asio6detail15keyword_tss_ptrINS0_10call_stackINS0_15task_io_serviceENS0_27task_io_service_thread_infoEE7contextEE6value_E@tlsgd(%rip), %rdi
	.value	0x6666
	rex64
	call	__tls_get_addr@PLT
	movq	(%rax), %rax
	testq	%rax, %rax
	je	.L1611
	movq	8(%rax), %rax
	testq	%rax, %rax
	je	.L1611
	cmpq	$0, (%rax)
	je	.L1628
.L1611:
	movq	%rbp, %rdi
	call	_ZdlPv@PLT
.L1612:
	movq	$0, 8(%rbx)
.L1602:
	addq	$8, %rsp
	.cfi_remember_state
	.cfi_def_cfa_offset 24
	popq	%rbx
	.cfi_def_cfa_offset 16
	popq	%rbp
	.cfi_def_cfa_offset 8
	ret
	.p2align 4,,10
	.p2align 3
.L1607:
	.cfi_restore_state
	movl	$-1, %eax
	lock xaddl	%eax, (%rcx)
	jmp	.L1608
	.p2align 4,,10
	.p2align 3
.L1628:
	movzbl	40(%rbp), %edx
	movb	%dl, 0(%rbp)
	movq	%rbp, (%rax)
	jmp	.L1612
	.p2align 4,,10
	.p2align 3
.L1626:
	movq	0(%rbp), %rax
	movq	%rbp, %rdi
	movq	$0, 8(%rbp)
	call	*16(%rax)
	movq	0(%rbp), %rax
	movq	%rbp, %rdi
	call	*24(%rax)
	jmp	.L1605
	.p2align 4,,10
	.p2align 3
.L1627:
	movq	%rbp, %rdi
	call	_ZNSt16_Sp_counted_baseILN9__gnu_cxx12_Lock_policyE2EE24_M_release_last_use_coldEv@PLT
	jmp	.L1605
	.cfi_endproc
.LFE9890:
	.size	_ZN4asio6detail18completion_handlerIZN7asiopal13IAsyncChannel16CheckForShutdownESt10shared_ptrIS3_EEUlvE_E3ptr5resetEv, .-_ZN4asio6detail18completion_handlerIZN7asiopal13IAsyncChannel16CheckForShutdownESt10shared_ptrIS3_EEUlvE_E3ptr5resetEv
	.section	.text._ZN4asio6detail18completion_handlerIZN7asiopal13IAsyncChannel16CheckForShutdownESt10shared_ptrIS3_EEUlvE_E11do_completeEPNS0_15task_io_serviceEPNS0_25task_io_service_operationERKSt10error_codem,"axG",@progbits,_ZN4asio6detail18completion_handlerIZN7asiopal13IAsyncChannel16CheckForShutdownESt10shared_ptrIS3_EEUlvE_E11do_completeEPNS0_15task_io_serviceEPNS0_25task_io_service_operationERKSt10error_codem,comdat
	.p2align 4
	.weak	_ZN4asio6detail18completion_handlerIZN7asiopal13IAsyncChannel16CheckForShutdownESt10shared_ptrIS3_EEUlvE_E11do_completeEPNS0_15task_io_serviceEPNS0_25task_io_service_operationERKSt10error_codem
	.type	_ZN4asio6detail18completion_handlerIZN7asiopal13IAsyncChannel16CheckForShutdownESt10shared_ptrIS3_EEUlvE_E11do_completeEPNS0_15task_io_serviceEPNS0_25task_io_service_operationERKSt10error_codem, @function
_ZN4asio6detail18completion_handlerIZN7asiopal13IAsyncChannel16CheckForShutdownESt10shared_ptrIS3_EEUlvE_E11do_completeEPNS0_15task_io_serviceEPNS0_25task_io_service_operationERKSt10error_codem:
.LFB9894:
	.cfi_startproc
	.cfi_personality 0x9b,DW.ref.__gxx_personality_v0
	.cfi_lsda 0x1b,.LLSDA9894
	pushq	%r14
	.cfi_def_cfa_offset 16
	.cfi_offset 14, -16
	pushq	%r12
	.cfi_def_cfa_offset 24
	.cfi_offset 12, -24
	movq	%rdi, %r12
	pushq	%rbp
	.cfi_def_cfa_offset 32
	.cfi_offset 6, -32
	movq	%rsi, %rbp
	pushq	%rbx
	.cfi_def_cfa_offset 40
	.cfi_offset 3, -40
	subq	$120, %rsp
	.cfi_def_cfa_offset 160
	movdqu	24(%rsi), %xmm0
	leaq	64(%rsp), %rax
	movq	%rax, 80(%rsp)
	movaps	%xmm0, 64(%rsp)
	movaps	%xmm0, (%rsp)
	data16	leaq	_ZN4asio6detail15keyword_tss_ptrINS0_10call_stackINS0_15task_io_serviceENS0_27task_io_service_thread_infoEE7contextEE6value_E@tlsgd(%rip), %rdi
	.value	0x6666
	rex64
	call	__tls_get_addr@PLT
	movq	(%rax), %rax
	testq	%rax, %rax
	je	.L1630
	movq	8(%rax), %rax
	testq	%rax, %rax
	je	.L1630
	cmpq	$0, (%rax)
	je	.L1727
.L1630:
	movq	%rbp, %rdi
	call	_ZdlPv@PLT
	movq	72(%rsp), %rbx
.L1631:
	testq	%r12, %r12
	je	.L1726
	movq	64(%rsp), %rbp
	testq	%rbx, %rbx
	je	.L1634
	movq	__libc_single_threaded@GOTPCREL(%rip), %rdx
	cmpb	$0, (%rdx)
	je	.L1635
	movl	8(%rbx), %eax
	addl	$1, %eax
	movl	%eax, 8(%rbx)
	cmpb	$0, 57(%rbp)
	jne	.L1636
	cmpb	$0, 58(%rbp)
	jne	.L1636
.L1637:
	movq	48(%rbp), %r12
	pxor	%xmm0, %xmm0
	movups	%xmm0, 40(%rbp)
	testq	%r12, %r12
	je	.L1725
.L1694:
	movq	8(%r12), %rdx
	leaq	8(%r12), %rcx
	movabsq	$4294967297, %rax
	cmpq	%rax, %rdx
	je	.L1728
	movq	__libc_single_threaded@GOTPCREL(%rip), %rax
	cmpb	$0, (%rax)
	je	.L1679
	movl	8(%r12), %eax
	leal	-1(%rax), %edx
	movl	%edx, 8(%r12)
.L1680:
	cmpl	$1, %eax
	je	.L1729
.L1678:
	testq	%rbx, %rbx
	jne	.L1725
	.p2align 4
	.p2align 3
.L1667:
	sfence
	movq	72(%rsp), %rbx
.L1726:
	testq	%rbx, %rbx
	je	.L1629
	movq	8(%rbx), %rdx
	leaq	8(%rbx), %rcx
	movabsq	$4294967297, %rax
	cmpq	%rax, %rdx
	je	.L1730
	movq	__libc_single_threaded@GOTPCREL(%rip), %rax
	cmpb	$0, (%rax)
	je	.L1691
	movl	8(%rbx), %eax
	leal	-1(%rax), %edx
	movl	%edx, 8(%rbx)
.L1692:
	cmpl	$1, %eax
	je	.L1731
.L1629:
	addq	$120, %rsp
	.cfi_remember_state
	.cfi_def_cfa_offset 40
	popq	%rbx
	.cfi_def_cfa_offset 32
	popq	%rbp
	.cfi_def_cfa_offset 24
	popq	%r12
	.cfi_def_cfa_offset 16
	popq	%r14
	.cfi_def_cfa_offset 8
	ret
	.p2align 4,,10
	.p2align 3
.L1634:
	.cfi_restore_state
	cmpb	$0, 57(%rbp)
	jne	.L1640
	cmpb	$0, 58(%rbp)
	jne	.L1640
	movq	48(%rbp), %r12
	pxor	%xmm0, %xmm0
	movups	%xmm0, 40(%rbp)
	testq	%r12, %r12
	jne	.L1694
	jmp	.L1667
	.p2align 4,,10
	.p2align 3
.L1730:
	movq	(%rbx), %rax
	movq	%rbx, %rdi
	movq	$0, 8(%rbx)
	call	*16(%rax)
	movq	(%rbx), %rax
	movq	%rbx, %rdi
	call	*24(%rax)
	addq	$120, %rsp
	.cfi_remember_state
	.cfi_def_cfa_offset 40
	popq	%rbx
	.cfi_def_cfa_offset 32
	popq	%rbp
	.cfi_def_cfa_offset 24
	popq	%r12
	.cfi_def_cfa_offset 16
	popq	%r14
	.cfi_def_cfa_offset 8
	ret
	.p2align 4,,10
	.p2align 3
.L1727:
	.cfi_restore_state
	movzbl	40(%rbp), %edx
	movq	8(%rsp), %rbx
	movb	%dl, 0(%rbp)
	movq	%rbp, (%rax)
	jmp	.L1631
.L1735:
	movl	8(%rbx), %eax
	.p2align 4
	.p2align 3
.L1636:
	movq	24(%rbp), %r12
	addl	$1, %eax
.L1643:
	addl	$1, %eax
	movl	%eax, 8(%rbx)
.L1646:
	data16	leaq	_ZN4asio6detail15keyword_tss_ptrINS0_10call_stackINS0_15task_io_serviceENS0_27task_io_service_thread_infoEE7contextEE6value_E@tlsgd(%rip), %rdi
	.value	0x6666
	rex64
	call	__tls_get_addr@PLT
	movq	40(%r12), %r14
	movq	(%rax), %rax
	testq	%rax, %rax
	je	.L1647
	movq	8(%rax), %rax
	testq	%rax, %rax
	je	.L1647
	movq	(%rax), %rdx
	testq	%rdx, %rdx
	je	.L1647
	movq	$0, (%rax)
	movzbl	(%rdx), %eax
	cmpb	$39, %al
	jbe	.L1648
	movb	%al, 40(%rdx)
.L1649:
	movq	_ZN4asio6detail18completion_handlerIZN7asiopal13IAsyncChannel16CheckForShutdownESt10shared_ptrIS3_EEUlvE_E11do_completeEPNS0_15task_io_serviceEPNS0_25task_io_service_operationERKSt10error_codem@GOTPCREL(%rip), %rax
	movq	$0, (%rdx)
	movq	%rdx, %xmm1
	movl	$0, 16(%rdx)
	punpcklqdq	%xmm1, %xmm1
	movq	%rax, 8(%rdx)
	movq	48(%r12), %rax
	movq	%rbp, 24(%rdx)
	movq	%rbx, 32(%rdx)
	leaq	24(%rax), %rdi
	movq	%rdx, (%rsp)
	movaps	%xmm1, 16(%rsp)
	call	pthread_mutex_lock@PLT
	movq	48(%r12), %rdi
	movq	(%rsp), %rdx
	cmpb	$0, 64(%rdi)
	je	.L1650
	movq	80(%rdi), %rax
	movq	$0, (%rdx)
	testq	%rax, %rax
	je	.L1651
	movq	%rdx, (%rax)
	movq	%rdx, 80(%rdi)
.L1652:
	addq	$24, %rdi
	call	pthread_mutex_unlock@PLT
.L1653:
	testq	%rbx, %rbx
	je	.L1667
	movq	8(%rbx), %rcx
	leaq	8(%rbx), %rax
	movabsq	$4294967297, %rdx
	cmpq	%rdx, %rcx
	je	.L1732
	movq	__libc_single_threaded@GOTPCREL(%rip), %rdx
	cmpb	$0, (%rdx)
	je	.L1674
	movl	8(%rbx), %edx
	leal	-1(%rdx), %ecx
	movl	%ecx, 8(%rbx)
.L1675:
	cmpl	$1, %edx
	je	.L1733
.L1673:
	movabsq	$4294967297, %rdx
	movq	8(%rbx), %rcx
	cmpq	%rdx, %rcx
	je	.L1734
	movq	__libc_single_threaded@GOTPCREL(%rip), %rdx
	cmpb	$0, (%rdx)
	je	.L1685
	movl	8(%rbx), %eax
	leal	-1(%rax), %edx
	movl	%edx, 8(%rbx)
.L1686:
	cmpl	$1, %eax
	jne	.L1667
	movq	%rbx, %rdi
	call	_ZNSt16_Sp_counted_baseILN9__gnu_cxx12_Lock_policyE2EE24_M_release_last_use_coldEv@PLT
	jmp	.L1667
	.p2align 4,,10
	.p2align 3
.L1648:
	movq	%rdx, %rdi
	call	_ZdlPv@PLT
.L1647:
	movl	$41, %edi
.LEHB51:
	call	_Znwm@PLT
.LEHE51:
	movb	$40, 40(%rax)
	movq	%rax, %rdx
	jmp	.L1649
	.p2align 4,,10
	.p2align 3
.L1691:
	movl	$-1, %eax
	lock xaddl	%eax, (%rcx)
	jmp	.L1692
	.p2align 4,,10
	.p2align 3
.L1635:
	leaq	8(%rbx), %rax
	lock addl	$1, 8(%rbx)
	cmpb	$0, 57(%rbp)
	jne	.L1638
	cmpb	$0, 58(%rbp)
	je	.L1637
.L1638:
	cmpb	$0, (%rdx)
	jne	.L1735
	lock addl	$1, (%rax)
	movq	24(%rbp), %r12
	cmpb	$0, (%rdx)
	jne	.L1736
	lock addl	$1, (%rax)
	jmp	.L1646
	.p2align 4,,10
	.p2align 3
.L1650:
	movb	$1, 64(%rdi)
	addq	$24, %rdi
	movq	%rdx, (%rsp)
	call	pthread_mutex_unlock@PLT
	movq	48(%r12), %r12
	movq	(%rsp), %rdx
	movq	%r12, %xmm2
	movq	96(%r12), %rax
	movq	$0, (%rdx)
	punpcklqdq	%xmm2, %xmm2
	movaps	%xmm2, 32(%rsp)
	testq	%rax, %rax
	je	.L1654
	movq	%rdx, (%rax)
	movq	%rdx, 96(%r12)
.L1655:
	movq	40(%r14), %rbp
	cmpb	$0, 40(%rbp)
	je	.L1656
	data16	leaq	_ZN4asio6detail15keyword_tss_ptrINS0_10call_stackINS0_15task_io_serviceENS0_27task_io_service_thread_infoEE7contextEE6value_E@tlsgd(%rip), %rdi
	.value	0x6666
	rex64
	call	__tls_get_addr@PLT
	movq	(%rax), %rax
	testq	%rax, %rax
	jne	.L1659
	jmp	.L1656
	.p2align 4
	.p2align 4,,10
	.p2align 3
.L1657:
	movq	16(%rax), %rax
	testq	%rax, %rax
	je	.L1656
.L1659:
	cmpq	(%rax), %rbp
	jne	.L1657
	movq	8(%rax), %rax
	testq	%rax, %rax
	je	.L1656
	movq	16(%rax), %rdx
	addq	$1, 24(%rax)
	movq	$0, (%r12)
	testq	%rdx, %rdx
	je	.L1660
	movq	%r12, (%rdx)
	movq	%r12, 16(%rax)
	jmp	.L1653
	.p2align 4,,10
	.p2align 3
.L1640:
	movq	24(%rbp), %r12
	jmp	.L1646
	.p2align 4,,10
	.p2align 3
.L1725:
	leaq	8(%rbx), %rax
	jmp	.L1673
	.p2align 4,,10
	.p2align 3
.L1656:
	lock addq	$1, 184(%rbp)
	leaq	48(%rbp), %r8
	movq	%r8, %rdi
	movq	%r8, (%rsp)
	call	pthread_mutex_lock@PLT
	movq	200(%rbp), %rax
	movq	(%rsp), %r8
	movq	$0, (%r12)
	testq	%rax, %rax
	je	.L1661
	movq	%r12, (%rax)
	movq	%r12, 200(%rbp)
.L1662:
	movq	136(%rbp), %rax
	movq	%rax, %rdx
	orq	$1, %rdx
	movq	%rdx, 136(%rbp)
	cmpq	$1, %rax
	ja	.L1737
	cmpb	$0, 176(%rbp)
	jne	.L1665
	movq	144(%rbp), %rax
	testq	%rax, %rax
	je	.L1665
	leaq	88(%rax), %rdx
	movl	96(%rax), %edi
	leaq	52(%rsp), %rcx
	movq	%r8, (%rsp)
	movb	$1, 176(%rbp)
	movl	$3, %esi
	movq	%rdx, 56(%rsp)
	movl	88(%rax), %edx
	movl	$-2147483639, 52(%rsp)
	call	epoll_ctl@PLT
	movq	(%rsp), %r8
.L1665:
	movq	%r8, %rdi
	call	pthread_mutex_unlock@PLT
	jmp	.L1653
	.p2align 4,,10
	.p2align 3
.L1685:
	movl	$-1, %edx
	lock xaddl	%edx, (%rax)
	movl	%edx, %eax
	jmp	.L1686
	.p2align 4,,10
	.p2align 3
.L1651:
	movdqa	16(%rsp), %xmm4
	movups	%xmm4, 72(%rdi)
	jmp	.L1652
	.p2align 4,,10
	.p2align 3
.L1734:
	movq	(%rbx), %rax
	movq	%rbx, %rdi
	movq	$0, 8(%rbx)
	call	*16(%rax)
	movq	(%rbx), %rax
	movq	%rbx, %rdi
	call	*24(%rax)
	jmp	.L1667
	.p2align 4,,10
	.p2align 3
.L1737:
	movq	%r8, %rdi
	call	pthread_mutex_unlock@PLT
	leaq	88(%rbp), %rdi
	call	pthread_cond_signal@PLT
	jmp	.L1653
	.p2align 4,,10
	.p2align 3
.L1731:
	movq	%rbx, %rdi
	call	_ZNSt16_Sp_counted_baseILN9__gnu_cxx12_Lock_policyE2EE24_M_release_last_use_coldEv@PLT
	jmp	.L1629
	.p2align 4,,10
	.p2align 3
.L1674:
	movl	$-1, %edx
	lock xaddl	%edx, (%rax)
	jmp	.L1675
	.p2align 4,,10
	.p2align 3
.L1732:
	movq	(%rbx), %rdx
	movq	%rax, (%rsp)
	movq	%rbx, %rdi
	movq	$0, 8(%rbx)
	call	*16(%rdx)
	movq	(%rbx), %rdx
	movq	%rbx, %rdi
	call	*24(%rdx)
	movq	(%rsp), %rax
	jmp	.L1673
	.p2align 4,,10
	.p2align 3
.L1654:
	movdqa	16(%rsp), %xmm5
	movups	%xmm5, 88(%r12)
	jmp	.L1655
	.p2align 4,,10
	.p2align 3
.L1661:
	movdqa	32(%rsp), %xmm6
	movups	%xmm6, 192(%rbp)
	jmp	.L1662
	.p2align 4,,10
	.p2align 3
.L1679:
	movl	$-1, %eax
	lock xaddl	%eax, (%rcx)
	jmp	.L1680
	.p2align 4,,10
	.p2align 3
.L1728:
	movq	$0, 8(%r12)
	movq	(%r12), %rax
	movq	%r12, %rdi
	call	*16(%rax)
	movq	(%r12), %rax
	movq	%r12, %rdi
	call	*24(%rax)
	jmp	.L1678
	.p2align 4,,10
	.p2align 3
.L1733:
	movq	%rbx, %rdi
	movq	%rax, (%rsp)
	call	_ZNSt16_Sp_counted_baseILN9__gnu_cxx12_Lock_policyE2EE24_M_release_last_use_coldEv@PLT
	movq	(%rsp), %rax
	jmp	.L1673
.L1660:
	movdqa	32(%rsp), %xmm7
	movups	%xmm7, 8(%rax)
	jmp	.L1653
.L1729:
	movq	%r12, %rdi
	call	_ZNSt16_Sp_counted_baseILN9__gnu_cxx12_Lock_policyE2EE24_M_release_last_use_coldEv@PLT
	jmp	.L1678
.L1736:
	movl	8(%rbx), %eax
	jmp	.L1643
.L1695:
	movq	%rax, %rbp
.L1668:
	testq	%rbx, %rbx
	je	.L1683
	movq	%rbx, %rdi
	call	_ZNSt16_Sp_counted_baseILN9__gnu_cxx12_Lock_policyE2EE10_M_releaseEv@PLT
	movq	%rbx, %rdi
	call	_ZNSt16_Sp_counted_baseILN9__gnu_cxx12_Lock_policyE2EE10_M_releaseEv@PLT
	movq	%rbx, %rdi
	call	_ZNSt16_Sp_counted_baseILN9__gnu_cxx12_Lock_policyE2EE10_M_releaseEv@PLT
.L1683:
	sfence
	movq	72(%rsp), %rdi
	testq	%rdi, %rdi
	je	.L1689
	call	_ZNSt16_Sp_counted_baseILN9__gnu_cxx12_Lock_policyE2EE10_M_releaseEv@PLT
.L1689:
	pxor	%xmm0, %xmm0
	leaq	80(%rsp), %rdi
	movups	%xmm0, 88(%rsp)
	call	_ZN4asio6detail18completion_handlerIZN7asiopal13IAsyncChannel16CheckForShutdownESt10shared_ptrIS3_EEUlvE_E3ptr5resetEv@PLT
	movq	%rbp, %rdi
.LEHB52:
	call	_Unwind_Resume@PLT
.LEHE52:
	.cfi_endproc
.LFE9894:
	.section	.gcc_except_table
.LLSDA9894:
	.byte	0xff
	.byte	0xff
	.byte	0x1
	.uleb128 .LLSDACSE9894-.LLSDACSB9894
.LLSDACSB9894:
	.uleb128 .LEHB51-.LFB9894
	.uleb128 .LEHE51-.LEHB51
	.uleb128 .L1695-.LFB9894
	.uleb128 0
	.uleb128 .LEHB52-.LFB9894
	.uleb128 .LEHE52-.LEHB52
	.uleb128 0
	.uleb128 0
.LLSDACSE9894:
	.section	.text._ZN4asio6detail18completion_handlerIZN7asiopal13IAsyncChannel16CheckForShutdownESt10shared_ptrIS3_EEUlvE_E11do_completeEPNS0_15task_io_serviceEPNS0_25task_io_service_operationERKSt10error_codem,"axG",@progbits,_ZN4asio6detail18completion_handlerIZN7asiopal13IAsyncChannel16CheckForShutdownESt10shared_ptrIS3_EEUlvE_E11do_completeEPNS0_15task_io_serviceEPNS0_25task_io_service_operationERKSt10error_codem,comdat
	.size	_ZN4asio6detail18completion_handlerIZN7asiopal13IAsyncChannel16CheckForShutdownESt10shared_ptrIS3_EEUlvE_E11do_completeEPNS0_15task_io_serviceEPNS0_25task_io_service_operationERKSt10error_codem, .-_ZN4asio6detail18completion_handlerIZN7asiopal13IAsyncChannel16CheckForShutdownESt10shared_ptrIS3_EEUlvE_E11do_completeEPNS0_15task_io_serviceEPNS0_25task_io_service_operationERKSt10error_codem
	.section	.text.startup,"ax",@progbits
	.p2align 4
	.type	_GLOBAL__sub_I_LinkSession.cpp, @function
_GLOBAL__sub_I_LinkSession.cpp:
.LFB10571:
	.cfi_startproc
	subq	$8, %rsp
	.cfi_def_cfa_offset 16
	movq	_ZGVZN4asio15system_categoryEvE8instance@GOTPCREL(%rip), %rax
	movzbl	(%rax), %eax
	testb	%al, %al
	je	.L1769
.L1740:
	movq	_ZGVZN4asio5error18get_netdb_categoryEvE8instance@GOTPCREL(%rip), %rax
	movzbl	(%rax), %eax
	testb	%al, %al
	je	.L1770
.L1743:
	movq	_ZGVZN4asio5error21get_addrinfo_categoryEvE8instance@GOTPCREL(%rip), %rax
	movzbl	(%rax), %eax
	testb	%al, %al
	je	.L1771
.L1746:
	movq	_ZGVZN4asio5error17get_misc_categoryEvE8instance@GOTPCREL(%rip), %rax
	movzbl	(%rax), %eax
	testb	%al, %al
	je	.L1772
.L1749:
	movl	$5000, %edi
	call	_ZN7openpal12TimeDuration12MillisecondsEl@PLT
	movq	_ZGVN4asio6detail10call_stackINS0_15task_io_serviceENS0_27task_io_service_thread_infoEE4top_E@GOTPCREL(%rip), %rax
	cmpb	$0, (%rax)
	jne	.L1751
	movb	$1, (%rax)
.L1751:
	movq	_ZGVN4asio6detail12service_baseINS0_13epoll_reactorEE2idE@GOTPCREL(%rip), %rax
	cmpb	$0, (%rax)
	jne	.L1752
	movb	$1, (%rax)
.L1752:
	movq	_ZGVN4asio6detail12service_baseINS0_15task_io_serviceEE2idE@GOTPCREL(%rip), %rax
	cmpb	$0, (%rax)
	jne	.L1753
	movb	$1, (%rax)
.L1753:
	movq	_ZGVN4asio6detail10call_stackINS0_14strand_service11strand_implEhE4top_E@GOTPCREL(%rip), %rax
	cmpb	$0, (%rax)
	je	.L1773
.L1754:
	movq	_ZGVN4asio6detail12service_baseINS0_14strand_serviceEE2idE@GOTPCREL(%rip), %rax
	cmpb	$0, (%rax)
	jne	.L1738
	movb	$1, (%rax)
.L1738:
	addq	$8, %rsp
	.cfi_remember_state
	.cfi_def_cfa_offset 8
	ret
.L1769:
	.cfi_restore_state
	movq	_ZGVZN4asio15system_categoryEvE8instance@GOTPCREL(%rip), %rdi
	call	__cxa_guard_acquire@PLT
	testl	%eax, %eax
	je	.L1740
	movq	_ZZN4asio15system_categoryEvE8instance@GOTPCREL(%rip), %rsi
	movq	_ZN4asio6detail15system_categoryD1Ev@GOTPCREL(%rip), %rdi
	leaq	__dso_handle(%rip), %rdx
	call	__cxa_atexit@PLT
	movq	_ZGVZN4asio15system_categoryEvE8instance@GOTPCREL(%rip), %rdi
	call	__cxa_guard_release@PLT
	jmp	.L1740
.L1773:
	movb	$1, (%rax)
	jmp	.L1754
.L1772:
	movq	_ZGVZN4asio5error17get_misc_categoryEvE8instance@GOTPCREL(%rip), %rdi
	call	__cxa_guard_acquire@PLT
	testl	%eax, %eax
	je	.L1749
	movq	_ZZN4asio5error17get_misc_categoryEvE8instance@GOTPCREL(%rip), %rsi
	movq	_ZN4asio5error6detail13misc_categoryD1Ev@GOTPCREL(%rip), %rdi
	leaq	__dso_handle(%rip), %rdx
	call	__cxa_atexit@PLT
	movq	_ZGVZN4asio5error17get_misc_categoryEvE8instance@GOTPCREL(%rip), %rdi
	call	__cxa_guard_release@PLT
	jmp	.L1749
.L1771:
	movq	_ZGVZN4asio5error21get_addrinfo_categoryEvE8instance@GOTPCREL(%rip), %rdi
	call	__cxa_guard_acquire@PLT
	testl	%eax, %eax
	je	.L1746
	movq	_ZZN4asio5error21get_addrinfo_categoryEvE8instance@GOTPCREL(%rip), %rsi
	movq	_ZN4asio5error6detail17addrinfo_categoryD1Ev@GOTPCREL(%rip), %rdi
	leaq	__dso_handle(%rip), %rdx
	call	__cxa_atexit@PLT
	movq	_ZGVZN4asio5error21get_addrinfo_categoryEvE8instance@GOTPCREL(%rip), %rdi
	call	__cxa_guard_release@PLT
	jmp	.L1746
.L1770:
	movq	_ZGVZN4asio5error18get_netdb_categoryEvE8instance@GOTPCREL(%rip), %rdi
	call	__cxa_guard_acquire@PLT
	testl	%eax, %eax
	je	.L1743
	movq	_ZZN4asio5error18get_netdb_categoryEvE8instance@GOTPCREL(%rip), %rsi
	movq	_ZN4asio5error6detail14netdb_categoryD1Ev@GOTPCREL(%rip), %rdi
	leaq	__dso_handle(%rip), %rdx
	call	__cxa_atexit@PLT
	movq	_ZGVZN4asio5error18get_netdb_categoryEvE8instance@GOTPCREL(%rip), %rdi
	call	__cxa_guard_release@PLT
	jmp	.L1743
	.cfi_endproc
.LFE10571:
	.size	_GLOBAL__sub_I_LinkSession.cpp, .-_GLOBAL__sub_I_LinkSession.cpp
	.section	.init_array,"aw"
	.align 8
	.quad	_GLOBAL__sub_I_LinkSession.cpp
	.weak	_ZTSN7openpal10UncopyableE
	.section	.rodata._ZTSN7openpal10UncopyableE,"aG",@progbits,_ZTSN7openpal10UncopyableE,comdat
	.align 16
	.type	_ZTSN7openpal10UncopyableE, @object
	.size	_ZTSN7openpal10UncopyableE, 23
_ZTSN7openpal10UncopyableE:
	.string	"N7openpal10UncopyableE"
	.weak	_ZTIN7openpal10UncopyableE
	.section	.data.rel.ro._ZTIN7openpal10UncopyableE,"awG",@progbits,_ZTIN7openpal10UncopyableE,comdat
	.align 8
	.type	_ZTIN7openpal10UncopyableE, @object
	.size	_ZTIN7openpal10UncopyableE, 16
_ZTIN7openpal10UncopyableE:
	.quad	_ZTVN10__cxxabiv117__class_type_infoE+16
	.quad	_ZTSN7openpal10UncopyableE
	.weak	_ZTSSt23enable_shared_from_thisIN8asiodnp311LinkSessionEE
	.section	.rodata._ZTSSt23enable_shared_from_thisIN8asiodnp311LinkSessionEE,"aG",@progbits,_ZTSSt23enable_shared_from_thisIN8asiodnp311LinkSessionEE,comdat
	.align 32
	.type	_ZTSSt23enable_shared_from_thisIN8asiodnp311LinkSessionEE, @object
	.size	_ZTSSt23enable_shared_from_thisIN8asiodnp311LinkSessionEE, 54
_ZTSSt23enable_shared_from_thisIN8asiodnp311LinkSessionEE:
	.string	"St23enable_shared_from_thisIN8asiodnp311LinkSessionEE"
	.weak	_ZTISt23enable_shared_from_thisIN8asiodnp311LinkSessionEE
	.section	.data.rel.ro._ZTISt23enable_shared_from_thisIN8asiodnp311LinkSessionEE,"awG",@progbits,_ZTISt23enable_shared_from_thisIN8asiodnp311LinkSessionEE,comdat
	.align 8
	.type	_ZTISt23enable_shared_from_thisIN8asiodnp311LinkSessionEE, @object
	.size	_ZTISt23enable_shared_from_thisIN8asiodnp311LinkSessionEE, 16
_ZTISt23enable_shared_from_thisIN8asiodnp311LinkSessionEE:
	.quad	_ZTVN10__cxxabiv117__class_type_infoE+16
	.quad	_ZTSSt23enable_shared_from_thisIN8asiodnp311LinkSessionEE
	.weak	_ZGVN4asio6detail12service_baseINS0_14strand_serviceEE2idE
	.section	.bss._ZGVN4asio6detail12service_baseINS0_14strand_serviceEE2idE,"awG",@nobits,_ZGVN4asio6detail12service_baseINS0_14strand_serviceEE2idE,comdat
	.align 8
	.type	_ZGVN4asio6detail12service_baseINS0_14strand_serviceEE2idE, @gnu_unique_object
	.size	_ZGVN4asio6detail12service_baseINS0_14strand_serviceEE2idE, 8
_ZGVN4asio6detail12service_baseINS0_14strand_serviceEE2idE:
	.zero	8
	.weak	_ZGVN4asio6detail10call_stackINS0_14strand_service11strand_implEhE4top_E
	.section	.bss._ZGVN4asio6detail10call_stackINS0_14strand_service11strand_implEhE4top_E,"awG",@nobits,_ZGVN4asio6detail10call_stackINS0_14strand_service11strand_implEhE4top_E,comdat
	.align 8
	.type	_ZGVN4asio6detail10call_stackINS0_14strand_service11strand_implEhE4top_E, @gnu_unique_object
	.size	_ZGVN4asio6detail10call_stackINS0_14strand_service11strand_implEhE4top_E, 8
_ZGVN4asio6detail10call_stackINS0_14strand_service11strand_implEhE4top_E:
	.zero	8
	.weak	_ZGVN4asio6detail12service_baseINS0_15task_io_serviceEE2idE
	.section	.bss._ZGVN4asio6detail12service_baseINS0_15task_io_serviceEE2idE,"awG",@nobits,_ZGVN4asio6detail12service_baseINS0_15task_io_serviceEE2idE,comdat
	.align 8
	.type	_ZGVN4asio6detail12service_baseINS0_15task_io_serviceEE2idE, @gnu_unique_object
	.size	_ZGVN4asio6detail12service_baseINS0_15task_io_serviceEE2idE, 8
_ZGVN4asio6detail12service_baseINS0_15task_io_serviceEE2idE:
	.zero	8
	.weak	_ZGVN4asio6detail12service_baseINS0_13epoll_reactorEE2idE
	.section	.bss._ZGVN4asio6detail12service_baseINS0_13epoll_reactorEE2idE,"awG",@nobits,_ZGVN4asio6detail12service_baseINS0_13epoll_reactorEE2idE,comdat
	.align 8
	.type	_ZGVN4asio6detail12service_baseINS0_13epoll_reactorEE2idE, @gnu_unique_object
	.size	_ZGVN4asio6detail12service_baseINS0_13epoll_reactorEE2idE, 8
_ZGVN4asio6detail12service_baseINS0_13epoll_reactorEE2idE:
	.zero	8
	.weak	_ZGVN4asio6detail10call_stackINS0_15task_io_serviceENS0_27task_io_service_thread_infoEE4top_E
	.section	.bss._ZGVN4asio6detail10call_stackINS0_15task_io_serviceENS0_27task_io_service_thread_infoEE4top_E,"awG",@nobits,_ZGVN4asio6detail10call_stackINS0_15task_io_serviceENS0_27task_io_service_thread_infoEE4top_E,comdat
	.align 8
	.type	_ZGVN4asio6detail10call_stackINS0_15task_io_serviceENS0_27task_io_service_thread_infoEE4top_E, @gnu_unique_object
	.size	_ZGVN4asio6detail10call_stackINS0_15task_io_serviceENS0_27task_io_service_thread_infoEE4top_E, 8
_ZGVN4asio6detail10call_stackINS0_15task_io_serviceENS0_27task_io_service_thread_infoEE4top_E:
	.zero	8
	.weak	_ZTSN8opendnp310IFrameSinkE
	.section	.rodata._ZTSN8opendnp310IFrameSinkE,"aG",@progbits,_ZTSN8opendnp310IFrameSinkE,comdat
	.align 16
	.type	_ZTSN8opendnp310IFrameSinkE, @object
	.size	_ZTSN8opendnp310IFrameSinkE, 24
_ZTSN8opendnp310IFrameSinkE:
	.string	"N8opendnp310IFrameSinkE"
	.weak	_ZTIN8opendnp310IFrameSinkE
	.section	.data.rel.ro._ZTIN8opendnp310IFrameSinkE,"awG",@progbits,_ZTIN8opendnp310IFrameSinkE,comdat
	.align 8
	.type	_ZTIN8opendnp310IFrameSinkE, @object
	.size	_ZTIN8opendnp310IFrameSinkE, 16
_ZTIN8opendnp310IFrameSinkE:
	.quad	_ZTVN10__cxxabiv117__class_type_infoE+16
	.quad	_ZTSN8opendnp310IFrameSinkE
	.weak	_ZTSN8opendnp37ILinkTxE
	.section	.rodata._ZTSN8opendnp37ILinkTxE,"aG",@progbits,_ZTSN8opendnp37ILinkTxE,comdat
	.align 16
	.type	_ZTSN8opendnp37ILinkTxE, @object
	.size	_ZTSN8opendnp37ILinkTxE, 20
_ZTSN8opendnp37ILinkTxE:
	.string	"N8opendnp37ILinkTxE"
	.weak	_ZTIN8opendnp37ILinkTxE
	.section	.data.rel.ro._ZTIN8opendnp37ILinkTxE,"awG",@progbits,_ZTIN8opendnp37ILinkTxE,comdat
	.align 8
	.type	_ZTIN8opendnp37ILinkTxE, @object
	.size	_ZTIN8opendnp37ILinkTxE, 16
_ZTIN8opendnp37ILinkTxE:
	.quad	_ZTVN10__cxxabiv117__class_type_infoE+16
	.quad	_ZTSN8opendnp37ILinkTxE
	.weak	_ZTSN4asio6detail15system_categoryE
	.section	.rodata._ZTSN4asio6detail15system_categoryE,"aG",@progbits,_ZTSN4asio6detail15system_categoryE,comdat
	.align 32
	.type	_ZTSN4asio6detail15system_categoryE, @object
	.size	_ZTSN4asio6detail15system_categoryE, 32
_ZTSN4asio6detail15system_categoryE:
	.string	"N4asio6detail15system_categoryE"
	.weak	_ZTIN4asio6detail15system_categoryE
	.section	.data.rel.ro._ZTIN4asio6detail15system_categoryE,"awG",@progbits,_ZTIN4asio6detail15system_categoryE,comdat
	.align 8
	.type	_ZTIN4asio6detail15system_categoryE, @object
	.size	_ZTIN4asio6detail15system_categoryE, 24
_ZTIN4asio6detail15system_categoryE:
	.quad	_ZTVN10__cxxabiv120__si_class_type_infoE+16
	.quad	_ZTSN4asio6detail15system_categoryE
	.quad	_ZTINSt3_V214error_categoryE
	.weak	_ZTSN4asio5error6detail14netdb_categoryE
	.section	.rodata._ZTSN4asio5error6detail14netdb_categoryE,"aG",@progbits,_ZTSN4asio5error6detail14netdb_categoryE,comdat
	.align 32
	.type	_ZTSN4asio5error6detail14netdb_categoryE, @object
	.size	_ZTSN4asio5error6detail14netdb_categoryE, 37
_ZTSN4asio5error6detail14netdb_categoryE:
	.string	"N4asio5error6detail14netdb_categoryE"
	.weak	_ZTIN4asio5error6detail14netdb_categoryE
	.section	.data.rel.ro._ZTIN4asio5error6detail14netdb_categoryE,"awG",@progbits,_ZTIN4asio5error6detail14netdb_categoryE,comdat
	.align 8
	.type	_ZTIN4asio5error6detail14netdb_categoryE, @object
	.size	_ZTIN4asio5error6detail14netdb_categoryE, 24
_ZTIN4asio5error6detail14netdb_categoryE:
	.quad	_ZTVN10__cxxabiv120__si_class_type_infoE+16
	.quad	_ZTSN4asio5error6detail14netdb_categoryE
	.quad	_ZTINSt3_V214error_categoryE
	.weak	_ZTSN4asio5error6detail17addrinfo_categoryE
	.section	.rodata._ZTSN4asio5error6detail17addrinfo_categoryE,"aG",@progbits,_ZTSN4asio5error6detail17addrinfo_categoryE,comdat
	.align 32
	.type	_ZTSN4asio5error6detail17addrinfo_categoryE, @object
	.size	_ZTSN4asio5error6detail17addrinfo_categoryE, 40
_ZTSN4asio5error6detail17addrinfo_categoryE:
	.string	"N4asio5error6detail17addrinfo_categoryE"
	.weak	_ZTIN4asio5error6detail17addrinfo_categoryE
	.section	.data.rel.ro._ZTIN4asio5error6detail17addrinfo_categoryE,"awG",@progbits,_ZTIN4asio5error6detail17addrinfo_categoryE,comdat
	.align 8
	.type	_ZTIN4asio5error6detail17addrinfo_categoryE, @object
	.size	_ZTIN4asio5error6detail17addrinfo_categoryE, 24
_ZTIN4asio5error6detail17addrinfo_categoryE:
	.quad	_ZTVN10__cxxabiv120__si_class_type_infoE+16
	.quad	_ZTSN4asio5error6detail17addrinfo_categoryE
	.quad	_ZTINSt3_V214error_categoryE
	.weak	_ZTSN4asio5error6detail13misc_categoryE
	.section	.rodata._ZTSN4asio5error6detail13misc_categoryE,"aG",@progbits,_ZTSN4asio5error6detail13misc_categoryE,comdat
	.align 32
	.type	_ZTSN4asio5error6detail13misc_categoryE, @object
	.size	_ZTSN4asio5error6detail13misc_categoryE, 36
_ZTSN4asio5error6detail13misc_categoryE:
	.string	"N4asio5error6detail13misc_categoryE"
	.weak	_ZTIN4asio5error6detail13misc_categoryE
	.section	.data.rel.ro._ZTIN4asio5error6detail13misc_categoryE,"awG",@progbits,_ZTIN4asio5error6detail13misc_categoryE,comdat
	.align 8
	.type	_ZTIN4asio5error6detail13misc_categoryE, @object
	.size	_ZTIN4asio5error6detail13misc_categoryE, 24
_ZTIN4asio5error6detail13misc_categoryE:
	.quad	_ZTVN10__cxxabiv120__si_class_type_infoE+16
	.quad	_ZTSN4asio5error6detail13misc_categoryE
	.quad	_ZTINSt3_V214error_categoryE
	.weak	_ZTSN7asiopal9IResourceE
	.section	.rodata._ZTSN7asiopal9IResourceE,"aG",@progbits,_ZTSN7asiopal9IResourceE,comdat
	.align 16
	.type	_ZTSN7asiopal9IResourceE, @object
	.size	_ZTSN7asiopal9IResourceE, 21
_ZTSN7asiopal9IResourceE:
	.string	"N7asiopal9IResourceE"
	.weak	_ZTIN7asiopal9IResourceE
	.section	.data.rel.ro._ZTIN7asiopal9IResourceE,"awG",@progbits,_ZTIN7asiopal9IResourceE,comdat
	.align 8
	.type	_ZTIN7asiopal9IResourceE, @object
	.size	_ZTIN7asiopal9IResourceE, 16
_ZTIN7asiopal9IResourceE:
	.quad	_ZTVN10__cxxabiv117__class_type_infoE+16
	.quad	_ZTSN7asiopal9IResourceE
	.weak	_ZTSN7asiopal17IChannelCallbacksE
	.section	.rodata._ZTSN7asiopal17IChannelCallbacksE,"aG",@progbits,_ZTSN7asiopal17IChannelCallbacksE,comdat
	.align 16
	.type	_ZTSN7asiopal17IChannelCallbacksE, @object
	.size	_ZTSN7asiopal17IChannelCallbacksE, 30
_ZTSN7asiopal17IChannelCallbacksE:
	.string	"N7asiopal17IChannelCallbacksE"
	.weak	_ZTIN7asiopal17IChannelCallbacksE
	.section	.data.rel.ro._ZTIN7asiopal17IChannelCallbacksE,"awG",@progbits,_ZTIN7asiopal17IChannelCallbacksE,comdat
	.align 8
	.type	_ZTIN7asiopal17IChannelCallbacksE, @object
	.size	_ZTIN7asiopal17IChannelCallbacksE, 16
_ZTIN7asiopal17IChannelCallbacksE:
	.quad	_ZTVN10__cxxabiv117__class_type_infoE+16
	.quad	_ZTSN7asiopal17IChannelCallbacksE
	.weak	_ZTSN8asiodnp316ISessionAcceptorE
	.section	.rodata._ZTSN8asiodnp316ISessionAcceptorE,"aG",@progbits,_ZTSN8asiodnp316ISessionAcceptorE,comdat
	.align 16
	.type	_ZTSN8asiodnp316ISessionAcceptorE, @object
	.size	_ZTSN8asiodnp316ISessionAcceptorE, 30
_ZTSN8asiodnp316ISessionAcceptorE:
	.string	"N8asiodnp316ISessionAcceptorE"
	.weak	_ZTIN8asiodnp316ISessionAcceptorE
	.section	.data.rel.ro._ZTIN8asiodnp316ISessionAcceptorE,"awG",@progbits,_ZTIN8asiodnp316ISessionAcceptorE,comdat
	.align 8
	.type	_ZTIN8asiodnp316ISessionAcceptorE, @object
	.size	_ZTIN8asiodnp316ISessionAcceptorE, 16
_ZTIN8asiodnp316ISessionAcceptorE:
	.quad	_ZTVN10__cxxabiv117__class_type_infoE+16
	.quad	_ZTSN8asiodnp316ISessionAcceptorE
	.weak	_ZTSN8asiodnp311LinkSessionE
	.section	.rodata._ZTSN8asiodnp311LinkSessionE,"aG",@progbits,_ZTSN8asiodnp311LinkSessionE,comdat
	.align 16
	.type	_ZTSN8asiodnp311LinkSessionE, @object
	.size	_ZTSN8asiodnp311LinkSessionE, 25
_ZTSN8asiodnp311LinkSessionE:
	.string	"N8asiodnp311LinkSessionE"
	.weak	_ZTIN8asiodnp311LinkSessionE
	.section	.data.rel.ro._ZTIN8asiodnp311LinkSessionE,"awG",@progbits,_ZTIN8asiodnp311LinkSessionE,comdat
	.align 8
	.type	_ZTIN8asiodnp311LinkSessionE, @object
	.size	_ZTIN8asiodnp311LinkSessionE, 136
_ZTIN8asiodnp311LinkSessionE:
	.quad	_ZTVN10__cxxabiv121__vmi_class_type_infoE+16
	.quad	_ZTSN8asiodnp311LinkSessionE
	.long	0
	.long	7
	.quad	_ZTIN8opendnp37ILinkTxE
	.quad	2
	.quad	_ZTIN7asiopal17IChannelCallbacksE
	.quad	2050
	.quad	_ZTIN8opendnp310IFrameSinkE
	.quad	4096
	.quad	_ZTISt23enable_shared_from_thisIN8asiodnp311LinkSessionEE
	.quad	6146
	.quad	_ZTIN7asiopal9IResourceE
	.quad	10242
	.quad	_ZTIN8asiodnp316ISessionAcceptorE
	.quad	12288
	.quad	_ZTIN7openpal10UncopyableE
	.quad	0
	.section	.data.rel.ro,"aw"
	.align 8
	.type	_ZTIZN8asiodnp311LinkSession8ShutdownEvEUlvE_, @object
	.size	_ZTIZN8asiodnp311LinkSession8ShutdownEvEUlvE_, 16
_ZTIZN8asiodnp311LinkSession8ShutdownEvEUlvE_:
	.quad	_ZTVN10__cxxabiv117__class_type_infoE+16
	.quad	_ZTSZN8asiodnp311LinkSession8ShutdownEvEUlvE_
	.section	.rodata
	.align 32
	.type	_ZTSZN8asiodnp311LinkSession8ShutdownEvEUlvE_, @object
	.size	_ZTSZN8asiodnp311LinkSession8ShutdownEvEUlvE_, 43
_ZTSZN8asiodnp311LinkSession8ShutdownEvEUlvE_:
	.string	"*ZN8asiodnp311LinkSession8ShutdownEvEUlvE_"
	.section	.data.rel.ro
	.align 8
	.type	_ZTIZN7openpal8TimerRef5StartIZN8asiodnp311LinkSession5StartEvEUlvE_EEbRKNS_12TimeDurationERKT_EUlvE_, @object
	.size	_ZTIZN7openpal8TimerRef5StartIZN8asiodnp311LinkSession5StartEvEUlvE_EEbRKNS_12TimeDurationERKT_EUlvE_, 16
_ZTIZN7openpal8TimerRef5StartIZN8asiodnp311LinkSession5StartEvEUlvE_EEbRKNS_12TimeDurationERKT_EUlvE_:
	.quad	_ZTVN10__cxxabiv117__class_type_infoE+16
	.quad	_ZTSZN7openpal8TimerRef5StartIZN8asiodnp311LinkSession5StartEvEUlvE_EEbRKNS_12TimeDurationERKT_EUlvE_
	.section	.rodata
	.align 32
	.type	_ZTSZN7openpal8TimerRef5StartIZN8asiodnp311LinkSession5StartEvEUlvE_EEbRKNS_12TimeDurationERKT_EUlvE_, @object
	.size	_ZTSZN7openpal8TimerRef5StartIZN8asiodnp311LinkSession5StartEvEUlvE_EEbRKNS_12TimeDurationERKT_EUlvE_, 99
_ZTSZN7openpal8TimerRef5StartIZN8asiodnp311LinkSession5StartEvEUlvE_EEbRKNS_12TimeDurationERKT_EUlvE_:
	.string	"*ZN7openpal8TimerRef5StartIZN8asiodnp311LinkSession5StartEvEUlvE_EEbRKNS_12TimeDurationERKT_EUlvE_"
	.weak	_ZTVN4asio6detail15system_categoryE
	.section	.data.rel.ro._ZTVN4asio6detail15system_categoryE,"awG",@progbits,_ZTVN4asio6detail15system_categoryE,comdat
	.align 8
	.type	_ZTVN4asio6detail15system_categoryE, @object
	.size	_ZTVN4asio6detail15system_categoryE, 80
_ZTVN4asio6detail15system_categoryE:
	.quad	0
	.quad	_ZTIN4asio6detail15system_categoryE
	.quad	_ZN4asio6detail15system_categoryD1Ev
	.quad	_ZN4asio6detail15system_categoryD0Ev
	.quad	_ZNK4asio6detail15system_category4nameEv
	.quad	_ZNKSt3_V214error_category10_M_messageB5cxx11Ei
	.quad	_ZNK4asio6detail15system_category7messageB5cxx11Ei
	.quad	_ZNKSt3_V214error_category23default_error_conditionEi
	.quad	_ZNKSt3_V214error_category10equivalentEiRKSt15error_condition
	.quad	_ZNKSt3_V214error_category10equivalentERKSt10error_codei
	.weak	_ZTVN4asio5error6detail14netdb_categoryE
	.section	.data.rel.ro._ZTVN4asio5error6detail14netdb_categoryE,"awG",@progbits,_ZTVN4asio5error6detail14netdb_categoryE,comdat
	.align 8
	.type	_ZTVN4asio5error6detail14netdb_categoryE, @object
	.size	_ZTVN4asio5error6detail14netdb_categoryE, 80
_ZTVN4asio5error6detail14netdb_categoryE:
	.quad	0
	.quad	_ZTIN4asio5error6detail14netdb_categoryE
	.quad	_ZN4asio5error6detail14netdb_categoryD1Ev
	.quad	_ZN4asio5error6detail14netdb_categoryD0Ev
	.quad	_ZNK4asio5error6detail14netdb_category4nameEv
	.quad	_ZNKSt3_V214error_category10_M_messageB5cxx11Ei
	.quad	_ZNK4asio5error6detail14netdb_category7messageB5cxx11Ei
	.quad	_ZNKSt3_V214error_category23default_error_conditionEi
	.quad	_ZNKSt3_V214error_category10equivalentEiRKSt15error_condition
	.quad	_ZNKSt3_V214error_category10equivalentERKSt10error_codei
	.weak	_ZTVN4asio5error6detail17addrinfo_categoryE
	.section	.data.rel.ro._ZTVN4asio5error6detail17addrinfo_categoryE,"awG",@progbits,_ZTVN4asio5error6detail17addrinfo_categoryE,comdat
	.align 8
	.type	_ZTVN4asio5error6detail17addrinfo_categoryE, @object
	.size	_ZTVN4asio5error6detail17addrinfo_categoryE, 80
_ZTVN4asio5error6detail17addrinfo_categoryE:
	.quad	0
	.quad	_ZTIN4asio5error6detail17addrinfo_categoryE
	.quad	_ZN4asio5error6detail17addrinfo_categoryD1Ev
	.quad	_ZN4asio5error6detail17addrinfo_categoryD0Ev
	.quad	_ZNK4asio5error6detail17addrinfo_category4nameEv
	.quad	_ZNKSt3_V214error_category10_M_messageB5cxx11Ei
	.quad	_ZNK4asio5error6detail17addrinfo_category7messageB5cxx11Ei
	.quad	_ZNKSt3_V214error_category23default_error_conditionEi
	.quad	_ZNKSt3_V214error_category10equivalentEiRKSt15error_condition
	.quad	_ZNKSt3_V214error_category10equivalentERKSt10error_codei
	.weak	_ZTVN4asio5error6detail13misc_categoryE
	.section	.data.rel.ro._ZTVN4asio5error6detail13misc_categoryE,"awG",@progbits,_ZTVN4asio5error6detail13misc_categoryE,comdat
	.align 8
	.type	_ZTVN4asio5error6detail13misc_categoryE, @object
	.size	_ZTVN4asio5error6detail13misc_categoryE, 80
_ZTVN4asio5error6detail13misc_categoryE:
	.quad	0
	.quad	_ZTIN4asio5error6detail13misc_categoryE
	.quad	_ZN4asio5error6detail13misc_categoryD1Ev
	.quad	_ZN4asio5error6detail13misc_categoryD0Ev
	.quad	_ZNK4asio5error6detail13misc_category4nameEv
	.quad	_ZNKSt3_V214error_category10_M_messageB5cxx11Ei
	.quad	_ZNK4asio5error6detail13misc_category7messageB5cxx11Ei
	.quad	_ZNKSt3_V214error_category23default_error_conditionEi
	.quad	_ZNKSt3_V214error_category10equivalentEiRKSt15error_condition
	.quad	_ZNKSt3_V214error_category10equivalentERKSt10error_codei
	.weak	_ZTVN8asiodnp311LinkSessionE
	.section	.data.rel.ro._ZTVN8asiodnp311LinkSessionE,"awG",@progbits,_ZTVN8asiodnp311LinkSessionE,comdat
	.align 8
	.type	_ZTVN8asiodnp311LinkSessionE, @object
	.size	_ZTVN8asiodnp311LinkSessionE, 248
_ZTVN8asiodnp311LinkSessionE:
	.quad	0
	.quad	_ZTIN8asiodnp311LinkSessionE
	.quad	_ZN8asiodnp311LinkSessionD1Ev
	.quad	_ZN8asiodnp311LinkSessionD0Ev
	.quad	_ZN8asiodnp311LinkSession13BeginTransmitERKN7openpal6RSliceERN8opendnp312ILinkSessionE
	.quad	_ZN8asiodnp311LinkSession8ShutdownEv
	.quad	_ZN8asiodnp311LinkSession14OnReadCompleteERKSt10error_codem
	.quad	_ZN8asiodnp311LinkSession15OnWriteCompleteERKSt10error_codem
	.quad	_ZN8asiodnp311LinkSession7OnFrameERKN8opendnp316LinkHeaderFieldsERKN7openpal6RSliceE
	.quad	_ZN8asiodnp311LinkSession13AcceptSessionERKNSt7__cxx1112basic_stringIcSt11char_traitsIcESaIcEEESt10shared_ptrIN8opendnp311ISOEHandlerEES9_INSA_18IMasterApplicationEERKNS_17MasterStackConfigE
	.quad	-8
	.quad	_ZTIN8asiodnp311LinkSessionE
	.quad	_ZThn8_N8asiodnp311LinkSessionD1Ev
	.quad	_ZThn8_N8asiodnp311LinkSessionD0Ev
	.quad	_ZThn8_N8asiodnp311LinkSession14OnReadCompleteERKSt10error_codem
	.quad	_ZThn8_N8asiodnp311LinkSession15OnWriteCompleteERKSt10error_codem
	.quad	-16
	.quad	_ZTIN8asiodnp311LinkSessionE
	.quad	_ZThn16_N8asiodnp311LinkSessionD1Ev
	.quad	_ZThn16_N8asiodnp311LinkSessionD0Ev
	.quad	_ZThn16_N8asiodnp311LinkSession7OnFrameERKN8opendnp316LinkHeaderFieldsERKN7openpal6RSliceE
	.quad	-40
	.quad	_ZTIN8asiodnp311LinkSessionE
	.quad	_ZThn40_N8asiodnp311LinkSessionD1Ev
	.quad	_ZThn40_N8asiodnp311LinkSessionD0Ev
	.quad	_ZThn40_N8asiodnp311LinkSession8ShutdownEv
	.quad	-48
	.quad	_ZTIN8asiodnp311LinkSessionE
	.quad	_ZThn48_N8asiodnp311LinkSessionD1Ev
	.quad	_ZThn48_N8asiodnp311LinkSessionD0Ev
	.quad	_ZThn48_N8asiodnp311LinkSession13AcceptSessionERKNSt7__cxx1112basic_stringIcSt11char_traitsIcESaIcEEESt10shared_ptrIN8opendnp311ISOEHandlerEES9_INSA_18IMasterApplicationEERKNS_17MasterStackConfigE
	.weak	_ZGVZN4asio5error17get_misc_categoryEvE8instance
	.section	.bss._ZGVZN4asio5error17get_misc_categoryEvE8instance,"awG",@nobits,_ZGVZN4asio5error17get_misc_categoryEvE8instance,comdat
	.align 8
	.type	_ZGVZN4asio5error17get_misc_categoryEvE8instance, @gnu_unique_object
	.size	_ZGVZN4asio5error17get_misc_categoryEvE8instance, 8
_ZGVZN4asio5error17get_misc_categoryEvE8instance:
	.zero	8
	.weak	_ZZN4asio5error17get_misc_categoryEvE8instance
	.section	.data.rel._ZZN4asio5error17get_misc_categoryEvE8instance,"awG",@progbits,_ZZN4asio5error17get_misc_categoryEvE8instance,comdat
	.align 8
	.type	_ZZN4asio5error17get_misc_categoryEvE8instance, @gnu_unique_object
	.size	_ZZN4asio5error17get_misc_categoryEvE8instance, 8
_ZZN4asio5error17get_misc_categoryEvE8instance:
	.quad	_ZTVN4asio5error6detail13misc_categoryE+16
	.weak	_ZGVZN4asio5error21get_addrinfo_categoryEvE8instance
	.section	.bss._ZGVZN4asio5error21get_addrinfo_categoryEvE8instance,"awG",@nobits,_ZGVZN4asio5error21get_addrinfo_categoryEvE8instance,comdat
	.align 8
	.type	_ZGVZN4asio5error21get_addrinfo_categoryEvE8instance, @gnu_unique_object
	.size	_ZGVZN4asio5error21get_addrinfo_categoryEvE8instance, 8
_ZGVZN4asio5error21get_addrinfo_categoryEvE8instance:
	.zero	8
	.weak	_ZZN4asio5error21get_addrinfo_categoryEvE8instance
	.section	.data.rel._ZZN4asio5error21get_addrinfo_categoryEvE8instance,"awG",@progbits,_ZZN4asio5error21get_addrinfo_categoryEvE8instance,comdat
	.align 8
	.type	_ZZN4asio5error21get_addrinfo_categoryEvE8instance, @gnu_unique_object
	.size	_ZZN4asio5error21get_addrinfo_categoryEvE8instance, 8
_ZZN4asio5error21get_addrinfo_categoryEvE8instance:
	.quad	_ZTVN4asio5error6detail17addrinfo_categoryE+16
	.weak	_ZGVZN4asio5error18get_netdb_categoryEvE8instance
	.section	.bss._ZGVZN4asio5error18get_netdb_categoryEvE8instance,"awG",@nobits,_ZGVZN4asio5error18get_netdb_categoryEvE8instance,comdat
	.align 8
	.type	_ZGVZN4asio5error18get_netdb_categoryEvE8instance, @gnu_unique_object
	.size	_ZGVZN4asio5error18get_netdb_categoryEvE8instance, 8
_ZGVZN4asio5error18get_netdb_categoryEvE8instance:
	.zero	8
	.weak	_ZZN4asio5error18get_netdb_categoryEvE8instance
	.section	.data.rel._ZZN4asio5error18get_netdb_categoryEvE8instance,"awG",@progbits,_ZZN4asio5error18get_netdb_categoryEvE8instance,comdat
	.align 8
	.type	_ZZN4asio5error18get_netdb_categoryEvE8instance, @gnu_unique_object
	.size	_ZZN4asio5error18get_netdb_categoryEvE8instance, 8
_ZZN4asio5error18get_netdb_categoryEvE8instance:
	.quad	_ZTVN4asio5error6detail14netdb_categoryE+16
	.weak	_ZGVZN4asio15system_categoryEvE8instance
	.section	.bss._ZGVZN4asio15system_categoryEvE8instance,"awG",@nobits,_ZGVZN4asio15system_categoryEvE8instance,comdat
	.align 8
	.type	_ZGVZN4asio15system_categoryEvE8instance, @gnu_unique_object
	.size	_ZGVZN4asio15system_categoryEvE8instance, 8
_ZGVZN4asio15system_categoryEvE8instance:
	.zero	8
	.weak	_ZZN4asio15system_categoryEvE8instance
	.section	.data.rel._ZZN4asio15system_categoryEvE8instance,"awG",@progbits,_ZZN4asio15system_categoryEvE8instance,comdat
	.align 8
	.type	_ZZN4asio15system_categoryEvE8instance, @gnu_unique_object
	.size	_ZZN4asio15system_categoryEvE8instance, 8
_ZZN4asio15system_categoryEvE8instance:
	.quad	_ZTVN4asio6detail15system_categoryE+16
	.weak	_ZN4asio6detail15keyword_tss_ptrINS0_10call_stackINS0_15task_io_serviceENS0_27task_io_service_thread_infoEE7contextEE6value_E
	.section	.tbss._ZN4asio6detail15keyword_tss_ptrINS0_10call_stackINS0_15task_io_serviceENS0_27task_io_service_thread_infoEE7contextEE6value_E,"awTG",@nobits,_ZN4asio6detail15keyword_tss_ptrINS0_10call_stackINS0_15task_io_serviceENS0_27task_io_service_thread_infoEE7contextEE6value_E,comdat
	.align 8
	.type	_ZN4asio6detail15keyword_tss_ptrINS0_10call_stackINS0_15task_io_serviceENS0_27task_io_service_thread_infoEE7contextEE6value_E, @gnu_unique_object
	.size	_ZN4asio6detail15keyword_tss_ptrINS0_10call_stackINS0_15task_io_serviceENS0_27task_io_service_thread_infoEE7contextEE6value_E, 8
_ZN4asio6detail15keyword_tss_ptrINS0_10call_stackINS0_15task_io_serviceENS0_27task_io_service_thread_infoEE7contextEE6value_E:
	.zero	8
	.section	.rodata.cst16,"aM",@progbits,16
	.align 16
.LC5:
	.quad	8028075772644520015
	.quad	7310593917846626414
	.align 16
.LC7:
	.quad	2334381286471394643
	.quad	7959390400869068654
	.align 16
.LC8:
	.quad	8367816086596579155
	.quad	2338616625292734585
	.align 16
.LC9:
	.quad	8295758535554262384
	.quad	7234316411285303413
	.align 16
.LC10:
	.quad	7234013753529430881
	.quad	8243030355803531634
	.align 16
.LC11:
	.quad	8390045716486254408
	.quad	2891421386351273504
	.align 16
.LC12:
	.quad	8245924292133464096
	.quad	2982920523499009129
	.align 16
.LC13:
	.quad	7526769937477431150
	.quad	8532478930943832687
	.align 16
.LC14:
	.quad	2340027324477221221
	.quad	7020021577750243169
	.align 16
.LC15:
	.quad	8243123821706831956
	.quad	7809653110584451193
	.align 16
.LC16:
	.quad	2338623170819155049
	.quad	2338324160631043177
	.align 16
.LC17:
	.quad	7311138144931573614
	.quad	7019250824563089696
	.align 16
.LC18:
	.quad	7309955097514876993
	.quad	7809911847770287971
	.align 16
.LC19:
	.quad	2338053693894893669
	.quad	7234314212361855855
	.align 16
.LC20:
	.quad	2334956330985808928
	.quad	7310293695322153316
	.align 16
.LC21:
