	.file	"MasterStack.cpp"
	.text
	.section	.rodata._ZNK4asio6detail15system_category4nameEv.str1.1,"aMS",@progbits,1
.LC0:
	.string	"asio.system"
	.section	.text._ZNK4asio6detail15system_category4nameEv,"axG",@progbits,_ZNK4asio6detail15system_category4nameEv,comdat
	.align 2
	.p2align 4
	.weak	_ZNK4asio6detail15system_category4nameEv
	.type	_ZNK4asio6detail15system_category4nameEv, @function
_ZNK4asio6detail15system_category4nameEv:
.LFB2764:
	.cfi_startproc
	leaq	.LC0(%rip), %rax
	ret
	.cfi_endproc
.LFE2764:
	.size	_ZNK4asio6detail15system_category4nameEv, .-_ZNK4asio6detail15system_category4nameEv
	.section	.rodata._ZNK4asio5error6detail14netdb_category4nameEv.str1.1,"aMS",@progbits,1
.LC1:
	.string	"asio.netdb"
	.section	.text._ZNK4asio5error6detail14netdb_category4nameEv,"axG",@progbits,_ZNK4asio5error6detail14netdb_category4nameEv,comdat
	.align 2
	.p2align 4
	.weak	_ZNK4asio5error6detail14netdb_category4nameEv
	.type	_ZNK4asio5error6detail14netdb_category4nameEv, @function
_ZNK4asio5error6detail14netdb_category4nameEv:
.LFB2808:
	.cfi_startproc
	leaq	.LC1(%rip), %rax
	ret
	.cfi_endproc
.LFE2808:
	.size	_ZNK4asio5error6detail14netdb_category4nameEv, .-_ZNK4asio5error6detail14netdb_category4nameEv
	.section	.rodata._ZNK4asio5error6detail17addrinfo_category4nameEv.str1.1,"aMS",@progbits,1
.LC2:
	.string	"asio.addrinfo"
	.section	.text._ZNK4asio5error6detail17addrinfo_category4nameEv,"axG",@progbits,_ZNK4asio5error6detail17addrinfo_category4nameEv,comdat
	.align 2
	.p2align 4
	.weak	_ZNK4asio5error6detail17addrinfo_category4nameEv
	.type	_ZNK4asio5error6detail17addrinfo_category4nameEv, @function
_ZNK4asio5error6detail17addrinfo_category4nameEv:
.LFB2818:
	.cfi_startproc
	leaq	.LC2(%rip), %rax
	ret
	.cfi_endproc
.LFE2818:
	.size	_ZNK4asio5error6detail17addrinfo_category4nameEv, .-_ZNK4asio5error6detail17addrinfo_category4nameEv
	.section	.rodata._ZNK4asio5error6detail13misc_category4nameEv.str1.1,"aMS",@progbits,1
.LC3:
	.string	"asio.misc"
	.section	.text._ZNK4asio5error6detail13misc_category4nameEv,"axG",@progbits,_ZNK4asio5error6detail13misc_category4nameEv,comdat
	.align 2
	.p2align 4
	.weak	_ZNK4asio5error6detail13misc_category4nameEv
	.type	_ZNK4asio5error6detail13misc_category4nameEv, @function
_ZNK4asio5error6detail13misc_category4nameEv:
.LFB2828:
	.cfi_startproc
	leaq	.LC3(%rip), %rax
	ret
	.cfi_endproc
.LFE2828:
	.size	_ZNK4asio5error6detail13misc_category4nameEv, .-_ZNK4asio5error6detail13misc_category4nameEv
	.section	.text._ZNSt13__future_base13_State_baseV217_M_complete_asyncEv,"axG",@progbits,_ZNSt13__future_base13_State_baseV217_M_complete_asyncEv,comdat
	.align 2
	.p2align 4
	.weak	_ZNSt13__future_base13_State_baseV217_M_complete_asyncEv
	.type	_ZNSt13__future_base13_State_baseV217_M_complete_asyncEv, @function
_ZNSt13__future_base13_State_baseV217_M_complete_asyncEv:
.LFB6885:
	.cfi_startproc
	ret
	.cfi_endproc
.LFE6885:
	.size	_ZNSt13__future_base13_State_baseV217_M_complete_asyncEv, .-_ZNSt13__future_base13_State_baseV217_M_complete_asyncEv
	.section	.text._ZNKSt13__future_base13_State_baseV221_M_is_deferred_futureEv,"axG",@progbits,_ZNKSt13__future_base13_State_baseV221_M_is_deferred_futureEv,comdat
	.align 2
	.p2align 4
	.weak	_ZNKSt13__future_base13_State_baseV221_M_is_deferred_futureEv
	.type	_ZNKSt13__future_base13_State_baseV221_M_is_deferred_futureEv, @function
_ZNKSt13__future_base13_State_baseV221_M_is_deferred_futureEv:
.LFB6886:
	.cfi_startproc
	xorl	%eax, %eax
	ret
	.cfi_endproc
.LFE6886:
	.size	_ZNKSt13__future_base13_State_baseV221_M_is_deferred_futureEv, .-_ZNKSt13__future_base13_State_baseV221_M_is_deferred_futureEv
	.section	.text._ZZNSt9once_flag18_Prepare_executionC4IZSt9call_onceIMNSt13__future_base13_State_baseV2EFvPSt8functionIFSt10unique_ptrINS3_12_Result_baseENS7_8_DeleterEEvEEPbEJPS4_SC_SD_EEvRS_OT_DpOT0_EUlvE_EERSI_ENUlvE_4_FUNEv,"axG",@progbits,_ZZNSt9once_flag18_Prepare_executionC4IZSt9call_onceIMNSt13__future_base13_State_baseV2EFvPSt8functionIFSt10unique_ptrINS3_12_Result_baseENS7_8_DeleterEEvEEPbEJPS4_SC_SD_EEvRS_OT_DpOT0_EUlvE_EERSI_ENUlvE_4_FUNEv,comdat
	.p2align 4
	.weak	_ZZNSt9once_flag18_Prepare_executionC4IZSt9call_onceIMNSt13__future_base13_State_baseV2EFvPSt8functionIFSt10unique_ptrINS3_12_Result_baseENS7_8_DeleterEEvEEPbEJPS4_SC_SD_EEvRS_OT_DpOT0_EUlvE_EERSI_ENUlvE_4_FUNEv
	.type	_ZZNSt9once_flag18_Prepare_executionC4IZSt9call_onceIMNSt13__future_base13_State_baseV2EFvPSt8functionIFSt10unique_ptrINS3_12_Result_baseENS7_8_DeleterEEvEEPbEJPS4_SC_SD_EEvRS_OT_DpOT0_EUlvE_EERSI_ENUlvE_4_FUNEv, @function
_ZZNSt9once_flag18_Prepare_executionC4IZSt9call_onceIMNSt13__future_base13_State_baseV2EFvPSt8functionIFSt10unique_ptrINS3_12_Result_baseENS7_8_DeleterEEvEEPbEJPS4_SC_SD_EEvRS_OT_DpOT0_EUlvE_EERSI_ENUlvE_4_FUNEv:
.LFB10041:
	.cfi_startproc
	subq	$8, %rsp
	.cfi_def_cfa_offset 16
	data16	leaq	_ZSt15__once_callable@tlsgd(%rip), %rdi
	.value	0x6666
	rex64
	call	__tls_get_addr@PLT
	movq	(%rax), %rax
	movq	(%rax), %rdx
	movq	24(%rax), %r8
	movq	16(%rax), %rsi
	movq	8(%rax), %rax
	movq	(%rdx), %rcx
	movq	8(%rdx), %rdi
	addq	(%rax), %rdi
	testb	$1, %cl
	je	.L9
	movq	(%rdi), %rax
	movq	-1(%rax,%rcx), %rcx
.L9:
	movq	(%r8), %rdx
	movq	(%rsi), %rsi
	addq	$8, %rsp
	.cfi_def_cfa_offset 8
	jmp	*%rcx
	.cfi_endproc
.LFE10041:
	.size	_ZZNSt9once_flag18_Prepare_executionC4IZSt9call_onceIMNSt13__future_base13_State_baseV2EFvPSt8functionIFSt10unique_ptrINS3_12_Result_baseENS7_8_DeleterEEvEEPbEJPS4_SC_SD_EEvRS_OT_DpOT0_EUlvE_EERSI_ENUlvE_4_FUNEv, .-_ZZNSt9once_flag18_Prepare_executionC4IZSt9call_onceIMNSt13__future_base13_State_baseV2EFvPSt8functionIFSt10unique_ptrINS3_12_Result_baseENS7_8_DeleterEEvEEPbEJPS4_SC_SD_EEvRS_OT_DpOT0_EUlvE_EERSI_ENUlvE_4_FUNEv
	.section	.text._ZNSt15__exception_ptr12__dest_thunkISt12future_errorEEvPv,"axG",@progbits,_ZNSt15__exception_ptr12__dest_thunkISt12future_errorEEvPv,comdat
	.p2align 4
	.weak	_ZNSt15__exception_ptr12__dest_thunkISt12future_errorEEvPv
	.type	_ZNSt15__exception_ptr12__dest_thunkISt12future_errorEEvPv, @function
_ZNSt15__exception_ptr12__dest_thunkISt12future_errorEEvPv:
.LFB10065:
	.cfi_startproc
	movq	(%rdi), %rax
	jmp	*(%rax)
	.cfi_endproc
.LFE10065:
	.size	_ZNSt15__exception_ptr12__dest_thunkISt12future_errorEEvPv, .-_ZNSt15__exception_ptr12__dest_thunkISt12future_errorEEvPv
	.section	.text._ZNSt17_Function_handlerIFSt10unique_ptrINSt13__future_base12_Result_baseENS2_8_DeleterEEvENS1_13_State_baseV27_SetterIbObEEE9_M_invokeERKSt9_Any_data,"axG",@progbits,_ZNSt17_Function_handlerIFSt10unique_ptrINSt13__future_base12_Result_baseENS2_8_DeleterEEvENS1_13_State_baseV27_SetterIbObEEE9_M_invokeERKSt9_Any_data,comdat
	.p2align 4
	.weak	_ZNSt17_Function_handlerIFSt10unique_ptrINSt13__future_base12_Result_baseENS2_8_DeleterEEvENS1_13_State_baseV27_SetterIbObEEE9_M_invokeERKSt9_Any_data
	.type	_ZNSt17_Function_handlerIFSt10unique_ptrINSt13__future_base12_Result_baseENS2_8_DeleterEEvENS1_13_State_baseV27_SetterIbObEEE9_M_invokeERKSt9_Any_data, @function
_ZNSt17_Function_handlerIFSt10unique_ptrINSt13__future_base12_Result_baseENS2_8_DeleterEEvENS1_13_State_baseV27_SetterIbObEEE9_M_invokeERKSt9_Any_data:
.LFB11378:
	.cfi_startproc
	movq	(%rsi), %rdx
	movq	8(%rsi), %rcx
	movq	16(%rdx), %rax
	movzbl	(%rcx), %ecx
	movb	$1, 17(%rax)
	movb	%cl, 16(%rax)
	movq	$0, 16(%rdx)
	movq	%rax, (%rdi)
	movq	%rdi, %rax
	ret
	.cfi_endproc
.LFE11378:
	.size	_ZNSt17_Function_handlerIFSt10unique_ptrINSt13__future_base12_Result_baseENS2_8_DeleterEEvENS1_13_State_baseV27_SetterIbObEEE9_M_invokeERKSt9_Any_data, .-_ZNSt17_Function_handlerIFSt10unique_ptrINSt13__future_base12_Result_baseENS2_8_DeleterEEvENS1_13_State_baseV27_SetterIbObEEE9_M_invokeERKSt9_Any_data
	.section	.text._ZNSt17_Function_handlerIFSt10unique_ptrINSt13__future_base12_Result_baseENS2_8_DeleterEEvENS1_13_State_baseV27_SetterIN8opendnp315StackStatisticsEOS9_EEE9_M_invokeERKSt9_Any_data,"axG",@progbits,_ZNSt17_Function_handlerIFSt10unique_ptrINSt13__future_base12_Result_baseENS2_8_DeleterEEvENS1_13_State_baseV27_SetterIN8opendnp315StackStatisticsEOS9_EEE9_M_invokeERKSt9_Any_data,comdat
	.p2align 4
	.weak	_ZNSt17_Function_handlerIFSt10unique_ptrINSt13__future_base12_Result_baseENS2_8_DeleterEEvENS1_13_State_baseV27_SetterIN8opendnp315StackStatisticsEOS9_EEE9_M_invokeERKSt9_Any_data
	.type	_ZNSt17_Function_handlerIFSt10unique_ptrINSt13__future_base12_Result_baseENS2_8_DeleterEEvENS1_13_State_baseV27_SetterIN8opendnp315StackStatisticsEOS9_EEE9_M_invokeERKSt9_Any_data, @function
_ZNSt17_Function_handlerIFSt10unique_ptrINSt13__future_base12_Result_baseENS2_8_DeleterEEvENS1_13_State_baseV27_SetterIN8opendnp315StackStatisticsEOS9_EEE9_M_invokeERKSt9_Any_data:
.LFB11441:
	.cfi_startproc
	movq	8(%rsi), %rdx
	movq	(%rsi), %rcx
	movdqu	(%rdx), %xmm0
	movq	16(%rcx), %rax
	movups	%xmm0, 16(%rax)
	movdqu	16(%rdx), %xmm0
	movups	%xmm0, 32(%rax)
	movq	32(%rdx), %rdx
	movb	$1, 56(%rax)
	movq	%rdx, 48(%rax)
	movq	$0, 16(%rcx)
	movq	%rax, (%rdi)
	movq	%rdi, %rax
	ret
	.cfi_endproc
.LFE11441:
	.size	_ZNSt17_Function_handlerIFSt10unique_ptrINSt13__future_base12_Result_baseENS2_8_DeleterEEvENS1_13_State_baseV27_SetterIN8opendnp315StackStatisticsEOS9_EEE9_M_invokeERKSt9_Any_data, .-_ZNSt17_Function_handlerIFSt10unique_ptrINSt13__future_base12_Result_baseENS2_8_DeleterEEvENS1_13_State_baseV27_SetterIN8opendnp315StackStatisticsEOS9_EEE9_M_invokeERKSt9_Any_data
	.section	.text._ZNSt17_Function_handlerIFSt10unique_ptrINSt13__future_base12_Result_baseENS2_8_DeleterEEvENS1_13_State_baseV27_SetterISt10shared_ptrIN8opendnp311IMasterTaskEEOSB_EEE9_M_invokeERKSt9_Any_data,"axG",@progbits,_ZNSt17_Function_handlerIFSt10unique_ptrINSt13__future_base12_Result_baseENS2_8_DeleterEEvENS1_13_State_baseV27_SetterISt10shared_ptrIN8opendnp311IMasterTaskEEOSB_EEE9_M_invokeERKSt9_Any_data,comdat
	.p2align 4
	.weak	_ZNSt17_Function_handlerIFSt10unique_ptrINSt13__future_base12_Result_baseENS2_8_DeleterEEvENS1_13_State_baseV27_SetterISt10shared_ptrIN8opendnp311IMasterTaskEEOSB_EEE9_M_invokeERKSt9_Any_data
	.type	_ZNSt17_Function_handlerIFSt10unique_ptrINSt13__future_base12_Result_baseENS2_8_DeleterEEvENS1_13_State_baseV27_SetterISt10shared_ptrIN8opendnp311IMasterTaskEEOSB_EEE9_M_invokeERKSt9_Any_data, @function
_ZNSt17_Function_handlerIFSt10unique_ptrINSt13__future_base12_Result_baseENS2_8_DeleterEEvENS1_13_State_baseV27_SetterISt10shared_ptrIN8opendnp311IMasterTaskEEOSB_EEE9_M_invokeERKSt9_Any_data:
.LFB11488:
	.cfi_startproc
	movq	(%rsi), %rcx
	movq	8(%rsi), %rdx
	pxor	%xmm0, %xmm0
	movq	16(%rcx), %rax
	movq	(%rdx), %rsi
	movq	$0, 24(%rax)
	movq	%rsi, 16(%rax)
	movq	8(%rdx), %rsi
	movups	%xmm0, (%rdx)
	movq	%rsi, 24(%rax)
	movb	$1, 32(%rax)
	movq	$0, 16(%rcx)
	movq	%rax, (%rdi)
	movq	%rdi, %rax
	ret
	.cfi_endproc
.LFE11488:
	.size	_ZNSt17_Function_handlerIFSt10unique_ptrINSt13__future_base12_Result_baseENS2_8_DeleterEEvENS1_13_State_baseV27_SetterISt10shared_ptrIN8opendnp311IMasterTaskEEOSB_EEE9_M_invokeERKSt9_Any_data, .-_ZNSt17_Function_handlerIFSt10unique_ptrINSt13__future_base12_Result_baseENS2_8_DeleterEEvENS1_13_State_baseV27_SetterISt10shared_ptrIN8opendnp311IMasterTaskEEOSB_EEE9_M_invokeERKSt9_Any_data
	.section	.text._ZNSt13__future_base13_State_baseV2D2Ev,"axG",@progbits,_ZNSt13__future_base13_State_baseV2D5Ev,comdat
	.align 2
	.p2align 4
	.weak	_ZNSt13__future_base13_State_baseV2D2Ev
	.type	_ZNSt13__future_base13_State_baseV2D2Ev, @function
_ZNSt13__future_base13_State_baseV2D2Ev:
.LFB12430:
	.cfi_startproc
	.cfi_personality 0x9b,DW.ref.__gxx_personality_v0
	.cfi_lsda 0x1b,.LLSDA12430
	movq	_ZTVNSt13__future_base13_State_baseV2E@GOTPCREL(%rip), %rax
	addq	$16, %rax
	movq	%rax, (%rdi)
	movq	8(%rdi), %rdi
	testq	%rdi, %rdi
	je	.L24
	subq	$8, %rsp
	.cfi_def_cfa_offset 16
	movq	(%rdi), %rax
	call	*(%rax)
	addq	$8, %rsp
	.cfi_def_cfa_offset 8
	ret
	.p2align 4,,10
	.p2align 3
.L24:
	ret
	.cfi_endproc
.LFE12430:
	.section	.gcc_except_table._ZNSt13__future_base13_State_baseV2D2Ev,"aG",@progbits,_ZNSt13__future_base13_State_baseV2D5Ev,comdat
.LLSDA12430:
	.byte	0xff
	.byte	0xff
	.byte	0x1
	.uleb128 .LLSDACSE12430-.LLSDACSB12430
.LLSDACSB12430:
.LLSDACSE12430:
	.section	.text._ZNSt13__future_base13_State_baseV2D2Ev,"axG",@progbits,_ZNSt13__future_base13_State_baseV2D5Ev,comdat
	.size	_ZNSt13__future_base13_State_baseV2D2Ev, .-_ZNSt13__future_base13_State_baseV2D2Ev
	.weak	_ZNSt13__future_base13_State_baseV2D1Ev
	.set	_ZNSt13__future_base13_State_baseV2D1Ev,_ZNSt13__future_base13_State_baseV2D2Ev
	.section	.text._ZN4asio6detail7tss_ptrINS0_10call_stackINS0_14strand_service11strand_implEhE7contextEED2Ev,"axG",@progbits,_ZN4asio6detail7tss_ptrINS0_10call_stackINS0_14strand_service11strand_implEhE7contextEED5Ev,comdat
	.align 2
	.p2align 4
	.weak	_ZN4asio6detail7tss_ptrINS0_10call_stackINS0_14strand_service11strand_implEhE7contextEED2Ev
	.type	_ZN4asio6detail7tss_ptrINS0_10call_stackINS0_14strand_service11strand_implEhE7contextEED2Ev, @function
_ZN4asio6detail7tss_ptrINS0_10call_stackINS0_14strand_service11strand_implEhE7contextEED2Ev:
.LFB12464:
	.cfi_startproc
	ret
	.cfi_endproc
.LFE12464:
	.size	_ZN4asio6detail7tss_ptrINS0_10call_stackINS0_14strand_service11strand_implEhE7contextEED2Ev, .-_ZN4asio6detail7tss_ptrINS0_10call_stackINS0_14strand_service11strand_implEhE7contextEED2Ev
	.weak	_ZN4asio6detail7tss_ptrINS0_10call_stackINS0_14strand_service11strand_implEhE7contextEED1Ev
	.set	_ZN4asio6detail7tss_ptrINS0_10call_stackINS0_14strand_service11strand_implEhE7contextEED1Ev,_ZN4asio6detail7tss_ptrINS0_10call_stackINS0_14strand_service11strand_implEhE7contextEED2Ev
	.section	.text._ZNSt23_Sp_counted_ptr_inplaceIN8opendnp310CommandSetESaIvELN9__gnu_cxx12_Lock_policyE2EED2Ev,"axG",@progbits,_ZNSt23_Sp_counted_ptr_inplaceIN8opendnp310CommandSetESaIvELN9__gnu_cxx12_Lock_policyE2EED5Ev,comdat
	.align 2
	.p2align 4
	.weak	_ZNSt23_Sp_counted_ptr_inplaceIN8opendnp310CommandSetESaIvELN9__gnu_cxx12_Lock_policyE2EED2Ev
	.type	_ZNSt23_Sp_counted_ptr_inplaceIN8opendnp310CommandSetESaIvELN9__gnu_cxx12_Lock_policyE2EED2Ev, @function
_ZNSt23_Sp_counted_ptr_inplaceIN8opendnp310CommandSetESaIvELN9__gnu_cxx12_Lock_policyE2EED2Ev:
.LFB12470:
	.cfi_startproc
	ret
	.cfi_endproc
.LFE12470:
	.size	_ZNSt23_Sp_counted_ptr_inplaceIN8opendnp310CommandSetESaIvELN9__gnu_cxx12_Lock_policyE2EED2Ev, .-_ZNSt23_Sp_counted_ptr_inplaceIN8opendnp310CommandSetESaIvELN9__gnu_cxx12_Lock_policyE2EED2Ev
	.weak	_ZNSt23_Sp_counted_ptr_inplaceIN8opendnp310CommandSetESaIvELN9__gnu_cxx12_Lock_policyE2EED1Ev
	.set	_ZNSt23_Sp_counted_ptr_inplaceIN8opendnp310CommandSetESaIvELN9__gnu_cxx12_Lock_policyE2EED1Ev,_ZNSt23_Sp_counted_ptr_inplaceIN8opendnp310CommandSetESaIvELN9__gnu_cxx12_Lock_policyE2EED2Ev
	.section	.text._ZNSt23_Sp_counted_ptr_inplaceIN8asiodnp310MasterScanESaIvELN9__gnu_cxx12_Lock_policyE2EED2Ev,"axG",@progbits,_ZNSt23_Sp_counted_ptr_inplaceIN8asiodnp310MasterScanESaIvELN9__gnu_cxx12_Lock_policyE2EED5Ev,comdat
	.align 2
	.p2align 4
	.weak	_ZNSt23_Sp_counted_ptr_inplaceIN8asiodnp310MasterScanESaIvELN9__gnu_cxx12_Lock_policyE2EED2Ev
	.type	_ZNSt23_Sp_counted_ptr_inplaceIN8asiodnp310MasterScanESaIvELN9__gnu_cxx12_Lock_policyE2EED2Ev, @function
_ZNSt23_Sp_counted_ptr_inplaceIN8asiodnp310MasterScanESaIvELN9__gnu_cxx12_Lock_policyE2EED2Ev:
.LFB12484:
	.cfi_startproc
	ret
	.cfi_endproc
.LFE12484:
	.size	_ZNSt23_Sp_counted_ptr_inplaceIN8asiodnp310MasterScanESaIvELN9__gnu_cxx12_Lock_policyE2EED2Ev, .-_ZNSt23_Sp_counted_ptr_inplaceIN8asiodnp310MasterScanESaIvELN9__gnu_cxx12_Lock_policyE2EED2Ev
	.weak	_ZNSt23_Sp_counted_ptr_inplaceIN8asiodnp310MasterScanESaIvELN9__gnu_cxx12_Lock_policyE2EED1Ev
	.set	_ZNSt23_Sp_counted_ptr_inplaceIN8asiodnp310MasterScanESaIvELN9__gnu_cxx12_Lock_policyE2EED1Ev,_ZNSt23_Sp_counted_ptr_inplaceIN8asiodnp310MasterScanESaIvELN9__gnu_cxx12_Lock_policyE2EED2Ev
	.section	.text._ZNSt23_Sp_counted_ptr_inplaceINSt13__future_base13_State_baseV2ESaIvELN9__gnu_cxx12_Lock_policyE2EED2Ev,"axG",@progbits,_ZNSt23_Sp_counted_ptr_inplaceINSt13__future_base13_State_baseV2ESaIvELN9__gnu_cxx12_Lock_policyE2EED5Ev,comdat
	.align 2
	.p2align 4
	.weak	_ZNSt23_Sp_counted_ptr_inplaceINSt13__future_base13_State_baseV2ESaIvELN9__gnu_cxx12_Lock_policyE2EED2Ev
	.type	_ZNSt23_Sp_counted_ptr_inplaceINSt13__future_base13_State_baseV2ESaIvELN9__gnu_cxx12_Lock_policyE2EED2Ev, @function
_ZNSt23_Sp_counted_ptr_inplaceINSt13__future_base13_State_baseV2ESaIvELN9__gnu_cxx12_Lock_policyE2EED2Ev:
.LFB12505:
	.cfi_startproc
	ret
	.cfi_endproc
.LFE12505:
	.size	_ZNSt23_Sp_counted_ptr_inplaceINSt13__future_base13_State_baseV2ESaIvELN9__gnu_cxx12_Lock_policyE2EED2Ev, .-_ZNSt23_Sp_counted_ptr_inplaceINSt13__future_base13_State_baseV2ESaIvELN9__gnu_cxx12_Lock_policyE2EED2Ev
	.weak	_ZNSt23_Sp_counted_ptr_inplaceINSt13__future_base13_State_baseV2ESaIvELN9__gnu_cxx12_Lock_policyE2EED1Ev
	.set	_ZNSt23_Sp_counted_ptr_inplaceINSt13__future_base13_State_baseV2ESaIvELN9__gnu_cxx12_Lock_policyE2EED1Ev,_ZNSt23_Sp_counted_ptr_inplaceINSt13__future_base13_State_baseV2ESaIvELN9__gnu_cxx12_Lock_policyE2EED2Ev
	.section	.text._ZNSt23_Sp_counted_ptr_inplaceINSt13__future_base13_State_baseV2ESaIvELN9__gnu_cxx12_Lock_policyE2EE10_M_disposeEv,"axG",@progbits,_ZNSt23_Sp_counted_ptr_inplaceINSt13__future_base13_State_baseV2ESaIvELN9__gnu_cxx12_Lock_policyE2EE10_M_disposeEv,comdat
	.align 2
	.p2align 4
	.weak	_ZNSt23_Sp_counted_ptr_inplaceINSt13__future_base13_State_baseV2ESaIvELN9__gnu_cxx12_Lock_policyE2EE10_M_disposeEv
	.type	_ZNSt23_Sp_counted_ptr_inplaceINSt13__future_base13_State_baseV2ESaIvELN9__gnu_cxx12_Lock_policyE2EE10_M_disposeEv, @function
_ZNSt23_Sp_counted_ptr_inplaceINSt13__future_base13_State_baseV2ESaIvELN9__gnu_cxx12_Lock_policyE2EE10_M_disposeEv:
.LFB12508:
	.cfi_startproc
	movq	16(%rdi), %rax
	addq	$16, %rdi
	movq	(%rax), %rax
	jmp	*%rax
	.cfi_endproc
.LFE12508:
	.size	_ZNSt23_Sp_counted_ptr_inplaceINSt13__future_base13_State_baseV2ESaIvELN9__gnu_cxx12_Lock_policyE2EE10_M_disposeEv, .-_ZNSt23_Sp_counted_ptr_inplaceINSt13__future_base13_State_baseV2ESaIvELN9__gnu_cxx12_Lock_policyE2EE10_M_disposeEv
	.section	.text._ZNSt23_Sp_counted_ptr_inplaceIN8opendnp310CommandSetESaIvELN9__gnu_cxx12_Lock_policyE2EE10_M_disposeEv,"axG",@progbits,_ZNSt23_Sp_counted_ptr_inplaceIN8opendnp310CommandSetESaIvELN9__gnu_cxx12_Lock_policyE2EE10_M_disposeEv,comdat
	.align 2
	.p2align 4
	.weak	_ZNSt23_Sp_counted_ptr_inplaceIN8opendnp310CommandSetESaIvELN9__gnu_cxx12_Lock_policyE2EE10_M_disposeEv
	.type	_ZNSt23_Sp_counted_ptr_inplaceIN8opendnp310CommandSetESaIvELN9__gnu_cxx12_Lock_policyE2EE10_M_disposeEv, @function
_ZNSt23_Sp_counted_ptr_inplaceIN8opendnp310CommandSetESaIvELN9__gnu_cxx12_Lock_policyE2EE10_M_disposeEv:
.LFB12473:
	.cfi_startproc
	addq	$16, %rdi
	jmp	_ZN8opendnp310CommandSetD1Ev@PLT
	.cfi_endproc
.LFE12473:
	.size	_ZNSt23_Sp_counted_ptr_inplaceIN8opendnp310CommandSetESaIvELN9__gnu_cxx12_Lock_policyE2EE10_M_disposeEv, .-_ZNSt23_Sp_counted_ptr_inplaceIN8opendnp310CommandSetESaIvELN9__gnu_cxx12_Lock_policyE2EE10_M_disposeEv
	.section	.text._ZNSt23_Sp_counted_ptr_inplaceIN8opendnp310CommandSetESaIvELN9__gnu_cxx12_Lock_policyE2EED0Ev,"axG",@progbits,_ZNSt23_Sp_counted_ptr_inplaceIN8opendnp310CommandSetESaIvELN9__gnu_cxx12_Lock_policyE2EED5Ev,comdat
	.align 2
	.p2align 4
	.weak	_ZNSt23_Sp_counted_ptr_inplaceIN8opendnp310CommandSetESaIvELN9__gnu_cxx12_Lock_policyE2EED0Ev
	.type	_ZNSt23_Sp_counted_ptr_inplaceIN8opendnp310CommandSetESaIvELN9__gnu_cxx12_Lock_policyE2EED0Ev, @function
_ZNSt23_Sp_counted_ptr_inplaceIN8opendnp310CommandSetESaIvELN9__gnu_cxx12_Lock_policyE2EED0Ev:
.LFB12472:
	.cfi_startproc
	movl	$40, %esi
	jmp	_ZdlPvm@PLT
	.cfi_endproc
.LFE12472:
	.size	_ZNSt23_Sp_counted_ptr_inplaceIN8opendnp310CommandSetESaIvELN9__gnu_cxx12_Lock_policyE2EED0Ev, .-_ZNSt23_Sp_counted_ptr_inplaceIN8opendnp310CommandSetESaIvELN9__gnu_cxx12_Lock_policyE2EED0Ev
	.section	.text._ZNSt23_Sp_counted_ptr_inplaceIN8asiodnp310MasterScanESaIvELN9__gnu_cxx12_Lock_policyE2EED0Ev,"axG",@progbits,_ZNSt23_Sp_counted_ptr_inplaceIN8asiodnp310MasterScanESaIvELN9__gnu_cxx12_Lock_policyE2EED5Ev,comdat
	.align 2
	.p2align 4
	.weak	_ZNSt23_Sp_counted_ptr_inplaceIN8asiodnp310MasterScanESaIvELN9__gnu_cxx12_Lock_policyE2EED0Ev
	.type	_ZNSt23_Sp_counted_ptr_inplaceIN8asiodnp310MasterScanESaIvELN9__gnu_cxx12_Lock_policyE2EED0Ev, @function
_ZNSt23_Sp_counted_ptr_inplaceIN8asiodnp310MasterScanESaIvELN9__gnu_cxx12_Lock_policyE2EED0Ev:
.LFB12486:
	.cfi_startproc
	movl	$56, %esi
	jmp	_ZdlPvm@PLT
	.cfi_endproc
.LFE12486:
	.size	_ZNSt23_Sp_counted_ptr_inplaceIN8asiodnp310MasterScanESaIvELN9__gnu_cxx12_Lock_policyE2EED0Ev, .-_ZNSt23_Sp_counted_ptr_inplaceIN8asiodnp310MasterScanESaIvELN9__gnu_cxx12_Lock_policyE2EED0Ev
	.section	.text._ZNSt23_Sp_counted_ptr_inplaceINSt13__future_base13_State_baseV2ESaIvELN9__gnu_cxx12_Lock_policyE2EED0Ev,"axG",@progbits,_ZNSt23_Sp_counted_ptr_inplaceINSt13__future_base13_State_baseV2ESaIvELN9__gnu_cxx12_Lock_policyE2EED5Ev,comdat
	.align 2
	.p2align 4
	.weak	_ZNSt23_Sp_counted_ptr_inplaceINSt13__future_base13_State_baseV2ESaIvELN9__gnu_cxx12_Lock_policyE2EED0Ev
	.type	_ZNSt23_Sp_counted_ptr_inplaceINSt13__future_base13_State_baseV2ESaIvELN9__gnu_cxx12_Lock_policyE2EED0Ev, @function
_ZNSt23_Sp_counted_ptr_inplaceINSt13__future_base13_State_baseV2ESaIvELN9__gnu_cxx12_Lock_policyE2EED0Ev:
.LFB12507:
	.cfi_startproc
	movl	$48, %esi
	jmp	_ZdlPvm@PLT
	.cfi_endproc
.LFE12507:
	.size	_ZNSt23_Sp_counted_ptr_inplaceINSt13__future_base13_State_baseV2ESaIvELN9__gnu_cxx12_Lock_policyE2EED0Ev, .-_ZNSt23_Sp_counted_ptr_inplaceINSt13__future_base13_State_baseV2ESaIvELN9__gnu_cxx12_Lock_policyE2EED0Ev
	.section	.text._ZNSt13__future_base13_State_baseV2D0Ev,"axG",@progbits,_ZNSt13__future_base13_State_baseV2D5Ev,comdat
	.align 2
	.p2align 4
	.weak	_ZNSt13__future_base13_State_baseV2D0Ev
	.type	_ZNSt13__future_base13_State_baseV2D0Ev, @function
_ZNSt13__future_base13_State_baseV2D0Ev:
.LFB12432:
	.cfi_startproc
	.cfi_personality 0x9b,DW.ref.__gxx_personality_v0
	.cfi_lsda 0x1b,.LLSDA12432
	movq	_ZTVNSt13__future_base13_State_baseV2E@GOTPCREL(%rip), %rax
	pushq	%rbx
	.cfi_def_cfa_offset 16
	.cfi_offset 3, -16
	movq	%rdi, %rbx
	addq	$16, %rax
	movq	%rax, (%rdi)
	movq	8(%rdi), %rdi
	testq	%rdi, %rdi
	je	.L37
	movq	(%rdi), %rax
	call	*(%rax)
.L37:
	movq	%rbx, %rdi
	movl	$32, %esi
	popq	%rbx
	.cfi_def_cfa_offset 8
.LEHB0:
	jmp	_ZdlPvm@PLT
.LEHE0:
	.cfi_endproc
.LFE12432:
	.section	.gcc_except_table._ZNSt13__future_base13_State_baseV2D0Ev,"aG",@progbits,_ZNSt13__future_base13_State_baseV2D5Ev,comdat
.LLSDA12432:
	.byte	0xff
	.byte	0xff
	.byte	0x1
	.uleb128 .LLSDACSE12432-.LLSDACSB12432
.LLSDACSB12432:
	.uleb128 .LEHB0-.LFB12432
	.uleb128 .LEHE0-.LEHB0
	.uleb128 0
	.uleb128 0
.LLSDACSE12432:
	.section	.text._ZNSt13__future_base13_State_baseV2D0Ev,"axG",@progbits,_ZNSt13__future_base13_State_baseV2D5Ev,comdat
	.size	_ZNSt13__future_base13_State_baseV2D0Ev, .-_ZNSt13__future_base13_State_baseV2D0Ev
	.section	.text._ZNSt23_Sp_counted_ptr_inplaceIN8opendnp310CommandSetESaIvELN9__gnu_cxx12_Lock_policyE2EE10_M_destroyEv,"axG",@progbits,_ZNSt23_Sp_counted_ptr_inplaceIN8opendnp310CommandSetESaIvELN9__gnu_cxx12_Lock_policyE2EE10_M_destroyEv,comdat
	.align 2
	.p2align 4
	.weak	_ZNSt23_Sp_counted_ptr_inplaceIN8opendnp310CommandSetESaIvELN9__gnu_cxx12_Lock_policyE2EE10_M_destroyEv
	.type	_ZNSt23_Sp_counted_ptr_inplaceIN8opendnp310CommandSetESaIvELN9__gnu_cxx12_Lock_policyE2EE10_M_destroyEv, @function
_ZNSt23_Sp_counted_ptr_inplaceIN8opendnp310CommandSetESaIvELN9__gnu_cxx12_Lock_policyE2EE10_M_destroyEv:
.LFB12474:
	.cfi_startproc
	movl	$40, %esi
	jmp	_ZdlPvm@PLT
	.cfi_endproc
.LFE12474:
	.size	_ZNSt23_Sp_counted_ptr_inplaceIN8opendnp310CommandSetESaIvELN9__gnu_cxx12_Lock_policyE2EE10_M_destroyEv, .-_ZNSt23_Sp_counted_ptr_inplaceIN8opendnp310CommandSetESaIvELN9__gnu_cxx12_Lock_policyE2EE10_M_destroyEv
	.section	.text._ZNSt23_Sp_counted_ptr_inplaceIN8asiodnp310MasterScanESaIvELN9__gnu_cxx12_Lock_policyE2EE10_M_destroyEv,"axG",@progbits,_ZNSt23_Sp_counted_ptr_inplaceIN8asiodnp310MasterScanESaIvELN9__gnu_cxx12_Lock_policyE2EE10_M_destroyEv,comdat
	.align 2
	.p2align 4
	.weak	_ZNSt23_Sp_counted_ptr_inplaceIN8asiodnp310MasterScanESaIvELN9__gnu_cxx12_Lock_policyE2EE10_M_destroyEv
	.type	_ZNSt23_Sp_counted_ptr_inplaceIN8asiodnp310MasterScanESaIvELN9__gnu_cxx12_Lock_policyE2EE10_M_destroyEv, @function
_ZNSt23_Sp_counted_ptr_inplaceIN8asiodnp310MasterScanESaIvELN9__gnu_cxx12_Lock_policyE2EE10_M_destroyEv:
.LFB12488:
	.cfi_startproc
	movl	$56, %esi
	jmp	_ZdlPvm@PLT
	.cfi_endproc
.LFE12488:
	.size	_ZNSt23_Sp_counted_ptr_inplaceIN8asiodnp310MasterScanESaIvELN9__gnu_cxx12_Lock_policyE2EE10_M_destroyEv, .-_ZNSt23_Sp_counted_ptr_inplaceIN8asiodnp310MasterScanESaIvELN9__gnu_cxx12_Lock_policyE2EE10_M_destroyEv
	.section	.text._ZNSt23_Sp_counted_ptr_inplaceINSt13__future_base13_State_baseV2ESaIvELN9__gnu_cxx12_Lock_policyE2EE10_M_destroyEv,"axG",@progbits,_ZNSt23_Sp_counted_ptr_inplaceINSt13__future_base13_State_baseV2ESaIvELN9__gnu_cxx12_Lock_policyE2EE10_M_destroyEv,comdat
	.align 2
	.p2align 4
	.weak	_ZNSt23_Sp_counted_ptr_inplaceINSt13__future_base13_State_baseV2ESaIvELN9__gnu_cxx12_Lock_policyE2EE10_M_destroyEv
	.type	_ZNSt23_Sp_counted_ptr_inplaceINSt13__future_base13_State_baseV2ESaIvELN9__gnu_cxx12_Lock_policyE2EE10_M_destroyEv, @function
_ZNSt23_Sp_counted_ptr_inplaceINSt13__future_base13_State_baseV2ESaIvELN9__gnu_cxx12_Lock_policyE2EE10_M_destroyEv:
.LFB12509:
	.cfi_startproc
	movl	$48, %esi
	jmp	_ZdlPvm@PLT
	.cfi_endproc
.LFE12509:
	.size	_ZNSt23_Sp_counted_ptr_inplaceINSt13__future_base13_State_baseV2ESaIvELN9__gnu_cxx12_Lock_policyE2EE10_M_destroyEv, .-_ZNSt23_Sp_counted_ptr_inplaceINSt13__future_base13_State_baseV2ESaIvELN9__gnu_cxx12_Lock_policyE2EE10_M_destroyEv
	.section	.text._ZNSt13__future_base7_ResultIbED2Ev,"axG",@progbits,_ZNSt13__future_base7_ResultIbED5Ev,comdat
	.align 2
	.p2align 4
	.weak	_ZNSt13__future_base7_ResultIbED2Ev
	.type	_ZNSt13__future_base7_ResultIbED2Ev, @function
_ZNSt13__future_base7_ResultIbED2Ev:
.LFB12537:
	.cfi_startproc
	movq	_ZTVNSt13__future_base7_ResultIbEE@GOTPCREL(%rip), %rax
	addq	$16, %rax
	movq	%rax, (%rdi)
	jmp	_ZNSt13__future_base12_Result_baseD2Ev@PLT
	.cfi_endproc
.LFE12537:
	.size	_ZNSt13__future_base7_ResultIbED2Ev, .-_ZNSt13__future_base7_ResultIbED2Ev
	.weak	_ZNSt13__future_base7_ResultIbED1Ev
	.set	_ZNSt13__future_base7_ResultIbED1Ev,_ZNSt13__future_base7_ResultIbED2Ev
	.section	.text._ZNSt13__future_base7_ResultIbED0Ev,"axG",@progbits,_ZNSt13__future_base7_ResultIbED5Ev,comdat
	.align 2
	.p2align 4
	.weak	_ZNSt13__future_base7_ResultIbED0Ev
	.type	_ZNSt13__future_base7_ResultIbED0Ev, @function
_ZNSt13__future_base7_ResultIbED0Ev:
.LFB12539:
	.cfi_startproc
	subq	$24, %rsp
	.cfi_def_cfa_offset 32
	movq	_ZTVNSt13__future_base7_ResultIbEE@GOTPCREL(%rip), %rax
	movq	%rdi, 8(%rsp)
	addq	$16, %rax
	movq	%rax, (%rdi)
	call	_ZNSt13__future_base12_Result_baseD2Ev@PLT
	movq	8(%rsp), %rdi
	movl	$24, %esi
	addq	$24, %rsp
	.cfi_def_cfa_offset 8
	jmp	_ZdlPvm@PLT
	.cfi_endproc
.LFE12539:
	.size	_ZNSt13__future_base7_ResultIbED0Ev, .-_ZNSt13__future_base7_ResultIbED0Ev
	.section	.text._ZNSt13__future_base7_ResultIN8opendnp315StackStatisticsEED2Ev,"axG",@progbits,_ZNSt13__future_base7_ResultIN8opendnp315StackStatisticsEED5Ev,comdat
	.align 2
	.p2align 4
	.weak	_ZNSt13__future_base7_ResultIN8opendnp315StackStatisticsEED2Ev
	.type	_ZNSt13__future_base7_ResultIN8opendnp315StackStatisticsEED2Ev, @function
_ZNSt13__future_base7_ResultIN8opendnp315StackStatisticsEED2Ev:
.LFB12532:
	.cfi_startproc
	movq	_ZTVNSt13__future_base7_ResultIN8opendnp315StackStatisticsEEE@GOTPCREL(%rip), %rax
	addq	$16, %rax
	movq	%rax, (%rdi)
	jmp	_ZNSt13__future_base12_Result_baseD2Ev@PLT
	.cfi_endproc
.LFE12532:
	.size	_ZNSt13__future_base7_ResultIN8opendnp315StackStatisticsEED2Ev, .-_ZNSt13__future_base7_ResultIN8opendnp315StackStatisticsEED2Ev
	.weak	_ZNSt13__future_base7_ResultIN8opendnp315StackStatisticsEED1Ev
	.set	_ZNSt13__future_base7_ResultIN8opendnp315StackStatisticsEED1Ev,_ZNSt13__future_base7_ResultIN8opendnp315StackStatisticsEED2Ev
	.section	.text._ZNSt13__future_base7_ResultIN8opendnp315StackStatisticsEED0Ev,"axG",@progbits,_ZNSt13__future_base7_ResultIN8opendnp315StackStatisticsEED5Ev,comdat
	.align 2
	.p2align 4
	.weak	_ZNSt13__future_base7_ResultIN8opendnp315StackStatisticsEED0Ev
	.type	_ZNSt13__future_base7_ResultIN8opendnp315StackStatisticsEED0Ev, @function
_ZNSt13__future_base7_ResultIN8opendnp315StackStatisticsEED0Ev:
.LFB12534:
	.cfi_startproc
	subq	$24, %rsp
	.cfi_def_cfa_offset 32
	movq	_ZTVNSt13__future_base7_ResultIN8opendnp315StackStatisticsEEE@GOTPCREL(%rip), %rax
	movq	%rdi, 8(%rsp)
	addq	$16, %rax
	movq	%rax, (%rdi)
	call	_ZNSt13__future_base12_Result_baseD2Ev@PLT
	movq	8(%rsp), %rdi
	movl	$64, %esi
	addq	$24, %rsp
	.cfi_def_cfa_offset 8
	jmp	_ZdlPvm@PLT
	.cfi_endproc
.LFE12534:
	.size	_ZNSt13__future_base7_ResultIN8opendnp315StackStatisticsEED0Ev, .-_ZNSt13__future_base7_ResultIN8opendnp315StackStatisticsEED0Ev
	.section	.text._ZNSt13__future_base13_State_baseV29_M_do_setEPSt8functionIFSt10unique_ptrINS_12_Result_baseENS3_8_DeleterEEvEEPb,"axG",@progbits,_ZNSt13__future_base13_State_baseV29_M_do_setEPSt8functionIFSt10unique_ptrINS_12_Result_baseENS3_8_DeleterEEvEEPb,comdat
	.align 2
	.p2align 4
	.weak	_ZNSt13__future_base13_State_baseV29_M_do_setEPSt8functionIFSt10unique_ptrINS_12_Result_baseENS3_8_DeleterEEvEEPb
	.type	_ZNSt13__future_base13_State_baseV29_M_do_setEPSt8functionIFSt10unique_ptrINS_12_Result_baseENS3_8_DeleterEEvEEPb, @function
_ZNSt13__future_base13_State_baseV29_M_do_setEPSt8functionIFSt10unique_ptrINS_12_Result_baseENS3_8_DeleterEEvEEPb:
.LFB6878:
	.cfi_startproc
	.cfi_personality 0x9b,DW.ref.__gxx_personality_v0
	.cfi_lsda 0x1b,.LLSDA6878
	pushq	%rbp
	.cfi_def_cfa_offset 16
	.cfi_offset 6, -16
	pushq	%rbx
	.cfi_def_cfa_offset 24
	.cfi_offset 3, -24
	subq	$24, %rsp
	.cfi_def_cfa_offset 48
	cmpq	$0, 16(%rsi)
	je	.L58
	movq	%rdi, %rbx
	movq	%rdx, %rbp
	leaq	8(%rsp), %rdi
.LEHB1:
	call	*24(%rsi)
.LEHE1:
	movq	8(%rbx), %rdi
	movq	8(%rsp), %rax
	movb	$1, 0(%rbp)
	movq	%rdi, 8(%rsp)
	movq	%rax, 8(%rbx)
	testq	%rdi, %rdi
	je	.L51
	movq	(%rdi), %rax
	call	*(%rax)
.L51:
	addq	$24, %rsp
	.cfi_remember_state
	.cfi_def_cfa_offset 24
	popq	%rbx
	.cfi_def_cfa_offset 16
	popq	%rbp
	.cfi_def_cfa_offset 8
	ret
.L58:
	.cfi_restore_state
.LEHB2:
	call	_ZSt25__throw_bad_function_callv@PLT
.LEHE2:
	.cfi_endproc
.LFE6878:
	.section	.gcc_except_table._ZNSt13__future_base13_State_baseV29_M_do_setEPSt8functionIFSt10unique_ptrINS_12_Result_baseENS3_8_DeleterEEvEEPb,"aG",@progbits,_ZNSt13__future_base13_State_baseV29_M_do_setEPSt8functionIFSt10unique_ptrINS_12_Result_baseENS3_8_DeleterEEvEEPb,comdat
.LLSDA6878:
	.byte	0xff
	.byte	0xff
	.byte	0x1
	.uleb128 .LLSDACSE6878-.LLSDACSB6878
.LLSDACSB6878:
	.uleb128 .LEHB1-.LFB6878
	.uleb128 .LEHE1-.LEHB1
	.uleb128 0
	.uleb128 0
	.uleb128 .LEHB2-.LFB6878
	.uleb128 .LEHE2-.LEHB2
	.uleb128 0
	.uleb128 0
.LLSDACSE6878:
	.section	.text._ZNSt13__future_base13_State_baseV29_M_do_setEPSt8functionIFSt10unique_ptrINS_12_Result_baseENS3_8_DeleterEEvEEPb,"axG",@progbits,_ZNSt13__future_base13_State_baseV29_M_do_setEPSt8functionIFSt10unique_ptrINS_12_Result_baseENS3_8_DeleterEEvEEPb,comdat
	.size	_ZNSt13__future_base13_State_baseV29_M_do_setEPSt8functionIFSt10unique_ptrINS_12_Result_baseENS3_8_DeleterEEvEEPb, .-_ZNSt13__future_base13_State_baseV29_M_do_setEPSt8functionIFSt10unique_ptrINS_12_Result_baseENS3_8_DeleterEEvEEPb
	.text
	.p2align 4
	.type	_ZNSt17_Function_handlerIFN8opendnp315StackStatisticsEvEZN8asiodnp311MasterStack18GetStackStatisticsEvEUlvE_E9_M_invokeERKSt9_Any_data, @function
_ZNSt17_Function_handlerIFN8opendnp315StackStatisticsEvEZN8asiodnp311MasterStack18GetStackStatisticsEvEUlvE_E9_M_invokeERKSt9_Any_data:
.LFB10349:
	.cfi_startproc
	pushq	%rbp
	.cfi_def_cfa_offset 16
	.cfi_offset 6, -16
	pushq	%rbx
	.cfi_def_cfa_offset 24
	.cfi_offset 3, -24
	movq	%rdi, %rbx
	subq	$40, %rsp
	.cfi_def_cfa_offset 64
	movq	(%rsi), %rax
	movq	%rsp, %rdi
	movq	(%rax), %rbp
	movq	136(%rbp), %rsi
	call	_ZNK8opendnp314TransportLayer13GetStatisticsEv@PLT
	movq	152(%rbp), %rdi
	call	_ZNK8opendnp39LinkLayer13GetStatisticsEv@PLT
	movdqu	(%rax), %xmm0
	movq	16(%rsp), %rax
	movups	%xmm0, (%rbx)
	movdqa	(%rsp), %xmm0
	movq	%rax, 32(%rbx)
	movq	%rbx, %rax
	movups	%xmm0, 16(%rbx)
	addq	$40, %rsp
	.cfi_def_cfa_offset 24
	popq	%rbx
	.cfi_def_cfa_offset 16
	popq	%rbp
	.cfi_def_cfa_offset 8
	ret
	.cfi_endproc
.LFE10349:
	.size	_ZNSt17_Function_handlerIFN8opendnp315StackStatisticsEvEZN8asiodnp311MasterStack18GetStackStatisticsEvEUlvE_E9_M_invokeERKSt9_Any_data, .-_ZNSt17_Function_handlerIFN8opendnp315StackStatisticsEvEZN8asiodnp311MasterStack18GetStackStatisticsEvEUlvE_E9_M_invokeERKSt9_Any_data
	.p2align 4
	.type	_ZNSt17_Function_handlerIFSt10shared_ptrIN8opendnp311IMasterTaskEEvEZN8asiodnp311MasterStack7AddScanEN7openpal12TimeDurationERKSt6vectorINS1_6HeaderESaISA_EERKNS1_10TaskConfigEEUlvE_E9_M_invokeERKSt9_Any_data, @function
_ZNSt17_Function_handlerIFSt10shared_ptrIN8opendnp311IMasterTaskEEvEZN8asiodnp311MasterStack7AddScanEN7openpal12TimeDurationERKSt6vectorINS1_6HeaderESaISA_EERKNS1_10TaskConfigEEUlvE_E9_M_invokeERKSt9_Any_data:
.LFB10393:
	.cfi_startproc
	pushq	%rbx
	.cfi_def_cfa_offset 16
	.cfi_offset 3, -16
	movq	(%rsi), %rax
	movq	%rdi, %rbx
	movq	(%rax), %rdi
	movq	48(%rax), %rdx
	leaq	16(%rax), %rcx
	movq	56(%rax), %r8
	movq	64(%rax), %r9
	leaq	168(%rdi), %rsi
	movq	%rbx, %rdi
	call	_ZN8opendnp38MContext7AddScanEN7openpal12TimeDurationERKSt8functionIFbRNS_12HeaderWriterEEENS_10TaskConfigE@PLT
	movq	%rbx, %rax
	popq	%rbx
	.cfi_def_cfa_offset 8
	ret
	.cfi_endproc
.LFE10393:
	.size	_ZNSt17_Function_handlerIFSt10shared_ptrIN8opendnp311IMasterTaskEEvEZN8asiodnp311MasterStack7AddScanEN7openpal12TimeDurationERKSt6vectorINS1_6HeaderESaISA_EERKNS1_10TaskConfigEEUlvE_E9_M_invokeERKSt9_Any_data, .-_ZNSt17_Function_handlerIFSt10shared_ptrIN8opendnp311IMasterTaskEEvEZN8asiodnp311MasterStack7AddScanEN7openpal12TimeDurationERKSt6vectorINS1_6HeaderESaISA_EERKNS1_10TaskConfigEEUlvE_E9_M_invokeERKSt9_Any_data
	.p2align 4
	.type	_ZNSt17_Function_handlerIFSt10shared_ptrIN8opendnp311IMasterTaskEEvEZN8asiodnp311MasterStack17AddAllObjectsScanENS1_16GroupVariationIDEN7openpal12TimeDurationERKNS1_10TaskConfigEEUlvE_E9_M_invokeERKSt9_Any_data, @function
_ZNSt17_Function_handlerIFSt10shared_ptrIN8opendnp311IMasterTaskEEvEZN8asiodnp311MasterStack17AddAllObjectsScanENS1_16GroupVariationIDEN7openpal12TimeDurationERKNS1_10TaskConfigEEUlvE_E9_M_invokeERKSt9_Any_data:
.LFB10425:
	.cfi_startproc
	pushq	%rbx
	.cfi_def_cfa_offset 16
	.cfi_offset 3, -16
	movq	(%rsi), %rax
	movq	%rdi, %rbx
	movq	(%rax), %rdi
	movq	24(%rax), %rcx
	movzwl	16(%rax), %edx
	movq	32(%rax), %r8
	movq	40(%rax), %r9
	leaq	168(%rdi), %rsi
	movq	%rbx, %rdi
	call	_ZN8opendnp38MContext17AddAllObjectsScanENS_16GroupVariationIDEN7openpal12TimeDurationENS_10TaskConfigE@PLT
	movq	%rbx, %rax
	popq	%rbx
	.cfi_def_cfa_offset 8
	ret
	.cfi_endproc
.LFE10425:
	.size	_ZNSt17_Function_handlerIFSt10shared_ptrIN8opendnp311IMasterTaskEEvEZN8asiodnp311MasterStack17AddAllObjectsScanENS1_16GroupVariationIDEN7openpal12TimeDurationERKNS1_10TaskConfigEEUlvE_E9_M_invokeERKSt9_Any_data, .-_ZNSt17_Function_handlerIFSt10shared_ptrIN8opendnp311IMasterTaskEEvEZN8asiodnp311MasterStack17AddAllObjectsScanENS1_16GroupVariationIDEN7openpal12TimeDurationERKNS1_10TaskConfigEEUlvE_E9_M_invokeERKSt9_Any_data
	.p2align 4
	.type	_ZNSt17_Function_handlerIFSt10shared_ptrIN8opendnp311IMasterTaskEEvEZN8asiodnp311MasterStack12AddClassScanERKNS1_10ClassFieldEN7openpal12TimeDurationERKNS1_10TaskConfigEEUlvE_E9_M_invokeERKSt9_Any_data, @function
_ZNSt17_Function_handlerIFSt10shared_ptrIN8opendnp311IMasterTaskEEvEZN8asiodnp311MasterStack12AddClassScanERKNS1_10ClassFieldEN7openpal12TimeDurationERKNS1_10TaskConfigEEUlvE_E9_M_invokeERKSt9_Any_data:
.LFB10430:
	.cfi_startproc
	pushq	%rbx
	.cfi_def_cfa_offset 16
	.cfi_offset 3, -16
	movq	(%rsi), %rax
	movq	%rdi, %rbx
	movq	(%rax), %rdi
	movq	24(%rax), %rcx
	leaq	16(%rax), %rdx
	movq	32(%rax), %r8
	movq	40(%rax), %r9
	leaq	168(%rdi), %rsi
	movq	%rbx, %rdi
	call	_ZN8opendnp38MContext12AddClassScanERKNS_10ClassFieldEN7openpal12TimeDurationENS_10TaskConfigE@PLT
	movq	%rbx, %rax
	popq	%rbx
	.cfi_def_cfa_offset 8
	ret
	.cfi_endproc
.LFE10430:
	.size	_ZNSt17_Function_handlerIFSt10shared_ptrIN8opendnp311IMasterTaskEEvEZN8asiodnp311MasterStack12AddClassScanERKNS1_10ClassFieldEN7openpal12TimeDurationERKNS1_10TaskConfigEEUlvE_E9_M_invokeERKSt9_Any_data, .-_ZNSt17_Function_handlerIFSt10shared_ptrIN8opendnp311IMasterTaskEEvEZN8asiodnp311MasterStack12AddClassScanERKNS1_10ClassFieldEN7openpal12TimeDurationERKNS1_10TaskConfigEEUlvE_E9_M_invokeERKSt9_Any_data
	.p2align 4
	.type	_ZNSt17_Function_handlerIFSt10shared_ptrIN8opendnp311IMasterTaskEEvEZN8asiodnp311MasterStack12AddRangeScanENS1_16GroupVariationIDEttN7openpal12TimeDurationERKNS1_10TaskConfigEEUlvE_E9_M_invokeERKSt9_Any_data, @function
_ZNSt17_Function_handlerIFSt10shared_ptrIN8opendnp311IMasterTaskEEvEZN8asiodnp311MasterStack12AddRangeScanENS1_16GroupVariationIDEttN7openpal12TimeDurationERKNS1_10TaskConfigEEUlvE_E9_M_invokeERKSt9_Any_data:
.LFB10435:
	.cfi_startproc
	pushq	%rbx
	.cfi_def_cfa_offset 16
	.cfi_offset 3, -16
	movq	(%rsi), %rax
	movq	%rdi, %rbx
	movzwl	16(%rax), %edx
	movq	(%rax), %rdi
	movq	24(%rax), %r9
	movzwl	20(%rax), %r8d
	movzwl	18(%rax), %ecx
	pushq	40(%rax)
	.cfi_def_cfa_offset 24
	leaq	168(%rdi), %rsi
	movq	%rbx, %rdi
	pushq	32(%rax)
	.cfi_def_cfa_offset 32
	call	_ZN8opendnp38MContext12AddRangeScanENS_16GroupVariationIDEttN7openpal12TimeDurationENS_10TaskConfigE@PLT
	popq	%rax
	.cfi_def_cfa_offset 24
	movq	%rbx, %rax
	popq	%rdx
	.cfi_def_cfa_offset 16
	popq	%rbx
	.cfi_def_cfa_offset 8
	ret
	.cfi_endproc
.LFE10435:
	.size	_ZNSt17_Function_handlerIFSt10shared_ptrIN8opendnp311IMasterTaskEEvEZN8asiodnp311MasterStack12AddRangeScanENS1_16GroupVariationIDEttN7openpal12TimeDurationERKNS1_10TaskConfigEEUlvE_E9_M_invokeERKSt9_Any_data, .-_ZNSt17_Function_handlerIFSt10shared_ptrIN8opendnp311IMasterTaskEEvEZN8asiodnp311MasterStack12AddRangeScanENS1_16GroupVariationIDEttN7openpal12TimeDurationERKNS1_10TaskConfigEEUlvE_E9_M_invokeERKSt9_Any_data
	.section	.text._ZN4asio6detail15system_categoryD2Ev,"axG",@progbits,_ZN4asio6detail15system_categoryD5Ev,comdat
	.align 2
	.p2align 4
	.weak	_ZN4asio6detail15system_categoryD2Ev
	.type	_ZN4asio6detail15system_categoryD2Ev, @function
_ZN4asio6detail15system_categoryD2Ev:
.LFB2776:
	.cfi_startproc
	movq	_ZTVN4asio6detail15system_categoryE@GOTPCREL(%rip), %rax
	addq	$16, %rax
	movq	%rax, (%rdi)
	jmp	_ZNSt3_V214error_categoryD2Ev@PLT
	.cfi_endproc
.LFE2776:
	.size	_ZN4asio6detail15system_categoryD2Ev, .-_ZN4asio6detail15system_categoryD2Ev
	.weak	_ZN4asio6detail15system_categoryD1Ev
	.set	_ZN4asio6detail15system_categoryD1Ev,_ZN4asio6detail15system_categoryD2Ev
	.section	.text._ZN4asio6detail15system_categoryD0Ev,"axG",@progbits,_ZN4asio6detail15system_categoryD5Ev,comdat
	.align 2
	.p2align 4
	.weak	_ZN4asio6detail15system_categoryD0Ev
	.type	_ZN4asio6detail15system_categoryD0Ev, @function
_ZN4asio6detail15system_categoryD0Ev:
.LFB2778:
	.cfi_startproc
	subq	$24, %rsp
	.cfi_def_cfa_offset 32
	movq	_ZTVN4asio6detail15system_categoryE@GOTPCREL(%rip), %rax
	movq	%rdi, 8(%rsp)
	addq	$16, %rax
	movq	%rax, (%rdi)
	call	_ZNSt3_V214error_categoryD2Ev@PLT
	movq	8(%rsp), %rdi
	movl	$8, %esi
	addq	$24, %rsp
	.cfi_def_cfa_offset 8
	jmp	_ZdlPvm@PLT
	.cfi_endproc
.LFE2778:
	.size	_ZN4asio6detail15system_categoryD0Ev, .-_ZN4asio6detail15system_categoryD0Ev
	.section	.text._ZN4asio5error6detail14netdb_categoryD2Ev,"axG",@progbits,_ZN4asio5error6detail14netdb_categoryD5Ev,comdat
	.align 2
	.p2align 4
	.weak	_ZN4asio5error6detail14netdb_categoryD2Ev
	.type	_ZN4asio5error6detail14netdb_categoryD2Ev, @function
_ZN4asio5error6detail14netdb_categoryD2Ev:
.LFB2815:
	.cfi_startproc
	movq	_ZTVN4asio5error6detail14netdb_categoryE@GOTPCREL(%rip), %rax
	addq	$16, %rax
	movq	%rax, (%rdi)
	jmp	_ZNSt3_V214error_categoryD2Ev@PLT
	.cfi_endproc
.LFE2815:
	.size	_ZN4asio5error6detail14netdb_categoryD2Ev, .-_ZN4asio5error6detail14netdb_categoryD2Ev
	.weak	_ZN4asio5error6detail14netdb_categoryD1Ev
	.set	_ZN4asio5error6detail14netdb_categoryD1Ev,_ZN4asio5error6detail14netdb_categoryD2Ev
	.section	.text._ZN4asio5error6detail14netdb_categoryD0Ev,"axG",@progbits,_ZN4asio5error6detail14netdb_categoryD5Ev,comdat
	.align 2
	.p2align 4
	.weak	_ZN4asio5error6detail14netdb_categoryD0Ev
	.type	_ZN4asio5error6detail14netdb_categoryD0Ev, @function
_ZN4asio5error6detail14netdb_categoryD0Ev:
.LFB2817:
	.cfi_startproc
	subq	$24, %rsp
	.cfi_def_cfa_offset 32
	movq	_ZTVN4asio5error6detail14netdb_categoryE@GOTPCREL(%rip), %rax
	movq	%rdi, 8(%rsp)
	addq	$16, %rax
	movq	%rax, (%rdi)
	call	_ZNSt3_V214error_categoryD2Ev@PLT
	movq	8(%rsp), %rdi
	movl	$8, %esi
	addq	$24, %rsp
	.cfi_def_cfa_offset 8
	jmp	_ZdlPvm@PLT
	.cfi_endproc
.LFE2817:
	.size	_ZN4asio5error6detail14netdb_categoryD0Ev, .-_ZN4asio5error6detail14netdb_categoryD0Ev
	.section	.text._ZN4asio5error6detail17addrinfo_categoryD2Ev,"axG",@progbits,_ZN4asio5error6detail17addrinfo_categoryD5Ev,comdat
	.align 2
	.p2align 4
	.weak	_ZN4asio5error6detail17addrinfo_categoryD2Ev
	.type	_ZN4asio5error6detail17addrinfo_categoryD2Ev, @function
_ZN4asio5error6detail17addrinfo_categoryD2Ev:
.LFB2825:
	.cfi_startproc
	movq	_ZTVN4asio5error6detail17addrinfo_categoryE@GOTPCREL(%rip), %rax
	addq	$16, %rax
	movq	%rax, (%rdi)
	jmp	_ZNSt3_V214error_categoryD2Ev@PLT
	.cfi_endproc
.LFE2825:
	.size	_ZN4asio5error6detail17addrinfo_categoryD2Ev, .-_ZN4asio5error6detail17addrinfo_categoryD2Ev
	.weak	_ZN4asio5error6detail17addrinfo_categoryD1Ev
	.set	_ZN4asio5error6detail17addrinfo_categoryD1Ev,_ZN4asio5error6detail17addrinfo_categoryD2Ev
	.section	.text._ZN4asio5error6detail17addrinfo_categoryD0Ev,"axG",@progbits,_ZN4asio5error6detail17addrinfo_categoryD5Ev,comdat
	.align 2
	.p2align 4
	.weak	_ZN4asio5error6detail17addrinfo_categoryD0Ev
	.type	_ZN4asio5error6detail17addrinfo_categoryD0Ev, @function
_ZN4asio5error6detail17addrinfo_categoryD0Ev:
.LFB2827:
	.cfi_startproc
	subq	$24, %rsp
	.cfi_def_cfa_offset 32
	movq	_ZTVN4asio5error6detail17addrinfo_categoryE@GOTPCREL(%rip), %rax
	movq	%rdi, 8(%rsp)
	addq	$16, %rax
	movq	%rax, (%rdi)
	call	_ZNSt3_V214error_categoryD2Ev@PLT
	movq	8(%rsp), %rdi
	movl	$8, %esi
	addq	$24, %rsp
	.cfi_def_cfa_offset 8
	jmp	_ZdlPvm@PLT
	.cfi_endproc
.LFE2827:
	.size	_ZN4asio5error6detail17addrinfo_categoryD0Ev, .-_ZN4asio5error6detail17addrinfo_categoryD0Ev
	.section	.text._ZN4asio5error6detail13misc_categoryD2Ev,"axG",@progbits,_ZN4asio5error6detail13misc_categoryD5Ev,comdat
	.align 2
	.p2align 4
	.weak	_ZN4asio5error6detail13misc_categoryD2Ev
	.type	_ZN4asio5error6detail13misc_categoryD2Ev, @function
_ZN4asio5error6detail13misc_categoryD2Ev:
.LFB2835:
	.cfi_startproc
	movq	_ZTVN4asio5error6detail13misc_categoryE@GOTPCREL(%rip), %rax
	addq	$16, %rax
	movq	%rax, (%rdi)
	jmp	_ZNSt3_V214error_categoryD2Ev@PLT
	.cfi_endproc
.LFE2835:
	.size	_ZN4asio5error6detail13misc_categoryD2Ev, .-_ZN4asio5error6detail13misc_categoryD2Ev
	.weak	_ZN4asio5error6detail13misc_categoryD1Ev
	.set	_ZN4asio5error6detail13misc_categoryD1Ev,_ZN4asio5error6detail13misc_categoryD2Ev
	.section	.text._ZN4asio5error6detail13misc_categoryD0Ev,"axG",@progbits,_ZN4asio5error6detail13misc_categoryD5Ev,comdat
	.align 2
	.p2align 4
	.weak	_ZN4asio5error6detail13misc_categoryD0Ev
	.type	_ZN4asio5error6detail13misc_categoryD0Ev, @function
_ZN4asio5error6detail13misc_categoryD0Ev:
.LFB2837:
	.cfi_startproc
	subq	$24, %rsp
	.cfi_def_cfa_offset 32
	movq	_ZTVN4asio5error6detail13misc_categoryE@GOTPCREL(%rip), %rax
	movq	%rdi, 8(%rsp)
	addq	$16, %rax
	movq	%rax, (%rdi)
	call	_ZNSt3_V214error_categoryD2Ev@PLT
	movq	8(%rsp), %rdi
	movl	$8, %esi
	addq	$24, %rsp
	.cfi_def_cfa_offset 8
	jmp	_ZdlPvm@PLT
	.cfi_endproc
.LFE2837:
	.size	_ZN4asio5error6detail13misc_categoryD0Ev, .-_ZN4asio5error6detail13misc_categoryD0Ev
	.section	.text._ZNSt17_Function_handlerIFSt10unique_ptrINSt13__future_base12_Result_baseENS2_8_DeleterEEvENS1_13_State_baseV27_SetterIbObEEE10_M_managerERSt9_Any_dataRKSB_St18_Manager_operation,"axG",@progbits,_ZNSt17_Function_handlerIFSt10unique_ptrINSt13__future_base12_Result_baseENS2_8_DeleterEEvENS1_13_State_baseV27_SetterIbObEEE10_M_managerERSt9_Any_dataRKSB_St18_Manager_operation,comdat
	.p2align 4
	.weak	_ZNSt17_Function_handlerIFSt10unique_ptrINSt13__future_base12_Result_baseENS2_8_DeleterEEvENS1_13_State_baseV27_SetterIbObEEE10_M_managerERSt9_Any_dataRKSB_St18_Manager_operation
	.type	_ZNSt17_Function_handlerIFSt10unique_ptrINSt13__future_base12_Result_baseENS2_8_DeleterEEvENS1_13_State_baseV27_SetterIbObEEE10_M_managerERSt9_Any_dataRKSB_St18_Manager_operation, @function
_ZNSt17_Function_handlerIFSt10unique_ptrINSt13__future_base12_Result_baseENS2_8_DeleterEEvENS1_13_State_baseV27_SetterIbObEEE10_M_managerERSt9_Any_dataRKSB_St18_Manager_operation:
.LFB11379:
	.cfi_startproc
	testl	%edx, %edx
	je	.L82
	cmpl	$1, %edx
	jne	.L87
	movq	%rsi, (%rdi)
.L85:
	xorl	%eax, %eax
	ret
	.p2align 4,,10
	.p2align 3
.L87:
	cmpl	$2, %edx
	jne	.L85
	movdqu	(%rsi), %xmm0
	movups	%xmm0, (%rdi)
	jmp	.L85
	.p2align 4,,10
	.p2align 3
.L82:
	movq	_ZTINSt13__future_base13_State_baseV27_SetterIbObEE@GOTPCREL(%rip), %rax
	movq	%rax, (%rdi)
	xorl	%eax, %eax
	ret
	.cfi_endproc
.LFE11379:
	.size	_ZNSt17_Function_handlerIFSt10unique_ptrINSt13__future_base12_Result_baseENS2_8_DeleterEEvENS1_13_State_baseV27_SetterIbObEEE10_M_managerERSt9_Any_dataRKSB_St18_Manager_operation, .-_ZNSt17_Function_handlerIFSt10unique_ptrINSt13__future_base12_Result_baseENS2_8_DeleterEEvENS1_13_State_baseV27_SetterIbObEEE10_M_managerERSt9_Any_dataRKSB_St18_Manager_operation
	.section	.text._ZNSt17_Function_handlerIFSt10unique_ptrINSt13__future_base12_Result_baseENS2_8_DeleterEEvENS1_13_State_baseV27_SetterIN8opendnp315StackStatisticsEOS9_EEE10_M_managerERSt9_Any_dataRKSD_St18_Manager_operation,"axG",@progbits,_ZNSt17_Function_handlerIFSt10unique_ptrINSt13__future_base12_Result_baseENS2_8_DeleterEEvENS1_13_State_baseV27_SetterIN8opendnp315StackStatisticsEOS9_EEE10_M_managerERSt9_Any_dataRKSD_St18_Manager_operation,comdat
	.p2align 4
	.weak	_ZNSt17_Function_handlerIFSt10unique_ptrINSt13__future_base12_Result_baseENS2_8_DeleterEEvENS1_13_State_baseV27_SetterIN8opendnp315StackStatisticsEOS9_EEE10_M_managerERSt9_Any_dataRKSD_St18_Manager_operation
	.type	_ZNSt17_Function_handlerIFSt10unique_ptrINSt13__future_base12_Result_baseENS2_8_DeleterEEvENS1_13_State_baseV27_SetterIN8opendnp315StackStatisticsEOS9_EEE10_M_managerERSt9_Any_dataRKSD_St18_Manager_operation, @function
_ZNSt17_Function_handlerIFSt10unique_ptrINSt13__future_base12_Result_baseENS2_8_DeleterEEvENS1_13_State_baseV27_SetterIN8opendnp315StackStatisticsEOS9_EEE10_M_managerERSt9_Any_dataRKSD_St18_Manager_operation:
.LFB11442:
	.cfi_startproc
	testl	%edx, %edx
	je	.L89
	cmpl	$1, %edx
	jne	.L94
	movq	%rsi, (%rdi)
.L92:
	xorl	%eax, %eax
	ret
	.p2align 4,,10
	.p2align 3
.L94:
	cmpl	$2, %edx
	jne	.L92
	movdqu	(%rsi), %xmm0
	movups	%xmm0, (%rdi)
	jmp	.L92
	.p2align 4,,10
	.p2align 3
.L89:
	movq	_ZTINSt13__future_base13_State_baseV27_SetterIN8opendnp315StackStatisticsEOS3_EE@GOTPCREL(%rip), %rax
	movq	%rax, (%rdi)
	xorl	%eax, %eax
	ret
	.cfi_endproc
.LFE11442:
	.size	_ZNSt17_Function_handlerIFSt10unique_ptrINSt13__future_base12_Result_baseENS2_8_DeleterEEvENS1_13_State_baseV27_SetterIN8opendnp315StackStatisticsEOS9_EEE10_M_managerERSt9_Any_dataRKSD_St18_Manager_operation, .-_ZNSt17_Function_handlerIFSt10unique_ptrINSt13__future_base12_Result_baseENS2_8_DeleterEEvENS1_13_State_baseV27_SetterIN8opendnp315StackStatisticsEOS9_EEE10_M_managerERSt9_Any_dataRKSD_St18_Manager_operation
	.section	.text._ZNSt17_Function_handlerIFSt10unique_ptrINSt13__future_base12_Result_baseENS2_8_DeleterEEvENS1_13_State_baseV27_SetterISt10shared_ptrIN8opendnp311IMasterTaskEEOSB_EEE10_M_managerERSt9_Any_dataRKSF_St18_Manager_operation,"axG",@progbits,_ZNSt17_Function_handlerIFSt10unique_ptrINSt13__future_base12_Result_baseENS2_8_DeleterEEvENS1_13_State_baseV27_SetterISt10shared_ptrIN8opendnp311IMasterTaskEEOSB_EEE10_M_managerERSt9_Any_dataRKSF_St18_Manager_operation,comdat
	.p2align 4
	.weak	_ZNSt17_Function_handlerIFSt10unique_ptrINSt13__future_base12_Result_baseENS2_8_DeleterEEvENS1_13_State_baseV27_SetterISt10shared_ptrIN8opendnp311IMasterTaskEEOSB_EEE10_M_managerERSt9_Any_dataRKSF_St18_Manager_operation
	.type	_ZNSt17_Function_handlerIFSt10unique_ptrINSt13__future_base12_Result_baseENS2_8_DeleterEEvENS1_13_State_baseV27_SetterISt10shared_ptrIN8opendnp311IMasterTaskEEOSB_EEE10_M_managerERSt9_Any_dataRKSF_St18_Manager_operation, @function
_ZNSt17_Function_handlerIFSt10unique_ptrINSt13__future_base12_Result_baseENS2_8_DeleterEEvENS1_13_State_baseV27_SetterISt10shared_ptrIN8opendnp311IMasterTaskEEOSB_EEE10_M_managerERSt9_Any_dataRKSF_St18_Manager_operation:
.LFB11489:
	.cfi_startproc
	testl	%edx, %edx
	je	.L96
	cmpl	$1, %edx
	jne	.L101
	movq	%rsi, (%rdi)
.L99:
	xorl	%eax, %eax
	ret
	.p2align 4,,10
	.p2align 3
.L101:
	cmpl	$2, %edx
	jne	.L99
	movdqu	(%rsi), %xmm0
	movups	%xmm0, (%rdi)
	jmp	.L99
	.p2align 4,,10
	.p2align 3
.L96:
	movq	_ZTINSt13__future_base13_State_baseV27_SetterISt10shared_ptrIN8opendnp311IMasterTaskEEOS5_EE@GOTPCREL(%rip), %rax
	movq	%rax, (%rdi)
	xorl	%eax, %eax
	ret
	.cfi_endproc
.LFE11489:
	.size	_ZNSt17_Function_handlerIFSt10unique_ptrINSt13__future_base12_Result_baseENS2_8_DeleterEEvENS1_13_State_baseV27_SetterISt10shared_ptrIN8opendnp311IMasterTaskEEOSB_EEE10_M_managerERSt9_Any_dataRKSF_St18_Manager_operation, .-_ZNSt17_Function_handlerIFSt10unique_ptrINSt13__future_base12_Result_baseENS2_8_DeleterEEvENS1_13_State_baseV27_SetterISt10shared_ptrIN8opendnp311IMasterTaskEEOSB_EEE10_M_managerERSt9_Any_dataRKSF_St18_Manager_operation
	.section	.text._ZNSt23_Sp_counted_ptr_inplaceIN8opendnp310CommandSetESaIvELN9__gnu_cxx12_Lock_policyE2EE14_M_get_deleterERKSt9type_info,"axG",@progbits,_ZNSt23_Sp_counted_ptr_inplaceIN8opendnp310CommandSetESaIvELN9__gnu_cxx12_Lock_policyE2EE14_M_get_deleterERKSt9type_info,comdat
	.align 2
	.p2align 4
	.weak	_ZNSt23_Sp_counted_ptr_inplaceIN8opendnp310CommandSetESaIvELN9__gnu_cxx12_Lock_policyE2EE14_M_get_deleterERKSt9type_info
	.type	_ZNSt23_Sp_counted_ptr_inplaceIN8opendnp310CommandSetESaIvELN9__gnu_cxx12_Lock_policyE2EE14_M_get_deleterERKSt9type_info, @function
_ZNSt23_Sp_counted_ptr_inplaceIN8opendnp310CommandSetESaIvELN9__gnu_cxx12_Lock_policyE2EE14_M_get_deleterERKSt9type_info:
.LFB12475:
	.cfi_startproc
	cmpq	_ZZNSt19_Sp_make_shared_tag5_S_tiEvE5__tag@GOTPCREL(%rip), %rsi
	movq	%rdi, %rcx
	je	.L108
	movq	8(%rsi), %rdi
	movq	_ZTSSt19_Sp_make_shared_tag@GOTPCREL(%rip), %rsi
	cmpq	%rsi, %rdi
	je	.L108
	xorl	%edx, %edx
	cmpb	$42, (%rdi)
	je	.L109
	subq	$24, %rsp
	.cfi_def_cfa_offset 32
	movq	%rdx, (%rsp)
	movq	%rcx, 8(%rsp)
	call	strcmp@PLT
	xorl	%edx, %edx
	movq	8(%rsp), %rcx
	testl	%eax, %eax
	jne	.L102
	leaq	16(%rcx), %rdx
.L102:
	movq	%rdx, %rax
	addq	$24, %rsp
	.cfi_def_cfa_offset 8
	ret
	.p2align 4,,10
	.p2align 3
.L108:
	leaq	16(%rcx), %rdx
.L109:
	movq	%rdx, %rax
	ret
	.cfi_endproc
.LFE12475:
	.size	_ZNSt23_Sp_counted_ptr_inplaceIN8opendnp310CommandSetESaIvELN9__gnu_cxx12_Lock_policyE2EE14_M_get_deleterERKSt9type_info, .-_ZNSt23_Sp_counted_ptr_inplaceIN8opendnp310CommandSetESaIvELN9__gnu_cxx12_Lock_policyE2EE14_M_get_deleterERKSt9type_info
	.section	.text._ZNSt13__future_base7_ResultIbE10_M_destroyEv,"axG",@progbits,_ZNSt13__future_base7_ResultIbE10_M_destroyEv,comdat
	.align 2
	.p2align 4
	.weak	_ZNSt13__future_base7_ResultIbE10_M_destroyEv
	.type	_ZNSt13__future_base7_ResultIbE10_M_destroyEv, @function
_ZNSt13__future_base7_ResultIbE10_M_destroyEv:
.LFB12535:
	.cfi_startproc
	movq	(%rdi), %rax
	movq	16(%rax), %rax
	cmpq	_ZNSt13__future_base7_ResultIbED0Ev@GOTPCREL(%rip), %rax
	jne	.L113
	subq	$24, %rsp
	.cfi_def_cfa_offset 32
	movq	_ZTVNSt13__future_base7_ResultIbEE@GOTPCREL(%rip), %rax
	movq	%rdi, 8(%rsp)
	addq	$16, %rax
	movq	%rax, (%rdi)
	call	_ZNSt13__future_base12_Result_baseD2Ev@PLT
	movq	8(%rsp), %rdi
	movl	$24, %esi
	addq	$24, %rsp
	.cfi_def_cfa_offset 8
	jmp	_ZdlPvm@PLT
	.p2align 4,,10
	.p2align 3
.L113:
	jmp	*%rax
	.cfi_endproc
.LFE12535:
	.size	_ZNSt13__future_base7_ResultIbE10_M_destroyEv, .-_ZNSt13__future_base7_ResultIbE10_M_destroyEv
	.section	.text._ZNSt13__future_base7_ResultIN8opendnp315StackStatisticsEE10_M_destroyEv,"axG",@progbits,_ZNSt13__future_base7_ResultIN8opendnp315StackStatisticsEE10_M_destroyEv,comdat
	.align 2
	.p2align 4
	.weak	_ZNSt13__future_base7_ResultIN8opendnp315StackStatisticsEE10_M_destroyEv
	.type	_ZNSt13__future_base7_ResultIN8opendnp315StackStatisticsEE10_M_destroyEv, @function
_ZNSt13__future_base7_ResultIN8opendnp315StackStatisticsEE10_M_destroyEv:
.LFB12530:
	.cfi_startproc
	movq	(%rdi), %rax
	movq	16(%rax), %rax
	cmpq	_ZNSt13__future_base7_ResultIN8opendnp315StackStatisticsEED0Ev@GOTPCREL(%rip), %rax
	jne	.L118
	subq	$24, %rsp
	.cfi_def_cfa_offset 32
	movq	_ZTVNSt13__future_base7_ResultIN8opendnp315StackStatisticsEEE@GOTPCREL(%rip), %rax
	movq	%rdi, 8(%rsp)
	addq	$16, %rax
	movq	%rax, (%rdi)
	call	_ZNSt13__future_base12_Result_baseD2Ev@PLT
	movq	8(%rsp), %rdi
	movl	$64, %esi
	addq	$24, %rsp
	.cfi_def_cfa_offset 8
	jmp	_ZdlPvm@PLT
	.p2align 4,,10
	.p2align 3
.L118:
	jmp	*%rax
	.cfi_endproc
.LFE12530:
	.size	_ZNSt13__future_base7_ResultIN8opendnp315StackStatisticsEE10_M_destroyEv, .-_ZNSt13__future_base7_ResultIN8opendnp315StackStatisticsEE10_M_destroyEv
	.section	.text._ZNSt23_Sp_counted_ptr_inplaceINSt13__future_base13_State_baseV2ESaIvELN9__gnu_cxx12_Lock_policyE2EE14_M_get_deleterERKSt9type_info,"axG",@progbits,_ZNSt23_Sp_counted_ptr_inplaceINSt13__future_base13_State_baseV2ESaIvELN9__gnu_cxx12_Lock_policyE2EE14_M_get_deleterERKSt9type_info,comdat
	.align 2
	.p2align 4
	.weak	_ZNSt23_Sp_counted_ptr_inplaceINSt13__future_base13_State_baseV2ESaIvELN9__gnu_cxx12_Lock_policyE2EE14_M_get_deleterERKSt9type_info
	.type	_ZNSt23_Sp_counted_ptr_inplaceINSt13__future_base13_State_baseV2ESaIvELN9__gnu_cxx12_Lock_policyE2EE14_M_get_deleterERKSt9type_info, @function
_ZNSt23_Sp_counted_ptr_inplaceINSt13__future_base13_State_baseV2ESaIvELN9__gnu_cxx12_Lock_policyE2EE14_M_get_deleterERKSt9type_info:
.LFB12510:
	.cfi_startproc
	cmpq	_ZZNSt19_Sp_make_shared_tag5_S_tiEvE5__tag@GOTPCREL(%rip), %rsi
	movq	%rdi, %rcx
	je	.L128
	movq	8(%rsi), %rdi
	movq	_ZTSSt19_Sp_make_shared_tag@GOTPCREL(%rip), %rsi
	cmpq	%rsi, %rdi
	je	.L128
	xorl	%edx, %edx
	cmpb	$42, (%rdi)
	je	.L129
	subq	$24, %rsp
	.cfi_def_cfa_offset 32
	movq	%rdx, (%rsp)
	movq	%rcx, 8(%rsp)
	call	strcmp@PLT
	xorl	%edx, %edx
	movq	8(%rsp), %rcx
	testl	%eax, %eax
	jne	.L122
	leaq	16(%rcx), %rdx
.L122:
	movq	%rdx, %rax
	addq	$24, %rsp
	.cfi_def_cfa_offset 8
	ret
	.p2align 4,,10
	.p2align 3
.L128:
	leaq	16(%rcx), %rdx
.L129:
	movq	%rdx, %rax
	ret
	.cfi_endproc
.LFE12510:
	.size	_ZNSt23_Sp_counted_ptr_inplaceINSt13__future_base13_State_baseV2ESaIvELN9__gnu_cxx12_Lock_policyE2EE14_M_get_deleterERKSt9type_info, .-_ZNSt23_Sp_counted_ptr_inplaceINSt13__future_base13_State_baseV2ESaIvELN9__gnu_cxx12_Lock_policyE2EE14_M_get_deleterERKSt9type_info
	.section	.text._ZNSt23_Sp_counted_ptr_inplaceIN8asiodnp310MasterScanESaIvELN9__gnu_cxx12_Lock_policyE2EE14_M_get_deleterERKSt9type_info,"axG",@progbits,_ZNSt23_Sp_counted_ptr_inplaceIN8asiodnp310MasterScanESaIvELN9__gnu_cxx12_Lock_policyE2EE14_M_get_deleterERKSt9type_info,comdat
	.align 2
	.p2align 4
	.weak	_ZNSt23_Sp_counted_ptr_inplaceIN8asiodnp310MasterScanESaIvELN9__gnu_cxx12_Lock_policyE2EE14_M_get_deleterERKSt9type_info
	.type	_ZNSt23_Sp_counted_ptr_inplaceIN8asiodnp310MasterScanESaIvELN9__gnu_cxx12_Lock_policyE2EE14_M_get_deleterERKSt9type_info, @function
_ZNSt23_Sp_counted_ptr_inplaceIN8asiodnp310MasterScanESaIvELN9__gnu_cxx12_Lock_policyE2EE14_M_get_deleterERKSt9type_info:
.LFB12489:
	.cfi_startproc
	cmpq	_ZZNSt19_Sp_make_shared_tag5_S_tiEvE5__tag@GOTPCREL(%rip), %rsi
	movq	%rdi, %rcx
	je	.L138
	movq	8(%rsi), %rdi
	movq	_ZTSSt19_Sp_make_shared_tag@GOTPCREL(%rip), %rsi
	cmpq	%rsi, %rdi
	je	.L138
	xorl	%edx, %edx
	cmpb	$42, (%rdi)
	je	.L139
	subq	$24, %rsp
	.cfi_def_cfa_offset 32
	movq	%rdx, (%rsp)
	movq	%rcx, 8(%rsp)
	call	strcmp@PLT
	xorl	%edx, %edx
	movq	8(%rsp), %rcx
	testl	%eax, %eax
	jne	.L132
	leaq	16(%rcx), %rdx
.L132:
	movq	%rdx, %rax
	addq	$24, %rsp
	.cfi_def_cfa_offset 8
	ret
	.p2align 4,,10
	.p2align 3
.L138:
	leaq	16(%rcx), %rdx
.L139:
	movq	%rdx, %rax
	ret
	.cfi_endproc
.LFE12489:
	.size	_ZNSt23_Sp_counted_ptr_inplaceIN8asiodnp310MasterScanESaIvELN9__gnu_cxx12_Lock_policyE2EE14_M_get_deleterERKSt9type_info, .-_ZNSt23_Sp_counted_ptr_inplaceIN8asiodnp310MasterScanESaIvELN9__gnu_cxx12_Lock_policyE2EE14_M_get_deleterERKSt9type_info
	.section	.text._ZN4asio6detail18completion_handlerIZN7asiopal8Executor10ReturnFromIbEET_RKSt8functionIFS5_vEEEUlvE_E11do_completeEPNS0_15task_io_serviceEPNS0_25task_io_service_operationERKSt10error_codem,"axG",@progbits,_ZN4asio6detail18completion_handlerIZN7asiopal8Executor10ReturnFromIbEET_RKSt8functionIFS5_vEEEUlvE_E11do_completeEPNS0_15task_io_serviceEPNS0_25task_io_service_operationERKSt10error_codem,comdat
	.p2align 4
	.weak	_ZN4asio6detail18completion_handlerIZN7asiopal8Executor10ReturnFromIbEET_RKSt8functionIFS5_vEEEUlvE_E11do_completeEPNS0_15task_io_serviceEPNS0_25task_io_service_operationERKSt10error_codem
	.type	_ZN4asio6detail18completion_handlerIZN7asiopal8Executor10ReturnFromIbEET_RKSt8functionIFS5_vEEEUlvE_E11do_completeEPNS0_15task_io_serviceEPNS0_25task_io_service_operationERKSt10error_codem, @function
_ZN4asio6detail18completion_handlerIZN7asiopal8Executor10ReturnFromIbEET_RKSt8functionIFS5_vEEEUlvE_E11do_completeEPNS0_15task_io_serviceEPNS0_25task_io_service_operationERKSt10error_codem:
.LFB11862:
	.cfi_startproc
	.cfi_personality 0x9b,DW.ref.__gxx_personality_v0
	.cfi_lsda 0x1b,.LLSDA11862
	pushq	%r13
	.cfi_def_cfa_offset 16
	.cfi_offset 13, -16
	movq	%rdi, %r13
	pushq	%r12
	.cfi_def_cfa_offset 24
	.cfi_offset 12, -24
	pushq	%rbp
	.cfi_def_cfa_offset 32
	.cfi_offset 6, -32
	pushq	%rbx
	.cfi_def_cfa_offset 40
	.cfi_offset 3, -40
	movq	%rsi, %rbx
	subq	$120, %rsp
	.cfi_def_cfa_offset 160
	movq	24(%rsi), %r12
	movq	32(%rsi), %rbp
	data16	leaq	_ZN4asio6detail15keyword_tss_ptrINS0_10call_stackINS0_15task_io_serviceENS0_27task_io_service_thread_infoEE7contextEE6value_E@tlsgd(%rip), %rdi
	.value	0x6666
	rex64
	call	__tls_get_addr@PLT
	movq	(%rax), %rax
	testq	%rax, %rax
	je	.L178
	movq	8(%rax), %rax
	testq	%rax, %rax
	je	.L178
	cmpq	$0, (%rax)
	je	.L179
.L178:
	movq	%rbx, %rdi
	call	_ZdlPv@PLT
.L177:
	testq	%r13, %r13
	je	.L142
	cmpq	$0, 16(%rbp)
	je	.L180
	movq	%rbp, %rdi
.LEHB3:
	call	*24(%rbp)
.LEHE3:
	leaq	8(%rsp), %rdx
	leaq	32(%rsp), %rcx
	movq	(%r12), %rbx
	movq	%r12, %xmm3
	movq	%rdx, %xmm4
	leaq	24(%rsp), %rdx
	movq	%rcx, %xmm1
	movb	%al, 6(%rsp)
	movq	%rdx, %xmm5
	leaq	16(%rsp), %rcx
	leaq	6(%rsp), %rdx
	movq	_ZNSt17_Function_handlerIFSt10unique_ptrINSt13__future_base12_Result_baseENS2_8_DeleterEEvENS1_13_State_baseV27_SetterIbObEEE10_M_managerERSt9_Any_dataRKSB_St18_Manager_operation@GOTPCREL(%rip), %xmm2
	movq	%rcx, %xmm0
	movq	%rdx, %xmm6
	punpcklqdq	%xmm4, %xmm1
	movhps	_ZNSt17_Function_handlerIFSt10unique_ptrINSt13__future_base12_Result_baseENS2_8_DeleterEEvENS1_13_State_baseV27_SetterIbObEEE9_M_invokeERKSt9_Any_data@GOTPCREL(%rip), %xmm2
	punpcklqdq	%xmm5, %xmm0
	punpcklqdq	%xmm6, %xmm3
	testq	%rbx, %rbx
	je	.L181
	leaq	7(%rsp), %rax
	leaq	48(%rsp), %rbp
	movaps	%xmm3, 48(%rsp)
	movq	%rax, 24(%rsp)
	movq	_ZNSt13__future_base13_State_baseV29_M_do_setEPSt8functionIFSt10unique_ptrINS_12_Result_baseENS3_8_DeleterEEvEEPb@GOTPCREL(%rip), %rax
	movaps	%xmm2, 64(%rsp)
	movaps	%xmm1, 80(%rsp)
	movaps	%xmm0, 96(%rsp)
	movb	$0, 7(%rsp)
	movq	%rbp, 16(%rsp)
	movq	%rbx, 8(%rsp)
	movq	%rax, 32(%rsp)
	movq	$0, 40(%rsp)
	data16	leaq	_ZSt15__once_callable@tlsgd(%rip), %rdi
	.value	0x6666
	rex64
	call	__tls_get_addr@PLT
	leaq	80(%rsp), %rdx
	movq	%rdx, (%rax)
	data16	leaq	_ZSt11__once_call@tlsgd(%rip), %rdi
	.value	0x6666
	rex64
	call	__tls_get_addr@PLT
	movq	_ZZNSt9once_flag18_Prepare_executionC4IZSt9call_onceIMNSt13__future_base13_State_baseV2EFvPSt8functionIFSt10unique_ptrINS3_12_Result_baseENS7_8_DeleterEEvEEPbEJPS4_SC_SD_EEvRS_OT_DpOT0_EUlvE_EERSI_ENUlvE_4_FUNEv@GOTPCREL(%rip), %rdx
	movq	__once_proxy@GOTPCREL(%rip), %rsi
	leaq	24(%rbx), %rdi
	movq	%rdx, (%rax)
.LEHB4:
	call	pthread_once@PLT
.LEHE4:
	testl	%eax, %eax
	jne	.L182
	data16	leaq	_ZSt15__once_callable@tlsgd(%rip), %rdi
	.value	0x6666
	rex64
	call	__tls_get_addr@PLT
	movq	$0, (%rax)
	data16	leaq	_ZSt11__once_call@tlsgd(%rip), %rdi
	.value	0x6666
	rex64
	call	__tls_get_addr@PLT
	movq	$0, (%rax)
	cmpb	$0, 7(%rsp)
	je	.L183
	leaq	16(%rbx), %rdi
	movl	$1, %eax
	xchgl	(%rdi), %eax
	testl	%eax, %eax
	js	.L156
.L159:
	movq	64(%rsp), %rax
	testq	%rax, %rax
	je	.L158
	movl	$3, %edx
	movq	%rbp, %rsi
	movq	%rbp, %rdi
	call	*%rax
.L158:
	sfence
.L142:
	addq	$120, %rsp
	.cfi_remember_state
	.cfi_def_cfa_offset 40
	popq	%rbx
	.cfi_def_cfa_offset 32
	popq	%rbp
	.cfi_def_cfa_offset 24
	popq	%r12
	.cfi_def_cfa_offset 16
	popq	%r13
	.cfi_def_cfa_offset 8
	ret
	.p2align 4,,10
	.p2align 3
.L179:
	.cfi_restore_state
	movzbl	40(%rbx), %edx
	movb	%dl, (%rbx)
	movq	%rbx, (%rax)
	jmp	.L177
	.p2align 4,,10
	.p2align 3
.L156:
.LEHB5:
	call	_ZNSt28__atomic_futex_unsigned_base19_M_futex_notify_allEPj@PLT
.LEHE5:
	jmp	.L159
.L163:
	movq	%rax, %rbx
	jmp	.L155
.L162:
	movq	%rax, %rdi
	jmp	.L161
.L180:
.LEHB6:
	call	_ZSt25__throw_bad_function_callv@PLT
.LEHE6:
.L154:
	data16	leaq	_ZSt15__once_callable@tlsgd(%rip), %rdi
	.value	0x6666
	rex64
	call	__tls_get_addr@PLT
	xorl	%edx, %edx
	movq	%rdx, (%rax)
	data16	leaq	_ZSt11__once_call@tlsgd(%rip), %rdi
	.value	0x6666
	rex64
	call	__tls_get_addr@PLT
	xorl	%ecx, %ecx
	movq	%rcx, (%rax)
.L155:
	movq	64(%rsp), %rax
	testq	%rax, %rax
	je	.L160
	movl	$3, %edx
	movq	%rbp, %rsi
	movq	%rbp, %rdi
	call	*%rax
.L160:
	movq	%rbx, %rdi
.L161:
	sfence
.LEHB7:
	call	_Unwind_Resume@PLT
.LEHE7:
.L181:
	movl	$3, %edi
.LEHB8:
	call	_ZSt20__throw_future_errori@PLT
.LEHE8:
.L164:
	movq	%rax, %rbx
	jmp	.L154
.L183:
	movl	$2, %edi
.LEHB9:
	call	_ZSt20__throw_future_errori@PLT
.LEHE9:
.L182:
	movl	%eax, %edi
.LEHB10:
	call	_ZSt20__throw_system_errori@PLT
.LEHE10:
	.cfi_endproc
.LFE11862:
	.section	.gcc_except_table._ZN4asio6detail18completion_handlerIZN7asiopal8Executor10ReturnFromIbEET_RKSt8functionIFS5_vEEEUlvE_E11do_completeEPNS0_15task_io_serviceEPNS0_25task_io_service_operationERKSt10error_codem,"aG",@progbits,_ZN4asio6detail18completion_handlerIZN7asiopal8Executor10ReturnFromIbEET_RKSt8functionIFS5_vEEEUlvE_E11do_completeEPNS0_15task_io_serviceEPNS0_25task_io_service_operationERKSt10error_codem,comdat
.LLSDA11862:
	.byte	0xff
	.byte	0xff
	.byte	0x1
	.uleb128 .LLSDACSE11862-.LLSDACSB11862
.LLSDACSB11862:
	.uleb128 .LEHB3-.LFB11862
	.uleb128 .LEHE3-.LEHB3
	.uleb128 .L162-.LFB11862
	.uleb128 0
	.uleb128 .LEHB4-.LFB11862
	.uleb128 .LEHE4-.LEHB4
	.uleb128 .L164-.LFB11862
	.uleb128 0
	.uleb128 .LEHB5-.LFB11862
	.uleb128 .LEHE5-.LEHB5
	.uleb128 .L163-.LFB11862
	.uleb128 0
	.uleb128 .LEHB6-.LFB11862
	.uleb128 .LEHE6-.LEHB6
	.uleb128 .L162-.LFB11862
	.uleb128 0
	.uleb128 .LEHB7-.LFB11862
	.uleb128 .LEHE7-.LEHB7
	.uleb128 0
	.uleb128 0
	.uleb128 .LEHB8-.LFB11862
	.uleb128 .LEHE8-.LEHB8
	.uleb128 .L162-.LFB11862
	.uleb128 0
	.uleb128 .LEHB9-.LFB11862
	.uleb128 .LEHE9-.LEHB9
	.uleb128 .L163-.LFB11862
	.uleb128 0
	.uleb128 .LEHB10-.LFB11862
	.uleb128 .LEHE10-.LEHB10
	.uleb128 .L164-.LFB11862
	.uleb128 0
.LLSDACSE11862:
	.section	.text._ZN4asio6detail18completion_handlerIZN7asiopal8Executor10ReturnFromIbEET_RKSt8functionIFS5_vEEEUlvE_E11do_completeEPNS0_15task_io_serviceEPNS0_25task_io_service_operationERKSt10error_codem,"axG",@progbits,_ZN4asio6detail18completion_handlerIZN7asiopal8Executor10ReturnFromIbEET_RKSt8functionIFS5_vEEEUlvE_E11do_completeEPNS0_15task_io_serviceEPNS0_25task_io_service_operationERKSt10error_codem,comdat
	.size	_ZN4asio6detail18completion_handlerIZN7asiopal8Executor10ReturnFromIbEET_RKSt8functionIFS5_vEEEUlvE_E11do_completeEPNS0_15task_io_serviceEPNS0_25task_io_service_operationERKSt10error_codem, .-_ZN4asio6detail18completion_handlerIZN7asiopal8Executor10ReturnFromIbEET_RKSt8functionIFS5_vEEEUlvE_E11do_completeEPNS0_15task_io_serviceEPNS0_25task_io_service_operationERKSt10error_codem
	.section	.text._ZN4asio6detail18completion_handlerIZN7asiopal8Executor10ReturnFromIN8opendnp315StackStatisticsEEET_RKSt8functionIFS7_vEEEUlvE_E11do_completeEPNS0_15task_io_serviceEPNS0_25task_io_service_operationERKSt10error_codem,"axG",@progbits,_ZN4asio6detail18completion_handlerIZN7asiopal8Executor10ReturnFromIN8opendnp315StackStatisticsEEET_RKSt8functionIFS7_vEEEUlvE_E11do_completeEPNS0_15task_io_serviceEPNS0_25task_io_service_operationERKSt10error_codem,comdat
	.p2align 4
	.weak	_ZN4asio6detail18completion_handlerIZN7asiopal8Executor10ReturnFromIN8opendnp315StackStatisticsEEET_RKSt8functionIFS7_vEEEUlvE_E11do_completeEPNS0_15task_io_serviceEPNS0_25task_io_service_operationERKSt10error_codem
	.type	_ZN4asio6detail18completion_handlerIZN7asiopal8Executor10ReturnFromIN8opendnp315StackStatisticsEEET_RKSt8functionIFS7_vEEEUlvE_E11do_completeEPNS0_15task_io_serviceEPNS0_25task_io_service_operationERKSt10error_codem, @function
_ZN4asio6detail18completion_handlerIZN7asiopal8Executor10ReturnFromIN8opendnp315StackStatisticsEEET_RKSt8functionIFS7_vEEEUlvE_E11do_completeEPNS0_15task_io_serviceEPNS0_25task_io_service_operationERKSt10error_codem:
.LFB11896:
	.cfi_startproc
	.cfi_personality 0x9b,DW.ref.__gxx_personality_v0
	.cfi_lsda 0x1b,.LLSDA11896
	pushq	%r13
	.cfi_def_cfa_offset 16
	.cfi_offset 13, -16
	movq	%rdi, %r13
	pushq	%r12
	.cfi_def_cfa_offset 24
	.cfi_offset 12, -24
	pushq	%rbp
	.cfi_def_cfa_offset 32
	.cfi_offset 6, -32
	pushq	%rbx
	.cfi_def_cfa_offset 40
	.cfi_offset 3, -40
	movq	%rsi, %rbx
	subq	$168, %rsp
	.cfi_def_cfa_offset 208
	movq	24(%rsi), %r12
	movq	32(%rsi), %rbp
	data16	leaq	_ZN4asio6detail15keyword_tss_ptrINS0_10call_stackINS0_15task_io_serviceENS0_27task_io_service_thread_infoEE7contextEE6value_E@tlsgd(%rip), %rdi
	.value	0x6666
	rex64
	call	__tls_get_addr@PLT
	movq	(%rax), %rax
	testq	%rax, %rax
	je	.L220
	movq	8(%rax), %rax
	testq	%rax, %rax
	je	.L220
	cmpq	$0, (%rax)
	je	.L221
.L220:
	movq	%rbx, %rdi
	call	_ZdlPv@PLT
.L219:
	testq	%r13, %r13
	je	.L184
	cmpq	$0, 16(%rbp)
	je	.L222
	leaq	112(%rsp), %rbx
	movq	%rbp, %rsi
	movq	%rbx, %rdi
.LEHB11:
	call	*24(%rbp)
.LEHE11:
	leaq	32(%rsp), %rax
	movq	%rbx, %xmm6
	movq	(%r12), %rbx
	movq	%r12, %xmm3
	movq	%rax, %xmm1
	leaq	8(%rsp), %rax
	punpcklqdq	%xmm6, %xmm3
	movq	_ZNSt17_Function_handlerIFSt10unique_ptrINSt13__future_base12_Result_baseENS2_8_DeleterEEvENS1_13_State_baseV27_SetterIN8opendnp315StackStatisticsEOS9_EEE10_M_managerERSt9_Any_dataRKSD_St18_Manager_operation@GOTPCREL(%rip), %xmm2
	movq	%rax, %xmm4
	leaq	16(%rsp), %rax
	movhps	_ZNSt17_Function_handlerIFSt10unique_ptrINSt13__future_base12_Result_baseENS2_8_DeleterEEvENS1_13_State_baseV27_SetterIN8opendnp315StackStatisticsEOS9_EEE9_M_invokeERKSt9_Any_data@GOTPCREL(%rip), %xmm2
	movq	%rax, %xmm0
	leaq	24(%rsp), %rax
	punpcklqdq	%xmm4, %xmm1
	movq	%rax, %xmm5
	punpcklqdq	%xmm5, %xmm0
	testq	%rbx, %rbx
	je	.L223
	leaq	7(%rsp), %rax
	leaq	48(%rsp), %rbp
	movaps	%xmm3, 48(%rsp)
	movq	%rax, 24(%rsp)
	movq	_ZNSt13__future_base13_State_baseV29_M_do_setEPSt8functionIFSt10unique_ptrINS_12_Result_baseENS3_8_DeleterEEvEEPb@GOTPCREL(%rip), %rax
	movaps	%xmm2, 64(%rsp)
	movaps	%xmm1, 80(%rsp)
	movaps	%xmm0, 96(%rsp)
	movb	$0, 7(%rsp)
	movq	%rbp, 16(%rsp)
	movq	%rbx, 8(%rsp)
	movq	%rax, 32(%rsp)
	movq	$0, 40(%rsp)
	data16	leaq	_ZSt15__once_callable@tlsgd(%rip), %rdi
	.value	0x6666
	rex64
	call	__tls_get_addr@PLT
	leaq	80(%rsp), %rdx
	movq	%rdx, (%rax)
	data16	leaq	_ZSt11__once_call@tlsgd(%rip), %rdi
	.value	0x6666
	rex64
	call	__tls_get_addr@PLT
	movq	_ZZNSt9once_flag18_Prepare_executionC4IZSt9call_onceIMNSt13__future_base13_State_baseV2EFvPSt8functionIFSt10unique_ptrINS3_12_Result_baseENS7_8_DeleterEEvEEPbEJPS4_SC_SD_EEvRS_OT_DpOT0_EUlvE_EERSI_ENUlvE_4_FUNEv@GOTPCREL(%rip), %rdx
	movq	__once_proxy@GOTPCREL(%rip), %rsi
	leaq	24(%rbx), %rdi
	movq	%rdx, (%rax)
.LEHB12:
	call	pthread_once@PLT
.LEHE12:
	testl	%eax, %eax
	jne	.L224
	data16	leaq	_ZSt15__once_callable@tlsgd(%rip), %rdi
	.value	0x6666
	rex64
	call	__tls_get_addr@PLT
	movq	$0, (%rax)
	data16	leaq	_ZSt11__once_call@tlsgd(%rip), %rdi
	.value	0x6666
	rex64
	call	__tls_get_addr@PLT
	movq	$0, (%rax)
	cmpb	$0, 7(%rsp)
	je	.L225
	leaq	16(%rbx), %rdi
	movl	$1, %eax
	xchgl	(%rdi), %eax
	testl	%eax, %eax
	js	.L198
.L201:
	movq	64(%rsp), %rax
	testq	%rax, %rax
	je	.L200
	movl	$3, %edx
	movq	%rbp, %rsi
	movq	%rbp, %rdi
	call	*%rax
.L200:
	sfence
.L184:
	addq	$168, %rsp
	.cfi_remember_state
	.cfi_def_cfa_offset 40
	popq	%rbx
	.cfi_def_cfa_offset 32
	popq	%rbp
	.cfi_def_cfa_offset 24
	popq	%r12
	.cfi_def_cfa_offset 16
	popq	%r13
	.cfi_def_cfa_offset 8
	ret
	.p2align 4,,10
	.p2align 3
.L221:
	.cfi_restore_state
	movzbl	40(%rbx), %edx
	movb	%dl, (%rbx)
	movq	%rbx, (%rax)
	jmp	.L219
	.p2align 4,,10
	.p2align 3
.L198:
.LEHB13:
	call	_ZNSt28__atomic_futex_unsigned_base19_M_futex_notify_allEPj@PLT
.LEHE13:
	jmp	.L201
.L205:
	movq	%rax, %rbx
	jmp	.L197
.L204:
	movq	%rax, %rdi
	jmp	.L203
.L222:
.LEHB14:
	call	_ZSt25__throw_bad_function_callv@PLT
.LEHE14:
.L196:
	data16	leaq	_ZSt15__once_callable@tlsgd(%rip), %rdi
	.value	0x6666
	rex64
	call	__tls_get_addr@PLT
	xorl	%edx, %edx
	movq	%rdx, (%rax)
	data16	leaq	_ZSt11__once_call@tlsgd(%rip), %rdi
	.value	0x6666
	rex64
	call	__tls_get_addr@PLT
	xorl	%ecx, %ecx
	movq	%rcx, (%rax)
.L197:
	movq	64(%rsp), %rax
	testq	%rax, %rax
	je	.L202
	movl	$3, %edx
	movq	%rbp, %rsi
	movq	%rbp, %rdi
	call	*%rax
.L202:
	movq	%rbx, %rdi
.L203:
	sfence
.LEHB15:
	call	_Unwind_Resume@PLT
.LEHE15:
.L223:
	movl	$3, %edi
.LEHB16:
	call	_ZSt20__throw_future_errori@PLT
.LEHE16:
.L206:
	movq	%rax, %rbx
	jmp	.L196
.L225:
	movl	$2, %edi
.LEHB17:
	call	_ZSt20__throw_future_errori@PLT
.LEHE17:
.L224:
	movl	%eax, %edi
.LEHB18:
	call	_ZSt20__throw_system_errori@PLT
.LEHE18:
	.cfi_endproc
.LFE11896:
	.section	.gcc_except_table._ZN4asio6detail18completion_handlerIZN7asiopal8Executor10ReturnFromIN8opendnp315StackStatisticsEEET_RKSt8functionIFS7_vEEEUlvE_E11do_completeEPNS0_15task_io_serviceEPNS0_25task_io_service_operationERKSt10error_codem,"aG",@progbits,_ZN4asio6detail18completion_handlerIZN7asiopal8Executor10ReturnFromIN8opendnp315StackStatisticsEEET_RKSt8functionIFS7_vEEEUlvE_E11do_completeEPNS0_15task_io_serviceEPNS0_25task_io_service_operationERKSt10error_codem,comdat
.LLSDA11896:
	.byte	0xff
	.byte	0xff
	.byte	0x1
	.uleb128 .LLSDACSE11896-.LLSDACSB11896
.LLSDACSB11896:
	.uleb128 .LEHB11-.LFB11896
	.uleb128 .LEHE11-.LEHB11
	.uleb128 .L204-.LFB11896
	.uleb128 0
	.uleb128 .LEHB12-.LFB11896
	.uleb128 .LEHE12-.LEHB12
	.uleb128 .L206-.LFB11896
	.uleb128 0
	.uleb128 .LEHB13-.LFB11896
	.uleb128 .LEHE13-.LEHB13
	.uleb128 .L205-.LFB11896
	.uleb128 0
	.uleb128 .LEHB14-.LFB11896
	.uleb128 .LEHE14-.LEHB14
	.uleb128 .L204-.LFB11896
	.uleb128 0
	.uleb128 .LEHB15-.LFB11896
	.uleb128 .LEHE15-.LEHB15
	.uleb128 0
	.uleb128 0
	.uleb128 .LEHB16-.LFB11896
	.uleb128 .LEHE16-.LEHB16
	.uleb128 .L204-.LFB11896
	.uleb128 0
	.uleb128 .LEHB17-.LFB11896
	.uleb128 .LEHE17-.LEHB17
	.uleb128 .L205-.LFB11896
	.uleb128 0
	.uleb128 .LEHB18-.LFB11896
	.uleb128 .LEHE18-.LEHB18
	.uleb128 .L206-.LFB11896
	.uleb128 0
.LLSDACSE11896:
	.section	.text._ZN4asio6detail18completion_handlerIZN7asiopal8Executor10ReturnFromIN8opendnp315StackStatisticsEEET_RKSt8functionIFS7_vEEEUlvE_E11do_completeEPNS0_15task_io_serviceEPNS0_25task_io_service_operationERKSt10error_codem,"axG",@progbits,_ZN4asio6detail18completion_handlerIZN7asiopal8Executor10ReturnFromIN8opendnp315StackStatisticsEEET_RKSt8functionIFS7_vEEEUlvE_E11do_completeEPNS0_15task_io_serviceEPNS0_25task_io_service_operationERKSt10error_codem,comdat
	.size	_ZN4asio6detail18completion_handlerIZN7asiopal8Executor10ReturnFromIN8opendnp315StackStatisticsEEET_RKSt8functionIFS7_vEEEUlvE_E11do_completeEPNS0_15task_io_serviceEPNS0_25task_io_service_operationERKSt10error_codem, .-_ZN4asio6detail18completion_handlerIZN7asiopal8Executor10ReturnFromIN8opendnp315StackStatisticsEEET_RKSt8functionIFS7_vEEEUlvE_E11do_completeEPNS0_15task_io_serviceEPNS0_25task_io_service_operationERKSt10error_codem
	.section	.rodata._ZNK4asio6detail15system_category7messageB5cxx11Ei.str1.8,"aMS",@progbits,1
	.align 8
.LC4:
	.string	"basic_string: construction from null is not valid"
	.section	.text._ZNK4asio6detail15system_category7messageB5cxx11Ei,"axG",@progbits,_ZNK4asio6detail15system_category7messageB5cxx11Ei,comdat
	.align 2
	.p2align 4
	.weak	_ZNK4asio6detail15system_category7messageB5cxx11Ei
	.type	_ZNK4asio6detail15system_category7messageB5cxx11Ei, @function
_ZNK4asio6detail15system_category7messageB5cxx11Ei:
.LFB2765:
	.cfi_startproc
	pushq	%r12
	.cfi_def_cfa_offset 16
	.cfi_offset 12, -16
	pushq	%rbp
	.cfi_def_cfa_offset 24
	.cfi_offset 6, -24
	pushq	%rbx
	.cfi_def_cfa_offset 32
	.cfi_offset 3, -32
	movq	%rdi, %rbx
	subq	$288, %rsp
	.cfi_def_cfa_offset 320
	cmpl	$125, %edx
	je	.L238
	pxor	%xmm0, %xmm0
	leaq	32(%rsp), %rsi
	leaq	16(%rbx), %rbp
	movl	%edx, %edi
	movl	$256, %edx
	movaps	%xmm0, 32(%rsp)
	movaps	%xmm0, 48(%rsp)
	movaps	%xmm0, 64(%rsp)
	movaps	%xmm0, 80(%rsp)
	movaps	%xmm0, 96(%rsp)
	movaps	%xmm0, 112(%rsp)
	movaps	%xmm0, 128(%rsp)
	movaps	%xmm0, 144(%rsp)
	movaps	%xmm0, 160(%rsp)
	movaps	%xmm0, 176(%rsp)
	movaps	%xmm0, 192(%rsp)
	movaps	%xmm0, 208(%rsp)
	movaps	%xmm0, 224(%rsp)
	movaps	%xmm0, 240(%rsp)
	movaps	%xmm0, 256(%rsp)
	movaps	%xmm0, 272(%rsp)
	call	strerror_r@PLT
	movq	%rbp, (%rbx)
	movq	%rax, %r12
	testq	%rax, %rax
	je	.L239
	movq	%rax, %rdi
	call	strlen@PLT
	movq	%rax, 24(%rsp)
	movq	%rax, %rcx
	cmpq	$15, %rax
	ja	.L240
	cmpq	$1, %rax
	jne	.L232
	movzbl	(%r12), %edx
	movb	%dl, 16(%rbx)
.L233:
	movq	%rax, 8(%rbx)
	movb	$0, 0(%rbp,%rax)
	addq	$288, %rsp
	.cfi_remember_state
	.cfi_def_cfa_offset 32
	movq	%rbx, %rax
	popq	%rbx
	.cfi_def_cfa_offset 24
	popq	%rbp
	.cfi_def_cfa_offset 16
	popq	%r12
	.cfi_def_cfa_offset 8
	ret
	.p2align 4,,10
	.p2align 3
.L240:
	.cfi_restore_state
	leaq	24(%rsp), %rsi
	xorl	%edx, %edx
	movq	%rbx, %rdi
	movq	%rax, 8(%rsp)
	call	_ZNSt7__cxx1112basic_stringIcSt11char_traitsIcESaIcEE9_M_createERmm@PLT
	movq	8(%rsp), %rcx
	movq	%rax, (%rbx)
	movq	%rax, %rbp
	movq	24(%rsp), %rax
	movq	%rax, 16(%rbx)
.L231:
	movq	%rbp, %rdi
	movq	%rcx, %rdx
	movq	%r12, %rsi
	call	memcpy@PLT
	movq	24(%rsp), %rax
	movq	(%rbx), %rbp
	jmp	.L233
	.p2align 4,,10
	.p2align 3
.L238:
	leaq	16(%rdi), %rax
	leaq	32(%rsp), %rsi
	xorl	%edx, %edx
	movq	$18, 32(%rsp)
	movq	%rax, (%rdi)
	call	_ZNSt7__cxx1112basic_stringIcSt11char_traitsIcESaIcEE9_M_createERmm@PLT
	movq	32(%rsp), %rdx
	movdqa	.LC5(%rip), %xmm0
	movq	%rax, (%rbx)
	movq	%rdx, 16(%rbx)
	movl	$11876, %edx
	movw	%dx, 16(%rax)
	movups	%xmm0, (%rax)
	movq	32(%rsp), %rax
	movq	(%rbx), %rdx
	movq	%rax, 8(%rbx)
	movb	$0, (%rdx,%rax)
	addq	$288, %rsp
	.cfi_remember_state
	.cfi_def_cfa_offset 32
	movq	%rbx, %rax
	popq	%rbx
	.cfi_def_cfa_offset 24
	popq	%rbp
	.cfi_def_cfa_offset 16
	popq	%r12
	.cfi_def_cfa_offset 8
	ret
	.p2align 4,,10
	.p2align 3
.L232:
	.cfi_restore_state
	testq	%rax, %rax
	je	.L233
	jmp	.L231
.L239:
	leaq	.LC4(%rip), %rdi
	call	_ZSt19__throw_logic_errorPKc@PLT
	.cfi_endproc
.LFE2765:
	.size	_ZNK4asio6detail15system_category7messageB5cxx11Ei, .-_ZNK4asio6detail15system_category7messageB5cxx11Ei
	.section	.text._ZNK4asio5error6detail17addrinfo_category7messageB5cxx11Ei,"axG",@progbits,_ZNK4asio5error6detail17addrinfo_category7messageB5cxx11Ei,comdat
	.align 2
	.p2align 4
	.weak	_ZNK4asio5error6detail17addrinfo_category7messageB5cxx11Ei
	.type	_ZNK4asio5error6detail17addrinfo_category7messageB5cxx11Ei, @function
_ZNK4asio5error6detail17addrinfo_category7messageB5cxx11Ei:
.LFB2819:
	.cfi_startproc
	pushq	%rbx
	.cfi_def_cfa_offset 16
	.cfi_offset 3, -16
	leaq	16(%rdi), %rax
	movq	%rdi, %rbx
	subq	$16, %rsp
	.cfi_def_cfa_offset 32
	movq	%rax, (%rdi)
	cmpl	$-8, %edx
	je	.L246
	cmpl	$-7, %edx
	je	.L247
	movq	$19, 8(%rsp)
	leaq	8(%rsp), %rsi
	xorl	%edx, %edx
	call	_ZNSt7__cxx1112basic_stringIcSt11char_traitsIcESaIcEE9_M_createERmm@PLT
	movq	8(%rsp), %rdx
	movdqa	.LC10(%rip), %xmm0
	movq	%rax, (%rbx)
	movq	%rdx, 16(%rbx)
	movups	%xmm0, (%rax)
	movl	$1919906418, 15(%rax)
	movq	8(%rsp), %rax
	movq	(%rbx), %rdx
	movq	%rax, 8(%rbx)
	movb	$0, (%rdx,%rax)
	addq	$16, %rsp
	.cfi_remember_state
	.cfi_def_cfa_offset 16
	movq	%rbx, %rax
	popq	%rbx
	.cfi_def_cfa_offset 8
	ret
	.p2align 4,,10
	.p2align 3
.L247:
	.cfi_restore_state
	movq	$25, 8(%rsp)
	leaq	8(%rsp), %rsi
	xorl	%edx, %edx
	call	_ZNSt7__cxx1112basic_stringIcSt11char_traitsIcESaIcEE9_M_createERmm@PLT
	movq	8(%rsp), %rdx
	movdqa	.LC8(%rip), %xmm0
	movq	%rax, (%rbx)
	movq	%rdx, 16(%rbx)
	movups	%xmm0, (%rax)
	movdqa	.LC9(%rip), %xmm0
	movups	%xmm0, 9(%rax)
	movq	8(%rsp), %rax
	movq	(%rbx), %rdx
	movq	%rax, 8(%rbx)
	movb	$0, (%rdx,%rax)
	addq	$16, %rsp
	.cfi_remember_state
	.cfi_def_cfa_offset 16
	movq	%rbx, %rax
	popq	%rbx
	.cfi_def_cfa_offset 8
	ret
	.p2align 4,,10
	.p2align 3
.L246:
	.cfi_restore_state
	movq	$17, 8(%rsp)
	leaq	8(%rsp), %rsi
	xorl	%edx, %edx
	call	_ZNSt7__cxx1112basic_stringIcSt11char_traitsIcESaIcEE9_M_createERmm@PLT
	movq	8(%rsp), %rdx
	movdqa	.LC7(%rip), %xmm0
	movq	%rax, (%rbx)
	movq	%rdx, 16(%rbx)
	movb	$100, 16(%rax)
	movups	%xmm0, (%rax)
	movq	8(%rsp), %rax
	movq	(%rbx), %rdx
	movq	%rax, 8(%rbx)
	movb	$0, (%rdx,%rax)
	addq	$16, %rsp
	.cfi_def_cfa_offset 16
	movq	%rbx, %rax
	popq	%rbx
	.cfi_def_cfa_offset 8
	ret
	.cfi_endproc
.LFE2819:
	.size	_ZNK4asio5error6detail17addrinfo_category7messageB5cxx11Ei, .-_ZNK4asio5error6detail17addrinfo_category7messageB5cxx11Ei
	.section	.text._ZNK4asio5error6detail14netdb_category7messageB5cxx11Ei,"axG",@progbits,_ZNK4asio5error6detail14netdb_category7messageB5cxx11Ei,comdat
	.align 2
	.p2align 4
	.weak	_ZNK4asio5error6detail14netdb_category7messageB5cxx11Ei
	.type	_ZNK4asio5error6detail14netdb_category7messageB5cxx11Ei, @function
_ZNK4asio5error6detail14netdb_category7messageB5cxx11Ei:
.LFB2809:
	.cfi_startproc
	pushq	%rbx
	.cfi_def_cfa_offset 16
	.cfi_offset 3, -16
	leaq	16(%rdi), %rax
	movq	%rdi, %rbx
	subq	$16, %rsp
	.cfi_def_cfa_offset 32
	movq	%rax, (%rdi)
	cmpl	$1, %edx
	je	.L255
	cmpl	$2, %edx
	je	.L256
	cmpl	$4, %edx
	je	.L257
	cmpl	$3, %edx
	je	.L258
	movq	$16, 8(%rsp)
	leaq	8(%rsp), %rsi
	xorl	%edx, %edx
	call	_ZNSt7__cxx1112basic_stringIcSt11char_traitsIcESaIcEE9_M_createERmm@PLT
	movq	8(%rsp), %rdx
	movdqa	.LC21(%rip), %xmm0
	movq	%rax, (%rbx)
	movq	%rdx, 16(%rbx)
	movups	%xmm0, (%rax)
	movq	8(%rsp), %rax
	movq	(%rbx), %rdx
	movq	%rax, 8(%rbx)
	movb	$0, (%rdx,%rax)
	addq	$16, %rsp
	.cfi_remember_state
	.cfi_def_cfa_offset 16
	movq	%rbx, %rax
	popq	%rbx
	.cfi_def_cfa_offset 8
	ret
	.p2align 4,,10
	.p2align 3
.L255:
	.cfi_restore_state
	movq	$30, 8(%rsp)
	leaq	8(%rsp), %rsi
	xorl	%edx, %edx
	call	_ZNSt7__cxx1112basic_stringIcSt11char_traitsIcESaIcEE9_M_createERmm@PLT
	movq	8(%rsp), %rdx
	movdqa	.LC11(%rip), %xmm0
	movq	%rax, (%rbx)
	movq	%rdx, 16(%rbx)
	movups	%xmm0, (%rax)
	movdqa	.LC12(%rip), %xmm0
	movups	%xmm0, 14(%rax)
	movq	8(%rsp), %rax
	movq	(%rbx), %rdx
	movq	%rax, 8(%rbx)
	movb	$0, (%rdx,%rax)
	addq	$16, %rsp
	.cfi_remember_state
	.cfi_def_cfa_offset 16
	movq	%rbx, %rax
	popq	%rbx
	.cfi_def_cfa_offset 8
	ret
	.p2align 4,,10
	.p2align 3
.L258:
	.cfi_restore_state
	movq	$55, 8(%rsp)
	leaq	8(%rsp), %rsi
	xorl	%edx, %edx
	call	_ZNSt7__cxx1112basic_stringIcSt11char_traitsIcESaIcEE9_M_createERmm@PLT
	movq	8(%rsp), %rdx
	movdqa	.LC18(%rip), %xmm0
	movabsq	$8103501230877974629, %rcx
	movq	%rax, (%rbx)
	movq	%rdx, 16(%rbx)
	movups	%xmm0, (%rax)
	movdqa	.LC19(%rip), %xmm0
	movups	%xmm0, 16(%rax)
	movdqa	.LC20(%rip), %xmm0
	movups	%xmm0, 32(%rax)
	movq	%rcx, 47(%rax)
	movq	8(%rsp), %rax
	movq	(%rbx), %rdx
	movq	%rax, 8(%rbx)
	movb	$0, (%rdx,%rax)
	addq	$16, %rsp
	.cfi_remember_state
	.cfi_def_cfa_offset 16
	movq	%rbx, %rax
	popq	%rbx
	.cfi_def_cfa_offset 8
	ret
	.p2align 4,,10
	.p2align 3
.L256:
	.cfi_restore_state
	movq	$51, 8(%rsp)
	leaq	8(%rsp), %rsi
	xorl	%edx, %edx
	call	_ZNSt7__cxx1112basic_stringIcSt11char_traitsIcESaIcEE9_M_createERmm@PLT
	movq	8(%rsp), %rdx
	movdqa	.LC11(%rip), %xmm0
	movq	%rax, (%rbx)
	movq	%rdx, 16(%rbx)
	movups	%xmm0, (%rax)
	movdqa	.LC13(%rip), %xmm0
	movups	%xmm0, 16(%rax)
	movdqa	.LC14(%rip), %xmm0
	movups	%xmm0, 32(%rax)
	movl	$1919251553, 47(%rax)
	movq	8(%rsp), %rax
	movq	(%rbx), %rdx
	movq	%rax, 8(%rbx)
	movb	$0, (%rdx,%rax)
	addq	$16, %rsp
	.cfi_remember_state
	.cfi_def_cfa_offset 16
	movq	%rbx, %rax
	popq	%rbx
	.cfi_def_cfa_offset 8
	ret
	.p2align 4,,10
	.p2align 3
.L257:
	.cfi_restore_state
	movq	$56, 8(%rsp)
	leaq	8(%rsp), %rsi
	xorl	%edx, %edx
	call	_ZNSt7__cxx1112basic_stringIcSt11char_traitsIcESaIcEE9_M_createERmm@PLT
	movq	8(%rsp), %rdx
	movdqa	.LC15(%rip), %xmm0
	movabsq	$7022344801645520244, %rcx
	movq	%rax, (%rbx)
	movq	%rdx, 16(%rbx)
	movups	%xmm0, (%rax)
	movdqa	.LC16(%rip), %xmm0
	movq	%rcx, 48(%rax)
	movups	%xmm0, 16(%rax)
	movdqa	.LC17(%rip), %xmm0
	movups	%xmm0, 32(%rax)
	movq	8(%rsp), %rax
	movq	(%rbx), %rdx
	movq	%rax, 8(%rbx)
	movb	$0, (%rdx,%rax)
	addq	$16, %rsp
	.cfi_def_cfa_offset 16
	movq	%rbx, %rax
	popq	%rbx
	.cfi_def_cfa_offset 8
	ret
	.cfi_endproc
.LFE2809:
	.size	_ZNK4asio5error6detail14netdb_category7messageB5cxx11Ei, .-_ZNK4asio5error6detail14netdb_category7messageB5cxx11Ei
	.section	.text._ZNK4asio5error6detail13misc_category7messageB5cxx11Ei,"axG",@progbits,_ZNK4asio5error6detail13misc_category7messageB5cxx11Ei,comdat
	.align 2
	.p2align 4
	.weak	_ZNK4asio5error6detail13misc_category7messageB5cxx11Ei
	.type	_ZNK4asio5error6detail13misc_category7messageB5cxx11Ei, @function
_ZNK4asio5error6detail13misc_category7messageB5cxx11Ei:
.LFB2829:
	.cfi_startproc
	cmpl	$1, %edx
	je	.L268
	cmpl	$2, %edx
	je	.L269
	leaq	16(%rdi), %rax
	subq	$40, %rsp
	.cfi_def_cfa_offset 48
	movq	%rax, (%rdi)
	cmpl	$3, %edx
	je	.L270
	cmpl	$4, %edx
	je	.L271
	movabsq	$8316298233121436513, %rcx
	movq	$15, 8(%rdi)
	movq	%rdi, %rax
	movq	%rcx, 16(%rdi)
	movabsq	$8245935278387127155, %rcx
	movq	%rcx, 23(%rdi)
	movb	$0, 31(%rdi)
	addq	$40, %rsp
	.cfi_def_cfa_offset 8
	ret
	.p2align 4,,10
	.p2align 3
.L268:
	leaq	16(%rdi), %rax
	movl	$1852141679, 24(%rdi)
	movabsq	$2340011850872286273, %rsi
	movq	%rax, (%rdi)
	movq	%rdi, %rax
	movq	%rsi, 16(%rdi)
	movq	$12, 8(%rdi)
	movb	$0, 28(%rdi)
	ret
	.p2align 4,,10
	.p2align 3
.L271:
	.cfi_def_cfa_offset 48
	leaq	24(%rsp), %rsi
	xorl	%edx, %edx
	movq	%rdi, 8(%rsp)
	movq	$57, 24(%rsp)
	call	_ZNSt7__cxx1112basic_stringIcSt11char_traitsIcESaIcEE9_M_createERmm@PLT
	movq	24(%rsp), %rdx
	movq	8(%rsp), %rdi
	movdqa	.LC23(%rip), %xmm0
	movq	%rax, (%rdi)
	movq	%rdx, 16(%rdi)
	movups	%xmm0, (%rax)
	movdqa	.LC24(%rip), %xmm0
	movups	%xmm0, 16(%rax)
	movdqa	.LC25(%rip), %xmm0
	movups	%xmm0, 32(%rax)
	movdqa	.LC26(%rip), %xmm0
	movups	%xmm0, 41(%rax)
	movq	24(%rsp), %rax
	movq	(%rdi), %rdx
	movq	%rax, 8(%rdi)
	movb	$0, (%rdx,%rax)
	movq	%rdi, %rax
	addq	$40, %rsp
	.cfi_def_cfa_offset 8
	ret
	.p2align 4,,10
	.p2align 3
.L269:
	leaq	16(%rdi), %rax
	movq	$11, 8(%rdi)
	movabsq	$7358994418594246213, %rsi
	movq	%rax, (%rdi)
	movq	%rdi, %rax
	movq	%rsi, 16(%rdi)
	movb	$0, 27(%rdi)
	movl	$1701603686, 23(%rdi)
	ret
	.p2align 4,,10
	.p2align 3
.L270:
	.cfi_def_cfa_offset 48
	leaq	24(%rsp), %rsi
	xorl	%edx, %edx
	movq	%rdi, 8(%rsp)
	movq	$17, 24(%rsp)
	call	_ZNSt7__cxx1112basic_stringIcSt11char_traitsIcESaIcEE9_M_createERmm@PLT
	movq	8(%rsp), %rdi
	movq	24(%rsp), %rdx
	movdqa	.LC22(%rip), %xmm0
	movq	%rax, (%rdi)
	movq	%rdx, 16(%rdi)
	movb	$100, 16(%rax)
	movups	%xmm0, (%rax)
	movq	24(%rsp), %rax
	movq	(%rdi), %rdx
	movq	%rax, 8(%rdi)
	movb	$0, (%rdx,%rax)
	movq	%rdi, %rax
	addq	$40, %rsp
	.cfi_def_cfa_offset 8
	ret
	.cfi_endproc
.LFE2829:
	.size	_ZNK4asio5error6detail13misc_category7messageB5cxx11Ei, .-_ZNK4asio5error6detail13misc_category7messageB5cxx11Ei
	.section	.text._ZN4asio6detail16thread_info_base8allocateEPS1_m,"axG",@progbits,_ZN4asio6detail16thread_info_base8allocateEPS1_m,comdat
	.p2align 4
	.weak	_ZN4asio6detail16thread_info_base8allocateEPS1_m
	.type	_ZN4asio6detail16thread_info_base8allocateEPS1_m, @function
_ZN4asio6detail16thread_info_base8allocateEPS1_m:
.LFB2592:
	.cfi_startproc
	pushq	%rbx
	.cfi_def_cfa_offset 16
	.cfi_offset 3, -16
	movq	%rsi, %rbx
	testq	%rdi, %rdi
	je	.L273
	movq	(%rdi), %rax
	testq	%rax, %rax
	je	.L273
	movq	$0, (%rdi)
	movzbl	(%rax), %ecx
	movq	%rcx, %rdx
	cmpq	%rsi, %rcx
	jb	.L274
	movb	%dl, (%rax,%rbx)
	popq	%rbx
	.cfi_remember_state
	.cfi_def_cfa_offset 8
	ret
	.p2align 4,,10
	.p2align 3
.L274:
	.cfi_restore_state
	movq	%rax, %rdi
	call	_ZdlPv@PLT
.L273:
	leaq	1(%rbx), %rdi
	call	_Znwm@PLT
	xorl	%edx, %edx
	cmpq	$256, %rbx
	cmovb	%rbx, %rdx
	movb	%dl, (%rax,%rbx)
	popq	%rbx
	.cfi_def_cfa_offset 8
	ret
	.cfi_endproc
.LFE2592:
	.size	_ZN4asio6detail16thread_info_base8allocateEPS1_m, .-_ZN4asio6detail16thread_info_base8allocateEPS1_m
	.section	.text._ZN4asio6detail14strand_service7do_postERPNS1_11strand_implEPNS0_25task_io_service_operationEb,"axG",@progbits,_ZN4asio6detail14strand_service7do_postERPNS1_11strand_implEPNS0_25task_io_service_operationEb,comdat
	.align 2
	.p2align 4
	.weak	_ZN4asio6detail14strand_service7do_postERPNS1_11strand_implEPNS0_25task_io_service_operationEb
	.type	_ZN4asio6detail14strand_service7do_postERPNS1_11strand_implEPNS0_25task_io_service_operationEb, @function
_ZN4asio6detail14strand_service7do_postERPNS1_11strand_implEPNS0_25task_io_service_operationEb:
.LFB6577:
	.cfi_startproc
	pushq	%r15
	.cfi_def_cfa_offset 16
	.cfi_offset 15, -16
	movq	%rdx, %xmm0
	movl	%ecx, %r15d
	pushq	%r14
	.cfi_def_cfa_offset 24
	.cfi_offset 14, -24
	punpcklqdq	%xmm0, %xmm0
	movq	%rdi, %r14
	pushq	%rbp
	.cfi_def_cfa_offset 32
	.cfi_offset 6, -32
	movq	%rsi, %rbp
	pushq	%rbx
	.cfi_def_cfa_offset 40
	.cfi_offset 3, -40
	movq	%rdx, %rbx
	subq	$56, %rsp
	.cfi_def_cfa_offset 96
	movq	(%rsi), %rax
	movaps	%xmm0, (%rsp)
	leaq	24(%rax), %rdi
	call	pthread_mutex_lock@PLT
	movq	0(%rbp), %rdi
	cmpb	$0, 64(%rdi)
	je	.L287
	movq	80(%rdi), %rax
	movq	$0, (%rbx)
	testq	%rax, %rax
	je	.L288
	movq	%rbx, (%rax)
	movq	%rbx, 80(%rdi)
.L289:
	addq	$24, %rdi
.L312:
	addq	$56, %rsp
	.cfi_remember_state
	.cfi_def_cfa_offset 40
	popq	%rbx
	.cfi_def_cfa_offset 32
	popq	%rbp
	.cfi_def_cfa_offset 24
	popq	%r14
	.cfi_def_cfa_offset 16
	popq	%r15
	.cfi_def_cfa_offset 8
	jmp	pthread_mutex_unlock@PLT
	.p2align 4,,10
	.p2align 3
.L288:
	.cfi_restore_state
	movdqa	(%rsp), %xmm2
	movups	%xmm2, 72(%rdi)
	jmp	.L289
	.p2align 4,,10
	.p2align 3
.L287:
	movb	$1, 64(%rdi)
	addq	$24, %rdi
	call	pthread_mutex_unlock@PLT
	movq	0(%rbp), %rbp
	movq	$0, (%rbx)
	movq	%rbp, %xmm1
	movq	96(%rbp), %rax
	punpcklqdq	%xmm1, %xmm1
	movaps	%xmm1, 16(%rsp)
	testq	%rax, %rax
	je	.L290
	movq	%rbx, (%rax)
	movq	%rbx, 96(%rbp)
.L291:
	movq	40(%r14), %rbx
	cmpb	$0, 40(%rbx)
	jne	.L303
	testb	%r15b, %r15b
	je	.L292
.L303:
	data16	leaq	_ZN4asio6detail15keyword_tss_ptrINS0_10call_stackINS0_15task_io_serviceENS0_27task_io_service_thread_infoEE7contextEE6value_E@tlsgd(%rip), %rdi
	.value	0x6666
	rex64
	call	__tls_get_addr@PLT
	movq	(%rax), %rax
	testq	%rax, %rax
	jne	.L296
	jmp	.L292
	.p2align 4
	.p2align 4,,10
	.p2align 3
.L294:
	movq	16(%rax), %rax
	testq	%rax, %rax
	je	.L292
.L296:
	cmpq	(%rax), %rbx
	jne	.L294
	movq	8(%rax), %rax
	testq	%rax, %rax
	je	.L292
	movq	16(%rax), %rdx
	addq	$1, 24(%rax)
	movq	$0, 0(%rbp)
	testq	%rdx, %rdx
	je	.L297
	movq	%rbp, (%rdx)
	movq	%rbp, 16(%rax)
.L286:
	addq	$56, %rsp
	.cfi_remember_state
	.cfi_def_cfa_offset 40
	popq	%rbx
	.cfi_def_cfa_offset 32
	popq	%rbp
	.cfi_def_cfa_offset 24
	popq	%r14
	.cfi_def_cfa_offset 16
	popq	%r15
	.cfi_def_cfa_offset 8
	ret
	.p2align 4,,10
	.p2align 3
.L292:
	.cfi_restore_state
	lock addq	$1, 184(%rbx)
	leaq	48(%rbx), %r8
	movq	%r8, %rdi
	movq	%r8, (%rsp)
	call	pthread_mutex_lock@PLT
	movq	200(%rbx), %rax
	movq	(%rsp), %r8
	movq	$0, 0(%rbp)
	testq	%rax, %rax
	je	.L299
	movq	%rbp, (%rax)
	movq	%rbp, 200(%rbx)
.L300:
	movq	136(%rbx), %rax
	movq	%rax, %rcx
	orq	$1, %rcx
	movq	%rcx, 136(%rbx)
	cmpq	$1, %rax
	jbe	.L301
	movq	%r8, %rdi
	call	pthread_mutex_unlock@PLT
	addq	$56, %rsp
	.cfi_remember_state
	.cfi_def_cfa_offset 40
	leaq	88(%rbx), %rdi
	popq	%rbx
	.cfi_def_cfa_offset 32
	popq	%rbp
	.cfi_def_cfa_offset 24
	popq	%r14
	.cfi_def_cfa_offset 16
	popq	%r15
	.cfi_def_cfa_offset 8
	jmp	pthread_cond_signal@PLT
	.p2align 4,,10
	.p2align 3
.L290:
	.cfi_restore_state
	movdqa	(%rsp), %xmm3
	movups	%xmm3, 88(%rbp)
	jmp	.L291
	.p2align 4,,10
	.p2align 3
.L301:
	cmpb	$0, 176(%rbx)
	jne	.L302
	movq	144(%rbx), %rax
	testq	%rax, %rax
	je	.L302
	leaq	88(%rax), %rdx
	movl	96(%rax), %edi
	leaq	36(%rsp), %rcx
	movq	%r8, (%rsp)
	movb	$1, 176(%rbx)
	movl	$3, %esi
	movq	%rdx, 40(%rsp)
	movl	88(%rax), %edx
	movl	$-2147483639, 36(%rsp)
	call	epoll_ctl@PLT
	movq	(%rsp), %r8
.L302:
	movq	%r8, %rdi
	jmp	.L312
	.p2align 4,,10
	.p2align 3
.L299:
	movdqa	16(%rsp), %xmm4
	movups	%xmm4, 192(%rbx)
	jmp	.L300
	.p2align 4,,10
	.p2align 3
.L297:
	movdqa	16(%rsp), %xmm5
	movups	%xmm5, 8(%rax)
	jmp	.L286
	.cfi_endproc
.LFE6577:
	.size	_ZN4asio6detail14strand_service7do_postERPNS1_11strand_implEPNS0_25task_io_service_operationEb, .-_ZN4asio6detail14strand_service7do_postERPNS1_11strand_implEPNS0_25task_io_service_operationEb
	.section	.text._ZNSt13__future_base13_State_baseV24waitEv,"axG",@progbits,_ZNSt13__future_base13_State_baseV24waitEv,comdat
	.align 2
	.p2align 4
	.weak	_ZNSt13__future_base13_State_baseV24waitEv
	.type	_ZNSt13__future_base13_State_baseV24waitEv, @function
_ZNSt13__future_base13_State_baseV24waitEv:
.LFB6837:
	.cfi_startproc
	pushq	%rbp
	.cfi_def_cfa_offset 16
	.cfi_offset 6, -16
	movq	%rdi, %rbp
	pushq	%rbx
	.cfi_def_cfa_offset 24
	.cfi_offset 3, -24
	subq	$8, %rsp
	.cfi_def_cfa_offset 32
	movq	(%rdi), %rax
	call	*16(%rax)
	movl	16(%rbp), %edx
	andl	$2147483647, %edx
	cmpl	$1, %edx
	je	.L314
	leaq	16(%rbp), %rbx
	jmp	.L315
	.p2align 4,,10
	.p2align 3
.L323:
	cmpb	$1, %al
	jne	.L314
.L315:
	lock orl	$-2147483648, (%rbx)
	xorl	%r9d, %r9d
	xorl	%r8d, %r8d
	xorl	%ecx, %ecx
	orl	$-2147483648, %edx
	movq	%rbx, %rsi
	movq	%rbx, %rdi
	call	_ZNSt28__atomic_futex_unsigned_base19_M_futex_wait_untilEPjjbNSt6chrono8durationIlSt5ratioILl1ELl1EEEENS2_IlS3_ILl1ELl1000000000EEEE@PLT
	movl	(%rbx), %edx
	andl	$2147483647, %edx
	cmpl	$1, %edx
	jne	.L323
.L314:
	movq	8(%rbp), %rax
	addq	$8, %rsp
	.cfi_def_cfa_offset 24
	popq	%rbx
	.cfi_def_cfa_offset 16
	popq	%rbp
	.cfi_def_cfa_offset 8
	ret
	.cfi_endproc
.LFE6837:
	.size	_ZNSt13__future_base13_State_baseV24waitEv, .-_ZNSt13__future_base13_State_baseV24waitEv
	.section	.rodata._ZNSt13__future_base13_State_baseV216_M_break_promiseESt10unique_ptrINS_12_Result_baseENS2_8_DeleterEE.str1.1,"aMS",@progbits,1
.LC27:
	.string	"std::future_error: "
	.section	.text._ZNSt13__future_base13_State_baseV216_M_break_promiseESt10unique_ptrINS_12_Result_baseENS2_8_DeleterEE,"axG",@progbits,_ZNSt13__future_base13_State_baseV216_M_break_promiseESt10unique_ptrINS_12_Result_baseENS2_8_DeleterEE,comdat
	.align 2
	.p2align 4
	.weak	_ZNSt13__future_base13_State_baseV216_M_break_promiseESt10unique_ptrINS_12_Result_baseENS2_8_DeleterEE
	.type	_ZNSt13__future_base13_State_baseV216_M_break_promiseESt10unique_ptrINS_12_Result_baseENS2_8_DeleterEE, @function
_ZNSt13__future_base13_State_baseV216_M_break_promiseESt10unique_ptrINS_12_Result_baseENS2_8_DeleterEE:
.LFB6865:
	.cfi_startproc
	.cfi_personality 0x9b,DW.ref.__gxx_personality_v0
	.cfi_lsda 0x1b,.LLSDA6865
	cmpq	$0, (%rsi)
	je	.L358
	pushq	%r15
	.cfi_def_cfa_offset 16
	.cfi_offset 15, -16
	pushq	%r14
	.cfi_def_cfa_offset 24
	.cfi_offset 14, -24
	pushq	%r13
	.cfi_def_cfa_offset 32
	.cfi_offset 13, -32
	pushq	%r12
	.cfi_def_cfa_offset 40
	.cfi_offset 12, -40
	pushq	%rbp
	.cfi_def_cfa_offset 48
	.cfi_offset 6, -48
	movq	%rsi, %rbp
	pushq	%rbx
	.cfi_def_cfa_offset 56
	.cfi_offset 3, -56
	movq	%rdi, %rbx
	subq	$120, %rsp
	.cfi_def_cfa_offset 176
	call	_ZSt15future_categoryv@PLT
	movl	$4, %edx
	leaq	48(%rsp), %rdi
	movq	%rax, %r14
	movq	(%rax), %rax
	movq	%r14, %rsi
.LEHB19:
	call	*32(%rax)
.LEHE19:
	movl	$19, %r8d
	xorl	%edx, %edx
	xorl	%esi, %esi
	leaq	.LC27(%rip), %rcx
	leaq	48(%rsp), %rdi
.LEHB20:
	call	_ZNSt7__cxx1112basic_stringIcSt11char_traitsIcESaIcEE10_M_replaceEmmPKcm@PLT
.LEHE20:
	leaq	96(%rsp), %rdx
	leaq	16(%rax), %rcx
	movq	%rdx, 80(%rsp)
	movq	(%rax), %rsi
	cmpq	%rcx, %rsi
	je	.L361
	movq	%rsi, 80(%rsp)
	movq	16(%rax), %rsi
	movq	%rsi, 96(%rsp)
.L334:
	movq	8(%rax), %rsi
	movq	%rcx, (%rax)
	leaq	16(%rsp), %rdi
	movq	$0, 8(%rax)
	movq	%rsi, 88(%rsp)
	leaq	80(%rsp), %rsi
	movb	$0, 16(%rax)
	movq	%rdx, 8(%rsp)
.LEHB21:
	call	_ZNSt11logic_errorC2ERKNSt7__cxx1112basic_stringIcSt11char_traitsIcESaIcEEE@PLT
.LEHE21:
	movq	80(%rsp), %rdi
	cmpq	8(%rsp), %rdi
	je	.L335
	movq	96(%rsp), %rax
	leaq	1(%rax), %rsi
	call	_ZdlPvm@PLT
.L335:
	movq	48(%rsp), %rdi
	leaq	64(%rsp), %rax
	cmpq	%rax, %rdi
	je	.L336
	movq	64(%rsp), %rax
	leaq	1(%rax), %rsi
	call	_ZdlPvm@PLT
.L336:
	movq	_ZTVSt12future_error@GOTPCREL(%rip), %rax
	movl	$32, %edi
	movq	%r14, 40(%rsp)
	movl	$4, 32(%rsp)
	leaq	16(%rax), %rcx
	movq	%rcx, 16(%rsp)
	movq	%rcx, 8(%rsp)
	call	__cxa_allocate_exception@PLT
	movq	_ZNSt15__exception_ptr12__dest_thunkISt12future_errorEEvPv@GOTPCREL(%rip), %rdx
	movq	_ZTISt12future_error@GOTPCREL(%rip), %rsi
	movq	%rax, %r14
	movq	%rax, %rdi
	call	__cxa_init_primary_exception@PLT
	leaq	16(%rsp), %rsi
	movq	%r14, %rdi
	call	_ZNSt11logic_errorC2ERKS_@PLT
	movq	8(%rsp), %rcx
	movdqa	32(%rsp), %xmm0
	movq	%r14, %rsi
	leaq	48(%rsp), %rdi
	movq	%rcx, (%r14)
	movups	%xmm0, 16(%r14)
	call	_ZNSt15__exception_ptr13exception_ptrC1EPv@PLT
	movq	0(%rbp), %rdx
	movq	48(%rsp), %rcx
	movq	$0, 48(%rsp)
	movq	8(%rdx), %rax
	movq	%rax, 80(%rsp)
	movq	%rcx, 8(%rdx)
	testq	%rax, %rax
	je	.L338
	leaq	80(%rsp), %rdi
	call	_ZNSt15__exception_ptr13exception_ptr10_M_releaseEv@PLT
	cmpq	$0, 48(%rsp)
	je	.L338
	leaq	48(%rsp), %rdi
	call	_ZNSt15__exception_ptr13exception_ptr10_M_releaseEv@PLT
.L338:
	leaq	16(%rsp), %rdi
	call	_ZNSt12future_errorD1Ev@PLT
	movq	8(%rbx), %rax
	movq	0(%rbp), %rdx
	leaq	16(%rbx), %rdi
	movq	%rdx, 8(%rbx)
	movq	%rax, 0(%rbp)
	movl	$1, %eax
	xchgl	(%rdi), %eax
	testl	%eax, %eax
	js	.L362
	addq	$120, %rsp
	.cfi_def_cfa_offset 56
	popq	%rbx
	.cfi_def_cfa_offset 48
	popq	%rbp
	.cfi_def_cfa_offset 40
	popq	%r12
	.cfi_def_cfa_offset 32
	popq	%r13
	.cfi_def_cfa_offset 24
	popq	%r14
	.cfi_def_cfa_offset 16
	popq	%r15
	.cfi_def_cfa_offset 8
	ret
	.p2align 4,,10
	.p2align 3
.L358:
	.cfi_restore 3
	.cfi_restore 6
	.cfi_restore 12
	.cfi_restore 13
	.cfi_restore 14
	.cfi_restore 15
	ret
	.p2align 4,,10
	.p2align 3
.L361:
	.cfi_def_cfa_offset 176
	.cfi_offset 3, -56
	.cfi_offset 6, -48
	.cfi_offset 12, -40
	.cfi_offset 13, -32
	.cfi_offset 14, -24
	.cfi_offset 15, -16
	movq	8(%rax), %rdi
	movq	%rdx, %r9
	leaq	1(%rdi), %rsi
	movq	%rcx, %rdi
	cmpl	$8, %esi
	jnb	.L363
.L328:
	xorl	%r8d, %r8d
	testb	$4, %sil
	jne	.L364
.L331:
	testb	$2, %sil
	jne	.L365
.L332:
	andl	$1, %esi
	je	.L334
	movzbl	(%rdi,%r8), %esi
	movb	%sil, (%r9,%r8)
	jmp	.L334
	.p2align 4,,10
	.p2align 3
.L362:
	addq	$120, %rsp
	.cfi_remember_state
	.cfi_def_cfa_offset 56
	popq	%rbx
	.cfi_restore 3
	.cfi_def_cfa_offset 48
	popq	%rbp
	.cfi_restore 6
	.cfi_def_cfa_offset 40
	popq	%r12
	.cfi_restore 12
	.cfi_def_cfa_offset 32
	popq	%r13
	.cfi_restore 13
	.cfi_def_cfa_offset 24
	popq	%r14
	.cfi_restore 14
	.cfi_def_cfa_offset 16
	popq	%r15
	.cfi_restore 15
	.cfi_def_cfa_offset 8
.LEHB22:
	jmp	_ZNSt28__atomic_futex_unsigned_base19_M_futex_notify_allEPj@PLT
	.p2align 4,,10
	.p2align 3
.L365:
	.cfi_restore_state
	movzwl	(%rdi,%r8), %r10d
	movw	%r10w, (%r9,%r8)
	addq	$2, %r8
	jmp	.L332
	.p2align 4,,10
	.p2align 3
.L364:
	movl	(%rdi), %r8d
	movl	%r8d, (%r9)
	movl	$4, %r8d
	jmp	.L331
	.p2align 4,,10
	.p2align 3
.L363:
	movl	%esi, %r9d
	xorl	%edi, %edi
	andl	$-8, %r9d
.L329:
	movl	%edi, %r8d
	addl	$8, %edi
	movq	(%rcx,%r8), %r10
	movq	%r10, (%rdx,%r8)
	cmpl	%r9d, %edi
	jb	.L329
	leaq	(%rdx,%rdi), %r9
	addq	%rcx, %rdi
	jmp	.L328
.L342:
	movq	%rax, %rbx
	jmp	.L340
.L343:
	movq	%rax, %rbx
.L339:
	leaq	80(%rsp), %rdi
	call	_ZNSt7__cxx1112basic_stringIcSt11char_traitsIcESaIcEE10_M_disposeEv@PLT
.L340:
	leaq	48(%rsp), %rdi
	call	_ZNSt7__cxx1112basic_stringIcSt11char_traitsIcESaIcEE10_M_disposeEv@PLT
	movq	%rbx, %rdi
	call	_Unwind_Resume@PLT
.LEHE22:
	.cfi_endproc
.LFE6865:
	.section	.gcc_except_table._ZNSt13__future_base13_State_baseV216_M_break_promiseESt10unique_ptrINS_12_Result_baseENS2_8_DeleterEE,"aG",@progbits,_ZNSt13__future_base13_State_baseV216_M_break_promiseESt10unique_ptrINS_12_Result_baseENS2_8_DeleterEE,comdat
.LLSDA6865:
	.byte	0xff
	.byte	0xff
	.byte	0x1
	.uleb128 .LLSDACSE6865-.LLSDACSB6865
.LLSDACSB6865:
	.uleb128 .LEHB19-.LFB6865
	.uleb128 .LEHE19-.LEHB19
	.uleb128 0
	.uleb128 0
	.uleb128 .LEHB20-.LFB6865
	.uleb128 .LEHE20-.LEHB20
	.uleb128 .L342-.LFB6865
	.uleb128 0
	.uleb128 .LEHB21-.LFB6865
	.uleb128 .LEHE21-.LEHB21
	.uleb128 .L343-.LFB6865
	.uleb128 0
	.uleb128 .LEHB22-.LFB6865
	.uleb128 .LEHE22-.LEHB22
	.uleb128 0
	.uleb128 0
.LLSDACSE6865:
	.section	.text._ZNSt13__future_base13_State_baseV216_M_break_promiseESt10unique_ptrINS_12_Result_baseENS2_8_DeleterEE,"axG",@progbits,_ZNSt13__future_base13_State_baseV216_M_break_promiseESt10unique_ptrINS_12_Result_baseENS2_8_DeleterEE,comdat
	.size	_ZNSt13__future_base13_State_baseV216_M_break_promiseESt10unique_ptrINS_12_Result_baseENS2_8_DeleterEE, .-_ZNSt13__future_base13_State_baseV216_M_break_promiseESt10unique_ptrINS_12_Result_baseENS2_8_DeleterEE
	.section	.text._ZNSt16_Sp_counted_baseILN9__gnu_cxx12_Lock_policyE2EE24_M_release_last_use_coldEv,"axG",@progbits,_ZNSt16_Sp_counted_baseILN9__gnu_cxx12_Lock_policyE2EE24_M_release_last_use_coldEv,comdat
	.align 2
	.p2align 4
	.weak	_ZNSt16_Sp_counted_baseILN9__gnu_cxx12_Lock_policyE2EE24_M_release_last_use_coldEv
	.type	_ZNSt16_Sp_counted_baseILN9__gnu_cxx12_Lock_policyE2EE24_M_release_last_use_coldEv, @function
_ZNSt16_Sp_counted_baseILN9__gnu_cxx12_Lock_policyE2EE24_M_release_last_use_coldEv:
.LFB8605:
	.cfi_startproc
	pushq	%rbx
	.cfi_def_cfa_offset 16
	.cfi_offset 3, -16
	movq	(%rdi), %rax
	movq	%rdi, %rbx
	call	*16(%rax)
	movq	__libc_single_threaded@GOTPCREL(%rip), %rax
	cmpb	$0, (%rax)
	je	.L367
	movl	12(%rbx), %eax
	leal	-1(%rax), %edx
	movl	%edx, 12(%rbx)
.L368:
	cmpl	$1, %eax
	je	.L371
	popq	%rbx
	.cfi_remember_state
	.cfi_def_cfa_offset 8
	ret
	.p2align 4,,10
	.p2align 3
.L371:
	.cfi_restore_state
	movq	(%rbx), %rax
	movq	%rbx, %rdi
	popq	%rbx
	.cfi_remember_state
	.cfi_def_cfa_offset 8
	movq	24(%rax), %rax
	jmp	*%rax
	.p2align 4,,10
	.p2align 3
.L367:
	.cfi_restore_state
	movl	$-1, %eax
	lock xaddl	%eax, 12(%rbx)
	jmp	.L368
	.cfi_endproc
.LFE8605:
	.size	_ZNSt16_Sp_counted_baseILN9__gnu_cxx12_Lock_policyE2EE24_M_release_last_use_coldEv, .-_ZNSt16_Sp_counted_baseILN9__gnu_cxx12_Lock_policyE2EE24_M_release_last_use_coldEv
	.section	.text._ZNSt16_Sp_counted_baseILN9__gnu_cxx12_Lock_policyE2EE10_M_releaseEv,"axG",@progbits,_ZNSt16_Sp_counted_baseILN9__gnu_cxx12_Lock_policyE2EE10_M_releaseEv,comdat
	.align 2
	.p2align 4
	.weak	_ZNSt16_Sp_counted_baseILN9__gnu_cxx12_Lock_policyE2EE10_M_releaseEv
	.type	_ZNSt16_Sp_counted_baseILN9__gnu_cxx12_Lock_policyE2EE10_M_releaseEv, @function
_ZNSt16_Sp_counted_baseILN9__gnu_cxx12_Lock_policyE2EE10_M_releaseEv:
.LFB1172:
	.cfi_startproc
	movabsq	$4294967297, %rax
	movq	8(%rdi), %rdx
	cmpq	%rax, %rdx
	je	.L380
	movq	__libc_single_threaded@GOTPCREL(%rip), %rax
	cmpb	$0, (%rax)
	je	.L374
	movl	8(%rdi), %eax
	leal	-1(%rax), %edx
	movl	%edx, 8(%rdi)
.L375:
	cmpl	$1, %eax
	je	.L381
	ret
	.p2align 4,,10
	.p2align 3
.L374:
	leaq	8(%rdi), %rcx
	movl	$-1, %eax
	lock xaddl	%eax, (%rcx)
	jmp	.L375
	.p2align 4,,10
	.p2align 3
.L380:
	subq	$24, %rsp
	.cfi_def_cfa_offset 32
	movq	(%rdi), %rax
	movq	$0, 8(%rdi)
	movq	%rdi, 8(%rsp)
	call	*16(%rax)
	movq	8(%rsp), %rdi
	movq	(%rdi), %rax
	movq	24(%rax), %rax
	addq	$24, %rsp
	.cfi_def_cfa_offset 8
	jmp	*%rax
	.p2align 4,,10
	.p2align 3
.L381:
	jmp	_ZNSt16_Sp_counted_baseILN9__gnu_cxx12_Lock_policyE2EE24_M_release_last_use_coldEv@PLT
	.cfi_endproc
.LFE1172:
	.size	_ZNSt16_Sp_counted_baseILN9__gnu_cxx12_Lock_policyE2EE10_M_releaseEv, .-_ZNSt16_Sp_counted_baseILN9__gnu_cxx12_Lock_policyE2EE10_M_releaseEv
	.section	.text.unlikely,"ax",@progbits
	.align 2
.LCOLDB28:
	.text
.LHOTB28:
	.align 2
	.p2align 4
	.globl	_ZN8asiodnp311MasterStack13SetLogFiltersERKN7openpal10LogFiltersE
	.type	_ZN8asiodnp311MasterStack13SetLogFiltersERKN7openpal10LogFiltersE, @function
_ZN8asiodnp311MasterStack13SetLogFiltersERKN7openpal10LogFiltersE:
.LFB8433:
	.cfi_startproc
	.cfi_personality 0x9b,DW.ref.__gxx_personality_v0
	.cfi_lsda 0x1b,.LLSDA8433
	pushq	%r14
	.cfi_def_cfa_offset 16
	.cfi_offset 14, -16
	pushq	%r12
	.cfi_def_cfa_offset 24
	.cfi_offset 12, -24
	pushq	%rbp
	.cfi_def_cfa_offset 32
	.cfi_offset 6, -32
	pushq	%rbx
	.cfi_def_cfa_offset 40
	.cfi_offset 3, -40
	subq	$40, %rsp
	.cfi_def_cfa_offset 80
	movq	48(%rdi), %rbx
	testq	%rbx, %rbx
	je	.L384
	movl	8(%rbx), %eax
	leaq	8(%rbx), %rdx
.L386:
	testl	%eax, %eax
	je	.L384
	leal	1(%rax), %ecx
	lock cmpxchgl	%ecx, (%rdx)
	jne	.L386
	movq	__libc_single_threaded@GOTPCREL(%rip), %rdx
	movq	40(%rdi), %r14
	movl	(%rsi), %eax
	movq	88(%rdi), %rbp
	cmpb	$0, (%rdx)
	je	.L409
	addl	$1, 8(%rbx)
.L387:
	movl	%eax, 16(%rsp)
	movq	40(%rbp), %r12
	data16	leaq	_ZN4asio6detail15keyword_tss_ptrINS0_10call_stackINS0_15task_io_serviceENS0_27task_io_service_thread_infoEE7contextEE6value_E@tlsgd(%rip), %rdi
	.value	0x6666
	rex64
	call	__tls_get_addr@PLT
	movq	(%rax), %rax
	testq	%rax, %rax
	je	.L388
	movq	8(%rax), %rax
	testq	%rax, %rax
	je	.L388
	movq	(%rax), %rdx
	testq	%rdx, %rdx
	je	.L388
	movq	$0, (%rax)
	movzbl	(%rdx), %eax
	cmpb	$47, %al
	jbe	.L389
	movb	%al, 48(%rdx)
	jmp	.L390
	.p2align 4,,10
	.p2align 3
.L389:
	movq	%rdx, %rdi
	call	_ZdlPv@PLT
.L388:
	movl	$49, %edi
.LEHB23:
	call	_Znwm@PLT
.LEHE23:
	movb	$48, 48(%rax)
	movq	%rax, %rdx
.L390:
	movq	%rbx, %xmm1
	movq	%r14, %xmm0
	movq	%r12, %rdi
	xorl	%ecx, %ecx
	leaq	_ZN4asio6detail18completion_handlerIZN8asiodnp311MasterStack13SetLogFiltersERKN7openpal10LogFiltersEEUlvE_E11do_completeEPNS0_15task_io_serviceEPNS0_25task_io_service_operationERKSt10error_codem(%rip), %rax
	movq	$0, (%rdx)
	punpcklqdq	%xmm1, %xmm0
	leaq	48(%rbp), %rsi
	movq	%rax, 8(%rdx)
	movl	16(%rsp), %eax
	movl	$0, 16(%rdx)
	movl	%eax, 40(%rdx)
	movups	%xmm0, 24(%rdx)
	call	_ZN4asio6detail14strand_service7do_postERPNS1_11strand_implEPNS0_25task_io_service_operationEb@PLT
	addq	$40, %rsp
	.cfi_remember_state
	.cfi_def_cfa_offset 40
	movq	%rbx, %rdi
	popq	%rbx
	.cfi_def_cfa_offset 32
	popq	%rbp
	.cfi_def_cfa_offset 24
	popq	%r12
	.cfi_def_cfa_offset 16
	popq	%r14
	.cfi_def_cfa_offset 8
.LEHB24:
	jmp	_ZNSt16_Sp_counted_baseILN9__gnu_cxx12_Lock_policyE2EE10_M_releaseEv@PLT
.LEHE24:
	.p2align 4,,10
	.p2align 3
.L409:
	.cfi_restore_state
	lock addl	$1, 8(%rbx)
	jmp	.L387
.L394:
	movq	%rax, %rbp
	jmp	.L391
	.section	.gcc_except_table,"a",@progbits
.LLSDA8433:
	.byte	0xff
	.byte	0xff
	.byte	0x1
	.uleb128 .LLSDACSE8433-.LLSDACSB8433
.LLSDACSB8433:
	.uleb128 .LEHB23-.LFB8433
	.uleb128 .LEHE23-.LEHB23
	.uleb128 .L394-.LFB8433
	.uleb128 0
	.uleb128 .LEHB24-.LFB8433
	.uleb128 .LEHE24-.LEHB24
	.uleb128 0
	.uleb128 0
.LLSDACSE8433:
	.text
	.cfi_endproc
	.section	.text.unlikely
	.cfi_startproc
	.cfi_personality 0x9b,DW.ref.__gxx_personality_v0
	.cfi_lsda 0x1b,.LLSDAC8433
	.type	_ZN8asiodnp311MasterStack13SetLogFiltersERKN7openpal10LogFiltersE.cold, @function
_ZN8asiodnp311MasterStack13SetLogFiltersERKN7openpal10LogFiltersE.cold:
.LFSB8433:
.L384:
	.cfi_def_cfa_offset 80
	.cfi_offset 3, -40
	.cfi_offset 6, -32
	.cfi_offset 12, -24
	.cfi_offset 14, -16
	movl	$8, %edi
	call	__cxa_allocate_exception@PLT
	movq	_ZTVSt12bad_weak_ptr@GOTPCREL(%rip), %rdx
	movq	_ZTISt12bad_weak_ptr@GOTPCREL(%rip), %rsi
	movq	%rax, %rdi
	addq	$16, %rdx
	movq	%rdx, (%rax)
	movq	_ZNSt12bad_weak_ptrD1Ev@GOTPCREL(%rip), %rdx
.LEHB25:
	call	__cxa_throw@PLT
.L391:
	movq	%rbx, %rdi
	call	_ZNSt16_Sp_counted_baseILN9__gnu_cxx12_Lock_policyE2EE10_M_releaseEv@PLT
	movq	%rbx, %rdi
	call	_ZNSt16_Sp_counted_baseILN9__gnu_cxx12_Lock_policyE2EE10_M_releaseEv@PLT
	movq	%rbp, %rdi
	call	_Unwind_Resume@PLT
.LEHE25:
	.cfi_endproc
.LFE8433:
	.section	.gcc_except_table
.LLSDAC8433:
	.byte	0xff
	.byte	0xff
	.byte	0x1
	.uleb128 .LLSDACSEC8433-.LLSDACSBC8433
.LLSDACSBC8433:
	.uleb128 .LEHB25-.LCOLDB28
	.uleb128 .LEHE25-.LEHB25
	.uleb128 0
	.uleb128 0
.LLSDACSEC8433:
	.section	.text.unlikely
	.text
	.size	_ZN8asiodnp311MasterStack13SetLogFiltersERKN7openpal10LogFiltersE, .-_ZN8asiodnp311MasterStack13SetLogFiltersERKN7openpal10LogFiltersE
	.section	.text.unlikely
	.size	_ZN8asiodnp311MasterStack13SetLogFiltersERKN7openpal10LogFiltersE.cold, .-_ZN8asiodnp311MasterStack13SetLogFiltersERKN7openpal10LogFiltersE.cold
.LCOLDE28:
	.text
.LHOTE28:
	.section	.text.unlikely
	.align 2
.LCOLDB29:
	.text
.LHOTB29:
	.align 2
	.p2align 4
	.globl	_ZN8asiodnp311MasterStack14ScanAllObjectsEN8opendnp316GroupVariationIDERKNS1_10TaskConfigE
	.type	_ZN8asiodnp311MasterStack14ScanAllObjectsEN8opendnp316GroupVariationIDERKNS1_10TaskConfigE, @function
_ZN8asiodnp311MasterStack14ScanAllObjectsEN8opendnp316GroupVariationIDERKNS1_10TaskConfigE:
.LFB8516:
	.cfi_startproc
	.cfi_personality 0x9b,DW.ref.__gxx_personality_v0
	.cfi_lsda 0x1b,.LLSDA8516
	pushq	%r14
	.cfi_def_cfa_offset 16
	.cfi_offset 14, -16
	pushq	%r12
	.cfi_def_cfa_offset 24
	.cfi_offset 12, -24
	pushq	%rbp
	.cfi_def_cfa_offset 32
	.cfi_offset 6, -32
	pushq	%rbx
	.cfi_def_cfa_offset 40
	.cfi_offset 3, -40
	subq	$56, %rsp
	.cfi_def_cfa_offset 96
	movq	48(%rdi), %rbx
	testq	%rbx, %rbx
	je	.L412
	movl	8(%rbx), %eax
	leaq	8(%rbx), %rcx
.L414:
	testl	%eax, %eax
	je	.L412
	leal	1(%rax), %r8d
	lock cmpxchgl	%r8d, (%rcx)
	jne	.L414
	movq	40(%rdi), %r14
	movq	88(%rdi), %rbp
	movq	__libc_single_threaded@GOTPCREL(%rip), %rdi
	movl	(%rdx), %ecx
	movzbl	4(%rdx), %eax
	movq	8(%rdx), %rdx
	cmpb	$0, (%rdi)
	je	.L437
	addl	$1, 8(%rbx)
.L415:
	movw	%si, 16(%rsp)
	movq	40(%rbp), %r12
	movl	%ecx, 24(%rsp)
	movb	%al, 28(%rsp)
	movq	%rdx, 32(%rsp)
	data16	leaq	_ZN4asio6detail15keyword_tss_ptrINS0_10call_stackINS0_15task_io_serviceENS0_27task_io_service_thread_infoEE7contextEE6value_E@tlsgd(%rip), %rdi
	.value	0x6666
	rex64
	call	__tls_get_addr@PLT
	movq	(%rax), %rax
	testq	%rax, %rax
	je	.L416
	movq	8(%rax), %rax
	testq	%rax, %rax
	je	.L416
	movq	(%rax), %rdx
	testq	%rdx, %rdx
	je	.L416
	movq	$0, (%rax)
	movzbl	(%rdx), %eax
	cmpb	$63, %al
	jbe	.L417
	movb	%al, 64(%rdx)
	jmp	.L418
	.p2align 4,,10
	.p2align 3
.L417:
	movq	%rdx, %rdi
	call	_ZdlPv@PLT
.L416:
	movl	$65, %edi
.LEHB26:
	call	_Znwm@PLT
.LEHE26:
	movb	$64, 64(%rax)
	movq	%rax, %rdx
.L418:
	movq	%rbx, %xmm1
	movq	%r14, %xmm0
	movq	%r12, %rdi
	xorl	%ecx, %ecx
	leaq	_ZN4asio6detail18completion_handlerIZN8asiodnp311MasterStack14ScanAllObjectsEN8opendnp316GroupVariationIDERKNS4_10TaskConfigEEUlvE_E11do_completeEPNS0_15task_io_serviceEPNS0_25task_io_service_operationERKSt10error_codem(%rip), %rax
	punpcklqdq	%xmm1, %xmm0
	leaq	48(%rbp), %rsi
	movq	$0, (%rdx)
	movq	%rax, 8(%rdx)
	movzwl	16(%rsp), %eax
	movups	%xmm0, 24(%rdx)
	movdqu	24(%rsp), %xmm0
	movl	$0, 16(%rdx)
	movw	%ax, 40(%rdx)
	movups	%xmm0, 48(%rdx)
	call	_ZN4asio6detail14strand_service7do_postERPNS1_11strand_implEPNS0_25task_io_service_operationEb@PLT
	addq	$56, %rsp
	.cfi_remember_state
	.cfi_def_cfa_offset 40
	movq	%rbx, %rdi
	popq	%rbx
	.cfi_def_cfa_offset 32
	popq	%rbp
	.cfi_def_cfa_offset 24
	popq	%r12
	.cfi_def_cfa_offset 16
	popq	%r14
	.cfi_def_cfa_offset 8
.LEHB27:
	jmp	_ZNSt16_Sp_counted_baseILN9__gnu_cxx12_Lock_policyE2EE10_M_releaseEv@PLT
.LEHE27:
	.p2align 4,,10
	.p2align 3
.L437:
	.cfi_restore_state
	lock addl	$1, 8(%rbx)
	jmp	.L415
.L422:
	movq	%rax, %rbp
	jmp	.L419
	.section	.gcc_except_table
.LLSDA8516:
	.byte	0xff
	.byte	0xff
	.byte	0x1
	.uleb128 .LLSDACSE8516-.LLSDACSB8516
.LLSDACSB8516:
	.uleb128 .LEHB26-.LFB8516
	.uleb128 .LEHE26-.LEHB26
	.uleb128 .L422-.LFB8516
	.uleb128 0
	.uleb128 .LEHB27-.LFB8516
	.uleb128 .LEHE27-.LEHB27
	.uleb128 0
	.uleb128 0
.LLSDACSE8516:
	.text
	.cfi_endproc
	.section	.text.unlikely
	.cfi_startproc
	.cfi_personality 0x9b,DW.ref.__gxx_personality_v0
	.cfi_lsda 0x1b,.LLSDAC8516
	.type	_ZN8asiodnp311MasterStack14ScanAllObjectsEN8opendnp316GroupVariationIDERKNS1_10TaskConfigE.cold, @function
_ZN8asiodnp311MasterStack14ScanAllObjectsEN8opendnp316GroupVariationIDERKNS1_10TaskConfigE.cold:
.LFSB8516:
.L412:
	.cfi_def_cfa_offset 96
	.cfi_offset 3, -40
	.cfi_offset 6, -32
	.cfi_offset 12, -24
	.cfi_offset 14, -16
	movl	$8, %edi
	call	__cxa_allocate_exception@PLT
	movq	_ZTVSt12bad_weak_ptr@GOTPCREL(%rip), %rdx
	movq	_ZTISt12bad_weak_ptr@GOTPCREL(%rip), %rsi
	movq	%rax, %rdi
	addq	$16, %rdx
	movq	%rdx, (%rax)
	movq	_ZNSt12bad_weak_ptrD1Ev@GOTPCREL(%rip), %rdx
.LEHB28:
	call	__cxa_throw@PLT
.L419:
	movq	%rbx, %rdi
	call	_ZNSt16_Sp_counted_baseILN9__gnu_cxx12_Lock_policyE2EE10_M_releaseEv@PLT
	movq	%rbx, %rdi
	call	_ZNSt16_Sp_counted_baseILN9__gnu_cxx12_Lock_policyE2EE10_M_releaseEv@PLT
	movq	%rbp, %rdi
	call	_Unwind_Resume@PLT
.LEHE28:
	.cfi_endproc
.LFE8516:
	.section	.gcc_except_table
.LLSDAC8516:
	.byte	0xff
	.byte	0xff
	.byte	0x1
	.uleb128 .LLSDACSEC8516-.LLSDACSBC8516
.LLSDACSBC8516:
	.uleb128 .LEHB28-.LCOLDB29
	.uleb128 .LEHE28-.LEHB28
	.uleb128 0
	.uleb128 0
.LLSDACSEC8516:
	.section	.text.unlikely
	.text
	.size	_ZN8asiodnp311MasterStack14ScanAllObjectsEN8opendnp316GroupVariationIDERKNS1_10TaskConfigE, .-_ZN8asiodnp311MasterStack14ScanAllObjectsEN8opendnp316GroupVariationIDERKNS1_10TaskConfigE
	.section	.text.unlikely
	.size	_ZN8asiodnp311MasterStack14ScanAllObjectsEN8opendnp316GroupVariationIDERKNS1_10TaskConfigE.cold, .-_ZN8asiodnp311MasterStack14ScanAllObjectsEN8opendnp316GroupVariationIDERKNS1_10TaskConfigE.cold
.LCOLDE29:
	.text
.LHOTE29:
	.section	.text.unlikely
	.align 2
.LCOLDB30:
	.text
.LHOTB30:
	.align 2
	.p2align 4
	.globl	_ZN8asiodnp311MasterStack11ScanClassesERKN8opendnp310ClassFieldERKNS1_10TaskConfigE
	.type	_ZN8asiodnp311MasterStack11ScanClassesERKN8opendnp310ClassFieldERKNS1_10TaskConfigE, @function
_ZN8asiodnp311MasterStack11ScanClassesERKN8opendnp310ClassFieldERKNS1_10TaskConfigE:
.LFB8524:
	.cfi_startproc
	.cfi_personality 0x9b,DW.ref.__gxx_personality_v0
	.cfi_lsda 0x1b,.LLSDA8524
	pushq	%r14
	.cfi_def_cfa_offset 16
	.cfi_offset 14, -16
	pushq	%r12
	.cfi_def_cfa_offset 24
	.cfi_offset 12, -24
	pushq	%rbp
	.cfi_def_cfa_offset 32
	.cfi_offset 6, -32
	pushq	%rbx
	.cfi_def_cfa_offset 40
	.cfi_offset 3, -40
	subq	$56, %rsp
	.cfi_def_cfa_offset 96
	movq	48(%rdi), %rbx
	testq	%rbx, %rbx
	je	.L440
	movl	8(%rbx), %eax
	leaq	8(%rbx), %rcx
.L442:
	testl	%eax, %eax
	je	.L440
	leal	1(%rax), %r8d
	lock cmpxchgl	%r8d, (%rcx)
	jne	.L442
	movzbl	(%rsi), %r8d
	movzbl	4(%rdx), %ecx
	movl	(%rdx), %esi
	movq	8(%rdx), %rax
	movq	__libc_single_threaded@GOTPCREL(%rip), %rdx
	movq	40(%rdi), %r14
	movq	88(%rdi), %rbp
	cmpb	$0, (%rdx)
	je	.L465
	addl	$1, 8(%rbx)
.L443:
	movb	%r8b, 16(%rsp)
	movq	40(%rbp), %r12
	movl	%esi, 24(%rsp)
	movb	%cl, 28(%rsp)
	movq	%rax, 32(%rsp)
	data16	leaq	_ZN4asio6detail15keyword_tss_ptrINS0_10call_stackINS0_15task_io_serviceENS0_27task_io_service_thread_infoEE7contextEE6value_E@tlsgd(%rip), %rdi
	.value	0x6666
	rex64
	call	__tls_get_addr@PLT
	movq	(%rax), %rax
	testq	%rax, %rax
	je	.L444
	movq	8(%rax), %rax
	testq	%rax, %rax
	je	.L444
	movq	(%rax), %rdx
	testq	%rdx, %rdx
	je	.L444
	movq	$0, (%rax)
	movzbl	(%rdx), %eax
	cmpb	$63, %al
	jbe	.L445
	movb	%al, 64(%rdx)
	jmp	.L446
	.p2align 4,,10
	.p2align 3
.L445:
	movq	%rdx, %rdi
	call	_ZdlPv@PLT
.L444:
	movl	$65, %edi
.LEHB29:
	call	_Znwm@PLT
.LEHE29:
	movb	$64, 64(%rax)
	movq	%rax, %rdx
.L446:
	movq	%rbx, %xmm1
	movq	%r14, %xmm0
	movq	%r12, %rdi
	xorl	%ecx, %ecx
	leaq	_ZN4asio6detail18completion_handlerIZN8asiodnp311MasterStack11ScanClassesERKN8opendnp310ClassFieldERKNS4_10TaskConfigEEUlvE_E11do_completeEPNS0_15task_io_serviceEPNS0_25task_io_service_operationERKSt10error_codem(%rip), %rax
	punpcklqdq	%xmm1, %xmm0
	leaq	48(%rbp), %rsi
	movq	$0, (%rdx)
	movq	%rax, 8(%rdx)
	movzbl	16(%rsp), %eax
	movups	%xmm0, 24(%rdx)
	movdqu	24(%rsp), %xmm0
	movl	$0, 16(%rdx)
	movb	%al, 40(%rdx)
	movups	%xmm0, 48(%rdx)
	call	_ZN4asio6detail14strand_service7do_postERPNS1_11strand_implEPNS0_25task_io_service_operationEb@PLT
	addq	$56, %rsp
	.cfi_remember_state
	.cfi_def_cfa_offset 40
	movq	%rbx, %rdi
	popq	%rbx
	.cfi_def_cfa_offset 32
	popq	%rbp
	.cfi_def_cfa_offset 24
	popq	%r12
	.cfi_def_cfa_offset 16
	popq	%r14
	.cfi_def_cfa_offset 8
.LEHB30:
	jmp	_ZNSt16_Sp_counted_baseILN9__gnu_cxx12_Lock_policyE2EE10_M_releaseEv@PLT
.LEHE30:
	.p2align 4,,10
	.p2align 3
.L465:
	.cfi_restore_state
	lock addl	$1, 8(%rbx)
	jmp	.L443
.L450:
	movq	%rax, %rbp
	jmp	.L447
	.section	.gcc_except_table
.LLSDA8524:
	.byte	0xff
	.byte	0xff
	.byte	0x1
	.uleb128 .LLSDACSE8524-.LLSDACSB8524
.LLSDACSB8524:
	.uleb128 .LEHB29-.LFB8524
	.uleb128 .LEHE29-.LEHB29
	.uleb128 .L450-.LFB8524
	.uleb128 0
	.uleb128 .LEHB30-.LFB8524
	.uleb128 .LEHE30-.LEHB30
	.uleb128 0
	.uleb128 0
.LLSDACSE8524:
	.text
	.cfi_endproc
	.section	.text.unlikely
	.cfi_startproc
	.cfi_personality 0x9b,DW.ref.__gxx_personality_v0
	.cfi_lsda 0x1b,.LLSDAC8524
	.type	_ZN8asiodnp311MasterStack11ScanClassesERKN8opendnp310ClassFieldERKNS1_10TaskConfigE.cold, @function
_ZN8asiodnp311MasterStack11ScanClassesERKN8opendnp310ClassFieldERKNS1_10TaskConfigE.cold:
.LFSB8524:
.L440:
	.cfi_def_cfa_offset 96
	.cfi_offset 3, -40
	.cfi_offset 6, -32
	.cfi_offset 12, -24
	.cfi_offset 14, -16
	movl	$8, %edi
	call	__cxa_allocate_exception@PLT
	movq	_ZTVSt12bad_weak_ptr@GOTPCREL(%rip), %rdx
	movq	_ZTISt12bad_weak_ptr@GOTPCREL(%rip), %rsi
	movq	%rax, %rdi
	addq	$16, %rdx
	movq	%rdx, (%rax)
	movq	_ZNSt12bad_weak_ptrD1Ev@GOTPCREL(%rip), %rdx
.LEHB31:
	call	__cxa_throw@PLT
.L447:
	movq	%rbx, %rdi
	call	_ZNSt16_Sp_counted_baseILN9__gnu_cxx12_Lock_policyE2EE10_M_releaseEv@PLT
	movq	%rbx, %rdi
	call	_ZNSt16_Sp_counted_baseILN9__gnu_cxx12_Lock_policyE2EE10_M_releaseEv@PLT
	movq	%rbp, %rdi
	call	_Unwind_Resume@PLT
.LEHE31:
	.cfi_endproc
.LFE8524:
	.section	.gcc_except_table
.LLSDAC8524:
	.byte	0xff
	.byte	0xff
	.byte	0x1
	.uleb128 .LLSDACSEC8524-.LLSDACSBC8524
.LLSDACSBC8524:
	.uleb128 .LEHB31-.LCOLDB30
	.uleb128 .LEHE31-.LEHB31
	.uleb128 0
	.uleb128 0
.LLSDACSEC8524:
	.section	.text.unlikely
	.text
	.size	_ZN8asiodnp311MasterStack11ScanClassesERKN8opendnp310ClassFieldERKNS1_10TaskConfigE, .-_ZN8asiodnp311MasterStack11ScanClassesERKN8opendnp310ClassFieldERKNS1_10TaskConfigE
	.section	.text.unlikely
	.size	_ZN8asiodnp311MasterStack11ScanClassesERKN8opendnp310ClassFieldERKNS1_10TaskConfigE.cold, .-_ZN8asiodnp311MasterStack11ScanClassesERKN8opendnp310ClassFieldERKNS1_10TaskConfigE.cold
.LCOLDE30:
	.text
.LHOTE30:
	.section	.text.unlikely
	.align 2
.LCOLDB31:
	.text
.LHOTB31:
	.align 2
	.p2align 4
	.globl	_ZN8asiodnp311MasterStack9ScanRangeEN8opendnp316GroupVariationIDEttRKNS1_10TaskConfigE
	.type	_ZN8asiodnp311MasterStack9ScanRangeEN8opendnp316GroupVariationIDEttRKNS1_10TaskConfigE, @function
_ZN8asiodnp311MasterStack9ScanRangeEN8opendnp316GroupVariationIDEttRKNS1_10TaskConfigE:
.LFB8532:
	.cfi_startproc
	.cfi_personality 0x9b,DW.ref.__gxx_personality_v0
	.cfi_lsda 0x1b,.LLSDA8532
	pushq	%r15
	.cfi_def_cfa_offset 16
	.cfi_offset 15, -16
	pushq	%r14
	.cfi_def_cfa_offset 24
	.cfi_offset 14, -24
	pushq	%r13
	.cfi_def_cfa_offset 32
	.cfi_offset 13, -32
	pushq	%r12
	.cfi_def_cfa_offset 40
	.cfi_offset 12, -40
	pushq	%rbp
	.cfi_def_cfa_offset 48
	.cfi_offset 6, -48
	pushq	%rbx
	.cfi_def_cfa_offset 56
	.cfi_offset 3, -56
	subq	$56, %rsp
	.cfi_def_cfa_offset 112
	movq	48(%rdi), %rbx
	testq	%rbx, %rbx
	je	.L468
	movl	8(%rbx), %eax
	movl	%edx, %r12d
	movl	%ecx, %r13d
	leaq	8(%rbx), %rdx
.L470:
	testl	%eax, %eax
	je	.L468
	leal	1(%rax), %ecx
	lock cmpxchgl	%ecx, (%rdx)
	jne	.L470
	movq	40(%rdi), %r15
	movq	88(%rdi), %rbp
	movq	__libc_single_threaded@GOTPCREL(%rip), %rdi
	movl	(%r8), %ecx
	movzbl	4(%r8), %edx
	movq	8(%r8), %rax
	cmpb	$0, (%rdi)
	je	.L493
	addl	$1, 8(%rbx)
.L471:
	movw	%si, 16(%rsp)
	movq	40(%rbp), %r14
	movl	%ecx, 24(%rsp)
	movb	%dl, 28(%rsp)
	movq	%rax, 32(%rsp)
	data16	leaq	_ZN4asio6detail15keyword_tss_ptrINS0_10call_stackINS0_15task_io_serviceENS0_27task_io_service_thread_infoEE7contextEE6value_E@tlsgd(%rip), %rdi
	.value	0x6666
	rex64
	call	__tls_get_addr@PLT
	movq	(%rax), %rax
	testq	%rax, %rax
	je	.L472
	movq	8(%rax), %rax
	testq	%rax, %rax
	je	.L472
	movq	(%rax), %rdx
	testq	%rdx, %rdx
	je	.L472
	movq	$0, (%rax)
	movzbl	(%rdx), %eax
	cmpb	$63, %al
	jbe	.L473
	movb	%al, 64(%rdx)
	jmp	.L474
	.p2align 4,,10
	.p2align 3
.L473:
	movq	%rdx, %rdi
	call	_ZdlPv@PLT
.L472:
	movl	$65, %edi
.LEHB32:
	call	_Znwm@PLT
.LEHE32:
	movb	$64, 64(%rax)
	movq	%rax, %rdx
.L474:
	movq	%rbx, %xmm1
	movq	%r15, %xmm0
	movq	%r14, %rdi
	xorl	%ecx, %ecx
	leaq	_ZN4asio6detail18completion_handlerIZN8asiodnp311MasterStack9ScanRangeEN8opendnp316GroupVariationIDEttRKNS4_10TaskConfigEEUlvE_E11do_completeEPNS0_15task_io_serviceEPNS0_25task_io_service_operationERKSt10error_codem(%rip), %rax
	punpcklqdq	%xmm1, %xmm0
	leaq	48(%rbp), %rsi
	movw	%r12w, 42(%rdx)
	movq	%rax, 8(%rdx)
	movzwl	16(%rsp), %eax
	movw	%r13w, 44(%rdx)
	movups	%xmm0, 24(%rdx)
	movdqu	24(%rsp), %xmm0
	movq	$0, (%rdx)
	movl	$0, 16(%rdx)
	movw	%ax, 40(%rdx)
	movups	%xmm0, 48(%rdx)
	call	_ZN4asio6detail14strand_service7do_postERPNS1_11strand_implEPNS0_25task_io_service_operationEb@PLT
	addq	$56, %rsp
	.cfi_remember_state
	.cfi_def_cfa_offset 56
	movq	%rbx, %rdi
	popq	%rbx
	.cfi_def_cfa_offset 48
	popq	%rbp
	.cfi_def_cfa_offset 40
	popq	%r12
	.cfi_def_cfa_offset 32
	popq	%r13
	.cfi_def_cfa_offset 24
	popq	%r14
	.cfi_def_cfa_offset 16
	popq	%r15
	.cfi_def_cfa_offset 8
.LEHB33:
	jmp	_ZNSt16_Sp_counted_baseILN9__gnu_cxx12_Lock_policyE2EE10_M_releaseEv@PLT
.LEHE33:
	.p2align 4,,10
	.p2align 3
.L493:
	.cfi_restore_state
	lock addl	$1, 8(%rbx)
	jmp	.L471
.L478:
	movq	%rax, %rbp
	jmp	.L475
	.section	.gcc_except_table
.LLSDA8532:
	.byte	0xff
	.byte	0xff
	.byte	0x1
	.uleb128 .LLSDACSE8532-.LLSDACSB8532
.LLSDACSB8532:
	.uleb128 .LEHB32-.LFB8532
	.uleb128 .LEHE32-.LEHB32
	.uleb128 .L478-.LFB8532
	.uleb128 0
	.uleb128 .LEHB33-.LFB8532
	.uleb128 .LEHE33-.LEHB33
	.uleb128 0
	.uleb128 0
.LLSDACSE8532:
	.text
	.cfi_endproc
	.section	.text.unlikely
	.cfi_startproc
	.cfi_personality 0x9b,DW.ref.__gxx_personality_v0
	.cfi_lsda 0x1b,.LLSDAC8532
	.type	_ZN8asiodnp311MasterStack9ScanRangeEN8opendnp316GroupVariationIDEttRKNS1_10TaskConfigE.cold, @function
_ZN8asiodnp311MasterStack9ScanRangeEN8opendnp316GroupVariationIDEttRKNS1_10TaskConfigE.cold:
.LFSB8532:
.L468:
	.cfi_def_cfa_offset 112
	.cfi_offset 3, -56
	.cfi_offset 6, -48
	.cfi_offset 12, -40
	.cfi_offset 13, -32
	.cfi_offset 14, -24
	.cfi_offset 15, -16
	movl	$8, %edi
	call	__cxa_allocate_exception@PLT
	movq	_ZTVSt12bad_weak_ptr@GOTPCREL(%rip), %rdx
	movq	_ZTISt12bad_weak_ptr@GOTPCREL(%rip), %rsi
	movq	%rax, %rdi
	addq	$16, %rdx
	movq	%rdx, (%rax)
	movq	_ZNSt12bad_weak_ptrD1Ev@GOTPCREL(%rip), %rdx
.LEHB34:
	call	__cxa_throw@PLT
.L475:
	movq	%rbx, %rdi
	call	_ZNSt16_Sp_counted_baseILN9__gnu_cxx12_Lock_policyE2EE10_M_releaseEv@PLT
	movq	%rbx, %rdi
	call	_ZNSt16_Sp_counted_baseILN9__gnu_cxx12_Lock_policyE2EE10_M_releaseEv@PLT
	movq	%rbp, %rdi
	call	_Unwind_Resume@PLT
.LEHE34:
	.cfi_endproc
.LFE8532:
	.section	.gcc_except_table
.LLSDAC8532:
	.byte	0xff
	.byte	0xff
	.byte	0x1
	.uleb128 .LLSDACSEC8532-.LLSDACSBC8532
.LLSDACSBC8532:
	.uleb128 .LEHB34-.LCOLDB31
	.uleb128 .LEHE34-.LEHB34
	.uleb128 0
	.uleb128 0
.LLSDACSEC8532:
	.section	.text.unlikely
	.text
	.size	_ZN8asiodnp311MasterStack9ScanRangeEN8opendnp316GroupVariationIDEttRKNS1_10TaskConfigE, .-_ZN8asiodnp311MasterStack9ScanRangeEN8opendnp316GroupVariationIDEttRKNS1_10TaskConfigE
	.section	.text.unlikely
	.size	_ZN8asiodnp311MasterStack9ScanRangeEN8opendnp316GroupVariationIDEttRKNS1_10TaskConfigE.cold, .-_ZN8asiodnp311MasterStack9ScanRangeEN8opendnp316GroupVariationIDEttRKNS1_10TaskConfigE.cold
.LCOLDE31:
	.text
.LHOTE31:
	.section	.text.unlikely
	.align 2
.LCOLDB32:
	.text
.LHOTB32:
	.align 2
	.p2align 4
	.globl	_ZN8asiodnp311MasterStack5WriteERKN8opendnp315TimeAndIntervalEtRKNS1_10TaskConfigE
	.type	_ZN8asiodnp311MasterStack5WriteERKN8opendnp315TimeAndIntervalEtRKNS1_10TaskConfigE, @function
_ZN8asiodnp311MasterStack5WriteERKN8opendnp315TimeAndIntervalEtRKNS1_10TaskConfigE:
.LFB8540:
	.cfi_startproc
	.cfi_personality 0x9b,DW.ref.__gxx_personality_v0
	.cfi_lsda 0x1b,.LLSDA8540
	pushq	%r14
	.cfi_def_cfa_offset 16
	.cfi_offset 14, -16
	pushq	%r13
	.cfi_def_cfa_offset 24
	.cfi_offset 13, -24
	pushq	%r12
	.cfi_def_cfa_offset 32
	.cfi_offset 12, -32
	pushq	%rbp
	.cfi_def_cfa_offset 40
	.cfi_offset 6, -40
	pushq	%rbx
	.cfi_def_cfa_offset 48
	.cfi_offset 3, -48
	subq	$64, %rsp
	.cfi_def_cfa_offset 112
	movq	48(%rdi), %rbx
	testq	%rbx, %rbx
	je	.L496
	movl	8(%rbx), %eax
	movl	%edx, %r12d
	leaq	8(%rbx), %rdx
.L498:
	testl	%eax, %eax
	je	.L496
	leal	1(%rax), %r8d
	lock cmpxchgl	%r8d, (%rdx)
	jne	.L498
	movq	40(%rdi), %r14
	movq	88(%rdi), %rbp
	movq	__libc_single_threaded@GOTPCREL(%rip), %rdi
	movq	(%rsi), %r9
	movl	8(%rsi), %r8d
	movl	(%rcx), %edx
	movzbl	4(%rcx), %eax
	movzbl	12(%rsi), %esi
	movq	8(%rcx), %rcx
	cmpb	$0, (%rdi)
	je	.L521
	addl	$1, 8(%rbx)
.L499:
	movq	%r9, 16(%rsp)
	movq	40(%rbp), %r13
	movl	%r8d, 24(%rsp)
	movb	%sil, 28(%rsp)
	movl	%edx, 40(%rsp)
	movb	%al, 44(%rsp)
	movq	%rcx, 48(%rsp)
	data16	leaq	_ZN4asio6detail15keyword_tss_ptrINS0_10call_stackINS0_15task_io_serviceENS0_27task_io_service_thread_infoEE7contextEE6value_E@tlsgd(%rip), %rdi
	.value	0x6666
	rex64
	call	__tls_get_addr@PLT
	movq	(%rax), %rax
	testq	%rax, %rax
	je	.L500
	movq	8(%rax), %rax
	testq	%rax, %rax
	je	.L500
	movq	(%rax), %rdx
	testq	%rdx, %rdx
	je	.L500
	movq	$0, (%rax)
	movzbl	(%rdx), %eax
	cmpb	$79, %al
	jbe	.L501
	movb	%al, 80(%rdx)
	jmp	.L502
	.p2align 4,,10
	.p2align 3
.L501:
	movq	%rdx, %rdi
	call	_ZdlPv@PLT
.L500:
	movl	$81, %edi
.LEHB35:
	call	_Znwm@PLT
.LEHE35:
	movb	$80, 80(%rax)
	movq	%rax, %rdx
.L502:
	movq	%rbx, %xmm1
	movq	%r14, %xmm0
	movq	%r13, %rdi
	xorl	%ecx, %ecx
	punpcklqdq	%xmm1, %xmm0
	movw	%r12w, 56(%rdx)
	leaq	_ZN4asio6detail18completion_handlerIZN8asiodnp311MasterStack5WriteERKN8opendnp315TimeAndIntervalEtRKNS4_10TaskConfigEEUlvE_E11do_completeEPNS0_15task_io_serviceEPNS0_25task_io_service_operationERKSt10error_codem(%rip), %rax
	leaq	48(%rbp), %rsi
	movups	%xmm0, 24(%rdx)
	movdqa	16(%rsp), %xmm0
	movq	$0, (%rdx)
	movups	%xmm0, 40(%rdx)
	movdqu	40(%rsp), %xmm0
	movq	%rax, 8(%rdx)
	movl	$0, 16(%rdx)
	movups	%xmm0, 64(%rdx)
	call	_ZN4asio6detail14strand_service7do_postERPNS1_11strand_implEPNS0_25task_io_service_operationEb@PLT
	addq	$64, %rsp
	.cfi_remember_state
	.cfi_def_cfa_offset 48
	movq	%rbx, %rdi
	popq	%rbx
	.cfi_def_cfa_offset 40
	popq	%rbp
	.cfi_def_cfa_offset 32
	popq	%r12
	.cfi_def_cfa_offset 24
	popq	%r13
	.cfi_def_cfa_offset 16
	popq	%r14
	.cfi_def_cfa_offset 8
.LEHB36:
	jmp	_ZNSt16_Sp_counted_baseILN9__gnu_cxx12_Lock_policyE2EE10_M_releaseEv@PLT
.LEHE36:
	.p2align 4,,10
	.p2align 3
.L521:
	.cfi_restore_state
	lock addl	$1, 8(%rbx)
	jmp	.L499
.L506:
	movq	%rax, %rbp
	jmp	.L503
	.section	.gcc_except_table
.LLSDA8540:
	.byte	0xff
	.byte	0xff
	.byte	0x1
	.uleb128 .LLSDACSE8540-.LLSDACSB8540
.LLSDACSB8540:
	.uleb128 .LEHB35-.LFB8540
	.uleb128 .LEHE35-.LEHB35
	.uleb128 .L506-.LFB8540
	.uleb128 0
	.uleb128 .LEHB36-.LFB8540
	.uleb128 .LEHE36-.LEHB36
	.uleb128 0
	.uleb128 0
.LLSDACSE8540:
	.text
	.cfi_endproc
	.section	.text.unlikely
	.cfi_startproc
	.cfi_personality 0x9b,DW.ref.__gxx_personality_v0
	.cfi_lsda 0x1b,.LLSDAC8540
	.type	_ZN8asiodnp311MasterStack5WriteERKN8opendnp315TimeAndIntervalEtRKNS1_10TaskConfigE.cold, @function
_ZN8asiodnp311MasterStack5WriteERKN8opendnp315TimeAndIntervalEtRKNS1_10TaskConfigE.cold:
.LFSB8540:
.L496:
	.cfi_def_cfa_offset 112
	.cfi_offset 3, -48
	.cfi_offset 6, -40
	.cfi_offset 12, -32
	.cfi_offset 13, -24
	.cfi_offset 14, -16
	movl	$8, %edi
	call	__cxa_allocate_exception@PLT
	movq	_ZTVSt12bad_weak_ptr@GOTPCREL(%rip), %rdx
	movq	_ZTISt12bad_weak_ptr@GOTPCREL(%rip), %rsi
	movq	%rax, %rdi
	addq	$16, %rdx
	movq	%rdx, (%rax)
	movq	_ZNSt12bad_weak_ptrD1Ev@GOTPCREL(%rip), %rdx
.LEHB37:
	call	__cxa_throw@PLT
.L503:
	movq	%rbx, %rdi
	call	_ZNSt16_Sp_counted_baseILN9__gnu_cxx12_Lock_policyE2EE10_M_releaseEv@PLT
	movq	%rbx, %rdi
	call	_ZNSt16_Sp_counted_baseILN9__gnu_cxx12_Lock_policyE2EE10_M_releaseEv@PLT
	movq	%rbp, %rdi
	call	_Unwind_Resume@PLT
.LEHE37:
	.cfi_endproc
.LFE8540:
	.section	.gcc_except_table
.LLSDAC8540:
	.byte	0xff
	.byte	0xff
	.byte	0x1
	.uleb128 .LLSDACSEC8540-.LLSDACSBC8540
.LLSDACSBC8540:
	.uleb128 .LEHB37-.LCOLDB32
	.uleb128 .LEHE37-.LEHB37
	.uleb128 0
	.uleb128 0
.LLSDACSEC8540:
	.section	.text.unlikely
	.text
	.size	_ZN8asiodnp311MasterStack5WriteERKN8opendnp315TimeAndIntervalEtRKNS1_10TaskConfigE, .-_ZN8asiodnp311MasterStack5WriteERKN8opendnp315TimeAndIntervalEtRKNS1_10TaskConfigE
	.section	.text.unlikely
	.size	_ZN8asiodnp311MasterStack5WriteERKN8opendnp315TimeAndIntervalEtRKNS1_10TaskConfigE.cold, .-_ZN8asiodnp311MasterStack5WriteERKN8opendnp315TimeAndIntervalEtRKNS1_10TaskConfigE.cold
.LCOLDE32:
	.text
.LHOTE32:
	.section	.text._ZNSt13__future_base7_ResultISt10shared_ptrIN8opendnp311IMasterTaskEEED2Ev,"axG",@progbits,_ZNSt13__future_base7_ResultISt10shared_ptrIN8opendnp311IMasterTaskEEED5Ev,comdat
	.align 2
	.p2align 4
	.weak	_ZNSt13__future_base7_ResultISt10shared_ptrIN8opendnp311IMasterTaskEEED2Ev
	.type	_ZNSt13__future_base7_ResultISt10shared_ptrIN8opendnp311IMasterTaskEEED2Ev, @function
_ZNSt13__future_base7_ResultISt10shared_ptrIN8opendnp311IMasterTaskEEED2Ev:
.LFB12527:
	.cfi_startproc
	movq	_ZTVNSt13__future_base7_ResultISt10shared_ptrIN8opendnp311IMasterTaskEEEE@GOTPCREL(%rip), %rdx
	movq	%rdi, %rax
	addq	$16, %rdx
	movq	%rdx, (%rdi)
	cmpb	$0, 32(%rdi)
	je	.L529
	movq	24(%rdi), %rdi
	testq	%rdi, %rdi
	je	.L529
	subq	$24, %rsp
	.cfi_def_cfa_offset 32
	movq	%rax, 8(%rsp)
	call	_ZNSt16_Sp_counted_baseILN9__gnu_cxx12_Lock_policyE2EE10_M_releaseEv@PLT
	movq	8(%rsp), %rdi
	addq	$24, %rsp
	.cfi_def_cfa_offset 8
	jmp	_ZNSt13__future_base12_Result_baseD2Ev@PLT
	.p2align 4,,10
	.p2align 3
.L529:
	movq	%rax, %rdi
	jmp	_ZNSt13__future_base12_Result_baseD2Ev@PLT
	.cfi_endproc
.LFE12527:
	.size	_ZNSt13__future_base7_ResultISt10shared_ptrIN8opendnp311IMasterTaskEEED2Ev, .-_ZNSt13__future_base7_ResultISt10shared_ptrIN8opendnp311IMasterTaskEEED2Ev
	.weak	_ZNSt13__future_base7_ResultISt10shared_ptrIN8opendnp311IMasterTaskEEED1Ev
	.set	_ZNSt13__future_base7_ResultISt10shared_ptrIN8opendnp311IMasterTaskEEED1Ev,_ZNSt13__future_base7_ResultISt10shared_ptrIN8opendnp311IMasterTaskEEED2Ev
	.section	.text._ZNSt17_Function_handlerIFvvEZN8asiodnp39StackBase15PerformShutdownINS1_11MasterStackEEEvRKSt10shared_ptrIT_EEUlvE_E9_M_invokeERKSt9_Any_data,"axG",@progbits,_ZNSt17_Function_handlerIFvvEZN8asiodnp39StackBase15PerformShutdownINS1_11MasterStackEEEvRKSt10shared_ptrIT_EEUlvE_E9_M_invokeERKSt9_Any_data,comdat
	.p2align 4
	.weak	_ZNSt17_Function_handlerIFvvEZN8asiodnp39StackBase15PerformShutdownINS1_11MasterStackEEEvRKSt10shared_ptrIT_EEUlvE_E9_M_invokeERKSt9_Any_data
	.type	_ZNSt17_Function_handlerIFvvEZN8asiodnp39StackBase15PerformShutdownINS1_11MasterStackEEEvRKSt10shared_ptrIT_EEUlvE_E9_M_invokeERKSt9_Any_data, @function
_ZNSt17_Function_handlerIFvvEZN8asiodnp39StackBase15PerformShutdownINS1_11MasterStackEEEvRKSt10shared_ptrIT_EEUlvE_E9_M_invokeERKSt9_Any_data:
.LFB10877:
	.cfi_startproc
	.cfi_personality 0x9b,DW.ref.__gxx_personality_v0
	.cfi_lsda 0x1b,.LLSDA10877
	pushq	%r13
	.cfi_def_cfa_offset 16
	.cfi_offset 13, -16
	pushq	%r12
	.cfi_def_cfa_offset 24
	.cfi_offset 12, -24
	pushq	%rbp
	.cfi_def_cfa_offset 32
	.cfi_offset 6, -32
	pushq	%rbx
	.cfi_def_cfa_offset 40
	.cfi_offset 3, -40
	subq	$24, %rsp
	.cfi_def_cfa_offset 64
	movq	(%rdi), %rbp
	movq	0(%rbp), %rax
	movq	8(%rbp), %rdx
	movq	104(%rax), %rdi
	addq	$16, %rax
	movq	%rdx, %xmm1
	movq	%rax, %xmm0
	punpcklqdq	%xmm1, %xmm0
	movaps	%xmm0, (%rsp)
	testq	%rdx, %rdx
	je	.L533
	movq	__libc_single_threaded@GOTPCREL(%rip), %rax
	cmpb	$0, (%rax)
	je	.L534
	addl	$1, 8(%rdx)
.L533:
	movq	%rsp, %rsi
.LEHB38:
	call	_ZN8asiodnp39IOHandler6RemoveERKSt10shared_ptrIN8opendnp312ILinkSessionEE@PLT
.LEHE38:
	movq	8(%rsp), %rdi
	testq	%rdi, %rdi
	je	.L535
	call	_ZNSt16_Sp_counted_baseILN9__gnu_cxx12_Lock_policyE2EE10_M_releaseEv@PLT
.L535:
	movq	8(%rbp), %rbx
	movq	0(%rbp), %r12
	testq	%rbx, %rbx
	je	.L576
	movq	__libc_single_threaded@GOTPCREL(%rip), %rax
	cmpb	$0, (%rax)
	je	.L538
	movl	8(%rbx), %eax
	movq	88(%r12), %rbp
	addl	$1, %eax
.L539:
	addl	$1, %eax
	movl	%eax, 8(%rbx)
.L537:
	data16	leaq	_ZN4asio6detail15keyword_tss_ptrINS0_10call_stackINS0_15task_io_serviceENS0_27task_io_service_thread_infoEE7contextEE6value_E@tlsgd(%rip), %rdi
	.value	0x6666
	rex64
	call	__tls_get_addr@PLT
	movq	40(%rbp), %r13
	movq	(%rax), %rax
	testq	%rax, %rax
	je	.L541
	movq	8(%rax), %rax
	testq	%rax, %rax
	je	.L541
	movq	(%rax), %rdx
	testq	%rdx, %rdx
	je	.L541
	movq	$0, (%rax)
	movzbl	(%rdx), %eax
	cmpb	$39, %al
	jbe	.L542
	movb	%al, 40(%rdx)
.L543:
	movq	_ZN4asio6detail18completion_handlerIZZN8asiodnp39StackBase15PerformShutdownINS2_11MasterStackEEEvRKSt10shared_ptrIT_EENKUlvE_clEvEUlvE_E11do_completeEPNS0_15task_io_serviceEPNS0_25task_io_service_operationERKSt10error_codem@GOTPCREL(%rip), %rax
	movq	%r12, %xmm0
	movq	%rbx, %xmm2
	movq	$0, (%rdx)
	punpcklqdq	%xmm2, %xmm0
	movl	$0, 16(%rdx)
	leaq	48(%rbp), %rsi
	movq	%rax, 8(%rdx)
	movups	%xmm0, 24(%rdx)
	testq	%rbx, %rbx
	je	.L577
	movq	__libc_single_threaded@GOTPCREL(%rip), %rax
	cmpb	$0, (%rax)
	je	.L545
	addl	$1, 8(%rbx)
.L546:
	movq	%r13, %rdi
	xorl	%ecx, %ecx
	call	_ZN4asio6detail14strand_service7do_postERPNS1_11strand_implEPNS0_25task_io_service_operationEb@PLT
	movq	%rbx, %rdi
	call	_ZNSt16_Sp_counted_baseILN9__gnu_cxx12_Lock_policyE2EE10_M_releaseEv@PLT
	addq	$24, %rsp
	.cfi_remember_state
	.cfi_def_cfa_offset 40
	movq	%rbx, %rdi
	popq	%rbx
	.cfi_def_cfa_offset 32
	popq	%rbp
	.cfi_def_cfa_offset 24
	popq	%r12
	.cfi_def_cfa_offset 16
	popq	%r13
	.cfi_def_cfa_offset 8
.LEHB39:
	jmp	_ZNSt16_Sp_counted_baseILN9__gnu_cxx12_Lock_policyE2EE10_M_releaseEv@PLT
.LEHE39:
	.p2align 4,,10
	.p2align 3
.L538:
	.cfi_restore_state
	lock addl	$1, 8(%rbx)
	movq	0(%rbp), %rdx
	movq	88(%rdx), %rbp
	cmpb	$0, (%rax)
	jne	.L578
	lock addl	$1, 8(%rbx)
	jmp	.L537
	.p2align 4,,10
	.p2align 3
.L534:
	lock addl	$1, 8(%rdx)
	jmp	.L533
	.p2align 4,,10
	.p2align 3
.L542:
	movq	%rdx, %rdi
	call	_ZdlPv@PLT
.L541:
	movl	$41, %edi
.LEHB40:
	call	_Znwm@PLT
.LEHE40:
	movb	$40, 40(%rax)
	movq	%rax, %rdx
	jmp	.L543
	.p2align 4,,10
	.p2align 3
.L576:
	movq	88(%r12), %rbp
	jmp	.L537
	.p2align 4,,10
	.p2align 3
.L577:
	addq	$24, %rsp
	.cfi_remember_state
	.cfi_def_cfa_offset 40
	movq	%r13, %rdi
	xorl	%ecx, %ecx
	popq	%rbx
	.cfi_def_cfa_offset 32
	popq	%rbp
	.cfi_def_cfa_offset 24
	popq	%r12
	.cfi_def_cfa_offset 16
	popq	%r13
	.cfi_def_cfa_offset 8
.LEHB41:
	jmp	_ZN4asio6detail14strand_service7do_postERPNS1_11strand_implEPNS0_25task_io_service_operationEb@PLT
	.p2align 4,,10
	.p2align 3
.L545:
	.cfi_restore_state
	lock addl	$1, 8(%rbx)
	jmp	.L546
.L578:
	movl	8(%rbx), %eax
	jmp	.L539
.L554:
	movq	%rax, %rbp
	jmp	.L547
.L553:
	movq	%rax, %rbx
	jmp	.L551
.L547:
	testq	%rbx, %rbx
	je	.L550
	movq	%rbx, %rdi
	call	_ZNSt16_Sp_counted_baseILN9__gnu_cxx12_Lock_policyE2EE10_M_releaseEv@PLT
	movq	%rbx, %rdi
	call	_ZNSt16_Sp_counted_baseILN9__gnu_cxx12_Lock_policyE2EE10_M_releaseEv@PLT
.L550:
	movq	%rbp, %rdi
	call	_Unwind_Resume@PLT
.L551:
	movq	8(%rsp), %rdi
	testq	%rdi, %rdi
	je	.L552
	call	_ZNSt16_Sp_counted_baseILN9__gnu_cxx12_Lock_policyE2EE10_M_releaseEv@PLT
.L552:
	movq	%rbx, %rdi
	call	_Unwind_Resume@PLT
.LEHE41:
	.cfi_endproc
.LFE10877:
	.section	.gcc_except_table
.LLSDA10877:
	.byte	0xff
	.byte	0xff
	.byte	0x1
	.uleb128 .LLSDACSE10877-.LLSDACSB10877
.LLSDACSB10877:
	.uleb128 .LEHB38-.LFB10877
	.uleb128 .LEHE38-.LEHB38
	.uleb128 .L553-.LFB10877
	.uleb128 0
	.uleb128 .LEHB39-.LFB10877
	.uleb128 .LEHE39-.LEHB39
	.uleb128 0
	.uleb128 0
	.uleb128 .LEHB40-.LFB10877
	.uleb128 .LEHE40-.LEHB40
	.uleb128 .L554-.LFB10877
	.uleb128 0
	.uleb128 .LEHB41-.LFB10877
	.uleb128 .LEHE41-.LEHB41
	.uleb128 0
	.uleb128 0
.LLSDACSE10877:
	.section	.text._ZNSt17_Function_handlerIFvvEZN8asiodnp39StackBase15PerformShutdownINS1_11MasterStackEEEvRKSt10shared_ptrIT_EEUlvE_E9_M_invokeERKSt9_Any_data,"axG",@progbits,_ZNSt17_Function_handlerIFvvEZN8asiodnp39StackBase15PerformShutdownINS1_11MasterStackEEEvRKSt10shared_ptrIT_EEUlvE_E9_M_invokeERKSt9_Any_data,comdat
	.size	_ZNSt17_Function_handlerIFvvEZN8asiodnp39StackBase15PerformShutdownINS1_11MasterStackEEEvRKSt10shared_ptrIT_EEUlvE_E9_M_invokeERKSt9_Any_data, .-_ZNSt17_Function_handlerIFvvEZN8asiodnp39StackBase15PerformShutdownINS1_11MasterStackEEEvRKSt10shared_ptrIT_EEUlvE_E9_M_invokeERKSt9_Any_data
	.section	.text._ZN4asio6detail18completion_handlerIZN7asiopal8Executor10ReturnFromISt10shared_ptrIN8opendnp311IMasterTaskEEEET_RKSt8functionIFS9_vEEEUlvE_E11do_completeEPNS0_15task_io_serviceEPNS0_25task_io_service_operationERKSt10error_codem,"axG",@progbits,_ZN4asio6detail18completion_handlerIZN7asiopal8Executor10ReturnFromISt10shared_ptrIN8opendnp311IMasterTaskEEEET_RKSt8functionIFS9_vEEEUlvE_E11do_completeEPNS0_15task_io_serviceEPNS0_25task_io_service_operationERKSt10error_codem,comdat
	.p2align 4
	.weak	_ZN4asio6detail18completion_handlerIZN7asiopal8Executor10ReturnFromISt10shared_ptrIN8opendnp311IMasterTaskEEEET_RKSt8functionIFS9_vEEEUlvE_E11do_completeEPNS0_15task_io_serviceEPNS0_25task_io_service_operationERKSt10error_codem
	.type	_ZN4asio6detail18completion_handlerIZN7asiopal8Executor10ReturnFromISt10shared_ptrIN8opendnp311IMasterTaskEEEET_RKSt8functionIFS9_vEEEUlvE_E11do_completeEPNS0_15task_io_serviceEPNS0_25task_io_service_operationERKSt10error_codem, @function
_ZN4asio6detail18completion_handlerIZN7asiopal8Executor10ReturnFromISt10shared_ptrIN8opendnp311IMasterTaskEEEET_RKSt8functionIFS9_vEEEUlvE_E11do_completeEPNS0_15task_io_serviceEPNS0_25task_io_service_operationERKSt10error_codem:
.LFB11920:
	.cfi_startproc
	.cfi_personality 0x9b,DW.ref.__gxx_personality_v0
	.cfi_lsda 0x1b,.LLSDA11920
	pushq	%r13
	.cfi_def_cfa_offset 16
	.cfi_offset 13, -16
	movq	%rdi, %r13
	pushq	%r12
	.cfi_def_cfa_offset 24
	.cfi_offset 12, -24
	pushq	%rbp
	.cfi_def_cfa_offset 32
	.cfi_offset 6, -32
	pushq	%rbx
	.cfi_def_cfa_offset 40
	.cfi_offset 3, -40
	movq	%rsi, %rbx
	subq	$136, %rsp
	.cfi_def_cfa_offset 176
	movq	24(%rsi), %r12
	movq	32(%rsi), %rbp
	data16	leaq	_ZN4asio6detail15keyword_tss_ptrINS0_10call_stackINS0_15task_io_serviceENS0_27task_io_service_thread_infoEE7contextEE6value_E@tlsgd(%rip), %rdi
	.value	0x6666
	rex64
	call	__tls_get_addr@PLT
	movq	(%rax), %rax
	testq	%rax, %rax
	je	.L623
	movq	8(%rax), %rax
	testq	%rax, %rax
	je	.L623
	cmpq	$0, (%rax)
	je	.L624
.L623:
	movq	%rbx, %rdi
	call	_ZdlPv@PLT
.L622:
	testq	%r13, %r13
	je	.L579
	cmpq	$0, 16(%rbp)
	je	.L625
	leaq	32(%rsp), %rbx
	movq	%rbp, %rsi
	movq	%rbx, %rdi
.LEHB42:
	call	*24(%rbp)
.LEHE42:
	leaq	48(%rsp), %rax
	movq	%rbx, %xmm6
	movq	(%r12), %rbx
	movq	%r12, %xmm3
	movq	%rax, %xmm1
	leaq	8(%rsp), %rax
	punpcklqdq	%xmm6, %xmm3
	movq	_ZNSt17_Function_handlerIFSt10unique_ptrINSt13__future_base12_Result_baseENS2_8_DeleterEEvENS1_13_State_baseV27_SetterISt10shared_ptrIN8opendnp311IMasterTaskEEOSB_EEE10_M_managerERSt9_Any_dataRKSF_St18_Manager_operation@GOTPCREL(%rip), %xmm2
	movq	%rax, %xmm4
	leaq	16(%rsp), %rax
	movhps	_ZNSt17_Function_handlerIFSt10unique_ptrINSt13__future_base12_Result_baseENS2_8_DeleterEEvENS1_13_State_baseV27_SetterISt10shared_ptrIN8opendnp311IMasterTaskEEOSB_EEE9_M_invokeERKSt9_Any_data@GOTPCREL(%rip), %xmm2
	movq	%rax, %xmm0
	leaq	24(%rsp), %rax
	punpcklqdq	%xmm4, %xmm1
	movq	%rax, %xmm5
	punpcklqdq	%xmm5, %xmm0
	testq	%rbx, %rbx
	je	.L626
	leaq	7(%rsp), %rax
	leaq	64(%rsp), %rbp
	movaps	%xmm3, 64(%rsp)
	movq	%rax, 24(%rsp)
	movq	_ZNSt13__future_base13_State_baseV29_M_do_setEPSt8functionIFSt10unique_ptrINS_12_Result_baseENS3_8_DeleterEEvEEPb@GOTPCREL(%rip), %rax
	movaps	%xmm2, 80(%rsp)
	movaps	%xmm1, 96(%rsp)
	movaps	%xmm0, 112(%rsp)
	movb	$0, 7(%rsp)
	movq	%rbp, 16(%rsp)
	movq	%rbx, 8(%rsp)
	movq	%rax, 48(%rsp)
	movq	$0, 56(%rsp)
	data16	leaq	_ZSt15__once_callable@tlsgd(%rip), %rdi
	.value	0x6666
	rex64
	call	__tls_get_addr@PLT
	leaq	96(%rsp), %rdx
	movq	%rdx, (%rax)
	data16	leaq	_ZSt11__once_call@tlsgd(%rip), %rdi
	.value	0x6666
	rex64
	call	__tls_get_addr@PLT
	movq	_ZZNSt9once_flag18_Prepare_executionC4IZSt9call_onceIMNSt13__future_base13_State_baseV2EFvPSt8functionIFSt10unique_ptrINS3_12_Result_baseENS7_8_DeleterEEvEEPbEJPS4_SC_SD_EEvRS_OT_DpOT0_EUlvE_EERSI_ENUlvE_4_FUNEv@GOTPCREL(%rip), %rdx
	movq	__once_proxy@GOTPCREL(%rip), %rsi
	leaq	24(%rbx), %rdi
	movq	%rdx, (%rax)
.LEHB43:
	call	pthread_once@PLT
.LEHE43:
	testl	%eax, %eax
	jne	.L627
	data16	leaq	_ZSt15__once_callable@tlsgd(%rip), %rdi
	.value	0x6666
	rex64
	call	__tls_get_addr@PLT
	movq	$0, (%rax)
	data16	leaq	_ZSt11__once_call@tlsgd(%rip), %rdi
	.value	0x6666
	rex64
	call	__tls_get_addr@PLT
	movq	$0, (%rax)
	cmpb	$0, 7(%rsp)
	je	.L628
	leaq	16(%rbx), %rdi
	movl	$1, %eax
	xchgl	(%rdi), %eax
	testl	%eax, %eax
	js	.L593
.L596:
	movq	80(%rsp), %rax
	testq	%rax, %rax
	je	.L595
	movl	$3, %edx
	movq	%rbp, %rsi
	movq	%rbp, %rdi
	call	*%rax
.L595:
	movq	40(%rsp), %rdi
	testq	%rdi, %rdi
	je	.L598
	call	_ZNSt16_Sp_counted_baseILN9__gnu_cxx12_Lock_policyE2EE10_M_releaseEv@PLT
.L598:
	sfence
.L579:
	addq	$136, %rsp
	.cfi_remember_state
	.cfi_def_cfa_offset 40
	popq	%rbx
	.cfi_def_cfa_offset 32
	popq	%rbp
	.cfi_def_cfa_offset 24
	popq	%r12
	.cfi_def_cfa_offset 16
	popq	%r13
	.cfi_def_cfa_offset 8
	ret
	.p2align 4,,10
	.p2align 3
.L624:
	.cfi_restore_state
	movzbl	40(%rbx), %edx
	movb	%dl, (%rbx)
	movq	%rbx, (%rax)
	jmp	.L622
	.p2align 4,,10
	.p2align 3
.L593:
.LEHB44:
	call	_ZNSt28__atomic_futex_unsigned_base19_M_futex_notify_allEPj@PLT
.LEHE44:
	jmp	.L596
.L605:
	movq	%rax, %rbx
	jmp	.L592
.L625:
.LEHB45:
	call	_ZSt25__throw_bad_function_callv@PLT
.LEHE45:
.L628:
	movl	$2, %edi
.LEHB46:
	call	_ZSt20__throw_future_errori@PLT
.LEHE46:
.L591:
	data16	leaq	_ZSt15__once_callable@tlsgd(%rip), %rdi
	.value	0x6666
	rex64
	call	__tls_get_addr@PLT
	xorl	%edx, %edx
	movq	%rdx, (%rax)
	data16	leaq	_ZSt11__once_call@tlsgd(%rip), %rdi
	.value	0x6666
	rex64
	call	__tls_get_addr@PLT
	xorl	%ecx, %ecx
	movq	%rcx, (%rax)
.L592:
	movq	80(%rsp), %rax
	testq	%rax, %rax
	je	.L600
	movl	$3, %edx
	movq	%rbp, %rsi
	movq	%rbp, %rdi
	call	*%rax
.L600:
	movq	40(%rsp), %rdi
	testq	%rdi, %rdi
	je	.L602
	call	_ZNSt16_Sp_counted_baseILN9__gnu_cxx12_Lock_policyE2EE10_M_releaseEv@PLT
.L602:
	sfence
	movq	%rbx, %rdi
.LEHB47:
	call	_Unwind_Resume@PLT
.LEHE47:
.L603:
	movq	%rax, %rbx
	jmp	.L602
.L626:
	movl	$3, %edi
.LEHB48:
	call	_ZSt20__throw_future_errori@PLT
.LEHE48:
.L604:
	movq	%rax, %rbx
	jmp	.L600
.L627:
	movl	%eax, %edi
.LEHB49:
	call	_ZSt20__throw_system_errori@PLT
.LEHE49:
.L606:
	movq	%rax, %rbx
	jmp	.L591
	.cfi_endproc
.LFE11920:
	.section	.gcc_except_table
.LLSDA11920:
	.byte	0xff
	.byte	0xff
	.byte	0x1
	.uleb128 .LLSDACSE11920-.LLSDACSB11920
.LLSDACSB11920:
	.uleb128 .LEHB42-.LFB11920
	.uleb128 .LEHE42-.LEHB42
	.uleb128 .L603-.LFB11920
	.uleb128 0
	.uleb128 .LEHB43-.LFB11920
	.uleb128 .LEHE43-.LEHB43
	.uleb128 .L606-.LFB11920
	.uleb128 0
	.uleb128 .LEHB44-.LFB11920
	.uleb128 .LEHE44-.LEHB44
	.uleb128 .L605-.LFB11920
	.uleb128 0
	.uleb128 .LEHB45-.LFB11920
	.uleb128 .LEHE45-.LEHB45
	.uleb128 .L603-.LFB11920
	.uleb128 0
	.uleb128 .LEHB46-.LFB11920
	.uleb128 .LEHE46-.LEHB46
	.uleb128 .L605-.LFB11920
	.uleb128 0
	.uleb128 .LEHB47-.LFB11920
	.uleb128 .LEHE47-.LEHB47
	.uleb128 0
	.uleb128 0
	.uleb128 .LEHB48-.LFB11920
	.uleb128 .LEHE48-.LEHB48
	.uleb128 .L604-.LFB11920
	.uleb128 0
	.uleb128 .LEHB49-.LFB11920
	.uleb128 .LEHE49-.LEHB49
	.uleb128 .L606-.LFB11920
	.uleb128 0
.LLSDACSE11920:
	.section	.text._ZN4asio6detail18completion_handlerIZN7asiopal8Executor10ReturnFromISt10shared_ptrIN8opendnp311IMasterTaskEEEET_RKSt8functionIFS9_vEEEUlvE_E11do_completeEPNS0_15task_io_serviceEPNS0_25task_io_service_operationERKSt10error_codem,"axG",@progbits,_ZN4asio6detail18completion_handlerIZN7asiopal8Executor10ReturnFromISt10shared_ptrIN8opendnp311IMasterTaskEEEET_RKSt8functionIFS9_vEEEUlvE_E11do_completeEPNS0_15task_io_serviceEPNS0_25task_io_service_operationERKSt10error_codem,comdat
	.size	_ZN4asio6detail18completion_handlerIZN7asiopal8Executor10ReturnFromISt10shared_ptrIN8opendnp311IMasterTaskEEEET_RKSt8functionIFS9_vEEEUlvE_E11do_completeEPNS0_15task_io_serviceEPNS0_25task_io_service_operationERKSt10error_codem, .-_ZN4asio6detail18completion_handlerIZN7asiopal8Executor10ReturnFromISt10shared_ptrIN8opendnp311IMasterTaskEEEET_RKSt8functionIFS9_vEEEUlvE_E11do_completeEPNS0_15task_io_serviceEPNS0_25task_io_service_operationERKSt10error_codem
	.section	.text._ZNSt13__future_base7_ResultISt10shared_ptrIN8opendnp311IMasterTaskEEED0Ev,"axG",@progbits,_ZNSt13__future_base7_ResultISt10shared_ptrIN8opendnp311IMasterTaskEEED5Ev,comdat
	.align 2
	.p2align 4
	.weak	_ZNSt13__future_base7_ResultISt10shared_ptrIN8opendnp311IMasterTaskEEED0Ev
	.type	_ZNSt13__future_base7_ResultISt10shared_ptrIN8opendnp311IMasterTaskEEED0Ev, @function
_ZNSt13__future_base7_ResultISt10shared_ptrIN8opendnp311IMasterTaskEEED0Ev:
.LFB12529:
	.cfi_startproc
	movq	_ZTVNSt13__future_base7_ResultISt10shared_ptrIN8opendnp311IMasterTaskEEEE@GOTPCREL(%rip), %rax
	pushq	%rbx
	.cfi_def_cfa_offset 16
	.cfi_offset 3, -16
	movq	%rdi, %rbx
	addq	$16, %rax
	movq	%rax, (%rdi)
	cmpb	$0, 32(%rdi)
	je	.L630
	movq	24(%rdi), %rdi
	testq	%rdi, %rdi
	je	.L630
	call	_ZNSt16_Sp_counted_baseILN9__gnu_cxx12_Lock_policyE2EE10_M_releaseEv@PLT
.L630:
	movq	%rbx, %rdi
	call	_ZNSt13__future_base12_Result_baseD2Ev@PLT
	movq	%rbx, %rdi
	movl	$40, %esi
	popq	%rbx
	.cfi_def_cfa_offset 8
	jmp	_ZdlPvm@PLT
	.cfi_endproc
.LFE12529:
	.size	_ZNSt13__future_base7_ResultISt10shared_ptrIN8opendnp311IMasterTaskEEED0Ev, .-_ZNSt13__future_base7_ResultISt10shared_ptrIN8opendnp311IMasterTaskEEED0Ev
	.section	.text._ZNSt13__future_base7_ResultISt10shared_ptrIN8opendnp311IMasterTaskEEE10_M_destroyEv,"axG",@progbits,_ZNSt13__future_base7_ResultISt10shared_ptrIN8opendnp311IMasterTaskEEE10_M_destroyEv,comdat
	.align 2
	.p2align 4
	.weak	_ZNSt13__future_base7_ResultISt10shared_ptrIN8opendnp311IMasterTaskEEE10_M_destroyEv
	.type	_ZNSt13__future_base7_ResultISt10shared_ptrIN8opendnp311IMasterTaskEEE10_M_destroyEv, @function
_ZNSt13__future_base7_ResultISt10shared_ptrIN8opendnp311IMasterTaskEEE10_M_destroyEv:
.LFB12525:
	.cfi_startproc
	movq	(%rdi), %rax
	movq	16(%rax), %rax
	cmpq	_ZNSt13__future_base7_ResultISt10shared_ptrIN8opendnp311IMasterTaskEEED0Ev@GOTPCREL(%rip), %rax
	jne	.L637
	movq	_ZTVNSt13__future_base7_ResultISt10shared_ptrIN8opendnp311IMasterTaskEEEE@GOTPCREL(%rip), %rax
	pushq	%rbx
	.cfi_def_cfa_offset 16
	.cfi_offset 3, -16
	movq	%rdi, %rbx
	addq	$16, %rax
	movq	%rax, (%rdi)
	cmpb	$0, 32(%rdi)
	je	.L638
	movq	24(%rdi), %rdi
	testq	%rdi, %rdi
	je	.L638
	call	_ZNSt16_Sp_counted_baseILN9__gnu_cxx12_Lock_policyE2EE10_M_releaseEv@PLT
.L638:
	movq	%rbx, %rdi
	call	_ZNSt13__future_base12_Result_baseD2Ev@PLT
	movq	%rbx, %rdi
	movl	$40, %esi
	popq	%rbx
	.cfi_restore 3
	.cfi_def_cfa_offset 8
	jmp	_ZdlPvm@PLT
	.p2align 4,,10
	.p2align 3
.L637:
	jmp	*%rax
	.cfi_endproc
.LFE12525:
	.size	_ZNSt13__future_base7_ResultISt10shared_ptrIN8opendnp311IMasterTaskEEE10_M_destroyEv, .-_ZNSt13__future_base7_ResultISt10shared_ptrIN8opendnp311IMasterTaskEEE10_M_destroyEv
	.text
	.p2align 4
	.type	_ZN4asio6detail18completion_handlerIZN8asiodnp311MasterStack13SetLogFiltersERKN7openpal10LogFiltersEEUlvE_E11do_completeEPNS0_15task_io_serviceEPNS0_25task_io_service_operationERKSt10error_codem, @function
_ZN4asio6detail18completion_handlerIZN8asiodnp311MasterStack13SetLogFiltersERKN7openpal10LogFiltersEEUlvE_E11do_completeEPNS0_15task_io_serviceEPNS0_25task_io_service_operationERKSt10error_codem:
.LFB11467:
	.cfi_startproc
	pushq	%r13
	.cfi_def_cfa_offset 16
	.cfi_offset 13, -16
	pushq	%r12
	.cfi_def_cfa_offset 24
	.cfi_offset 12, -24
	movq	%rdi, %r12
	pushq	%rbp
	.cfi_def_cfa_offset 32
	.cfi_offset 6, -32
	pushq	%rbx
	.cfi_def_cfa_offset 40
	.cfi_offset 3, -40
	movq	%rsi, %rbx
	subq	$40, %rsp
	.cfi_def_cfa_offset 80
	movl	40(%rsi), %eax
	movq	24(%rsi), %r13
	movq	32(%rsi), %rbp
	movl	%eax, 16(%rsp)
	data16	leaq	_ZN4asio6detail15keyword_tss_ptrINS0_10call_stackINS0_15task_io_serviceENS0_27task_io_service_thread_infoEE7contextEE6value_E@tlsgd(%rip), %rdi
	.value	0x6666
	rex64
	call	__tls_get_addr@PLT
	movq	(%rax), %rax
	testq	%rax, %rax
	je	.L648
	movq	8(%rax), %rax
	testq	%rax, %rax
	je	.L648
	cmpq	$0, (%rax)
	je	.L668
.L648:
	movq	%rbx, %rdi
	call	_ZdlPv@PLT
.L649:
	testq	%r12, %r12
	je	.L665
	movq	72(%r13), %rax
	movl	16(%rsp), %edx
	movl	%edx, 32(%rax)
	sfence
.L665:
	testq	%rbp, %rbp
	je	.L669
	addq	$40, %rsp
	.cfi_remember_state
	.cfi_def_cfa_offset 40
	movq	%rbp, %rdi
	popq	%rbx
	.cfi_def_cfa_offset 32
	popq	%rbp
	.cfi_def_cfa_offset 24
	popq	%r12
	.cfi_def_cfa_offset 16
	popq	%r13
	.cfi_def_cfa_offset 8
	jmp	_ZNSt16_Sp_counted_baseILN9__gnu_cxx12_Lock_policyE2EE10_M_releaseEv@PLT
	.p2align 4,,10
	.p2align 3
.L669:
	.cfi_restore_state
	addq	$40, %rsp
	.cfi_remember_state
	.cfi_def_cfa_offset 40
	popq	%rbx
	.cfi_def_cfa_offset 32
	popq	%rbp
	.cfi_def_cfa_offset 24
	popq	%r12
	.cfi_def_cfa_offset 16
	popq	%r13
	.cfi_def_cfa_offset 8
	ret
	.p2align 4,,10
	.p2align 3
.L668:
	.cfi_restore_state
	movzbl	48(%rbx), %edx
	movb	%dl, (%rbx)
	movq	%rbx, (%rax)
	jmp	.L649
	.cfi_endproc
.LFE11467:
	.size	_ZN4asio6detail18completion_handlerIZN8asiodnp311MasterStack13SetLogFiltersERKN7openpal10LogFiltersEEUlvE_E11do_completeEPNS0_15task_io_serviceEPNS0_25task_io_service_operationERKSt10error_codem, .-_ZN4asio6detail18completion_handlerIZN8asiodnp311MasterStack13SetLogFiltersERKN7openpal10LogFiltersEEUlvE_E11do_completeEPNS0_15task_io_serviceEPNS0_25task_io_service_operationERKSt10error_codem
	.section	.text.unlikely
.LCOLDB33:
	.text
.LHOTB33:
	.p2align 4
	.type	_ZN4asio6detail18completion_handlerIZN8asiodnp311MasterStack14ScanAllObjectsEN8opendnp316GroupVariationIDERKNS4_10TaskConfigEEUlvE_E11do_completeEPNS0_15task_io_serviceEPNS0_25task_io_service_operationERKSt10error_codem, @function
_ZN4asio6detail18completion_handlerIZN8asiodnp311MasterStack14ScanAllObjectsEN8opendnp316GroupVariationIDERKNS4_10TaskConfigEEUlvE_E11do_completeEPNS0_15task_io_serviceEPNS0_25task_io_service_operationERKSt10error_codem:
.LFB11532:
	.cfi_startproc
	.cfi_personality 0x9b,DW.ref.__gxx_personality_v0
	.cfi_lsda 0x1b,.LLSDA11532
	pushq	%r13
	.cfi_def_cfa_offset 16
	.cfi_offset 13, -16
	movq	%rdi, %r13
	pushq	%r12
	.cfi_def_cfa_offset 24
	.cfi_offset 12, -24
	pushq	%rbp
	.cfi_def_cfa_offset 32
	.cfi_offset 6, -32
	pushq	%rbx
	.cfi_def_cfa_offset 40
	.cfi_offset 3, -40
	movq	%rsi, %rbx
	subq	$56, %rsp
	.cfi_def_cfa_offset 96
	movzwl	40(%rsi), %eax
	movdqu	48(%rsi), %xmm0
	movq	24(%rsi), %rbp
	movq	32(%rsi), %r12
	movw	%ax, 16(%rsp)
	movups	%xmm0, 24(%rsp)
	data16	leaq	_ZN4asio6detail15keyword_tss_ptrINS0_10call_stackINS0_15task_io_serviceENS0_27task_io_service_thread_infoEE7contextEE6value_E@tlsgd(%rip), %rdi
	.value	0x6666
	rex64
	call	__tls_get_addr@PLT
	movq	(%rax), %rax
	testq	%rax, %rax
	je	.L672
	movq	8(%rax), %rax
	testq	%rax, %rax
	je	.L672
	cmpq	$0, (%rax)
	je	.L698
.L672:
	movq	%rbx, %rdi
	call	_ZdlPv@PLT
.L673:
	testq	%r13, %r13
	je	.L699
	movq	24(%rsp), %rdx
	movq	32(%rsp), %rcx
	leaq	168(%rbp), %rdi
	movzwl	16(%rsp), %esi
.LEHB50:
	call	_ZN8opendnp38MContext14ScanAllObjectsENS_16GroupVariationIDENS_10TaskConfigE@PLT
.LEHE50:
	sfence
	testq	%r12, %r12
	je	.L670
.L694:
	addq	$56, %rsp
	.cfi_remember_state
	.cfi_def_cfa_offset 40
	movq	%r12, %rdi
	popq	%rbx
	.cfi_def_cfa_offset 32
	popq	%rbp
	.cfi_def_cfa_offset 24
	popq	%r12
	.cfi_def_cfa_offset 16
	popq	%r13
	.cfi_def_cfa_offset 8
.LEHB51:
	jmp	_ZNSt16_Sp_counted_baseILN9__gnu_cxx12_Lock_policyE2EE10_M_releaseEv@PLT
.LEHE51:
	.p2align 4,,10
	.p2align 3
.L699:
	.cfi_restore_state
	testq	%r12, %r12
	jne	.L694
.L670:
	addq	$56, %rsp
	.cfi_remember_state
	.cfi_def_cfa_offset 40
	popq	%rbx
	.cfi_def_cfa_offset 32
	popq	%rbp
	.cfi_def_cfa_offset 24
	popq	%r12
	.cfi_def_cfa_offset 16
	popq	%r13
	.cfi_def_cfa_offset 8
	ret
	.p2align 4,,10
	.p2align 3
.L698:
	.cfi_restore_state
	movzbl	64(%rbx), %edx
	movb	%dl, (%rbx)
	movq	%rbx, (%rax)
	jmp	.L673
.L680:
	movq	%rax, %rbx
	jmp	.L678
	.section	.gcc_except_table
.LLSDA11532:
	.byte	0xff
	.byte	0xff
	.byte	0x1
	.uleb128 .LLSDACSE11532-.LLSDACSB11532
.LLSDACSB11532:
	.uleb128 .LEHB50-.LFB11532
	.uleb128 .LEHE50-.LEHB50
	.uleb128 .L680-.LFB11532
	.uleb128 0
	.uleb128 .LEHB51-.LFB11532
	.uleb128 .LEHE51-.LEHB51
	.uleb128 0
	.uleb128 0
.LLSDACSE11532:
	.text
	.cfi_endproc
	.section	.text.unlikely
	.cfi_startproc
	.cfi_personality 0x9b,DW.ref.__gxx_personality_v0
	.cfi_lsda 0x1b,.LLSDAC11532
	.type	_ZN4asio6detail18completion_handlerIZN8asiodnp311MasterStack14ScanAllObjectsEN8opendnp316GroupVariationIDERKNS4_10TaskConfigEEUlvE_E11do_completeEPNS0_15task_io_serviceEPNS0_25task_io_service_operationERKSt10error_codem.cold, @function
_ZN4asio6detail18completion_handlerIZN8asiodnp311MasterStack14ScanAllObjectsEN8opendnp316GroupVariationIDERKNS4_10TaskConfigEEUlvE_E11do_completeEPNS0_15task_io_serviceEPNS0_25task_io_service_operationERKSt10error_codem.cold:
.LFSB11532:
.L678:
	.cfi_def_cfa_offset 96
	.cfi_offset 3, -40
	.cfi_offset 6, -32
	.cfi_offset 12, -24
	.cfi_offset 13, -16
	sfence
	testq	%r12, %r12
	je	.L679
	movq	%r12, %rdi
	call	_ZNSt16_Sp_counted_baseILN9__gnu_cxx12_Lock_policyE2EE10_M_releaseEv@PLT
.L679:
	movq	%rbx, %rdi
.LEHB52:
	call	_Unwind_Resume@PLT
.LEHE52:
	.cfi_endproc
.LFE11532:
	.section	.gcc_except_table
.LLSDAC11532:
	.byte	0xff
	.byte	0xff
	.byte	0x1
	.uleb128 .LLSDACSEC11532-.LLSDACSBC11532
.LLSDACSBC11532:
	.uleb128 .LEHB52-.LCOLDB33
	.uleb128 .LEHE52-.LEHB52
	.uleb128 0
	.uleb128 0
.LLSDACSEC11532:
	.section	.text.unlikely
	.text
	.size	_ZN4asio6detail18completion_handlerIZN8asiodnp311MasterStack14ScanAllObjectsEN8opendnp316GroupVariationIDERKNS4_10TaskConfigEEUlvE_E11do_completeEPNS0_15task_io_serviceEPNS0_25task_io_service_operationERKSt10error_codem, .-_ZN4asio6detail18completion_handlerIZN8asiodnp311MasterStack14ScanAllObjectsEN8opendnp316GroupVariationIDERKNS4_10TaskConfigEEUlvE_E11do_completeEPNS0_15task_io_serviceEPNS0_25task_io_service_operationERKSt10error_codem
	.section	.text.unlikely
	.size	_ZN4asio6detail18completion_handlerIZN8asiodnp311MasterStack14ScanAllObjectsEN8opendnp316GroupVariationIDERKNS4_10TaskConfigEEUlvE_E11do_completeEPNS0_15task_io_serviceEPNS0_25task_io_service_operationERKSt10error_codem.cold, .-_ZN4asio6detail18completion_handlerIZN8asiodnp311MasterStack14ScanAllObjectsEN8opendnp316GroupVariationIDERKNS4_10TaskConfigEEUlvE_E11do_completeEPNS0_15task_io_serviceEPNS0_25task_io_service_operationERKSt10error_codem.cold
.LCOLDE33:
	.text
.LHOTE33:
	.section	.text.unlikely
.LCOLDB34:
	.text
.LHOTB34:
	.p2align 4
	.type	_ZN4asio6detail18completion_handlerIZN8asiodnp311MasterStack11ScanClassesERKN8opendnp310ClassFieldERKNS4_10TaskConfigEEUlvE_E11do_completeEPNS0_15task_io_serviceEPNS0_25task_io_service_operationERKSt10error_codem, @function
_ZN4asio6detail18completion_handlerIZN8asiodnp311MasterStack11ScanClassesERKN8opendnp310ClassFieldERKNS4_10TaskConfigEEUlvE_E11do_completeEPNS0_15task_io_serviceEPNS0_25task_io_service_operationERKSt10error_codem:
.LFB11538:
	.cfi_startproc
	.cfi_personality 0x9b,DW.ref.__gxx_personality_v0
	.cfi_lsda 0x1b,.LLSDA11538
	pushq	%rbp
	.cfi_def_cfa_offset 16
	.cfi_offset 6, -16
	movq	%rdi, %rbp
	pushq	%rbx
	.cfi_def_cfa_offset 24
	.cfi_offset 3, -24
	movq	%rsi, %rbx
	subq	$56, %rsp
	.cfi_def_cfa_offset 80
	movdqu	24(%rsi), %xmm0
	movzbl	40(%rsi), %eax
	movaps	%xmm0, (%rsp)
	movdqu	48(%rsi), %xmm0
	movb	%al, 16(%rsp)
	movups	%xmm0, 24(%rsp)
	data16	leaq	_ZN4asio6detail15keyword_tss_ptrINS0_10call_stackINS0_15task_io_serviceENS0_27task_io_service_thread_infoEE7contextEE6value_E@tlsgd(%rip), %rdi
	.value	0x6666
	rex64
	call	__tls_get_addr@PLT
	movq	(%rax), %rax
	testq	%rax, %rax
	je	.L702
	movq	8(%rax), %rax
	testq	%rax, %rax
	je	.L702
	cmpq	$0, (%rax)
	je	.L728
.L702:
	movq	%rbx, %rdi
	call	_ZdlPv@PLT
.L703:
	testq	%rbp, %rbp
	je	.L724
	movq	(%rsp), %rax
	movq	24(%rsp), %rdx
	leaq	16(%rsp), %rsi
	movq	32(%rsp), %rcx
	leaq	168(%rax), %rdi
.LEHB53:
	call	_ZN8opendnp38MContext11ScanClassesERKNS_10ClassFieldENS_10TaskConfigE@PLT
.LEHE53:
	sfence
.L724:
	movq	8(%rsp), %rdi
	testq	%rdi, %rdi
	je	.L700
	call	_ZNSt16_Sp_counted_baseILN9__gnu_cxx12_Lock_policyE2EE10_M_releaseEv@PLT
.L700:
	addq	$56, %rsp
	.cfi_remember_state
	.cfi_def_cfa_offset 24
	popq	%rbx
	.cfi_def_cfa_offset 16
	popq	%rbp
	.cfi_def_cfa_offset 8
	ret
	.p2align 4,,10
	.p2align 3
.L728:
	.cfi_restore_state
	movzbl	64(%rbx), %edx
	movb	%dl, (%rbx)
	movq	%rbx, (%rax)
	jmp	.L703
.L710:
	movq	%rax, %rbx
	jmp	.L708
	.section	.gcc_except_table
.LLSDA11538:
	.byte	0xff
	.byte	0xff
	.byte	0x1
	.uleb128 .LLSDACSE11538-.LLSDACSB11538
.LLSDACSB11538:
	.uleb128 .LEHB53-.LFB11538
	.uleb128 .LEHE53-.LEHB53
	.uleb128 .L710-.LFB11538
	.uleb128 0
.LLSDACSE11538:
	.text
	.cfi_endproc
	.section	.text.unlikely
	.cfi_startproc
	.cfi_personality 0x9b,DW.ref.__gxx_personality_v0
	.cfi_lsda 0x1b,.LLSDAC11538
	.type	_ZN4asio6detail18completion_handlerIZN8asiodnp311MasterStack11ScanClassesERKN8opendnp310ClassFieldERKNS4_10TaskConfigEEUlvE_E11do_completeEPNS0_15task_io_serviceEPNS0_25task_io_service_operationERKSt10error_codem.cold, @function
_ZN4asio6detail18completion_handlerIZN8asiodnp311MasterStack11ScanClassesERKN8opendnp310ClassFieldERKNS4_10TaskConfigEEUlvE_E11do_completeEPNS0_15task_io_serviceEPNS0_25task_io_service_operationERKSt10error_codem.cold:
.LFSB11538:
.L708:
	.cfi_def_cfa_offset 80
	.cfi_offset 3, -24
	.cfi_offset 6, -16
	sfence
	movq	8(%rsp), %rdi
	testq	%rdi, %rdi
	je	.L709
	call	_ZNSt16_Sp_counted_baseILN9__gnu_cxx12_Lock_policyE2EE10_M_releaseEv@PLT
.L709:
	movq	%rbx, %rdi
.LEHB54:
	call	_Unwind_Resume@PLT
.LEHE54:
	.cfi_endproc
.LFE11538:
	.section	.gcc_except_table
.LLSDAC11538:
	.byte	0xff
	.byte	0xff
	.byte	0x1
	.uleb128 .LLSDACSEC11538-.LLSDACSBC11538
.LLSDACSBC11538:
	.uleb128 .LEHB54-.LCOLDB34
	.uleb128 .LEHE54-.LEHB54
	.uleb128 0
	.uleb128 0
.LLSDACSEC11538:
	.section	.text.unlikely
	.text
	.size	_ZN4asio6detail18completion_handlerIZN8asiodnp311MasterStack11ScanClassesERKN8opendnp310ClassFieldERKNS4_10TaskConfigEEUlvE_E11do_completeEPNS0_15task_io_serviceEPNS0_25task_io_service_operationERKSt10error_codem, .-_ZN4asio6detail18completion_handlerIZN8asiodnp311MasterStack11ScanClassesERKN8opendnp310ClassFieldERKNS4_10TaskConfigEEUlvE_E11do_completeEPNS0_15task_io_serviceEPNS0_25task_io_service_operationERKSt10error_codem
	.section	.text.unlikely
	.size	_ZN4asio6detail18completion_handlerIZN8asiodnp311MasterStack11ScanClassesERKN8opendnp310ClassFieldERKNS4_10TaskConfigEEUlvE_E11do_completeEPNS0_15task_io_serviceEPNS0_25task_io_service_operationERKSt10error_codem.cold, .-_ZN4asio6detail18completion_handlerIZN8asiodnp311MasterStack11ScanClassesERKN8opendnp310ClassFieldERKNS4_10TaskConfigEEUlvE_E11do_completeEPNS0_15task_io_serviceEPNS0_25task_io_service_operationERKSt10error_codem.cold
.LCOLDE34:
	.text
.LHOTE34:
	.section	.text.unlikely
.LCOLDB35:
	.text
.LHOTB35:
	.p2align 4
	.type	_ZN4asio6detail18completion_handlerIZN8asiodnp311MasterStack5WriteERKN8opendnp315TimeAndIntervalEtRKNS4_10TaskConfigEEUlvE_E11do_completeEPNS0_15task_io_serviceEPNS0_25task_io_service_operationERKSt10error_codem, @function
_ZN4asio6detail18completion_handlerIZN8asiodnp311MasterStack5WriteERKN8opendnp315TimeAndIntervalEtRKNS4_10TaskConfigEEUlvE_E11do_completeEPNS0_15task_io_serviceEPNS0_25task_io_service_operationERKSt10error_codem:
.LFB11550:
	.cfi_startproc
	.cfi_personality 0x9b,DW.ref.__gxx_personality_v0
	.cfi_lsda 0x1b,.LLSDA11550
	pushq	%rbp
	.cfi_def_cfa_offset 16
	.cfi_offset 6, -16
	movq	%rdi, %rbp
	pushq	%rbx
	.cfi_def_cfa_offset 24
	.cfi_offset 3, -24
	movq	%rsi, %rbx
	subq	$72, %rsp
	.cfi_def_cfa_offset 96
	movdqu	24(%rsi), %xmm0
	movzwl	56(%rsi), %eax
	movaps	%xmm0, (%rsp)
	movdqu	40(%rsi), %xmm0
	movw	%ax, 32(%rsp)
	movaps	%xmm0, 16(%rsp)
	movdqu	64(%rsi), %xmm0
	movups	%xmm0, 40(%rsp)
	data16	leaq	_ZN4asio6detail15keyword_tss_ptrINS0_10call_stackINS0_15task_io_serviceENS0_27task_io_service_thread_infoEE7contextEE6value_E@tlsgd(%rip), %rdi
	.value	0x6666
	rex64
	call	__tls_get_addr@PLT
	movq	(%rax), %rax
	testq	%rax, %rax
	je	.L731
	movq	8(%rax), %rax
	testq	%rax, %rax
	je	.L731
	cmpq	$0, (%rax)
	je	.L757
.L731:
	movq	%rbx, %rdi
	call	_ZdlPv@PLT
.L732:
	testq	%rbp, %rbp
	je	.L753
	movq	(%rsp), %rax
	movzwl	32(%rsp), %edx
	leaq	16(%rsp), %rsi
	movq	40(%rsp), %rcx
	movq	48(%rsp), %r8
	leaq	168(%rax), %rdi
.LEHB55:
	call	_ZN8opendnp38MContext5WriteERKNS_15TimeAndIntervalEtNS_10TaskConfigE@PLT
.LEHE55:
	sfence
.L753:
	movq	8(%rsp), %rdi
	testq	%rdi, %rdi
	je	.L729
	call	_ZNSt16_Sp_counted_baseILN9__gnu_cxx12_Lock_policyE2EE10_M_releaseEv@PLT
.L729:
	addq	$72, %rsp
	.cfi_remember_state
	.cfi_def_cfa_offset 24
	popq	%rbx
	.cfi_def_cfa_offset 16
	popq	%rbp
	.cfi_def_cfa_offset 8
	ret
	.p2align 4,,10
	.p2align 3
.L757:
	.cfi_restore_state
	movzbl	80(%rbx), %edx
	movb	%dl, (%rbx)
	movq	%rbx, (%rax)
	jmp	.L732
.L739:
	movq	%rax, %rbx
	jmp	.L737
	.section	.gcc_except_table
.LLSDA11550:
	.byte	0xff
	.byte	0xff
	.byte	0x1
	.uleb128 .LLSDACSE11550-.LLSDACSB11550
.LLSDACSB11550:
	.uleb128 .LEHB55-.LFB11550
	.uleb128 .LEHE55-.LEHB55
	.uleb128 .L739-.LFB11550
	.uleb128 0
.LLSDACSE11550:
	.text
	.cfi_endproc
	.section	.text.unlikely
	.cfi_startproc
	.cfi_personality 0x9b,DW.ref.__gxx_personality_v0
	.cfi_lsda 0x1b,.LLSDAC11550
	.type	_ZN4asio6detail18completion_handlerIZN8asiodnp311MasterStack5WriteERKN8opendnp315TimeAndIntervalEtRKNS4_10TaskConfigEEUlvE_E11do_completeEPNS0_15task_io_serviceEPNS0_25task_io_service_operationERKSt10error_codem.cold, @function
_ZN4asio6detail18completion_handlerIZN8asiodnp311MasterStack5WriteERKN8opendnp315TimeAndIntervalEtRKNS4_10TaskConfigEEUlvE_E11do_completeEPNS0_15task_io_serviceEPNS0_25task_io_service_operationERKSt10error_codem.cold:
.LFSB11550:
.L737:
	.cfi_def_cfa_offset 96
	.cfi_offset 3, -24
	.cfi_offset 6, -16
	sfence
	movq	8(%rsp), %rdi
	testq	%rdi, %rdi
	je	.L738
	call	_ZNSt16_Sp_counted_baseILN9__gnu_cxx12_Lock_policyE2EE10_M_releaseEv@PLT
.L738:
	movq	%rbx, %rdi
.LEHB56:
	call	_Unwind_Resume@PLT
.LEHE56:
	.cfi_endproc
.LFE11550:
	.section	.gcc_except_table
.LLSDAC11550:
	.byte	0xff
	.byte	0xff
	.byte	0x1
	.uleb128 .LLSDACSEC11550-.LLSDACSBC11550
.LLSDACSBC11550:
	.uleb128 .LEHB56-.LCOLDB35
	.uleb128 .LEHE56-.LEHB56
	.uleb128 0
	.uleb128 0
.LLSDACSEC11550:
	.section	.text.unlikely
	.text
	.size	_ZN4asio6detail18completion_handlerIZN8asiodnp311MasterStack5WriteERKN8opendnp315TimeAndIntervalEtRKNS4_10TaskConfigEEUlvE_E11do_completeEPNS0_15task_io_serviceEPNS0_25task_io_service_operationERKSt10error_codem, .-_ZN4asio6detail18completion_handlerIZN8asiodnp311MasterStack5WriteERKN8opendnp315TimeAndIntervalEtRKNS4_10TaskConfigEEUlvE_E11do_completeEPNS0_15task_io_serviceEPNS0_25task_io_service_operationERKSt10error_codem
	.section	.text.unlikely
	.size	_ZN4asio6detail18completion_handlerIZN8asiodnp311MasterStack5WriteERKN8opendnp315TimeAndIntervalEtRKNS4_10TaskConfigEEUlvE_E11do_completeEPNS0_15task_io_serviceEPNS0_25task_io_service_operationERKSt10error_codem.cold, .-_ZN4asio6detail18completion_handlerIZN8asiodnp311MasterStack5WriteERKN8opendnp315TimeAndIntervalEtRKNS4_10TaskConfigEEUlvE_E11do_completeEPNS0_15task_io_serviceEPNS0_25task_io_service_operationERKSt10error_codem.cold
.LCOLDE35:
	.text
.LHOTE35:
	.section	.text.unlikely
.LCOLDB36:
	.text
.LHOTB36:
	.p2align 4
	.type	_ZN4asio6detail18completion_handlerIZN8asiodnp311MasterStack9ScanRangeEN8opendnp316GroupVariationIDEttRKNS4_10TaskConfigEEUlvE_E11do_completeEPNS0_15task_io_serviceEPNS0_25task_io_service_operationERKSt10error_codem, @function
_ZN4asio6detail18completion_handlerIZN8asiodnp311MasterStack9ScanRangeEN8opendnp316GroupVariationIDEttRKNS4_10TaskConfigEEUlvE_E11do_completeEPNS0_15task_io_serviceEPNS0_25task_io_service_operationERKSt10error_codem:
.LFB11544:
	.cfi_startproc
	.cfi_personality 0x9b,DW.ref.__gxx_personality_v0
	.cfi_lsda 0x1b,.LLSDA11544
	pushq	%r15
	.cfi_def_cfa_offset 16
	.cfi_offset 15, -16
	movq	%rdi, %r15
	pushq	%r14
	.cfi_def_cfa_offset 24
	.cfi_offset 14, -24
	pushq	%r13
	.cfi_def_cfa_offset 32
	.cfi_offset 13, -32
	pushq	%r12
	.cfi_def_cfa_offset 40
	.cfi_offset 12, -40
	pushq	%rbp
	.cfi_def_cfa_offset 48
	.cfi_offset 6, -48
	pushq	%rbx
	.cfi_def_cfa_offset 56
	.cfi_offset 3, -56
	movq	%rsi, %rbx
	subq	$56, %rsp
	.cfi_def_cfa_offset 112
	movzwl	40(%rsi), %eax
	movdqu	48(%rsi), %xmm0
	movq	24(%rsi), %rbp
	movq	32(%rsi), %r13
	movzwl	42(%rsi), %r12d
	movzwl	44(%rsi), %r14d
	movw	%ax, 16(%rsp)
	movups	%xmm0, 24(%rsp)
	data16	leaq	_ZN4asio6detail15keyword_tss_ptrINS0_10call_stackINS0_15task_io_serviceENS0_27task_io_service_thread_infoEE7contextEE6value_E@tlsgd(%rip), %rdi
	.value	0x6666
	rex64
	call	__tls_get_addr@PLT
	movq	(%rax), %rax
	testq	%rax, %rax
	je	.L760
	movq	8(%rax), %rax
	testq	%rax, %rax
	je	.L760
	cmpq	$0, (%rax)
	je	.L786
.L760:
	movq	%rbx, %rdi
	call	_ZdlPv@PLT
.L761:
	testq	%r15, %r15
	je	.L787
	movq	24(%rsp), %r8
	movq	32(%rsp), %r9
	movzwl	%r14w, %ecx
	movzwl	%r12w, %edx
	movzwl	16(%rsp), %esi
	leaq	168(%rbp), %rdi
.LEHB57:
	call	_ZN8opendnp38MContext9ScanRangeENS_16GroupVariationIDEttNS_10TaskConfigE@PLT
.LEHE57:
	sfence
	testq	%r13, %r13
	je	.L758
.L782:
	addq	$56, %rsp
	.cfi_remember_state
	.cfi_def_cfa_offset 56
	movq	%r13, %rdi
	popq	%rbx
	.cfi_def_cfa_offset 48
	popq	%rbp
	.cfi_def_cfa_offset 40
	popq	%r12
	.cfi_def_cfa_offset 32
	popq	%r13
	.cfi_def_cfa_offset 24
	popq	%r14
	.cfi_def_cfa_offset 16
	popq	%r15
	.cfi_def_cfa_offset 8
.LEHB58:
	jmp	_ZNSt16_Sp_counted_baseILN9__gnu_cxx12_Lock_policyE2EE10_M_releaseEv@PLT
.LEHE58:
	.p2align 4,,10
	.p2align 3
.L787:
	.cfi_restore_state
	testq	%r13, %r13
	jne	.L782
.L758:
	addq	$56, %rsp
	.cfi_remember_state
	.cfi_def_cfa_offset 56
	popq	%rbx
	.cfi_def_cfa_offset 48
	popq	%rbp
	.cfi_def_cfa_offset 40
	popq	%r12
	.cfi_def_cfa_offset 32
	popq	%r13
	.cfi_def_cfa_offset 24
	popq	%r14
	.cfi_def_cfa_offset 16
	popq	%r15
	.cfi_def_cfa_offset 8
	ret
	.p2align 4,,10
	.p2align 3
.L786:
	.cfi_restore_state
	movzbl	64(%rbx), %edx
	movb	%dl, (%rbx)
	movq	%rbx, (%rax)
	jmp	.L761
.L768:
	movq	%rax, %rbx
	jmp	.L766
	.section	.gcc_except_table
.LLSDA11544:
	.byte	0xff
	.byte	0xff
	.byte	0x1
	.uleb128 .LLSDACSE11544-.LLSDACSB11544
.LLSDACSB11544:
	.uleb128 .LEHB57-.LFB11544
	.uleb128 .LEHE57-.LEHB57
	.uleb128 .L768-.LFB11544
	.uleb128 0
	.uleb128 .LEHB58-.LFB11544
	.uleb128 .LEHE58-.LEHB58
	.uleb128 0
	.uleb128 0
.LLSDACSE11544:
	.text
	.cfi_endproc
	.section	.text.unlikely
	.cfi_startproc
	.cfi_personality 0x9b,DW.ref.__gxx_personality_v0
	.cfi_lsda 0x1b,.LLSDAC11544
	.type	_ZN4asio6detail18completion_handlerIZN8asiodnp311MasterStack9ScanRangeEN8opendnp316GroupVariationIDEttRKNS4_10TaskConfigEEUlvE_E11do_completeEPNS0_15task_io_serviceEPNS0_25task_io_service_operationERKSt10error_codem.cold, @function
_ZN4asio6detail18completion_handlerIZN8asiodnp311MasterStack9ScanRangeEN8opendnp316GroupVariationIDEttRKNS4_10TaskConfigEEUlvE_E11do_completeEPNS0_15task_io_serviceEPNS0_25task_io_service_operationERKSt10error_codem.cold:
.LFSB11544:
.L766:
	.cfi_def_cfa_offset 112
	.cfi_offset 3, -56
	.cfi_offset 6, -48
	.cfi_offset 12, -40
	.cfi_offset 13, -32
	.cfi_offset 14, -24
	.cfi_offset 15, -16
	sfence
	testq	%r13, %r13
	je	.L767
	movq	%r13, %rdi
	call	_ZNSt16_Sp_counted_baseILN9__gnu_cxx12_Lock_policyE2EE10_M_releaseEv@PLT
.L767:
	movq	%rbx, %rdi
.LEHB59:
	call	_Unwind_Resume@PLT
.LEHE59:
	.cfi_endproc
.LFE11544:
	.section	.gcc_except_table
.LLSDAC11544:
	.byte	0xff
	.byte	0xff
	.byte	0x1
	.uleb128 .LLSDACSEC11544-.LLSDACSBC11544
.LLSDACSBC11544:
	.uleb128 .LEHB59-.LCOLDB36
	.uleb128 .LEHE59-.LEHB59
	.uleb128 0
	.uleb128 0
.LLSDACSEC11544:
	.section	.text.unlikely
	.text
	.size	_ZN4asio6detail18completion_handlerIZN8asiodnp311MasterStack9ScanRangeEN8opendnp316GroupVariationIDEttRKNS4_10TaskConfigEEUlvE_E11do_completeEPNS0_15task_io_serviceEPNS0_25task_io_service_operationERKSt10error_codem, .-_ZN4asio6detail18completion_handlerIZN8asiodnp311MasterStack9ScanRangeEN8opendnp316GroupVariationIDEttRKNS4_10TaskConfigEEUlvE_E11do_completeEPNS0_15task_io_serviceEPNS0_25task_io_service_operationERKSt10error_codem
	.section	.text.unlikely
	.size	_ZN4asio6detail18completion_handlerIZN8asiodnp311MasterStack9ScanRangeEN8opendnp316GroupVariationIDEttRKNS4_10TaskConfigEEUlvE_E11do_completeEPNS0_15task_io_serviceEPNS0_25task_io_service_operationERKSt10error_codem.cold, .-_ZN4asio6detail18completion_handlerIZN8asiodnp311MasterStack9ScanRangeEN8opendnp316GroupVariationIDEttRKNS4_10TaskConfigEEUlvE_E11do_completeEPNS0_15task_io_serviceEPNS0_25task_io_service_operationERKSt10error_codem.cold
.LCOLDE36:
	.text
.LHOTE36:
	.section	.text._ZN4asio6detail18completion_handlerIZZN8asiodnp39StackBase15PerformShutdownINS2_11MasterStackEEEvRKSt10shared_ptrIT_EENKUlvE_clEvEUlvE_E11do_completeEPNS0_15task_io_serviceEPNS0_25task_io_service_operationERKSt10error_codem,"axG",@progbits,_ZN4asio6detail18completion_handlerIZZN8asiodnp39StackBase15PerformShutdownINS2_11MasterStackEEEvRKSt10shared_ptrIT_EENKUlvE_clEvEUlvE_E11do_completeEPNS0_15task_io_serviceEPNS0_25task_io_service_operationERKSt10error_codem,comdat
	.p2align 4
	.weak	_ZN4asio6detail18completion_handlerIZZN8asiodnp39StackBase15PerformShutdownINS2_11MasterStackEEEvRKSt10shared_ptrIT_EENKUlvE_clEvEUlvE_E11do_completeEPNS0_15task_io_serviceEPNS0_25task_io_service_operationERKSt10error_codem
	.type	_ZN4asio6detail18completion_handlerIZZN8asiodnp39StackBase15PerformShutdownINS2_11MasterStackEEEvRKSt10shared_ptrIT_EENKUlvE_clEvEUlvE_E11do_completeEPNS0_15task_io_serviceEPNS0_25task_io_service_operationERKSt10error_codem, @function
_ZN4asio6detail18completion_handlerIZZN8asiodnp39StackBase15PerformShutdownINS2_11MasterStackEEEvRKSt10shared_ptrIT_EENKUlvE_clEvEUlvE_E11do_completeEPNS0_15task_io_serviceEPNS0_25task_io_service_operationERKSt10error_codem:
.LFB11871:
	.cfi_startproc
	.cfi_personality 0x9b,DW.ref.__gxx_personality_v0
	.cfi_lsda 0x1b,.LLSDA11871
	pushq	%r14
	.cfi_def_cfa_offset 16
	.cfi_offset 14, -16
	movq	%rdi, %r14
	pushq	%r13
	.cfi_def_cfa_offset 24
	.cfi_offset 13, -24
	pushq	%r12
	.cfi_def_cfa_offset 32
	.cfi_offset 12, -32
	movq	%rsi, %r12
	pushq	%rbp
	.cfi_def_cfa_offset 40
	.cfi_offset 6, -40
	pushq	%rbx
	.cfi_def_cfa_offset 48
	.cfi_offset 3, -48
	subq	$16, %rsp
	.cfi_def_cfa_offset 64
	movq	32(%rsi), %rbx
	movq	24(%rsi), %rbp
	testq	%rbx, %rbx
	je	.L831
	movq	__libc_single_threaded@GOTPCREL(%rip), %r13
	cmpb	$0, 0(%r13)
	je	.L793
	addl	$1, 8(%rbx)
	movq	%rbx, %rdi
.L794:
	call	_ZNSt16_Sp_counted_baseILN9__gnu_cxx12_Lock_policyE2EE10_M_releaseEv@PLT
.L795:
	data16	leaq	_ZN4asio6detail15keyword_tss_ptrINS0_10call_stackINS0_15task_io_serviceENS0_27task_io_service_thread_infoEE7contextEE6value_E@tlsgd(%rip), %rdi
	.value	0x6666
	rex64
	call	__tls_get_addr@PLT
	movq	(%rax), %rax
	testq	%rax, %rax
	je	.L796
	movq	8(%rax), %rax
	testq	%rax, %rax
	je	.L832
.L797:
	cmpq	$0, (%rax)
	je	.L833
	movq	%r12, %rdi
	call	_ZdlPv@PLT
.L802:
	testq	%r14, %r14
	je	.L834
.L798:
	movq	120(%rbp), %rdi
	leaq	8(%rbp), %rcx
	movq	%rbx, %xmm1
	movq	%rcx, %xmm0
	movq	(%rdi), %rax
	punpcklqdq	%xmm1, %xmm0
	movaps	%xmm0, (%rsp)
	movq	16(%rax), %rax
	testq	%rbx, %rbx
	je	.L806
	movq	__libc_single_threaded@GOTPCREL(%rip), %r13
.L805:
	cmpb	$0, 0(%r13)
	je	.L808
	addl	$1, 8(%rbx)
.L806:
	movq	%rsp, %rsi
.LEHB60:
	call	*%rax
.LEHE60:
	movq	8(%rsp), %rdi
	testq	%rdi, %rdi
	je	.L810
	call	_ZNSt16_Sp_counted_baseILN9__gnu_cxx12_Lock_policyE2EE10_M_releaseEv@PLT
.L810:
	sfence
	testq	%rbx, %rbx
	je	.L788
.L804:
	addq	$16, %rsp
	.cfi_remember_state
	.cfi_def_cfa_offset 48
	movq	%rbx, %rdi
	popq	%rbx
	.cfi_def_cfa_offset 40
	popq	%rbp
	.cfi_def_cfa_offset 32
	popq	%r12
	.cfi_def_cfa_offset 24
	popq	%r13
	.cfi_def_cfa_offset 16
	popq	%r14
	.cfi_def_cfa_offset 8
.LEHB61:
	jmp	_ZNSt16_Sp_counted_baseILN9__gnu_cxx12_Lock_policyE2EE10_M_releaseEv@PLT
	.p2align 4,,10
	.p2align 3
.L793:
	.cfi_restore_state
	lock addl	$1, 8(%rbx)
	movq	32(%rsi), %rdi
	testq	%rdi, %rdi
	je	.L795
	jmp	.L794
	.p2align 4,,10
	.p2align 3
.L834:
	testq	%rbx, %rbx
	jne	.L804
.L788:
	addq	$16, %rsp
	.cfi_remember_state
	.cfi_def_cfa_offset 48
	popq	%rbx
	.cfi_def_cfa_offset 40
	popq	%rbp
	.cfi_def_cfa_offset 32
	popq	%r12
	.cfi_def_cfa_offset 24
	popq	%r13
	.cfi_def_cfa_offset 16
	popq	%r14
	.cfi_def_cfa_offset 8
	ret
	.p2align 4,,10
	.p2align 3
.L831:
	.cfi_restore_state
	data16	leaq	_ZN4asio6detail15keyword_tss_ptrINS0_10call_stackINS0_15task_io_serviceENS0_27task_io_service_thread_infoEE7contextEE6value_E@tlsgd(%rip), %rdi
	.value	0x6666
	rex64
	call	__tls_get_addr@PLT
	movq	(%rax), %rax
	testq	%rax, %rax
	je	.L835
	movq	8(%rax), %rax
	testq	%rax, %rax
	jne	.L797
	movq	%r12, %rdi
	call	_ZdlPv@PLT
	testq	%r14, %r14
	jne	.L798
	jmp	.L788
	.p2align 4,,10
	.p2align 3
.L808:
	lock addl	$1, 8(%rbx)
	jmp	.L806
	.p2align 4,,10
	.p2align 3
.L833:
	movzbl	40(%r12), %edx
	movb	%dl, (%r12)
	movq	%r12, (%rax)
	jmp	.L802
	.p2align 4,,10
	.p2align 3
.L832:
	movq	%r12, %rdi
	call	_ZdlPv@PLT
	testq	%r14, %r14
	jne	.L798
	jmp	.L804
	.p2align 4,,10
	.p2align 3
.L796:
	movq	%r12, %rdi
	call	_ZdlPv@PLT
	testq	%r14, %r14
	je	.L804
	movq	120(%rbp), %rdi
	leaq	8(%rbp), %rdx
	movq	%rbx, %xmm2
	movq	%rdx, %xmm0
	movq	(%rdi), %rax
	punpcklqdq	%xmm2, %xmm0
	movaps	%xmm0, (%rsp)
	movq	16(%rax), %rax
	jmp	.L805
	.p2align 4,,10
	.p2align 3
.L835:
	movq	%r12, %rdi
	call	_ZdlPv@PLT
	testq	%r14, %r14
	je	.L788
	movq	120(%rbp), %rdi
	addq	$8, %rbp
	movq	%rbp, %xmm0
	movq	(%rdi), %rax
	movaps	%xmm0, (%rsp)
	movq	16(%rax), %rax
	jmp	.L806
.L815:
	movq	%rax, %rbp
.L811:
	movq	8(%rsp), %rdi
	testq	%rdi, %rdi
	je	.L812
	call	_ZNSt16_Sp_counted_baseILN9__gnu_cxx12_Lock_policyE2EE10_M_releaseEv@PLT
.L812:
	sfence
	testq	%rbx, %rbx
	je	.L814
	movq	%rbx, %rdi
	call	_ZNSt16_Sp_counted_baseILN9__gnu_cxx12_Lock_policyE2EE10_M_releaseEv@PLT
.L814:
	movq	%rbp, %rdi
	call	_Unwind_Resume@PLT
.LEHE61:
	.cfi_endproc
.LFE11871:
	.section	.gcc_except_table
.LLSDA11871:
	.byte	0xff
	.byte	0xff
	.byte	0x1
	.uleb128 .LLSDACSE11871-.LLSDACSB11871
.LLSDACSB11871:
	.uleb128 .LEHB60-.LFB11871
	.uleb128 .LEHE60-.LEHB60
	.uleb128 .L815-.LFB11871
	.uleb128 0
	.uleb128 .LEHB61-.LFB11871
	.uleb128 .LEHE61-.LEHB61
	.uleb128 0
	.uleb128 0
.LLSDACSE11871:
	.section	.text._ZN4asio6detail18completion_handlerIZZN8asiodnp39StackBase15PerformShutdownINS2_11MasterStackEEEvRKSt10shared_ptrIT_EENKUlvE_clEvEUlvE_E11do_completeEPNS0_15task_io_serviceEPNS0_25task_io_service_operationERKSt10error_codem,"axG",@progbits,_ZN4asio6detail18completion_handlerIZZN8asiodnp39StackBase15PerformShutdownINS2_11MasterStackEEEvRKSt10shared_ptrIT_EENKUlvE_clEvEUlvE_E11do_completeEPNS0_15task_io_serviceEPNS0_25task_io_service_operationERKSt10error_codem,comdat
	.size	_ZN4asio6detail18completion_handlerIZZN8asiodnp39StackBase15PerformShutdownINS2_11MasterStackEEEvRKSt10shared_ptrIT_EENKUlvE_clEvEUlvE_E11do_completeEPNS0_15task_io_serviceEPNS0_25task_io_service_operationERKSt10error_codem, .-_ZN4asio6detail18completion_handlerIZZN8asiodnp39StackBase15PerformShutdownINS2_11MasterStackEEEvRKSt10shared_ptrIT_EENKUlvE_clEvEUlvE_E11do_completeEPNS0_15task_io_serviceEPNS0_25task_io_service_operationERKSt10error_codem
	.section	.text.unlikely
	.align 2
	.type	_ZN4asio6detail18completion_handlerIZN8asiodnp311MasterStack7RestartEN8opendnp311RestartTypeERKSt8functionIFvRKNS4_22RestartOperationResultEEENS4_10TaskConfigEEUlvE_E3ptr5resetEv, @function
_ZN4asio6detail18completion_handlerIZN8asiodnp311MasterStack7RestartEN8opendnp311RestartTypeERKSt8functionIFvRKNS4_22RestartOperationResultEEENS4_10TaskConfigEEUlvE_E3ptr5resetEv:
.LFB11552:
	.cfi_startproc
	.cfi_personality 0x9b,DW.ref.__gxx_personality_v0
	.cfi_lsda 0x1b,.LLSDA11552
	pushq	%rbp
	.cfi_def_cfa_offset 16
	.cfi_offset 6, -16
	movq	%rdi, %rbp
	pushq	%rbx
	.cfi_def_cfa_offset 24
	.cfi_offset 3, -24
	pushq	%rsi
	.cfi_def_cfa_offset 32
	movq	16(%rdi), %rbx
	testq	%rbx, %rbx
	je	.L837
	movq	64(%rbx), %rax
	testq	%rax, %rax
	je	.L838
	leaq	48(%rbx), %rdi
	movl	$3, %edx
	movq	%rdi, %rsi
	call	*%rax
.L838:
	movq	32(%rbx), %rdi
	testq	%rdi, %rdi
	je	.L839
	call	_ZNSt16_Sp_counted_baseILN9__gnu_cxx12_Lock_policyE2EE10_M_releaseEv@PLT
.L839:
	xorl	%ecx, %ecx
	movq	%rcx, 16(%rbp)
.L837:
	movq	8(%rbp), %rbx
	testq	%rbx, %rbx
	je	.L836
	data16	leaq	_ZN4asio6detail15keyword_tss_ptrINS0_10call_stackINS0_15task_io_serviceENS0_27task_io_service_thread_infoEE7contextEE6value_E@tlsgd(%rip), %rdi
	.value	0x6666
	rex64
	call	__tls_get_addr@PLT
	movq	(%rax), %rax
	testq	%rax, %rax
	je	.L841
	movq	8(%rax), %rax
	testq	%rax, %rax
	je	.L841
	cmpq	$0, (%rax)
	jne	.L841
	movb	96(%rbx), %dl
	movb	%dl, (%rbx)
	movq	%rbx, (%rax)
	jmp	.L842
.L841:
	movq	%rbx, %rdi
	call	_ZdlPv@PLT
.L842:
	xorl	%edx, %edx
	movq	%rdx, 8(%rbp)
.L836:
	popq	%rax
	.cfi_def_cfa_offset 24
	popq	%rbx
	.cfi_def_cfa_offset 16
	popq	%rbp
	.cfi_def_cfa_offset 8
	ret
	.cfi_endproc
.LFE11552:
	.section	.gcc_except_table
.LLSDA11552:
	.byte	0xff
	.byte	0xff
	.byte	0x1
	.uleb128 .LLSDACSE11552-.LLSDACSB11552
.LLSDACSB11552:
.LLSDACSE11552:
	.section	.text.unlikely
	.size	_ZN4asio6detail18completion_handlerIZN8asiodnp311MasterStack7RestartEN8opendnp311RestartTypeERKSt8functionIFvRKNS4_22RestartOperationResultEEENS4_10TaskConfigEEUlvE_E3ptr5resetEv, .-_ZN4asio6detail18completion_handlerIZN8asiodnp311MasterStack7RestartEN8opendnp311RestartTypeERKSt8functionIFvRKNS4_22RestartOperationResultEEENS4_10TaskConfigEEUlvE_E3ptr5resetEv
	.align 2
	.type	_ZN4asio6detail18completion_handlerIZN8asiodnp311MasterStack15PerformFunctionERKNSt7__cxx1112basic_stringIcSt11char_traitsIcESaIcEEEN8opendnp312FunctionCodeERKSt6vectorINSC_6HeaderESaISF_EERKNSC_10TaskConfigEEUlvE_E3ptr5resetEv, @function
_ZN4asio6detail18completion_handlerIZN8asiodnp311MasterStack15PerformFunctionERKNSt7__cxx1112basic_stringIcSt11char_traitsIcESaIcEEEN8opendnp312FunctionCodeERKSt6vectorINSC_6HeaderESaISF_EERKNSC_10TaskConfigEEUlvE_E3ptr5resetEv:
.LFB11558:
	.cfi_startproc
	.cfi_personality 0x9b,DW.ref.__gxx_personality_v0
	.cfi_lsda 0x1b,.LLSDA11558
	pushq	%rbp
	.cfi_def_cfa_offset 16
	.cfi_offset 6, -16
	movq	%rdi, %rbp
	pushq	%rbx
	.cfi_def_cfa_offset 24
	.cfi_offset 3, -24
	pushq	%rsi
	.cfi_def_cfa_offset 32
	movq	16(%rdi), %rbx
	testq	%rbx, %rbx
	je	.L863
	movq	96(%rbx), %rax
	testq	%rax, %rax
	je	.L864
	leaq	80(%rbx), %rdi
	movl	$3, %edx
	movq	%rdi, %rsi
	call	*%rax
.L864:
	movq	40(%rbx), %rdi
	leaq	56(%rbx), %rax
	cmpq	%rax, %rdi
	je	.L865
	movq	56(%rbx), %rax
	leaq	1(%rax), %rsi
	call	_ZdlPvm@PLT
.L865:
	movq	32(%rbx), %rdi
	testq	%rdi, %rdi
	je	.L866
	call	_ZNSt16_Sp_counted_baseILN9__gnu_cxx12_Lock_policyE2EE10_M_releaseEv@PLT
.L866:
	xorl	%ecx, %ecx
	movq	%rcx, 16(%rbp)
.L863:
	movq	8(%rbp), %rbx
	testq	%rbx, %rbx
	je	.L862
	data16	leaq	_ZN4asio6detail15keyword_tss_ptrINS0_10call_stackINS0_15task_io_serviceENS0_27task_io_service_thread_infoEE7contextEE6value_E@tlsgd(%rip), %rdi
	.value	0x6666
	rex64
	call	__tls_get_addr@PLT
	movq	(%rax), %rax
	testq	%rax, %rax
	je	.L868
	movq	8(%rax), %rax
	testq	%rax, %rax
	je	.L868
	cmpq	$0, (%rax)
	jne	.L868
	movb	128(%rbx), %dl
	movb	%dl, (%rbx)
	movq	%rbx, (%rax)
	jmp	.L869
.L868:
	movq	%rbx, %rdi
	call	_ZdlPv@PLT
.L869:
	xorl	%edx, %edx
	movq	%rdx, 8(%rbp)
.L862:
	popq	%rax
	.cfi_def_cfa_offset 24
	popq	%rbx
	.cfi_def_cfa_offset 16
	popq	%rbp
	.cfi_def_cfa_offset 8
	ret
	.cfi_endproc
.LFE11558:
	.section	.gcc_except_table
.LLSDA11558:
	.byte	0xff
	.byte	0xff
	.byte	0x1
	.uleb128 .LLSDACSE11558-.LLSDACSB11558
.LLSDACSB11558:
.LLSDACSE11558:
	.section	.text.unlikely
	.size	_ZN4asio6detail18completion_handlerIZN8asiodnp311MasterStack15PerformFunctionERKNSt7__cxx1112basic_stringIcSt11char_traitsIcESaIcEEEN8opendnp312FunctionCodeERKSt6vectorINSC_6HeaderESaISF_EERKNSC_10TaskConfigEEUlvE_E3ptr5resetEv, .-_ZN4asio6detail18completion_handlerIZN8asiodnp311MasterStack15PerformFunctionERKNSt7__cxx1112basic_stringIcSt11char_traitsIcESaIcEEEN8opendnp312FunctionCodeERKSt6vectorINSC_6HeaderESaISF_EERKNSC_10TaskConfigEEUlvE_E3ptr5resetEv
	.align 2
	.type	_ZN4asio6detail18completion_handlerIZN8asiodnp311MasterStack16SelectAndOperateEON8opendnp310CommandSetERKSt8functionIFvRKNS4_18ICommandTaskResultEEERKNS4_10TaskConfigEEUlvE_E3ptr5resetEv, @function
_ZN4asio6detail18completion_handlerIZN8asiodnp311MasterStack16SelectAndOperateEON8opendnp310CommandSetERKSt8functionIFvRKNS4_18ICommandTaskResultEEERKNS4_10TaskConfigEEUlvE_E3ptr5resetEv:
.LFB11568:
	.cfi_startproc
	.cfi_personality 0x9b,DW.ref.__gxx_personality_v0
	.cfi_lsda 0x1b,.LLSDA11568
	pushq	%rbp
	.cfi_def_cfa_offset 16
	.cfi_offset 6, -16
	movq	%rdi, %rbp
	pushq	%rbx
	.cfi_def_cfa_offset 24
	.cfi_offset 3, -24
	pushq	%rsi
	.cfi_def_cfa_offset 32
	movq	16(%rdi), %rbx
	testq	%rbx, %rbx
	je	.L890
	movq	88(%rbx), %rax
	testq	%rax, %rax
	je	.L891
	leaq	72(%rbx), %rdi
	movl	$3, %edx
	movq	%rdi, %rsi
	call	*%rax
.L891:
	movq	48(%rbx), %rdi
	testq	%rdi, %rdi
	je	.L892
	call	_ZNSt16_Sp_counted_baseILN9__gnu_cxx12_Lock_policyE2EE10_M_releaseEv@PLT
.L892:
	movq	32(%rbx), %rdi
	testq	%rdi, %rdi
	je	.L893
	call	_ZNSt16_Sp_counted_baseILN9__gnu_cxx12_Lock_policyE2EE10_M_releaseEv@PLT
.L893:
	xorl	%ecx, %ecx
	movq	%rcx, 16(%rbp)
.L890:
	movq	8(%rbp), %rbx
	testq	%rbx, %rbx
	je	.L889
	data16	leaq	_ZN4asio6detail15keyword_tss_ptrINS0_10call_stackINS0_15task_io_serviceENS0_27task_io_service_thread_infoEE7contextEE6value_E@tlsgd(%rip), %rdi
	.value	0x6666
	rex64
	call	__tls_get_addr@PLT
	movq	(%rax), %rax
	testq	%rax, %rax
	je	.L895
	movq	8(%rax), %rax
	testq	%rax, %rax
	je	.L895
	cmpq	$0, (%rax)
	jne	.L895
	movb	104(%rbx), %dl
	movb	%dl, (%rbx)
	movq	%rbx, (%rax)
	jmp	.L896
.L895:
	movq	%rbx, %rdi
	call	_ZdlPv@PLT
.L896:
	xorl	%edx, %edx
	movq	%rdx, 8(%rbp)
.L889:
	popq	%rax
	.cfi_def_cfa_offset 24
	popq	%rbx
	.cfi_def_cfa_offset 16
	popq	%rbp
	.cfi_def_cfa_offset 8
	ret
	.cfi_endproc
.LFE11568:
	.section	.gcc_except_table
.LLSDA11568:
	.byte	0xff
	.byte	0xff
	.byte	0x1
	.uleb128 .LLSDACSE11568-.LLSDACSB11568
.LLSDACSB11568:
.LLSDACSE11568:
	.section	.text.unlikely
	.size	_ZN4asio6detail18completion_handlerIZN8asiodnp311MasterStack16SelectAndOperateEON8opendnp310CommandSetERKSt8functionIFvRKNS4_18ICommandTaskResultEEERKNS4_10TaskConfigEEUlvE_E3ptr5resetEv, .-_ZN4asio6detail18completion_handlerIZN8asiodnp311MasterStack16SelectAndOperateEON8opendnp310CommandSetERKSt8functionIFvRKNS4_18ICommandTaskResultEEERKNS4_10TaskConfigEEUlvE_E3ptr5resetEv
	.align 2
	.type	_ZN4asio6detail18completion_handlerIZN8asiodnp311MasterStack13DirectOperateEON8opendnp310CommandSetERKSt8functionIFvRKNS4_18ICommandTaskResultEEERKNS4_10TaskConfigEEUlvE_E3ptr5resetEv, @function
_ZN4asio6detail18completion_handlerIZN8asiodnp311MasterStack13DirectOperateEON8opendnp310CommandSetERKSt8functionIFvRKNS4_18ICommandTaskResultEEERKNS4_10TaskConfigEEUlvE_E3ptr5resetEv:
.LFB11574:
	.cfi_startproc
	.cfi_personality 0x9b,DW.ref.__gxx_personality_v0
	.cfi_lsda 0x1b,.LLSDA11574
	pushq	%rbp
	.cfi_def_cfa_offset 16
	.cfi_offset 6, -16
	movq	%rdi, %rbp
	pushq	%rbx
	.cfi_def_cfa_offset 24
	.cfi_offset 3, -24
	pushq	%rsi
	.cfi_def_cfa_offset 32
	movq	16(%rdi), %rbx
	testq	%rbx, %rbx
	je	.L920
	movq	88(%rbx), %rax
	testq	%rax, %rax
	je	.L921
	leaq	72(%rbx), %rdi
	movl	$3, %edx
	movq	%rdi, %rsi
	call	*%rax
.L921:
	movq	48(%rbx), %rdi
	testq	%rdi, %rdi
	je	.L922
	call	_ZNSt16_Sp_counted_baseILN9__gnu_cxx12_Lock_policyE2EE10_M_releaseEv@PLT
.L922:
	movq	32(%rbx), %rdi
	testq	%rdi, %rdi
	je	.L923
	call	_ZNSt16_Sp_counted_baseILN9__gnu_cxx12_Lock_policyE2EE10_M_releaseEv@PLT
.L923:
	xorl	%ecx, %ecx
	movq	%rcx, 16(%rbp)
.L920:
	movq	8(%rbp), %rbx
	testq	%rbx, %rbx
	je	.L919
	data16	leaq	_ZN4asio6detail15keyword_tss_ptrINS0_10call_stackINS0_15task_io_serviceENS0_27task_io_service_thread_infoEE7contextEE6value_E@tlsgd(%rip), %rdi
	.value	0x6666
	rex64
	call	__tls_get_addr@PLT
	movq	(%rax), %rax
	testq	%rax, %rax
	je	.L925
	movq	8(%rax), %rax
	testq	%rax, %rax
	je	.L925
	cmpq	$0, (%rax)
	jne	.L925
	movb	104(%rbx), %dl
	movb	%dl, (%rbx)
	movq	%rbx, (%rax)
	jmp	.L926
.L925:
	movq	%rbx, %rdi
	call	_ZdlPv@PLT
.L926:
	xorl	%edx, %edx
	movq	%rdx, 8(%rbp)
.L919:
	popq	%rax
	.cfi_def_cfa_offset 24
	popq	%rbx
	.cfi_def_cfa_offset 16
	popq	%rbp
	.cfi_def_cfa_offset 8
	ret
	.cfi_endproc
.LFE11574:
	.section	.gcc_except_table
.LLSDA11574:
	.byte	0xff
	.byte	0xff
	.byte	0x1
	.uleb128 .LLSDACSE11574-.LLSDACSB11574
.LLSDACSB11574:
.LLSDACSE11574:
	.section	.text.unlikely
	.size	_ZN4asio6detail18completion_handlerIZN8asiodnp311MasterStack13DirectOperateEON8opendnp310CommandSetERKSt8functionIFvRKNS4_18ICommandTaskResultEEERKNS4_10TaskConfigEEUlvE_E3ptr5resetEv, .-_ZN4asio6detail18completion_handlerIZN8asiodnp311MasterStack13DirectOperateEON8opendnp310CommandSetERKSt8functionIFvRKNS4_18ICommandTaskResultEEERKNS4_10TaskConfigEEUlvE_E3ptr5resetEv
	.align 2
.LCOLDB37:
	.text
.LHOTB37:
	.align 2
	.p2align 4
	.globl	_ZN8asiodnp311MasterStack8ShutdownEv
	.type	_ZN8asiodnp311MasterStack8ShutdownEv, @function
_ZN8asiodnp311MasterStack8ShutdownEv:
.LFB8404:
	.cfi_startproc
	.cfi_personality 0x9b,DW.ref.__gxx_personality_v0
	.cfi_lsda 0x1b,.LLSDA8404
	pushq	%r12
	.cfi_def_cfa_offset 16
	.cfi_offset 12, -16
	pushq	%rbp
	.cfi_def_cfa_offset 24
	.cfi_offset 6, -24
	pushq	%rbx
	.cfi_def_cfa_offset 32
	.cfi_offset 3, -32
	subq	$48, %rsp
	.cfi_def_cfa_offset 80
	movq	48(%rdi), %rbx
	testq	%rbx, %rbx
	je	.L951
	movl	8(%rbx), %eax
	leaq	8(%rbx), %rdx
.L953:
	testl	%eax, %eax
	je	.L951
	leal	1(%rax), %ecx
	lock cmpxchgl	%ecx, (%rdx)
	jne	.L953
	movq	__libc_single_threaded@GOTPCREL(%rip), %rbp
	movq	40(%rdi), %xmm0
	cmpb	$0, 0(%rbp)
	je	.L976
	addl	$1, 8(%rbx)
.L954:
	movq	88(%rdi), %r12
	pxor	%xmm1, %xmm1
	movl	$16, %edi
	movq	$0, 32(%rsp)
	movq	$0, 40(%rsp)
	movq	%xmm0, 8(%rsp)
	movaps	%xmm1, 16(%rsp)
.LEHB62:
	call	_Znwm@PLT
.LEHE62:
	movq	8(%rsp), %xmm0
	movq	%rbx, %xmm2
	movq	_ZNSt17_Function_handlerIFvvEZN8asiodnp39StackBase15PerformShutdownINS1_11MasterStackEEEvRKSt10shared_ptrIT_EEUlvE_E10_M_managerERSt9_Any_dataRKSC_St18_Manager_operation@GOTPCREL(%rip), %xmm1
	movhps	_ZNSt17_Function_handlerIFvvEZN8asiodnp39StackBase15PerformShutdownINS1_11MasterStackEEEvRKSt10shared_ptrIT_EEUlvE_E9_M_invokeERKSt9_Any_data@GOTPCREL(%rip), %xmm1
	punpcklqdq	%xmm2, %xmm0
	movups	%xmm0, (%rax)
	cmpb	$0, 0(%rbp)
	je	.L955
	addl	$1, 8(%rbx)
.L956:
	leaq	16(%rsp), %rbp
	movq	%r12, %rdi
	movq	%rax, 16(%rsp)
	movq	%rbp, %rsi
	movaps	%xmm1, 32(%rsp)
.LEHB63:
	call	_ZN7asiopal8Executor18BlockUntilAndFlushERKSt8functionIFvvEE@PLT
.LEHE63:
	movq	32(%rsp), %rax
	testq	%rax, %rax
	je	.L957
	movl	$3, %edx
	movq	%rbp, %rsi
	movq	%rbp, %rdi
	call	*%rax
.L957:
	movq	%rbx, %rdi
	call	_ZNSt16_Sp_counted_baseILN9__gnu_cxx12_Lock_policyE2EE10_M_releaseEv@PLT
	addq	$48, %rsp
	.cfi_remember_state
	.cfi_def_cfa_offset 32
	movq	%rbx, %rdi
	popq	%rbx
	.cfi_def_cfa_offset 24
	popq	%rbp
	.cfi_def_cfa_offset 16
	popq	%r12
	.cfi_def_cfa_offset 8
.LEHB64:
	jmp	_ZNSt16_Sp_counted_baseILN9__gnu_cxx12_Lock_policyE2EE10_M_releaseEv@PLT
.LEHE64:
	.p2align 4,,10
	.p2align 3
.L976:
	.cfi_restore_state
	lock addl	$1, 8(%rbx)
	jmp	.L954
	.p2align 4,,10
	.p2align 3
.L955:
	lock addl	$1, 8(%rbx)
	jmp	.L956
.L963:
	movq	%rax, %r12
	jmp	.L960
.L964:
	movq	%rax, %r12
	jmp	.L958
	.section	.gcc_except_table
.LLSDA8404:
	.byte	0xff
	.byte	0xff
	.byte	0x1
	.uleb128 .LLSDACSE8404-.LLSDACSB8404
.LLSDACSB8404:
	.uleb128 .LEHB62-.LFB8404
	.uleb128 .LEHE62-.LEHB62
	.uleb128 .L963-.LFB8404
	.uleb128 0
	.uleb128 .LEHB63-.LFB8404
	.uleb128 .LEHE63-.LEHB63
	.uleb128 .L964-.LFB8404
	.uleb128 0
	.uleb128 .LEHB64-.LFB8404
	.uleb128 .LEHE64-.LEHB64
	.uleb128 0
	.uleb128 0
.LLSDACSE8404:
	.text
	.cfi_endproc
	.section	.text.unlikely
	.cfi_startproc
	.cfi_personality 0x9b,DW.ref.__gxx_personality_v0
	.cfi_lsda 0x1b,.LLSDAC8404
	.type	_ZN8asiodnp311MasterStack8ShutdownEv.cold, @function
_ZN8asiodnp311MasterStack8ShutdownEv.cold:
.LFSB8404:
.L951:
	.cfi_def_cfa_offset 80
	.cfi_offset 3, -32
	.cfi_offset 6, -24
	.cfi_offset 12, -16
	movl	$8, %edi
	call	__cxa_allocate_exception@PLT
	movq	_ZTVSt12bad_weak_ptr@GOTPCREL(%rip), %rdx
	movq	_ZTISt12bad_weak_ptr@GOTPCREL(%rip), %rsi
	movq	%rax, %rdi
	addq	$16, %rdx
	movq	%rdx, (%rax)
	movq	_ZNSt12bad_weak_ptrD1Ev@GOTPCREL(%rip), %rdx
.LEHB65:
	call	__cxa_throw@PLT
.LEHE65:
.L958:
	movq	32(%rsp), %rax
	testq	%rax, %rax
	je	.L960
	movl	$3, %edx
	movq	%rbp, %rsi
	movq	%rbp, %rdi
	call	*%rax
.L960:
	movq	%rbx, %rdi
	call	_ZNSt16_Sp_counted_baseILN9__gnu_cxx12_Lock_policyE2EE10_M_releaseEv@PLT
	movq	%rbx, %rdi
	call	_ZNSt16_Sp_counted_baseILN9__gnu_cxx12_Lock_policyE2EE10_M_releaseEv@PLT
	movq	%r12, %rdi
.LEHB66:
	call	_Unwind_Resume@PLT
.LEHE66:
	.cfi_endproc
.LFE8404:
	.section	.gcc_except_table
.LLSDAC8404:
	.byte	0xff
	.byte	0xff
	.byte	0x1
	.uleb128 .LLSDACSEC8404-.LLSDACSBC8404
.LLSDACSBC8404:
	.uleb128 .LEHB65-.LCOLDB37
	.uleb128 .LEHE65-.LEHB65
	.uleb128 0
	.uleb128 0
	.uleb128 .LEHB66-.LCOLDB37
	.uleb128 .LEHE66-.LEHB66
	.uleb128 0
	.uleb128 0
.LLSDACSEC8404:
	.section	.text.unlikely
	.text
	.size	_ZN8asiodnp311MasterStack8ShutdownEv, .-_ZN8asiodnp311MasterStack8ShutdownEv
	.section	.text.unlikely
	.size	_ZN8asiodnp311MasterStack8ShutdownEv.cold, .-_ZN8asiodnp311MasterStack8ShutdownEv.cold
.LCOLDE37:
	.text
.LHOTE37:
	.section	.text._ZN8opendnp38MContextD2Ev,"axG",@progbits,_ZN8opendnp38MContextD5Ev,comdat
	.align 2
	.p2align 4
	.weak	_ZN8opendnp38MContextD2Ev
	.type	_ZN8opendnp38MContextD2Ev, @function
_ZN8opendnp38MContextD2Ev:
.LFB8376:
	.cfi_startproc
	movq	_ZTVN8opendnp38MContextE@GOTPCREL(%rip), %rax
	pushq	%r14
	.cfi_def_cfa_offset 16
	.cfi_offset 14, -16
	pushq	%r13
	.cfi_def_cfa_offset 24
	.cfi_offset 13, -24
	leaq	128(%rax), %rdx
	leaq	16(%rax), %rcx
	pushq	%r12
	.cfi_def_cfa_offset 32
	.cfi_offset 12, -32
	movq	%rdi, %r12
	movq	%rcx, %xmm0
	movq	%rdx, %xmm1
	addq	$152, %rax
	pushq	%rbp
	.cfi_def_cfa_offset 40
	.cfi_offset 6, -40
	punpcklqdq	%xmm1, %xmm0
	pushq	%rbx
	.cfi_def_cfa_offset 48
	.cfi_offset 3, -48
	movq	%rax, 16(%rdi)
	movups	%xmm0, (%rdi)
	movq	504(%rdi), %rdi
	testq	%rdi, %rdi
	je	.L978
	call	_ZdaPv@PLT
.L978:
	movq	408(%r12), %rdi
	testq	%rdi, %rdi
	je	.L979
	movq	480(%r12), %rax
	movq	448(%r12), %rbx
	leaq	8(%rax), %rbp
	cmpq	%rbp, %rbx
	jnb	.L980
	.p2align 4
	.p2align 3
.L981:
	movq	(%rbx), %rdi
	movl	$510, %esi
	addq	$8, %rbx
	call	_ZdlPvm@PLT
	cmpq	%rbp, %rbx
	jb	.L981
	movq	408(%r12), %rdi
.L980:
	movq	416(%r12), %rax
	leaq	0(,%rax,8), %rsi
	call	_ZdlPvm@PLT
.L979:
	movq	392(%r12), %r13
	movq	384(%r12), %rbx
	cmpq	%rbx, %r13
	je	.L982
	movabsq	$4294967297, %r14
	jmp	.L989
	.p2align 4,,10
	.p2align 3
.L1072:
	movl	8(%rbp), %eax
	leal	-1(%rax), %edx
	movl	%edx, 8(%rbp)
	cmpl	$1, %eax
	je	.L1069
.L984:
	addq	$16, %rbx
	cmpq	%rbx, %r13
	je	.L1070
.L989:
	movq	8(%rbx), %rbp
	testq	%rbp, %rbp
	je	.L984
	movq	8(%rbp), %rax
	leaq	8(%rbp), %rdx
	cmpq	%r14, %rax
	je	.L1071
	movq	__libc_single_threaded@GOTPCREL(%rip), %rax
	cmpb	$0, (%rax)
	jne	.L1072
	movl	$-1, %eax
	lock xaddl	%eax, (%rdx)
	cmpl	$1, %eax
	jne	.L984
.L1069:
	movq	%rbp, %rdi
	addq	$16, %rbx
	call	_ZNSt16_Sp_counted_baseILN9__gnu_cxx12_Lock_policyE2EE24_M_release_last_use_coldEv@PLT
	cmpq	%rbx, %r13
	jne	.L989
	.p2align 4
	.p2align 3
.L1070:
	movq	384(%r12), %rbx
.L982:
	testq	%rbx, %rbx
	je	.L990
	movq	400(%r12), %rsi
	movq	%rbx, %rdi
	subq	%rbx, %rsi
	call	_ZdlPvm@PLT
.L990:
	movq	360(%r12), %r13
	movq	352(%r12), %rbx
	cmpq	%rbx, %r13
	je	.L991
	movabsq	$4294967297, %r14
	jmp	.L998
	.p2align 4,,10
	.p2align 3
.L1076:
	movl	8(%rbp), %eax
	leal	-1(%rax), %edx
	movl	%edx, 8(%rbp)
	cmpl	$1, %eax
	je	.L1073
.L993:
	addq	$16, %rbx
	cmpq	%rbx, %r13
	je	.L1074
.L998:
	movq	8(%rbx), %rbp
	testq	%rbp, %rbp
	je	.L993
	movq	8(%rbp), %rax
	leaq	8(%rbp), %rdx
	cmpq	%r14, %rax
	je	.L1075
	movq	__libc_single_threaded@GOTPCREL(%rip), %rax
	cmpb	$0, (%rax)
	jne	.L1076
	movl	$-1, %eax
	lock xaddl	%eax, (%rdx)
	cmpl	$1, %eax
	jne	.L993
.L1073:
	movq	%rbp, %rdi
	addq	$16, %rbx
	call	_ZNSt16_Sp_counted_baseILN9__gnu_cxx12_Lock_policyE2EE24_M_release_last_use_coldEv@PLT
	cmpq	%rbx, %r13
	jne	.L998
	.p2align 4
	.p2align 3
.L1074:
	movq	352(%r12), %rbx
.L991:
	testq	%rbx, %rbx
	je	.L999
	movq	368(%r12), %rsi
	movq	%rbx, %rdi
	subq	%rbx, %rsi
	call	_ZdlPvm@PLT
.L999:
	movq	344(%r12), %rdi
	testq	%rdi, %rdi
	je	.L1000
	call	_ZNSt16_Sp_counted_baseILN9__gnu_cxx12_Lock_policyE2EE10_M_releaseEv@PLT
.L1000:
	movq	328(%r12), %rdi
	testq	%rdi, %rdi
	je	.L1001
	call	_ZNSt16_Sp_counted_baseILN9__gnu_cxx12_Lock_policyE2EE10_M_releaseEv@PLT
.L1001:
	movq	312(%r12), %rdi
	testq	%rdi, %rdi
	je	.L1002
	call	_ZNSt16_Sp_counted_baseILN9__gnu_cxx12_Lock_policyE2EE10_M_releaseEv@PLT
.L1002:
	movq	296(%r12), %rdi
	testq	%rdi, %rdi
	je	.L1003
	call	_ZNSt16_Sp_counted_baseILN9__gnu_cxx12_Lock_policyE2EE10_M_releaseEv@PLT
.L1003:
	movq	280(%r12), %rdi
	testq	%rdi, %rdi
	je	.L1004
	call	_ZNSt16_Sp_counted_baseILN9__gnu_cxx12_Lock_policyE2EE10_M_releaseEv@PLT
.L1004:
	movq	264(%r12), %rdi
	testq	%rdi, %rdi
	je	.L1005
	call	_ZNSt16_Sp_counted_baseILN9__gnu_cxx12_Lock_policyE2EE10_M_releaseEv@PLT
.L1005:
	movq	248(%r12), %rdi
	testq	%rdi, %rdi
	je	.L1006
	call	_ZNSt16_Sp_counted_baseILN9__gnu_cxx12_Lock_policyE2EE10_M_releaseEv@PLT
.L1006:
	leaq	224(%r12), %rdi
	call	_ZN7openpal8TimerRefD1Ev@PLT
	leaq	208(%r12), %rdi
	call	_ZN7openpal8TimerRefD1Ev@PLT
	leaq	192(%r12), %rdi
	call	_ZN7openpal8TimerRefD1Ev@PLT
	movq	184(%r12), %rdi
	testq	%rdi, %rdi
	je	.L1007
	call	_ZNSt16_Sp_counted_baseILN9__gnu_cxx12_Lock_policyE2EE10_M_releaseEv@PLT
.L1007:
	movq	152(%r12), %rdi
	testq	%rdi, %rdi
	je	.L1008
	call	_ZNSt16_Sp_counted_baseILN9__gnu_cxx12_Lock_policyE2EE10_M_releaseEv@PLT
.L1008:
	movq	136(%r12), %rdi
	testq	%rdi, %rdi
	je	.L1009
	call	_ZNSt16_Sp_counted_baseILN9__gnu_cxx12_Lock_policyE2EE10_M_releaseEv@PLT
.L1009:
	movq	80(%r12), %rdi
	testq	%rdi, %rdi
	je	.L1010
	call	_ZNSt16_Sp_counted_baseILN9__gnu_cxx12_Lock_policyE2EE10_M_releaseEv@PLT
.L1010:
	movq	64(%r12), %rdi
	testq	%rdi, %rdi
	je	.L1011
	call	_ZNSt16_Sp_counted_baseILN9__gnu_cxx12_Lock_policyE2EE10_M_releaseEv@PLT
.L1011:
	movq	48(%r12), %rdi
	testq	%rdi, %rdi
	je	.L1012
	call	_ZNSt16_Sp_counted_baseILN9__gnu_cxx12_Lock_policyE2EE10_M_releaseEv@PLT
.L1012:
	movq	32(%r12), %rdi
	testq	%rdi, %rdi
	je	.L977
	popq	%rbx
	.cfi_remember_state
	.cfi_def_cfa_offset 40
	popq	%rbp
	.cfi_def_cfa_offset 32
	popq	%r12
	.cfi_def_cfa_offset 24
	popq	%r13
	.cfi_def_cfa_offset 16
	popq	%r14
	.cfi_def_cfa_offset 8
	jmp	_ZNSt16_Sp_counted_baseILN9__gnu_cxx12_Lock_policyE2EE10_M_releaseEv@PLT
	.p2align 4,,10
	.p2align 3
.L1071:
	.cfi_restore_state
	movq	0(%rbp), %rax
	movq	%rbp, %rdi
	movq	$0, 8(%rbp)
	call	*16(%rax)
	movq	0(%rbp), %rax
	movq	%rbp, %rdi
	call	*24(%rax)
	jmp	.L984
	.p2align 4,,10
	.p2align 3
.L1075:
	movq	0(%rbp), %rax
	movq	%rbp, %rdi
	movq	$0, 8(%rbp)
	call	*16(%rax)
	movq	0(%rbp), %rax
	movq	%rbp, %rdi
	call	*24(%rax)
	jmp	.L993
	.p2align 4,,10
	.p2align 3
.L977:
	popq	%rbx
	.cfi_def_cfa_offset 40
	popq	%rbp
	.cfi_def_cfa_offset 32
	popq	%r12
	.cfi_def_cfa_offset 24
	popq	%r13
	.cfi_def_cfa_offset 16
	popq	%r14
	.cfi_def_cfa_offset 8
	ret
	.cfi_endproc
.LFE8376:
	.size	_ZN8opendnp38MContextD2Ev, .-_ZN8opendnp38MContextD2Ev
	.weak	_ZN8opendnp38MContextD1Ev
	.set	_ZN8opendnp38MContextD1Ev,_ZN8opendnp38MContextD2Ev
	.section	.text._ZN8asiodnp311MasterStack13BeginTransmitERKN7openpal6RSliceERN8opendnp312ILinkSessionE,"axG",@progbits,_ZN8asiodnp311MasterStack13BeginTransmitERKN7openpal6RSliceERN8opendnp312ILinkSessionE,comdat
	.p2align 4
	.weak	_ZThn24_N8asiodnp311MasterStack13BeginTransmitERKN7openpal6RSliceERN8opendnp312ILinkSessionE
	.type	_ZThn24_N8asiodnp311MasterStack13BeginTransmitERKN7openpal6RSliceERN8opendnp312ILinkSessionE, @function
_ZThn24_N8asiodnp311MasterStack13BeginTransmitERKN7openpal6RSliceERN8opendnp312ILinkSessionE:
.LFB12617:
	.cfi_startproc
	.cfi_personality 0x9b,DW.ref.__gxx_personality_v0
	.cfi_lsda 0x1b,.LLSDA12617
	pushq	%rbx
	.cfi_def_cfa_offset 16
	.cfi_offset 3, -16
	subq	$32, %rsp
	.cfi_def_cfa_offset 48
	movq	24(%rdi), %rdx
	movq	80(%rdi), %r8
	testq	%rdx, %rdx
	je	.L1079
	movl	8(%rdx), %eax
	movq	%rsi, %r9
	leaq	8(%rdx), %rcx
.L1081:
	testl	%eax, %eax
	je	.L1079
	leal	1(%rax), %esi
	lock cmpxchgl	%esi, (%rcx)
	jne	.L1081
	movq	16(%rdi), %rax
	movq	%rdx, %xmm1
	leaq	16(%rsp), %rsi
	movq	%r9, %rdx
	movq	%r8, %rdi
	leaq	16(%rax), %rcx
	testq	%rax, %rax
	cmovne	%rcx, %rax
	movq	%rax, %xmm0
	punpcklqdq	%xmm1, %xmm0
	movaps	%xmm0, 16(%rsp)
.LEHB67:
	call	_ZN8asiodnp39IOHandler13BeginTransmitERKSt10shared_ptrIN8opendnp312ILinkSessionEERKN7openpal6RSliceE@PLT
.LEHE67:
	movq	24(%rsp), %rdi
	testq	%rdi, %rdi
	je	.L1077
	movq	8(%rdi), %rdx
	leaq	8(%rdi), %rcx
	movabsq	$4294967297, %rax
	cmpq	%rax, %rdx
	je	.L1101
	movq	__libc_single_threaded@GOTPCREL(%rip), %rax
	cmpb	$0, (%rax)
	je	.L1085
	movl	8(%rdi), %eax
	leal	-1(%rax), %edx
	movl	%edx, 8(%rdi)
.L1086:
	cmpl	$1, %eax
	je	.L1102
.L1077:
	addq	$32, %rsp
	.cfi_remember_state
	.cfi_def_cfa_offset 16
	popq	%rbx
	.cfi_def_cfa_offset 8
	ret
	.p2align 4,,10
	.p2align 3
.L1101:
	.cfi_restore_state
	movq	(%rdi), %rax
	movq	%rdi, 8(%rsp)
	movq	$0, 8(%rdi)
	call	*16(%rax)
	movq	8(%rsp), %rdi
	movq	(%rdi), %rax
	call	*24(%rax)
	addq	$32, %rsp
	.cfi_remember_state
	.cfi_def_cfa_offset 16
	popq	%rbx
	.cfi_def_cfa_offset 8
	ret
	.p2align 4,,10
	.p2align 3
.L1085:
	.cfi_restore_state
	movl	$-1, %eax
	lock xaddl	%eax, (%rcx)
	jmp	.L1086
	.p2align 4,,10
	.p2align 3
.L1102:
	call	_ZNSt16_Sp_counted_baseILN9__gnu_cxx12_Lock_policyE2EE24_M_release_last_use_coldEv@PLT
	jmp	.L1077
.L1092:
	movq	%rax, %rbx
	jmp	.L1088
.L1079:
	movl	$8, %edi
	call	__cxa_allocate_exception@PLT
	movq	_ZTVSt12bad_weak_ptr@GOTPCREL(%rip), %rdx
	movq	_ZTISt12bad_weak_ptr@GOTPCREL(%rip), %rsi
	movq	%rax, %rdi
	addq	$16, %rdx
	movq	%rdx, (%rax)
	movq	_ZNSt12bad_weak_ptrD1Ev@GOTPCREL(%rip), %rdx
.LEHB68:
	call	__cxa_throw@PLT
.L1088:
	movq	24(%rsp), %rdi
	testq	%rdi, %rdi
	je	.L1089
	call	_ZNSt16_Sp_counted_baseILN9__gnu_cxx12_Lock_policyE2EE10_M_releaseEv@PLT
.L1089:
	movq	%rbx, %rdi
	call	_Unwind_Resume@PLT
.LEHE68:
	.cfi_endproc
.LFE12617:
	.section	.gcc_except_table
.LLSDA12617:
	.byte	0xff
	.byte	0xff
	.byte	0x1
	.uleb128 .LLSDACSE12617-.LLSDACSB12617
.LLSDACSB12617:
	.uleb128 .LEHB67-.LFB12617
	.uleb128 .LEHE67-.LEHB67
	.uleb128 .L1092-.LFB12617
	.uleb128 0
	.uleb128 .LEHB68-.LFB12617
	.uleb128 .LEHE68-.LEHB68
	.uleb128 0
	.uleb128 0
.LLSDACSE12617:
	.section	.text._ZN8asiodnp311MasterStack13BeginTransmitERKN7openpal6RSliceERN8opendnp312ILinkSessionE,"axG",@progbits,_ZN8asiodnp311MasterStack13BeginTransmitERKN7openpal6RSliceERN8opendnp312ILinkSessionE,comdat
	.size	_ZThn24_N8asiodnp311MasterStack13BeginTransmitERKN7openpal6RSliceERN8opendnp312ILinkSessionE, .-_ZThn24_N8asiodnp311MasterStack13BeginTransmitERKN7openpal6RSliceERN8opendnp312ILinkSessionE
	.section	.text.unlikely
	.align 2
	.type	_ZZN8asiodnp311MasterStack4ScanERKSt6vectorIN8opendnp36HeaderESaIS3_EERKNS2_10TaskConfigEENUlvE_D2Ev, @function
_ZZN8asiodnp311MasterStack4ScanERKSt6vectorIN8opendnp36HeaderESaIS3_EERKNS2_10TaskConfigEENUlvE_D2Ev:
.LFB8511:
	.cfi_startproc
	.cfi_personality 0x9b,DW.ref.__gxx_personality_v0
	.cfi_lsda 0x1b,.LLSDA8511
	pushq	%rbx
	.cfi_def_cfa_offset 16
	.cfi_offset 3, -16
	movq	32(%rdi), %rax
	movq	%rdi, %rbx
	testq	%rax, %rax
	je	.L1104
	leaq	16(%rdi), %rdi
	movl	$3, %edx
	movq	%rdi, %rsi
	call	*%rax
.L1104:
	movq	8(%rbx), %rbx
	testq	%rbx, %rbx
	je	.L1103
	movq	8(%rbx), %rcx
	leaq	8(%rbx), %rdx
	movabsq	$4294967297, %rax
	cmpq	%rax, %rcx
	jne	.L1107
	xorl	%eax, %eax
	movq	%rbx, %rdi
	movq	%rax, 8(%rbx)
	movq	(%rbx), %rax
	call	*16(%rax)
	movq	(%rbx), %rax
	movq	%rbx, %rdi
	popq	%rbx
	.cfi_remember_state
	.cfi_def_cfa_offset 8
	movq	24(%rax), %rax
.LEHB69:
	jmp	*%rax
.L1107:
	.cfi_restore_state
	movq	__libc_single_threaded@GOTPCREL(%rip), %rax
	cmpb	$0, (%rax)
	je	.L1108
	movl	8(%rbx), %eax
	leal	-1(%rax), %edx
	movl	%edx, 8(%rbx)
	jmp	.L1109
.L1108:
	movl	$-1, %eax
	lock xaddl	%eax, (%rdx)
.L1109:
	decl	%eax
	jne	.L1103
	movq	%rbx, %rdi
	popq	%rbx
	.cfi_remember_state
	.cfi_def_cfa_offset 8
	jmp	_ZNSt16_Sp_counted_baseILN9__gnu_cxx12_Lock_policyE2EE24_M_release_last_use_coldEv@PLT
.LEHE69:
.L1103:
	.cfi_restore_state
	popq	%rbx
	.cfi_def_cfa_offset 8
	ret
	.cfi_endproc
.LFE8511:
	.section	.gcc_except_table
.LLSDA8511:
	.byte	0xff
	.byte	0xff
	.byte	0x1
	.uleb128 .LLSDACSE8511-.LLSDACSB8511
.LLSDACSB8511:
	.uleb128 .LEHB69-.LFB8511
	.uleb128 .LEHE69-.LEHB69
	.uleb128 0
	.uleb128 0
.LLSDACSE8511:
	.section	.text.unlikely
	.size	_ZZN8asiodnp311MasterStack4ScanERKSt6vectorIN8opendnp36HeaderESaIS3_EERKNS2_10TaskConfigEENUlvE_D2Ev, .-_ZZN8asiodnp311MasterStack4ScanERKSt6vectorIN8opendnp36HeaderESaIS3_EERKNS2_10TaskConfigEENUlvE_D2Ev
	.set	_ZZN8asiodnp311MasterStack4ScanERKSt6vectorIN8opendnp36HeaderESaIS3_EERKNS2_10TaskConfigEENUlvE_D1Ev,_ZZN8asiodnp311MasterStack4ScanERKSt6vectorIN8opendnp36HeaderESaIS3_EERKNS2_10TaskConfigEENUlvE_D2Ev
.LCOLDB38:
	.text
.LHOTB38:
	.p2align 4
	.type	_ZN4asio6detail18completion_handlerIZN8asiodnp311MasterStack4ScanERKSt6vectorIN8opendnp36HeaderESaIS6_EERKNS5_10TaskConfigEEUlvE_E11do_completeEPNS0_15task_io_serviceEPNS0_25task_io_service_operationERKSt10error_codem, @function
_ZN4asio6detail18completion_handlerIZN8asiodnp311MasterStack4ScanERKSt6vectorIN8opendnp36HeaderESaIS6_EERKNS5_10TaskConfigEEUlvE_E11do_completeEPNS0_15task_io_serviceEPNS0_25task_io_service_operationERKSt10error_codem:
.LFB11526:
	.cfi_startproc
	.cfi_personality 0x9b,DW.ref.__gxx_personality_v0
	.cfi_lsda 0x1b,.LLSDA11526
	pushq	%rbx
	.cfi_def_cfa_offset 16
	.cfi_offset 3, -16
	movq	%rdi, %rbx
	subq	$80, %rsp
	.cfi_def_cfa_offset 96
	movdqu	24(%rsi), %xmm0
	movq	64(%rsi), %rax
	movq	$0, 48(%rsp)
	movq	%rax, 56(%rsp)
	movq	56(%rsi), %rax
	movaps	%xmm0, 16(%rsp)
	pxor	%xmm0, %xmm0
	movups	%xmm0, 24(%rsi)
	pxor	%xmm0, %xmm0
	movaps	%xmm0, 32(%rsp)
	testq	%rax, %rax
	je	.L1139
	movdqu	40(%rsi), %xmm0
	movq	%rax, 48(%rsp)
	movaps	%xmm0, 32(%rsp)
.L1139:
	movdqu	72(%rsi), %xmm0
	movq	%rsi, 8(%rsp)
	movaps	%xmm0, 64(%rsp)
	data16	leaq	_ZN4asio6detail15keyword_tss_ptrINS0_10call_stackINS0_15task_io_serviceENS0_27task_io_service_thread_infoEE7contextEE6value_E@tlsgd(%rip), %rdi
	.value	0x6666
	rex64
	call	__tls_get_addr@PLT
	movq	8(%rsp), %rsi
	movq	(%rax), %rax
	testq	%rax, %rax
	je	.L1118
	movq	8(%rax), %rax
	testq	%rax, %rax
	je	.L1118
	cmpq	$0, (%rax)
	je	.L1140
.L1118:
	movq	%rsi, %rdi
	call	_ZdlPv@PLT
.L1119:
	testq	%rbx, %rbx
	je	.L1120
	movq	16(%rsp), %rax
	movq	64(%rsp), %rdx
	leaq	32(%rsp), %rsi
	movq	72(%rsp), %rcx
	leaq	168(%rax), %rdi
.LEHB70:
	call	_ZN8opendnp38MContext4ScanERKSt8functionIFbRNS_12HeaderWriterEEENS_10TaskConfigE@PLT
.LEHE70:
	sfence
.L1120:
	movq	48(%rsp), %rax
	testq	%rax, %rax
	je	.L1121
	leaq	32(%rsp), %rdi
	movl	$3, %edx
	movq	%rdi, %rsi
	call	*%rax
.L1121:
	movq	24(%rsp), %rdi
	testq	%rdi, %rdi
	je	.L1115
	call	_ZNSt16_Sp_counted_baseILN9__gnu_cxx12_Lock_policyE2EE10_M_releaseEv@PLT
.L1115:
	addq	$80, %rsp
	.cfi_remember_state
	.cfi_def_cfa_offset 16
	popq	%rbx
	.cfi_def_cfa_offset 8
	ret
	.p2align 4,,10
	.p2align 3
.L1140:
	.cfi_restore_state
	movzbl	88(%rsi), %edx
	movb	%dl, (%rsi)
	movq	%rsi, (%rax)
	jmp	.L1119
.L1125:
	movq	%rax, %rbx
	jmp	.L1123
	.section	.gcc_except_table
.LLSDA11526:
	.byte	0xff
	.byte	0xff
	.byte	0x1
	.uleb128 .LLSDACSE11526-.LLSDACSB11526
.LLSDACSB11526:
	.uleb128 .LEHB70-.LFB11526
	.uleb128 .LEHE70-.LEHB70
	.uleb128 .L1125-.LFB11526
	.uleb128 0
.LLSDACSE11526:
	.text
	.cfi_endproc
	.section	.text.unlikely
	.cfi_startproc
	.cfi_personality 0x9b,DW.ref.__gxx_personality_v0
	.cfi_lsda 0x1b,.LLSDAC11526
	.type	_ZN4asio6detail18completion_handlerIZN8asiodnp311MasterStack4ScanERKSt6vectorIN8opendnp36HeaderESaIS6_EERKNS5_10TaskConfigEEUlvE_E11do_completeEPNS0_15task_io_serviceEPNS0_25task_io_service_operationERKSt10error_codem.cold, @function
_ZN4asio6detail18completion_handlerIZN8asiodnp311MasterStack4ScanERKSt6vectorIN8opendnp36HeaderESaIS6_EERKNS5_10TaskConfigEEUlvE_E11do_completeEPNS0_15task_io_serviceEPNS0_25task_io_service_operationERKSt10error_codem.cold:
.LFSB11526:
.L1123:
	.cfi_def_cfa_offset 96
	.cfi_offset 3, -16
	sfence
	leaq	16(%rsp), %rdi
	call	_ZZN8asiodnp311MasterStack4ScanERKSt6vectorIN8opendnp36HeaderESaIS3_EERKNS2_10TaskConfigEENUlvE_D1Ev
	movq	%rbx, %rdi
.LEHB71:
	call	_Unwind_Resume@PLT
.LEHE71:
	.cfi_endproc
.LFE11526:
	.section	.gcc_except_table
.LLSDAC11526:
	.byte	0xff
	.byte	0xff
	.byte	0x1
	.uleb128 .LLSDACSEC11526-.LLSDACSBC11526
.LLSDACSBC11526:
	.uleb128 .LEHB71-.LCOLDB38
	.uleb128 .LEHE71-.LEHB71
	.uleb128 0
	.uleb128 0
.LLSDACSEC11526:
	.section	.text.unlikely
	.text
	.size	_ZN4asio6detail18completion_handlerIZN8asiodnp311MasterStack4ScanERKSt6vectorIN8opendnp36HeaderESaIS6_EERKNS5_10TaskConfigEEUlvE_E11do_completeEPNS0_15task_io_serviceEPNS0_25task_io_service_operationERKSt10error_codem, .-_ZN4asio6detail18completion_handlerIZN8asiodnp311MasterStack4ScanERKSt6vectorIN8opendnp36HeaderESaIS6_EERKNS5_10TaskConfigEEUlvE_E11do_completeEPNS0_15task_io_serviceEPNS0_25task_io_service_operationERKSt10error_codem
	.section	.text.unlikely
	.size	_ZN4asio6detail18completion_handlerIZN8asiodnp311MasterStack4ScanERKSt6vectorIN8opendnp36HeaderESaIS6_EERKNS5_10TaskConfigEEUlvE_E11do_completeEPNS0_15task_io_serviceEPNS0_25task_io_service_operationERKSt10error_codem.cold, .-_ZN4asio6detail18completion_handlerIZN8asiodnp311MasterStack4ScanERKSt6vectorIN8opendnp36HeaderESaIS6_EERKNS5_10TaskConfigEEUlvE_E11do_completeEPNS0_15task_io_serviceEPNS0_25task_io_service_operationERKSt10error_codem.cold
.LCOLDE38:
	.text
.LHOTE38:
	.section	.text.unlikely
	.align 2
.LCOLDB39:
	.text
.LHOTB39:
	.align 2
	.p2align 4
	.globl	_ZN8asiodnp311MasterStack4ScanERKSt6vectorIN8opendnp36HeaderESaIS3_EERKNS2_10TaskConfigE
	.type	_ZN8asiodnp311MasterStack4ScanERKSt6vectorIN8opendnp36HeaderESaIS3_EERKNS2_10TaskConfigE, @function
_ZN8asiodnp311MasterStack4ScanERKSt6vectorIN8opendnp36HeaderESaIS3_EERKNS2_10TaskConfigE:
.LFB8508:
	.cfi_startproc
	.cfi_personality 0x9b,DW.ref.__gxx_personality_v0
	.cfi_lsda 0x1b,.LLSDA8508
	pushq	%r12
	.cfi_def_cfa_offset 16
	.cfi_offset 12, -16
	pushq	%rbp
	.cfi_def_cfa_offset 24
	.cfi_offset 6, -24
	pushq	%rbx
	.cfi_def_cfa_offset 32
	.cfi_offset 3, -32
	subq	$144, %rsp
	.cfi_def_cfa_offset 176
	movq	48(%rdi), %rax
	movq	%rax, 8(%rsp)
	testq	%rax, %rax
	je	.L1143
	movq	%rdx, %r12
	leaq	8(%rax), %rdx
	movl	8(%rax), %eax
	movq	%rdi, %rbx
.L1145:
	testl	%eax, %eax
	je	.L1143
	leal	1(%rax), %ecx
	lock cmpxchgl	%ecx, (%rdx)
	jne	.L1145
	movq	40(%rbx), %rax
	leaq	16(%rsp), %rbp
	movq	%rbp, %rdi
	movq	%rax, (%rsp)
.LEHB72:
	call	_ZN8asiodnp315ConvertToLambdaERKSt6vectorIN8opendnp36HeaderESaIS2_EE@PLT
.LEHE72:
	movdqu	(%r12), %xmm0
	movq	88(%rbx), %rbx
	movaps	%xmm0, 48(%rsp)
	movdqa	(%rsp), %xmm0
	movhlps	%xmm0, %xmm2
	movaps	%xmm0, 64(%rsp)
	movq	%xmm2, %rax
	testq	%rax, %rax
	je	.L1146
	movq	__libc_single_threaded@GOTPCREL(%rip), %rdx
	cmpb	$0, (%rdx)
	je	.L1147
	addl	$1, 8(%rax)
.L1146:
	movq	32(%rsp), %rax
	pxor	%xmm0, %xmm0
	movq	$0, 96(%rsp)
	movq	$0, 104(%rsp)
	movaps	%xmm0, 80(%rsp)
	testq	%rax, %rax
	je	.L1148
	movl	$2, %edx
	movq	%rbp, %rsi
	leaq	80(%rsp), %rdi
.LEHB73:
	call	*%rax
.LEHE73:
	movdqa	32(%rsp), %xmm0
	movaps	%xmm0, 96(%rsp)
.L1148:
	movdqa	48(%rsp), %xmm0
	movq	40(%rbx), %r12
	movaps	%xmm0, 112(%rsp)
	data16	leaq	_ZN4asio6detail15keyword_tss_ptrINS0_10call_stackINS0_15task_io_serviceENS0_27task_io_service_thread_infoEE7contextEE6value_E@tlsgd(%rip), %rdi
	.value	0x6666
	rex64
	call	__tls_get_addr@PLT
	movq	(%rax), %rax
	testq	%rax, %rax
	je	.L1150
	movq	8(%rax), %rax
	testq	%rax, %rax
	je	.L1150
	movq	(%rax), %rdx
	testq	%rdx, %rdx
	je	.L1150
	movq	$0, (%rax)
	movzbl	(%rdx), %eax
	cmpb	$87, %al
	jbe	.L1155
	movb	%al, 88(%rdx)
	jmp	.L1156
	.p2align 4,,10
	.p2align 3
.L1155:
	movq	%rdx, %rdi
	call	_ZdlPv@PLT
.L1150:
	movl	$89, %edi
.LEHB74:
	call	_Znwm@PLT
.LEHE74:
	movb	$88, 88(%rax)
	movq	%rax, %rdx
.L1156:
	leaq	_ZN4asio6detail18completion_handlerIZN8asiodnp311MasterStack4ScanERKSt6vectorIN8opendnp36HeaderESaIS6_EERKNS5_10TaskConfigEEUlvE_E11do_completeEPNS0_15task_io_serviceEPNS0_25task_io_service_operationERKSt10error_codem(%rip), %rax
	pxor	%xmm1, %xmm1
	movq	$0, (%rdx)
	leaq	48(%rbx), %rsi
	movq	%rax, 8(%rdx)
	movdqa	64(%rsp), %xmm0
	movl	$0, 16(%rdx)
	movups	%xmm0, 24(%rdx)
	movq	104(%rsp), %rax
	pxor	%xmm0, %xmm0
	movq	$0, 56(%rdx)
	movq	%rax, 64(%rdx)
	movq	96(%rsp), %rax
	movaps	%xmm0, 64(%rsp)
	movups	%xmm1, 40(%rdx)
	testq	%rax, %rax
	je	.L1157
	movdqa	80(%rsp), %xmm1
	movq	%rax, 56(%rdx)
	movaps	%xmm0, 96(%rsp)
	movups	%xmm1, 40(%rdx)
.L1157:
	movdqa	112(%rsp), %xmm0
	xorl	%ecx, %ecx
	movq	%r12, %rdi
	movups	%xmm0, 72(%rdx)
	call	_ZN4asio6detail14strand_service7do_postERPNS1_11strand_implEPNS0_25task_io_service_operationEb@PLT
	movq	96(%rsp), %rax
	testq	%rax, %rax
	je	.L1158
	leaq	80(%rsp), %rdi
	movl	$3, %edx
	movq	%rdi, %rsi
	call	*%rax
.L1158:
	movq	72(%rsp), %rdi
	testq	%rdi, %rdi
	je	.L1159
	call	_ZNSt16_Sp_counted_baseILN9__gnu_cxx12_Lock_policyE2EE10_M_releaseEv@PLT
.L1159:
	movq	32(%rsp), %rax
	testq	%rax, %rax
	je	.L1161
	movl	$3, %edx
	movq	%rbp, %rsi
	movq	%rbp, %rdi
	call	*%rax
.L1161:
	movq	8(%rsp), %rdi
	testq	%rdi, %rdi
	je	.L1141
	call	_ZNSt16_Sp_counted_baseILN9__gnu_cxx12_Lock_policyE2EE10_M_releaseEv@PLT
.L1141:
	addq	$144, %rsp
	.cfi_remember_state
	.cfi_def_cfa_offset 32
	popq	%rbx
	.cfi_def_cfa_offset 24
	popq	%rbp
	.cfi_def_cfa_offset 16
	popq	%r12
	.cfi_def_cfa_offset 8
	ret
	.p2align 4,,10
	.p2align 3
.L1147:
	.cfi_restore_state
	lock addl	$1, 8(%rax)
	jmp	.L1146
.L1167:
	movq	%rax, %rbx
	jmp	.L1164
.L1169:
	movq	%rax, %rbx
	jmp	.L1151
.L1168:
	movq	%rax, %rbx
	jmp	.L1162
	.section	.gcc_except_table
.LLSDA8508:
	.byte	0xff
	.byte	0xff
	.byte	0x1
	.uleb128 .LLSDACSE8508-.LLSDACSB8508
.LLSDACSB8508:
	.uleb128 .LEHB72-.LFB8508
	.uleb128 .LEHE72-.LEHB72
	.uleb128 .L1167-.LFB8508
	.uleb128 0
	.uleb128 .LEHB73-.LFB8508
	.uleb128 .LEHE73-.LEHB73
	.uleb128 .L1169-.LFB8508
	.uleb128 0
	.uleb128 .LEHB74-.LFB8508
	.uleb128 .LEHE74-.LEHB74
	.uleb128 .L1168-.LFB8508
	.uleb128 0
.LLSDACSE8508:
	.text
	.cfi_endproc
	.section	.text.unlikely
	.cfi_startproc
	.cfi_personality 0x9b,DW.ref.__gxx_personality_v0
	.cfi_lsda 0x1b,.LLSDAC8508
	.type	_ZN8asiodnp311MasterStack4ScanERKSt6vectorIN8opendnp36HeaderESaIS3_EERKNS2_10TaskConfigE.cold, @function
_ZN8asiodnp311MasterStack4ScanERKSt6vectorIN8opendnp36HeaderESaIS3_EERKNS2_10TaskConfigE.cold:
.LFSB8508:
.L1164:
	.cfi_def_cfa_offset 176
	.cfi_offset 3, -32
	.cfi_offset 6, -24
	.cfi_offset 12, -16
	movq	8(%rsp), %rdi
	testq	%rdi, %rdi
	je	.L1165
	call	_ZNSt16_Sp_counted_baseILN9__gnu_cxx12_Lock_policyE2EE10_M_releaseEv@PLT
.L1165:
	movq	%rbx, %rdi
.LEHB75:
	call	_Unwind_Resume@PLT
.LEHE75:
.L1151:
	movq	96(%rsp), %rax
	testq	%rax, %rax
	je	.L1152
	movl	$3, %edx
	leaq	80(%rsp), %rsi
	leaq	80(%rsp), %rdi
	call	*%rax
.L1152:
	movq	72(%rsp), %rdi
	testq	%rdi, %rdi
	je	.L1154
	call	_ZNSt16_Sp_counted_baseILN9__gnu_cxx12_Lock_policyE2EE10_M_releaseEv@PLT
	jmp	.L1154
.L1143:
	movl	$8, %edi
	call	__cxa_allocate_exception@PLT
	movq	_ZTVSt12bad_weak_ptr@GOTPCREL(%rip), %rdx
	movq	_ZTISt12bad_weak_ptr@GOTPCREL(%rip), %rsi
	movq	%rax, %rdi
	addq	$16, %rdx
	movq	%rdx, (%rax)
	movq	_ZNSt12bad_weak_ptrD1Ev@GOTPCREL(%rip), %rdx
.LEHB76:
	call	__cxa_throw@PLT
.L1162:
	leaq	64(%rsp), %rdi
	call	_ZZN8asiodnp311MasterStack4ScanERKSt6vectorIN8opendnp36HeaderESaIS3_EERKNS2_10TaskConfigEENUlvE_D1Ev
.L1154:
	movq	%rsp, %rdi
	call	_ZZN8asiodnp311MasterStack4ScanERKSt6vectorIN8opendnp36HeaderESaIS3_EERKNS2_10TaskConfigEENUlvE_D1Ev
	movq	%rbx, %rdi
	call	_Unwind_Resume@PLT
.LEHE76:
	.cfi_endproc
.LFE8508:
	.section	.gcc_except_table
.LLSDAC8508:
	.byte	0xff
	.byte	0xff
	.byte	0x1
	.uleb128 .LLSDACSEC8508-.LLSDACSBC8508
.LLSDACSBC8508:
	.uleb128 .LEHB75-.LCOLDB39
	.uleb128 .LEHE75-.LEHB75
	.uleb128 0
	.uleb128 0
	.uleb128 .LEHB76-.LCOLDB39
	.uleb128 .LEHE76-.LEHB76
	.uleb128 0
	.uleb128 0
.LLSDACSEC8508:
	.section	.text.unlikely
	.text
	.size	_ZN8asiodnp311MasterStack4ScanERKSt6vectorIN8opendnp36HeaderESaIS3_EERKNS2_10TaskConfigE, .-_ZN8asiodnp311MasterStack4ScanERKSt6vectorIN8opendnp36HeaderESaIS3_EERKNS2_10TaskConfigE
	.section	.text.unlikely
	.size	_ZN8asiodnp311MasterStack4ScanERKSt6vectorIN8opendnp36HeaderESaIS3_EERKNS2_10TaskConfigE.cold, .-_ZN8asiodnp311MasterStack4ScanERKSt6vectorIN8opendnp36HeaderESaIS3_EERKNS2_10TaskConfigE.cold
.LCOLDE39:
	.text
.LHOTE39:
	.section	.text.unlikely
	.align 2
	.type	_ZZN8asiodnp311MasterStack7RestartEN8opendnp311RestartTypeERKSt8functionIFvRKNS1_22RestartOperationResultEEENS1_10TaskConfigEENUlvE_D2Ev, @function
_ZZN8asiodnp311MasterStack7RestartEN8opendnp311RestartTypeERKSt8functionIFvRKNS1_22RestartOperationResultEEENS1_10TaskConfigEENUlvE_D2Ev:
.LFB8554:
	.cfi_startproc
	.cfi_personality 0x9b,DW.ref.__gxx_personality_v0
	.cfi_lsda 0x1b,.LLSDA8554
	pushq	%rbx
	.cfi_def_cfa_offset 16
	.cfi_offset 3, -16
	movq	40(%rdi), %rax
	movq	%rdi, %rbx
	testq	%rax, %rax
	je	.L1209
	leaq	24(%rdi), %rdi
	movl	$3, %edx
	movq	%rdi, %rsi
	call	*%rax
.L1209:
	movq	8(%rbx), %rbx
	testq	%rbx, %rbx
	je	.L1208
	movq	8(%rbx), %rcx
	leaq	8(%rbx), %rdx
	movabsq	$4294967297, %rax
	cmpq	%rax, %rcx
	jne	.L1212
	xorl	%eax, %eax
	movq	%rbx, %rdi
	movq	%rax, 8(%rbx)
	movq	(%rbx), %rax
	call	*16(%rax)
	movq	(%rbx), %rax
	movq	%rbx, %rdi
	popq	%rbx
	.cfi_remember_state
	.cfi_def_cfa_offset 8
	movq	24(%rax), %rax
.LEHB77:
	jmp	*%rax
.L1212:
	.cfi_restore_state
	movq	__libc_single_threaded@GOTPCREL(%rip), %rax
	cmpb	$0, (%rax)
	je	.L1213
	movl	8(%rbx), %eax
	leal	-1(%rax), %edx
	movl	%edx, 8(%rbx)
	jmp	.L1214
.L1213:
	movl	$-1, %eax
	lock xaddl	%eax, (%rdx)
.L1214:
	decl	%eax
	jne	.L1208
	movq	%rbx, %rdi
	popq	%rbx
	.cfi_remember_state
	.cfi_def_cfa_offset 8
	jmp	_ZNSt16_Sp_counted_baseILN9__gnu_cxx12_Lock_policyE2EE24_M_release_last_use_coldEv@PLT
.LEHE77:
.L1208:
	.cfi_restore_state
	popq	%rbx
	.cfi_def_cfa_offset 8
	ret
	.cfi_endproc
.LFE8554:
	.section	.gcc_except_table
.LLSDA8554:
	.byte	0xff
	.byte	0xff
	.byte	0x1
	.uleb128 .LLSDACSE8554-.LLSDACSB8554
.LLSDACSB8554:
	.uleb128 .LEHB77-.LFB8554
	.uleb128 .LEHE77-.LEHB77
	.uleb128 0
	.uleb128 0
.LLSDACSE8554:
	.section	.text.unlikely
	.size	_ZZN8asiodnp311MasterStack7RestartEN8opendnp311RestartTypeERKSt8functionIFvRKNS1_22RestartOperationResultEEENS1_10TaskConfigEENUlvE_D2Ev, .-_ZZN8asiodnp311MasterStack7RestartEN8opendnp311RestartTypeERKSt8functionIFvRKNS1_22RestartOperationResultEEENS1_10TaskConfigEENUlvE_D2Ev
	.set	_ZZN8asiodnp311MasterStack7RestartEN8opendnp311RestartTypeERKSt8functionIFvRKNS1_22RestartOperationResultEEENS1_10TaskConfigEENUlvE_D1Ev,_ZZN8asiodnp311MasterStack7RestartEN8opendnp311RestartTypeERKSt8functionIFvRKNS1_22RestartOperationResultEEENS1_10TaskConfigEENUlvE_D2Ev
.LCOLDB40:
	.text
.LHOTB40:
	.p2align 4
	.type	_ZN4asio6detail18completion_handlerIZN8asiodnp311MasterStack7RestartEN8opendnp311RestartTypeERKSt8functionIFvRKNS4_22RestartOperationResultEEENS4_10TaskConfigEEUlvE_E11do_completeEPNS0_15task_io_serviceEPNS0_25task_io_service_operationERKSt10error_codem, @function
_ZN4asio6detail18completion_handlerIZN8asiodnp311MasterStack7RestartEN8opendnp311RestartTypeERKSt8functionIFvRKNS4_22RestartOperationResultEEENS4_10TaskConfigEEUlvE_E11do_completeEPNS0_15task_io_serviceEPNS0_25task_io_service_operationERKSt10error_codem:
.LFB11556:
	.cfi_startproc
	.cfi_personality 0x9b,DW.ref.__gxx_personality_v0
	.cfi_lsda 0x1b,.LLSDA11556
	pushq	%r13
	.cfi_def_cfa_offset 16
	.cfi_offset 13, -16
	leaq	24(%rsi), %rax
	movq	%rdi, %r13
	pushq	%r12
	.cfi_def_cfa_offset 24
	.cfi_offset 12, -24
	pushq	%rbp
	.cfi_def_cfa_offset 32
	.cfi_offset 6, -32
	pushq	%rbx
	.cfi_def_cfa_offset 40
	.cfi_offset 3, -40
	movq	%rsi, %rbx
	subq	$120, %rsp
	.cfi_def_cfa_offset 160
	movdqu	24(%rsi), %xmm0
	movq	%rax, (%rsp)
	movzbl	40(%rsi), %eax
	movaps	%xmm0, 32(%rsp)
	pxor	%xmm0, %xmm0
	movb	%al, 48(%rsp)
	movq	64(%rsi), %rax
	movups	%xmm0, 24(%rsi)
	pxor	%xmm0, %xmm0
	movq	$0, 72(%rsp)
	movq	$0, 80(%rsp)
	movups	%xmm0, 56(%rsp)
	testq	%rax, %rax
	je	.L1263
	leaq	48(%rsi), %rbp
	movl	$2, %edx
	leaq	56(%rsp), %rdi
	movq	%rbp, %rsi
.LEHB78:
	call	*%rax
.LEHE78:
	movdqu	64(%rbx), %xmm0
	leaq	32(%rsp), %r12
	movq	%r12, (%rsp)
	movq	%xmm0, %rax
	movups	%xmm0, 72(%rsp)
	movdqu	80(%rbx), %xmm0
	movups	%xmm0, 88(%rsp)
	testq	%rax, %rax
	je	.L1262
	movl	$3, %edx
	movq	%rbp, %rsi
	movq	%rbp, %rdi
	call	*%rax
.L1262:
	movq	32(%rbx), %rdi
	testq	%rdi, %rdi
	je	.L1222
	call	_ZNSt16_Sp_counted_baseILN9__gnu_cxx12_Lock_policyE2EE10_M_releaseEv@PLT
.L1222:
	data16	leaq	_ZN4asio6detail15keyword_tss_ptrINS0_10call_stackINS0_15task_io_serviceENS0_27task_io_service_thread_infoEE7contextEE6value_E@tlsgd(%rip), %rdi
	.value	0x6666
	rex64
	call	__tls_get_addr@PLT
	movq	(%rax), %rax
	testq	%rax, %rax
	je	.L1229
	movq	8(%rax), %rax
	testq	%rax, %rax
	je	.L1229
	cmpq	$0, (%rax)
	je	.L1264
.L1229:
	movq	%rbx, %rdi
	call	_ZdlPv@PLT
.L1230:
	testq	%r13, %r13
	je	.L1231
	movq	32(%rsp), %rax
	movq	88(%rsp), %rcx
	leaq	56(%rsp), %rdx
	movq	96(%rsp), %r8
	movzbl	48(%rsp), %esi
	leaq	168(%rax), %rdi
.LEHB79:
	call	_ZN8opendnp38MContext7RestartENS_11RestartTypeERKSt8functionIFvRKNS_22RestartOperationResultEEENS_10TaskConfigE@PLT
.LEHE79:
	sfence
.L1231:
	movq	72(%rsp), %rax
	testq	%rax, %rax
	je	.L1232
	leaq	56(%rsp), %rdi
	movl	$3, %edx
	movq	%rdi, %rsi
	call	*%rax
.L1232:
	movq	40(%rsp), %rdi
	testq	%rdi, %rdi
	je	.L1220
	call	_ZNSt16_Sp_counted_baseILN9__gnu_cxx12_Lock_policyE2EE10_M_releaseEv@PLT
.L1220:
	addq	$120, %rsp
	.cfi_remember_state
	.cfi_def_cfa_offset 40
	popq	%rbx
	.cfi_def_cfa_offset 32
	popq	%rbp
	.cfi_def_cfa_offset 24
	popq	%r12
	.cfi_def_cfa_offset 16
	popq	%r13
	.cfi_def_cfa_offset 8
	ret
	.p2align 4,,10
	.p2align 3
.L1263:
	.cfi_restore_state
	movdqu	80(%rsi), %xmm0
	leaq	32(%rsp), %r12
	movq	%r12, (%rsp)
	movups	%xmm0, 88(%rsp)
	jmp	.L1222
	.p2align 4,,10
	.p2align 3
.L1264:
	movzbl	96(%rbx), %edx
	movb	%dl, (%rbx)
	movq	%rbx, (%rax)
	jmp	.L1230
.L1236:
	movq	%rax, %rbp
	jmp	.L1225
.L1235:
	movq	%rax, %rbp
	jmp	.L1234
	.section	.gcc_except_table
.LLSDA11556:
	.byte	0xff
	.byte	0xff
	.byte	0x1
	.uleb128 .LLSDACSE11556-.LLSDACSB11556
.LLSDACSB11556:
	.uleb128 .LEHB78-.LFB11556
	.uleb128 .LEHE78-.LEHB78
	.uleb128 .L1236-.LFB11556
	.uleb128 0
	.uleb128 .LEHB79-.LFB11556
	.uleb128 .LEHE79-.LEHB79
	.uleb128 .L1235-.LFB11556
	.uleb128 0
.LLSDACSE11556:
	.text
	.cfi_endproc
	.section	.text.unlikely
	.cfi_startproc
	.cfi_personality 0x9b,DW.ref.__gxx_personality_v0
	.cfi_lsda 0x1b,.LLSDAC11556
	.type	_ZN4asio6detail18completion_handlerIZN8asiodnp311MasterStack7RestartEN8opendnp311RestartTypeERKSt8functionIFvRKNS4_22RestartOperationResultEEENS4_10TaskConfigEEUlvE_E11do_completeEPNS0_15task_io_serviceEPNS0_25task_io_service_operationERKSt10error_codem.cold, @function
_ZN4asio6detail18completion_handlerIZN8asiodnp311MasterStack7RestartEN8opendnp311RestartTypeERKSt8functionIFvRKNS4_22RestartOperationResultEEENS4_10TaskConfigEEUlvE_E11do_completeEPNS0_15task_io_serviceEPNS0_25task_io_service_operationERKSt10error_codem.cold:
.LFSB11556:
.L1225:
	.cfi_def_cfa_offset 160
	.cfi_offset 3, -40
	.cfi_offset 6, -32
	.cfi_offset 12, -24
	.cfi_offset 13, -16
	movq	72(%rsp), %rax
	testq	%rax, %rax
	je	.L1226
	movl	$3, %edx
	leaq	56(%rsp), %rsi
	leaq	56(%rsp), %rdi
	call	*%rax
.L1226:
	movq	40(%rsp), %rdi
	testq	%rdi, %rdi
	je	.L1228
	call	_ZNSt16_Sp_counted_baseILN9__gnu_cxx12_Lock_policyE2EE10_M_releaseEv@PLT
.L1228:
	movq	%rbx, %xmm0
	movq	%rsp, %rdi
	punpcklqdq	%xmm0, %xmm0
	movups	%xmm0, 8(%rsp)
	call	_ZN4asio6detail18completion_handlerIZN8asiodnp311MasterStack7RestartEN8opendnp311RestartTypeERKSt8functionIFvRKNS4_22RestartOperationResultEEENS4_10TaskConfigEEUlvE_E3ptr5resetEv
	movq	%rbp, %rdi
.LEHB80:
	call	_Unwind_Resume@PLT
.LEHE80:
.L1234:
	sfence
	movq	%r12, %rdi
	xorl	%ebx, %ebx
	call	_ZZN8asiodnp311MasterStack7RestartEN8opendnp311RestartTypeERKSt8functionIFvRKNS1_22RestartOperationResultEEENS1_10TaskConfigEENUlvE_D1Ev
	jmp	.L1228
	.cfi_endproc
.LFE11556:
	.section	.gcc_except_table
.LLSDAC11556:
	.byte	0xff
	.byte	0xff
	.byte	0x1
	.uleb128 .LLSDACSEC11556-.LLSDACSBC11556
.LLSDACSBC11556:
	.uleb128 .LEHB80-.LCOLDB40
	.uleb128 .LEHE80-.LEHB80
	.uleb128 0
	.uleb128 0
.LLSDACSEC11556:
	.section	.text.unlikely
	.text
	.size	_ZN4asio6detail18completion_handlerIZN8asiodnp311MasterStack7RestartEN8opendnp311RestartTypeERKSt8functionIFvRKNS4_22RestartOperationResultEEENS4_10TaskConfigEEUlvE_E11do_completeEPNS0_15task_io_serviceEPNS0_25task_io_service_operationERKSt10error_codem, .-_ZN4asio6detail18completion_handlerIZN8asiodnp311MasterStack7RestartEN8opendnp311RestartTypeERKSt8functionIFvRKNS4_22RestartOperationResultEEENS4_10TaskConfigEEUlvE_E11do_completeEPNS0_15task_io_serviceEPNS0_25task_io_service_operationERKSt10error_codem
	.section	.text.unlikely
	.size	_ZN4asio6detail18completion_handlerIZN8asiodnp311MasterStack7RestartEN8opendnp311RestartTypeERKSt8functionIFvRKNS4_22RestartOperationResultEEENS4_10TaskConfigEEUlvE_E11do_completeEPNS0_15task_io_serviceEPNS0_25task_io_service_operationERKSt10error_codem.cold, .-_ZN4asio6detail18completion_handlerIZN8asiodnp311MasterStack7RestartEN8opendnp311RestartTypeERKSt8functionIFvRKNS4_22RestartOperationResultEEENS4_10TaskConfigEEUlvE_E11do_completeEPNS0_15task_io_serviceEPNS0_25task_io_service_operationERKSt10error_codem.cold
.LCOLDE40:
	.text
.LHOTE40:
	.section	.text.unlikely
	.align 2
.LCOLDB41:
	.text
.LHOTB41:
	.align 2
	.p2align 4
	.globl	_ZN8asiodnp311MasterStack7RestartEN8opendnp311RestartTypeERKSt8functionIFvRKNS1_22RestartOperationResultEEENS1_10TaskConfigE
	.type	_ZN8asiodnp311MasterStack7RestartEN8opendnp311RestartTypeERKSt8functionIFvRKNS1_22RestartOperationResultEEENS1_10TaskConfigE, @function
_ZN8asiodnp311MasterStack7RestartEN8opendnp311RestartTypeERKSt8functionIFvRKNS1_22RestartOperationResultEEENS1_10TaskConfigE:
.LFB8548:
	.cfi_startproc
	.cfi_personality 0x9b,DW.ref.__gxx_personality_v0
	.cfi_lsda 0x1b,.LLSDA8548
	pushq	%r14
	.cfi_def_cfa_offset 16
	.cfi_offset 14, -16
	pushq	%r13
	.cfi_def_cfa_offset 24
	.cfi_offset 13, -24
	pushq	%r12
	.cfi_def_cfa_offset 32
	.cfi_offset 12, -32
	pushq	%rbp
	.cfi_def_cfa_offset 40
	.cfi_offset 6, -40
	pushq	%rbx
	.cfi_def_cfa_offset 48
	.cfi_offset 3, -48
	subq	$192, %rsp
	.cfi_def_cfa_offset 240
	movq	48(%rdi), %rax
	movq	%rax, 40(%rsp)
	testq	%rax, %rax
	je	.L1267
	movq	%rdx, %rbx
	leaq	8(%rax), %rdx
	movl	8(%rax), %eax
	movq	%rdi, %rbp
	movq	%rcx, %r13
	movq	%r8, %r14
.L1269:
	testl	%eax, %eax
	je	.L1267
	leal	1(%rax), %ecx
	lock cmpxchgl	%ecx, (%rdx)
	jne	.L1269
	movq	40(%rbp), %xmm0
	movq	16(%rbx), %rax
	pxor	%xmm1, %xmm1
	movb	%sil, 48(%rsp)
	movq	$0, 72(%rsp)
	movq	$0, 80(%rsp)
	movq	%xmm0, 32(%rsp)
	movups	%xmm1, 56(%rsp)
	testq	%rax, %rax
	je	.L1299
	movl	$2, %edx
	movq	%rbx, %rsi
	leaq	56(%rsp), %rdi
.LEHB81:
	call	*%rax
.LEHE81:
	movdqu	16(%rbx), %xmm0
	movq	16(%rbx), %rax
	movups	%xmm0, 72(%rsp)
	movq	32(%rsp), %xmm0
.L1299:
	movq	40(%rsp), %rdx
	movq	88(%rbp), %rbp
	movq	%r13, 88(%rsp)
	movq	%r14, 96(%rsp)
	movq	%rdx, %xmm2
	punpcklqdq	%xmm2, %xmm0
	movaps	%xmm0, 112(%rsp)
	testq	%rdx, %rdx
	je	.L1271
	movq	__libc_single_threaded@GOTPCREL(%rip), %rcx
	cmpb	$0, (%rcx)
	je	.L1276
	addl	$1, 8(%rdx)
.L1271:
	movzbl	48(%rsp), %edx
	pxor	%xmm0, %xmm0
	movq	$0, 152(%rsp)
	movq	$0, 160(%rsp)
	movb	%dl, 128(%rsp)
	movups	%xmm0, 136(%rsp)
	testq	%rax, %rax
	je	.L1278
	leaq	56(%rsp), %rsi
	movl	$2, %edx
	leaq	136(%rsp), %rdi
.LEHB82:
	call	*%rax
.LEHE82:
	movdqu	72(%rsp), %xmm0
	movups	%xmm0, 152(%rsp)
.L1278:
	movdqu	88(%rsp), %xmm0
	leaq	112(%rsp), %r13
	movq	40(%rbp), %r12
	movq	%r13, (%rsp)
	movups	%xmm0, 168(%rsp)
	pxor	%xmm0, %xmm0
	movups	%xmm0, 8(%rsp)
	data16	leaq	_ZN4asio6detail15keyword_tss_ptrINS0_10call_stackINS0_15task_io_serviceENS0_27task_io_service_thread_infoEE7contextEE6value_E@tlsgd(%rip), %rdi
	.value	0x6666
	rex64
	call	__tls_get_addr@PLT
	movq	(%rax), %rax
	testq	%rax, %rax
	je	.L1280
	movq	8(%rax), %rax
	testq	%rax, %rax
	je	.L1280
	movq	(%rax), %rbx
	testq	%rbx, %rbx
	je	.L1280
	movq	$0, (%rax)
	movzbl	(%rbx), %eax
	cmpb	$95, %al
	jbe	.L1285
	movb	%al, 96(%rbx)
	jmp	.L1286
	.p2align 4,,10
	.p2align 3
.L1285:
	movq	%rbx, %rdi
	call	_ZdlPv@PLT
.L1280:
	movl	$97, %edi
.LEHB83:
	call	_Znwm@PLT
.LEHE83:
	movb	$96, 96(%rax)
	movq	%rax, %rbx
.L1286:
	leaq	_ZN4asio6detail18completion_handlerIZN8asiodnp311MasterStack7RestartEN8opendnp311RestartTypeERKSt8functionIFvRKNS4_22RestartOperationResultEEENS4_10TaskConfigEEUlvE_E11do_completeEPNS0_15task_io_serviceEPNS0_25task_io_service_operationERKSt10error_codem(%rip), %rax
	movq	$0, (%rbx)
	movq	%rax, 8(%rbx)
	movzbl	128(%rsp), %eax
	movdqa	112(%rsp), %xmm0
	movq	%rbx, 8(%rsp)
	movb	%al, 40(%rbx)
	movups	%xmm0, 24(%rbx)
	pxor	%xmm0, %xmm0
	movq	152(%rsp), %rax
	movaps	%xmm0, 112(%rsp)
	pxor	%xmm0, %xmm0
	movl	$0, 16(%rbx)
	movq	$0, 64(%rbx)
	movq	$0, 72(%rbx)
	movups	%xmm0, 48(%rbx)
	testq	%rax, %rax
	je	.L1287
	leaq	48(%rbx), %r14
	leaq	136(%rsp), %rsi
	movl	$2, %edx
	movq	%r14, %rdi
.LEHB84:
	call	*%rax
.LEHE84:
	movdqu	152(%rsp), %xmm0
	movups	%xmm0, 64(%rbx)
.L1287:
	leaq	48(%rbp), %rsi
	xorl	%ecx, %ecx
	movq	%rbx, %rdx
	movq	%r12, %rdi
	movdqu	168(%rsp), %xmm0
	movups	%xmm0, 80(%rbx)
	call	_ZN4asio6detail14strand_service7do_postERPNS1_11strand_implEPNS0_25task_io_service_operationEb@PLT
	movq	152(%rsp), %rax
	testq	%rax, %rax
	je	.L1289
	leaq	136(%rsp), %rdi
	movl	$3, %edx
	movq	%rdi, %rsi
	call	*%rax
.L1289:
	movq	120(%rsp), %rdi
	testq	%rdi, %rdi
	je	.L1294
	call	_ZNSt16_Sp_counted_baseILN9__gnu_cxx12_Lock_policyE2EE10_M_releaseEv@PLT
.L1294:
	movq	72(%rsp), %rax
	testq	%rax, %rax
	je	.L1296
	leaq	56(%rsp), %rdi
	movl	$3, %edx
	movq	%rdi, %rsi
	call	*%rax
.L1296:
	movq	40(%rsp), %rdi
	testq	%rdi, %rdi
	je	.L1265
	call	_ZNSt16_Sp_counted_baseILN9__gnu_cxx12_Lock_policyE2EE10_M_releaseEv@PLT
.L1265:
	addq	$192, %rsp
	.cfi_remember_state
	.cfi_def_cfa_offset 48
	popq	%rbx
	.cfi_def_cfa_offset 40
	popq	%rbp
	.cfi_def_cfa_offset 32
	popq	%r12
	.cfi_def_cfa_offset 24
	popq	%r13
	.cfi_def_cfa_offset 16
	popq	%r14
	.cfi_def_cfa_offset 8
	ret
	.p2align 4,,10
	.p2align 3
.L1276:
	.cfi_restore_state
	lock addl	$1, 8(%rdx)
	movq	72(%rsp), %rax
	jmp	.L1271
.L1302:
	movq	%rax, %rbp
	jmp	.L1281
.L1300:
	movq	%rax, %rbx
	jmp	.L1272
.L1303:
	movq	%rax, %rbp
	jmp	.L1290
.L1301:
	movq	%rax, %rbx
	jmp	.L1293
	.section	.gcc_except_table
.LLSDA8548:
	.byte	0xff
	.byte	0xff
	.byte	0x1
	.uleb128 .LLSDACSE8548-.LLSDACSB8548
.LLSDACSB8548:
	.uleb128 .LEHB81-.LFB8548
	.uleb128 .LEHE81-.LEHB81
	.uleb128 .L1300-.LFB8548
	.uleb128 0
	.uleb128 .LEHB82-.LFB8548
	.uleb128 .LEHE82-.LEHB82
	.uleb128 .L1302-.LFB8548
	.uleb128 0
	.uleb128 .LEHB83-.LFB8548
	.uleb128 .LEHE83-.LEHB83
	.uleb128 .L1301-.LFB8548
	.uleb128 0
	.uleb128 .LEHB84-.LFB8548
	.uleb128 .LEHE84-.LEHB84
	.uleb128 .L1303-.LFB8548
	.uleb128 0
.LLSDACSE8548:
	.text
	.cfi_endproc
	.section	.text.unlikely
	.cfi_startproc
	.cfi_personality 0x9b,DW.ref.__gxx_personality_v0
	.cfi_lsda 0x1b,.LLSDAC8548
	.type	_ZN8asiodnp311MasterStack7RestartEN8opendnp311RestartTypeERKSt8functionIFvRKNS1_22RestartOperationResultEEENS1_10TaskConfigE.cold, @function
_ZN8asiodnp311MasterStack7RestartEN8opendnp311RestartTypeERKSt8functionIFvRKNS1_22RestartOperationResultEEENS1_10TaskConfigE.cold:
.LFSB8548:
.L1267:
	.cfi_def_cfa_offset 240
	.cfi_offset 3, -48
	.cfi_offset 6, -40
	.cfi_offset 12, -32
	.cfi_offset 13, -24
	.cfi_offset 14, -16
	movl	$8, %edi
	call	__cxa_allocate_exception@PLT
	movq	_ZTVSt12bad_weak_ptr@GOTPCREL(%rip), %rdx
	movq	_ZTISt12bad_weak_ptr@GOTPCREL(%rip), %rsi
	movq	%rax, %rdi
	addq	$16, %rdx
	movq	%rdx, (%rax)
	movq	_ZNSt12bad_weak_ptrD1Ev@GOTPCREL(%rip), %rdx
.LEHB85:
	call	__cxa_throw@PLT
.LEHE85:
.L1272:
	movq	72(%rsp), %rax
	testq	%rax, %rax
	je	.L1273
	movl	$3, %edx
	leaq	56(%rsp), %rsi
	leaq	56(%rsp), %rdi
	call	*%rax
.L1273:
	movq	40(%rsp), %rdi
	testq	%rdi, %rdi
	je	.L1275
	call	_ZNSt16_Sp_counted_baseILN9__gnu_cxx12_Lock_policyE2EE10_M_releaseEv@PLT
.L1275:
	movq	%rbx, %rdi
.LEHB86:
	call	_Unwind_Resume@PLT
.L1290:
	movq	64(%rbx), %rax
	testq	%rax, %rax
	jne	.L1341
.L1291:
	movq	32(%rbx), %rdi
	testq	%rdi, %rdi
	jne	.L1342
.L1292:
	movq	%rsp, %rdi
	movq	%rbp, %rbx
	call	_ZN4asio6detail18completion_handlerIZN8asiodnp311MasterStack7RestartEN8opendnp311RestartTypeERKSt8functionIFvRKNS4_22RestartOperationResultEEENS4_10TaskConfigEEUlvE_E3ptr5resetEv
.L1293:
	movq	%r13, %rdi
	call	_ZZN8asiodnp311MasterStack7RestartEN8opendnp311RestartTypeERKSt8functionIFvRKNS1_22RestartOperationResultEEENS1_10TaskConfigEENUlvE_D1Ev
.L1284:
	leaq	32(%rsp), %rdi
	call	_ZZN8asiodnp311MasterStack7RestartEN8opendnp311RestartTypeERKSt8functionIFvRKNS1_22RestartOperationResultEEENS1_10TaskConfigEENUlvE_D1Ev
	movq	%rbx, %rdi
	call	_Unwind_Resume@PLT
.LEHE86:
.L1281:
	movq	152(%rsp), %rax
	testq	%rax, %rax
	je	.L1282
	movl	$3, %edx
	leaq	136(%rsp), %rsi
	leaq	136(%rsp), %rdi
	call	*%rax
.L1282:
	movq	120(%rsp), %rdi
	testq	%rdi, %rdi
	je	.L1283
	call	_ZNSt16_Sp_counted_baseILN9__gnu_cxx12_Lock_policyE2EE10_M_releaseEv@PLT
.L1283:
	movq	%rbp, %rbx
	jmp	.L1284
.L1341:
	movl	$3, %edx
	movq	%r14, %rsi
	movq	%r14, %rdi
	call	*%rax
	jmp	.L1291
.L1342:
	call	_ZNSt16_Sp_counted_baseILN9__gnu_cxx12_Lock_policyE2EE10_M_releaseEv@PLT
	jmp	.L1292
	.cfi_endproc
.LFE8548:
	.section	.gcc_except_table
.LLSDAC8548:
	.byte	0xff
	.byte	0xff
	.byte	0x1
	.uleb128 .LLSDACSEC8548-.LLSDACSBC8548
.LLSDACSBC8548:
	.uleb128 .LEHB85-.LCOLDB41
	.uleb128 .LEHE85-.LEHB85
	.uleb128 0
	.uleb128 0
	.uleb128 .LEHB86-.LCOLDB41
	.uleb128 .LEHE86-.LEHB86
	.uleb128 0
	.uleb128 0
.LLSDACSEC8548:
	.section	.text.unlikely
	.text
	.size	_ZN8asiodnp311MasterStack7RestartEN8opendnp311RestartTypeERKSt8functionIFvRKNS1_22RestartOperationResultEEENS1_10TaskConfigE, .-_ZN8asiodnp311MasterStack7RestartEN8opendnp311RestartTypeERKSt8functionIFvRKNS1_22RestartOperationResultEEENS1_10TaskConfigE
	.section	.text.unlikely
	.size	_ZN8asiodnp311MasterStack7RestartEN8opendnp311RestartTypeERKSt8functionIFvRKNS1_22RestartOperationResultEEENS1_10TaskConfigE.cold, .-_ZN8asiodnp311MasterStack7RestartEN8opendnp311RestartTypeERKSt8functionIFvRKNS1_22RestartOperationResultEEENS1_10TaskConfigE.cold
.LCOLDE41:
	.text
.LHOTE41:
	.section	.text._ZN8opendnp38MContextD0Ev,"axG",@progbits,_ZN8opendnp38MContextD5Ev,comdat
	.align 2
	.p2align 4
	.weak	_ZN8opendnp38MContextD0Ev
	.type	_ZN8opendnp38MContextD0Ev, @function
_ZN8opendnp38MContextD0Ev:
.LFB8378:
	.cfi_startproc
	movq	_ZTVN8opendnp38MContextE@GOTPCREL(%rip), %rax
	pushq	%r14
	.cfi_def_cfa_offset 16
	.cfi_offset 14, -16
	pushq	%r13
	.cfi_def_cfa_offset 24
	.cfi_offset 13, -24
	leaq	128(%rax), %rdx
	leaq	16(%rax), %rcx
	pushq	%r12
	.cfi_def_cfa_offset 32
	.cfi_offset 12, -32
	movq	%rdi, %r12
	movq	%rcx, %xmm0
	movq	%rdx, %xmm1
	addq	$152, %rax
	pushq	%rbp
	.cfi_def_cfa_offset 40
	.cfi_offset 6, -40
	punpcklqdq	%xmm1, %xmm0
	pushq	%rbx
	.cfi_def_cfa_offset 48
	.cfi_offset 3, -48
	movq	%rax, 16(%rdi)
	movups	%xmm0, (%rdi)
	movq	504(%rdi), %rdi
	testq	%rdi, %rdi
	je	.L1344
	call	_ZdaPv@PLT
.L1344:
	movq	408(%r12), %rdi
	testq	%rdi, %rdi
	je	.L1345
	movq	480(%r12), %rax
	movq	448(%r12), %rbx
	leaq	8(%rax), %rbp
	cmpq	%rbp, %rbx
	jnb	.L1346
	.p2align 4
	.p2align 3
.L1347:
	movq	(%rbx), %rdi
	movl	$510, %esi
	addq	$8, %rbx
	call	_ZdlPvm@PLT
	cmpq	%rbp, %rbx
	jb	.L1347
	movq	408(%r12), %rdi
.L1346:
	movq	416(%r12), %rax
	leaq	0(,%rax,8), %rsi
	call	_ZdlPvm@PLT
.L1345:
	movq	392(%r12), %r13
	movq	384(%r12), %rbx
	cmpq	%rbx, %r13
	je	.L1348
	movabsq	$4294967297, %r14
	jmp	.L1355
	.p2align 4,,10
	.p2align 3
.L1441:
	movl	8(%rbp), %eax
	leal	-1(%rax), %edx
	movl	%edx, 8(%rbp)
	cmpl	$1, %eax
	je	.L1438
.L1350:
	addq	$16, %rbx
	cmpq	%rbx, %r13
	je	.L1439
.L1355:
	movq	8(%rbx), %rbp
	testq	%rbp, %rbp
	je	.L1350
	movq	8(%rbp), %rax
	leaq	8(%rbp), %rdx
	cmpq	%r14, %rax
	je	.L1440
	movq	__libc_single_threaded@GOTPCREL(%rip), %rax
	cmpb	$0, (%rax)
	jne	.L1441
	movl	$-1, %eax
	lock xaddl	%eax, (%rdx)
	cmpl	$1, %eax
	jne	.L1350
.L1438:
	movq	%rbp, %rdi
	addq	$16, %rbx
	call	_ZNSt16_Sp_counted_baseILN9__gnu_cxx12_Lock_policyE2EE24_M_release_last_use_coldEv@PLT
	cmpq	%rbx, %r13
	jne	.L1355
	.p2align 4
	.p2align 3
.L1439:
	movq	384(%r12), %rbx
.L1348:
	testq	%rbx, %rbx
	je	.L1356
	movq	400(%r12), %rsi
	movq	%rbx, %rdi
	subq	%rbx, %rsi
	call	_ZdlPvm@PLT
.L1356:
	movq	360(%r12), %r13
	movq	352(%r12), %rbx
	cmpq	%rbx, %r13
	je	.L1357
	movabsq	$4294967297, %r14
	jmp	.L1364
	.p2align 4,,10
	.p2align 3
.L1445:
	movl	8(%rbp), %eax
	leal	-1(%rax), %edx
	movl	%edx, 8(%rbp)
	cmpl	$1, %eax
	je	.L1442
.L1359:
	addq	$16, %rbx
	cmpq	%rbx, %r13
	je	.L1443
.L1364:
	movq	8(%rbx), %rbp
	testq	%rbp, %rbp
	je	.L1359
	movq	8(%rbp), %rax
	leaq	8(%rbp), %rdx
	cmpq	%r14, %rax
	je	.L1444
	movq	__libc_single_threaded@GOTPCREL(%rip), %rax
	cmpb	$0, (%rax)
	jne	.L1445
	movl	$-1, %eax
	lock xaddl	%eax, (%rdx)
	cmpl	$1, %eax
	jne	.L1359
.L1442:
	movq	%rbp, %rdi
	addq	$16, %rbx
	call	_ZNSt16_Sp_counted_baseILN9__gnu_cxx12_Lock_policyE2EE24_M_release_last_use_coldEv@PLT
	cmpq	%rbx, %r13
	jne	.L1364
	.p2align 4
	.p2align 3
.L1443:
	movq	352(%r12), %rbx
.L1357:
	testq	%rbx, %rbx
	je	.L1365
	movq	368(%r12), %rsi
	movq	%rbx, %rdi
	subq	%rbx, %rsi
	call	_ZdlPvm@PLT
.L1365:
	movq	344(%r12), %rdi
	testq	%rdi, %rdi
	je	.L1366
	call	_ZNSt16_Sp_counted_baseILN9__gnu_cxx12_Lock_policyE2EE10_M_releaseEv@PLT
.L1366:
	movq	328(%r12), %rdi
	testq	%rdi, %rdi
	je	.L1367
	call	_ZNSt16_Sp_counted_baseILN9__gnu_cxx12_Lock_policyE2EE10_M_releaseEv@PLT
.L1367:
	movq	312(%r12), %rdi
	testq	%rdi, %rdi
	je	.L1368
	call	_ZNSt16_Sp_counted_baseILN9__gnu_cxx12_Lock_policyE2EE10_M_releaseEv@PLT
.L1368:
	movq	296(%r12), %rdi
	testq	%rdi, %rdi
	je	.L1369
	call	_ZNSt16_Sp_counted_baseILN9__gnu_cxx12_Lock_policyE2EE10_M_releaseEv@PLT
.L1369:
	movq	280(%r12), %rdi
	testq	%rdi, %rdi
	je	.L1370
	call	_ZNSt16_Sp_counted_baseILN9__gnu_cxx12_Lock_policyE2EE10_M_releaseEv@PLT
.L1370:
	movq	264(%r12), %rdi
	testq	%rdi, %rdi
	je	.L1371
	call	_ZNSt16_Sp_counted_baseILN9__gnu_cxx12_Lock_policyE2EE10_M_releaseEv@PLT
.L1371:
	movq	248(%r12), %rdi
	testq	%rdi, %rdi
	je	.L1372
	call	_ZNSt16_Sp_counted_baseILN9__gnu_cxx12_Lock_policyE2EE10_M_releaseEv@PLT
.L1372:
	leaq	224(%r12), %rdi
	call	_ZN7openpal8TimerRefD1Ev@PLT
	leaq	208(%r12), %rdi
	call	_ZN7openpal8TimerRefD1Ev@PLT
	leaq	192(%r12), %rdi
	call	_ZN7openpal8TimerRefD1Ev@PLT
	movq	184(%r12), %rdi
	testq	%rdi, %rdi
	je	.L1373
	call	_ZNSt16_Sp_counted_baseILN9__gnu_cxx12_Lock_policyE2EE10_M_releaseEv@PLT
.L1373:
	movq	152(%r12), %rdi
	testq	%rdi, %rdi
	je	.L1374
	call	_ZNSt16_Sp_counted_baseILN9__gnu_cxx12_Lock_policyE2EE10_M_releaseEv@PLT
.L1374:
	movq	136(%r12), %rdi
	testq	%rdi, %rdi
	je	.L1375
	call	_ZNSt16_Sp_counted_baseILN9__gnu_cxx12_Lock_policyE2EE10_M_releaseEv@PLT
.L1375:
	movq	80(%r12), %rdi
	testq	%rdi, %rdi
	je	.L1376
	call	_ZNSt16_Sp_counted_baseILN9__gnu_cxx12_Lock_policyE2EE10_M_releaseEv@PLT
.L1376:
	movq	64(%r12), %rdi
	testq	%rdi, %rdi
	je	.L1377
	call	_ZNSt16_Sp_counted_baseILN9__gnu_cxx12_Lock_policyE2EE10_M_releaseEv@PLT
.L1377:
	movq	48(%r12), %rdi
	testq	%rdi, %rdi
	je	.L1378
	call	_ZNSt16_Sp_counted_baseILN9__gnu_cxx12_Lock_policyE2EE10_M_releaseEv@PLT
.L1378:
	movq	32(%r12), %rdi
	testq	%rdi, %rdi
	je	.L1379
	call	_ZNSt16_Sp_counted_baseILN9__gnu_cxx12_Lock_policyE2EE10_M_releaseEv@PLT
.L1379:
	popq	%rbx
	.cfi_remember_state
	.cfi_def_cfa_offset 40
	movq	%r12, %rdi
	popq	%rbp
	.cfi_def_cfa_offset 32
	movl	$520, %esi
	popq	%r12
	.cfi_def_cfa_offset 24
	popq	%r13
	.cfi_def_cfa_offset 16
	popq	%r14
	.cfi_def_cfa_offset 8
	jmp	_ZdlPvm@PLT
	.p2align 4,,10
	.p2align 3
.L1440:
	.cfi_restore_state
	movq	0(%rbp), %rax
	movq	%rbp, %rdi
	movq	$0, 8(%rbp)
	call	*16(%rax)
	movq	0(%rbp), %rax
	movq	%rbp, %rdi
	call	*24(%rax)
	jmp	.L1350
	.p2align 4,,10
	.p2align 3
.L1444:
	movq	0(%rbp), %rax
	movq	%rbp, %rdi
	movq	$0, 8(%rbp)
	call	*16(%rax)
	movq	0(%rbp), %rax
	movq	%rbp, %rdi
	call	*24(%rax)
	jmp	.L1359
	.cfi_endproc
.LFE8378:
	.size	_ZN8opendnp38MContextD0Ev, .-_ZN8opendnp38MContextD0Ev
	.section	.text.unlikely
	.align 2
	.type	_ZZN8asiodnp311MasterStack16SelectAndOperateEON8opendnp310CommandSetERKSt8functionIFvRKNS1_18ICommandTaskResultEEERKNS1_10TaskConfigEENUlvE_D2Ev, @function
_ZZN8asiodnp311MasterStack16SelectAndOperateEON8opendnp310CommandSetERKSt8functionIFvRKNS1_18ICommandTaskResultEEERKNS1_10TaskConfigEENUlvE_D2Ev:
.LFB8586:
	.cfi_startproc
	.cfi_personality 0x9b,DW.ref.__gxx_personality_v0
	.cfi_lsda 0x1b,.LLSDA8586
	pushq	%rbp
	.cfi_def_cfa_offset 16
	.cfi_offset 6, -16
	movq	%rdi, %rbp
	pushq	%rbx
	.cfi_def_cfa_offset 24
	.cfi_offset 3, -24
	pushq	%rsi
	.cfi_def_cfa_offset 32
	movq	64(%rdi), %rax
	testq	%rax, %rax
	je	.L1447
	leaq	48(%rdi), %rdi
	movl	$3, %edx
	movq	%rdi, %rsi
	call	*%rax
.L1447:
	movq	24(%rbp), %rbx
	testq	%rbx, %rbx
	je	.L1449
	movq	8(%rbx), %rcx
	leaq	8(%rbx), %rdx
	movabsq	$4294967297, %rax
	cmpq	%rax, %rcx
	jne	.L1450
	movq	(%rbx), %rax
	xorl	%ecx, %ecx
	movq	%rbx, %rdi
	movq	%rcx, 8(%rbx)
	call	*16(%rax)
	movq	(%rbx), %rax
	movq	%rbx, %rdi
	call	*24(%rax)
	jmp	.L1449
.L1450:
	movq	__libc_single_threaded@GOTPCREL(%rip), %rax
	cmpb	$0, (%rax)
	je	.L1451
	movl	8(%rbx), %eax
	leal	-1(%rax), %edx
	movl	%edx, 8(%rbx)
	jmp	.L1452
.L1451:
	movl	$-1, %eax
	lock xaddl	%eax, (%rdx)
.L1452:
	decl	%eax
	jne	.L1449
	movq	%rbx, %rdi
	call	_ZNSt16_Sp_counted_baseILN9__gnu_cxx12_Lock_policyE2EE24_M_release_last_use_coldEv@PLT
.L1449:
	movq	8(%rbp), %rdi
	testq	%rdi, %rdi
	je	.L1446
	popq	%rdx
	.cfi_remember_state
	.cfi_def_cfa_offset 24
	popq	%rbx
	.cfi_def_cfa_offset 16
	popq	%rbp
	.cfi_def_cfa_offset 8
.LEHB87:
	jmp	_ZNSt16_Sp_counted_baseILN9__gnu_cxx12_Lock_policyE2EE10_M_releaseEv@PLT
.LEHE87:
.L1446:
	.cfi_restore_state
	popq	%rax
	.cfi_def_cfa_offset 24
	popq	%rbx
	.cfi_def_cfa_offset 16
	popq	%rbp
	.cfi_def_cfa_offset 8
	ret
	.cfi_endproc
.LFE8586:
	.section	.gcc_except_table
.LLSDA8586:
	.byte	0xff
	.byte	0xff
	.byte	0x1
	.uleb128 .LLSDACSE8586-.LLSDACSB8586
.LLSDACSB8586:
	.uleb128 .LEHB87-.LFB8586
	.uleb128 .LEHE87-.LEHB87
	.uleb128 0
	.uleb128 0
.LLSDACSE8586:
	.section	.text.unlikely
	.size	_ZZN8asiodnp311MasterStack16SelectAndOperateEON8opendnp310CommandSetERKSt8functionIFvRKNS1_18ICommandTaskResultEEERKNS1_10TaskConfigEENUlvE_D2Ev, .-_ZZN8asiodnp311MasterStack16SelectAndOperateEON8opendnp310CommandSetERKSt8functionIFvRKNS1_18ICommandTaskResultEEERKNS1_10TaskConfigEENUlvE_D2Ev
	.set	_ZZN8asiodnp311MasterStack16SelectAndOperateEON8opendnp310CommandSetERKSt8functionIFvRKNS1_18ICommandTaskResultEEERKNS1_10TaskConfigEENUlvE_D1Ev,_ZZN8asiodnp311MasterStack16SelectAndOperateEON8opendnp310CommandSetERKSt8functionIFvRKNS1_18ICommandTaskResultEEERKNS1_10TaskConfigEENUlvE_D2Ev
.LCOLDB42:
	.text
.LHOTB42:
	.p2align 4
	.type	_ZN4asio6detail18completion_handlerIZN8asiodnp311MasterStack16SelectAndOperateEON8opendnp310CommandSetERKSt8functionIFvRKNS4_18ICommandTaskResultEEERKNS4_10TaskConfigEEUlvE_E11do_completeEPNS0_15task_io_serviceEPNS0_25task_io_service_operationERKSt10error_codem, @function
_ZN4asio6detail18completion_handlerIZN8asiodnp311MasterStack16SelectAndOperateEON8opendnp310CommandSetERKSt8functionIFvRKNS4_18ICommandTaskResultEEERKNS4_10TaskConfigEEUlvE_E11do_completeEPNS0_15task_io_serviceEPNS0_25task_io_service_operationERKSt10error_codem:
.LFB11572:
	.cfi_startproc
	.cfi_personality 0x9b,DW.ref.__gxx_personality_v0
	.cfi_lsda 0x1b,.LLSDA11572
	pushq	%r13
	.cfi_def_cfa_offset 16
	.cfi_offset 13, -16
	leaq	24(%rsi), %rax
	movq	%rdi, %r13
	pushq	%r12
	.cfi_def_cfa_offset 24
	.cfi_offset 12, -24
	pushq	%rbp
	.cfi_def_cfa_offset 32
	.cfi_offset 6, -32
	pushq	%rbx
	.cfi_def_cfa_offset 40
	.cfi_offset 3, -40
	movq	%rsi, %rbx
	subq	$120, %rsp
	.cfi_def_cfa_offset 160
	movdqu	40(%rsi), %xmm0
	movdqu	24(%rsi), %xmm1
	movq	%rax, (%rsp)
	movq	88(%rsi), %rax
	movaps	%xmm0, 48(%rsp)
	pxor	%xmm0, %xmm0
	movups	%xmm0, 24(%rsi)
	movups	%xmm0, 40(%rsi)
	movdqu	56(%rsi), %xmm0
	movq	$0, 96(%rsp)
	movaps	%xmm0, 64(%rsp)
	pxor	%xmm0, %xmm0
	movq	$0, 104(%rsp)
	movaps	%xmm1, 32(%rsp)
	movaps	%xmm0, 80(%rsp)
	testq	%rax, %rax
	je	.L1514
	leaq	72(%rsi), %rbp
	movl	$2, %edx
	leaq	80(%rsp), %rdi
	movq	%rbp, %rsi
.LEHB88:
	call	*%rax
.LEHE88:
	movdqu	88(%rbx), %xmm0
	leaq	32(%rsp), %r12
	movq	%r12, (%rsp)
	movq	%xmm0, %rax
	movaps	%xmm0, 96(%rsp)
	testq	%rax, %rax
	je	.L1513
	movl	$3, %edx
	movq	%rbp, %rsi
	movq	%rbp, %rdi
	call	*%rax
.L1513:
	movq	48(%rbx), %rdi
	testq	%rdi, %rdi
	je	.L1461
	call	_ZNSt16_Sp_counted_baseILN9__gnu_cxx12_Lock_policyE2EE10_M_releaseEv@PLT
.L1461:
	movq	32(%rbx), %rdi
	testq	%rdi, %rdi
	je	.L1469
.L1516:
	call	_ZNSt16_Sp_counted_baseILN9__gnu_cxx12_Lock_policyE2EE10_M_releaseEv@PLT
.L1469:
	data16	leaq	_ZN4asio6detail15keyword_tss_ptrINS0_10call_stackINS0_15task_io_serviceENS0_27task_io_service_thread_infoEE7contextEE6value_E@tlsgd(%rip), %rdi
	.value	0x6666
	rex64
	call	__tls_get_addr@PLT
	movq	(%rax), %rax
	testq	%rax, %rax
	je	.L1470
	movq	8(%rax), %rax
	testq	%rax, %rax
	je	.L1470
	cmpq	$0, (%rax)
	je	.L1515
.L1470:
	movq	%rbx, %rdi
	call	_ZdlPv@PLT
.L1471:
	testq	%r13, %r13
	je	.L1472
	movq	32(%rsp), %rax
	movq	48(%rsp), %rsi
	leaq	64(%rsp), %rcx
	leaq	80(%rsp), %rdx
	leaq	168(%rax), %rdi
.LEHB89:
	call	_ZN8opendnp38MContext16SelectAndOperateEONS_10CommandSetERKSt8functionIFvRKNS_18ICommandTaskResultEEERKNS_10TaskConfigE@PLT
.LEHE89:
	sfence
.L1472:
	movq	96(%rsp), %rax
	testq	%rax, %rax
	je	.L1473
	leaq	80(%rsp), %rdi
	movl	$3, %edx
	movq	%rdi, %rsi
	call	*%rax
.L1473:
	movq	56(%rsp), %rdi
	testq	%rdi, %rdi
	je	.L1474
	call	_ZNSt16_Sp_counted_baseILN9__gnu_cxx12_Lock_policyE2EE10_M_releaseEv@PLT
.L1474:
	movq	40(%rsp), %rdi
	testq	%rdi, %rdi
	je	.L1459
	call	_ZNSt16_Sp_counted_baseILN9__gnu_cxx12_Lock_policyE2EE10_M_releaseEv@PLT
.L1459:
	addq	$120, %rsp
	.cfi_remember_state
	.cfi_def_cfa_offset 40
	popq	%rbx
	.cfi_def_cfa_offset 32
	popq	%rbp
	.cfi_def_cfa_offset 24
	popq	%r12
	.cfi_def_cfa_offset 16
	popq	%r13
	.cfi_def_cfa_offset 8
	ret
	.p2align 4,,10
	.p2align 3
.L1514:
	.cfi_restore_state
	movq	32(%rbx), %rdi
	leaq	32(%rsp), %r12
	movq	%r12, (%rsp)
	testq	%rdi, %rdi
	jne	.L1516
	jmp	.L1469
	.p2align 4,,10
	.p2align 3
.L1515:
	movzbl	104(%rbx), %edx
	movb	%dl, (%rbx)
	movq	%rbx, (%rax)
	jmp	.L1471
.L1478:
	movq	%rax, %rbp
	jmp	.L1464
.L1477:
	movq	%rax, %rbp
	jmp	.L1476
	.section	.gcc_except_table
.LLSDA11572:
	.byte	0xff
	.byte	0xff
	.byte	0x1
	.uleb128 .LLSDACSE11572-.LLSDACSB11572
.LLSDACSB11572:
	.uleb128 .LEHB88-.LFB11572
	.uleb128 .LEHE88-.LEHB88
	.uleb128 .L1478-.LFB11572
	.uleb128 0
	.uleb128 .LEHB89-.LFB11572
	.uleb128 .LEHE89-.LEHB89
	.uleb128 .L1477-.LFB11572
	.uleb128 0
.LLSDACSE11572:
	.text
	.cfi_endproc
	.section	.text.unlikely
	.cfi_startproc
	.cfi_personality 0x9b,DW.ref.__gxx_personality_v0
	.cfi_lsda 0x1b,.LLSDAC11572
	.type	_ZN4asio6detail18completion_handlerIZN8asiodnp311MasterStack16SelectAndOperateEON8opendnp310CommandSetERKSt8functionIFvRKNS4_18ICommandTaskResultEEERKNS4_10TaskConfigEEUlvE_E11do_completeEPNS0_15task_io_serviceEPNS0_25task_io_service_operationERKSt10error_codem.cold, @function
_ZN4asio6detail18completion_handlerIZN8asiodnp311MasterStack16SelectAndOperateEON8opendnp310CommandSetERKSt8functionIFvRKNS4_18ICommandTaskResultEEERKNS4_10TaskConfigEEUlvE_E11do_completeEPNS0_15task_io_serviceEPNS0_25task_io_service_operationERKSt10error_codem.cold:
.LFSB11572:
.L1464:
	.cfi_def_cfa_offset 160
	.cfi_offset 3, -40
	.cfi_offset 6, -32
	.cfi_offset 12, -24
	.cfi_offset 13, -16
	movq	96(%rsp), %rax
	testq	%rax, %rax
	je	.L1465
	movl	$3, %edx
	leaq	80(%rsp), %rsi
	leaq	80(%rsp), %rdi
	call	*%rax
.L1465:
	movq	56(%rsp), %rdi
	testq	%rdi, %rdi
	je	.L1466
	call	_ZNSt16_Sp_counted_baseILN9__gnu_cxx12_Lock_policyE2EE10_M_releaseEv@PLT
.L1466:
	movq	40(%rsp), %rdi
	testq	%rdi, %rdi
	je	.L1468
	call	_ZNSt16_Sp_counted_baseILN9__gnu_cxx12_Lock_policyE2EE10_M_releaseEv@PLT
.L1468:
	movq	%rbx, %xmm0
	movq	%rsp, %rdi
	punpcklqdq	%xmm0, %xmm0
	movups	%xmm0, 8(%rsp)
	call	_ZN4asio6detail18completion_handlerIZN8asiodnp311MasterStack16SelectAndOperateEON8opendnp310CommandSetERKSt8functionIFvRKNS4_18ICommandTaskResultEEERKNS4_10TaskConfigEEUlvE_E3ptr5resetEv
	movq	%rbp, %rdi
.LEHB90:
	call	_Unwind_Resume@PLT
.LEHE90:
.L1476:
	sfence
	movq	%r12, %rdi
	xorl	%ebx, %ebx
	call	_ZZN8asiodnp311MasterStack16SelectAndOperateEON8opendnp310CommandSetERKSt8functionIFvRKNS1_18ICommandTaskResultEEERKNS1_10TaskConfigEENUlvE_D1Ev
	jmp	.L1468
	.cfi_endproc
.LFE11572:
	.section	.gcc_except_table
.LLSDAC11572:
	.byte	0xff
	.byte	0xff
	.byte	0x1
	.uleb128 .LLSDACSEC11572-.LLSDACSBC11572
.LLSDACSBC11572:
	.uleb128 .LEHB90-.LCOLDB42
	.uleb128 .LEHE90-.LEHB90
	.uleb128 0
	.uleb128 0
.LLSDACSEC11572:
	.section	.text.unlikely
	.text
	.size	_ZN4asio6detail18completion_handlerIZN8asiodnp311MasterStack16SelectAndOperateEON8opendnp310CommandSetERKSt8functionIFvRKNS4_18ICommandTaskResultEEERKNS4_10TaskConfigEEUlvE_E11do_completeEPNS0_15task_io_serviceEPNS0_25task_io_service_operationERKSt10error_codem, .-_ZN4asio6detail18completion_handlerIZN8asiodnp311MasterStack16SelectAndOperateEON8opendnp310CommandSetERKSt8functionIFvRKNS4_18ICommandTaskResultEEERKNS4_10TaskConfigEEUlvE_E11do_completeEPNS0_15task_io_serviceEPNS0_25task_io_service_operationERKSt10error_codem
	.section	.text.unlikely
	.size	_ZN4asio6detail18completion_handlerIZN8asiodnp311MasterStack16SelectAndOperateEON8opendnp310CommandSetERKSt8functionIFvRKNS4_18ICommandTaskResultEEERKNS4_10TaskConfigEEUlvE_E11do_completeEPNS0_15task_io_serviceEPNS0_25task_io_service_operationERKSt10error_codem.cold, .-_ZN4asio6detail18completion_handlerIZN8asiodnp311MasterStack16SelectAndOperateEON8opendnp310CommandSetERKSt8functionIFvRKNS4_18ICommandTaskResultEEERKNS4_10TaskConfigEEUlvE_E11do_completeEPNS0_15task_io_serviceEPNS0_25task_io_service_operationERKSt10error_codem.cold
.LCOLDE42:
	.text
.LHOTE42:
	.section	.text.unlikely
	.align 2
.LCOLDB48:
	.text
.LHOTB48:
	.align 2
	.p2align 4
	.globl	_ZN8asiodnp311MasterStack16SelectAndOperateEON8opendnp310CommandSetERKSt8functionIFvRKNS1_18ICommandTaskResultEEERKNS1_10TaskConfigE
	.type	_ZN8asiodnp311MasterStack16SelectAndOperateEON8opendnp310CommandSetERKSt8functionIFvRKNS1_18ICommandTaskResultEEERKNS1_10TaskConfigE, @function
_ZN8asiodnp311MasterStack16SelectAndOperateEON8opendnp310CommandSetERKSt8functionIFvRKNS1_18ICommandTaskResultEEERKNS1_10TaskConfigE:
.LFB8567:
	.cfi_startproc
	.cfi_personality 0x9b,DW.ref.__gxx_personality_v0
	.cfi_lsda 0x1b,.LLSDA8567
	pushq	%r15
	.cfi_def_cfa_offset 16
	.cfi_offset 15, -16
	movq	%rsi, %r15
	pushq	%r14
	.cfi_def_cfa_offset 24
	.cfi_offset 14, -24
	movq	%rcx, %r14
	pushq	%r13
	.cfi_def_cfa_offset 32
	.cfi_offset 13, -32
	pushq	%r12
	.cfi_def_cfa_offset 40
	.cfi_offset 12, -40
	movq	%rdx, %r12
	pushq	%rbp
	.cfi_def_cfa_offset 48
	.cfi_offset 6, -48
	pushq	%rbx
	.cfi_def_cfa_offset 56
	.cfi_offset 3, -56
	movq	%rdi, %rbx
	movl	$40, %edi
	subq	$216, %rsp
	.cfi_def_cfa_offset 272
.LEHB91:
	call	_Znwm@PLT
.LEHE91:
	movq	%r15, %rsi
	movq	%rax, %rbp
	movq	.LC43(%rip), %rax
	leaq	16(%rbp), %r13
	movq	%rax, 8(%rbp)
	movq	_ZTVSt23_Sp_counted_ptr_inplaceIN8opendnp310CommandSetESaIvELN9__gnu_cxx12_Lock_policyE2EE@GOTPCREL(%rip), %rax
	movq	%r13, %rdi
	addq	$16, %rax
	movq	%rax, 0(%rbp)
.LEHB92:
	call	_ZN8opendnp310CommandSetC1EOS0_@PLT
.LEHE92:
	movq	48(%rbx), %rax
	movq	%rax, 40(%rsp)
	testq	%rax, %rax
	je	.L1520
	leaq	8(%rax), %rdx
	movl	8(%rax), %eax
.L1522:
	testl	%eax, %eax
	je	.L1520
	leal	1(%rax), %ecx
	lock cmpxchgl	%ecx, (%rdx)
	jne	.L1522
	movq	%r13, 48(%rsp)
	movq	40(%rbx), %rax
	movq	__libc_single_threaded@GOTPCREL(%rip), %r13
	movq	%rbp, 56(%rsp)
	movq	%rax, 32(%rsp)
	cmpb	$0, 0(%r13)
	je	.L1627
	addl	$1, 8(%rbp)
.L1523:
	movdqu	(%r14), %xmm0
	movq	16(%r12), %rax
	movq	$0, 96(%rsp)
	movq	$0, 104(%rsp)
	movaps	%xmm0, 64(%rsp)
	pxor	%xmm0, %xmm0
	movaps	%xmm0, 80(%rsp)
	testq	%rax, %rax
	je	.L1524
	movl	$2, %edx
	movq	%r12, %rsi
	leaq	80(%rsp), %rdi
.LEHB93:
	call	*%rax
.LEHE93:
	movdqu	16(%r12), %xmm0
	movaps	%xmm0, 96(%rsp)
.L1524:
	movdqa	32(%rsp), %xmm0
	movq	88(%rbx), %r12
	movhlps	%xmm0, %xmm1
	movaps	%xmm0, 112(%rsp)
	movq	%xmm1, %rax
	testq	%rax, %rax
	je	.L1526
	cmpb	$0, 0(%r13)
	je	.L1531
	addl	$1, 8(%rax)
.L1526:
	movdqa	48(%rsp), %xmm0
	movhlps	%xmm0, %xmm2
	movaps	%xmm0, 128(%rsp)
	movq	%xmm2, %rax
	testq	%rax, %rax
	je	.L1532
	cmpb	$0, 0(%r13)
	je	.L1533
	addl	$1, 8(%rax)
.L1532:
	movdqa	64(%rsp), %xmm0
	movq	96(%rsp), %rax
	movq	$0, 176(%rsp)
	movq	$0, 184(%rsp)
	movaps	%xmm0, 144(%rsp)
	pxor	%xmm0, %xmm0
	movaps	%xmm0, 160(%rsp)
	testq	%rax, %rax
	je	.L1534
	leaq	80(%rsp), %rsi
	movl	$2, %edx
	leaq	160(%rsp), %rdi
.LEHB94:
	call	*%rax
.LEHE94:
	movdqa	96(%rsp), %xmm0
	movaps	%xmm0, 176(%rsp)
.L1534:
	pxor	%xmm0, %xmm0
	leaq	112(%rsp), %r14
	movq	40(%r12), %r13
	movq	%r14, (%rsp)
	movups	%xmm0, 8(%rsp)
	data16	leaq	_ZN4asio6detail15keyword_tss_ptrINS0_10call_stackINS0_15task_io_serviceENS0_27task_io_service_thread_infoEE7contextEE6value_E@tlsgd(%rip), %rdi
	.value	0x6666
	rex64
	call	__tls_get_addr@PLT
	movq	(%rax), %rax
	testq	%rax, %rax
	je	.L1536
	movq	8(%rax), %rax
	testq	%rax, %rax
	je	.L1536
	movq	(%rax), %rbx
	testq	%rbx, %rbx
	je	.L1536
	movq	$0, (%rax)
	movzbl	(%rbx), %eax
	cmpb	$103, %al
	jbe	.L1542
	movb	%al, 104(%rbx)
	jmp	.L1543
	.p2align 4,,10
	.p2align 3
.L1542:
	movq	%rbx, %rdi
	call	_ZdlPv@PLT
.L1536:
	movl	$105, %edi
.LEHB95:
	call	_Znwm@PLT
.LEHE95:
	movb	$104, 104(%rax)
	movq	%rax, %rbx
.L1543:
	leaq	_ZN4asio6detail18completion_handlerIZN8asiodnp311MasterStack16SelectAndOperateEON8opendnp310CommandSetERKSt8functionIFvRKNS4_18ICommandTaskResultEEERKNS4_10TaskConfigEEUlvE_E11do_completeEPNS0_15task_io_serviceEPNS0_25task_io_service_operationERKSt10error_codem(%rip), %rax
	pxor	%xmm0, %xmm0
	movq	$0, (%rbx)
	movq	%rax, 8(%rbx)
	movq	112(%rsp), %rax
	movl	$0, 16(%rbx)
	movq	%rax, 24(%rbx)
	movq	120(%rsp), %rax
	movaps	%xmm0, 112(%rsp)
	movq	%rax, 32(%rbx)
	movq	128(%rsp), %rax
	movq	%rbx, 8(%rsp)
	movq	%rax, 40(%rbx)
	movq	136(%rsp), %rax
	movaps	%xmm0, 128(%rsp)
	movdqa	144(%rsp), %xmm0
	movq	%rax, 48(%rbx)
	movq	176(%rsp), %rax
	movups	%xmm0, 56(%rbx)
	pxor	%xmm0, %xmm0
	movq	$0, 88(%rbx)
	movq	$0, 96(%rbx)
	movups	%xmm0, 72(%rbx)
	testq	%rax, %rax
	je	.L1544
	leaq	72(%rbx), %r15
	leaq	160(%rsp), %rsi
	movl	$2, %edx
	movq	%r15, %rdi
.LEHB96:
	call	*%rax
.LEHE96:
	movdqa	176(%rsp), %xmm0
	movups	%xmm0, 88(%rbx)
.L1544:
	leaq	48(%r12), %rsi
	xorl	%ecx, %ecx
	movq	%rbx, %rdx
	movq	%r13, %rdi
	call	_ZN4asio6detail14strand_service7do_postERPNS1_11strand_implEPNS0_25task_io_service_operationEb@PLT
	movq	176(%rsp), %rax
	testq	%rax, %rax
	je	.L1546
	leaq	160(%rsp), %rdi
	movl	$3, %edx
	movq	%rdi, %rsi
	call	*%rax
.L1546:
	movq	136(%rsp), %rdi
	testq	%rdi, %rdi
	je	.L1552
	call	_ZNSt16_Sp_counted_baseILN9__gnu_cxx12_Lock_policyE2EE10_M_releaseEv@PLT
.L1552:
	movq	120(%rsp), %rdi
	testq	%rdi, %rdi
	je	.L1553
	call	_ZNSt16_Sp_counted_baseILN9__gnu_cxx12_Lock_policyE2EE10_M_releaseEv@PLT
.L1553:
	movq	96(%rsp), %rax
	testq	%rax, %rax
	je	.L1555
	leaq	80(%rsp), %rdi
	movl	$3, %edx
	movq	%rdi, %rsi
	call	*%rax
.L1555:
	movq	56(%rsp), %rdi
	testq	%rdi, %rdi
	je	.L1556
	call	_ZNSt16_Sp_counted_baseILN9__gnu_cxx12_Lock_policyE2EE10_M_releaseEv@PLT
.L1556:
	movq	40(%rsp), %rdi
	testq	%rdi, %rdi
	je	.L1557
	call	_ZNSt16_Sp_counted_baseILN9__gnu_cxx12_Lock_policyE2EE10_M_releaseEv@PLT
.L1557:
	addq	$216, %rsp
	.cfi_remember_state
	.cfi_def_cfa_offset 56
	movq	%rbp, %rdi
	popq	%rbx
	.cfi_def_cfa_offset 48
	popq	%rbp
	.cfi_def_cfa_offset 40
	popq	%r12
	.cfi_def_cfa_offset 32
	popq	%r13
	.cfi_def_cfa_offset 24
	popq	%r14
	.cfi_def_cfa_offset 16
	popq	%r15
	.cfi_def_cfa_offset 8
.LEHB97:
	jmp	_ZNSt16_Sp_counted_baseILN9__gnu_cxx12_Lock_policyE2EE10_M_releaseEv@PLT
.LEHE97:
	.p2align 4,,10
	.p2align 3
.L1531:
	.cfi_restore_state
	lock addl	$1, 8(%rax)
	jmp	.L1526
	.p2align 4,,10
	.p2align 3
.L1533:
	lock addl	$1, 8(%rax)
	jmp	.L1532
	.p2align 4,,10
	.p2align 3
.L1627:
	lock addl	$1, 8(%rbp)
	jmp	.L1523
.L1566:
	movq	%rax, %r12
	jmp	.L1537
.L1564:
	movq	%rax, %rbx
	jmp	.L1527
.L1563:
	movq	%rax, %rbx
	jmp	.L1519
.L1567:
	movq	%rax, %r12
	jmp	.L1547
.L1565:
	movq	%rax, %rbx
	jmp	.L1551
	.section	.gcc_except_table
.LLSDA8567:
	.byte	0xff
	.byte	0xff
	.byte	0x1
	.uleb128 .LLSDACSE8567-.LLSDACSB8567
.LLSDACSB8567:
	.uleb128 .LEHB91-.LFB8567
	.uleb128 .LEHE91-.LEHB91
	.uleb128 0
	.uleb128 0
	.uleb128 .LEHB92-.LFB8567
	.uleb128 .LEHE92-.LEHB92
	.uleb128 .L1563-.LFB8567
	.uleb128 0
	.uleb128 .LEHB93-.LFB8567
	.uleb128 .LEHE93-.LEHB93
	.uleb128 .L1564-.LFB8567
	.uleb128 0
	.uleb128 .LEHB94-.LFB8567
	.uleb128 .LEHE94-.LEHB94
	.uleb128 .L1566-.LFB8567
	.uleb128 0
	.uleb128 .LEHB95-.LFB8567
	.uleb128 .LEHE95-.LEHB95
	.uleb128 .L1565-.LFB8567
	.uleb128 0
	.uleb128 .LEHB96-.LFB8567
	.uleb128 .LEHE96-.LEHB96
	.uleb128 .L1567-.LFB8567
	.uleb128 0
	.uleb128 .LEHB97-.LFB8567
	.uleb128 .LEHE97-.LEHB97
	.uleb128 0
	.uleb128 0
.LLSDACSE8567:
	.text
	.cfi_endproc
	.section	.text.unlikely
	.cfi_startproc
	.cfi_personality 0x9b,DW.ref.__gxx_personality_v0
	.cfi_lsda 0x1b,.LLSDAC8567
	.type	_ZN8asiodnp311MasterStack16SelectAndOperateEON8opendnp310CommandSetERKSt8functionIFvRKNS1_18ICommandTaskResultEEERKNS1_10TaskConfigE.cold, @function
_ZN8asiodnp311MasterStack16SelectAndOperateEON8opendnp310CommandSetERKSt8functionIFvRKNS1_18ICommandTaskResultEEERKNS1_10TaskConfigE.cold:
.LFSB8567:
.L1537:
	.cfi_def_cfa_offset 272
	.cfi_offset 3, -56
	.cfi_offset 6, -48
	.cfi_offset 12, -40
	.cfi_offset 13, -32
	.cfi_offset 14, -24
	.cfi_offset 15, -16
	movq	176(%rsp), %rax
	testq	%rax, %rax
	je	.L1538
	movl	$3, %edx
	leaq	160(%rsp), %rsi
	leaq	160(%rsp), %rdi
	call	*%rax
.L1538:
	movq	136(%rsp), %rdi
	testq	%rdi, %rdi
	je	.L1539
	call	_ZNSt16_Sp_counted_baseILN9__gnu_cxx12_Lock_policyE2EE10_M_releaseEv@PLT
.L1539:
	movq	120(%rsp), %rdi
	testq	%rdi, %rdi
	je	.L1540
	call	_ZNSt16_Sp_counted_baseILN9__gnu_cxx12_Lock_policyE2EE10_M_releaseEv@PLT
.L1540:
	movq	%r12, %rbx
.L1541:
	leaq	32(%rsp), %rdi
	call	_ZZN8asiodnp311MasterStack16SelectAndOperateEON8opendnp310CommandSetERKSt8functionIFvRKNS1_18ICommandTaskResultEEERKNS1_10TaskConfigEENUlvE_D1Ev
