	.file	"MasterTCPServer.cpp"
	.text
	.section	.rodata._ZNK4asio6detail15system_category4nameEv.str1.1,"aMS",@progbits,1
.LC0:
	.string	"asio.system"
	.section	.text._ZNK4asio6detail15system_category4nameEv,"axG",@progbits,_ZNK4asio6detail15system_category4nameEv,comdat
	.align 2
	.p2align 4
	.weak	_ZNK4asio6detail15system_category4nameEv
	.type	_ZNK4asio6detail15system_category4nameEv, @function
_ZNK4asio6detail15system_category4nameEv:
.LFB2360:
	.cfi_startproc
	leaq	.LC0(%rip), %rax
	ret
	.cfi_endproc
.LFE2360:
	.size	_ZNK4asio6detail15system_category4nameEv, .-_ZNK4asio6detail15system_category4nameEv
	.section	.rodata._ZNK4asio5error6detail14netdb_category4nameEv.str1.1,"aMS",@progbits,1
.LC1:
	.string	"asio.netdb"
	.section	.text._ZNK4asio5error6detail14netdb_category4nameEv,"axG",@progbits,_ZNK4asio5error6detail14netdb_category4nameEv,comdat
	.align 2
	.p2align 4
	.weak	_ZNK4asio5error6detail14netdb_category4nameEv
	.type	_ZNK4asio5error6detail14netdb_category4nameEv, @function
_ZNK4asio5error6detail14netdb_category4nameEv:
.LFB2404:
	.cfi_startproc
	leaq	.LC1(%rip), %rax
	ret
	.cfi_endproc
.LFE2404:
	.size	_ZNK4asio5error6detail14netdb_category4nameEv, .-_ZNK4asio5error6detail14netdb_category4nameEv
	.section	.rodata._ZNK4asio5error6detail17addrinfo_category4nameEv.str1.1,"aMS",@progbits,1
.LC2:
	.string	"asio.addrinfo"
	.section	.text._ZNK4asio5error6detail17addrinfo_category4nameEv,"axG",@progbits,_ZNK4asio5error6detail17addrinfo_category4nameEv,comdat
	.align 2
	.p2align 4
	.weak	_ZNK4asio5error6detail17addrinfo_category4nameEv
	.type	_ZNK4asio5error6detail17addrinfo_category4nameEv, @function
_ZNK4asio5error6detail17addrinfo_category4nameEv:
.LFB2414:
	.cfi_startproc
	leaq	.LC2(%rip), %rax
	ret
	.cfi_endproc
.LFE2414:
	.size	_ZNK4asio5error6detail17addrinfo_category4nameEv, .-_ZNK4asio5error6detail17addrinfo_category4nameEv
	.section	.rodata._ZNK4asio5error6detail13misc_category4nameEv.str1.1,"aMS",@progbits,1
.LC3:
	.string	"asio.misc"
	.section	.text._ZNK4asio5error6detail13misc_category4nameEv,"axG",@progbits,_ZNK4asio5error6detail13misc_category4nameEv,comdat
	.align 2
	.p2align 4
	.weak	_ZNK4asio5error6detail13misc_category4nameEv
	.type	_ZNK4asio5error6detail13misc_category4nameEv, @function
_ZNK4asio5error6detail13misc_category4nameEv:
.LFB2424:
	.cfi_startproc
	leaq	.LC3(%rip), %rax
	ret
	.cfi_endproc
.LFE2424:
	.size	_ZNK4asio5error6detail13misc_category4nameEv, .-_ZNK4asio5error6detail13misc_category4nameEv
	.section	.text._ZNKSt5ctypeIcE8do_widenEc,"axG",@progbits,_ZNKSt5ctypeIcE8do_widenEc,comdat
	.align 2
	.p2align 4
	.weak	_ZNKSt5ctypeIcE8do_widenEc
	.type	_ZNKSt5ctypeIcE8do_widenEc, @function
_ZNKSt5ctypeIcE8do_widenEc:
.LFB4660:
	.cfi_startproc
	movl	%esi, %eax
	ret
	.cfi_endproc
.LFE4660:
	.size	_ZNKSt5ctypeIcE8do_widenEc, .-_ZNKSt5ctypeIcE8do_widenEc
	.section	.text._ZN4asio6detail7tss_ptrINS0_10call_stackINS0_14strand_service11strand_implEhE7contextEED2Ev,"axG",@progbits,_ZN4asio6detail7tss_ptrINS0_10call_stackINS0_14strand_service11strand_implEhE7contextEED5Ev,comdat
	.align 2
	.p2align 4
	.weak	_ZN4asio6detail7tss_ptrINS0_10call_stackINS0_14strand_service11strand_implEhE7contextEED2Ev
	.type	_ZN4asio6detail7tss_ptrINS0_10call_stackINS0_14strand_service11strand_implEhE7contextEED2Ev, @function
_ZN4asio6detail7tss_ptrINS0_10call_stackINS0_14strand_service11strand_implEhE7contextEED2Ev:
.LFB11053:
	.cfi_startproc
	ret
	.cfi_endproc
.LFE11053:
	.size	_ZN4asio6detail7tss_ptrINS0_10call_stackINS0_14strand_service11strand_implEhE7contextEED2Ev, .-_ZN4asio6detail7tss_ptrINS0_10call_stackINS0_14strand_service11strand_implEhE7contextEED2Ev
	.weak	_ZN4asio6detail7tss_ptrINS0_10call_stackINS0_14strand_service11strand_implEhE7contextEED1Ev
	.set	_ZN4asio6detail7tss_ptrINS0_10call_stackINS0_14strand_service11strand_implEhE7contextEED1Ev,_ZN4asio6detail7tss_ptrINS0_10call_stackINS0_14strand_service11strand_implEhE7contextEED2Ev
	.section	.text._ZNSt23_Sp_counted_ptr_inplaceIN7asiopal13SocketChannelESaIvELN9__gnu_cxx12_Lock_policyE2EED2Ev,"axG",@progbits,_ZNSt23_Sp_counted_ptr_inplaceIN7asiopal13SocketChannelESaIvELN9__gnu_cxx12_Lock_policyE2EED5Ev,comdat
	.align 2
	.p2align 4
	.weak	_ZNSt23_Sp_counted_ptr_inplaceIN7asiopal13SocketChannelESaIvELN9__gnu_cxx12_Lock_policyE2EED2Ev
	.type	_ZNSt23_Sp_counted_ptr_inplaceIN7asiopal13SocketChannelESaIvELN9__gnu_cxx12_Lock_policyE2EED2Ev, @function
_ZNSt23_Sp_counted_ptr_inplaceIN7asiopal13SocketChannelESaIvELN9__gnu_cxx12_Lock_policyE2EED2Ev:
.LFB11059:
	.cfi_startproc
	ret
	.cfi_endproc
.LFE11059:
	.size	_ZNSt23_Sp_counted_ptr_inplaceIN7asiopal13SocketChannelESaIvELN9__gnu_cxx12_Lock_policyE2EED2Ev, .-_ZNSt23_Sp_counted_ptr_inplaceIN7asiopal13SocketChannelESaIvELN9__gnu_cxx12_Lock_policyE2EED2Ev
	.weak	_ZNSt23_Sp_counted_ptr_inplaceIN7asiopal13SocketChannelESaIvELN9__gnu_cxx12_Lock_policyE2EED1Ev
	.set	_ZNSt23_Sp_counted_ptr_inplaceIN7asiopal13SocketChannelESaIvELN9__gnu_cxx12_Lock_policyE2EED1Ev,_ZNSt23_Sp_counted_ptr_inplaceIN7asiopal13SocketChannelESaIvELN9__gnu_cxx12_Lock_policyE2EED2Ev
	.section	.text._ZNSt23_Sp_counted_ptr_inplaceIN8asiodnp311LinkSessionESaIvELN9__gnu_cxx12_Lock_policyE2EED2Ev,"axG",@progbits,_ZNSt23_Sp_counted_ptr_inplaceIN8asiodnp311LinkSessionESaIvELN9__gnu_cxx12_Lock_policyE2EED5Ev,comdat
	.align 2
	.p2align 4
	.weak	_ZNSt23_Sp_counted_ptr_inplaceIN8asiodnp311LinkSessionESaIvELN9__gnu_cxx12_Lock_policyE2EED2Ev
	.type	_ZNSt23_Sp_counted_ptr_inplaceIN8asiodnp311LinkSessionESaIvELN9__gnu_cxx12_Lock_policyE2EED2Ev, @function
_ZNSt23_Sp_counted_ptr_inplaceIN8asiodnp311LinkSessionESaIvELN9__gnu_cxx12_Lock_policyE2EED2Ev:
.LFB11066:
	.cfi_startproc
	ret
	.cfi_endproc
.LFE11066:
	.size	_ZNSt23_Sp_counted_ptr_inplaceIN8asiodnp311LinkSessionESaIvELN9__gnu_cxx12_Lock_policyE2EED2Ev, .-_ZNSt23_Sp_counted_ptr_inplaceIN8asiodnp311LinkSessionESaIvELN9__gnu_cxx12_Lock_policyE2EED2Ev
	.weak	_ZNSt23_Sp_counted_ptr_inplaceIN8asiodnp311LinkSessionESaIvELN9__gnu_cxx12_Lock_policyE2EED1Ev
	.set	_ZNSt23_Sp_counted_ptr_inplaceIN8asiodnp311LinkSessionESaIvELN9__gnu_cxx12_Lock_policyE2EED1Ev,_ZNSt23_Sp_counted_ptr_inplaceIN8asiodnp311LinkSessionESaIvELN9__gnu_cxx12_Lock_policyE2EED2Ev
	.section	.text._ZNSt23_Sp_counted_ptr_inplaceIN7asiopal8ExecutorESaIvELN9__gnu_cxx12_Lock_policyE2EED2Ev,"axG",@progbits,_ZNSt23_Sp_counted_ptr_inplaceIN7asiopal8ExecutorESaIvELN9__gnu_cxx12_Lock_policyE2EED5Ev,comdat
	.align 2
	.p2align 4
	.weak	_ZNSt23_Sp_counted_ptr_inplaceIN7asiopal8ExecutorESaIvELN9__gnu_cxx12_Lock_policyE2EED2Ev
	.type	_ZNSt23_Sp_counted_ptr_inplaceIN7asiopal8ExecutorESaIvELN9__gnu_cxx12_Lock_policyE2EED2Ev, @function
_ZNSt23_Sp_counted_ptr_inplaceIN7asiopal8ExecutorESaIvELN9__gnu_cxx12_Lock_policyE2EED2Ev:
.LFB11094:
	.cfi_startproc
	ret
	.cfi_endproc
.LFE11094:
	.size	_ZNSt23_Sp_counted_ptr_inplaceIN7asiopal8ExecutorESaIvELN9__gnu_cxx12_Lock_policyE2EED2Ev, .-_ZNSt23_Sp_counted_ptr_inplaceIN7asiopal8ExecutorESaIvELN9__gnu_cxx12_Lock_policyE2EED2Ev
	.weak	_ZNSt23_Sp_counted_ptr_inplaceIN7asiopal8ExecutorESaIvELN9__gnu_cxx12_Lock_policyE2EED1Ev
	.set	_ZNSt23_Sp_counted_ptr_inplaceIN7asiopal8ExecutorESaIvELN9__gnu_cxx12_Lock_policyE2EED1Ev,_ZNSt23_Sp_counted_ptr_inplaceIN7asiopal8ExecutorESaIvELN9__gnu_cxx12_Lock_policyE2EED2Ev
	.section	.text._ZNSt23_Sp_counted_ptr_inplaceIN7openpal6Logger8SettingsESaIvELN9__gnu_cxx12_Lock_policyE2EED2Ev,"axG",@progbits,_ZNSt23_Sp_counted_ptr_inplaceIN7openpal6Logger8SettingsESaIvELN9__gnu_cxx12_Lock_policyE2EED5Ev,comdat
	.align 2
	.p2align 4
	.weak	_ZNSt23_Sp_counted_ptr_inplaceIN7openpal6Logger8SettingsESaIvELN9__gnu_cxx12_Lock_policyE2EED2Ev
	.type	_ZNSt23_Sp_counted_ptr_inplaceIN7openpal6Logger8SettingsESaIvELN9__gnu_cxx12_Lock_policyE2EED2Ev, @function
_ZNSt23_Sp_counted_ptr_inplaceIN7openpal6Logger8SettingsESaIvELN9__gnu_cxx12_Lock_policyE2EED2Ev:
.LFB11122:
	.cfi_startproc
	ret
	.cfi_endproc
.LFE11122:
	.size	_ZNSt23_Sp_counted_ptr_inplaceIN7openpal6Logger8SettingsESaIvELN9__gnu_cxx12_Lock_policyE2EED2Ev, .-_ZNSt23_Sp_counted_ptr_inplaceIN7openpal6Logger8SettingsESaIvELN9__gnu_cxx12_Lock_policyE2EED2Ev
	.weak	_ZNSt23_Sp_counted_ptr_inplaceIN7openpal6Logger8SettingsESaIvELN9__gnu_cxx12_Lock_policyE2EED1Ev
	.set	_ZNSt23_Sp_counted_ptr_inplaceIN7openpal6Logger8SettingsESaIvELN9__gnu_cxx12_Lock_policyE2EED1Ev,_ZNSt23_Sp_counted_ptr_inplaceIN7openpal6Logger8SettingsESaIvELN9__gnu_cxx12_Lock_policyE2EED2Ev
	.section	.text._ZNSt23_Sp_counted_ptr_inplaceIN7asiopal13SocketChannelESaIvELN9__gnu_cxx12_Lock_policyE2EED0Ev,"axG",@progbits,_ZNSt23_Sp_counted_ptr_inplaceIN7asiopal13SocketChannelESaIvELN9__gnu_cxx12_Lock_policyE2EED5Ev,comdat
	.align 2
	.p2align 4
	.weak	_ZNSt23_Sp_counted_ptr_inplaceIN7asiopal13SocketChannelESaIvELN9__gnu_cxx12_Lock_policyE2EED0Ev
	.type	_ZNSt23_Sp_counted_ptr_inplaceIN7asiopal13SocketChannelESaIvELN9__gnu_cxx12_Lock_policyE2EED0Ev, @function
_ZNSt23_Sp_counted_ptr_inplaceIN7asiopal13SocketChannelESaIvELN9__gnu_cxx12_Lock_policyE2EED0Ev:
.LFB11061:
	.cfi_startproc
	movl	$112, %esi
	jmp	_ZdlPvm@PLT
	.cfi_endproc
.LFE11061:
	.size	_ZNSt23_Sp_counted_ptr_inplaceIN7asiopal13SocketChannelESaIvELN9__gnu_cxx12_Lock_policyE2EED0Ev, .-_ZNSt23_Sp_counted_ptr_inplaceIN7asiopal13SocketChannelESaIvELN9__gnu_cxx12_Lock_policyE2EED0Ev
	.section	.text._ZNSt23_Sp_counted_ptr_inplaceIN8asiodnp311LinkSessionESaIvELN9__gnu_cxx12_Lock_policyE2EED0Ev,"axG",@progbits,_ZNSt23_Sp_counted_ptr_inplaceIN8asiodnp311LinkSessionESaIvELN9__gnu_cxx12_Lock_policyE2EED5Ev,comdat
	.align 2
	.p2align 4
	.weak	_ZNSt23_Sp_counted_ptr_inplaceIN8asiodnp311LinkSessionESaIvELN9__gnu_cxx12_Lock_policyE2EED0Ev
	.type	_ZNSt23_Sp_counted_ptr_inplaceIN8asiodnp311LinkSessionESaIvELN9__gnu_cxx12_Lock_policyE2EED0Ev, @function
_ZNSt23_Sp_counted_ptr_inplaceIN8asiodnp311LinkSessionESaIvELN9__gnu_cxx12_Lock_policyE2EED0Ev:
.LFB11068:
	.cfi_startproc
	movl	$624, %esi
	jmp	_ZdlPvm@PLT
	.cfi_endproc
.LFE11068:
	.size	_ZNSt23_Sp_counted_ptr_inplaceIN8asiodnp311LinkSessionESaIvELN9__gnu_cxx12_Lock_policyE2EED0Ev, .-_ZNSt23_Sp_counted_ptr_inplaceIN8asiodnp311LinkSessionESaIvELN9__gnu_cxx12_Lock_policyE2EED0Ev
	.section	.text._ZNSt23_Sp_counted_ptr_inplaceIN7asiopal8ExecutorESaIvELN9__gnu_cxx12_Lock_policyE2EED0Ev,"axG",@progbits,_ZNSt23_Sp_counted_ptr_inplaceIN7asiopal8ExecutorESaIvELN9__gnu_cxx12_Lock_policyE2EED5Ev,comdat
	.align 2
	.p2align 4
	.weak	_ZNSt23_Sp_counted_ptr_inplaceIN7asiopal8ExecutorESaIvELN9__gnu_cxx12_Lock_policyE2EED0Ev
	.type	_ZNSt23_Sp_counted_ptr_inplaceIN7asiopal8ExecutorESaIvELN9__gnu_cxx12_Lock_policyE2EED0Ev, @function
_ZNSt23_Sp_counted_ptr_inplaceIN7asiopal8ExecutorESaIvELN9__gnu_cxx12_Lock_policyE2EED0Ev:
.LFB11096:
	.cfi_startproc
	movl	$72, %esi
	jmp	_ZdlPvm@PLT
	.cfi_endproc
.LFE11096:
	.size	_ZNSt23_Sp_counted_ptr_inplaceIN7asiopal8ExecutorESaIvELN9__gnu_cxx12_Lock_policyE2EED0Ev, .-_ZNSt23_Sp_counted_ptr_inplaceIN7asiopal8ExecutorESaIvELN9__gnu_cxx12_Lock_policyE2EED0Ev
	.section	.text._ZNSt23_Sp_counted_ptr_inplaceIN7openpal6Logger8SettingsESaIvELN9__gnu_cxx12_Lock_policyE2EED0Ev,"axG",@progbits,_ZNSt23_Sp_counted_ptr_inplaceIN7openpal6Logger8SettingsESaIvELN9__gnu_cxx12_Lock_policyE2EED5Ev,comdat
	.align 2
	.p2align 4
	.weak	_ZNSt23_Sp_counted_ptr_inplaceIN7openpal6Logger8SettingsESaIvELN9__gnu_cxx12_Lock_policyE2EED0Ev
	.type	_ZNSt23_Sp_counted_ptr_inplaceIN7openpal6Logger8SettingsESaIvELN9__gnu_cxx12_Lock_policyE2EED0Ev, @function
_ZNSt23_Sp_counted_ptr_inplaceIN7openpal6Logger8SettingsESaIvELN9__gnu_cxx12_Lock_policyE2EED0Ev:
.LFB11124:
	.cfi_startproc
	movl	$56, %esi
	jmp	_ZdlPvm@PLT
	.cfi_endproc
.LFE11124:
	.size	_ZNSt23_Sp_counted_ptr_inplaceIN7openpal6Logger8SettingsESaIvELN9__gnu_cxx12_Lock_policyE2EED0Ev, .-_ZNSt23_Sp_counted_ptr_inplaceIN7openpal6Logger8SettingsESaIvELN9__gnu_cxx12_Lock_policyE2EED0Ev
	.section	.text._ZNSt23_Sp_counted_ptr_inplaceIN7asiopal13SocketChannelESaIvELN9__gnu_cxx12_Lock_policyE2EE10_M_destroyEv,"axG",@progbits,_ZNSt23_Sp_counted_ptr_inplaceIN7asiopal13SocketChannelESaIvELN9__gnu_cxx12_Lock_policyE2EE10_M_destroyEv,comdat
	.align 2
	.p2align 4
	.weak	_ZNSt23_Sp_counted_ptr_inplaceIN7asiopal13SocketChannelESaIvELN9__gnu_cxx12_Lock_policyE2EE10_M_destroyEv
	.type	_ZNSt23_Sp_counted_ptr_inplaceIN7asiopal13SocketChannelESaIvELN9__gnu_cxx12_Lock_policyE2EE10_M_destroyEv, @function
_ZNSt23_Sp_counted_ptr_inplaceIN7asiopal13SocketChannelESaIvELN9__gnu_cxx12_Lock_policyE2EE10_M_destroyEv:
.LFB11063:
	.cfi_startproc
	movl	$112, %esi
	jmp	_ZdlPvm@PLT
	.cfi_endproc
.LFE11063:
	.size	_ZNSt23_Sp_counted_ptr_inplaceIN7asiopal13SocketChannelESaIvELN9__gnu_cxx12_Lock_policyE2EE10_M_destroyEv, .-_ZNSt23_Sp_counted_ptr_inplaceIN7asiopal13SocketChannelESaIvELN9__gnu_cxx12_Lock_policyE2EE10_M_destroyEv
	.section	.text._ZNSt23_Sp_counted_ptr_inplaceIN8asiodnp311LinkSessionESaIvELN9__gnu_cxx12_Lock_policyE2EE10_M_destroyEv,"axG",@progbits,_ZNSt23_Sp_counted_ptr_inplaceIN8asiodnp311LinkSessionESaIvELN9__gnu_cxx12_Lock_policyE2EE10_M_destroyEv,comdat
	.align 2
	.p2align 4
	.weak	_ZNSt23_Sp_counted_ptr_inplaceIN8asiodnp311LinkSessionESaIvELN9__gnu_cxx12_Lock_policyE2EE10_M_destroyEv
	.type	_ZNSt23_Sp_counted_ptr_inplaceIN8asiodnp311LinkSessionESaIvELN9__gnu_cxx12_Lock_policyE2EE10_M_destroyEv, @function
_ZNSt23_Sp_counted_ptr_inplaceIN8asiodnp311LinkSessionESaIvELN9__gnu_cxx12_Lock_policyE2EE10_M_destroyEv:
.LFB11070:
	.cfi_startproc
	movl	$624, %esi
	jmp	_ZdlPvm@PLT
	.cfi_endproc
.LFE11070:
	.size	_ZNSt23_Sp_counted_ptr_inplaceIN8asiodnp311LinkSessionESaIvELN9__gnu_cxx12_Lock_policyE2EE10_M_destroyEv, .-_ZNSt23_Sp_counted_ptr_inplaceIN8asiodnp311LinkSessionESaIvELN9__gnu_cxx12_Lock_policyE2EE10_M_destroyEv
	.section	.text._ZNSt23_Sp_counted_ptr_inplaceIN7asiopal8ExecutorESaIvELN9__gnu_cxx12_Lock_policyE2EE10_M_destroyEv,"axG",@progbits,_ZNSt23_Sp_counted_ptr_inplaceIN7asiopal8ExecutorESaIvELN9__gnu_cxx12_Lock_policyE2EE10_M_destroyEv,comdat
	.align 2
	.p2align 4
	.weak	_ZNSt23_Sp_counted_ptr_inplaceIN7asiopal8ExecutorESaIvELN9__gnu_cxx12_Lock_policyE2EE10_M_destroyEv
	.type	_ZNSt23_Sp_counted_ptr_inplaceIN7asiopal8ExecutorESaIvELN9__gnu_cxx12_Lock_policyE2EE10_M_destroyEv, @function
_ZNSt23_Sp_counted_ptr_inplaceIN7asiopal8ExecutorESaIvELN9__gnu_cxx12_Lock_policyE2EE10_M_destroyEv:
.LFB11098:
	.cfi_startproc
	movl	$72, %esi
	jmp	_ZdlPvm@PLT
	.cfi_endproc
.LFE11098:
	.size	_ZNSt23_Sp_counted_ptr_inplaceIN7asiopal8ExecutorESaIvELN9__gnu_cxx12_Lock_policyE2EE10_M_destroyEv, .-_ZNSt23_Sp_counted_ptr_inplaceIN7asiopal8ExecutorESaIvELN9__gnu_cxx12_Lock_policyE2EE10_M_destroyEv
	.section	.text._ZNSt23_Sp_counted_ptr_inplaceIN7openpal6Logger8SettingsESaIvELN9__gnu_cxx12_Lock_policyE2EE10_M_destroyEv,"axG",@progbits,_ZNSt23_Sp_counted_ptr_inplaceIN7openpal6Logger8SettingsESaIvELN9__gnu_cxx12_Lock_policyE2EE10_M_destroyEv,comdat
	.align 2
	.p2align 4
	.weak	_ZNSt23_Sp_counted_ptr_inplaceIN7openpal6Logger8SettingsESaIvELN9__gnu_cxx12_Lock_policyE2EE10_M_destroyEv
	.type	_ZNSt23_Sp_counted_ptr_inplaceIN7openpal6Logger8SettingsESaIvELN9__gnu_cxx12_Lock_policyE2EE10_M_destroyEv, @function
_ZNSt23_Sp_counted_ptr_inplaceIN7openpal6Logger8SettingsESaIvELN9__gnu_cxx12_Lock_policyE2EE10_M_destroyEv:
.LFB11126:
	.cfi_startproc
	movl	$56, %esi
	jmp	_ZdlPvm@PLT
	.cfi_endproc
.LFE11126:
	.size	_ZNSt23_Sp_counted_ptr_inplaceIN7openpal6Logger8SettingsESaIvELN9__gnu_cxx12_Lock_policyE2EE10_M_destroyEv, .-_ZNSt23_Sp_counted_ptr_inplaceIN7openpal6Logger8SettingsESaIvELN9__gnu_cxx12_Lock_policyE2EE10_M_destroyEv
	.section	.text._ZN4asio6detail15system_categoryD2Ev,"axG",@progbits,_ZN4asio6detail15system_categoryD5Ev,comdat
	.align 2
	.p2align 4
	.weak	_ZN4asio6detail15system_categoryD2Ev
	.type	_ZN4asio6detail15system_categoryD2Ev, @function
_ZN4asio6detail15system_categoryD2Ev:
.LFB2372:
	.cfi_startproc
	movq	_ZTVN4asio6detail15system_categoryE@GOTPCREL(%rip), %rax
	addq	$16, %rax
	movq	%rax, (%rdi)
	jmp	_ZNSt3_V214error_categoryD2Ev@PLT
	.cfi_endproc
.LFE2372:
	.size	_ZN4asio6detail15system_categoryD2Ev, .-_ZN4asio6detail15system_categoryD2Ev
	.weak	_ZN4asio6detail15system_categoryD1Ev
	.set	_ZN4asio6detail15system_categoryD1Ev,_ZN4asio6detail15system_categoryD2Ev
	.section	.text._ZN4asio6detail15system_categoryD0Ev,"axG",@progbits,_ZN4asio6detail15system_categoryD5Ev,comdat
	.align 2
	.p2align 4
	.weak	_ZN4asio6detail15system_categoryD0Ev
	.type	_ZN4asio6detail15system_categoryD0Ev, @function
_ZN4asio6detail15system_categoryD0Ev:
.LFB2374:
	.cfi_startproc
	subq	$24, %rsp
	.cfi_def_cfa_offset 32
	movq	_ZTVN4asio6detail15system_categoryE@GOTPCREL(%rip), %rax
	movq	%rdi, 8(%rsp)
	addq	$16, %rax
	movq	%rax, (%rdi)
	call	_ZNSt3_V214error_categoryD2Ev@PLT
	movq	8(%rsp), %rdi
	movl	$8, %esi
	addq	$24, %rsp
	.cfi_def_cfa_offset 8
	jmp	_ZdlPvm@PLT
	.cfi_endproc
.LFE2374:
	.size	_ZN4asio6detail15system_categoryD0Ev, .-_ZN4asio6detail15system_categoryD0Ev
	.section	.text._ZN4asio5error6detail14netdb_categoryD2Ev,"axG",@progbits,_ZN4asio5error6detail14netdb_categoryD5Ev,comdat
	.align 2
	.p2align 4
	.weak	_ZN4asio5error6detail14netdb_categoryD2Ev
	.type	_ZN4asio5error6detail14netdb_categoryD2Ev, @function
_ZN4asio5error6detail14netdb_categoryD2Ev:
.LFB2411:
	.cfi_startproc
	movq	_ZTVN4asio5error6detail14netdb_categoryE@GOTPCREL(%rip), %rax
	addq	$16, %rax
	movq	%rax, (%rdi)
	jmp	_ZNSt3_V214error_categoryD2Ev@PLT
	.cfi_endproc
.LFE2411:
	.size	_ZN4asio5error6detail14netdb_categoryD2Ev, .-_ZN4asio5error6detail14netdb_categoryD2Ev
	.weak	_ZN4asio5error6detail14netdb_categoryD1Ev
	.set	_ZN4asio5error6detail14netdb_categoryD1Ev,_ZN4asio5error6detail14netdb_categoryD2Ev
	.section	.text._ZN4asio5error6detail14netdb_categoryD0Ev,"axG",@progbits,_ZN4asio5error6detail14netdb_categoryD5Ev,comdat
	.align 2
	.p2align 4
	.weak	_ZN4asio5error6detail14netdb_categoryD0Ev
	.type	_ZN4asio5error6detail14netdb_categoryD0Ev, @function
_ZN4asio5error6detail14netdb_categoryD0Ev:
.LFB2413:
	.cfi_startproc
	subq	$24, %rsp
	.cfi_def_cfa_offset 32
	movq	_ZTVN4asio5error6detail14netdb_categoryE@GOTPCREL(%rip), %rax
	movq	%rdi, 8(%rsp)
	addq	$16, %rax
	movq	%rax, (%rdi)
	call	_ZNSt3_V214error_categoryD2Ev@PLT
	movq	8(%rsp), %rdi
	movl	$8, %esi
	addq	$24, %rsp
	.cfi_def_cfa_offset 8
	jmp	_ZdlPvm@PLT
	.cfi_endproc
.LFE2413:
	.size	_ZN4asio5error6detail14netdb_categoryD0Ev, .-_ZN4asio5error6detail14netdb_categoryD0Ev
	.section	.text._ZN4asio5error6detail17addrinfo_categoryD2Ev,"axG",@progbits,_ZN4asio5error6detail17addrinfo_categoryD5Ev,comdat
	.align 2
	.p2align 4
	.weak	_ZN4asio5error6detail17addrinfo_categoryD2Ev
	.type	_ZN4asio5error6detail17addrinfo_categoryD2Ev, @function
_ZN4asio5error6detail17addrinfo_categoryD2Ev:
.LFB2421:
	.cfi_startproc
	movq	_ZTVN4asio5error6detail17addrinfo_categoryE@GOTPCREL(%rip), %rax
	addq	$16, %rax
	movq	%rax, (%rdi)
	jmp	_ZNSt3_V214error_categoryD2Ev@PLT
	.cfi_endproc
.LFE2421:
	.size	_ZN4asio5error6detail17addrinfo_categoryD2Ev, .-_ZN4asio5error6detail17addrinfo_categoryD2Ev
	.weak	_ZN4asio5error6detail17addrinfo_categoryD1Ev
	.set	_ZN4asio5error6detail17addrinfo_categoryD1Ev,_ZN4asio5error6detail17addrinfo_categoryD2Ev
	.section	.text._ZN4asio5error6detail17addrinfo_categoryD0Ev,"axG",@progbits,_ZN4asio5error6detail17addrinfo_categoryD5Ev,comdat
	.align 2
	.p2align 4
	.weak	_ZN4asio5error6detail17addrinfo_categoryD0Ev
	.type	_ZN4asio5error6detail17addrinfo_categoryD0Ev, @function
_ZN4asio5error6detail17addrinfo_categoryD0Ev:
.LFB2423:
	.cfi_startproc
	subq	$24, %rsp
	.cfi_def_cfa_offset 32
	movq	_ZTVN4asio5error6detail17addrinfo_categoryE@GOTPCREL(%rip), %rax
	movq	%rdi, 8(%rsp)
	addq	$16, %rax
	movq	%rax, (%rdi)
	call	_ZNSt3_V214error_categoryD2Ev@PLT
	movq	8(%rsp), %rdi
	movl	$8, %esi
	addq	$24, %rsp
	.cfi_def_cfa_offset 8
	jmp	_ZdlPvm@PLT
	.cfi_endproc
.LFE2423:
	.size	_ZN4asio5error6detail17addrinfo_categoryD0Ev, .-_ZN4asio5error6detail17addrinfo_categoryD0Ev
	.section	.text._ZN4asio5error6detail13misc_categoryD2Ev,"axG",@progbits,_ZN4asio5error6detail13misc_categoryD5Ev,comdat
	.align 2
	.p2align 4
	.weak	_ZN4asio5error6detail13misc_categoryD2Ev
	.type	_ZN4asio5error6detail13misc_categoryD2Ev, @function
_ZN4asio5error6detail13misc_categoryD2Ev:
.LFB2431:
	.cfi_startproc
	movq	_ZTVN4asio5error6detail13misc_categoryE@GOTPCREL(%rip), %rax
	addq	$16, %rax
	movq	%rax, (%rdi)
	jmp	_ZNSt3_V214error_categoryD2Ev@PLT
	.cfi_endproc
.LFE2431:
	.size	_ZN4asio5error6detail13misc_categoryD2Ev, .-_ZN4asio5error6detail13misc_categoryD2Ev
	.weak	_ZN4asio5error6detail13misc_categoryD1Ev
	.set	_ZN4asio5error6detail13misc_categoryD1Ev,_ZN4asio5error6detail13misc_categoryD2Ev
	.section	.text._ZN4asio5error6detail13misc_categoryD0Ev,"axG",@progbits,_ZN4asio5error6detail13misc_categoryD5Ev,comdat
	.align 2
	.p2align 4
	.weak	_ZN4asio5error6detail13misc_categoryD0Ev
	.type	_ZN4asio5error6detail13misc_categoryD0Ev, @function
_ZN4asio5error6detail13misc_categoryD0Ev:
.LFB2433:
	.cfi_startproc
	subq	$24, %rsp
	.cfi_def_cfa_offset 32
	movq	_ZTVN4asio5error6detail13misc_categoryE@GOTPCREL(%rip), %rax
	movq	%rdi, 8(%rsp)
	addq	$16, %rax
	movq	%rax, (%rdi)
	call	_ZNSt3_V214error_categoryD2Ev@PLT
	movq	8(%rsp), %rdi
	movl	$8, %esi
	addq	$24, %rsp
	.cfi_def_cfa_offset 8
	jmp	_ZdlPvm@PLT
	.cfi_endproc
.LFE2433:
	.size	_ZN4asio5error6detail13misc_categoryD0Ev, .-_ZN4asio5error6detail13misc_categoryD0Ev
	.section	.text.unlikely,"ax",@progbits
	.type	_ZN4asio6detail15throw_exceptionISt8bad_castEEvRKT_.isra.0, @function
_ZN4asio6detail15throw_exceptionISt8bad_castEEvRKT_.isra.0:
.LFB11256:
	.cfi_startproc
	pushq	%rax
	.cfi_def_cfa_offset 16
	movl	$8, %edi
	call	__cxa_allocate_exception@PLT
	movq	_ZTVSt8bad_cast@GOTPCREL(%rip), %rdx
	movq	_ZTISt8bad_cast@GOTPCREL(%rip), %rsi
	movq	%rax, %rdi
	addq	$16, %rdx
	movq	%rdx, (%rax)
	movq	_ZNSt8bad_castD1Ev@GOTPCREL(%rip), %rdx
	call	__cxa_throw@PLT
	.cfi_endproc
.LFE11256:
	.size	_ZN4asio6detail15throw_exceptionISt8bad_castEEvRKT_.isra.0, .-_ZN4asio6detail15throw_exceptionISt8bad_castEEvRKT_.isra.0
	.section	.text._ZNSt23_Sp_counted_ptr_inplaceIN7asiopal13SocketChannelESaIvELN9__gnu_cxx12_Lock_policyE2EE14_M_get_deleterERKSt9type_info,"axG",@progbits,_ZNSt23_Sp_counted_ptr_inplaceIN7asiopal13SocketChannelESaIvELN9__gnu_cxx12_Lock_policyE2EE14_M_get_deleterERKSt9type_info,comdat
	.align 2
	.p2align 4
	.weak	_ZNSt23_Sp_counted_ptr_inplaceIN7asiopal13SocketChannelESaIvELN9__gnu_cxx12_Lock_policyE2EE14_M_get_deleterERKSt9type_info
	.type	_ZNSt23_Sp_counted_ptr_inplaceIN7asiopal13SocketChannelESaIvELN9__gnu_cxx12_Lock_policyE2EE14_M_get_deleterERKSt9type_info, @function
_ZNSt23_Sp_counted_ptr_inplaceIN7asiopal13SocketChannelESaIvELN9__gnu_cxx12_Lock_policyE2EE14_M_get_deleterERKSt9type_info:
.LFB11064:
	.cfi_startproc
	cmpq	_ZZNSt19_Sp_make_shared_tag5_S_tiEvE5__tag@GOTPCREL(%rip), %rsi
	movq	%rdi, %rcx
	je	.L40
	movq	8(%rsi), %rdi
	movq	_ZTSSt19_Sp_make_shared_tag@GOTPCREL(%rip), %rsi
	cmpq	%rsi, %rdi
	je	.L40
	xorl	%edx, %edx
	cmpb	$42, (%rdi)
	je	.L41
	subq	$24, %rsp
	.cfi_def_cfa_offset 32
	movq	%rdx, (%rsp)
	movq	%rcx, 8(%rsp)
	call	strcmp@PLT
	xorl	%edx, %edx
	movq	8(%rsp), %rcx
	testl	%eax, %eax
	jne	.L34
	leaq	16(%rcx), %rdx
.L34:
	movq	%rdx, %rax
	addq	$24, %rsp
	.cfi_def_cfa_offset 8
	ret
	.p2align 4,,10
	.p2align 3
.L40:
	leaq	16(%rcx), %rdx
.L41:
	movq	%rdx, %rax
	ret
	.cfi_endproc
.LFE11064:
	.size	_ZNSt23_Sp_counted_ptr_inplaceIN7asiopal13SocketChannelESaIvELN9__gnu_cxx12_Lock_policyE2EE14_M_get_deleterERKSt9type_info, .-_ZNSt23_Sp_counted_ptr_inplaceIN7asiopal13SocketChannelESaIvELN9__gnu_cxx12_Lock_policyE2EE14_M_get_deleterERKSt9type_info
	.section	.text._ZNSt23_Sp_counted_ptr_inplaceIN7openpal6Logger8SettingsESaIvELN9__gnu_cxx12_Lock_policyE2EE14_M_get_deleterERKSt9type_info,"axG",@progbits,_ZNSt23_Sp_counted_ptr_inplaceIN7openpal6Logger8SettingsESaIvELN9__gnu_cxx12_Lock_policyE2EE14_M_get_deleterERKSt9type_info,comdat
	.align 2
	.p2align 4
	.weak	_ZNSt23_Sp_counted_ptr_inplaceIN7openpal6Logger8SettingsESaIvELN9__gnu_cxx12_Lock_policyE2EE14_M_get_deleterERKSt9type_info
	.type	_ZNSt23_Sp_counted_ptr_inplaceIN7openpal6Logger8SettingsESaIvELN9__gnu_cxx12_Lock_policyE2EE14_M_get_deleterERKSt9type_info, @function
_ZNSt23_Sp_counted_ptr_inplaceIN7openpal6Logger8SettingsESaIvELN9__gnu_cxx12_Lock_policyE2EE14_M_get_deleterERKSt9type_info:
.LFB11127:
	.cfi_startproc
	cmpq	_ZZNSt19_Sp_make_shared_tag5_S_tiEvE5__tag@GOTPCREL(%rip), %rsi
	movq	%rdi, %rcx
	je	.L50
	movq	8(%rsi), %rdi
	movq	_ZTSSt19_Sp_make_shared_tag@GOTPCREL(%rip), %rsi
	cmpq	%rsi, %rdi
	je	.L50
	xorl	%edx, %edx
	cmpb	$42, (%rdi)
	je	.L51
	subq	$24, %rsp
	.cfi_def_cfa_offset 32
	movq	%rdx, (%rsp)
	movq	%rcx, 8(%rsp)
	call	strcmp@PLT
	xorl	%edx, %edx
	movq	8(%rsp), %rcx
	testl	%eax, %eax
	jne	.L44
	leaq	16(%rcx), %rdx
.L44:
	movq	%rdx, %rax
	addq	$24, %rsp
	.cfi_def_cfa_offset 8
	ret
	.p2align 4,,10
	.p2align 3
.L50:
	leaq	16(%rcx), %rdx
.L51:
	movq	%rdx, %rax
	ret
	.cfi_endproc
.LFE11127:
	.size	_ZNSt23_Sp_counted_ptr_inplaceIN7openpal6Logger8SettingsESaIvELN9__gnu_cxx12_Lock_policyE2EE14_M_get_deleterERKSt9type_info, .-_ZNSt23_Sp_counted_ptr_inplaceIN7openpal6Logger8SettingsESaIvELN9__gnu_cxx12_Lock_policyE2EE14_M_get_deleterERKSt9type_info
	.section	.text._ZNSt23_Sp_counted_ptr_inplaceIN7asiopal8ExecutorESaIvELN9__gnu_cxx12_Lock_policyE2EE14_M_get_deleterERKSt9type_info,"axG",@progbits,_ZNSt23_Sp_counted_ptr_inplaceIN7asiopal8ExecutorESaIvELN9__gnu_cxx12_Lock_policyE2EE14_M_get_deleterERKSt9type_info,comdat
	.align 2
	.p2align 4
	.weak	_ZNSt23_Sp_counted_ptr_inplaceIN7asiopal8ExecutorESaIvELN9__gnu_cxx12_Lock_policyE2EE14_M_get_deleterERKSt9type_info
	.type	_ZNSt23_Sp_counted_ptr_inplaceIN7asiopal8ExecutorESaIvELN9__gnu_cxx12_Lock_policyE2EE14_M_get_deleterERKSt9type_info, @function
_ZNSt23_Sp_counted_ptr_inplaceIN7asiopal8ExecutorESaIvELN9__gnu_cxx12_Lock_policyE2EE14_M_get_deleterERKSt9type_info:
.LFB11099:
	.cfi_startproc
	cmpq	_ZZNSt19_Sp_make_shared_tag5_S_tiEvE5__tag@GOTPCREL(%rip), %rsi
	movq	%rdi, %rcx
	je	.L60
	movq	8(%rsi), %rdi
	movq	_ZTSSt19_Sp_make_shared_tag@GOTPCREL(%rip), %rsi
	cmpq	%rsi, %rdi
	je	.L60
	xorl	%edx, %edx
	cmpb	$42, (%rdi)
	je	.L61
	subq	$24, %rsp
	.cfi_def_cfa_offset 32
	movq	%rdx, (%rsp)
	movq	%rcx, 8(%rsp)
	call	strcmp@PLT
	xorl	%edx, %edx
	movq	8(%rsp), %rcx
	testl	%eax, %eax
	jne	.L54
	leaq	16(%rcx), %rdx
.L54:
	movq	%rdx, %rax
	addq	$24, %rsp
	.cfi_def_cfa_offset 8
	ret
	.p2align 4,,10
	.p2align 3
.L60:
	leaq	16(%rcx), %rdx
.L61:
	movq	%rdx, %rax
	ret
	.cfi_endproc
.LFE11099:
	.size	_ZNSt23_Sp_counted_ptr_inplaceIN7asiopal8ExecutorESaIvELN9__gnu_cxx12_Lock_policyE2EE14_M_get_deleterERKSt9type_info, .-_ZNSt23_Sp_counted_ptr_inplaceIN7asiopal8ExecutorESaIvELN9__gnu_cxx12_Lock_policyE2EE14_M_get_deleterERKSt9type_info
	.section	.text._ZNSt23_Sp_counted_ptr_inplaceIN8asiodnp311LinkSessionESaIvELN9__gnu_cxx12_Lock_policyE2EE14_M_get_deleterERKSt9type_info,"axG",@progbits,_ZNSt23_Sp_counted_ptr_inplaceIN8asiodnp311LinkSessionESaIvELN9__gnu_cxx12_Lock_policyE2EE14_M_get_deleterERKSt9type_info,comdat
	.align 2
	.p2align 4
	.weak	_ZNSt23_Sp_counted_ptr_inplaceIN8asiodnp311LinkSessionESaIvELN9__gnu_cxx12_Lock_policyE2EE14_M_get_deleterERKSt9type_info
	.type	_ZNSt23_Sp_counted_ptr_inplaceIN8asiodnp311LinkSessionESaIvELN9__gnu_cxx12_Lock_policyE2EE14_M_get_deleterERKSt9type_info, @function
_ZNSt23_Sp_counted_ptr_inplaceIN8asiodnp311LinkSessionESaIvELN9__gnu_cxx12_Lock_policyE2EE14_M_get_deleterERKSt9type_info:
.LFB11071:
	.cfi_startproc
	cmpq	_ZZNSt19_Sp_make_shared_tag5_S_tiEvE5__tag@GOTPCREL(%rip), %rsi
	movq	%rdi, %rcx
	je	.L70
	movq	8(%rsi), %rdi
	movq	_ZTSSt19_Sp_make_shared_tag@GOTPCREL(%rip), %rsi
	cmpq	%rsi, %rdi
	je	.L70
	xorl	%edx, %edx
	cmpb	$42, (%rdi)
	je	.L71
	subq	$24, %rsp
	.cfi_def_cfa_offset 32
	movq	%rdx, (%rsp)
	movq	%rcx, 8(%rsp)
	call	strcmp@PLT
	xorl	%edx, %edx
	movq	8(%rsp), %rcx
	testl	%eax, %eax
	jne	.L64
	leaq	16(%rcx), %rdx
.L64:
	movq	%rdx, %rax
	addq	$24, %rsp
	.cfi_def_cfa_offset 8
	ret
	.p2align 4,,10
	.p2align 3
.L70:
	leaq	16(%rcx), %rdx
.L71:
	movq	%rdx, %rax
	ret
	.cfi_endproc
.LFE11071:
	.size	_ZNSt23_Sp_counted_ptr_inplaceIN8asiodnp311LinkSessionESaIvELN9__gnu_cxx12_Lock_policyE2EE14_M_get_deleterERKSt9type_info, .-_ZNSt23_Sp_counted_ptr_inplaceIN8asiodnp311LinkSessionESaIvELN9__gnu_cxx12_Lock_policyE2EE14_M_get_deleterERKSt9type_info
	.section	.text._ZNSt23_Sp_counted_ptr_inplaceIN7openpal6Logger8SettingsESaIvELN9__gnu_cxx12_Lock_policyE2EE10_M_disposeEv,"axG",@progbits,_ZNSt23_Sp_counted_ptr_inplaceIN7openpal6Logger8SettingsESaIvELN9__gnu_cxx12_Lock_policyE2EE10_M_disposeEv,comdat
	.align 2
	.p2align 4
	.weak	_ZNSt23_Sp_counted_ptr_inplaceIN7openpal6Logger8SettingsESaIvELN9__gnu_cxx12_Lock_policyE2EE10_M_disposeEv
	.type	_ZNSt23_Sp_counted_ptr_inplaceIN7openpal6Logger8SettingsESaIvELN9__gnu_cxx12_Lock_policyE2EE10_M_disposeEv, @function
_ZNSt23_Sp_counted_ptr_inplaceIN7openpal6Logger8SettingsESaIvELN9__gnu_cxx12_Lock_policyE2EE10_M_disposeEv:
.LFB11125:
	.cfi_startproc
	movq	16(%rdi), %rax
	leaq	32(%rdi), %rdx
	cmpq	%rdx, %rax
	je	.L74
	movq	32(%rdi), %rsi
	movq	%rax, %rdi
	addq	$1, %rsi
	jmp	_ZdlPvm@PLT
	.p2align 4,,10
	.p2align 3
.L74:
	ret
	.cfi_endproc
.LFE11125:
	.size	_ZNSt23_Sp_counted_ptr_inplaceIN7openpal6Logger8SettingsESaIvELN9__gnu_cxx12_Lock_policyE2EE10_M_disposeEv, .-_ZNSt23_Sp_counted_ptr_inplaceIN7openpal6Logger8SettingsESaIvELN9__gnu_cxx12_Lock_policyE2EE10_M_disposeEv
	.section	.rodata._ZNK4asio6detail15system_category7messageB5cxx11Ei.str1.8,"aMS",@progbits,1
	.align 8
.LC4:
	.string	"basic_string: construction from null is not valid"
	.section	.text._ZNK4asio6detail15system_category7messageB5cxx11Ei,"axG",@progbits,_ZNK4asio6detail15system_category7messageB5cxx11Ei,comdat
	.align 2
	.p2align 4
	.weak	_ZNK4asio6detail15system_category7messageB5cxx11Ei
	.type	_ZNK4asio6detail15system_category7messageB5cxx11Ei, @function
_ZNK4asio6detail15system_category7messageB5cxx11Ei:
.LFB2361:
	.cfi_startproc
	pushq	%r12
	.cfi_def_cfa_offset 16
	.cfi_offset 12, -16
	pushq	%rbp
	.cfi_def_cfa_offset 24
	.cfi_offset 6, -24
	pushq	%rbx
	.cfi_def_cfa_offset 32
	.cfi_offset 3, -32
	movq	%rdi, %rbx
	subq	$288, %rsp
	.cfi_def_cfa_offset 320
	cmpl	$125, %edx
	je	.L88
	pxor	%xmm0, %xmm0
	leaq	32(%rsp), %rsi
	leaq	16(%rbx), %rbp
	movl	%edx, %edi
	movl	$256, %edx
	movaps	%xmm0, 32(%rsp)
	movaps	%xmm0, 48(%rsp)
	movaps	%xmm0, 64(%rsp)
	movaps	%xmm0, 80(%rsp)
	movaps	%xmm0, 96(%rsp)
	movaps	%xmm0, 112(%rsp)
	movaps	%xmm0, 128(%rsp)
	movaps	%xmm0, 144(%rsp)
	movaps	%xmm0, 160(%rsp)
	movaps	%xmm0, 176(%rsp)
	movaps	%xmm0, 192(%rsp)
	movaps	%xmm0, 208(%rsp)
	movaps	%xmm0, 224(%rsp)
	movaps	%xmm0, 240(%rsp)
	movaps	%xmm0, 256(%rsp)
	movaps	%xmm0, 272(%rsp)
	call	strerror_r@PLT
	movq	%rbp, (%rbx)
	movq	%rax, %r12
	testq	%rax, %rax
	je	.L89
	movq	%rax, %rdi
	call	strlen@PLT
	movq	%rax, 24(%rsp)
	movq	%rax, %rcx
	cmpq	$15, %rax
	ja	.L90
	cmpq	$1, %rax
	jne	.L82
	movzbl	(%r12), %edx
	movb	%dl, 16(%rbx)
.L83:
	movq	%rax, 8(%rbx)
	movb	$0, 0(%rbp,%rax)
	addq	$288, %rsp
	.cfi_remember_state
	.cfi_def_cfa_offset 32
	movq	%rbx, %rax
	popq	%rbx
	.cfi_def_cfa_offset 24
	popq	%rbp
	.cfi_def_cfa_offset 16
	popq	%r12
	.cfi_def_cfa_offset 8
	ret
	.p2align 4,,10
	.p2align 3
.L90:
	.cfi_restore_state
	leaq	24(%rsp), %rsi
	xorl	%edx, %edx
	movq	%rbx, %rdi
	movq	%rax, 8(%rsp)
	call	_ZNSt7__cxx1112basic_stringIcSt11char_traitsIcESaIcEE9_M_createERmm@PLT
	movq	8(%rsp), %rcx
	movq	%rax, (%rbx)
	movq	%rax, %rbp
	movq	24(%rsp), %rax
	movq	%rax, 16(%rbx)
.L81:
	movq	%rbp, %rdi
	movq	%rcx, %rdx
	movq	%r12, %rsi
	call	memcpy@PLT
	movq	24(%rsp), %rax
	movq	(%rbx), %rbp
	jmp	.L83
	.p2align 4,,10
	.p2align 3
.L88:
	leaq	16(%rdi), %rax
	leaq	32(%rsp), %rsi
	xorl	%edx, %edx
	movq	$18, 32(%rsp)
	movq	%rax, (%rdi)
	call	_ZNSt7__cxx1112basic_stringIcSt11char_traitsIcESaIcEE9_M_createERmm@PLT
	movq	32(%rsp), %rdx
	movdqa	.LC5(%rip), %xmm0
	movq	%rax, (%rbx)
	movq	%rdx, 16(%rbx)
	movl	$11876, %edx
	movw	%dx, 16(%rax)
	movups	%xmm0, (%rax)
	movq	32(%rsp), %rax
	movq	(%rbx), %rdx
	movq	%rax, 8(%rbx)
	movb	$0, (%rdx,%rax)
	addq	$288, %rsp
	.cfi_remember_state
	.cfi_def_cfa_offset 32
	movq	%rbx, %rax
	popq	%rbx
	.cfi_def_cfa_offset 24
	popq	%rbp
	.cfi_def_cfa_offset 16
	popq	%r12
	.cfi_def_cfa_offset 8
	ret
	.p2align 4,,10
	.p2align 3
.L82:
	.cfi_restore_state
	testq	%rax, %rax
	je	.L83
	jmp	.L81
.L89:
	leaq	.LC4(%rip), %rdi
	call	_ZSt19__throw_logic_errorPKc@PLT
	.cfi_endproc
.LFE2361:
	.size	_ZNK4asio6detail15system_category7messageB5cxx11Ei, .-_ZNK4asio6detail15system_category7messageB5cxx11Ei
	.section	.text._ZNK4asio5error6detail17addrinfo_category7messageB5cxx11Ei,"axG",@progbits,_ZNK4asio5error6detail17addrinfo_category7messageB5cxx11Ei,comdat
	.align 2
	.p2align 4
	.weak	_ZNK4asio5error6detail17addrinfo_category7messageB5cxx11Ei
	.type	_ZNK4asio5error6detail17addrinfo_category7messageB5cxx11Ei, @function
_ZNK4asio5error6detail17addrinfo_category7messageB5cxx11Ei:
.LFB2415:
	.cfi_startproc
	pushq	%rbx
	.cfi_def_cfa_offset 16
	.cfi_offset 3, -16
	leaq	16(%rdi), %rax
	movq	%rdi, %rbx
	subq	$16, %rsp
	.cfi_def_cfa_offset 32
	movq	%rax, (%rdi)
	cmpl	$-8, %edx
	je	.L96
	cmpl	$-7, %edx
	je	.L97
	movq	$19, 8(%rsp)
	leaq	8(%rsp), %rsi
	xorl	%edx, %edx
	call	_ZNSt7__cxx1112basic_stringIcSt11char_traitsIcESaIcEE9_M_createERmm@PLT
	movq	8(%rsp), %rdx
	movdqa	.LC10(%rip), %xmm0
	movq	%rax, (%rbx)
	movq	%rdx, 16(%rbx)
	movups	%xmm0, (%rax)
	movl	$1919906418, 15(%rax)
	movq	8(%rsp), %rax
	movq	(%rbx), %rdx
	movq	%rax, 8(%rbx)
	movb	$0, (%rdx,%rax)
	addq	$16, %rsp
	.cfi_remember_state
	.cfi_def_cfa_offset 16
	movq	%rbx, %rax
	popq	%rbx
	.cfi_def_cfa_offset 8
	ret
	.p2align 4,,10
	.p2align 3
.L97:
	.cfi_restore_state
	movq	$25, 8(%rsp)
	leaq	8(%rsp), %rsi
	xorl	%edx, %edx
	call	_ZNSt7__cxx1112basic_stringIcSt11char_traitsIcESaIcEE9_M_createERmm@PLT
	movq	8(%rsp), %rdx
	movdqa	.LC8(%rip), %xmm0
	movq	%rax, (%rbx)
	movq	%rdx, 16(%rbx)
	movups	%xmm0, (%rax)
	movdqa	.LC9(%rip), %xmm0
	movups	%xmm0, 9(%rax)
	movq	8(%rsp), %rax
	movq	(%rbx), %rdx
	movq	%rax, 8(%rbx)
	movb	$0, (%rdx,%rax)
	addq	$16, %rsp
	.cfi_remember_state
	.cfi_def_cfa_offset 16
	movq	%rbx, %rax
	popq	%rbx
	.cfi_def_cfa_offset 8
	ret
	.p2align 4,,10
	.p2align 3
.L96:
	.cfi_restore_state
	movq	$17, 8(%rsp)
	leaq	8(%rsp), %rsi
	xorl	%edx, %edx
	call	_ZNSt7__cxx1112basic_stringIcSt11char_traitsIcESaIcEE9_M_createERmm@PLT
	movq	8(%rsp), %rdx
	movdqa	.LC7(%rip), %xmm0
	movq	%rax, (%rbx)
	movq	%rdx, 16(%rbx)
	movb	$100, 16(%rax)
	movups	%xmm0, (%rax)
	movq	8(%rsp), %rax
	movq	(%rbx), %rdx
	movq	%rax, 8(%rbx)
	movb	$0, (%rdx,%rax)
	addq	$16, %rsp
	.cfi_def_cfa_offset 16
	movq	%rbx, %rax
	popq	%rbx
	.cfi_def_cfa_offset 8
	ret
	.cfi_endproc
.LFE2415:
	.size	_ZNK4asio5error6detail17addrinfo_category7messageB5cxx11Ei, .-_ZNK4asio5error6detail17addrinfo_category7messageB5cxx11Ei
	.section	.text._ZNK4asio5error6detail13misc_category7messageB5cxx11Ei,"axG",@progbits,_ZNK4asio5error6detail13misc_category7messageB5cxx11Ei,comdat
	.align 2
	.p2align 4
	.weak	_ZNK4asio5error6detail13misc_category7messageB5cxx11Ei
	.type	_ZNK4asio5error6detail13misc_category7messageB5cxx11Ei, @function
_ZNK4asio5error6detail13misc_category7messageB5cxx11Ei:
.LFB2425:
	.cfi_startproc
	cmpl	$1, %edx
	je	.L107
	cmpl	$2, %edx
	je	.L108
	leaq	16(%rdi), %rax
	subq	$40, %rsp
	.cfi_def_cfa_offset 48
	movq	%rax, (%rdi)
	cmpl	$3, %edx
	je	.L109
	cmpl	$4, %edx
	je	.L110
	movabsq	$8316298233121436513, %rcx
	movq	$15, 8(%rdi)
	movq	%rdi, %rax
	movq	%rcx, 16(%rdi)
	movabsq	$8245935278387127155, %rcx
	movq	%rcx, 23(%rdi)
	movb	$0, 31(%rdi)
	addq	$40, %rsp
	.cfi_def_cfa_offset 8
	ret
	.p2align 4,,10
	.p2align 3
.L107:
	leaq	16(%rdi), %rax
	movl	$1852141679, 24(%rdi)
	movabsq	$2340011850872286273, %rsi
	movq	%rax, (%rdi)
	movq	%rdi, %rax
	movq	%rsi, 16(%rdi)
	movq	$12, 8(%rdi)
	movb	$0, 28(%rdi)
	ret
	.p2align 4,,10
	.p2align 3
.L110:
	.cfi_def_cfa_offset 48
	leaq	24(%rsp), %rsi
	xorl	%edx, %edx
	movq	%rdi, 8(%rsp)
	movq	$57, 24(%rsp)
	call	_ZNSt7__cxx1112basic_stringIcSt11char_traitsIcESaIcEE9_M_createERmm@PLT
	movq	24(%rsp), %rdx
	movq	8(%rsp), %rdi
	movdqa	.LC12(%rip), %xmm0
	movq	%rax, (%rdi)
	movq	%rdx, 16(%rdi)
	movups	%xmm0, (%rax)
	movdqa	.LC13(%rip), %xmm0
	movups	%xmm0, 16(%rax)
	movdqa	.LC14(%rip), %xmm0
	movups	%xmm0, 32(%rax)
	movdqa	.LC15(%rip), %xmm0
	movups	%xmm0, 41(%rax)
	movq	24(%rsp), %rax
	movq	(%rdi), %rdx
	movq	%rax, 8(%rdi)
	movb	$0, (%rdx,%rax)
	movq	%rdi, %rax
	addq	$40, %rsp
	.cfi_def_cfa_offset 8
	ret
	.p2align 4,,10
	.p2align 3
.L108:
	leaq	16(%rdi), %rax
	movq	$11, 8(%rdi)
	movabsq	$7358994418594246213, %rsi
	movq	%rax, (%rdi)
	movq	%rdi, %rax
	movq	%rsi, 16(%rdi)
	movb	$0, 27(%rdi)
	movl	$1701603686, 23(%rdi)
	ret
	.p2align 4,,10
	.p2align 3
.L109:
	.cfi_def_cfa_offset 48
	leaq	24(%rsp), %rsi
	xorl	%edx, %edx
	movq	%rdi, 8(%rsp)
	movq	$17, 24(%rsp)
	call	_ZNSt7__cxx1112basic_stringIcSt11char_traitsIcESaIcEE9_M_createERmm@PLT
	movq	8(%rsp), %rdi
	movq	24(%rsp), %rdx
	movdqa	.LC11(%rip), %xmm0
	movq	%rax, (%rdi)
	movq	%rdx, 16(%rdi)
	movb	$100, 16(%rax)
	movups	%xmm0, (%rax)
	movq	24(%rsp), %rax
	movq	(%rdi), %rdx
	movq	%rax, 8(%rdi)
	movb	$0, (%rdx,%rax)
	movq	%rdi, %rax
	addq	$40, %rsp
	.cfi_def_cfa_offset 8
	ret
	.cfi_endproc
.LFE2425:
	.size	_ZNK4asio5error6detail13misc_category7messageB5cxx11Ei, .-_ZNK4asio5error6detail13misc_category7messageB5cxx11Ei
	.section	.text._ZNK4asio5error6detail14netdb_category7messageB5cxx11Ei,"axG",@progbits,_ZNK4asio5error6detail14netdb_category7messageB5cxx11Ei,comdat
	.align 2
	.p2align 4
	.weak	_ZNK4asio5error6detail14netdb_category7messageB5cxx11Ei
	.type	_ZNK4asio5error6detail14netdb_category7messageB5cxx11Ei, @function
_ZNK4asio5error6detail14netdb_category7messageB5cxx11Ei:
.LFB2405:
	.cfi_startproc
	pushq	%rbx
	.cfi_def_cfa_offset 16
	.cfi_offset 3, -16
	leaq	16(%rdi), %rax
	movq	%rdi, %rbx
	subq	$16, %rsp
	.cfi_def_cfa_offset 32
	movq	%rax, (%rdi)
	cmpl	$1, %edx
	je	.L118
	cmpl	$2, %edx
	je	.L119
	cmpl	$4, %edx
	je	.L120
	cmpl	$3, %edx
	je	.L121
	movq	$16, 8(%rsp)
	leaq	8(%rsp), %rsi
	xorl	%edx, %edx
	call	_ZNSt7__cxx1112basic_stringIcSt11char_traitsIcESaIcEE9_M_createERmm@PLT
	movq	8(%rsp), %rdx
	movdqa	.LC26(%rip), %xmm0
	movq	%rax, (%rbx)
	movq	%rdx, 16(%rbx)
	movups	%xmm0, (%rax)
	movq	8(%rsp), %rax
	movq	(%rbx), %rdx
	movq	%rax, 8(%rbx)
	movb	$0, (%rdx,%rax)
	addq	$16, %rsp
	.cfi_remember_state
	.cfi_def_cfa_offset 16
	movq	%rbx, %rax
	popq	%rbx
	.cfi_def_cfa_offset 8
	ret
	.p2align 4,,10
	.p2align 3
.L118:
	.cfi_restore_state
	movq	$30, 8(%rsp)
	leaq	8(%rsp), %rsi
	xorl	%edx, %edx
	call	_ZNSt7__cxx1112basic_stringIcSt11char_traitsIcESaIcEE9_M_createERmm@PLT
	movq	8(%rsp), %rdx
	movdqa	.LC16(%rip), %xmm0
	movq	%rax, (%rbx)
	movq	%rdx, 16(%rbx)
	movups	%xmm0, (%rax)
	movdqa	.LC17(%rip), %xmm0
	movups	%xmm0, 14(%rax)
	movq	8(%rsp), %rax
	movq	(%rbx), %rdx
	movq	%rax, 8(%rbx)
	movb	$0, (%rdx,%rax)
	addq	$16, %rsp
	.cfi_remember_state
	.cfi_def_cfa_offset 16
	movq	%rbx, %rax
	popq	%rbx
	.cfi_def_cfa_offset 8
	ret
	.p2align 4,,10
	.p2align 3
.L121:
	.cfi_restore_state
	movq	$55, 8(%rsp)
	leaq	8(%rsp), %rsi
	xorl	%edx, %edx
	call	_ZNSt7__cxx1112basic_stringIcSt11char_traitsIcESaIcEE9_M_createERmm@PLT
	movq	8(%rsp), %rdx
	movdqa	.LC23(%rip), %xmm0
	movabsq	$8103501230877974629, %rcx
	movq	%rax, (%rbx)
	movq	%rdx, 16(%rbx)
	movups	%xmm0, (%rax)
	movdqa	.LC24(%rip), %xmm0
	movups	%xmm0, 16(%rax)
	movdqa	.LC25(%rip), %xmm0
	movups	%xmm0, 32(%rax)
	movq	%rcx, 47(%rax)
	movq	8(%rsp), %rax
	movq	(%rbx), %rdx
	movq	%rax, 8(%rbx)
	movb	$0, (%rdx,%rax)
	addq	$16, %rsp
	.cfi_remember_state
	.cfi_def_cfa_offset 16
	movq	%rbx, %rax
	popq	%rbx
	.cfi_def_cfa_offset 8
	ret
	.p2align 4,,10
	.p2align 3
.L119:
	.cfi_restore_state
	movq	$51, 8(%rsp)
	leaq	8(%rsp), %rsi
	xorl	%edx, %edx
	call	_ZNSt7__cxx1112basic_stringIcSt11char_traitsIcESaIcEE9_M_createERmm@PLT
	movq	8(%rsp), %rdx
	movdqa	.LC16(%rip), %xmm0
	movq	%rax, (%rbx)
	movq	%rdx, 16(%rbx)
	movups	%xmm0, (%rax)
	movdqa	.LC18(%rip), %xmm0
	movups	%xmm0, 16(%rax)
	movdqa	.LC19(%rip), %xmm0
	movups	%xmm0, 32(%rax)
	movl	$1919251553, 47(%rax)
	movq	8(%rsp), %rax
	movq	(%rbx), %rdx
	movq	%rax, 8(%rbx)
	movb	$0, (%rdx,%rax)
	addq	$16, %rsp
	.cfi_remember_state
	.cfi_def_cfa_offset 16
	movq	%rbx, %rax
	popq	%rbx
	.cfi_def_cfa_offset 8
	ret
	.p2align 4,,10
	.p2align 3
.L120:
	.cfi_restore_state
	movq	$56, 8(%rsp)
	leaq	8(%rsp), %rsi
	xorl	%edx, %edx
	call	_ZNSt7__cxx1112basic_stringIcSt11char_traitsIcESaIcEE9_M_createERmm@PLT
	movq	8(%rsp), %rdx
	movdqa	.LC20(%rip), %xmm0
	movabsq	$7022344801645520244, %rcx
	movq	%rax, (%rbx)
	movq	%rdx, 16(%rbx)
	movups	%xmm0, (%rax)
	movdqa	.LC21(%rip), %xmm0
	movq	%rcx, 48(%rax)
	movups	%xmm0, 16(%rax)
	movdqa	.LC22(%rip), %xmm0
	movups	%xmm0, 32(%rax)
	movq	8(%rsp), %rax
	movq	(%rbx), %rdx
	movq	%rax, 8(%rbx)
	movb	$0, (%rdx,%rax)
	addq	$16, %rsp
	.cfi_def_cfa_offset 16
	movq	%rbx, %rax
	popq	%rbx
	.cfi_def_cfa_offset 8
	ret
	.cfi_endproc
.LFE2405:
	.size	_ZNK4asio5error6detail14netdb_category7messageB5cxx11Ei, .-_ZNK4asio5error6detail14netdb_category7messageB5cxx11Ei
	.section	.text.unlikely._ZSt20__throw_bad_weak_ptrv,"axG",@progbits,_ZSt20__throw_bad_weak_ptrv,comdat
	.weak	_ZSt20__throw_bad_weak_ptrv
	.type	_ZSt20__throw_bad_weak_ptrv, @function
_ZSt20__throw_bad_weak_ptrv:
.LFB1162:
	.cfi_startproc
	pushq	%rax
	.cfi_def_cfa_offset 16
	movl	$8, %edi
	call	__cxa_allocate_exception@PLT
	movq	_ZTVSt12bad_weak_ptr@GOTPCREL(%rip), %rdx
	movq	_ZTISt12bad_weak_ptr@GOTPCREL(%rip), %rsi
	movq	%rax, %rdi
	addq	$16, %rdx
	movq	%rdx, (%rax)
	movq	_ZNSt12bad_weak_ptrD1Ev@GOTPCREL(%rip), %rdx
	call	__cxa_throw@PLT
	.cfi_endproc
.LFE1162:
	.size	_ZSt20__throw_bad_weak_ptrv, .-_ZSt20__throw_bad_weak_ptrv
	.section	.text._ZN4asio15system_categoryEv,"axG",@progbits,_ZN4asio15system_categoryEv,comdat
	.p2align 4
	.weak	_ZN4asio15system_categoryEv
	.type	_ZN4asio15system_categoryEv, @function
_ZN4asio15system_categoryEv:
.LFB2364:
	.cfi_startproc
	movq	_ZGVZN4asio15system_categoryEvE8instance@GOTPCREL(%rip), %rax
	movzbl	(%rax), %eax
	testb	%al, %al
	je	.L125
	movq	_ZZN4asio15system_categoryEvE8instance@GOTPCREL(%rip), %rax
	ret
	.p2align 4,,10
	.p2align 3
.L125:
	subq	$24, %rsp
	.cfi_def_cfa_offset 32
	movq	_ZGVZN4asio15system_categoryEvE8instance@GOTPCREL(%rip), %rdi
	call	__cxa_guard_acquire@PLT
	movq	_ZZN4asio15system_categoryEvE8instance@GOTPCREL(%rip), %rcx
	testl	%eax, %eax
	jne	.L130
	movq	%rcx, %rax
	addq	$24, %rsp
	.cfi_remember_state
	.cfi_def_cfa_offset 8
	ret
	.p2align 4,,10
	.p2align 3
.L130:
	.cfi_restore_state
	movq	_ZN4asio6detail15system_categoryD1Ev@GOTPCREL(%rip), %rdi
	movq	%rcx, %rsi
	movq	%rcx, 8(%rsp)
	leaq	__dso_handle(%rip), %rdx
	call	__cxa_atexit@PLT
	movq	_ZGVZN4asio15system_categoryEvE8instance@GOTPCREL(%rip), %rdi
	call	__cxa_guard_release@PLT
	movq	8(%rsp), %rcx
	addq	$24, %rsp
	.cfi_def_cfa_offset 8
	movq	%rcx, %rax
	ret
	.cfi_endproc
.LFE2364:
	.size	_ZN4asio15system_categoryEv, .-_ZN4asio15system_categoryEv
	.section	.text._ZN4asio6detail13epoll_reactor21deregister_descriptorEiRPNS1_16descriptor_stateEb,"axG",@progbits,_ZN4asio6detail13epoll_reactor21deregister_descriptorEiRPNS1_16descriptor_stateEb,comdat
	.align 2
	.p2align 4
	.weak	_ZN4asio6detail13epoll_reactor21deregister_descriptorEiRPNS1_16descriptor_stateEb
	.type	_ZN4asio6detail13epoll_reactor21deregister_descriptorEiRPNS1_16descriptor_stateEb, @function
_ZN4asio6detail13epoll_reactor21deregister_descriptorEiRPNS1_16descriptor_stateEb:
.LFB3317:
	.cfi_startproc
	pushq	%r15
	.cfi_def_cfa_offset 16
	.cfi_offset 15, -16
	pushq	%r14
	.cfi_def_cfa_offset 24
	.cfi_offset 14, -24
	pushq	%r13
	.cfi_def_cfa_offset 32
	.cfi_offset 13, -32
	pushq	%r12
	.cfi_def_cfa_offset 40
	.cfi_offset 12, -40
	pushq	%rbp
	.cfi_def_cfa_offset 48
	.cfi_offset 6, -48
	pushq	%rbx
	.cfi_def_cfa_offset 56
	.cfi_offset 3, -56
	subq	$56, %rsp
	.cfi_def_cfa_offset 112
	movq	(%rdx), %r12
	testq	%r12, %r12
	je	.L134
	leaq	40(%r12), %r15
	movq	%rdi, 16(%rsp)
	movq	%rdx, %rbp
	movl	%ecx, %ebx
	movq	%r15, %rdi
	movq	%r15, 24(%rsp)
	movl	%esi, %r13d
	call	pthread_mutex_lock@PLT
	movq	0(%rbp), %r10
	movq	%r15, %rdi
	cmpb	$0, 144(%r10)
	jne	.L195
	testb	%bl, %bl
	je	.L198
.L137:
	movq	$0, 8(%rsp)
	xorl	%r12d, %r12d
	movl	$0, 4(%rsp)
.L138:
	movslq	4(%rsp), %rax
	salq	$4, %rax
	movq	96(%rax,%r10), %rbx
	testq	%rbx, %rbx
	je	.L193
	movq	_ZGVZN4asio15system_categoryEvE8instance@GOTPCREL(%rip), %r13
	movq	_ZZN4asio15system_categoryEvE8instance@GOTPCREL(%rip), %r14
	movq	%rax, %r15
	jmp	.L150
	.p2align 4,,10
	.p2align 3
.L140:
	movq	0(%rbp), %r10
	movl	$125, 24(%rbx)
	movq	%r14, 32(%rbx)
	leaq	(%r10,%r15), %rdi
	movq	96(%rdi), %rax
	testq	%rax, %rax
	je	.L197
	movq	(%rax), %rdx
	movq	%rdx, 96(%rdi)
	testq	%rdx, %rdx
	je	.L145
	movq	$0, (%rax)
	movq	$0, (%rbx)
	testq	%r12, %r12
	je	.L166
	movq	%rbx, (%r12)
.L146:
	movq	%rbx, %r12
	movq	%rdx, %rbx
.L150:
	movzbl	0(%r13), %eax
	testb	%al, %al
	jne	.L140
	movq	%r13, %rdi
	call	__cxa_guard_acquire@PLT
	testl	%eax, %eax
	je	.L140
	movq	_ZN4asio6detail15system_categoryD1Ev@GOTPCREL(%rip), %rdi
	leaq	__dso_handle(%rip), %rdx
	movq	%r14, %rsi
	call	__cxa_atexit@PLT
	movq	%r13, %rdi
	call	__cxa_guard_release@PLT
	jmp	.L140
.L163:
	cmpb	$0, 176(%rbp)
	je	.L164
.L165:
	movq	%r12, %rdi
.L195:
	addq	$56, %rsp
	.cfi_remember_state
	.cfi_def_cfa_offset 56
	popq	%rbx
	.cfi_def_cfa_offset 48
	popq	%rbp
	.cfi_def_cfa_offset 40
	popq	%r12
	.cfi_def_cfa_offset 32
	popq	%r13
	.cfi_def_cfa_offset 24
	popq	%r14
	.cfi_def_cfa_offset 16
	popq	%r15
	.cfi_def_cfa_offset 8
	jmp	pthread_mutex_unlock@PLT
	.p2align 4,,10
	.p2align 3
.L145:
	.cfi_restore_state
	movq	$0, 104(%rdi)
	movq	$0, (%rax)
.L197:
	movq	$0, (%rbx)
	testq	%r12, %r12
	je	.L199
	movq	%rbx, (%r12)
.L148:
	addl	$1, 4(%rsp)
	cmpl	$3, 4(%rsp)
	je	.L149
.L200:
	movq	%rbx, %r12
	jmp	.L138
	.p2align 4,,10
	.p2align 3
.L166:
	movq	%rbx, 8(%rsp)
	jmp	.L146
	.p2align 4,,10
	.p2align 3
.L199:
	addl	$1, 4(%rsp)
	movq	%rbx, 8(%rsp)
	cmpl	$3, 4(%rsp)
	jne	.L200
.L149:
	movl	$-1, 88(%r10)
	movq	24(%rsp), %rdi
	movb	$1, 144(%r10)
	call	pthread_mutex_unlock@PLT
	movq	16(%rsp), %r14
	movq	0(%rbp), %r12
	leaq	120(%r14), %r13
	movq	%r13, %rdi
	call	pthread_mutex_lock@PLT
	cmpq	160(%r14), %r12
	je	.L201
.L151:
	movq	32(%r12), %rax
	testq	%rax, %rax
	je	.L152
	movq	24(%r12), %rdx
	movq	%rdx, 24(%rax)
.L152:
	movq	24(%r12), %rax
	testq	%rax, %rax
	je	.L153
	movq	32(%r12), %rdx
	movq	%rdx, 32(%rax)
.L153:
	movq	16(%rsp), %r14
	movq	%r13, %rdi
	movq	168(%r14), %rax
	movq	$0, 32(%r12)
	movq	%rax, 24(%r12)
	movq	%r12, 168(%r14)
	call	pthread_mutex_unlock@PLT
	movq	$0, 0(%rbp)
	cmpq	$0, 8(%rsp)
	je	.L134
	movq	40(%r14), %rbp
	cmpb	$0, 40(%rbp)
	je	.L155
	data16	leaq	_ZN4asio6detail15keyword_tss_ptrINS0_10call_stackINS0_15task_io_serviceENS0_27task_io_service_thread_infoEE7contextEE6value_E@tlsgd(%rip), %rdi
	.value	0x6666
	rex64
	call	__tls_get_addr@PLT
	movq	(%rax), %rax
	testq	%rax, %rax
	jne	.L158
	jmp	.L155
	.p2align 4
	.p2align 4,,10
	.p2align 3
.L156:
	movq	16(%rax), %rax
	testq	%rax, %rax
	je	.L155
.L158:
	cmpq	(%rax), %rbp
	jne	.L156
	movq	8(%rax), %rax
	testq	%rax, %rax
	je	.L155
	movq	16(%rax), %rdx
	movq	8(%rsp), %rcx
	testq	%rdx, %rdx
	je	.L159
	movq	%rcx, (%rdx)
.L160:
	movq	%rbx, 16(%rax)
.L134:
	addq	$56, %rsp
	.cfi_remember_state
	.cfi_def_cfa_offset 56
	popq	%rbx
	.cfi_def_cfa_offset 48
	popq	%rbp
	.cfi_def_cfa_offset 40
	popq	%r12
	.cfi_def_cfa_offset 32
	popq	%r13
	.cfi_def_cfa_offset 24
	popq	%r14
	.cfi_def_cfa_offset 16
	popq	%r15
	.cfi_def_cfa_offset 8
	ret
	.p2align 4,,10
	.p2align 3
.L155:
	.cfi_restore_state
	leaq	48(%rbp), %r12
	movq	%r12, %rdi
	call	pthread_mutex_lock@PLT
	movq	200(%rbp), %rax
	testq	%rax, %rax
	je	.L161
	movq	8(%rsp), %rcx
	movq	%rcx, (%rax)
.L162:
	movq	136(%rbp), %rax
	movq	%rbx, 200(%rbp)
	movq	%rax, %rdx
	orq	$1, %rdx
	movq	%rdx, 136(%rbp)
	cmpq	$1, %rax
	jbe	.L163
	movq	%r12, %rdi
	call	pthread_mutex_unlock@PLT
	addq	$56, %rsp
	.cfi_remember_state
	.cfi_def_cfa_offset 56
	leaq	88(%rbp), %rdi
	popq	%rbx
	.cfi_def_cfa_offset 48
	popq	%rbp
	.cfi_def_cfa_offset 40
	popq	%r12
	.cfi_def_cfa_offset 32
	popq	%r13
	.cfi_def_cfa_offset 24
	popq	%r14
	.cfi_def_cfa_offset 16
	popq	%r15
	.cfi_def_cfa_offset 8
	jmp	pthread_cond_signal@PLT
	.p2align 4,,10
	.p2align 3
.L193:
	.cfi_restore_state
	movq	%r12, %rbx
	jmp	.L148
	.p2align 4,,10
	.p2align 3
.L198:
	movq	16(%rsp), %rax
	leaq	36(%rsp), %rcx
	movl	%r13d, %edx
	movl	$2, %esi
	movl	$0, 36(%rsp)
	movq	$0, 40(%rsp)
	movl	96(%rax), %edi
	call	epoll_ctl@PLT
	movq	0(%rbp), %r10
	jmp	.L137
	.p2align 4,,10
	.p2align 3
.L201:
	movq	24(%r12), %rax
	movq	16(%rsp), %rcx
	movq	%rax, 160(%rcx)
	jmp	.L151
.L164:
	movq	144(%rbp), %rax
	testq	%rax, %rax
	je	.L165
	movb	$1, 176(%rbp)
	leaq	88(%rax), %rdx
	leaq	36(%rsp), %rcx
	movl	$3, %esi
	movq	%rdx, 40(%rsp)
	movl	88(%rax), %edx
	movl	$-2147483639, 36(%rsp)
	movl	96(%rax), %edi
	call	epoll_ctl@PLT
	jmp	.L165
.L161:
	movq	8(%rsp), %rax
	movq	%rax, 192(%rbp)
	jmp	.L162
.L159:
	movq	%rcx, 8(%rax)
	jmp	.L160
	.cfi_endproc
.LFE3317:
	.size	_ZN4asio6detail13epoll_reactor21deregister_descriptorEiRPNS1_16descriptor_stateEb, .-_ZN4asio6detail13epoll_reactor21deregister_descriptorEiRPNS1_16descriptor_stateEb
	.section	.text._ZN4asio6detail28reactive_socket_service_base7destroyERNS1_24base_implementation_typeE,"axG",@progbits,_ZN4asio6detail28reactive_socket_service_base7destroyERNS1_24base_implementation_typeE,comdat
	.align 2
	.p2align 4
	.weak	_ZN4asio6detail28reactive_socket_service_base7destroyERNS1_24base_implementation_typeE
	.type	_ZN4asio6detail28reactive_socket_service_base7destroyERNS1_24base_implementation_typeE, @function
_ZN4asio6detail28reactive_socket_service_base7destroyERNS1_24base_implementation_typeE:
.LFB3912:
	.cfi_startproc
	pushq	%r15
	.cfi_def_cfa_offset 16
	.cfi_offset 15, -16
	pushq	%r14
	.cfi_def_cfa_offset 24
	.cfi_offset 14, -24
	pushq	%r13
	.cfi_def_cfa_offset 32
	.cfi_offset 13, -32
	pushq	%r12
	.cfi_def_cfa_offset 40
	.cfi_offset 12, -40
	pushq	%rbp
	.cfi_def_cfa_offset 48
	.cfi_offset 6, -48
	pushq	%rbx
	.cfi_def_cfa_offset 56
	.cfi_offset 3, -56
	subq	$56, %rsp
	.cfi_def_cfa_offset 112
	movl	(%rsi), %ebx
	cmpl	$-1, %ebx
	jne	.L310
.L202:
	addq	$56, %rsp
	.cfi_remember_state
	.cfi_def_cfa_offset 56
	popq	%rbx
	.cfi_def_cfa_offset 48
	popq	%rbp
	.cfi_def_cfa_offset 40
	popq	%r12
	.cfi_def_cfa_offset 32
	popq	%r13
	.cfi_def_cfa_offset 24
	popq	%r14
	.cfi_def_cfa_offset 16
	popq	%r15
	.cfi_def_cfa_offset 8
	ret
	.p2align 4,,10
	.p2align 3
.L310:
	.cfi_restore_state
	movq	8(%rsi), %rax
	movzbl	4(%rsi), %r12d
	movq	%rsi, %rbp
	testq	%rax, %rax
	je	.L205
	movq	(%rdi), %rcx
	leaq	40(%rax), %r14
	movq	%r14, %rdi
	movq	%r14, 24(%rsp)
	movq	%rcx, 16(%rsp)
	call	pthread_mutex_lock@PLT
	movq	8(%rbp), %r9
	cmpb	$0, 144(%r9)
	jne	.L236
	andl	$64, %r12d
	jne	.L311
.L208:
	movq	$0, 8(%rsp)
	xorl	%r15d, %r15d
	movl	$0, 4(%rsp)
.L209:
	movslq	4(%rsp), %rax
	salq	$4, %rax
	movq	96(%rax,%r9), %rbx
	testq	%rbx, %rbx
	je	.L305
	movq	_ZGVZN4asio15system_categoryEvE8instance@GOTPCREL(%rip), %r14
	movq	_ZZN4asio15system_categoryEvE8instance@GOTPCREL(%rip), %r12
	movq	%rax, %r13
	jmp	.L221
	.p2align 4,,10
	.p2align 3
.L211:
	movq	8(%rbp), %r9
	movl	$125, 24(%rbx)
	movq	%r12, 32(%rbx)
	leaq	(%r9,%r13), %rdi
	movq	96(%rdi), %rax
	testq	%rax, %rax
	je	.L309
	movq	(%rax), %rdx
	movq	%rdx, 96(%rdi)
	testq	%rdx, %rdx
	je	.L216
	movq	$0, (%rax)
	movq	$0, (%rbx)
	testq	%r15, %r15
	je	.L252
	movq	%rbx, (%r15)
.L217:
	movq	%rbx, %r15
	movq	%rdx, %rbx
.L221:
	movzbl	(%r14), %eax
	testb	%al, %al
	jne	.L211
	movq	%r14, %rdi
	call	__cxa_guard_acquire@PLT
	testl	%eax, %eax
	je	.L211
	movq	_ZN4asio6detail15system_categoryD1Ev@GOTPCREL(%rip), %rdi
	leaq	__dso_handle(%rip), %rdx
	movq	%r12, %rsi
	call	__cxa_atexit@PLT
	movq	%r14, %rdi
	call	__cxa_guard_release@PLT
	jmp	.L211
	.p2align 4,,10
	.p2align 3
.L226:
	leaq	48(%r12), %r14
	movq	%r14, %rdi
	call	pthread_mutex_lock@PLT
	movq	200(%r12), %rax
	testq	%rax, %rax
	je	.L232
	movq	8(%rsp), %rcx
	movq	%rcx, (%rax)
.L233:
	movq	136(%r12), %rax
	movq	%rbx, 200(%r12)
	movq	%rax, %rdx
	orq	$1, %rdx
	movq	%rdx, 136(%r12)
	cmpq	$1, %rax
	ja	.L312
	cmpb	$0, 176(%r12)
	jne	.L236
	movq	144(%r12), %rax
	testq	%rax, %rax
	je	.L236
	leaq	88(%rax), %rdx
	leaq	32(%rsp), %rcx
	movl	$3, %esi
	movb	$1, 176(%r12)
	movq	%rdx, 36(%rsp)
	movl	88(%rax), %edx
	movl	$-2147483639, 32(%rsp)
	movl	96(%rax), %edi
	call	epoll_ctl@PLT
	.p2align 4
	.p2align 3
.L236:
	movq	%r14, %rdi
	call	pthread_mutex_unlock@PLT
.L207:
	movl	0(%rbp), %ebx
	cmpl	$-1, %ebx
	je	.L202
	movzbl	4(%rbp), %r12d
.L205:
	call	__errno_location@PLT
	movq	%rax, %r13
	testb	$8, %r12b
	jne	.L306
	movq	_ZGVZN4asio15system_categoryEvE8instance@GOTPCREL(%rip), %r14
.L238:
	movl	$0, 0(%r13)
	movl	%ebx, %edi
	call	close@PLT
	movl	%eax, %r12d
	movzbl	(%r14), %eax
	testb	%al, %al
	je	.L313
.L243:
	testl	%r12d, %r12d
	je	.L202
	movl	0(%r13), %r12d
	movzbl	(%r14), %eax
	testb	%al, %al
	je	.L314
.L246:
	cmpl	$11, %r12d
	je	.L248
	movzbl	(%r14), %eax
	testb	%al, %al
	jne	.L202
	movq	%r14, %rdi
	call	__cxa_guard_acquire@PLT
	testl	%eax, %eax
	je	.L202
	movq	_ZN4asio6detail15system_categoryD1Ev@GOTPCREL(%rip), %rdi
	movq	_ZZN4asio15system_categoryEvE8instance@GOTPCREL(%rip), %rsi
	leaq	__dso_handle(%rip), %rdx
	call	__cxa_atexit@PLT
	addq	$56, %rsp
	.cfi_remember_state
	.cfi_def_cfa_offset 56
	movq	%r14, %rdi
	popq	%rbx
	.cfi_def_cfa_offset 48
	popq	%rbp
	.cfi_def_cfa_offset 40
	popq	%r12
	.cfi_def_cfa_offset 32
	popq	%r13
	.cfi_def_cfa_offset 24
	popq	%r14
	.cfi_def_cfa_offset 16
	popq	%r15
	.cfi_def_cfa_offset 8
	jmp	__cxa_guard_release@PLT
	.p2align 4,,10
	.p2align 3
.L216:
	.cfi_restore_state
	movq	$0, 104(%rdi)
	movq	$0, (%rax)
.L309:
	movq	$0, (%rbx)
	testq	%r15, %r15
	je	.L315
	movq	%rbx, (%r15)
.L219:
	addl	$1, 4(%rsp)
	cmpl	$3, 4(%rsp)
	je	.L220
.L316:
	movq	%rbx, %r15
	jmp	.L209
	.p2align 4,,10
	.p2align 3
.L252:
	movq	%rbx, 8(%rsp)
	jmp	.L217
	.p2align 4,,10
	.p2align 3
.L315:
	addl	$1, 4(%rsp)
	movq	%rbx, 8(%rsp)
	cmpl	$3, 4(%rsp)
	jne	.L316
.L220:
	movl	$-1, 88(%r9)
	movq	24(%rsp), %rdi
	movb	$1, 144(%r9)
	call	pthread_mutex_unlock@PLT
	movq	16(%rsp), %r14
	movq	8(%rbp), %r12
	leaq	120(%r14), %r15
	movq	%r15, %rdi
	call	pthread_mutex_lock@PLT
	cmpq	160(%r14), %r12
	je	.L317
.L222:
	movq	32(%r12), %rax
	testq	%rax, %rax
	je	.L223
	movq	24(%r12), %rdx
	movq	%rdx, 24(%rax)
.L223:
	movq	24(%r12), %rax
	testq	%rax, %rax
	je	.L224
	movq	32(%r12), %rdx
	movq	%rdx, 32(%rax)
.L224:
	movq	16(%rsp), %r14
	movq	%r15, %rdi
	movq	168(%r14), %rax
	movq	$0, 32(%r12)
	movq	%rax, 24(%r12)
	movq	%r12, 168(%r14)
	call	pthread_mutex_unlock@PLT
	movq	$0, 8(%rbp)
	cmpq	$0, 8(%rsp)
	je	.L207
	movq	40(%r14), %r12
	cmpb	$0, 40(%r12)
	je	.L226
	data16	leaq	_ZN4asio6detail15keyword_tss_ptrINS0_10call_stackINS0_15task_io_serviceENS0_27task_io_service_thread_infoEE7contextEE6value_E@tlsgd(%rip), %rdi
	.value	0x6666
	rex64
	call	__tls_get_addr@PLT
	movq	(%rax), %rax
	testq	%rax, %rax
	jne	.L229
	jmp	.L226
	.p2align 4
	.p2align 4,,10
	.p2align 3
.L227:
	movq	16(%rax), %rax
	testq	%rax, %rax
	je	.L226
.L229:
	cmpq	(%rax), %r12
	jne	.L227
	movq	8(%rax), %rax
	testq	%rax, %rax
	je	.L226
	movq	16(%rax), %rdx
	movq	8(%rsp), %rcx
	testq	%rdx, %rdx
	je	.L230
	movq	%rcx, (%rdx)
.L231:
	movq	%rbx, 16(%rax)
	jmp	.L207
	.p2align 4,,10
	.p2align 3
.L313:
	movq	%r14, %rdi
	call	__cxa_guard_acquire@PLT
	testl	%eax, %eax
	je	.L243
	movq	_ZZN4asio15system_categoryEvE8instance@GOTPCREL(%rip), %rsi
	movq	_ZN4asio6detail15system_categoryD1Ev@GOTPCREL(%rip), %rdi
	leaq	__dso_handle(%rip), %rdx
	call	__cxa_atexit@PLT
	movq	%r14, %rdi
	call	__cxa_guard_release@PLT
	jmp	.L243
	.p2align 4,,10
	.p2align 3
.L306:
	orl	$8, %r12d
	leaq	32(%rsp), %rcx
	movl	$13, %edx
	movl	%ebx, %edi
	movb	%r12b, 4(%rbp)
	movl	$8, %r8d
	movl	$1, %esi
	movq	$0, 32(%rsp)
	movl	$0, (%rax)
	call	setsockopt@PLT
	movq	_ZGVZN4asio15system_categoryEvE8instance@GOTPCREL(%rip), %r14
	movzbl	(%r14), %eax
	testb	%al, %al
	jne	.L238
	movq	%r14, %rdi
	call	__cxa_guard_acquire@PLT
	testl	%eax, %eax
	je	.L238
	movq	_ZZN4asio15system_categoryEvE8instance@GOTPCREL(%rip), %rsi
	movq	_ZN4asio6detail15system_categoryD1Ev@GOTPCREL(%rip), %rdi
	leaq	__dso_handle(%rip), %rdx
	call	__cxa_atexit@PLT
	movq	%r14, %rdi
	call	__cxa_guard_release@PLT
	jmp	.L238
	.p2align 4,,10
	.p2align 3
.L305:
	movq	%r15, %rbx
	jmp	.L219
	.p2align 4,,10
	.p2align 3
.L311:
	movq	16(%rsp), %rax
	movl	$0, 32(%rsp)
	leaq	32(%rsp), %rcx
	movl	%ebx, %edx
	movq	$0, 36(%rsp)
	movl	$2, %esi
	movl	96(%rax), %edi
	call	epoll_ctl@PLT
	movq	8(%rbp), %r9
	jmp	.L208
	.p2align 4,,10
	.p2align 3
.L317:
	movq	24(%r12), %rax
	movq	16(%rsp), %rcx
	movq	%rax, 160(%rcx)
	jmp	.L222
.L312:
	movq	%r14, %rdi
	call	pthread_mutex_unlock@PLT
	leaq	88(%r12), %rdi
	call	pthread_cond_signal@PLT
	jmp	.L207
.L314:
	movq	%r14, %rdi
	call	__cxa_guard_acquire@PLT
	testl	%eax, %eax
	je	.L246
	movq	_ZZN4asio15system_categoryEvE8instance@GOTPCREL(%rip), %rsi
	movq	_ZN4asio6detail15system_categoryD1Ev@GOTPCREL(%rip), %rdi
	leaq	__dso_handle(%rip), %rdx
	call	__cxa_atexit@PLT
	movq	%r14, %rdi
	call	__cxa_guard_release@PLT
	jmp	.L246
.L248:
	leaq	32(%rsp), %rdx
	movl	$21537, %esi
	movl	%ebx, %edi
	xorl	%eax, %eax
	movl	$0, 32(%rsp)
	call	ioctl@PLT
	andb	$-4, 4(%rbp)
	movl	%ebx, %edi
	movl	$0, 0(%r13)
	call	close@PLT
	movzbl	(%r14), %eax
	testb	%al, %al
	jne	.L202
	movq	%r14, %rdi
	call	__cxa_guard_acquire@PLT
	testl	%eax, %eax
	je	.L202
	movq	_ZZN4asio15system_categoryEvE8instance@GOTPCREL(%rip), %rsi
	movq	_ZN4asio6detail15system_categoryD1Ev@GOTPCREL(%rip), %rdi
	leaq	__dso_handle(%rip), %rdx
	call	__cxa_atexit@PLT
	movq	%r14, %rdi
	call	__cxa_guard_release@PLT
	jmp	.L202
.L232:
	movq	8(%rsp), %rax
	movq	%rax, 192(%r12)
	jmp	.L233
.L230:
	movq	%rcx, 8(%rax)
	jmp	.L231
	.cfi_endproc
.LFE3912:
	.size	_ZN4asio6detail28reactive_socket_service_base7destroyERNS1_24base_implementation_typeE, .-_ZN4asio6detail28reactive_socket_service_base7destroyERNS1_24base_implementation_typeE
	.text
	.align 2
	.p2align 4
	.globl	_ZN8asiodnp315MasterTCPServerC2ERKN7openpal6LoggerERKSt10shared_ptrIN7asiopal8ExecutorEERKNS6_10IPEndpointERKS5_INS_16IListenCallbacksEERKS5_INS6_15ResourceManagerEERSt10error_code
	.type	_ZN8asiodnp315MasterTCPServerC2ERKN7openpal6LoggerERKSt10shared_ptrIN7asiopal8ExecutorEERKNS6_10IPEndpointERKS5_INS_16IListenCallbacksEERKS5_INS6_15ResourceManagerEERSt10error_code, @function
_ZN8asiodnp315MasterTCPServerC2ERKN7openpal6LoggerERKSt10shared_ptrIN7asiopal8ExecutorEERKNS6_10IPEndpointERKS5_INS_16IListenCallbacksEERKS5_INS6_15ResourceManagerEERSt10error_code:
.LFB8259:
	.cfi_startproc
	pushq	%r12
	.cfi_def_cfa_offset 16
	.cfi_offset 12, -16
	movq	%r8, %r12
	pushq	%rbp
	.cfi_def_cfa_offset 24
	.cfi_offset 6, -24
	movq	%r9, %rbp
	pushq	%rbx
	.cfi_def_cfa_offset 32
	.cfi_offset 3, -32
	movq	32(%rsp), %r8
	movq	%rdi, %rbx
	call	_ZN7asiopal9TCPServerC2ERKN7openpal6LoggerERKSt10shared_ptrINS_8ExecutorEERKNS_10IPEndpointERSt10error_code@PLT
	movq	_ZTVN8asiodnp315MasterTCPServerE@GOTPCREL(%rip), %rax
	addq	$16, %rax
	movq	%rax, (%rbx)
	movdqu	(%r12), %xmm0
	movhlps	%xmm0, %xmm1
	movups	%xmm0, 208(%rbx)
	movq	%xmm1, %rax
	testq	%rax, %rax
	je	.L319
	movq	__libc_single_threaded@GOTPCREL(%rip), %rdx
	cmpb	$0, (%rdx)
	je	.L320
	addl	$1, 8(%rax)
.L319:
	movdqu	0(%rbp), %xmm0
	movhlps	%xmm0, %xmm2
	movups	%xmm0, 224(%rbx)
	movq	%xmm2, %rax
	testq	%rax, %rax
	je	.L318
	movq	__libc_single_threaded@GOTPCREL(%rip), %rdx
	cmpb	$0, (%rdx)
	je	.L322
	addl	$1, 8(%rax)
.L318:
	popq	%rbx
	.cfi_remember_state
	.cfi_def_cfa_offset 24
	popq	%rbp
	.cfi_def_cfa_offset 16
	popq	%r12
	.cfi_def_cfa_offset 8
	ret
	.p2align 4,,10
	.p2align 3
.L320:
	.cfi_restore_state
	lock addl	$1, 8(%rax)
	jmp	.L319
	.p2align 4,,10
	.p2align 3
.L322:
	lock addl	$1, 8(%rax)
	popq	%rbx
	.cfi_def_cfa_offset 24
	popq	%rbp
	.cfi_def_cfa_offset 16
	popq	%r12
	.cfi_def_cfa_offset 8
	ret
	.cfi_endproc
.LFE8259:
	.size	_ZN8asiodnp315MasterTCPServerC2ERKN7openpal6LoggerERKSt10shared_ptrIN7asiopal8ExecutorEERKNS6_10IPEndpointERKS5_INS_16IListenCallbacksEERKS5_INS6_15ResourceManagerEERSt10error_code, .-_ZN8asiodnp315MasterTCPServerC2ERKN7openpal6LoggerERKSt10shared_ptrIN7asiopal8ExecutorEERKNS6_10IPEndpointERKS5_INS_16IListenCallbacksEERKS5_INS6_15ResourceManagerEERSt10error_code
	.globl	_ZN8asiodnp315MasterTCPServerC1ERKN7openpal6LoggerERKSt10shared_ptrIN7asiopal8ExecutorEERKNS6_10IPEndpointERKS5_INS_16IListenCallbacksEERKS5_INS6_15ResourceManagerEERSt10error_code
	.set	_ZN8asiodnp315MasterTCPServerC1ERKN7openpal6LoggerERKSt10shared_ptrIN7asiopal8ExecutorEERKNS6_10IPEndpointERKS5_INS_16IListenCallbacksEERKS5_INS6_15ResourceManagerEERSt10error_code,_ZN8asiodnp315MasterTCPServerC2ERKN7openpal6LoggerERKSt10shared_ptrIN7asiopal8ExecutorEERKNS6_10IPEndpointERKS5_INS_16IListenCallbacksEERKS5_INS6_15ResourceManagerEERSt10error_code
	.section	.text._ZNSt16_Sp_counted_baseILN9__gnu_cxx12_Lock_policyE2EE24_M_release_last_use_coldEv,"axG",@progbits,_ZNSt16_Sp_counted_baseILN9__gnu_cxx12_Lock_policyE2EE24_M_release_last_use_coldEv,comdat
	.align 2
	.p2align 4
	.weak	_ZNSt16_Sp_counted_baseILN9__gnu_cxx12_Lock_policyE2EE24_M_release_last_use_coldEv
	.type	_ZNSt16_Sp_counted_baseILN9__gnu_cxx12_Lock_policyE2EE24_M_release_last_use_coldEv, @function
_ZNSt16_Sp_counted_baseILN9__gnu_cxx12_Lock_policyE2EE24_M_release_last_use_coldEv:
.LFB8291:
	.cfi_startproc
	pushq	%rbx
	.cfi_def_cfa_offset 16
	.cfi_offset 3, -16
	movq	(%rdi), %rax
	movq	%rdi, %rbx
	call	*16(%rax)
	movq	__libc_single_threaded@GOTPCREL(%rip), %rax
	cmpb	$0, (%rax)
	je	.L331
	movl	12(%rbx), %eax
	leal	-1(%rax), %edx
	movl	%edx, 12(%rbx)
.L332:
	cmpl	$1, %eax
	je	.L335
	popq	%rbx
	.cfi_remember_state
	.cfi_def_cfa_offset 8
	ret
	.p2align 4,,10
	.p2align 3
.L335:
	.cfi_restore_state
	movq	(%rbx), %rax
	movq	%rbx, %rdi
	popq	%rbx
	.cfi_remember_state
	.cfi_def_cfa_offset 8
	movq	24(%rax), %rax
	jmp	*%rax
	.p2align 4,,10
	.p2align 3
.L331:
	.cfi_restore_state
	movl	$-1, %eax
	lock xaddl	%eax, 12(%rbx)
	jmp	.L332
	.cfi_endproc
.LFE8291:
	.size	_ZNSt16_Sp_counted_baseILN9__gnu_cxx12_Lock_policyE2EE24_M_release_last_use_coldEv, .-_ZNSt16_Sp_counted_baseILN9__gnu_cxx12_Lock_policyE2EE24_M_release_last_use_coldEv
	.section	.text._ZNSt16_Sp_counted_baseILN9__gnu_cxx12_Lock_policyE2EE10_M_releaseEv,"axG",@progbits,_ZNSt16_Sp_counted_baseILN9__gnu_cxx12_Lock_policyE2EE10_M_releaseEv,comdat
	.align 2
	.p2align 4
	.weak	_ZNSt16_Sp_counted_baseILN9__gnu_cxx12_Lock_policyE2EE10_M_releaseEv
	.type	_ZNSt16_Sp_counted_baseILN9__gnu_cxx12_Lock_policyE2EE10_M_releaseEv, @function
_ZNSt16_Sp_counted_baseILN9__gnu_cxx12_Lock_policyE2EE10_M_releaseEv:
.LFB1188:
	.cfi_startproc
	movabsq	$4294967297, %rax
	movq	8(%rdi), %rdx
	cmpq	%rax, %rdx
	je	.L344
	movq	__libc_single_threaded@GOTPCREL(%rip), %rax
	cmpb	$0, (%rax)
	je	.L338
	movl	8(%rdi), %eax
	leal	-1(%rax), %edx
	movl	%edx, 8(%rdi)
.L339:
	cmpl	$1, %eax
	je	.L345
	ret
	.p2align 4,,10
	.p2align 3
.L338:
	leaq	8(%rdi), %rcx
	movl	$-1, %eax
	lock xaddl	%eax, (%rcx)
	jmp	.L339
	.p2align 4,,10
	.p2align 3
.L344:
	subq	$24, %rsp
	.cfi_def_cfa_offset 32
	movq	(%rdi), %rax
	movq	$0, 8(%rdi)
	movq	%rdi, 8(%rsp)
	call	*16(%rax)
	movq	8(%rsp), %rdi
	movq	(%rdi), %rax
	movq	24(%rax), %rax
	addq	$24, %rsp
	.cfi_def_cfa_offset 8
	jmp	*%rax
	.p2align 4,,10
	.p2align 3
.L345:
	jmp	_ZNSt16_Sp_counted_baseILN9__gnu_cxx12_Lock_policyE2EE24_M_release_last_use_coldEv@PLT
	.cfi_endproc
.LFE1188:
	.size	_ZNSt16_Sp_counted_baseILN9__gnu_cxx12_Lock_policyE2EE10_M_releaseEv, .-_ZNSt16_Sp_counted_baseILN9__gnu_cxx12_Lock_policyE2EE10_M_releaseEv
	.section	.text._ZNSt23_Sp_counted_ptr_inplaceIN7asiopal8ExecutorESaIvELN9__gnu_cxx12_Lock_policyE2EE10_M_disposeEv,"axG",@progbits,_ZNSt23_Sp_counted_ptr_inplaceIN7asiopal8ExecutorESaIvELN9__gnu_cxx12_Lock_policyE2EE10_M_disposeEv,comdat
	.align 2
	.p2align 4
	.weak	_ZNSt23_Sp_counted_ptr_inplaceIN7asiopal8ExecutorESaIvELN9__gnu_cxx12_Lock_policyE2EE10_M_disposeEv
	.type	_ZNSt23_Sp_counted_ptr_inplaceIN7asiopal8ExecutorESaIvELN9__gnu_cxx12_Lock_policyE2EE10_M_disposeEv, @function
_ZNSt23_Sp_counted_ptr_inplaceIN7asiopal8ExecutorESaIvELN9__gnu_cxx12_Lock_policyE2EE10_M_disposeEv:
.LFB11097:
	.cfi_startproc
	subq	$24, %rsp
	.cfi_def_cfa_offset 32
	movq	_ZTVN7asiopal8ExecutorE@GOTPCREL(%rip), %rdx
	movq	%rdi, %rax
	addq	$16, %rdx
	movq	%rdx, 16(%rdi)
	movq	48(%rdi), %rdi
	testq	%rdi, %rdi
	je	.L348
	movq	8(%rdi), %rcx
	leaq	8(%rdi), %rsi
	movabsq	$4294967297, %rdx
	cmpq	%rdx, %rcx
	je	.L359
	movq	__libc_single_threaded@GOTPCREL(%rip), %rdx
	cmpb	$0, (%rdx)
	je	.L350
	movl	8(%rdi), %edx
	leal	-1(%rdx), %ecx
	movl	%ecx, 8(%rdi)
.L351:
	cmpl	$1, %edx
	je	.L360
.L348:
	movq	32(%rax), %rdi
	testq	%rdi, %rdi
	je	.L346
	movq	__libc_single_threaded@GOTPCREL(%rip), %rax
	cmpb	$0, (%rax)
	je	.L355
	movl	12(%rdi), %eax
	leal	-1(%rax), %edx
	movl	%edx, 12(%rdi)
.L356:
	cmpl	$1, %eax
	je	.L361
.L346:
	addq	$24, %rsp
	.cfi_remember_state
	.cfi_def_cfa_offset 8
	ret
	.p2align 4,,10
	.p2align 3
.L361:
	.cfi_restore_state
	movq	(%rdi), %rax
	movq	24(%rax), %rax
	addq	$24, %rsp
	.cfi_remember_state
	.cfi_def_cfa_offset 8
	jmp	*%rax
	.p2align 4,,10
	.p2align 3
.L355:
	.cfi_restore_state
	movl	$-1, %eax
	lock xaddl	%eax, 12(%rdi)
	jmp	.L356
	.p2align 4,,10
	.p2align 3
.L359:
	movq	(%rdi), %rdx
	movq	%rax, 8(%rsp)
	movq	$0, 8(%rdi)
	movq	%rdi, (%rsp)
	call	*16(%rdx)
	movq	(%rsp), %rdi
	movq	(%rdi), %rdx
	call	*24(%rdx)
	movq	8(%rsp), %rax
	jmp	.L348
	.p2align 4,,10
	.p2align 3
.L350:
	movl	$-1, %edx
	lock xaddl	%edx, (%rsi)
	jmp	.L351
	.p2align 4,,10
	.p2align 3
.L360:
	movq	%rax, (%rsp)
	call	_ZNSt16_Sp_counted_baseILN9__gnu_cxx12_Lock_policyE2EE24_M_release_last_use_coldEv@PLT
	movq	(%rsp), %rax
	jmp	.L348
	.cfi_endproc
.LFE11097:
	.size	_ZNSt23_Sp_counted_ptr_inplaceIN7asiopal8ExecutorESaIvELN9__gnu_cxx12_Lock_policyE2EE10_M_disposeEv, .-_ZNSt23_Sp_counted_ptr_inplaceIN7asiopal8ExecutorESaIvELN9__gnu_cxx12_Lock_policyE2EE10_M_disposeEv
	.section	.text.unlikely
	.align 2
.LCOLDB27:
	.text
.LHOTB27:
	.align 2
	.p2align 4
	.globl	_ZN8asiodnp315MasterTCPServer10OnShutdownEv
	.type	_ZN8asiodnp315MasterTCPServer10OnShutdownEv, @function
_ZN8asiodnp315MasterTCPServer10OnShutdownEv:
.LFB8261:
	.cfi_startproc
	.cfi_personality 0x9b,DW.ref.__gxx_personality_v0
	.cfi_lsda 0x1b,.LLSDA8261
	pushq	%rbx
	.cfi_def_cfa_offset 16
	.cfi_offset 3, -16
	subq	$32, %rsp
	.cfi_def_cfa_offset 48
	movq	16(%rdi), %rdx
	movq	224(%rdi), %r8
	testq	%rdx, %rdx
	je	.L364
	movl	8(%rdx), %eax
	leaq	8(%rdx), %rcx
.L366:
	testl	%eax, %eax
	je	.L364
	leal	1(%rax), %esi
	lock cmpxchgl	%esi, (%rcx)
	jne	.L366
	movq	8(%rdi), %xmm0
	movq	%rdx, %xmm1
	leaq	16(%rsp), %rsi
	movq	%r8, %rdi
	punpcklqdq	%xmm1, %xmm0
	movaps	%xmm0, 16(%rsp)
.LEHB0:
	call	_ZN7asiopal15ResourceManager6DetachERKSt10shared_ptrINS_9IResourceEE@PLT
.LEHE0:
	movq	24(%rsp), %rdi
	testq	%rdi, %rdi
	je	.L362
	movq	8(%rdi), %rdx
	leaq	8(%rdi), %rcx
	movabsq	$4294967297, %rax
	cmpq	%rax, %rdx
	je	.L385
	movq	__libc_single_threaded@GOTPCREL(%rip), %rax
	cmpb	$0, (%rax)
	je	.L370
	movl	8(%rdi), %eax
	leal	-1(%rax), %edx
	movl	%edx, 8(%rdi)
.L371:
	cmpl	$1, %eax
	je	.L386
.L362:
	addq	$32, %rsp
	.cfi_remember_state
	.cfi_def_cfa_offset 16
	popq	%rbx
	.cfi_def_cfa_offset 8
	ret
	.p2align 4,,10
	.p2align 3
.L385:
	.cfi_restore_state
	movq	(%rdi), %rax
	movq	%rdi, 8(%rsp)
	movq	$0, 8(%rdi)
	call	*16(%rax)
	movq	8(%rsp), %rdi
	movq	(%rdi), %rax
	call	*24(%rax)
	addq	$32, %rsp
	.cfi_remember_state
	.cfi_def_cfa_offset 16
	popq	%rbx
	.cfi_def_cfa_offset 8
	ret
	.p2align 4,,10
	.p2align 3
.L370:
	.cfi_restore_state
	movl	$-1, %eax
	lock xaddl	%eax, (%rcx)
	jmp	.L371
	.p2align 4,,10
	.p2align 3
.L386:
	call	_ZNSt16_Sp_counted_baseILN9__gnu_cxx12_Lock_policyE2EE24_M_release_last_use_coldEv@PLT
	jmp	.L362
.L376:
	movq	%rax, %rbx
	jmp	.L373
	.section	.gcc_except_table,"a",@progbits
.LLSDA8261:
	.byte	0xff
	.byte	0xff
	.byte	0x1
	.uleb128 .LLSDACSE8261-.LLSDACSB8261
.LLSDACSB8261:
	.uleb128 .LEHB0-.LFB8261
	.uleb128 .LEHE0-.LEHB0
	.uleb128 .L376-.LFB8261
	.uleb128 0
.LLSDACSE8261:
	.text
	.cfi_endproc
	.section	.text.unlikely
	.cfi_startproc
	.cfi_personality 0x9b,DW.ref.__gxx_personality_v0
	.cfi_lsda 0x1b,.LLSDAC8261
	.type	_ZN8asiodnp315MasterTCPServer10OnShutdownEv.cold, @function
_ZN8asiodnp315MasterTCPServer10OnShutdownEv.cold:
.LFSB8261:
.L364:
	.cfi_def_cfa_offset 48
	.cfi_offset 3, -16
.LEHB1:
	call	_ZSt20__throw_bad_weak_ptrv@PLT
.L373:
	movq	24(%rsp), %rdi
	testq	%rdi, %rdi
	je	.L374
	call	_ZNSt16_Sp_counted_baseILN9__gnu_cxx12_Lock_policyE2EE10_M_releaseEv@PLT
.L374:
	movq	%rbx, %rdi
	call	_Unwind_Resume@PLT
.LEHE1:
	.cfi_endproc
.LFE8261:
	.section	.gcc_except_table
.LLSDAC8261:
	.byte	0xff
	.byte	0xff
	.byte	0x1
	.uleb128 .LLSDACSEC8261-.LLSDACSBC8261
.LLSDACSBC8261:
	.uleb128 .LEHB1-.LCOLDB27
	.uleb128 .LEHE1-.LEHB1
	.uleb128 0
	.uleb128 0
.LLSDACSEC8261:
	.section	.text.unlikely
	.text
	.size	_ZN8asiodnp315MasterTCPServer10OnShutdownEv, .-_ZN8asiodnp315MasterTCPServer10OnShutdownEv
	.section	.text.unlikely
	.size	_ZN8asiodnp315MasterTCPServer10OnShutdownEv.cold, .-_ZN8asiodnp315MasterTCPServer10OnShutdownEv.cold
.LCOLDE27:
	.text
.LHOTE27:
	.section	.text._ZN7openpal6LoggerD2Ev,"axG",@progbits,_ZN7openpal6LoggerD5Ev,comdat
	.align 2
	.p2align 4
	.weak	_ZN7openpal6LoggerD2Ev
	.type	_ZN7openpal6LoggerD2Ev, @function
_ZN7openpal6LoggerD2Ev:
.LFB1998:
	.cfi_startproc
	subq	$24, %rsp
	.cfi_def_cfa_offset 32
	movq	%rdi, %rax
	movq	24(%rdi), %rdi
	testq	%rdi, %rdi
	je	.L389
	movq	8(%rdi), %rcx
	leaq	8(%rdi), %rsi
	movabsq	$4294967297, %rdx
	cmpq	%rdx, %rcx
	je	.L401
	movq	__libc_single_threaded@GOTPCREL(%rip), %rdx
	cmpb	$0, (%rdx)
	je	.L391
	movl	8(%rdi), %edx
	leal	-1(%rdx), %ecx
	movl	%ecx, 8(%rdi)
.L392:
	cmpl	$1, %edx
	je	.L402
.L389:
	movq	8(%rax), %rdi
	testq	%rdi, %rdi
	je	.L387
	movq	8(%rdi), %rdx
	leaq	8(%rdi), %rcx
	movabsq	$4294967297, %rax
	cmpq	%rax, %rdx
	je	.L403
	movq	__libc_single_threaded@GOTPCREL(%rip), %rax
	cmpb	$0, (%rax)
	je	.L397
	movl	8(%rdi), %eax
	leal	-1(%rax), %edx
	movl	%edx, 8(%rdi)
.L398:
	cmpl	$1, %eax
	je	.L404
.L387:
	addq	$24, %rsp
	.cfi_remember_state
	.cfi_def_cfa_offset 8
	ret
	.p2align 4,,10
	.p2align 3
.L403:
	.cfi_restore_state
	movq	(%rdi), %rax
	movq	%rdi, (%rsp)
	movq	$0, 8(%rdi)
	call	*16(%rax)
	movq	(%rsp), %rdi
	movq	(%rdi), %rax
	movq	24(%rax), %rax
	addq	$24, %rsp
	.cfi_remember_state
	.cfi_def_cfa_offset 8
	jmp	*%rax
	.p2align 4,,10
	.p2align 3
.L401:
	.cfi_restore_state
	movq	(%rdi), %rdx
	movq	%rax, 8(%rsp)
	movq	$0, 8(%rdi)
	movq	%rdi, (%rsp)
	call	*16(%rdx)
	movq	(%rsp), %rdi
	movq	(%rdi), %rdx
	call	*24(%rdx)
	movq	8(%rsp), %rax
	jmp	.L389
	.p2align 4,,10
	.p2align 3
.L397:
	movl	$-1, %eax
	lock xaddl	%eax, (%rcx)
	jmp	.L398
	.p2align 4,,10
	.p2align 3
.L391:
	movl	$-1, %edx
	lock xaddl	%edx, (%rsi)
	jmp	.L392
	.p2align 4,,10
	.p2align 3
.L402:
	movq	%rax, (%rsp)
	call	_ZNSt16_Sp_counted_baseILN9__gnu_cxx12_Lock_policyE2EE24_M_release_last_use_coldEv@PLT
	movq	(%rsp), %rax
	jmp	.L389
	.p2align 4,,10
	.p2align 3
.L404:
	addq	$24, %rsp
	.cfi_def_cfa_offset 8
	jmp	_ZNSt16_Sp_counted_baseILN9__gnu_cxx12_Lock_policyE2EE24_M_release_last_use_coldEv@PLT
	.cfi_endproc
.LFE1998:
	.size	_ZN7openpal6LoggerD2Ev, .-_ZN7openpal6LoggerD2Ev
	.weak	_ZN7openpal6LoggerD1Ev
	.set	_ZN7openpal6LoggerD1Ev,_ZN7openpal6LoggerD2Ev
	.section	.text._ZNSt23_Sp_counted_ptr_inplaceIN8asiodnp311LinkSessionESaIvELN9__gnu_cxx12_Lock_policyE2EE10_M_disposeEv,"axG",@progbits,_ZNSt23_Sp_counted_ptr_inplaceIN8asiodnp311LinkSessionESaIvELN9__gnu_cxx12_Lock_policyE2EE10_M_disposeEv,comdat
	.align 2
	.p2align 4
	.weak	_ZNSt23_Sp_counted_ptr_inplaceIN8asiodnp311LinkSessionESaIvELN9__gnu_cxx12_Lock_policyE2EE10_M_disposeEv
	.type	_ZNSt23_Sp_counted_ptr_inplaceIN8asiodnp311LinkSessionESaIvELN9__gnu_cxx12_Lock_policyE2EE10_M_disposeEv, @function
_ZNSt23_Sp_counted_ptr_inplaceIN8asiodnp311LinkSessionESaIvELN9__gnu_cxx12_Lock_policyE2EE10_M_disposeEv:
.LFB11069:
	.cfi_startproc
	pushq	%rbx
	.cfi_def_cfa_offset 16
	.cfi_offset 3, -16
	movq	%rdi, %rbx
	subq	$16, %rsp
	.cfi_def_cfa_offset 32
	movq	_ZTVN8asiodnp311LinkSessionE@GOTPCREL(%rip), %rax
	leaq	96(%rax), %rdx
	leaq	16(%rax), %rsi
	movq	%rdx, %xmm1
	movq	%rsi, %xmm0
	leaq	144(%rax), %rdx
	movq	%rdx, 32(%rdi)
	punpcklqdq	%xmm1, %xmm0
	leaq	224(%rax), %rdx
	addq	$184, %rax
	movups	%xmm0, 16(%rdi)
	movq	%rdx, %xmm2
	movq	%rax, %xmm0
	punpcklqdq	%xmm2, %xmm0
	movups	%xmm0, 56(%rdi)
	movq	616(%rdi), %rdi
	testq	%rdi, %rdi
	je	.L407
	movq	8(%rdi), %rdx
	leaq	8(%rdi), %rcx
	movabsq	$4294967297, %rax
	cmpq	%rax, %rdx
	je	.L460
	movq	__libc_single_threaded@GOTPCREL(%rip), %rax
	cmpb	$0, (%rax)
	je	.L409
	movl	8(%rdi), %eax
	leal	-1(%rax), %edx
	movl	%edx, 8(%rdi)
.L410:
	cmpl	$1, %eax
	je	.L461
.L407:
	leaq	584(%rbx), %rdi
	call	_ZN7openpal8TimerRefD1Ev@PLT
	movq	192(%rbx), %rdi
	testq	%rdi, %rdi
	je	.L413
	movq	8(%rdi), %rdx
	leaq	8(%rdi), %rcx
	movabsq	$4294967297, %rax
	cmpq	%rax, %rdx
	je	.L462
	movq	__libc_single_threaded@GOTPCREL(%rip), %rax
	cmpb	$0, (%rax)
	je	.L415
	movl	8(%rdi), %eax
	leal	-1(%rax), %edx
	movl	%edx, 8(%rdi)
.L416:
	cmpl	$1, %eax
	je	.L463
.L413:
	movq	176(%rbx), %rdi
	testq	%rdi, %rdi
	je	.L419
	movq	8(%rdi), %rdx
	leaq	8(%rdi), %rcx
	movabsq	$4294967297, %rax
	cmpq	%rax, %rdx
	je	.L464
	movq	__libc_single_threaded@GOTPCREL(%rip), %rax
	cmpb	$0, (%rax)
	je	.L421
	movl	8(%rdi), %eax
	leal	-1(%rax), %edx
	movl	%edx, 8(%rdi)
.L422:
	cmpl	$1, %eax
	je	.L465
.L419:
	movq	160(%rbx), %rdi
	testq	%rdi, %rdi
	je	.L425
	movq	8(%rdi), %rdx
	leaq	8(%rdi), %rcx
	movabsq	$4294967297, %rax
	cmpq	%rax, %rdx
	je	.L466
	movq	__libc_single_threaded@GOTPCREL(%rip), %rax
	cmpb	$0, (%rax)
	je	.L427
	movl	8(%rdi), %eax
	leal	-1(%rax), %edx
	movl	%edx, 8(%rdi)
.L428:
	cmpl	$1, %eax
	je	.L467
.L425:
	movq	144(%rbx), %rdi
	testq	%rdi, %rdi
	je	.L431
	movq	8(%rdi), %rdx
	leaq	8(%rdi), %rcx
	movabsq	$4294967297, %rax
	cmpq	%rax, %rdx
	je	.L468
	movq	__libc_single_threaded@GOTPCREL(%rip), %rax
	cmpb	$0, (%rax)
	je	.L433
	movl	8(%rdi), %eax
	leal	-1(%rax), %edx
	movl	%edx, 8(%rdi)
.L434:
	cmpl	$1, %eax
	je	.L469
.L431:
	movq	128(%rbx), %rdi
	testq	%rdi, %rdi
	je	.L437
	movq	8(%rdi), %rdx
	leaq	8(%rdi), %rcx
	movabsq	$4294967297, %rax
	cmpq	%rax, %rdx
	je	.L470
	movq	__libc_single_threaded@GOTPCREL(%rip), %rax
	cmpb	$0, (%rax)
	je	.L439
	movl	8(%rdi), %eax
	leal	-1(%rax), %edx
	movl	%edx, 8(%rdi)
.L440:
	cmpl	$1, %eax
	je	.L471
.L437:
	movq	104(%rbx), %rdi
	testq	%rdi, %rdi
	je	.L443
	movq	8(%rdi), %rdx
	leaq	8(%rdi), %rcx
	movabsq	$4294967297, %rax
	cmpq	%rax, %rdx
	je	.L472
	movq	__libc_single_threaded@GOTPCREL(%rip), %rax
	cmpb	$0, (%rax)
	je	.L445
	movl	8(%rdi), %eax
	leal	-1(%rax), %edx
	movl	%edx, 8(%rdi)
.L446:
	cmpl	$1, %eax
	je	.L473
.L443:
	movq	88(%rbx), %rdi
	testq	%rdi, %rdi
	je	.L449
	movq	8(%rdi), %rdx
	leaq	8(%rdi), %rcx
	movabsq	$4294967297, %rax
	cmpq	%rax, %rdx
	je	.L474
	movq	__libc_single_threaded@GOTPCREL(%rip), %rax
	cmpb	$0, (%rax)
	je	.L451
	movl	8(%rdi), %eax
	leal	-1(%rax), %edx
	movl	%edx, 8(%rdi)
.L452:
	cmpl	$1, %eax
	je	.L475
.L449:
	movq	48(%rbx), %rdi
	testq	%rdi, %rdi
	je	.L405
	movq	__libc_single_threaded@GOTPCREL(%rip), %rax
	cmpb	$0, (%rax)
	je	.L456
	movl	12(%rdi), %eax
	leal	-1(%rax), %edx
	movl	%edx, 12(%rdi)
.L457:
	cmpl	$1, %eax
	je	.L476
.L405:
	addq	$16, %rsp
	.cfi_remember_state
	.cfi_def_cfa_offset 16
	popq	%rbx
	.cfi_def_cfa_offset 8
	ret
	.p2align 4,,10
	.p2align 3
.L476:
	.cfi_restore_state
	movq	(%rdi), %rax
	movq	24(%rax), %rax
	addq	$16, %rsp
	.cfi_remember_state
	.cfi_def_cfa_offset 16
	popq	%rbx
	.cfi_def_cfa_offset 8
	jmp	*%rax
	.p2align 4,,10
	.p2align 3
.L456:
	.cfi_restore_state
	movl	$-1, %eax
	lock xaddl	%eax, 12(%rdi)
	jmp	.L457
	.p2align 4,,10
	.p2align 3
.L466:
	movq	(%rdi), %rax
	movq	%rdi, 8(%rsp)
	movq	$0, 8(%rdi)
	call	*16(%rax)
	movq	8(%rsp), %rdi
	movq	(%rdi), %rax
	call	*24(%rax)
	jmp	.L425
	.p2align 4,,10
	.p2align 3
.L462:
	movq	(%rdi), %rax
	movq	%rdi, 8(%rsp)
	movq	$0, 8(%rdi)
	call	*16(%rax)
	movq	8(%rsp), %rdi
	movq	(%rdi), %rax
	call	*24(%rax)
	jmp	.L413
	.p2align 4,,10
	.p2align 3
.L464:
	movq	(%rdi), %rax
	movq	%rdi, 8(%rsp)
	movq	$0, 8(%rdi)
	call	*16(%rax)
	movq	8(%rsp), %rdi
	movq	(%rdi), %rax
	call	*24(%rax)
	jmp	.L419
	.p2align 4,,10
	.p2align 3
.L470:
	movq	(%rdi), %rax
	movq	%rdi, 8(%rsp)
	movq	$0, 8(%rdi)
	call	*16(%rax)
	movq	8(%rsp), %rdi
	movq	(%rdi), %rax
	call	*24(%rax)
	jmp	.L437
	.p2align 4,,10
	.p2align 3
.L472:
	movq	(%rdi), %rax
	movq	%rdi, 8(%rsp)
	movq	$0, 8(%rdi)
	call	*16(%rax)
	movq	8(%rsp), %rdi
	movq	(%rdi), %rax
	call	*24(%rax)
	jmp	.L443
	.p2align 4,,10
	.p2align 3
.L474:
	movq	(%rdi), %rax
	movq	%rdi, 8(%rsp)
	movq	$0, 8(%rdi)
	call	*16(%rax)
	movq	8(%rsp), %rdi
	movq	(%rdi), %rax
	call	*24(%rax)
	jmp	.L449
	.p2align 4,,10
	.p2align 3
.L460:
	movq	(%rdi), %rax
	movq	%rdi, 8(%rsp)
	movq	$0, 8(%rdi)
	call	*16(%rax)
	movq	8(%rsp), %rdi
	movq	(%rdi), %rax
	call	*24(%rax)
	jmp	.L407
	.p2align 4,,10
	.p2align 3
.L468:
	movq	(%rdi), %rax
	movq	%rdi, 8(%rsp)
	movq	$0, 8(%rdi)
	call	*16(%rax)
	movq	8(%rsp), %rdi
	movq	(%rdi), %rax
	call	*24(%rax)
	jmp	.L431
	.p2align 4,,10
	.p2align 3
.L421:
	movl	$-1, %eax
	lock xaddl	%eax, (%rcx)
	jmp	.L422
	.p2align 4,,10
	.p2align 3
.L427:
	movl	$-1, %eax
	lock xaddl	%eax, (%rcx)
	jmp	.L428
	.p2align 4,,10
	.p2align 3
.L409:
	movl	$-1, %eax
	lock xaddl	%eax, (%rcx)
	jmp	.L410
	.p2align 4,,10
	.p2align 3
.L415:
	movl	$-1, %eax
	lock xaddl	%eax, (%rcx)
	jmp	.L416
	.p2align 4,,10
	.p2align 3
.L433:
	movl	$-1, %eax
	lock xaddl	%eax, (%rcx)
	jmp	.L434
	.p2align 4,,10
	.p2align 3
.L439:
	movl	$-1, %eax
	lock xaddl	%eax, (%rcx)
	jmp	.L440
	.p2align 4,,10
	.p2align 3
.L451:
	movl	$-1, %eax
	lock xaddl	%eax, (%rcx)
	jmp	.L452
	.p2align 4,,10
	.p2align 3
.L445:
	movl	$-1, %eax
	lock xaddl	%eax, (%rcx)
	jmp	.L446
	.p2align 4,,10
	.p2align 3
.L461:
	call	_ZNSt16_Sp_counted_baseILN9__gnu_cxx12_Lock_policyE2EE24_M_release_last_use_coldEv@PLT
	jmp	.L407
	.p2align 4,,10
	.p2align 3
.L469:
	call	_ZNSt16_Sp_counted_baseILN9__gnu_cxx12_Lock_policyE2EE24_M_release_last_use_coldEv@PLT
	jmp	.L431
	.p2align 4,,10
	.p2align 3
.L467:
	call	_ZNSt16_Sp_counted_baseILN9__gnu_cxx12_Lock_policyE2EE24_M_release_last_use_coldEv@PLT
	jmp	.L425
	.p2align 4,,10
	.p2align 3
.L465:
	call	_ZNSt16_Sp_counted_baseILN9__gnu_cxx12_Lock_policyE2EE24_M_release_last_use_coldEv@PLT
	jmp	.L419
	.p2align 4,,10
	.p2align 3
.L463:
	call	_ZNSt16_Sp_counted_baseILN9__gnu_cxx12_Lock_policyE2EE24_M_release_last_use_coldEv@PLT
	jmp	.L413
	.p2align 4,,10
	.p2align 3
.L473:
	call	_ZNSt16_Sp_counted_baseILN9__gnu_cxx12_Lock_policyE2EE24_M_release_last_use_coldEv@PLT
	jmp	.L443
	.p2align 4,,10
	.p2align 3
.L471:
	call	_ZNSt16_Sp_counted_baseILN9__gnu_cxx12_Lock_policyE2EE24_M_release_last_use_coldEv@PLT
	jmp	.L437
	.p2align 4,,10
	.p2align 3
.L475:
	call	_ZNSt16_Sp_counted_baseILN9__gnu_cxx12_Lock_policyE2EE24_M_release_last_use_coldEv@PLT
	jmp	.L449
	.cfi_endproc
.LFE11069:
	.size	_ZNSt23_Sp_counted_ptr_inplaceIN8asiodnp311LinkSessionESaIvELN9__gnu_cxx12_Lock_policyE2EE10_M_disposeEv, .-_ZNSt23_Sp_counted_ptr_inplaceIN8asiodnp311LinkSessionESaIvELN9__gnu_cxx12_Lock_policyE2EE10_M_disposeEv
	.section	.text._ZNSt23_Sp_counted_ptr_inplaceIN7asiopal13SocketChannelESaIvELN9__gnu_cxx12_Lock_policyE2EE10_M_disposeEv,"axG",@progbits,_ZNSt23_Sp_counted_ptr_inplaceIN7asiopal13SocketChannelESaIvELN9__gnu_cxx12_Lock_policyE2EE10_M_disposeEv,comdat
	.align 2
	.p2align 4
	.weak	_ZNSt23_Sp_counted_ptr_inplaceIN7asiopal13SocketChannelESaIvELN9__gnu_cxx12_Lock_policyE2EE10_M_disposeEv
	.type	_ZNSt23_Sp_counted_ptr_inplaceIN7asiopal13SocketChannelESaIvELN9__gnu_cxx12_Lock_policyE2EE10_M_disposeEv, @function
_ZNSt23_Sp_counted_ptr_inplaceIN7asiopal13SocketChannelESaIvELN9__gnu_cxx12_Lock_policyE2EE10_M_disposeEv:
.LFB11062:
	.cfi_startproc
	.cfi_personality 0x9b,DW.ref.__gxx_personality_v0
	.cfi_lsda 0x1b,.LLSDA11062
	pushq	%r15
	.cfi_def_cfa_offset 16
	.cfi_offset 15, -16
	pushq	%r14
	.cfi_def_cfa_offset 24
	.cfi_offset 14, -24
	movq	%rdi, %r14
	pushq	%r13
	.cfi_def_cfa_offset 32
	.cfi_offset 13, -32
	pushq	%r12
	.cfi_def_cfa_offset 40
	.cfi_offset 12, -40
	pushq	%rbp
	.cfi_def_cfa_offset 48
	.cfi_offset 6, -48
	pushq	%rbx
	.cfi_def_cfa_offset 56
	.cfi_offset 3, -56
	subq	$56, %rsp
	.cfi_def_cfa_offset 112
	movq	_ZTVN7asiopal13SocketChannelE@GOTPCREL(%rip), %rax
	movl	80(%rdi), %ebx
	addq	$16, %rax
	movq	%rax, 16(%rdi)
	cmpl	$-1, %ebx
	jne	.L607
.L479:
	movq	_ZTVN7asiopal13IAsyncChannelE@GOTPCREL(%rip), %rax
	movq	64(%r14), %rbx
	addq	$16, %rax
	movq	%rax, 16(%r14)
	testq	%rbx, %rbx
	je	.L528
	movq	8(%rbx), %rdx
	leaq	8(%rbx), %rcx
	movabsq	$4294967297, %rax
	cmpq	%rax, %rdx
	je	.L608
	movq	__libc_single_threaded@GOTPCREL(%rip), %rax
	cmpb	$0, (%rax)
	je	.L530
	movl	8(%rbx), %eax
	leal	-1(%rax), %edx
	movl	%edx, 8(%rbx)
.L531:
	cmpl	$1, %eax
	je	.L609
.L528:
	movq	48(%r14), %rbx
	testq	%rbx, %rbx
	je	.L534
	movq	8(%rbx), %rdx
	leaq	8(%rbx), %rcx
	movabsq	$4294967297, %rax
	cmpq	%rax, %rdx
	je	.L610
	movq	__libc_single_threaded@GOTPCREL(%rip), %rax
	cmpb	$0, (%rax)
	je	.L536
	movl	8(%rbx), %eax
	leal	-1(%rax), %edx
	movl	%edx, 8(%rbx)
.L537:
	cmpl	$1, %eax
	je	.L611
.L534:
	movq	32(%r14), %rdi
	testq	%rdi, %rdi
	je	.L477
	movq	__libc_single_threaded@GOTPCREL(%rip), %rax
	cmpb	$0, (%rax)
	je	.L541
	movl	12(%rdi), %eax
	leal	-1(%rax), %edx
	movl	%edx, 12(%rdi)
.L542:
	cmpl	$1, %eax
	je	.L612
.L477:
	addq	$56, %rsp
	.cfi_remember_state
	.cfi_def_cfa_offset 56
	popq	%rbx
	.cfi_def_cfa_offset 48
	popq	%rbp
	.cfi_def_cfa_offset 40
	popq	%r12
	.cfi_def_cfa_offset 32
	popq	%r13
	.cfi_def_cfa_offset 24
	popq	%r14
	.cfi_def_cfa_offset 16
	popq	%r15
	.cfi_def_cfa_offset 8
	ret
	.p2align 4,,10
	.p2align 3
.L607:
	.cfi_restore_state
	movq	88(%rdi), %rax
	movzbl	84(%rdi), %ebp
	testq	%rax, %rax
	je	.L480
	movq	104(%rdi), %rdx
	leaq	40(%rax), %r15
	movq	%r15, %rdi
	movq	%r15, 24(%rsp)
	movq	40(%rdx), %rsi
	movq	%rsi, 16(%rsp)
	call	pthread_mutex_lock@PLT
	movq	88(%r14), %r9
	cmpb	$0, 144(%r9)
	jne	.L613
	andl	$64, %ebp
	jne	.L614
.L483:
	movq	$0, 8(%rsp)
	xorl	%r15d, %r15d
	movl	$0, 4(%rsp)
.L484:
	movslq	4(%rsp), %rax
	salq	$4, %rax
	movq	96(%rax,%r9), %rbx
	testq	%rbx, %rbx
	je	.L597
	movq	_ZGVZN4asio15system_categoryEvE8instance@GOTPCREL(%rip), %r13
	movq	_ZZN4asio15system_categoryEvE8instance@GOTPCREL(%rip), %rbp
	movq	%rax, %r12
	jmp	.L496
	.p2align 4,,10
	.p2align 3
.L486:
	movq	88(%r14), %r9
	movl	$125, 24(%rbx)
	movq	%rbp, 32(%rbx)
	leaq	(%r9,%r12), %rdi
	movq	96(%rdi), %rax
	testq	%rax, %rax
	je	.L602
	movq	(%rax), %rdx
	movq	%rdx, 96(%rdi)
	testq	%rdx, %rdx
	je	.L491
	movq	$0, (%rax)
	movq	$0, (%rbx)
	testq	%r15, %r15
	je	.L544
	movq	%rbx, (%r15)
.L492:
	movq	%rbx, %r15
	movq	%rdx, %rbx
.L496:
	movzbl	0(%r13), %eax
	testb	%al, %al
	jne	.L486
	movq	%r13, %rdi
	call	__cxa_guard_acquire@PLT
	testl	%eax, %eax
	je	.L486
	movq	_ZN4asio6detail15system_categoryD1Ev@GOTPCREL(%rip), %rdi
	leaq	__dso_handle(%rip), %rdx
	movq	%rbp, %rsi
	call	__cxa_atexit@PLT
	movq	%r13, %rdi
	call	__cxa_guard_release@PLT
	jmp	.L486
	.p2align 4,,10
	.p2align 3
.L613:
	movq	%r15, %rdi
	call	pthread_mutex_unlock@PLT
.L482:
	movl	80(%r14), %ebx
	cmpl	$-1, %ebx
	je	.L479
	movzbl	84(%r14), %ebp
.L480:
	call	__errno_location@PLT
	movq	%rax, %r12
	testb	$8, %bpl
	jne	.L598
	movq	_ZGVZN4asio15system_categoryEvE8instance@GOTPCREL(%rip), %r13
.L513:
	movl	$0, (%r12)
	movl	%ebx, %edi
	call	close@PLT
	movl	%eax, %ebp
	movzbl	0(%r13), %eax
	testb	%al, %al
	je	.L615
.L518:
	testl	%ebp, %ebp
	je	.L479
	movl	(%r12), %ebp
	movzbl	0(%r13), %eax
	testb	%al, %al
	je	.L616
.L521:
	cmpl	$11, %ebp
	je	.L523
.L606:
	movzbl	0(%r13), %eax
	testb	%al, %al
	jne	.L479
	movq	%r13, %rdi
	call	__cxa_guard_acquire@PLT
	testl	%eax, %eax
	je	.L479
	movq	_ZZN4asio15system_categoryEvE8instance@GOTPCREL(%rip), %rsi
	movq	_ZN4asio6detail15system_categoryD1Ev@GOTPCREL(%rip), %rdi
	leaq	__dso_handle(%rip), %rdx
	call	__cxa_atexit@PLT
	movq	%r13, %rdi
	call	__cxa_guard_release@PLT
	jmp	.L479
	.p2align 4,,10
	.p2align 3
.L612:
	movq	(%rdi), %rax
	movq	24(%rax), %rax
	addq	$56, %rsp
	.cfi_remember_state
	.cfi_def_cfa_offset 56
	popq	%rbx
	.cfi_def_cfa_offset 48
	popq	%rbp
	.cfi_def_cfa_offset 40
	popq	%r12
	.cfi_def_cfa_offset 32
	popq	%r13
	.cfi_def_cfa_offset 24
	popq	%r14
	.cfi_def_cfa_offset 16
	popq	%r15
	.cfi_def_cfa_offset 8
.LEHB2:
	jmp	*%rax
.LEHE2:
	.p2align 4,,10
	.p2align 3
.L541:
	.cfi_restore_state
	movl	$-1, %eax
	lock xaddl	%eax, 12(%rdi)
	jmp	.L542
	.p2align 4,,10
	.p2align 3
.L610:
	movq	(%rbx), %rax
	movq	%rbx, %rdi
	movq	$0, 8(%rbx)
	call	*16(%rax)
	movq	(%rbx), %rax
	movq	%rbx, %rdi
	call	*24(%rax)
	jmp	.L534
	.p2align 4,,10
	.p2align 3
.L608:
	movq	(%rbx), %rax
	movq	%rbx, %rdi
	movq	$0, 8(%rbx)
	call	*16(%rax)
	movq	(%rbx), %rax
	movq	%rbx, %rdi
	call	*24(%rax)
	jmp	.L528
	.p2align 4,,10
	.p2align 3
.L491:
	movq	$0, 104(%rdi)
	movq	$0, (%rax)
.L602:
	movq	$0, (%rbx)
	testq	%r15, %r15
	je	.L617
	movq	%rbx, (%r15)
.L494:
	addl	$1, 4(%rsp)
	cmpl	$3, 4(%rsp)
	je	.L495
.L618:
	movq	%rbx, %r15
	jmp	.L484
	.p2align 4,,10
	.p2align 3
.L544:
	movq	%rbx, 8(%rsp)
	jmp	.L492
	.p2align 4,,10
	.p2align 3
.L617:
	addl	$1, 4(%rsp)
	movq	%rbx, 8(%rsp)
	cmpl	$3, 4(%rsp)
	jne	.L618
.L495:
	movl	$-1, 88(%r9)
	movq	24(%rsp), %rdi
	movb	$1, 144(%r9)
	call	pthread_mutex_unlock@PLT
	movq	16(%rsp), %r12
	movq	88(%r14), %rbp
	leaq	120(%r12), %r15
	movq	%r15, %rdi
	call	pthread_mutex_lock@PLT
	cmpq	160(%r12), %rbp
	je	.L619
.L497:
	movq	32(%rbp), %rax
	testq	%rax, %rax
	je	.L498
	movq	24(%rbp), %rdx
	movq	%rdx, 24(%rax)
.L498:
	movq	24(%rbp), %rax
	testq	%rax, %rax
	je	.L499
	movq	32(%rbp), %rdx
	movq	%rdx, 32(%rax)
.L499:
	movq	16(%rsp), %r12
	movq	%r15, %rdi
	movq	168(%r12), %rax
	movq	$0, 32(%rbp)
	movq	%rax, 24(%rbp)
	movq	%rbp, 168(%r12)
	call	pthread_mutex_unlock@PLT
	movq	$0, 88(%r14)
	cmpq	$0, 8(%rsp)
	je	.L482
	movq	40(%r12), %rbp
	cmpb	$0, 40(%rbp)
	je	.L501
	data16	leaq	_ZN4asio6detail15keyword_tss_ptrINS0_10call_stackINS0_15task_io_serviceENS0_27task_io_service_thread_infoEE7contextEE6value_E@tlsgd(%rip), %rdi
	.value	0x6666
	rex64
	call	__tls_get_addr@PLT
	movq	(%rax), %rax
	testq	%rax, %rax
	jne	.L504
	jmp	.L501
	.p2align 4
	.p2align 4,,10
	.p2align 3
.L502:
	movq	16(%rax), %rax
	testq	%rax, %rax
	je	.L501
.L504:
	cmpq	(%rax), %rbp
	jne	.L502
	movq	8(%rax), %rax
	testq	%rax, %rax
	je	.L501
	movq	16(%rax), %rdx
	movq	8(%rsp), %rsi
	testq	%rdx, %rdx
	je	.L505
	movq	%rsi, (%rdx)
.L506:
	movq	%rbx, 16(%rax)
	jmp	.L482
	.p2align 4,,10
	.p2align 3
.L536:
	movl	$-1, %eax
	lock xaddl	%eax, (%rcx)
	jmp	.L537
	.p2align 4,,10
	.p2align 3
.L530:
	movl	$-1, %eax
	lock xaddl	%eax, (%rcx)
	jmp	.L531
	.p2align 4,,10
	.p2align 3
.L615:
	movq	%r13, %rdi
	call	__cxa_guard_acquire@PLT
	testl	%eax, %eax
	je	.L518
	movq	_ZZN4asio15system_categoryEvE8instance@GOTPCREL(%rip), %rsi
	movq	_ZN4asio6detail15system_categoryD1Ev@GOTPCREL(%rip), %rdi
	leaq	__dso_handle(%rip), %rdx
	call	__cxa_atexit@PLT
	movq	%r13, %rdi
	call	__cxa_guard_release@PLT
	jmp	.L518
	.p2align 4,,10
	.p2align 3
.L598:
	orl	$8, %ebp
	leaq	32(%rsp), %rcx
	movl	$8, %r8d
	movl	%ebx, %edi
	movb	%bpl, 84(%r14)
	movl	$13, %edx
	movl	$1, %esi
	movq	$0, 32(%rsp)
	movl	$0, (%rax)
	call	setsockopt@PLT
	movq	_ZGVZN4asio15system_categoryEvE8instance@GOTPCREL(%rip), %r13
	movzbl	0(%r13), %eax
	testb	%al, %al
	jne	.L513
	movq	%r13, %rdi
	call	__cxa_guard_acquire@PLT
	testl	%eax, %eax
	je	.L513
	movq	_ZZN4asio15system_categoryEvE8instance@GOTPCREL(%rip), %rsi
	movq	_ZN4asio6detail15system_categoryD1Ev@GOTPCREL(%rip), %rdi
	leaq	__dso_handle(%rip), %rdx
	call	__cxa_atexit@PLT
	movq	%r13, %rdi
	call	__cxa_guard_release@PLT
	jmp	.L513
	.p2align 4,,10
	.p2align 3
.L501:
	leaq	48(%rbp), %r13
	movq	%r13, %rdi
	call	pthread_mutex_lock@PLT
	movq	200(%rbp), %rax
	testq	%rax, %rax
	je	.L507
	movq	8(%rsp), %rsi
	movq	%rsi, (%rax)
.L508:
	movq	136(%rbp), %rax
	movq	%rbx, 200(%rbp)
	movq	%rax, %rdx
	orq	$1, %rdx
	movq	%rdx, 136(%rbp)
	cmpq	$1, %rax
	ja	.L620
	cmpb	$0, 176(%rbp)
	jne	.L511
	movq	144(%rbp), %rax
	testq	%rax, %rax
	je	.L511
	movb	$1, 176(%rbp)
	leaq	88(%rax), %rdx
	leaq	32(%rsp), %rcx
	movl	$3, %esi
	movq	%rdx, 36(%rsp)
	movl	88(%rax), %edx
	movl	$-2147483639, 32(%rsp)
	movl	96(%rax), %edi
	call	epoll_ctl@PLT
.L511:
	movq	%r13, %rdi
	call	pthread_mutex_unlock@PLT
	jmp	.L482
	.p2align 4,,10
	.p2align 3
.L614:
	movq	16(%rsp), %rax
	movl	$0, 32(%rsp)
	leaq	32(%rsp), %rcx
	movl	%ebx, %edx
	movq	$0, 36(%rsp)
	movl	$2, %esi
	movl	96(%rax), %edi
	call	epoll_ctl@PLT
	movq	88(%r14), %r9
	jmp	.L483
	.p2align 4,,10
	.p2align 3
.L597:
	movq	%r15, %rbx
	jmp	.L494
	.p2align 4,,10
	.p2align 3
.L619:
	movq	24(%rbp), %rax
	movq	16(%rsp), %rsi
	movq	%rax, 160(%rsi)
	jmp	.L497
	.p2align 4,,10
	.p2align 3
.L609:
	movq	%rbx, %rdi
	call	_ZNSt16_Sp_counted_baseILN9__gnu_cxx12_Lock_policyE2EE24_M_release_last_use_coldEv@PLT
	jmp	.L528
	.p2align 4,,10
	.p2align 3
.L611:
	movq	%rbx, %rdi
	call	_ZNSt16_Sp_counted_baseILN9__gnu_cxx12_Lock_policyE2EE24_M_release_last_use_coldEv@PLT
	jmp	.L534
.L620:
	movq	%r13, %rdi
	call	pthread_mutex_unlock@PLT
	leaq	88(%rbp), %rdi
	call	pthread_cond_signal@PLT
	jmp	.L482
.L616:
	movq	%r13, %rdi
	call	__cxa_guard_acquire@PLT
	testl	%eax, %eax
	je	.L521
	movq	_ZZN4asio15system_categoryEvE8instance@GOTPCREL(%rip), %rsi
	movq	_ZN4asio6detail15system_categoryD1Ev@GOTPCREL(%rip), %rdi
	leaq	__dso_handle(%rip), %rdx
	call	__cxa_atexit@PLT
	movq	%r13, %rdi
	call	__cxa_guard_release@PLT
	jmp	.L521
.L523:
	movl	%ebx, %edi
	leaq	32(%rsp), %rdx
	movl	$21537, %esi
	xorl	%eax, %eax
	movl	$0, 32(%rsp)
	call	ioctl@PLT
	andb	$-4, 84(%r14)
	movl	%ebx, %edi
	movl	$0, (%r12)
	call	close@PLT
	jmp	.L606
.L507:
	movq	8(%rsp), %rax
	movq	%rax, 192(%rbp)
	jmp	.L508
.L505:
	movq	%rsi, 8(%rax)
	jmp	.L506
	.cfi_endproc
.LFE11062:
	.section	.gcc_except_table
.LLSDA11062:
	.byte	0xff
	.byte	0xff
	.byte	0x1
	.uleb128 .LLSDACSE11062-.LLSDACSB11062
.LLSDACSB11062:
	.uleb128 .LEHB2-.LFB11062
	.uleb128 .LEHE2-.LEHB2
	.uleb128 0
	.uleb128 0
.LLSDACSE11062:
	.section	.text._ZNSt23_Sp_counted_ptr_inplaceIN7asiopal13SocketChannelESaIvELN9__gnu_cxx12_Lock_policyE2EE10_M_disposeEv,"axG",@progbits,_ZNSt23_Sp_counted_ptr_inplaceIN7asiopal13SocketChannelESaIvELN9__gnu_cxx12_Lock_policyE2EE10_M_disposeEv,comdat
	.size	_ZNSt23_Sp_counted_ptr_inplaceIN7asiopal13SocketChannelESaIvELN9__gnu_cxx12_Lock_policyE2EE10_M_disposeEv, .-_ZNSt23_Sp_counted_ptr_inplaceIN7asiopal13SocketChannelESaIvELN9__gnu_cxx12_Lock_policyE2EE10_M_disposeEv
	.section	.text._ZN8asiodnp315MasterTCPServerD2Ev,"axG",@progbits,_ZN8asiodnp315MasterTCPServerD5Ev,comdat
	.align 2
	.p2align 4
	.weak	_ZN8asiodnp315MasterTCPServerD2Ev
	.type	_ZN8asiodnp315MasterTCPServerD2Ev, @function
_ZN8asiodnp315MasterTCPServerD2Ev:
.LFB11015:
	.cfi_startproc
	.cfi_personality 0x9b,DW.ref.__gxx_personality_v0
	.cfi_lsda 0x1b,.LLSDA11015
	pushq	%r15
	.cfi_def_cfa_offset 16
	.cfi_offset 15, -16
	pushq	%r14
	.cfi_def_cfa_offset 24
	.cfi_offset 14, -24
	pushq	%r13
	.cfi_def_cfa_offset 32
	.cfi_offset 13, -32
	pushq	%r12
	.cfi_def_cfa_offset 40
	.cfi_offset 12, -40
	pushq	%rbp
	.cfi_def_cfa_offset 48
	.cfi_offset 6, -48
	movq	%rdi, %rbp
	pushq	%rbx
	.cfi_def_cfa_offset 56
	.cfi_offset 3, -56
	subq	$56, %rsp
	.cfi_def_cfa_offset 112
	movq	_ZTVN8asiodnp315MasterTCPServerE@GOTPCREL(%rip), %rax
	movq	232(%rdi), %rbx
	addq	$16, %rax
	movq	%rax, (%rdi)
	testq	%rbx, %rbx
	je	.L623
	movq	8(%rbx), %rdx
	leaq	8(%rbx), %rcx
	movabsq	$4294967297, %rax
	cmpq	%rax, %rdx
	je	.L880
	movq	__libc_single_threaded@GOTPCREL(%rip), %rax
	cmpb	$0, (%rax)
	je	.L625
	movl	8(%rbx), %eax
	leal	-1(%rax), %edx
	movl	%edx, 8(%rbx)
.L626:
	cmpl	$1, %eax
	je	.L881
.L623:
	movq	216(%rbp), %rbx
	testq	%rbx, %rbx
	je	.L629
	movq	8(%rbx), %rdx
	leaq	8(%rbx), %rcx
	movabsq	$4294967297, %rax
	cmpq	%rax, %rdx
	je	.L882
	movq	__libc_single_threaded@GOTPCREL(%rip), %rax
	cmpb	$0, (%rax)
	je	.L631
	movl	8(%rbx), %eax
	leal	-1(%rax), %edx
	movl	%edx, 8(%rbx)
.L632:
	cmpl	$1, %eax
	je	.L883
.L629:
	movq	_ZTVN7asiopal9TCPServerE@GOTPCREL(%rip), %rax
	movl	136(%rbp), %ebx
	addq	$16, %rax
	movq	%rax, 0(%rbp)
	cmpl	$-1, %ebx
	jne	.L884
.L635:
	movl	104(%rbp), %ebx
	cmpl	$-1, %ebx
	jne	.L885
.L684:
	movq	64(%rbp), %rbx
	testq	%rbx, %rbx
	je	.L733
	movq	8(%rbx), %rdx
	leaq	8(%rbx), %rcx
	movabsq	$4294967297, %rax
	cmpq	%rax, %rdx
	je	.L886
	movq	__libc_single_threaded@GOTPCREL(%rip), %rax
	cmpb	$0, (%rax)
	je	.L735
	movl	8(%rbx), %eax
	leal	-1(%rax), %edx
	movl	%edx, 8(%rbx)
.L736:
	cmpl	$1, %eax
	je	.L887
.L733:
	movq	48(%rbp), %rbx
	testq	%rbx, %rbx
	je	.L739
	movq	8(%rbx), %rdx
	leaq	8(%rbx), %rcx
	movabsq	$4294967297, %rax
	cmpq	%rax, %rdx
	je	.L888
	movq	__libc_single_threaded@GOTPCREL(%rip), %rax
	cmpb	$0, (%rax)
	je	.L741
	movl	8(%rbx), %eax
	leal	-1(%rax), %edx
	movl	%edx, 8(%rbx)
.L742:
	cmpl	$1, %eax
	je	.L889
.L739:
	movq	32(%rbp), %rbx
	testq	%rbx, %rbx
	je	.L745
	movq	8(%rbx), %rdx
	leaq	8(%rbx), %rcx
	movabsq	$4294967297, %rax
	cmpq	%rax, %rdx
	je	.L890
	movq	__libc_single_threaded@GOTPCREL(%rip), %rax
	cmpb	$0, (%rax)
	je	.L747
	movl	8(%rbx), %eax
	leal	-1(%rax), %edx
	movl	%edx, 8(%rbx)
.L748:
	cmpl	$1, %eax
	je	.L891
.L745:
	movq	16(%rbp), %rdi
	testq	%rdi, %rdi
	je	.L621
	movq	__libc_single_threaded@GOTPCREL(%rip), %rax
	cmpb	$0, (%rax)
	je	.L752
	movl	12(%rdi), %eax
	leal	-1(%rax), %edx
	movl	%edx, 12(%rdi)
.L753:
	cmpl	$1, %eax
	je	.L892
.L621:
	addq	$56, %rsp
	.cfi_remember_state
	.cfi_def_cfa_offset 56
	popq	%rbx
	.cfi_def_cfa_offset 48
	popq	%rbp
	.cfi_def_cfa_offset 40
	popq	%r12
	.cfi_def_cfa_offset 32
	popq	%r13
	.cfi_def_cfa_offset 24
	popq	%r14
	.cfi_def_cfa_offset 16
	popq	%r15
	.cfi_def_cfa_offset 8
	ret
	.p2align 4,,10
	.p2align 3
.L885:
	.cfi_restore_state
	movq	112(%rbp), %rax
	movzbl	108(%rbp), %r12d
	testq	%rax, %rax
	je	.L685
	movq	128(%rbp), %rdx
	addq	$40, %rax
	movq	%rax, %rdi
	movq	%rax, 24(%rsp)
	movq	40(%rdx), %rsi
	movq	%rsi, 16(%rsp)
	call	pthread_mutex_lock@PLT
	movq	112(%rbp), %r9
	cmpb	$0, 144(%r9)
	jne	.L686
	andl	$64, %r12d
	jne	.L893
.L687:
	movq	$0, 8(%rsp)
	xorl	%r13d, %r13d
	movl	$0, 4(%rsp)
.L688:
	movslq	4(%rsp), %rax
	salq	$4, %rax
	movq	96(%rax,%r9), %rbx
	testq	%rbx, %rbx
	je	.L863
	movq	_ZGVZN4asio15system_categoryEvE8instance@GOTPCREL(%rip), %r15
	movq	_ZZN4asio15system_categoryEvE8instance@GOTPCREL(%rip), %r14
	movq	%rax, %r12
	jmp	.L700
	.p2align 4,,10
	.p2align 3
.L690:
	movq	112(%rbp), %r9
	movl	$125, 24(%rbx)
	movq	%r14, 32(%rbx)
	leaq	(%r9,%r12), %rdi
	movq	96(%rdi), %rax
	testq	%rax, %rax
	je	.L873
	movq	(%rax), %rdx
	movq	%rdx, 96(%rdi)
	testq	%rdx, %rdx
	je	.L696
	movq	$0, (%rax)
	movq	$0, (%rbx)
	testq	%r13, %r13
	je	.L756
	movq	%rbx, 0(%r13)
.L697:
	movq	%rbx, %r13
	movq	%rdx, %rbx
.L700:
	movzbl	(%r15), %eax
	testb	%al, %al
	jne	.L690
	movq	%r15, %rdi
	call	__cxa_guard_acquire@PLT
	testl	%eax, %eax
	je	.L690
	movq	_ZN4asio6detail15system_categoryD1Ev@GOTPCREL(%rip), %rdi
	leaq	__dso_handle(%rip), %rdx
	movq	%r14, %rsi
	call	__cxa_atexit@PLT
	movq	%r15, %rdi
	call	__cxa_guard_release@PLT
	jmp	.L690
	.p2align 4,,10
	.p2align 3
.L884:
	movq	144(%rbp), %rax
	movzbl	140(%rbp), %r12d
	testq	%rax, %rax
	je	.L636
	movq	160(%rbp), %rdx
	leaq	40(%rax), %r14
	movq	%r14, %rdi
	movq	%r14, 24(%rsp)
	movq	40(%rdx), %rsi
	movq	%rsi, 16(%rsp)
	call	pthread_mutex_lock@PLT
	movq	144(%rbp), %r9
	cmpb	$0, 144(%r9)
	jne	.L667
	andl	$64, %r12d
	jne	.L894
.L639:
	movq	$0, 8(%rsp)
	xorl	%r13d, %r13d
	movl	$0, 4(%rsp)
.L640:
	movslq	4(%rsp), %rax
	salq	$4, %rax
	movq	96(%rax,%r9), %rbx
	testq	%rbx, %rbx
	je	.L861
	movq	_ZGVZN4asio15system_categoryEvE8instance@GOTPCREL(%rip), %r15
	movq	_ZZN4asio15system_categoryEvE8instance@GOTPCREL(%rip), %r14
	movq	%rax, %r12
	jmp	.L652
	.p2align 4,,10
	.p2align 3
.L642:
	movq	144(%rbp), %r9
	movl	$125, 24(%rbx)
	movq	%r14, 32(%rbx)
	leaq	(%r9,%r12), %rdi
	movq	96(%rdi), %rax
	testq	%rax, %rax
	je	.L870
	movq	(%rax), %rdx
	movq	%rdx, 96(%rdi)
	testq	%rdx, %rdx
	je	.L647
	movq	$0, (%rax)
	movq	$0, (%rbx)
	testq	%r13, %r13
	je	.L755
	movq	%rbx, 0(%r13)
.L648:
	movq	%rbx, %r13
	movq	%rdx, %rbx
.L652:
	movzbl	(%r15), %eax
	testb	%al, %al
	jne	.L642
	movq	%r15, %rdi
	call	__cxa_guard_acquire@PLT
	testl	%eax, %eax
	je	.L642
	movq	_ZN4asio6detail15system_categoryD1Ev@GOTPCREL(%rip), %rdi
	leaq	__dso_handle(%rip), %rdx
	movq	%r14, %rsi
	call	__cxa_atexit@PLT
	movq	%r15, %rdi
	call	__cxa_guard_release@PLT
	jmp	.L642
	.p2align 4,,10
	.p2align 3
.L657:
	leaq	48(%r12), %r14
	movq	%r14, %rdi
	call	pthread_mutex_lock@PLT
	movq	200(%r12), %rax
	testq	%rax, %rax
	je	.L663
	movq	8(%rsp), %rsi
	movq	%rsi, (%rax)
.L664:
	movq	136(%r12), %rax
	movq	%rbx, 200(%r12)
	movq	%rax, %rdx
	orq	$1, %rdx
	movq	%rdx, 136(%r12)
	cmpq	$1, %rax
	ja	.L895
	cmpb	$0, 176(%r12)
	jne	.L667
	movq	144(%r12), %rax
	testq	%rax, %rax
	je	.L667
	leaq	88(%rax), %rdx
	leaq	32(%rsp), %rcx
	movl	$3, %esi
	movb	$1, 176(%r12)
	movq	%rdx, 36(%rsp)
	movl	88(%rax), %edx
	movl	$-2147483639, 32(%rsp)
	movl	96(%rax), %edi
	call	epoll_ctl@PLT
	.p2align 4
	.p2align 3
.L667:
	movq	%r14, %rdi
	call	pthread_mutex_unlock@PLT
.L638:
	movl	136(%rbp), %ebx
	cmpl	$-1, %ebx
	je	.L635
	movzbl	140(%rbp), %r12d
.L636:
	call	__errno_location@PLT
	movq	%rax, %r13
	testb	$8, %r12b
	jne	.L862
	movq	_ZGVZN4asio15system_categoryEvE8instance@GOTPCREL(%rip), %r15
.L669:
	movl	$0, 0(%r13)
	movl	%ebx, %edi
	call	close@PLT
	movl	%eax, %r12d
	movzbl	(%r15), %eax
	testb	%al, %al
	je	.L896
.L674:
	testl	%r12d, %r12d
	je	.L635
	movl	0(%r13), %r12d
	movzbl	(%r15), %eax
	testb	%al, %al
	je	.L897
.L677:
	cmpl	$11, %r12d
	je	.L679
.L877:
	movzbl	(%r15), %eax
	testb	%al, %al
	jne	.L635
	movq	%r15, %rdi
	call	__cxa_guard_acquire@PLT
	testl	%eax, %eax
	je	.L635
	movq	_ZZN4asio15system_categoryEvE8instance@GOTPCREL(%rip), %rsi
	movq	_ZN4asio6detail15system_categoryD1Ev@GOTPCREL(%rip), %rdi
	leaq	__dso_handle(%rip), %rdx
	call	__cxa_atexit@PLT
	movq	%r15, %rdi
	call	__cxa_guard_release@PLT
	jmp	.L635
	.p2align 4,,10
	.p2align 3
.L686:
	movq	24(%rsp), %rdi
	call	pthread_mutex_unlock@PLT
.L716:
	movl	104(%rbp), %ebx
	cmpl	$-1, %ebx
	je	.L684
	movzbl	108(%rbp), %r12d
.L685:
	call	__errno_location@PLT
	movq	%rax, %r13
	testb	$8, %r12b
	jne	.L864
	movq	_ZGVZN4asio15system_categoryEvE8instance@GOTPCREL(%rip), %r15
.L718:
	movl	$0, 0(%r13)
	movl	%ebx, %edi
	call	close@PLT
	movl	%eax, %r12d
	movzbl	(%r15), %eax
	testb	%al, %al
	je	.L898
.L723:
	testl	%r12d, %r12d
	je	.L684
	movl	0(%r13), %r12d
	movzbl	(%r15), %eax
	testb	%al, %al
	je	.L899
.L726:
	cmpl	$11, %r12d
	je	.L728
.L879:
	movzbl	(%r15), %eax
	testb	%al, %al
	jne	.L684
	movq	%r15, %rdi
	call	__cxa_guard_acquire@PLT
	testl	%eax, %eax
	je	.L684
	movq	_ZZN4asio15system_categoryEvE8instance@GOTPCREL(%rip), %rsi
	movq	_ZN4asio6detail15system_categoryD1Ev@GOTPCREL(%rip), %rdi
	leaq	__dso_handle(%rip), %rdx
	call	__cxa_atexit@PLT
	movq	%r15, %rdi
	call	__cxa_guard_release@PLT
	jmp	.L684
	.p2align 4,,10
	.p2align 3
.L892:
	movq	(%rdi), %rax
	movq	24(%rax), %rax
	addq	$56, %rsp
	.cfi_remember_state
	.cfi_def_cfa_offset 56
	popq	%rbx
	.cfi_def_cfa_offset 48
	popq	%rbp
	.cfi_def_cfa_offset 40
	popq	%r12
	.cfi_def_cfa_offset 32
	popq	%r13
	.cfi_def_cfa_offset 24
	popq	%r14
	.cfi_def_cfa_offset 16
	popq	%r15
	.cfi_def_cfa_offset 8
.LEHB3:
	jmp	*%rax
.LEHE3:
	.p2align 4,,10
	.p2align 3
.L752:
	.cfi_restore_state
	movl	$-1, %eax
	lock xaddl	%eax, 12(%rdi)
	jmp	.L753
	.p2align 4,,10
	.p2align 3
.L882:
	movq	(%rbx), %rax
	movq	%rbx, %rdi
	movq	$0, 8(%rbx)
	call	*16(%rax)
	movq	(%rbx), %rax
	movq	%rbx, %rdi
	call	*24(%rax)
	jmp	.L629
	.p2align 4,,10
	.p2align 3
.L886:
	movq	(%rbx), %rax
	movq	%rbx, %rdi
	movq	$0, 8(%rbx)
	call	*16(%rax)
	movq	(%rbx), %rax
	movq	%rbx, %rdi
	call	*24(%rax)
	jmp	.L733
	.p2align 4,,10
	.p2align 3
.L880:
	movq	(%rbx), %rax
	movq	%rbx, %rdi
	movq	$0, 8(%rbx)
	call	*16(%rax)
	movq	(%rbx), %rax
	movq	%rbx, %rdi
	call	*24(%rax)
	jmp	.L623
	.p2align 4,,10
	.p2align 3
.L888:
	movq	(%rbx), %rax
	movq	%rbx, %rdi
	movq	$0, 8(%rbx)
	call	*16(%rax)
	movq	(%rbx), %rax
	movq	%rbx, %rdi
	call	*24(%rax)
	jmp	.L739
	.p2align 4,,10
	.p2align 3
.L890:
	movq	(%rbx), %rax
	movq	%rbx, %rdi
	movq	$0, 8(%rbx)
	call	*16(%rax)
	movq	(%rbx), %rax
	movq	%rbx, %rdi
	call	*24(%rax)
	jmp	.L745
	.p2align 4,,10
	.p2align 3
.L647:
	movq	$0, 104(%rdi)
	movq	$0, (%rax)
.L870:
	movq	$0, (%rbx)
	testq	%r13, %r13
	je	.L900
	movq	%rbx, 0(%r13)
.L650:
	addl	$1, 4(%rsp)
	cmpl	$3, 4(%rsp)
	je	.L651
.L901:
	movq	%rbx, %r13
	jmp	.L640
	.p2align 4,,10
	.p2align 3
.L696:
	movq	$0, 104(%rdi)
	movq	$0, (%rax)
.L873:
	movq	$0, (%rbx)
	testq	%r13, %r13
	je	.L698
	movq	%rbx, 0(%r13)
.L694:
	addl	$1, 4(%rsp)
	cmpl	$3, 4(%rsp)
	je	.L699
.L903:
	movq	%rbx, %r13
	jmp	.L688
	.p2align 4,,10
	.p2align 3
.L755:
	movq	%rbx, 8(%rsp)
	jmp	.L648
	.p2align 4,,10
	.p2align 3
.L756:
	movq	%rbx, 8(%rsp)
	jmp	.L697
	.p2align 4,,10
	.p2align 3
.L900:
	addl	$1, 4(%rsp)
	movq	%rbx, 8(%rsp)
	cmpl	$3, 4(%rsp)
	jne	.L901
.L651:
	movl	$-1, 88(%r9)
	movq	24(%rsp), %rdi
	movb	$1, 144(%r9)
	call	pthread_mutex_unlock@PLT
	movq	16(%rsp), %r14
	movq	144(%rbp), %r12
	leaq	120(%r14), %r15
	movq	%r15, %rdi
	call	pthread_mutex_lock@PLT
	cmpq	160(%r14), %r12
	je	.L902
.L653:
	movq	32(%r12), %rax
	testq	%rax, %rax
	je	.L654
	movq	24(%r12), %rdx
	movq	%rdx, 24(%rax)
.L654:
	movq	24(%r12), %rax
	testq	%rax, %rax
	je	.L655
	movq	32(%r12), %rdx
	movq	%rdx, 32(%rax)
.L655:
	movq	16(%rsp), %r14
	movq	%r15, %rdi
	movq	168(%r14), %rax
	movq	$0, 32(%r12)
	movq	%rax, 24(%r12)
	movq	%r12, 168(%r14)
	call	pthread_mutex_unlock@PLT
	movq	$0, 144(%rbp)
	cmpq	$0, 8(%rsp)
	je	.L638
	movq	40(%r14), %r12
	cmpb	$0, 40(%r12)
	je	.L657
	data16	leaq	_ZN4asio6detail15keyword_tss_ptrINS0_10call_stackINS0_15task_io_serviceENS0_27task_io_service_thread_infoEE7contextEE6value_E@tlsgd(%rip), %rdi
	.value	0x6666
	rex64
	call	__tls_get_addr@PLT
	movq	(%rax), %rax
	testq	%rax, %rax
	jne	.L660
	jmp	.L657
	.p2align 4
	.p2align 4,,10
	.p2align 3
.L658:
	movq	16(%rax), %rax
	testq	%rax, %rax
	je	.L657
.L660:
	cmpq	(%rax), %r12
	jne	.L658
	movq	8(%rax), %rax
	testq	%rax, %rax
	je	.L657
	movq	16(%rax), %rdx
	movq	8(%rsp), %rsi
	testq	%rdx, %rdx
	je	.L661
	movq	%rsi, (%rdx)
.L662:
	movq	%rbx, 16(%rax)
	jmp	.L638
	.p2align 4,,10
	.p2align 3
.L698:
	addl	$1, 4(%rsp)
	movq	%rbx, 8(%rsp)
	cmpl	$3, 4(%rsp)
	jne	.L903
.L699:
	movl	$-1, 88(%r9)
	movq	24(%rsp), %rdi
	movb	$1, 144(%r9)
	call	pthread_mutex_unlock@PLT
	movq	16(%rsp), %r14
	movq	112(%rbp), %r12
	leaq	120(%r14), %r15
	movq	%r15, %rdi
	call	pthread_mutex_lock@PLT
	cmpq	160(%r14), %r12
	je	.L904
.L701:
	movq	32(%r12), %rax
	testq	%rax, %rax
	je	.L702
	movq	24(%r12), %rdx
	movq	%rdx, 24(%rax)
.L702:
	movq	24(%r12), %rax
	testq	%rax, %rax
	je	.L703
	movq	32(%r12), %rdx
	movq	%rdx, 32(%rax)
.L703:
	movq	16(%rsp), %r14
	movq	%r15, %rdi
	movq	168(%r14), %rax
	movq	$0, 32(%r12)
	movq	%rax, 24(%r12)
	movq	%r12, 168(%r14)
	call	pthread_mutex_unlock@PLT
	movq	$0, 112(%rbp)
	cmpq	$0, 8(%rsp)
	je	.L716
	movq	40(%r14), %r12
	cmpb	$0, 40(%r12)
	je	.L705
	data16	leaq	_ZN4asio6detail15keyword_tss_ptrINS0_10call_stackINS0_15task_io_serviceENS0_27task_io_service_thread_infoEE7contextEE6value_E@tlsgd(%rip), %rdi
	.value	0x6666
	rex64
	call	__tls_get_addr@PLT
	movq	(%rax), %rax
	testq	%rax, %rax
	jne	.L708
	jmp	.L705
	.p2align 4
	.p2align 4,,10
	.p2align 3
.L706:
	movq	16(%rax), %rax
	testq	%rax, %rax
	je	.L705
.L708:
	cmpq	(%rax), %r12
	jne	.L706
	movq	8(%rax), %rax
	testq	%rax, %rax
	je	.L705
	movq	16(%rax), %rdx
	movq	8(%rsp), %rsi
	testq	%rdx, %rdx
	je	.L709
	movq	%rsi, (%rdx)
.L710:
	movq	%rbx, 16(%rax)
	jmp	.L716
	.p2align 4,,10
	.p2align 3
.L735:
	movl	$-1, %eax
	lock xaddl	%eax, (%rcx)
	jmp	.L736
	.p2align 4,,10
	.p2align 3
.L747:
	movl	$-1, %eax
	lock xaddl	%eax, (%rcx)
	jmp	.L748
	.p2align 4,,10
	.p2align 3
.L625:
	movl	$-1, %eax
	lock xaddl	%eax, (%rcx)
	jmp	.L626
	.p2align 4,,10
	.p2align 3
.L631:
	movl	$-1, %eax
	lock xaddl	%eax, (%rcx)
	jmp	.L632
	.p2align 4,,10
	.p2align 3
.L741:
	movl	$-1, %eax
	lock xaddl	%eax, (%rcx)
	jmp	.L742
	.p2align 4,,10
	.p2align 3
.L896:
	movq	%r15, %rdi
	call	__cxa_guard_acquire@PLT
	testl	%eax, %eax
	je	.L674
	movq	_ZZN4asio15system_categoryEvE8instance@GOTPCREL(%rip), %rsi
	movq	_ZN4asio6detail15system_categoryD1Ev@GOTPCREL(%rip), %rdi
	leaq	__dso_handle(%rip), %rdx
	call	__cxa_atexit@PLT
	movq	%r15, %rdi
	call	__cxa_guard_release@PLT
	jmp	.L674
	.p2align 4,,10
	.p2align 3
.L862:
	orl	$8, %r12d
	leaq	32(%rsp), %rcx
	movl	$13, %edx
	movl	%ebx, %edi
	movq	$0, 32(%rsp)
	movl	$8, %r8d
	movl	$1, %esi
	movb	%r12b, 140(%rbp)
	movl	$0, (%rax)
	call	setsockopt@PLT
	movq	_ZGVZN4asio15system_categoryEvE8instance@GOTPCREL(%rip), %r15
	movzbl	(%r15), %eax
	testb	%al, %al
	jne	.L669
	movq	%r15, %rdi
	call	__cxa_guard_acquire@PLT
	testl	%eax, %eax
	je	.L669
	movq	_ZZN4asio15system_categoryEvE8instance@GOTPCREL(%rip), %rsi
	movq	_ZN4asio6detail15system_categoryD1Ev@GOTPCREL(%rip), %rdi
	leaq	__dso_handle(%rip), %rdx
	call	__cxa_atexit@PLT
	movq	%r15, %rdi
	call	__cxa_guard_release@PLT
	jmp	.L669
	.p2align 4,,10
	.p2align 3
.L898:
	movq	%r15, %rdi
	call	__cxa_guard_acquire@PLT
	testl	%eax, %eax
	je	.L723
	movq	_ZZN4asio15system_categoryEvE8instance@GOTPCREL(%rip), %rsi
	movq	_ZN4asio6detail15system_categoryD1Ev@GOTPCREL(%rip), %rdi
	leaq	__dso_handle(%rip), %rdx
	call	__cxa_atexit@PLT
	movq	%r15, %rdi
	call	__cxa_guard_release@PLT
	jmp	.L723
	.p2align 4,,10
	.p2align 3
.L864:
	orl	$8, %r12d
	leaq	32(%rsp), %rcx
	movl	$13, %edx
	movl	%ebx, %edi
	movb	%r12b, 108(%rbp)
	movl	$8, %r8d
	movl	$1, %esi
	movq	$0, 32(%rsp)
	movl	$0, (%rax)
	call	setsockopt@PLT
	movq	_ZGVZN4asio15system_categoryEvE8instance@GOTPCREL(%rip), %r15
	movzbl	(%r15), %eax
	testb	%al, %al
	jne	.L718
	movq	%r15, %rdi
	call	__cxa_guard_acquire@PLT
	testl	%eax, %eax
	je	.L718
	movq	_ZZN4asio15system_categoryEvE8instance@GOTPCREL(%rip), %rsi
	movq	_ZN4asio6detail15system_categoryD1Ev@GOTPCREL(%rip), %rdi
	leaq	__dso_handle(%rip), %rdx
	call	__cxa_atexit@PLT
	movq	%r15, %rdi
	call	__cxa_guard_release@PLT
	jmp	.L718
	.p2align 4,,10
	.p2align 3
.L705:
	leaq	48(%r12), %r14
	movq	%r14, %rdi
	call	pthread_mutex_lock@PLT
	movq	200(%r12), %rax
	testq	%rax, %rax
	je	.L711
	movq	8(%rsp), %rsi
	movq	%rsi, (%rax)
.L712:
	movq	136(%r12), %rax
	movq	%rbx, 200(%r12)
	movq	%rax, %rdx
	orq	$1, %rdx
	movq	%rdx, 136(%r12)
	cmpq	$1, %rax
	ja	.L905
	cmpb	$0, 176(%r12)
	jne	.L715
	movq	144(%r12), %rax
	testq	%rax, %rax
	je	.L715
	leaq	88(%rax), %rdx
	leaq	32(%rsp), %rcx
	movl	$3, %esi
	movb	$1, 176(%r12)
	movq	%rdx, 36(%rsp)
	movl	88(%rax), %edx
	movl	$-2147483639, 32(%rsp)
	movl	96(%rax), %edi
	call	epoll_ctl@PLT
.L715:
	movq	%r14, %rdi
	call	pthread_mutex_unlock@PLT
	jmp	.L716
	.p2align 4,,10
	.p2align 3
.L861:
	movq	%r13, %rbx
	jmp	.L650
	.p2align 4,,10
	.p2align 3
.L894:
	movq	16(%rsp), %rax
	movl	$0, 32(%rsp)
	leaq	32(%rsp), %rcx
	movl	%ebx, %edx
	movq	$0, 36(%rsp)
	movl	$2, %esi
	movl	96(%rax), %edi
	call	epoll_ctl@PLT
	movq	144(%rbp), %r9
	jmp	.L639
	.p2align 4,,10
	.p2align 3
.L893:
	movq	16(%rsp), %rax
	movl	$0, 32(%rsp)
	leaq	32(%rsp), %rcx
	movl	%ebx, %edx
	movq	$0, 36(%rsp)
	movl	$2, %esi
	movl	96(%rax), %edi
	call	epoll_ctl@PLT
	movq	112(%rbp), %r9
	jmp	.L687
	.p2align 4,,10
	.p2align 3
.L863:
	movq	%r13, %rbx
	jmp	.L694
	.p2align 4,,10
	.p2align 3
.L902:
	movq	24(%r12), %rax
	movq	16(%rsp), %rsi
	movq	%rax, 160(%rsi)
	jmp	.L653
	.p2align 4,,10
	.p2align 3
.L904:
	movq	24(%r12), %rax
	movq	16(%rsp), %rsi
	movq	%rax, 160(%rsi)
	jmp	.L701
	.p2align 4,,10
	.p2align 3
.L881:
	movq	%rbx, %rdi
	call	_ZNSt16_Sp_counted_baseILN9__gnu_cxx12_Lock_policyE2EE24_M_release_last_use_coldEv@PLT
	jmp	.L623
	.p2align 4,,10
	.p2align 3
.L891:
	movq	%rbx, %rdi
	call	_ZNSt16_Sp_counted_baseILN9__gnu_cxx12_Lock_policyE2EE24_M_release_last_use_coldEv@PLT
	jmp	.L745
	.p2align 4,,10
	.p2align 3
.L889:
	movq	%rbx, %rdi
	call	_ZNSt16_Sp_counted_baseILN9__gnu_cxx12_Lock_policyE2EE24_M_release_last_use_coldEv@PLT
	jmp	.L739
	.p2align 4,,10
	.p2align 3
.L887:
	movq	%rbx, %rdi
	call	_ZNSt16_Sp_counted_baseILN9__gnu_cxx12_Lock_policyE2EE24_M_release_last_use_coldEv@PLT
	jmp	.L733
	.p2align 4,,10
	.p2align 3
.L883:
	movq	%rbx, %rdi
	call	_ZNSt16_Sp_counted_baseILN9__gnu_cxx12_Lock_policyE2EE24_M_release_last_use_coldEv@PLT
	jmp	.L629
.L895:
	movq	%r14, %rdi
	call	pthread_mutex_unlock@PLT
	leaq	88(%r12), %rdi
	call	pthread_cond_signal@PLT
	jmp	.L638
.L905:
	movq	%r14, %rdi
	call	pthread_mutex_unlock@PLT
	leaq	88(%r12), %rdi
	call	pthread_cond_signal@PLT
	jmp	.L716
.L897:
	movq	%r15, %rdi
	call	__cxa_guard_acquire@PLT
	testl	%eax, %eax
	je	.L677
	movq	_ZZN4asio15system_categoryEvE8instance@GOTPCREL(%rip), %rsi
	movq	_ZN4asio6detail15system_categoryD1Ev@GOTPCREL(%rip), %rdi
	leaq	__dso_handle(%rip), %rdx
	call	__cxa_atexit@PLT
	movq	%r15, %rdi
	call	__cxa_guard_release@PLT
	jmp	.L677
.L899:
	movq	%r15, %rdi
	call	__cxa_guard_acquire@PLT
	testl	%eax, %eax
	je	.L726
	movq	_ZZN4asio15system_categoryEvE8instance@GOTPCREL(%rip), %rsi
	movq	_ZN4asio6detail15system_categoryD1Ev@GOTPCREL(%rip), %rdi
	leaq	__dso_handle(%rip), %rdx
	call	__cxa_atexit@PLT
	movq	%r15, %rdi
	call	__cxa_guard_release@PLT
	jmp	.L726
.L728:
	movl	%ebx, %edi
	leaq	32(%rsp), %rdx
	movl	$21537, %esi
	xorl	%eax, %eax
	movl	$0, 32(%rsp)
	call	ioctl@PLT
	andb	$-4, 108(%rbp)
	movl	%ebx, %edi
	movl	$0, 0(%r13)
	call	close@PLT
	jmp	.L879
.L679:
	movl	%ebx, %edi
	leaq	32(%rsp), %rdx
	movl	$21537, %esi
	xorl	%eax, %eax
	movl	$0, 32(%rsp)
	call	ioctl@PLT
	andb	$-4, 140(%rbp)
	movl	%ebx, %edi
	movl	$0, 0(%r13)
	call	close@PLT
	jmp	.L877
.L663:
	movq	8(%rsp), %rax
	movq	%rax, 192(%r12)
	jmp	.L664
.L711:
	movq	8(%rsp), %rax
	movq	%rax, 192(%r12)
	jmp	.L712
.L661:
	movq	%rsi, 8(%rax)
	jmp	.L662
.L709:
	movq	%rsi, 8(%rax)
	jmp	.L710
	.cfi_endproc
.LFE11015:
	.section	.gcc_except_table
.LLSDA11015:
	.byte	0xff
	.byte	0xff
	.byte	0x1
	.uleb128 .LLSDACSE11015-.LLSDACSB11015
.LLSDACSB11015:
	.uleb128 .LEHB3-.LFB11015
	.uleb128 .LEHE3-.LEHB3
	.uleb128 0
	.uleb128 0
.LLSDACSE11015:
	.section	.text._ZN8asiodnp315MasterTCPServerD2Ev,"axG",@progbits,_ZN8asiodnp315MasterTCPServerD5Ev,comdat
	.size	_ZN8asiodnp315MasterTCPServerD2Ev, .-_ZN8asiodnp315MasterTCPServerD2Ev
	.weak	_ZN8asiodnp315MasterTCPServerD1Ev
	.set	_ZN8asiodnp315MasterTCPServerD1Ev,_ZN8asiodnp315MasterTCPServerD2Ev
	.section	.text._ZN8asiodnp315MasterTCPServerD0Ev,"axG",@progbits,_ZN8asiodnp315MasterTCPServerD5Ev,comdat
	.align 2
	.p2align 4
	.weak	_ZN8asiodnp315MasterTCPServerD0Ev
	.type	_ZN8asiodnp315MasterTCPServerD0Ev, @function
_ZN8asiodnp315MasterTCPServerD0Ev:
.LFB11017:
	.cfi_startproc
	.cfi_personality 0x9b,DW.ref.__gxx_personality_v0
	.cfi_lsda 0x1b,.LLSDA11017
	pushq	%r15
	.cfi_def_cfa_offset 16
	.cfi_offset 15, -16
	pushq	%r14
	.cfi_def_cfa_offset 24
	.cfi_offset 14, -24
	pushq	%r13
	.cfi_def_cfa_offset 32
	.cfi_offset 13, -32
	pushq	%r12
	.cfi_def_cfa_offset 40
	.cfi_offset 12, -40
	pushq	%rbp
	.cfi_def_cfa_offset 48
	.cfi_offset 6, -48
	pushq	%rbx
	.cfi_def_cfa_offset 56
	.cfi_offset 3, -56
	movq	%rdi, %rbx
	subq	$56, %rsp
	.cfi_def_cfa_offset 112
	movq	_ZTVN8asiodnp315MasterTCPServerE@GOTPCREL(%rip), %rax
	movq	232(%rdi), %rbp
	addq	$16, %rax
	movq	%rax, (%rdi)
	testq	%rbp, %rbp
	je	.L908
	movq	8(%rbp), %rdx
	leaq	8(%rbp), %rcx
	movabsq	$4294967297, %rax
	cmpq	%rax, %rdx
	je	.L1165
	movq	__libc_single_threaded@GOTPCREL(%rip), %rax
	cmpb	$0, (%rax)
	je	.L910
	movl	8(%rbp), %eax
	leal	-1(%rax), %edx
	movl	%edx, 8(%rbp)
.L911:
	cmpl	$1, %eax
	je	.L1166
.L908:
	movq	216(%rbx), %rbp
	testq	%rbp, %rbp
	je	.L914
	movq	8(%rbp), %rdx
	leaq	8(%rbp), %rcx
	movabsq	$4294967297, %rax
	cmpq	%rax, %rdx
	je	.L1167
	movq	__libc_single_threaded@GOTPCREL(%rip), %rax
	cmpb	$0, (%rax)
	je	.L916
	movl	8(%rbp), %eax
	leal	-1(%rax), %edx
	movl	%edx, 8(%rbp)
.L917:
	cmpl	$1, %eax
	je	.L1168
.L914:
	movq	_ZTVN7asiopal9TCPServerE@GOTPCREL(%rip), %rax
	movl	136(%rbx), %ebp
	addq	$16, %rax
	movq	%rax, (%rbx)
	cmpl	$-1, %ebp
	jne	.L1169
.L920:
	movl	104(%rbx), %ebp
	cmpl	$-1, %ebp
	jne	.L1170
.L969:
	movq	64(%rbx), %rbp
	testq	%rbp, %rbp
	je	.L1018
	movq	8(%rbp), %rdx
	leaq	8(%rbp), %rcx
	movabsq	$4294967297, %rax
	cmpq	%rax, %rdx
	je	.L1171
	movq	__libc_single_threaded@GOTPCREL(%rip), %rax
	cmpb	$0, (%rax)
	je	.L1020
	movl	8(%rbp), %eax
	leal	-1(%rax), %edx
	movl	%edx, 8(%rbp)
.L1021:
	cmpl	$1, %eax
	je	.L1172
.L1018:
	movq	48(%rbx), %rbp
	testq	%rbp, %rbp
	je	.L1024
	movq	8(%rbp), %rdx
	leaq	8(%rbp), %rcx
	movabsq	$4294967297, %rax
	cmpq	%rax, %rdx
	je	.L1173
	movq	__libc_single_threaded@GOTPCREL(%rip), %rax
	cmpb	$0, (%rax)
	je	.L1026
	movl	8(%rbp), %eax
	leal	-1(%rax), %edx
	movl	%edx, 8(%rbp)
.L1027:
	cmpl	$1, %eax
	je	.L1174
.L1024:
	movq	32(%rbx), %rbp
	testq	%rbp, %rbp
	je	.L1030
	movq	8(%rbp), %rdx
	leaq	8(%rbp), %rcx
	movabsq	$4294967297, %rax
	cmpq	%rax, %rdx
	je	.L1175
	movq	__libc_single_threaded@GOTPCREL(%rip), %rax
	cmpb	$0, (%rax)
	je	.L1032
	movl	8(%rbp), %eax
	leal	-1(%rax), %edx
	movl	%edx, 8(%rbp)
.L1033:
	cmpl	$1, %eax
	je	.L1176
.L1030:
	movq	16(%rbx), %rdi
	testq	%rdi, %rdi
	je	.L1036
	movq	__libc_single_threaded@GOTPCREL(%rip), %rax
	cmpb	$0, (%rax)
	je	.L1037
	movl	12(%rdi), %eax
	leal	-1(%rax), %edx
	movl	%edx, 12(%rdi)
.L1038:
	cmpl	$1, %eax
	je	.L1177
.L1036:
	addq	$56, %rsp
	.cfi_remember_state
	.cfi_def_cfa_offset 56
	movq	%rbx, %rdi
	movl	$240, %esi
	popq	%rbx
	.cfi_def_cfa_offset 48
	popq	%rbp
	.cfi_def_cfa_offset 40
	popq	%r12
	.cfi_def_cfa_offset 32
	popq	%r13
	.cfi_def_cfa_offset 24
	popq	%r14
	.cfi_def_cfa_offset 16
	popq	%r15
	.cfi_def_cfa_offset 8
.LEHB4:
	jmp	_ZdlPvm@PLT
.LEHE4:
	.p2align 4,,10
	.p2align 3
.L1170:
	.cfi_restore_state
	movq	112(%rbx), %rax
	movzbl	108(%rbx), %r12d
	testq	%rax, %rax
	je	.L970
	movq	128(%rbx), %rdx
	addq	$40, %rax
	movq	%rax, %rdi
	movq	%rax, 24(%rsp)
	movq	40(%rdx), %rsi
	movq	%rsi, 16(%rsp)
	call	pthread_mutex_lock@PLT
	movq	112(%rbx), %r9
	cmpb	$0, 144(%r9)
	jne	.L971
	andl	$64, %r12d
	jne	.L1178
.L972:
	movq	$0, 8(%rsp)
	xorl	%r13d, %r13d
	movl	$0, 4(%rsp)
.L973:
	movslq	4(%rsp), %rax
	salq	$4, %rax
	movq	96(%rax,%r9), %rbp
	testq	%rbp, %rbp
	je	.L1148
	movq	_ZGVZN4asio15system_categoryEvE8instance@GOTPCREL(%rip), %r15
	movq	_ZZN4asio15system_categoryEvE8instance@GOTPCREL(%rip), %r14
	movq	%rax, %r12
	jmp	.L985
	.p2align 4,,10
	.p2align 3
.L975:
	movq	112(%rbx), %r9
	movl	$125, 24(%rbp)
	movq	%r14, 32(%rbp)
	leaq	(%r9,%r12), %rdi
	movq	96(%rdi), %rax
	testq	%rax, %rax
	je	.L1158
	movq	(%rax), %rdx
	movq	%rdx, 96(%rdi)
	testq	%rdx, %rdx
	je	.L981
	movq	$0, (%rax)
	movq	$0, 0(%rbp)
	testq	%r13, %r13
	je	.L1041
	movq	%rbp, 0(%r13)
.L982:
	movq	%rbp, %r13
	movq	%rdx, %rbp
.L985:
	movzbl	(%r15), %eax
	testb	%al, %al
	jne	.L975
	movq	%r15, %rdi
	call	__cxa_guard_acquire@PLT
	testl	%eax, %eax
	je	.L975
	movq	_ZN4asio6detail15system_categoryD1Ev@GOTPCREL(%rip), %rdi
	leaq	__dso_handle(%rip), %rdx
	movq	%r14, %rsi
	call	__cxa_atexit@PLT
	movq	%r15, %rdi
	call	__cxa_guard_release@PLT
	jmp	.L975
	.p2align 4,,10
	.p2align 3
.L1169:
	movq	144(%rbx), %rax
	movzbl	140(%rbx), %r12d
	testq	%rax, %rax
	je	.L921
	movq	160(%rbx), %rdx
	leaq	40(%rax), %r14
	movq	%r14, %rdi
	movq	%r14, 24(%rsp)
	movq	40(%rdx), %rsi
	movq	%rsi, 16(%rsp)
	call	pthread_mutex_lock@PLT
	movq	144(%rbx), %r9
	cmpb	$0, 144(%r9)
	jne	.L952
	andl	$64, %r12d
	jne	.L1179
.L924:
	movq	$0, 8(%rsp)
	xorl	%r13d, %r13d
	movl	$0, 4(%rsp)
.L925:
	movslq	4(%rsp), %rax
	salq	$4, %rax
	movq	96(%rax,%r9), %rbp
	testq	%rbp, %rbp
	je	.L1146
	movq	_ZGVZN4asio15system_categoryEvE8instance@GOTPCREL(%rip), %r15
	movq	_ZZN4asio15system_categoryEvE8instance@GOTPCREL(%rip), %r14
	movq	%rax, %r12
	jmp	.L937
	.p2align 4,,10
	.p2align 3
.L927:
	movq	144(%rbx), %r9
	movl	$125, 24(%rbp)
	movq	%r14, 32(%rbp)
	leaq	(%r9,%r12), %rdi
	movq	96(%rdi), %rax
	testq	%rax, %rax
	je	.L1155
	movq	(%rax), %rdx
	movq	%rdx, 96(%rdi)
	testq	%rdx, %rdx
	je	.L932
	movq	$0, (%rax)
	movq	$0, 0(%rbp)
	testq	%r13, %r13
	je	.L1040
	movq	%rbp, 0(%r13)
.L933:
	movq	%rbp, %r13
	movq	%rdx, %rbp
.L937:
	movzbl	(%r15), %eax
	testb	%al, %al
	jne	.L927
	movq	%r15, %rdi
	call	__cxa_guard_acquire@PLT
	testl	%eax, %eax
	je	.L927
	movq	_ZN4asio6detail15system_categoryD1Ev@GOTPCREL(%rip), %rdi
	leaq	__dso_handle(%rip), %rdx
	movq	%r14, %rsi
	call	__cxa_atexit@PLT
	movq	%r15, %rdi
	call	__cxa_guard_release@PLT
	jmp	.L927
	.p2align 4,,10
	.p2align 3
.L942:
	leaq	48(%r12), %r14
	movq	%r14, %rdi
	call	pthread_mutex_lock@PLT
	movq	200(%r12), %rax
	testq	%rax, %rax
	je	.L948
	movq	8(%rsp), %rsi
	movq	%rsi, (%rax)
.L949:
	movq	136(%r12), %rax
	movq	%rbp, 200(%r12)
	movq	%rax, %rdx
	orq	$1, %rdx
	movq	%rdx, 136(%r12)
	cmpq	$1, %rax
	ja	.L1180
	cmpb	$0, 176(%r12)
	jne	.L952
	movq	144(%r12), %rax
	testq	%rax, %rax
	je	.L952
	leaq	88(%rax), %rdx
	leaq	32(%rsp), %rcx
	movl	$3, %esi
	movb	$1, 176(%r12)
	movq	%rdx, 36(%rsp)
	movl	88(%rax), %edx
	movl	$-2147483639, 32(%rsp)
	movl	96(%rax), %edi
	call	epoll_ctl@PLT
	.p2align 4
	.p2align 3
.L952:
	movq	%r14, %rdi
	call	pthread_mutex_unlock@PLT
.L923:
	movl	136(%rbx), %ebp
	cmpl	$-1, %ebp
	je	.L920
	movzbl	140(%rbx), %r12d
.L921:
	call	__errno_location@PLT
	movq	%rax, %r13
	testb	$8, %r12b
	jne	.L1147
	movq	_ZGVZN4asio15system_categoryEvE8instance@GOTPCREL(%rip), %r15
.L954:
	movl	$0, 0(%r13)
	movl	%ebp, %edi
	call	close@PLT
	movl	%eax, %r12d
	movzbl	(%r15), %eax
	testb	%al, %al
	je	.L1181
.L959:
	testl	%r12d, %r12d
	je	.L920
	movl	0(%r13), %r12d
	movzbl	(%r15), %eax
	testb	%al, %al
	je	.L1182
.L962:
	cmpl	$11, %r12d
	je	.L964
.L1162:
	movzbl	(%r15), %eax
	testb	%al, %al
	jne	.L920
	movq	%r15, %rdi
	call	__cxa_guard_acquire@PLT
	testl	%eax, %eax
	je	.L920
	movq	_ZZN4asio15system_categoryEvE8instance@GOTPCREL(%rip), %rsi
	movq	_ZN4asio6detail15system_categoryD1Ev@GOTPCREL(%rip), %rdi
	leaq	__dso_handle(%rip), %rdx
	call	__cxa_atexit@PLT
	movq	%r15, %rdi
	call	__cxa_guard_release@PLT
	jmp	.L920
	.p2align 4,,10
	.p2align 3
.L971:
	movq	24(%rsp), %rdi
	call	pthread_mutex_unlock@PLT
.L1001:
	movl	104(%rbx), %ebp
	cmpl	$-1, %ebp
	je	.L969
	movzbl	108(%rbx), %r12d
.L970:
	call	__errno_location@PLT
	movq	%rax, %r13
	testb	$8, %r12b
	jne	.L1149
	movq	_ZGVZN4asio15system_categoryEvE8instance@GOTPCREL(%rip), %r15
.L1003:
	movl	$0, 0(%r13)
	movl	%ebp, %edi
	call	close@PLT
	movl	%eax, %r12d
	movzbl	(%r15), %eax
	testb	%al, %al
	je	.L1183
.L1008:
	testl	%r12d, %r12d
	je	.L969
	movl	0(%r13), %r12d
	movzbl	(%r15), %eax
	testb	%al, %al
	je	.L1184
.L1011:
	cmpl	$11, %r12d
	je	.L1013
.L1164:
	movzbl	(%r15), %eax
	testb	%al, %al
	jne	.L969
	movq	%r15, %rdi
	call	__cxa_guard_acquire@PLT
	testl	%eax, %eax
	je	.L969
	movq	_ZZN4asio15system_categoryEvE8instance@GOTPCREL(%rip), %rsi
	movq	_ZN4asio6detail15system_categoryD1Ev@GOTPCREL(%rip), %rdi
	leaq	__dso_handle(%rip), %rdx
	call	__cxa_atexit@PLT
	movq	%r15, %rdi
	call	__cxa_guard_release@PLT
	jmp	.L969
	.p2align 4,,10
	.p2align 3
.L1177:
	movq	(%rdi), %rax
	call	*24(%rax)
	jmp	.L1036
	.p2align 4,,10
	.p2align 3
.L1037:
	movl	$-1, %eax
	lock xaddl	%eax, 12(%rdi)
	jmp	.L1038
	.p2align 4,,10
	.p2align 3
.L1167:
	movq	0(%rbp), %rax
	movq	%rbp, %rdi
	movq	$0, 8(%rbp)
	call	*16(%rax)
	movq	0(%rbp), %rax
	movq	%rbp, %rdi
	call	*24(%rax)
	jmp	.L914
	.p2align 4,,10
	.p2align 3
.L1171:
	movq	0(%rbp), %rax
	movq	%rbp, %rdi
	movq	$0, 8(%rbp)
	call	*16(%rax)
	movq	0(%rbp), %rax
	movq	%rbp, %rdi
	call	*24(%rax)
	jmp	.L1018
	.p2align 4,,10
	.p2align 3
.L1165:
	movq	0(%rbp), %rax
	movq	%rbp, %rdi
	movq	$0, 8(%rbp)
	call	*16(%rax)
	movq	0(%rbp), %rax
	movq	%rbp, %rdi
	call	*24(%rax)
	jmp	.L908
	.p2align 4,,10
	.p2align 3
.L1173:
	movq	0(%rbp), %rax
	movq	%rbp, %rdi
	movq	$0, 8(%rbp)
	call	*16(%rax)
	movq	0(%rbp), %rax
	movq	%rbp, %rdi
	call	*24(%rax)
	jmp	.L1024
	.p2align 4,,10
	.p2align 3
.L1175:
	movq	0(%rbp), %rax
	movq	%rbp, %rdi
	movq	$0, 8(%rbp)
	call	*16(%rax)
	movq	0(%rbp), %rax
	movq	%rbp, %rdi
	call	*24(%rax)
	jmp	.L1030
	.p2align 4,,10
	.p2align 3
.L932:
	movq	$0, 104(%rdi)
	movq	$0, (%rax)
.L1155:
	movq	$0, 0(%rbp)
	testq	%r13, %r13
	je	.L1185
	movq	%rbp, 0(%r13)
.L935:
	addl	$1, 4(%rsp)
	cmpl	$3, 4(%rsp)
	je	.L936
.L1186:
	movq	%rbp, %r13
	jmp	.L925
	.p2align 4,,10
	.p2align 3
.L981:
	movq	$0, 104(%rdi)
	movq	$0, (%rax)
.L1158:
	movq	$0, 0(%rbp)
	testq	%r13, %r13
	je	.L983
	movq	%rbp, 0(%r13)
.L979:
	addl	$1, 4(%rsp)
	cmpl	$3, 4(%rsp)
	je	.L984
.L1188:
	movq	%rbp, %r13
	jmp	.L973
	.p2align 4,,10
	.p2align 3
.L1040:
	movq	%rbp, 8(%rsp)
	jmp	.L933
	.p2align 4,,10
	.p2align 3
.L1041:
	movq	%rbp, 8(%rsp)
	jmp	.L982
	.p2align 4,,10
	.p2align 3
.L1185:
	addl	$1, 4(%rsp)
	movq	%rbp, 8(%rsp)
	cmpl	$3, 4(%rsp)
	jne	.L1186
.L936:
	movl	$-1, 88(%r9)
	movq	24(%rsp), %rdi
	movb	$1, 144(%r9)
	call	pthread_mutex_unlock@PLT
	movq	16(%rsp), %r14
	movq	144(%rbx), %r12
	leaq	120(%r14), %r15
	movq	%r15, %rdi
	call	pthread_mutex_lock@PLT
	cmpq	160(%r14), %r12
	je	.L1187
.L938:
	movq	32(%r12), %rax
	testq	%rax, %rax
	je	.L939
	movq	24(%r12), %rdx
	movq	%rdx, 24(%rax)
.L939:
	movq	24(%r12), %rax
	testq	%rax, %rax
	je	.L940
	movq	32(%r12), %rdx
	movq	%rdx, 32(%rax)
.L940:
	movq	16(%rsp), %r14
	movq	%r15, %rdi
	movq	168(%r14), %rax
	movq	$0, 32(%r12)
	movq	%rax, 24(%r12)
	movq	%r12, 168(%r14)
	call	pthread_mutex_unlock@PLT
	movq	$0, 144(%rbx)
	cmpq	$0, 8(%rsp)
	je	.L923
	movq	40(%r14), %r12
	cmpb	$0, 40(%r12)
	je	.L942
	data16	leaq	_ZN4asio6detail15keyword_tss_ptrINS0_10call_stackINS0_15task_io_serviceENS0_27task_io_service_thread_infoEE7contextEE6value_E@tlsgd(%rip), %rdi
	.value	0x6666
	rex64
	call	__tls_get_addr@PLT
	movq	(%rax), %rax
	testq	%rax, %rax
	jne	.L945
	jmp	.L942
	.p2align 4
	.p2align 4,,10
	.p2align 3
.L943:
	movq	16(%rax), %rax
	testq	%rax, %rax
	je	.L942
.L945:
	cmpq	(%rax), %r12
	jne	.L943
	movq	8(%rax), %rax
	testq	%rax, %rax
	je	.L942
	movq	16(%rax), %rdx
	movq	8(%rsp), %rsi
	testq	%rdx, %rdx
	je	.L946
	movq	%rsi, (%rdx)
.L947:
	movq	%rbp, 16(%rax)
	jmp	.L923
	.p2align 4,,10
	.p2align 3
.L983:
	addl	$1, 4(%rsp)
	movq	%rbp, 8(%rsp)
	cmpl	$3, 4(%rsp)
	jne	.L1188
.L984:
	movl	$-1, 88(%r9)
	movq	24(%rsp), %rdi
	movb	$1, 144(%r9)
	call	pthread_mutex_unlock@PLT
	movq	16(%rsp), %r14
	movq	112(%rbx), %r12
	leaq	120(%r14), %r15
	movq	%r15, %rdi
	call	pthread_mutex_lock@PLT
	cmpq	160(%r14), %r12
	je	.L1189
.L986:
	movq	32(%r12), %rax
	testq	%rax, %rax
	je	.L987
	movq	24(%r12), %rdx
	movq	%rdx, 24(%rax)
.L987:
	movq	24(%r12), %rax
	testq	%rax, %rax
	je	.L988
	movq	32(%r12), %rdx
	movq	%rdx, 32(%rax)
.L988:
	movq	16(%rsp), %r14
	movq	%r15, %rdi
	movq	168(%r14), %rax
	movq	$0, 32(%r12)
	movq	%rax, 24(%r12)
	movq	%r12, 168(%r14)
	call	pthread_mutex_unlock@PLT
	movq	$0, 112(%rbx)
	cmpq	$0, 8(%rsp)
	je	.L1001
	movq	40(%r14), %r12
	cmpb	$0, 40(%r12)
	je	.L990
	data16	leaq	_ZN4asio6detail15keyword_tss_ptrINS0_10call_stackINS0_15task_io_serviceENS0_27task_io_service_thread_infoEE7contextEE6value_E@tlsgd(%rip), %rdi
	.value	0x6666
	rex64
	call	__tls_get_addr@PLT
	movq	(%rax), %rax
	testq	%rax, %rax
	jne	.L993
	jmp	.L990
	.p2align 4
	.p2align 4,,10
	.p2align 3
.L991:
	movq	16(%rax), %rax
	testq	%rax, %rax
	je	.L990
.L993:
	cmpq	(%rax), %r12
	jne	.L991
	movq	8(%rax), %rax
	testq	%rax, %rax
	je	.L990
	movq	16(%rax), %rdx
	movq	8(%rsp), %rsi
	testq	%rdx, %rdx
	je	.L994
	movq	%rsi, (%rdx)
.L995:
	movq	%rbp, 16(%rax)
	jmp	.L1001
	.p2align 4,,10
	.p2align 3
.L1020:
	movl	$-1, %eax
	lock xaddl	%eax, (%rcx)
	jmp	.L1021
	.p2align 4,,10
	.p2align 3
.L1032:
	movl	$-1, %eax
	lock xaddl	%eax, (%rcx)
	jmp	.L1033
	.p2align 4,,10
	.p2align 3
.L910:
	movl	$-1, %eax
	lock xaddl	%eax, (%rcx)
	jmp	.L911
	.p2align 4,,10
	.p2align 3
.L916:
	movl	$-1, %eax
	lock xaddl	%eax, (%rcx)
	jmp	.L917
	.p2align 4,,10
	.p2align 3
.L1026:
	movl	$-1, %eax
	lock xaddl	%eax, (%rcx)
	jmp	.L1027
	.p2align 4,,10
	.p2align 3
.L1181:
	movq	%r15, %rdi
	call	__cxa_guard_acquire@PLT
	testl	%eax, %eax
	je	.L959
	movq	_ZZN4asio15system_categoryEvE8instance@GOTPCREL(%rip), %rsi
	movq	_ZN4asio6detail15system_categoryD1Ev@GOTPCREL(%rip), %rdi
	leaq	__dso_handle(%rip), %rdx
	call	__cxa_atexit@PLT
	movq	%r15, %rdi
	call	__cxa_guard_release@PLT
	jmp	.L959
	.p2align 4,,10
	.p2align 3
.L1147:
	orl	$8, %r12d
	leaq	32(%rsp), %rcx
	movl	$13, %edx
	movl	%ebp, %edi
	movq	$0, 32(%rsp)
	movl	$8, %r8d
	movl	$1, %esi
	movb	%r12b, 140(%rbx)
	movl	$0, (%rax)
	call	setsockopt@PLT
	movq	_ZGVZN4asio15system_categoryEvE8instance@GOTPCREL(%rip), %r15
	movzbl	(%r15), %eax
	testb	%al, %al
	jne	.L954
	movq	%r15, %rdi
	call	__cxa_guard_acquire@PLT
	testl	%eax, %eax
	je	.L954
	movq	_ZZN4asio15system_categoryEvE8instance@GOTPCREL(%rip), %rsi
	movq	_ZN4asio6detail15system_categoryD1Ev@GOTPCREL(%rip), %rdi
	leaq	__dso_handle(%rip), %rdx
	call	__cxa_atexit@PLT
	movq	%r15, %rdi
	call	__cxa_guard_release@PLT
	jmp	.L954
	.p2align 4,,10
	.p2align 3
.L1183:
	movq	%r15, %rdi
	call	__cxa_guard_acquire@PLT
	testl	%eax, %eax
	je	.L1008
	movq	_ZZN4asio15system_categoryEvE8instance@GOTPCREL(%rip), %rsi
	movq	_ZN4asio6detail15system_categoryD1Ev@GOTPCREL(%rip), %rdi
	leaq	__dso_handle(%rip), %rdx
	call	__cxa_atexit@PLT
	movq	%r15, %rdi
	call	__cxa_guard_release@PLT
	jmp	.L1008
	.p2align 4,,10
	.p2align 3
.L1149:
	orl	$8, %r12d
	leaq	32(%rsp), %rcx
	movl	$13, %edx
	movl	%ebp, %edi
	movb	%r12b, 108(%rbx)
	movl	$8, %r8d
	movl	$1, %esi
	movq	$0, 32(%rsp)
	movl	$0, (%rax)
	call	setsockopt@PLT
	movq	_ZGVZN4asio15system_categoryEvE8instance@GOTPCREL(%rip), %r15
	movzbl	(%r15), %eax
	testb	%al, %al
	jne	.L1003
	movq	%r15, %rdi
	call	__cxa_guard_acquire@PLT
	testl	%eax, %eax
	je	.L1003
	movq	_ZZN4asio15system_categoryEvE8instance@GOTPCREL(%rip), %rsi
	movq	_ZN4asio6detail15system_categoryD1Ev@GOTPCREL(%rip), %rdi
	leaq	__dso_handle(%rip), %rdx
	call	__cxa_atexit@PLT
	movq	%r15, %rdi
	call	__cxa_guard_release@PLT
	jmp	.L1003
	.p2align 4,,10
	.p2align 3
.L990:
	leaq	48(%r12), %r14
	movq	%r14, %rdi
	call	pthread_mutex_lock@PLT
	movq	200(%r12), %rax
	testq	%rax, %rax
	je	.L996
	movq	8(%rsp), %rsi
	movq	%rsi, (%rax)
.L997:
	movq	136(%r12), %rax
	movq	%rbp, 200(%r12)
	movq	%rax, %rdx
	orq	$1, %rdx
	movq	%rdx, 136(%r12)
	cmpq	$1, %rax
	ja	.L1190
	cmpb	$0, 176(%r12)
	jne	.L1000
	movq	144(%r12), %rax
	testq	%rax, %rax
	je	.L1000
	leaq	88(%rax), %rdx
	leaq	32(%rsp), %rcx
	movl	$3, %esi
	movb	$1, 176(%r12)
	movq	%rdx, 36(%rsp)
	movl	88(%rax), %edx
	movl	$-2147483639, 32(%rsp)
	movl	96(%rax), %edi
	call	epoll_ctl@PLT
.L1000:
	movq	%r14, %rdi
	call	pthread_mutex_unlock@PLT
	jmp	.L1001
	.p2align 4,,10
	.p2align 3
.L1146:
	movq	%r13, %rbp
	jmp	.L935
	.p2align 4,,10
	.p2align 3
.L1179:
	movq	16(%rsp), %rax
	movl	$0, 32(%rsp)
	leaq	32(%rsp), %rcx
	movl	%ebp, %edx
	movq	$0, 36(%rsp)
	movl	$2, %esi
	movl	96(%rax), %edi
	call	epoll_ctl@PLT
	movq	144(%rbx), %r9
	jmp	.L924
	.p2align 4,,10
	.p2align 3
.L1178:
	movq	16(%rsp), %rax
	movl	$0, 32(%rsp)
	leaq	32(%rsp), %rcx
	movl	%ebp, %edx
	movq	$0, 36(%rsp)
	movl	$2, %esi
	movl	96(%rax), %edi
	call	epoll_ctl@PLT
	movq	112(%rbx), %r9
	jmp	.L972
	.p2align 4,,10
	.p2align 3
.L1148:
	movq	%r13, %rbp
	jmp	.L979
	.p2align 4,,10
	.p2align 3
.L1187:
	movq	24(%r12), %rax
	movq	16(%rsp), %rsi
	movq	%rax, 160(%rsi)
	jmp	.L938
	.p2align 4,,10
	.p2align 3
.L1189:
	movq	24(%r12), %rax
	movq	16(%rsp), %rsi
	movq	%rax, 160(%rsi)
	jmp	.L986
	.p2align 4,,10
	.p2align 3
.L1166:
	movq	%rbp, %rdi
	call	_ZNSt16_Sp_counted_baseILN9__gnu_cxx12_Lock_policyE2EE24_M_release_last_use_coldEv@PLT
	jmp	.L908
	.p2align 4,,10
	.p2align 3
.L1176:
	movq	%rbp, %rdi
	call	_ZNSt16_Sp_counted_baseILN9__gnu_cxx12_Lock_policyE2EE24_M_release_last_use_coldEv@PLT
	jmp	.L1030
	.p2align 4,,10
	.p2align 3
.L1174:
	movq	%rbp, %rdi
	call	_ZNSt16_Sp_counted_baseILN9__gnu_cxx12_Lock_policyE2EE24_M_release_last_use_coldEv@PLT
	jmp	.L1024
	.p2align 4,,10
	.p2align 3
.L1172:
	movq	%rbp, %rdi
	call	_ZNSt16_Sp_counted_baseILN9__gnu_cxx12_Lock_policyE2EE24_M_release_last_use_coldEv@PLT
	jmp	.L1018
	.p2align 4,,10
	.p2align 3
.L1168:
	movq	%rbp, %rdi
	call	_ZNSt16_Sp_counted_baseILN9__gnu_cxx12_Lock_policyE2EE24_M_release_last_use_coldEv@PLT
	jmp	.L914
.L1180:
	movq	%r14, %rdi
	call	pthread_mutex_unlock@PLT
	leaq	88(%r12), %rdi
	call	pthread_cond_signal@PLT
	jmp	.L923
.L1190:
	movq	%r14, %rdi
	call	pthread_mutex_unlock@PLT
	leaq	88(%r12), %rdi
	call	pthread_cond_signal@PLT
	jmp	.L1001
.L1182:
	movq	%r15, %rdi
	call	__cxa_guard_acquire@PLT
	testl	%eax, %eax
	je	.L962
	movq	_ZZN4asio15system_categoryEvE8instance@GOTPCREL(%rip), %rsi
	movq	_ZN4asio6detail15system_categoryD1Ev@GOTPCREL(%rip), %rdi
	leaq	__dso_handle(%rip), %rdx
	call	__cxa_atexit@PLT
	movq	%r15, %rdi
	call	__cxa_guard_release@PLT
	jmp	.L962
.L1184:
	movq	%r15, %rdi
	call	__cxa_guard_acquire@PLT
	testl	%eax, %eax
	je	.L1011
	movq	_ZZN4asio15system_categoryEvE8instance@GOTPCREL(%rip), %rsi
	movq	_ZN4asio6detail15system_categoryD1Ev@GOTPCREL(%rip), %rdi
	leaq	__dso_handle(%rip), %rdx
	call	__cxa_atexit@PLT
	movq	%r15, %rdi
	call	__cxa_guard_release@PLT
	jmp	.L1011
.L1013:
	movl	%ebp, %edi
	leaq	32(%rsp), %rdx
	movl	$21537, %esi
	xorl	%eax, %eax
	movl	$0, 32(%rsp)
	call	ioctl@PLT
	andb	$-4, 108(%rbx)
	movl	%ebp, %edi
	movl	$0, 0(%r13)
	call	close@PLT
	jmp	.L1164
.L964:
	movl	%ebp, %edi
	leaq	32(%rsp), %rdx
	movl	$21537, %esi
	xorl	%eax, %eax
	movl	$0, 32(%rsp)
	call	ioctl@PLT
	andb	$-4, 140(%rbx)
	movl	%ebp, %edi
	movl	$0, 0(%r13)
	call	close@PLT
	jmp	.L1162
.L948:
	movq	8(%rsp), %rax
	movq	%rax, 192(%r12)
	jmp	.L949
.L996:
	movq	8(%rsp), %rax
	movq	%rax, 192(%r12)
	jmp	.L997
.L946:
	movq	%rsi, 8(%rax)
	jmp	.L947
.L994:
	movq	%rsi, 8(%rax)
	jmp	.L995
	.cfi_endproc
.LFE11017:
	.section	.gcc_except_table
.LLSDA11017:
	.byte	0xff
	.byte	0xff
	.byte	0x1
	.uleb128 .LLSDACSE11017-.LLSDACSB11017
.LLSDACSB11017:
	.uleb128 .LEHB4-.LFB11017
	.uleb128 .LEHE4-.LEHB4
	.uleb128 0
	.uleb128 0
.LLSDACSE11017:
	.section	.text._ZN8asiodnp315MasterTCPServerD0Ev,"axG",@progbits,_ZN8asiodnp315MasterTCPServerD5Ev,comdat
	.size	_ZN8asiodnp315MasterTCPServerD0Ev, .-_ZN8asiodnp315MasterTCPServerD0Ev
	.section	.text.unlikely
	.align 2
.LCOLDB28:
	.text
.LHOTB28:
	.align 2
	.p2align 4
	.type	_ZN7asiopal13IAsyncChannel16CheckForShutdownESt10shared_ptrIS0_E.isra.0, @function
_ZN7asiopal13IAsyncChannel16CheckForShutdownESt10shared_ptrIS0_E.isra.0:
.LFB11270:
	.cfi_startproc
	.cfi_personality 0x9b,DW.ref.__gxx_personality_v0
	.cfi_lsda 0x1b,.LLSDA11270
	pushq	%r14
	.cfi_def_cfa_offset 16
	.cfi_offset 14, -16
	pushq	%r13
	.cfi_def_cfa_offset 24
	.cfi_offset 13, -24
	pushq	%r12
	.cfi_def_cfa_offset 32
	.cfi_offset 12, -32
	pushq	%rbp
	.cfi_def_cfa_offset 40
	.cfi_offset 6, -40
	pushq	%rbx
	.cfi_def_cfa_offset 48
	.cfi_offset 3, -48
	subq	$48, %rsp
	.cfi_def_cfa_offset 96
	movq	(%rdi), %rbp
	cmpb	$0, 57(%rbp)
	jne	.L1192
	cmpb	$0, 58(%rbp)
	je	.L1193
.L1192:
	movq	8(%rdi), %r12
	testq	%r12, %r12
	je	.L1254
	movq	__libc_single_threaded@GOTPCREL(%rip), %rax
	cmpb	$0, (%rax)
	je	.L1196
	movl	8(%r12), %eax
	movq	24(%rbp), %r13
	addl	$1, %eax
.L1197:
	addl	$1, %eax
	movl	%eax, 8(%r12)
.L1195:
	data16	leaq	_ZN4asio6detail15keyword_tss_ptrINS0_10call_stackINS0_15task_io_serviceENS0_27task_io_service_thread_infoEE7contextEE6value_E@tlsgd(%rip), %rdi
	.value	0x6666
	rex64
	call	__tls_get_addr@PLT
	movq	40(%r13), %r14
	movq	(%rax), %rax
	testq	%rax, %rax
	je	.L1199
	movq	8(%rax), %rax
	testq	%rax, %rax
	je	.L1199
	movq	(%rax), %rbx
	testq	%rbx, %rbx
	je	.L1199
	movq	$0, (%rax)
	movzbl	(%rbx), %eax
	cmpb	$39, %al
	jbe	.L1200
	movb	%al, 40(%rbx)
	jmp	.L1201
	.p2align 4,,10
	.p2align 3
.L1193:
	movq	48(%rbp), %rbx
	pxor	%xmm0, %xmm0
	movups	%xmm0, 40(%rbp)
	testq	%rbx, %rbx
	je	.L1191
	movq	8(%rbx), %rdx
	leaq	8(%rbx), %rcx
	movabsq	$4294967297, %rax
	cmpq	%rax, %rdx
	je	.L1255
	movq	__libc_single_threaded@GOTPCREL(%rip), %rax
	cmpb	$0, (%rax)
	je	.L1230
	movl	8(%rbx), %eax
	leal	-1(%rax), %edx
	movl	%edx, 8(%rbx)
.L1231:
	cmpl	$1, %eax
	je	.L1256
.L1191:
	addq	$48, %rsp
	.cfi_remember_state
	.cfi_def_cfa_offset 48
	popq	%rbx
	.cfi_def_cfa_offset 40
	popq	%rbp
	.cfi_def_cfa_offset 32
	popq	%r12
	.cfi_def_cfa_offset 24
	popq	%r13
	.cfi_def_cfa_offset 16
	popq	%r14
	.cfi_def_cfa_offset 8
	ret
	.p2align 4,,10
	.p2align 3
.L1200:
	.cfi_restore_state
	movq	%rbx, %rdi
	call	_ZdlPv@PLT
.L1199:
	movl	$41, %edi
.LEHB5:
	call	_Znwm@PLT
.LEHE5:
	movb	$40, 40(%rax)
	movq	%rax, %rbx
.L1201:
	movq	%r12, %xmm2
	movq	_ZN4asio6detail18completion_handlerIZN7asiopal13IAsyncChannel16CheckForShutdownESt10shared_ptrIS3_EEUlvE_E11do_completeEPNS0_15task_io_serviceEPNS0_25task_io_service_operationERKSt10error_codem@GOTPCREL(%rip), %rax
	movq	%rbp, %xmm0
	movq	$0, (%rbx)
	punpcklqdq	%xmm2, %xmm0
	movl	$0, 16(%rbx)
	movq	%rbx, %xmm1
	movq	%rax, 8(%rbx)
	punpcklqdq	%xmm1, %xmm1
	movups	%xmm0, 24(%rbx)
	movq	48(%r13), %rax
	movaps	%xmm1, (%rsp)
	leaq	24(%rax), %rdi
	call	pthread_mutex_lock@PLT
	movq	48(%r13), %rdi
	cmpb	$0, 64(%rdi)
	je	.L1202
	movq	80(%rdi), %rax
	movq	$0, (%rbx)
	testq	%rax, %rax
	je	.L1203
	movq	%rbx, (%rax)
	movq	%rbx, 80(%rdi)
.L1204:
	addq	$24, %rdi
	call	pthread_mutex_unlock@PLT
.L1205:
	testq	%r12, %r12
	je	.L1191
	movq	8(%r12), %rdx
	leaq	8(%r12), %rcx
	movabsq	$4294967297, %rax
	cmpq	%rax, %rdx
	je	.L1257
	movq	__libc_single_threaded@GOTPCREL(%rip), %rax
	cmpb	$0, (%rax)
	je	.L1227
	movl	8(%r12), %eax
	leal	-1(%rax), %edx
	movl	%edx, 8(%r12)
.L1228:
	movq	%r12, %rdi
	cmpl	$1, %eax
	jne	.L1191
.L1253:
	addq	$48, %rsp
	.cfi_remember_state
	.cfi_def_cfa_offset 48
	popq	%rbx
	.cfi_def_cfa_offset 40
	popq	%rbp
	.cfi_def_cfa_offset 32
	popq	%r12
	.cfi_def_cfa_offset 24
	popq	%r13
	.cfi_def_cfa_offset 16
	popq	%r14
	.cfi_def_cfa_offset 8
.LEHB6:
	jmp	_ZNSt16_Sp_counted_baseILN9__gnu_cxx12_Lock_policyE2EE24_M_release_last_use_coldEv@PLT
	.p2align 4,,10
	.p2align 3
.L1202:
	.cfi_restore_state
	movb	$1, 64(%rdi)
	addq	$24, %rdi
	call	pthread_mutex_unlock@PLT
	movq	48(%r13), %rbp
	movq	$0, (%rbx)
	movq	%rbp, %xmm3
	movq	96(%rbp), %rax
	punpcklqdq	%xmm3, %xmm3
	movaps	%xmm3, 16(%rsp)
	testq	%rax, %rax
	je	.L1206
	movq	%rbx, (%rax)
	movq	%rbx, 96(%rbp)
.L1207:
	movq	40(%r14), %rbx
	cmpb	$0, 40(%rbx)
	je	.L1208
	data16	leaq	_ZN4asio6detail15keyword_tss_ptrINS0_10call_stackINS0_15task_io_serviceENS0_27task_io_service_thread_infoEE7contextEE6value_E@tlsgd(%rip), %rdi
	.value	0x6666
	rex64
	call	__tls_get_addr@PLT
	movq	(%rax), %rax
	testq	%rax, %rax
	jne	.L1211
	jmp	.L1208
	.p2align 4
	.p2align 4,,10
	.p2align 3
.L1209:
	movq	16(%rax), %rax
	testq	%rax, %rax
	je	.L1208
.L1211:
	cmpq	(%rax), %rbx
	jne	.L1209
	movq	8(%rax), %rax
	testq	%rax, %rax
	je	.L1208
	movq	16(%rax), %rdx
	addq	$1, 24(%rax)
	movq	$0, 0(%rbp)
	testq	%rdx, %rdx
	je	.L1212
	movq	%rbp, (%rdx)
	movq	%rbp, 16(%rax)
	jmp	.L1205
	.p2align 4,,10
	.p2align 3
.L1254:
	movq	24(%rbp), %r13
	jmp	.L1195
	.p2align 4,,10
	.p2align 3
.L1227:
	movl	$-1, %eax
	lock xaddl	%eax, (%rcx)
	jmp	.L1228
	.p2align 4,,10
	.p2align 3
.L1206:
	movdqa	(%rsp), %xmm5
	movups	%xmm5, 88(%rbp)
	jmp	.L1207
	.p2align 4,,10
	.p2align 3
.L1208:
	lock addq	$1, 184(%rbx)
	leaq	48(%rbx), %r13
	movq	%r13, %rdi
	call	pthread_mutex_lock@PLT
	movq	200(%rbx), %rax
	movq	$0, 0(%rbp)
	testq	%rax, %rax
	je	.L1213
	movq	%rbp, (%rax)
	movq	%rbp, 200(%rbx)
.L1214:
	movq	136(%rbx), %rax
	movq	%rax, %rdx
	orq	$1, %rdx
	movq	%rdx, 136(%rbx)
	cmpq	$1, %rax
	jbe	.L1215
	movq	%r13, %rdi
	call	pthread_mutex_unlock@PLT
	leaq	88(%rbx), %rdi
	call	pthread_cond_signal@PLT
	jmp	.L1205
	.p2align 4,,10
	.p2align 3
.L1196:
	lock addl	$1, 8(%r12)
	movq	(%rdi), %rdx
	movq	24(%rdx), %r13
	cmpb	$0, (%rax)
	jne	.L1258
	lock addl	$1, 8(%r12)
	jmp	.L1195
	.p2align 4,,10
	.p2align 3
.L1203:
	movdqa	(%rsp), %xmm4
	movups	%xmm4, 72(%rdi)
	jmp	.L1204
	.p2align 4,,10
	.p2align 3
.L1215:
	cmpb	$0, 176(%rbx)
	jne	.L1217
	movq	144(%rbx), %rax
	testq	%rax, %rax
	je	.L1217
	leaq	88(%rax), %rdx
	movb	$1, 176(%rbx)
	movl	96(%rax), %edi
	leaq	36(%rsp), %rcx
	movq	%rdx, 40(%rsp)
	movl	88(%rax), %edx
	movl	$3, %esi
	movl	$-2147483639, 36(%rsp)
	call	epoll_ctl@PLT
.L1217:
	movq	%r13, %rdi
	call	pthread_mutex_unlock@PLT
	jmp	.L1205
	.p2align 4,,10
	.p2align 3
.L1257:
	movq	$0, 8(%r12)
	movq	(%r12), %rax
	movq	%r12, %rdi
	call	*16(%rax)
	movq	(%r12), %rax
	movq	%r12, %rdi
	movq	24(%rax), %rax
.L1252:
	addq	$48, %rsp
	.cfi_remember_state
	.cfi_def_cfa_offset 48
	popq	%rbx
	.cfi_def_cfa_offset 40
	popq	%rbp
	.cfi_def_cfa_offset 32
	popq	%r12
	.cfi_def_cfa_offset 24
	popq	%r13
	.cfi_def_cfa_offset 16
	popq	%r14
	.cfi_def_cfa_offset 8
	jmp	*%rax
.LEHE6:
	.p2align 4,,10
	.p2align 3
.L1212:
	.cfi_restore_state
	movdqa	16(%rsp), %xmm7
	movups	%xmm7, 8(%rax)
	jmp	.L1205
	.p2align 4,,10
	.p2align 3
.L1256:
	movq	%rbx, %rdi
	jmp	.L1253
	.p2align 4,,10
	.p2align 3
.L1213:
	movdqa	16(%rsp), %xmm6
	movups	%xmm6, 192(%rbx)
	jmp	.L1214
	.p2align 4,,10
	.p2align 3
.L1230:
	movl	$-1, %eax
	lock xaddl	%eax, (%rcx)
	jmp	.L1231
	.p2align 4,,10
	.p2align 3
.L1255:
	movq	(%rbx), %rax
	movq	%rbx, %rdi
	movq	$0, 8(%rbx)
	call	*16(%rax)
	movq	(%rbx), %rax
	movq	%rbx, %rdi
	movq	24(%rax), %rax
	jmp	.L1252
.L1258:
	movl	8(%r12), %eax
	jmp	.L1197
.L1232:
	movq	%rax, %rbx
	jmp	.L1220
	.section	.gcc_except_table
.LLSDA11270:
	.byte	0xff
	.byte	0xff
	.byte	0x1
	.uleb128 .LLSDACSE11270-.LLSDACSB11270
.LLSDACSB11270:
	.uleb128 .LEHB5-.LFB11270
	.uleb128 .LEHE5-.LEHB5
	.uleb128 .L1232-.LFB11270
	.uleb128 0
	.uleb128 .LEHB6-.LFB11270
	.uleb128 .LEHE6-.LEHB6
	.uleb128 0
	.uleb128 0
.LLSDACSE11270:
	.text
	.cfi_endproc
	.section	.text.unlikely
	.cfi_startproc
	.cfi_personality 0x9b,DW.ref.__gxx_personality_v0
	.cfi_lsda 0x1b,.LLSDAC11270
	.type	_ZN7asiopal13IAsyncChannel16CheckForShutdownESt10shared_ptrIS0_E.isra.0.cold, @function
_ZN7asiopal13IAsyncChannel16CheckForShutdownESt10shared_ptrIS0_E.isra.0.cold:
.LFSB11270:
.L1220:
	.cfi_def_cfa_offset 96
	.cfi_offset 3, -48
	.cfi_offset 6, -40
	.cfi_offset 12, -32
	.cfi_offset 13, -24
	.cfi_offset 14, -16
	testq	%r12, %r12
	je	.L1223
	movq	%r12, %rdi
	call	_ZNSt16_Sp_counted_baseILN9__gnu_cxx12_Lock_policyE2EE10_M_releaseEv@PLT
	movq	%r12, %rdi
	call	_ZNSt16_Sp_counted_baseILN9__gnu_cxx12_Lock_policyE2EE10_M_releaseEv@PLT
.L1223:
	movq	%rbx, %rdi
.LEHB7:
	call	_Unwind_Resume@PLT
.LEHE7:
	.cfi_endproc
.LFE11270:
	.section	.gcc_except_table
.LLSDAC11270:
	.byte	0xff
	.byte	0xff
	.byte	0x1
	.uleb128 .LLSDACSEC11270-.LLSDACSBC11270
.LLSDACSBC11270:
	.uleb128 .LEHB7-.LCOLDB28
	.uleb128 .LEHE7-.LEHB7
	.uleb128 0
	.uleb128 0
.LLSDACSEC11270:
	.section	.text.unlikely
	.text
	.size	_ZN7asiopal13IAsyncChannel16CheckForShutdownESt10shared_ptrIS0_E.isra.0, .-_ZN7asiopal13IAsyncChannel16CheckForShutdownESt10shared_ptrIS0_E.isra.0
	.section	.text.unlikely
	.size	_ZN7asiopal13IAsyncChannel16CheckForShutdownESt10shared_ptrIS0_E.isra.0.cold, .-_ZN7asiopal13IAsyncChannel16CheckForShutdownESt10shared_ptrIS0_E.isra.0.cold
.LCOLDE28:
	.text
.LHOTE28:
	.section	.text.unlikely._ZN4asio6detail15throw_exceptionISt12system_errorEEvRKT_,"axG",@progbits,_ZN4asio6detail15throw_exceptionISt12system_errorEEvRKT_,comdat
	.weak	_ZN4asio6detail15throw_exceptionISt12system_errorEEvRKT_
	.type	_ZN4asio6detail15throw_exceptionISt12system_errorEEvRKT_, @function
_ZN4asio6detail15throw_exceptionISt12system_errorEEvRKT_:
.LFB8573:
	.cfi_startproc
	pushq	%rbp
	.cfi_def_cfa_offset 16
	.cfi_offset 6, -16
	movq	%rdi, %rbp
	movl	$32, %edi
	pushq	%rbx
	.cfi_def_cfa_offset 24
	.cfi_offset 3, -24
	pushq	%rax
	.cfi_def_cfa_offset 32
	call	__cxa_allocate_exception@PLT
	movq	%rbp, %rsi
	movq	%rax, %rdi
	movq	%rax, %rbx
	call	_ZNSt13runtime_errorC2ERKS_@PLT
	movq	_ZTVSt12system_error@GOTPCREL(%rip), %rax
	movups	16(%rbp), %xmm0
	movq	%rbx, %rdi
	movq	_ZNSt12system_errorD1Ev@GOTPCREL(%rip), %rdx
	movq	_ZTISt12system_error@GOTPCREL(%rip), %rsi
	addq	$16, %rax
	movups	%xmm0, 16(%rbx)
	movq	%rax, (%rbx)
	call	__cxa_throw@PLT
	.cfi_endproc
.LFE8573:
	.size	_ZN4asio6detail15throw_exceptionISt12system_errorEEvRKT_, .-_ZN4asio6detail15throw_exceptionISt12system_errorEEvRKT_
	.section	.text._ZN4asio6detail14do_throw_errorERKSt10error_code,"axG",@progbits,_ZN4asio6detail14do_throw_errorERKSt10error_code,comdat
	.p2align 4
	.weak	_ZN4asio6detail14do_throw_errorERKSt10error_code
	.type	_ZN4asio6detail14do_throw_errorERKSt10error_code, @function
_ZN4asio6detail14do_throw_errorERKSt10error_code:
.LFB2397:
	.cfi_startproc
	.cfi_personality 0x9b,DW.ref.__gxx_personality_v0
	.cfi_lsda 0x1b,.LLSDA2397
	pushq	%r13
	.cfi_def_cfa_offset 16
	.cfi_offset 13, -16
	pushq	%r12
	.cfi_def_cfa_offset 24
	.cfi_offset 12, -24
	pushq	%rbp
	.cfi_def_cfa_offset 32
	.cfi_offset 6, -32
	pushq	%rbx
	.cfi_def_cfa_offset 40
	.cfi_offset 3, -40
	subq	$72, %rsp
	.cfi_def_cfa_offset 112
	movq	8(%rdi), %rbx
	movl	(%rdi), %r13d
	leaq	32(%rsp), %rdi
	movq	%rsp, %rbp
	movq	(%rbx), %rax
	movq	%rbx, %rsi
	movl	%r13d, %edx
.LEHB8:
	call	*32(%rax)
.LEHE8:
	leaq	32(%rsp), %rsi
	movq	%rsp, %rdi
.LEHB9:
	call	_ZNSt13runtime_errorC2ERKNSt7__cxx1112basic_stringIcSt11char_traitsIcESaIcEEE@PLT
.LEHE9:
	movq	32(%rsp), %rdi
	leaq	48(%rsp), %rax
	cmpq	%rax, %rdi
	je	.L1262
	movq	48(%rsp), %rax
	leaq	1(%rax), %rsi
	call	_ZdlPvm@PLT
.L1262:
	movq	_ZTVSt12system_error@GOTPCREL(%rip), %rax
	movq	%rbp, %rdi
	movl	%r13d, 16(%rsp)
	movq	%rbx, 24(%rsp)
	addq	$16, %rax
	movq	%rax, (%rsp)
.LEHB10:
	call	_ZN4asio6detail15throw_exceptionISt12system_errorEEvRKT_@PLT
.LEHE10:
.L1266:
	movq	%rax, %rbx
	jmp	.L1263
.L1265:
	movq	%rax, %rbx
	jmp	.L1264
.L1263:
	leaq	32(%rsp), %rdi
	call	_ZNSt7__cxx1112basic_stringIcSt11char_traitsIcESaIcEE10_M_disposeEv@PLT
	movq	%rbx, %rdi
.LEHB11:
	call	_Unwind_Resume@PLT
.L1264:
	movq	%rbp, %rdi
	call	_ZNSt12system_errorD1Ev@PLT
	movq	%rbx, %rdi
	call	_Unwind_Resume@PLT
.LEHE11:
	.cfi_endproc
.LFE2397:
	.section	.gcc_except_table
.LLSDA2397:
	.byte	0xff
	.byte	0xff
	.byte	0x1
	.uleb128 .LLSDACSE2397-.LLSDACSB2397
.LLSDACSB2397:
	.uleb128 .LEHB8-.LFB2397
	.uleb128 .LEHE8-.LEHB8
	.uleb128 0
	.uleb128 0
	.uleb128 .LEHB9-.LFB2397
	.uleb128 .LEHE9-.LEHB9
	.uleb128 .L1266-.LFB2397
	.uleb128 0
	.uleb128 .LEHB10-.LFB2397
	.uleb128 .LEHE10-.LEHB10
	.uleb128 .L1265-.LFB2397
	.uleb128 0
	.uleb128 .LEHB11-.LFB2397
	.uleb128 .LEHE11-.LEHB11
	.uleb128 0
	.uleb128 0
.LLSDACSE2397:
	.section	.text._ZN4asio6detail14do_throw_errorERKSt10error_code,"axG",@progbits,_ZN4asio6detail14do_throw_errorERKSt10error_code,comdat
	.size	_ZN4asio6detail14do_throw_errorERKSt10error_code, .-_ZN4asio6detail14do_throw_errorERKSt10error_code
	.section	.rodata._ZN4asio6detail14do_throw_errorERKSt10error_codePKc.str1.1,"aMS",@progbits,1
.LC29:
	.string	": "
	.section	.text._ZN4asio6detail14do_throw_errorERKSt10error_codePKc,"axG",@progbits,_ZN4asio6detail14do_throw_errorERKSt10error_codePKc,comdat
	.p2align 4
	.weak	_ZN4asio6detail14do_throw_errorERKSt10error_codePKc
	.type	_ZN4asio6detail14do_throw_errorERKSt10error_codePKc, @function
_ZN4asio6detail14do_throw_errorERKSt10error_codePKc:
.LFB2398:
	.cfi_startproc
	.cfi_personality 0x9b,DW.ref.__gxx_personality_v0
	.cfi_lsda 0x1b,.LLSDA2398
	pushq	%r15
	.cfi_def_cfa_offset 16
	.cfi_offset 15, -16
	pushq	%r14
	.cfi_def_cfa_offset 24
	.cfi_offset 14, -24
	pushq	%r13
	.cfi_def_cfa_offset 32
	.cfi_offset 13, -32
	pushq	%r12
	.cfi_def_cfa_offset 40
	.cfi_offset 12, -40
	movq	%rsi, %r12
	pushq	%rbp
	.cfi_def_cfa_offset 48
	.cfi_offset 6, -48
	pushq	%rbx
	.cfi_def_cfa_offset 56
	.cfi_offset 3, -56
	subq	$152, %rsp
	.cfi_def_cfa_offset 208
	movq	8(%rdi), %rbx
	movl	(%rdi), %r14d
	leaq	48(%rsp), %rdi
	movq	(%rbx), %rax
	movl	%r14d, %edx
	movq	%rbx, %rsi
.LEHB12:
	call	*32(%rax)
.LEHE12:
	movl	$2, %r8d
	xorl	%edx, %edx
	xorl	%esi, %esi
	leaq	.LC29(%rip), %rcx
	leaq	48(%rsp), %rdi
.LEHB13:
	call	_ZNSt7__cxx1112basic_stringIcSt11char_traitsIcESaIcEE10_M_replaceEmmPKcm@PLT
.LEHE13:
	leaq	96(%rsp), %rbp
	leaq	16(%rax), %rdx
	movq	%rbp, 80(%rsp)
	movq	(%rax), %rcx
	cmpq	%rdx, %rcx
	je	.L1285
	movq	%rcx, 80(%rsp)
	movq	16(%rax), %rcx
	movq	%rcx, 96(%rsp)
.L1270:
	movq	8(%rax), %rcx
	movq	%rdx, (%rax)
	movq	%r12, %rdi
	movq	$0, 8(%rax)
	movb	$0, 16(%rax)
	movq	%rcx, 88(%rsp)
	call	strlen@PLT
	movq	%r12, %rcx
	xorl	%edx, %edx
	xorl	%esi, %esi
	movq	%rax, %r8
	leaq	80(%rsp), %rax
	movq	%rax, %rdi
	movq	%rax, 8(%rsp)
.LEHB14:
	call	_ZNSt7__cxx1112basic_stringIcSt11char_traitsIcESaIcEE10_M_replaceEmmPKcm@PLT
.LEHE14:
	leaq	128(%rsp), %r15
	leaq	16(%rax), %r8
	movq	%r15, 112(%rsp)
	movq	(%rax), %rcx
	cmpq	%r8, %rcx
	je	.L1286
	movq	%rcx, 112(%rsp)
	movq	16(%rax), %rcx
	movq	%rcx, 128(%rsp)
.L1272:
	movq	8(%rax), %rcx
	movq	%r8, (%rax)
	leaq	16(%rsp), %r12
	movq	$0, 8(%rax)
	movq	%r12, %rdi
	movb	$0, 16(%rax)
	leaq	112(%rsp), %rax
	movq	%rax, %rsi
	movq	%rcx, 120(%rsp)
	movq	%rax, (%rsp)
.LEHB15:
	call	_ZNSt13runtime_errorC2ERKNSt7__cxx1112basic_stringIcSt11char_traitsIcESaIcEEE@PLT
.LEHE15:
	movq	112(%rsp), %rdi
	cmpq	%r15, %rdi
	je	.L1273
	movq	128(%rsp), %rax
	leaq	1(%rax), %rsi
	call	_ZdlPvm@PLT
.L1273:
	movq	80(%rsp), %rdi
	cmpq	%rbp, %rdi
	je	.L1274
	movq	96(%rsp), %rax
	leaq	1(%rax), %rsi
	call	_ZdlPvm@PLT
.L1274:
	movq	48(%rsp), %rdi
	leaq	64(%rsp), %rax
	cmpq	%rax, %rdi
	je	.L1275
	movq	64(%rsp), %rax
	leaq	1(%rax), %rsi
	call	_ZdlPvm@PLT
.L1275:
	movq	_ZTVSt12system_error@GOTPCREL(%rip), %rax
	movq	%r12, %rdi
	movl	%r14d, 32(%rsp)
	movq	%rbx, 40(%rsp)
	addq	$16, %rax
	movq	%rax, 16(%rsp)
.LEHB16:
	call	_ZN4asio6detail15throw_exceptionISt12system_errorEEvRKT_@PLT
.LEHE16:
.L1285:
	movq	8(%rax), %rcx
	movq	%rbp, %rdi
	movq	%rdx, %rsi
	addl	$1, %ecx
	rep movsb
	jmp	.L1270
.L1286:
	movq	8(%rax), %rcx
	movq	%r15, %rdi
	movq	%r8, %rsi
	addl	$1, %ecx
	rep movsb
	jmp	.L1272
.L1283:
	movq	%rax, %rbx
	jmp	.L1276
.L1282:
	movq	%rax, %rbx
	jmp	.L1277
.L1276:
	movq	(%rsp), %rdi
	call	_ZNSt7__cxx1112basic_stringIcSt11char_traitsIcESaIcEE10_M_disposeEv@PLT
.L1277:
	movq	8(%rsp), %rdi
	call	_ZNSt7__cxx1112basic_stringIcSt11char_traitsIcESaIcEE10_M_disposeEv@PLT
.L1278:
	leaq	48(%rsp), %rdi
	call	_ZNSt7__cxx1112basic_stringIcSt11char_traitsIcESaIcEE10_M_disposeEv@PLT
	movq	%rbx, %rdi
.LEHB17:
	call	_Unwind_Resume@PLT
.L1280:
	movq	%rax, %rbx
	jmp	.L1279
.L1281:
	movq	%rax, %rbx
	jmp	.L1278
.L1279:
	movq	%r12, %rdi
	call	_ZNSt12system_errorD1Ev@PLT
	movq	%rbx, %rdi
	call	_Unwind_Resume@PLT
.LEHE17:
	.cfi_endproc
.LFE2398:
	.section	.gcc_except_table
.LLSDA2398:
	.byte	0xff
	.byte	0xff
	.byte	0x1
	.uleb128 .LLSDACSE2398-.LLSDACSB2398
.LLSDACSB2398:
	.uleb128 .LEHB12-.LFB2398
	.uleb128 .LEHE12-.LEHB12
	.uleb128 0
	.uleb128 0
	.uleb128 .LEHB13-.LFB2398
	.uleb128 .LEHE13-.LEHB13
	.uleb128 .L1281-.LFB2398
	.uleb128 0
	.uleb128 .LEHB14-.LFB2398
	.uleb128 .LEHE14-.LEHB14
	.uleb128 .L1282-.LFB2398
	.uleb128 0
	.uleb128 .LEHB15-.LFB2398
	.uleb128 .LEHE15-.LEHB15
	.uleb128 .L1283-.LFB2398
	.uleb128 0
	.uleb128 .LEHB16-.LFB2398
	.uleb128 .LEHE16-.LEHB16
	.uleb128 .L1280-.LFB2398
	.uleb128 0
	.uleb128 .LEHB17-.LFB2398
	.uleb128 .LEHE17-.LEHB17
	.uleb128 0
	.uleb128 0
.LLSDACSE2398:
	.section	.text._ZN4asio6detail14do_throw_errorERKSt10error_codePKc,"axG",@progbits,_ZN4asio6detail14do_throw_errorERKSt10error_codePKc,comdat
	.size	_ZN4asio6detail14do_throw_errorERKSt10error_codePKc, .-_ZN4asio6detail14do_throw_errorERKSt10error_codePKc
	.section	.rodata.str1.1,"aMS",@progbits,1
.LC30:
	.string	"session-"
	.section	.text.unlikely
	.align 2
.LCOLDB31:
	.text
.LHOTB31:
	.align 2
	.p2align 4
	.globl	_ZN8asiodnp315MasterTCPServer17SessionIdToStringB5cxx11Em
	.type	_ZN8asiodnp315MasterTCPServer17SessionIdToStringB5cxx11Em, @function
_ZN8asiodnp315MasterTCPServer17SessionIdToStringB5cxx11Em:
.LFB8284:
	.cfi_startproc
	.cfi_personality 0x9b,DW.ref.__gxx_personality_v0
	.cfi_lsda 0x1b,.LLSDA8284
	pushq	%r15
	.cfi_def_cfa_offset 16
	.cfi_offset 15, -16
	pushq	%r14
	.cfi_def_cfa_offset 24
	.cfi_offset 14, -24
	pushq	%r13
	.cfi_def_cfa_offset 32
	.cfi_offset 13, -32
	pushq	%r12
	.cfi_def_cfa_offset 40
	.cfi_offset 12, -40
	pushq	%rbp
	.cfi_def_cfa_offset 48
	.cfi_offset 6, -48
	pushq	%rbx
	.cfi_def_cfa_offset 56
	.cfi_offset 3, -56
	movq	%rdi, %rbx
	subq	$424, %rsp
	.cfi_def_cfa_offset 480
	movq	_ZTVSt15basic_streambufIcSt11char_traitsIcEE@GOTPCREL(%rip), %rax
	movq	_ZTVNSt7__cxx1119basic_ostringstreamIcSt11char_traitsIcESaIcEEE@GOTPCREL(%rip), %r12
	leaq	144(%rsp), %rdi
	movq	%rsi, 24(%rsp)
	addq	$16, %rax
	leaq	24(%r12), %rcx
	movq	%rax, %xmm2
	movq	%rcx, %xmm0
	punpcklqdq	%xmm2, %xmm0
	movaps	%xmm0, (%rsp)
	call	_ZNSt8ios_baseC2Ev@PLT
	pxor	%xmm1, %xmm1
	leaq	32(%rsp), %rdi
	xorl	%esi, %esi
	movq	_ZTVSt9basic_iosIcSt11char_traitsIcEE@GOTPCREL(%rip), %rax
	movups	%xmm1, 376(%rsp)
	movups	%xmm1, 392(%rsp)
	movq	$0, 360(%rsp)
	addq	$16, %rax
	movq	%rax, 144(%rsp)
	xorl	%eax, %eax
	movw	%ax, 368(%rsp)
	movq	_ZTTNSt7__cxx1119basic_ostringstreamIcSt11char_traitsIcESaIcEEE@GOTPCREL(%rip), %rax
	movq	8(%rax), %rbp
	movq	16(%rax), %r15
	addq	-24(%rbp), %rdi
	movq	%rbp, 32(%rsp)
	movq	%r15, (%rdi)
.LEHB18:
	call	_ZNSt9basic_iosIcSt11char_traitsIcEE4initEPSt15basic_streambufIcS1_E@PLT
.LEHE18:
	movdqa	(%rsp), %xmm0
	leaq	64(%r12), %rax
	movq	%rax, 144(%rsp)
	leaq	96(%rsp), %rax
	movq	%rax, %rdi
	movaps	%xmm0, 32(%rsp)
	pxor	%xmm0, %xmm0
	movq	%rax, (%rsp)
	movaps	%xmm0, 48(%rsp)
	movaps	%xmm0, 64(%rsp)
	movaps	%xmm0, 80(%rsp)
	call	_ZNSt6localeC1Ev@PLT
	movq	_ZTVNSt7__cxx1115basic_stringbufIcSt11char_traitsIcESaIcEEE@GOTPCREL(%rip), %rax
	leaq	40(%rsp), %rsi
	leaq	144(%rsp), %rdi
	movl	$16, 104(%rsp)
	addq	$16, %rax
	movb	$0, 128(%rsp)
	movq	%rax, 40(%rsp)
	leaq	128(%rsp), %rax
	movq	%rax, 16(%rsp)
	movq	%rax, 112(%rsp)
	movq	$0, 120(%rsp)
.LEHB19:
	call	_ZNSt9basic_iosIcSt11char_traitsIcEE4initEPSt15basic_streambufIcS1_E@PLT
.LEHE19:
	movl	$8, %edx
	leaq	.LC30(%rip), %rsi
	leaq	32(%rsp), %rdi
.LEHB20:
	call	_ZSt16__ostream_insertIcSt11char_traitsIcEERSt13basic_ostreamIT_T0_ES6_PKS3_l@PLT
	movq	24(%rsp), %rsi
	leaq	32(%rsp), %rdi
	call	_ZNSo9_M_insertImEERSoT_@PLT
.LEHE20:
	movq	80(%rsp), %r8
	leaq	16(%rbx), %rax
	movq	$0, 8(%rbx)
	movq	%rax, (%rbx)
	movb	$0, 16(%rbx)
	testq	%r8, %r8
	je	.L1291
	movq	64(%rsp), %rax
	movq	%r8, %rdx
	movq	72(%rsp), %rcx
	movq	%rbx, %rdi
	cmpq	%r8, %rax
	cmovnb	%rax, %r8
	testq	%rax, %rax
	cmove	%rdx, %r8
	xorl	%edx, %edx
	xorl	%esi, %esi
	subq	%rcx, %r8
.LEHB21:
	call	_ZNSt7__cxx1112basic_stringIcSt11char_traitsIcESaIcEE10_M_replaceEmmPKcm@PLT
.L1295:
	leaq	24(%r12), %rax
	movq	112(%rsp), %rdi
	movq	%rax, 32(%rsp)
	leaq	64(%r12), %rax
	movq	%rax, 144(%rsp)
	cmpq	16(%rsp), %rdi
	je	.L1293
	movq	128(%rsp), %rax
	leaq	1(%rax), %rsi
	call	_ZdlPvm@PLT
.L1293:
	movq	_ZTVSt15basic_streambufIcSt11char_traitsIcEE@GOTPCREL(%rip), %rax
	movq	(%rsp), %rdi
	addq	$16, %rax
	movq	%rax, 40(%rsp)
	call	_ZNSt6localeD1Ev@PLT
	movq	-24(%rbp), %rax
	movq	%rbp, 32(%rsp)
	leaq	144(%rsp), %rdi
	movq	%r15, 32(%rsp,%rax)
	movq	_ZTVSt9basic_iosIcSt11char_traitsIcEE@GOTPCREL(%rip), %rax
	addq	$16, %rax
	movq	%rax, 144(%rsp)
	call	_ZNSt8ios_baseD2Ev@PLT
	addq	$424, %rsp
	.cfi_remember_state
	.cfi_def_cfa_offset 56
	movq	%rbx, %rax
	popq	%rbx
	.cfi_def_cfa_offset 48
	popq	%rbp
	.cfi_def_cfa_offset 40
	popq	%r12
	.cfi_def_cfa_offset 32
	popq	%r13
	.cfi_def_cfa_offset 24
	popq	%r14
	.cfi_def_cfa_offset 16
	popq	%r15
	.cfi_def_cfa_offset 8
	ret
	.p2align 4,,10
	.p2align 3
.L1291:
	.cfi_restore_state
	leaq	112(%rsp), %rsi
	movq	%rbx, %rdi
	call	_ZNSt7__cxx1112basic_stringIcSt11char_traitsIcESaIcEE9_M_assignERKS4_@PLT
.LEHE21:
	jmp	.L1295
.L1301:
	movq	%rax, %rbp
	jmp	.L1296
.L1298:
	movq	%rax, %rbp
	jmp	.L1297
.L1300:
	movq	%rax, %rbx
	jmp	.L1289
.L1299:
	movq	%rax, %rbx
	jmp	.L1290
	.section	.gcc_except_table
.LLSDA8284:
	.byte	0xff
	.byte	0xff
	.byte	0x1
	.uleb128 .LLSDACSE8284-.LLSDACSB8284
.LLSDACSB8284:
	.uleb128 .LEHB18-.LFB8284
	.uleb128 .LEHE18-.LEHB18
	.uleb128 .L1299-.LFB8284
	.uleb128 0
	.uleb128 .LEHB19-.LFB8284
	.uleb128 .LEHE19-.LEHB19
	.uleb128 .L1300-.LFB8284
	.uleb128 0
	.uleb128 .LEHB20-.LFB8284
	.uleb128 .LEHE20-.LEHB20
	.uleb128 .L1298-.LFB8284
	.uleb128 0
	.uleb128 .LEHB21-.LFB8284
	.uleb128 .LEHE21-.LEHB21
	.uleb128 .L1301-.LFB8284
	.uleb128 0
.LLSDACSE8284:
	.text
	.cfi_endproc
	.section	.text.unlikely
	.cfi_startproc
	.cfi_personality 0x9b,DW.ref.__gxx_personality_v0
	.cfi_lsda 0x1b,.LLSDAC8284
	.type	_ZN8asiodnp315MasterTCPServer17SessionIdToStringB5cxx11Em.cold, @function
_ZN8asiodnp315MasterTCPServer17SessionIdToStringB5cxx11Em.cold:
.LFSB8284:
.L1296:
	.cfi_def_cfa_offset 480
	.cfi_offset 3, -56
	.cfi_offset 6, -48
	.cfi_offset 12, -40
	.cfi_offset 13, -32
	.cfi_offset 14, -24
	.cfi_offset 15, -16
	movq	%rbx, %rdi
	call	_ZNSt7__cxx1112basic_stringIcSt11char_traitsIcESaIcEE10_M_disposeEv@PLT
.L1297:
	leaq	32(%rsp), %rdi
	call	_ZNSt7__cxx1119basic_ostringstreamIcSt11char_traitsIcESaIcEED1Ev@PLT
	movq	%rbp, %rdi
.LEHB22:
	call	_Unwind_Resume@PLT
.L1289:
	movq	_ZTVNSt7__cxx1115basic_stringbufIcSt11char_traitsIcESaIcEEE@GOTPCREL(%rip), %rax
	leaq	112(%rsp), %rdi
	addq	$16, %rax
	movq	%rax, 40(%rsp)
	call	_ZNSt7__cxx1112basic_stringIcSt11char_traitsIcESaIcEE10_M_disposeEv@PLT
	movq	_ZTVSt15basic_streambufIcSt11char_traitsIcEE@GOTPCREL(%rip), %rax
	movq	(%rsp), %rdi
	addq	$16, %rax
	movq	%rax, 40(%rsp)
	call	_ZNSt6localeD1Ev@PLT
	movq	-24(%rbp), %rax
	movq	%rbp, 32(%rsp)
	movq	%r15, 32(%rsp,%rax)
.L1290:
	movq	_ZTVSt9basic_iosIcSt11char_traitsIcEE@GOTPCREL(%rip), %rax
	leaq	144(%rsp), %rdi
	addq	$16, %rax
	movq	%rax, 144(%rsp)
	call	_ZNSt8ios_baseD2Ev@PLT
	movq	%rbx, %rdi
	call	_Unwind_Resume@PLT
.LEHE22:
	.cfi_endproc
.LFE8284:
	.section	.gcc_except_table
.LLSDAC8284:
	.byte	0xff
	.byte	0xff
	.byte	0x1
	.uleb128 .LLSDACSEC8284-.LLSDACSBC8284
.LLSDACSBC8284:
	.uleb128 .LEHB22-.LCOLDB31
	.uleb128 .LEHE22-.LEHB22
	.uleb128 0
	.uleb128 0
.LLSDACSEC8284:
	.section	.text.unlikely
	.text
	.size	_ZN8asiodnp315MasterTCPServer17SessionIdToStringB5cxx11Em, .-_ZN8asiodnp315MasterTCPServer17SessionIdToStringB5cxx11Em
	.section	.text.unlikely
	.size	_ZN8asiodnp315MasterTCPServer17SessionIdToStringB5cxx11Em.cold, .-_ZN8asiodnp315MasterTCPServer17SessionIdToStringB5cxx11Em.cold
.LCOLDE31:
	.text
.LHOTE31:
	.section	.rodata.str1.1
.LC32:
	.string	"remote_endpoint"
.LC34:
	.string	"%lu"
.LC35:
	.string	"Accepted connection from: %s"
	.section	.rodata.str1.8,"aMS",@progbits,1
	.align 8
.LC36:
	.string	"/opt/PLC/OpenPLC_v3/utils/dnp3_src/cpp/libs/src/asiodnp3/MasterTCPServer.cpp(67)"
	.section	.rodata.str1.1
.LC38:
	.string	"close"
.LC39:
	.string	"Rejected connection from: %s"
	.section	.rodata.str1.8
	.align 8
.LC40:
	.string	"/opt/PLC/OpenPLC_v3/utils/dnp3_src/cpp/libs/src/asiodnp3/MasterTCPServer.cpp(90)"
	.section	.text.unlikely
	.align 2
.LCOLDB52:
	.text
.LHOTB52:
	.align 2
	.p2align 4
	.globl	_ZN8asiodnp315MasterTCPServer16AcceptConnectionEmRKSt10shared_ptrIN7asiopal8ExecutorEEN4asio19basic_stream_socketINS7_2ip3tcpENS7_21stream_socket_serviceISA_EEEE
	.type	_ZN8asiodnp315MasterTCPServer16AcceptConnectionEmRKSt10shared_ptrIN7asiopal8ExecutorEEN4asio19basic_stream_socketINS7_2ip3tcpENS7_21stream_socket_serviceISA_EEEE, @function
_ZN8asiodnp315MasterTCPServer16AcceptConnectionEmRKSt10shared_ptrIN7asiopal8ExecutorEEN4asio19basic_stream_socketINS7_2ip3tcpENS7_21stream_socket_serviceISA_EEEE:
.LFB8275:
	.cfi_startproc
	.cfi_personality 0x9b,DW.ref.__gxx_personality_v0
	.cfi_lsda 0x1b,.LLSDA8275
	pushq	%r15
	.cfi_def_cfa_offset 16
	.cfi_offset 15, -16
	pushq	%r14
	.cfi_def_cfa_offset 24
	.cfi_offset 14, -24
	pushq	%r13
	.cfi_def_cfa_offset 32
	.cfi_offset 13, -32
	pushq	%r12
	.cfi_def_cfa_offset 40
	.cfi_offset 12, -40
	pushq	%rbp
	.cfi_def_cfa_offset 48
	.cfi_offset 6, -48
	xorl	%ebp, %ebp
	pushq	%rbx
	.cfi_def_cfa_offset 56
	.cfi_offset 3, -56
	movq	%rcx, %rbx
	subq	$1032, %rsp
	.cfi_def_cfa_offset 1088
	movq	_ZTVSt15basic_streambufIcSt11char_traitsIcEE@GOTPCREL(%rip), %rax
	movq	%rdx, 128(%rsp)
	movq	_ZTVNSt7__cxx1119basic_ostringstreamIcSt11char_traitsIcESaIcEEE@GOTPCREL(%rip), %rdx
	leaq	368(%rsp), %r14
	leaq	256(%rsp), %r15
	addq	$16, %rax
	movq	%rdi, 64(%rsp)
	movq	%r14, %rdi
	addq	$24, %rdx
	movq	%rax, %xmm3
	movq	%rsi, 96(%rsp)
	movq	%rdx, %xmm2
	movq	%r14, 112(%rsp)
	punpcklqdq	%xmm3, %xmm2
	movaps	%xmm2, 32(%rsp)
	call	_ZNSt8ios_baseC2Ev@PLT
	movq	_ZTVSt9basic_iosIcSt11char_traitsIcEE@GOTPCREL(%rip), %rax
	pxor	%xmm0, %xmm0
	xorl	%esi, %esi
	movw	%bp, 592(%rsp)
	addq	$16, %rax
	movups	%xmm0, 600(%rsp)
	movq	%rax, 368(%rsp)
	movq	_ZTTNSt7__cxx1119basic_ostringstreamIcSt11char_traitsIcESaIcEEE@GOTPCREL(%rip), %rax
	movups	%xmm0, 616(%rsp)
	movq	$0, 584(%rsp)
	movq	8(%rax), %rcx
	movq	16(%rax), %rax
	movq	-24(%rcx), %rdi
	movq	%rcx, 256(%rsp)
	movq	%rcx, 80(%rsp)
	addq	%r15, %rdi
	movq	%rax, 88(%rsp)
	movq	%rax, (%rdi)
.LEHB23:
	call	_ZNSt9basic_iosIcSt11char_traitsIcEE4initEPSt15basic_streambufIcS1_E@PLT
.LEHE23:
	movq	_ZTVNSt7__cxx1119basic_ostringstreamIcSt11char_traitsIcESaIcEEE@GOTPCREL(%rip), %rax
	movdqa	32(%rsp), %xmm2
	pxor	%xmm0, %xmm0
	movaps	%xmm0, 272(%rsp)
	addq	$64, %rax
	movaps	%xmm2, 256(%rsp)
	movq	%rax, 368(%rsp)
	leaq	320(%rsp), %rax
	movq	%rax, %rdi
	movq	%rax, 104(%rsp)
	movaps	%xmm0, 288(%rsp)
	movaps	%xmm0, 304(%rsp)
	call	_ZNSt6localeC1Ev@PLT
	movq	_ZTVNSt7__cxx1115basic_stringbufIcSt11char_traitsIcESaIcEEE@GOTPCREL(%rip), %rax
	movq	%r14, %rdi
	leaq	264(%rsp), %rsi
	movl	$16, 328(%rsp)
	addq	$16, %rax
	movb	$0, 352(%rsp)
	movq	%rax, 264(%rsp)
	leaq	352(%rsp), %rax
	movq	%rax, 120(%rsp)
	movq	%rax, 336(%rsp)
	movq	$0, 344(%rsp)
.LEHB24:
	call	_ZNSt9basic_iosIcSt11char_traitsIcEE4initEPSt15basic_streambufIcS1_E@PLT
.LEHE24:
	call	_ZNSt3_V215system_categoryEv@PLT
	movl	(%rbx), %r12d
	pxor	%xmm0, %xmm0
	movl	$2, %r11d
	movups	%xmm0, 642(%rsp)
	movq	%rax, 56(%rsp)
	movq	%rax, 200(%rsp)
	movw	%r11w, 640(%rsp)
	movups	%xmm0, 652(%rsp)
	cmpl	$-1, %r12d
	je	.L1828
	call	__errno_location@PLT
	leaq	224(%rsp), %rdx
	movl	%r12d, %edi
	movl	$28, 224(%rsp)
	movl	$0, (%rax)
	movq	%rax, %rbp
	leaq	640(%rsp), %rax
	movq	%rax, %rsi
	movq	%rdx, (%rsp)
	movq	%rax, 48(%rsp)
	call	getpeername@PLT
	movl	224(%rsp), %r13d
	movl	%eax, %r12d
	movq	_ZGVZN4asio15system_categoryEvE8instance@GOTPCREL(%rip), %rax
	movzbl	(%rax), %eax
	testb	%al, %al
	je	.L1312
	movq	_ZZN4asio15system_categoryEvE8instance@GOTPCREL(%rip), %rax
	movq	%rax, 16(%rsp)
	movq	%rax, %rdx
.L1313:
	movq	%rdx, 200(%rsp)
	movl	0(%rbp), %eax
	testl	%r12d, %r12d
	jne	.L1315
	cmpl	$128, %r13d
	ja	.L1829
	movd	644(%rsp), %xmm1
	movl	664(%rsp), %eax
	movdqu	648(%rsp), %xmm0
	movl	%eax, 144(%rsp)
	movzwl	642(%rsp), %eax
	movw	%ax, 140(%rsp)
	cmpw	$2, 640(%rsp)
	je	.L1318
	movq	56(%rsp), %rax
	movq	48(%rsp), %rdx
	movl	$0, 0(%rbp)
	leaq	232(%rsp), %rsi
	movl	144(%rsp), %r13d
	movl	$63, %ecx
	movl	$10, %edi
	movq	$1, 224(%rsp)
	movq	%rax, 184(%rsp)
	movq	%r13, 248(%rsp)
	movups	%xmm0, 232(%rsp)
	call	inet_ntop@PLT
	movq	%rax, %r14
	movq	_ZGVZN4asio15system_categoryEvE8instance@GOTPCREL(%rip), %rax
	movzbl	(%rax), %eax
	testb	%al, %al
	je	.L1830
.L1323:
	movq	16(%rsp), %rax
	movl	0(%rbp), %r12d
	movq	%rax, 184(%rsp)
	testq	%r14, %r14
	je	.L1827
	leaq	192(%rsp), %rax
	movq	%rax, 72(%rsp)
	testq	%r13, %r13
	jne	.L1831
.L1331:
	leaq	208(%rsp), %r13
	movq	%r14, %rdi
	movq	%r13, 192(%rsp)
	call	strlen@PLT
	movq	%rax, 168(%rsp)
	movq	%rax, %rcx
	cmpq	$15, %rax
	ja	.L1832
	cmpq	$1, %rax
	je	.L1833
	testq	%rax, %rax
	jne	.L1834
.L1340:
	movq	%r13, %rdx
.L1339:
	movl	$10, %r9d
	movq	%rax, 200(%rsp)
	movw	%r9w, 144(%rsp)
	movb	$0, (%rdx,%rax)
	jmp	.L1341
	.p2align 4,,10
	.p2align 3
.L1315:
	testl	%eax, %eax
	jne	.L1311
	xorl	%r10d, %r10d
	pxor	%xmm1, %xmm1
	movw	%r10w, 140(%rsp)
.L1318:
	movl	$0, 0(%rbp)
	pxor	%xmm0, %xmm0
	movq	56(%rsp), %rax
	leaq	228(%rsp), %rsi
	punpckldq	%xmm1, %xmm0
	movq	48(%rsp), %rdx
	movl	$16, %ecx
	movl	$2, %edi
	movq	%xmm0, 224(%rsp)
	pxor	%xmm0, %xmm0
	movq	%rax, 184(%rsp)
	movq	$0, 248(%rsp)
	movups	%xmm0, 232(%rsp)
	call	inet_ntop@PLT
	movq	%rax, %r14
	movq	_ZGVZN4asio15system_categoryEvE8instance@GOTPCREL(%rip), %rax
	movzbl	(%rax), %eax
	testb	%al, %al
	je	.L1835
.L1321:
	movq	16(%rsp), %rax
	movl	0(%rbp), %r12d
	movq	%rax, 184(%rsp)
	testq	%r14, %r14
	je	.L1827
	leaq	192(%rsp), %rax
	leaq	208(%rsp), %r13
	movq	%r14, %rdi
	movq	%rax, 72(%rsp)
	movq	%r13, 192(%rsp)
	call	strlen@PLT
	movq	%rax, 168(%rsp)
	movq	%rax, %rcx
	cmpq	$15, %rax
	ja	.L1836
	cmpq	$1, %rax
	je	.L1837
	testq	%rax, %rax
	jne	.L1838
.L1354:
	movq	%r13, %rdx
.L1353:
	movl	$2, %r8d
	movq	%rax, 200(%rsp)
	movw	%r8w, 144(%rsp)
	movb	$0, (%rdx,%rax)
.L1341:
	testl	%r12d, %r12d
	jne	.L1335
	leaq	752(%rsp), %r14
	movq	%r14, %rdi
	call	_ZNSt8ios_baseC2Ev@PLT
	movq	_ZTVSt9basic_iosIcSt11char_traitsIcEE@GOTPCREL(%rip), %rax
	xorl	%edi, %edi
	xorl	%esi, %esi
	pxor	%xmm0, %xmm0
	movw	%di, 976(%rsp)
	movq	48(%rsp), %rdi
	addq	$16, %rax
	movups	%xmm0, 984(%rsp)
	movq	%rax, 752(%rsp)
	movq	80(%rsp), %rax
	movups	%xmm0, 1000(%rsp)
	movq	%rax, 640(%rsp)
	addq	-24(%rax), %rdi
	movq	88(%rsp), %rax
	movq	$0, 968(%rsp)
	movq	%rax, (%rdi)
.LEHB25:
	call	_ZNSt9basic_iosIcSt11char_traitsIcEE4initEPSt15basic_streambufIcS1_E@PLT
.LEHE25:
	movq	_ZTVNSt7__cxx1119basic_ostringstreamIcSt11char_traitsIcESaIcEEE@GOTPCREL(%rip), %rax
	movdqa	32(%rsp), %xmm4
	pxor	%xmm0, %xmm0
	leaq	736(%rsp), %r12
	movaps	%xmm0, 656(%rsp)
	addq	$64, %rax
	movaps	%xmm4, 640(%rsp)
	movq	%rax, 752(%rsp)
	leaq	704(%rsp), %rax
	movq	%rax, %rdi
	movq	%rax, 152(%rsp)
	movaps	%xmm0, 672(%rsp)
	movaps	%xmm0, 688(%rsp)
	call	_ZNSt6localeC1Ev@PLT
	movq	_ZTVNSt7__cxx1115basic_stringbufIcSt11char_traitsIcESaIcEEE@GOTPCREL(%rip), %rax
	movq	%r14, %rdi
	leaq	648(%rsp), %rsi
	movl	$16, 712(%rsp)
	addq	$16, %rax
	movq	%r12, 720(%rsp)
	movq	%rax, 648(%rsp)
	movq	$0, 728(%rsp)
	movb	$0, 736(%rsp)
.LEHB26:
	call	_ZNSt9basic_iosIcSt11char_traitsIcEE4initEPSt15basic_streambufIcS1_E@PLT
.LEHE26:
.LEHB27:
	call	_ZNSt6locale7classicEv@PLT
	movq	(%rsp), %rdi
	movq	%rax, %rdx
	movq	%r14, %rsi
	call	_ZNSt9basic_iosIcSt11char_traitsIcEE5imbueERKSt6locale@PLT
	movq	(%rsp), %rdi
	call	_ZNSt6localeD1Ev@PLT
	cmpw	$2, 144(%rsp)
	jne	.L1362
	movq	200(%rsp), %rdx
	movq	192(%rsp), %rsi
	movq	48(%rsp), %rdi
	call	_ZSt16__ostream_insertIcSt11char_traitsIcEERSt13basic_ostreamIT_T0_ES6_PKS3_l@PLT
.L1363:
	movq	640(%rsp), %rax
	movb	$58, 167(%rsp)
	movq	-24(%rax), %rax
	cmpq	$0, 656(%rsp,%rax)
	je	.L1368
	movq	48(%rsp), %rdi
	leaq	167(%rsp), %rsi
	movl	$1, %edx
	call	_ZSt16__ostream_insertIcSt11char_traitsIcEERSt13basic_ostreamIT_T0_ES6_PKS3_l@PLT
	movq	%rax, %rdi
.L1369:
	movzwl	140(%rsp), %edx
	rolw	$8, %dx
	movzwl	%dx, %esi
	call	_ZNSo9_M_insertImEERSoT_@PLT
.LEHE27:
	movq	688(%rsp), %r8
	leaq	240(%rsp), %rax
	movq	$0, 232(%rsp)
	movq	%rax, 32(%rsp)
	movq	%rax, 224(%rsp)
	movb	$0, 240(%rsp)
	testq	%r8, %r8
	je	.L1370
	movq	672(%rsp), %rax
	movq	%r8, %rdx
	movq	680(%rsp), %rcx
	movq	(%rsp), %rdi
	cmpq	%r8, %rax
	cmovnb	%rax, %r8
	testq	%rax, %rax
	cmove	%rdx, %r8
	xorl	%edx, %edx
	xorl	%esi, %esi
	subq	%rcx, %r8
.LEHB28:
	call	_ZNSt7__cxx1112basic_stringIcSt11char_traitsIcESaIcEE10_M_replaceEmmPKcm@PLT
.LEHE28:
.L1372:
	movq	_ZTVNSt7__cxx1119basic_ostringstreamIcSt11char_traitsIcESaIcEEE@GOTPCREL(%rip), %rax
	movq	720(%rsp), %rdi
	addq	$24, %rax
	movq	%rax, 640(%rsp)
	movq	_ZTVNSt7__cxx1119basic_ostringstreamIcSt11char_traitsIcESaIcEEE@GOTPCREL(%rip), %rax
	addq	$64, %rax
	movq	%rax, 752(%rsp)
	cmpq	%r12, %rdi
	je	.L1373
	movq	736(%rsp), %rax
	leaq	1(%rax), %rsi
	call	_ZdlPvm@PLT
.L1373:
	movq	_ZTVSt15basic_streambufIcSt11char_traitsIcEE@GOTPCREL(%rip), %rax
	movq	152(%rsp), %rdi
	addq	$16, %rax
	movq	%rax, 648(%rsp)
	call	_ZNSt6localeD1Ev@PLT
	movq	80(%rsp), %rax
	movq	88(%rsp), %rdx
	movq	%r14, %rdi
	movq	%rax, 640(%rsp)
	movq	-24(%rax), %rax
	movq	%rdx, 640(%rsp,%rax)
	movq	_ZTVSt9basic_iosIcSt11char_traitsIcEE@GOTPCREL(%rip), %rax
	addq	$16, %rax
	movq	%rax, 752(%rsp)
	call	_ZNSt8ios_baseD2Ev@PLT
	movq	192(%rsp), %rdi
	cmpq	%r13, %rdi
	je	.L1377
	movq	208(%rsp), %rax
	leaq	1(%rax), %rsi
	call	_ZdlPvm@PLT
.L1377:
	movq	224(%rsp), %rdi
	movq	232(%rsp), %rax
	movq	%rdi, %r13
	jmp	.L1382
	.p2align 4,,10
	.p2align 3
.L1839:
	movq	72(%rsp), %rsi
	movl	$1, %edx
	movq	%r15, %rdi
.LEHB29:
	call	_ZSt16__ostream_insertIcSt11char_traitsIcEERSt13basic_ostreamIT_T0_ES6_PKS3_l@PLT
.L1388:
	movq	224(%rsp), %rdi
	movq	232(%rsp), %rax
	addq	$1, %r13
.L1382:
	addq	%rdi, %rax
	cmpq	%rax, %r13
	je	.L1381
	movq	256(%rsp), %rax
	movzbl	0(%r13), %r12d
	movq	-24(%rax), %rcx
	addq	%r15, %rcx
	movq	240(%rcx), %r14
	movq	%rcx, %rax
	testq	%r14, %r14
	je	.L1795
	cmpb	$0, 56(%r14)
	je	.L1384
	movzbl	57(%r14,%r12), %r12d
.L1385:
	movb	%r12b, 192(%rsp)
	cmpq	$0, 16(%rax)
	jne	.L1839
	movsbl	%r12b, %esi
	movq	%r15, %rdi
	call	_ZNSo3putEc@PLT
	jmp	.L1388
	.p2align 4,,10
	.p2align 3
.L1835:
	movq	_ZGVZN4asio15system_categoryEvE8instance@GOTPCREL(%rip), %rdi
	call	__cxa_guard_acquire@PLT
	testl	%eax, %eax
	je	.L1321
	movq	16(%rsp), %rsi
	movq	_ZN4asio6detail15system_categoryD1Ev@GOTPCREL(%rip), %rdi
	leaq	__dso_handle(%rip), %rdx
	call	__cxa_atexit@PLT
	movq	_ZGVZN4asio15system_categoryEvE8instance@GOTPCREL(%rip), %rdi
	call	__cxa_guard_release@PLT
	jmp	.L1321
	.p2align 4,,10
	.p2align 3
.L1827:
	testl	%r12d, %r12d
	je	.L1840
	leaq	208(%rsp), %r13
	movb	$0, 208(%rsp)
	movq	%r13, 192(%rsp)
.L1335:
	movq	192(%rsp), %rdi
	leaq	240(%rsp), %rax
	movq	$0, 232(%rsp)
	movq	%rax, 32(%rsp)
	movq	%rax, 224(%rsp)
	movb	$0, 240(%rsp)
	cmpq	%r13, %rdi
	je	.L1348
	movq	208(%rsp), %rax
	leaq	1(%rax), %rsi
	call	_ZdlPvm@PLT
.L1348:
	movq	256(%rsp), %rax
	movq	-24(%rax), %rdi
	addq	%r15, %rdi
	testb	$4, 28(%rdi)
	jne	.L1841
	movl	32(%rdi), %esi
	orl	$4, %esi
	call	_ZNSt9basic_iosIcSt11char_traitsIcEE5clearESt12_Ios_Iostate@PLT
.LEHE29:
	movq	224(%rsp), %rdi
.L1381:
	cmpq	32(%rsp), %rdi
	je	.L1390
	movq	240(%rsp), %rax
	leaq	1(%rax), %rsi
	call	_ZdlPvm@PLT
.L1390:
	movq	64(%rsp), %rax
	movl	(%rbx), %edi
	pxor	%xmm0, %xmm0
	movl	$2, %esi
	movq	208(%rax), %r12
	movq	(%r12), %rax
	movq	16(%rax), %rax
	movups	%xmm0, 642(%rsp)
	movw	%si, 640(%rsp)
	movq	%rax, 72(%rsp)
	movq	56(%rsp), %rax
	movups	%xmm0, 652(%rsp)
	movq	%rax, 200(%rsp)
	cmpl	$-1, %edi
	je	.L1842
	movq	(%rsp), %rdx
	movq	48(%rsp), %rsi
	movl	$0, 0(%rbp)
	movl	$28, 224(%rsp)
	call	getpeername@PLT
	movl	224(%rsp), %r14d
	movl	%eax, %r13d
	movq	_ZGVZN4asio15system_categoryEvE8instance@GOTPCREL(%rip), %rax
	movzbl	(%rax), %eax
	testb	%al, %al
	je	.L1843
.L1396:
	movq	16(%rsp), %rcx
	movl	0(%rbp), %eax
	movq	%rcx, 200(%rsp)
	testl	%r13d, %r13d
	jne	.L1398
	cmpl	$128, %r14d
	ja	.L1844
	movd	644(%rsp), %xmm1
	movl	664(%rsp), %eax
	movdqu	648(%rsp), %xmm0
	movl	%eax, 140(%rsp)
	cmpw	$2, 640(%rsp)
	je	.L1401
	movq	56(%rsp), %rax
	movq	48(%rsp), %rdx
	movl	$0, 0(%rbp)
	leaq	200(%rsp), %rsi
	movl	140(%rsp), %r13d
	movl	$63, %ecx
	movl	$10, %edi
	movq	$1, 192(%rsp)
	movq	%rax, 184(%rsp)
	movq	%r13, 216(%rsp)
	movups	%xmm0, 200(%rsp)
	call	inet_ntop@PLT
	movq	%rax, %r14
	movq	_ZGVZN4asio15system_categoryEvE8instance@GOTPCREL(%rip), %rax
	movzbl	(%rax), %eax
	testb	%al, %al
	je	.L1845
.L1406:
	movl	0(%rbp), %eax
	movl	%eax, 56(%rsp)
	movq	16(%rsp), %rax
	movq	%rax, 184(%rsp)
	testq	%r14, %r14
	je	.L1846
	testq	%r13, %r13
	jne	.L1847
.L1414:
	movq	32(%rsp), %rax
	movq	%r14, %rdi
	movq	%rax, 224(%rsp)
	call	strlen@PLT
	movq	%rax, 168(%rsp)
	movq	%rax, %r13
	cmpq	$15, %rax
	ja	.L1848
	cmpq	$1, %rax
	je	.L1849
	testq	%rax, %rax
	jne	.L1850
.L1423:
	movq	32(%rsp), %rdx
.L1422:
	movq	%rax, 232(%rsp)
	movb	$0, (%rdx,%rax)
	movl	56(%rsp), %edx
	testl	%edx, %edx
	je	.L1425
	jmp	.L1413
	.p2align 4,,10
	.p2align 3
.L1398:
	testl	%eax, %eax
	jne	.L1394
	pxor	%xmm1, %xmm1
.L1401:
	movl	$0, 0(%rbp)
	pxor	%xmm0, %xmm0
	movq	56(%rsp), %rax
	leaq	196(%rsp), %rsi
	punpckldq	%xmm1, %xmm0
	movq	48(%rsp), %rdx
	movl	$16, %ecx
	movl	$2, %edi
	movq	%xmm0, 192(%rsp)
	pxor	%xmm0, %xmm0
	movq	$0, 216(%rsp)
	movq	%rax, 184(%rsp)
	movups	%xmm0, 200(%rsp)
	call	inet_ntop@PLT
	movq	%rax, %r13
	movq	_ZGVZN4asio15system_categoryEvE8instance@GOTPCREL(%rip), %rax
	movzbl	(%rax), %eax
	testb	%al, %al
	je	.L1851
.L1404:
	movq	16(%rsp), %rax
	movl	0(%rbp), %r14d
	movq	%rax, 184(%rsp)
	testq	%r13, %r13
	je	.L1852
	movq	32(%rsp), %rax
	movq	%r13, %rdi
	movq	%rax, 224(%rsp)
	call	strlen@PLT
	movq	%rax, 168(%rsp)
	movq	%rax, %rcx
	cmpq	$15, %rax
	ja	.L1853
	cmpq	$1, %rax
	je	.L1854
	testq	%rax, %rax
	jne	.L1855
.L1440:
	movq	32(%rsp), %rdx
.L1439:
	movq	%rax, 232(%rsp)
	movb	$0, (%rdx,%rax)
	testl	%r14d, %r14d
	jne	.L1433
.L1425:
	movq	(%rsp), %rdx
	movq	96(%rsp), %rsi
	movq	%r12, %rdi
.LEHB30:
	call	*72(%rsp)
.LEHE30:
	movb	%al, 56(%rsp)
	movq	224(%rsp), %rdi
	cmpq	32(%rsp), %rdi
	je	.L1443
	movq	240(%rsp), %rax
	leaq	1(%rax), %rsi
	call	_ZdlPvm@PLT
.L1443:
	cmpb	$0, 56(%rsp)
	je	.L1444
	movq	64(%rsp), %rax
	movq	48(%rsp), %rsi
	movl	$8, 640(%rsp)
	leaq	24(%rax), %rbp
	movq	%rbp, %rdi
.LEHB31:
	call	_ZNK7openpal6Logger9IsEnabledERKNS_10LogFiltersE@PLT
.LEHE31:
	testb	%al, %al
	je	.L1445
	movq	32(%rsp), %rax
	movq	304(%rsp), %r8
	movq	$0, 232(%rsp)
	movb	$0, 240(%rsp)
	movq	%rax, 224(%rsp)
	testq	%r8, %r8
	je	.L1446
	movq	288(%rsp), %rax
	movq	%r8, %rdx
	movq	296(%rsp), %rcx
	movq	(%rsp), %rdi
	cmpq	%r8, %rax
	cmovnb	%rax, %r8
	testq	%rax, %rax
	cmove	%rdx, %r8
	xorl	%edx, %edx
	xorl	%esi, %esi
	subq	%rcx, %r8
.LEHB32:
	call	_ZNSt7__cxx1112basic_stringIcSt11char_traitsIcESaIcEE10_M_replaceEmmPKcm@PLT
.LEHE32:
.L1448:
	movq	48(%rsp), %rdi
	movq	224(%rsp), %rcx
	leaq	.LC35(%rip), %rdx
	xorl	%eax, %eax
	movl	$120, %esi
	call	snprintf@PLT
	movq	224(%rsp), %rdi
	cmpq	32(%rsp), %rdi
	je	.L1449
	movq	240(%rsp), %rax
	leaq	1(%rax), %rsi
	call	_ZdlPvm@PLT
.L1449:
	movq	48(%rsp), %rcx
	movq	(%rsp), %rsi
	leaq	.LC36(%rip), %rdx
	movq	%rbp, %rdi
	movl	$8, 224(%rsp)
.LEHB33:
	call	_ZN7openpal6Logger3LogERKNS_10LogFiltersEPKcS5_@PLT
.LEHE33:
.L1445:
	movl	(%rbx), %eax
	movl	$-1, (%rbx)
	movl	$72, %edi
	movq	24(%rbx), %r13
	movl	%eax, 72(%rsp)
	movzbl	4(%rbx), %eax
	movb	$0, 4(%rbx)
	movb	%al, 140(%rsp)
	movq	8(%rbx), %rax
	movq	$0, 8(%rbx)
	movq	%rax, 144(%rsp)
	movl	16(%rbx), %eax
	movl	$2, 16(%rbx)
	movl	%eax, 152(%rsp)
	movq	128(%rsp), %rax
	movq	(%rax), %rbp
	addq	$24, %rbp
.LEHB34:
	call	_Znwm@PLT
.LEHE34:
	movq	.LC37(%rip), %r14
	movq	%rax, %rbx
	movq	%rbp, %rsi
	leaq	16(%rbx), %r12
	movq	%r14, 8(%rax)
	movq	_ZTVSt23_Sp_counted_ptr_inplaceIN7asiopal8ExecutorESaIvELN9__gnu_cxx12_Lock_policyE2EE@GOTPCREL(%rip), %rax
	movq	%r12, %rdi
	addq	$16, %rax
	movq	%rax, (%rbx)
.LEHB35:
	call	_ZN7asiopal8ExecutorC1ERKSt10shared_ptrINS_2IOEE@PLT
.LEHE35:
	movq	32(%rbx), %rdi
	testq	%rdi, %rdi
	je	.L1453
	movl	8(%rdi), %eax
	testl	%eax, %eax
	jne	.L1456
.L1453:
	movq	__libc_single_threaded@GOTPCREL(%rip), %rax
	movq	%r12, 24(%rbx)
	cmpb	$0, (%rax)
	je	.L1457
	addl	$1, 12(%rbx)
	testq	%rdi, %rdi
	je	.L1459
.L1458:
	movl	12(%rdi), %eax
	leal	-1(%rax), %edx
	movl	%edx, 12(%rdi)
.L1462:
	cmpl	$1, %eax
	jne	.L1459
	movq	(%rdi), %rax
	call	*24(%rax)
	.p2align 4
	.p2align 3
.L1459:
	movq	%rbx, 32(%rbx)
.L1456:
	movl	$112, %edi
.LEHB36:
	call	_Znwm@PLT
.LEHE36:
	movq	%rax, %rbp
	movq	%r14, 8(%rax)
	movq	_ZTVSt23_Sp_counted_ptr_inplaceIN7asiopal13SocketChannelESaIvELN9__gnu_cxx12_Lock_policyE2EE@GOTPCREL(%rip), %rax
	movq	%r13, 664(%rsp)
	addq	$16, %rax
	movq	%r12, 224(%rsp)
	movq	%rax, 0(%rbp)
	leaq	16(%rbp), %rax
	movq	%rax, 16(%rsp)
	movl	72(%rsp), %eax
	movq	%rbx, 232(%rsp)
	movl	%eax, 640(%rsp)
	movzbl	140(%rsp), %eax
	movb	%al, 644(%rsp)
	movq	144(%rsp), %rax
	movq	%rax, 648(%rsp)
	movl	152(%rsp), %eax
	movl	%eax, 656(%rsp)
	movq	__libc_single_threaded@GOTPCREL(%rip), %rax
	cmpb	$0, (%rax)
	je	.L1463
	addl	$1, 8(%rbx)
.L1464:
	movq	48(%rsp), %rdx
	movq	(%rsp), %rsi
	movq	16(%rsp), %rdi
.LEHB37:
	call	_ZN7asiopal13SocketChannelC1ESt10shared_ptrINS_8ExecutorEEN4asio19basic_stream_socketINS4_2ip3tcpENS4_21stream_socket_serviceIS7_EEEE@PLT
.LEHE37:
	movq	232(%rsp), %r12
	testq	%r12, %r12
	je	.L1465
	movq	8(%r12), %rdx
	leaq	8(%r12), %rcx
	movabsq	$4294967297, %rax
	cmpq	%rax, %rdx
	je	.L1856
	movq	__libc_single_threaded@GOTPCREL(%rip), %rax
	cmpb	$0, (%rax)
	je	.L1468
	movl	8(%r12), %eax
	leal	-1(%rax), %edx
	movl	%edx, 8(%r12)
.L1469:
	cmpl	$1, %eax
	je	.L1857
.L1465:
	movq	664(%rsp), %rax
	movq	48(%rsp), %rsi
	leaq	40(%rax), %rdi
	call	_ZN4asio6detail28reactive_socket_service_base7destroyERNS1_24base_implementation_typeE@PLT
.L1467:
	movq	32(%rbp), %rdi
	testq	%rdi, %rdi
	je	.L1474
	movl	8(%rdi), %eax
	testl	%eax, %eax
	jne	.L1820
.L1474:
	movq	16(%rsp), %rax
	movq	%rax, 24(%rbp)
	movq	__libc_single_threaded@GOTPCREL(%rip), %rax
	cmpb	$0, (%rax)
	je	.L1476
	addl	$1, 12(%rbp)
	testq	%rdi, %rdi
	je	.L1478
.L1477:
	movl	12(%rdi), %eax
	leal	-1(%rax), %edx
	movl	%edx, 12(%rdi)
.L1481:
	cmpl	$1, %eax
	jne	.L1478
	movq	(%rdi), %rax
	call	*24(%rax)
	.p2align 4
	.p2align 3
.L1478:
	movq	%rbp, 32(%rbp)
.L1820:
	movq	16(%rsp), %rax
	movq	%rbx, %rdi
	movq	%rbp, 184(%rsp)
	movq	%rax, 176(%rsp)
	call	_ZNSt16_Sp_counted_baseILN9__gnu_cxx12_Lock_policyE2EE10_M_releaseEv@PLT
	movq	48(%rsp), %rsi
	leaq	40(%r13), %rdi
	movl	$-1, 640(%rsp)
	movb	$0, 644(%rsp)
	movq	$0, 648(%rsp)
	movl	$2, 656(%rsp)
	movq	%r13, 664(%rsp)
	call	_ZN4asio6detail28reactive_socket_service_base7destroyERNS1_24base_implementation_typeE@PLT
	movq	64(%rsp), %rax
	movq	224(%rax), %rbp
	leaq	8(%rbp), %r12
	movq	%r12, %rdi
	call	pthread_mutex_lock@PLT
	testl	%eax, %eax
	jne	.L1796
	cmpb	$0, 48(%rbp)
	je	.L1483
	movq	%r12, %rdi
	call	pthread_mutex_unlock@PLT
	movq	176(%rsp), %rbp
	cmpb	$0, 56(%rbp)
	jne	.L1484
	movq	0(%rbp), %rax
	movb	$1, 56(%rbp)
	movq	%rbp, %rdi
.LEHB38:
	call	*32(%rax)
.LEHE38:
	movq	16(%rbp), %rbx
	testq	%rbx, %rbx
	je	.L1534
	movl	8(%rbx), %eax
	leaq	8(%rbx), %rdx
.L1536:
	testl	%eax, %eax
	je	.L1817
	leal	1(%rax), %ecx
	lock cmpxchgl	%ecx, (%rdx)
	jne	.L1536
	movq	__libc_single_threaded@GOTPCREL(%rip), %rax
	movq	8(%rbp), %r12
	movq	24(%rbp), %rbp
	cmpb	$0, (%rax)
	je	.L1858
	addl	$1, 8(%rbx)
.L1537:
	data16	leaq	_ZN4asio6detail15keyword_tss_ptrINS0_10call_stackINS0_15task_io_serviceENS0_27task_io_service_thread_infoEE7contextEE6value_E@tlsgd(%rip), %rdi
	.value	0x6666
	rex64
	call	__tls_get_addr@PLT
	movq	40(%rbp), %r13
	movq	(%rax), %rax
	testq	%rax, %rax
	je	.L1538
	movq	8(%rax), %rax
	testq	%rax, %rax
	je	.L1538
	movq	(%rax), %r14
	testq	%r14, %r14
	je	.L1538
	movq	$0, (%rax)
	movzbl	(%r14), %eax
	cmpb	$39, %al
	jbe	.L1539
	movb	%al, 40(%r14)
.L1540:
	movq	%r14, %xmm7
	movq	_ZN4asio6detail18completion_handlerIZN7asiopal13IAsyncChannel8ShutdownEvEUlvE_E11do_completeEPNS0_15task_io_serviceEPNS0_25task_io_service_operationERKSt10error_codem@GOTPCREL(%rip), %rax
	movq	%r12, %xmm0
	movq	$0, (%r14)
	punpcklqdq	%xmm7, %xmm7
	movl	$0, 16(%r14)
	movaps	%xmm7, (%rsp)
	movq	%rbx, %xmm7
	punpcklqdq	%xmm7, %xmm0
	movq	%rax, 8(%r14)
	movups	%xmm0, 24(%r14)
	movq	48(%rbp), %rax
	leaq	24(%rax), %rdi
	call	pthread_mutex_lock@PLT
	movq	48(%rbp), %rax
	cmpb	$0, 64(%rax)
	je	.L1541
	movq	80(%rax), %rdx
	movq	$0, (%r14)
	testq	%rdx, %rdx
	je	.L1542
	movq	%r14, (%rdx)
	movq	%r14, 80(%rax)
.L1543:
	leaq	24(%rax), %rdi
	call	pthread_mutex_unlock@PLT
.L1544:
	movq	%rbx, %rdi
	call	_ZNSt16_Sp_counted_baseILN9__gnu_cxx12_Lock_policyE2EE10_M_releaseEv@PLT
	.p2align 4
	.p2align 3
.L1484:
	movq	184(%rsp), %rdi
	testq	%rdi, %rdi
	je	.L1559
	call	_ZNSt16_Sp_counted_baseILN9__gnu_cxx12_Lock_policyE2EE10_M_releaseEv@PLT
	jmp	.L1559
	.p2align 4,,10
	.p2align 3
.L1843:
	movq	_ZGVZN4asio15system_categoryEvE8instance@GOTPCREL(%rip), %rdi
	call	__cxa_guard_acquire@PLT
	testl	%eax, %eax
	je	.L1396
	movq	16(%rsp), %rsi
	movq	_ZN4asio6detail15system_categoryD1Ev@GOTPCREL(%rip), %rdi
	leaq	__dso_handle(%rip), %rdx
	call	__cxa_atexit@PLT
	movq	_ZGVZN4asio15system_categoryEvE8instance@GOTPCREL(%rip), %rdi
	call	__cxa_guard_release@PLT
	jmp	.L1396
	.p2align 4,,10
	.p2align 3
.L1312:
	movq	_ZGVZN4asio15system_categoryEvE8instance@GOTPCREL(%rip), %rdi
	call	__cxa_guard_acquire@PLT
	testl	%eax, %eax
	movq	_ZZN4asio15system_categoryEvE8instance@GOTPCREL(%rip), %rax
	movq	%rax, 16(%rsp)
	movq	%rax, %rdx
	je	.L1313
	movq	_ZN4asio6detail15system_categoryD1Ev@GOTPCREL(%rip), %rdi
	leaq	__dso_handle(%rip), %rdx
	movq	%rax, %rsi
	call	__cxa_atexit@PLT
	movq	_ZGVZN4asio15system_categoryEvE8instance@GOTPCREL(%rip), %rdi
	call	__cxa_guard_release@PLT
	movq	16(%rsp), %rdx
	jmp	.L1313
	.p2align 4,,10
	.p2align 3
.L1851:
	movq	_ZGVZN4asio15system_categoryEvE8instance@GOTPCREL(%rip), %rdi
	call	__cxa_guard_acquire@PLT
	testl	%eax, %eax
	je	.L1404
	movq	16(%rsp), %rsi
	movq	_ZN4asio6detail15system_categoryD1Ev@GOTPCREL(%rip), %rdi
	leaq	__dso_handle(%rip), %rdx
	call	__cxa_atexit@PLT
	movq	_ZGVZN4asio15system_categoryEvE8instance@GOTPCREL(%rip), %rdi
	call	__cxa_guard_release@PLT
	jmp	.L1404
	.p2align 4,,10
	.p2align 3
.L1831:
	movzwl	232(%rsp), %eax
	movb	$0, 208(%rsp)
	leaq	193(%rsp), %rcx
	movq	$37, 192(%rsp)
	movq	$0, 200(%rsp)
	movl	%eax, %edx
	andb	$-64, %dh
	cmpw	$-32514, %dx
	je	.L1332
	andw	$4095, %ax
	cmpw	$767, %ax
	je	.L1332
.L1334:
	movq	%r13, %rdx
	leaq	.LC34(%rip), %rsi
	movq	%rcx, %rdi
	xorl	%eax, %eax
	call	sprintf@PLT
.L1333:
	leaq	192(%rsp), %rax
	movq	48(%rsp), %rdi
	movq	%rax, %rsi
	movq	%rax, 72(%rsp)
	call	strcat@PLT
	jmp	.L1331
	.p2align 4,,10
	.p2align 3
.L1847:
	movzwl	200(%rsp), %eax
	movb	$0, 240(%rsp)
	leaq	225(%rsp), %rcx
	movq	$37, 224(%rsp)
	movq	$0, 232(%rsp)
	movl	%eax, %edx
	andb	$-64, %dh
	cmpw	$-32514, %dx
	je	.L1415
	andw	$4095, %ax
	cmpw	$767, %ax
	je	.L1415
.L1417:
	movq	%r13, %rdx
	leaq	.LC34(%rip), %rsi
	movq	%rcx, %rdi
	xorl	%eax, %eax
	call	sprintf@PLT
.L1416:
	movq	(%rsp), %rsi
	movq	48(%rsp), %rdi
	call	strcat@PLT
	jmp	.L1414
	.p2align 4,,10
	.p2align 3
.L1854:
	movzbl	0(%r13), %edx
	movb	%dl, 240(%rsp)
	jmp	.L1440
	.p2align 4,,10
	.p2align 3
.L1837:
	movzbl	(%r14), %edx
	movb	%dl, 208(%rsp)
	jmp	.L1354
	.p2align 4,,10
	.p2align 3
.L1384:
	movq	%r14, %rdi
.LEHB39:
	call	_ZNKSt5ctypeIcE13_M_widen_initEv@PLT
.LEHE39:
	movq	(%r14), %rax
	movq	48(%rax), %rax
	cmpq	_ZNKSt5ctypeIcE8do_widenEc@GOTPCREL(%rip), %rax
	jne	.L1386
.L1819:
	movq	256(%rsp), %rax
	movq	-24(%rax), %rdx
	addq	%r15, %rdx
	movq	%rdx, %rax
	jmp	.L1385
	.p2align 4,,10
	.p2align 3
.L1444:
	movl	(%rbx), %esi
	cmpl	$-1, %esi
	je	.L1562
	movzbl	4(%rbx), %ecx
	movq	24(%rbx), %rax
	leaq	8(%rbx), %rdx
	shrb	$6, %cl
	movq	40(%rax), %rdi
	andl	$1, %ecx
	xorl	$1, %ecx
	call	_ZN4asio6detail13epoll_reactor21deregister_descriptorEiRPNS1_16descriptor_stateEb@PLT
	movl	(%rbx), %r12d
	cmpl	$-1, %r12d
	je	.L1562
	movl	$0, 0(%rbp)
	movl	%r12d, %edi
.LEHB40:
	call	close@PLT
	movl	%eax, %r13d
	movq	_ZGVZN4asio15system_categoryEvE8instance@GOTPCREL(%rip), %rax
	movzbl	(%rax), %eax
	testb	%al, %al
	je	.L1859
.L1564:
	testl	%r13d, %r13d
	jne	.L1860
.L1562:
	movl	$-1, (%rbx)
	movb	$0, 4(%rbx)
.L1561:
	movq	64(%rsp), %rbx
	movq	48(%rsp), %rsi
	movl	$8, 640(%rsp)
	addq	$24, %rbx
	movq	%rbx, %rdi
	call	_ZNK7openpal6Logger9IsEnabledERKNS_10LogFiltersE@PLT
.LEHE40:
	testb	%al, %al
	jne	.L1861
.L1559:
	movq	_ZTVNSt7__cxx1119basic_ostringstreamIcSt11char_traitsIcESaIcEEE@GOTPCREL(%rip), %rax
	movq	336(%rsp), %rdi
	addq	$24, %rax
	movq	%rax, 256(%rsp)
	movq	_ZTVNSt7__cxx1119basic_ostringstreamIcSt11char_traitsIcESaIcEEE@GOTPCREL(%rip), %rax
	addq	$64, %rax
	movq	%rax, 368(%rsp)
	cmpq	120(%rsp), %rdi
	je	.L1583
	movq	352(%rsp), %rax
	leaq	1(%rax), %rsi
	call	_ZdlPvm@PLT
.L1583:
	movq	_ZTVSt15basic_streambufIcSt11char_traitsIcEE@GOTPCREL(%rip), %rax
	movq	104(%rsp), %rdi
	addq	$16, %rax
	movq	%rax, 264(%rsp)
	call	_ZNSt6localeD1Ev@PLT
	movq	80(%rsp), %rax
	movq	88(%rsp), %rbx
	movq	112(%rsp), %rdi
	movq	%rax, 256(%rsp)
	movq	-24(%rax), %rax
	movq	%rbx, 256(%rsp,%rax)
	movq	_ZTVSt9basic_iosIcSt11char_traitsIcEE@GOTPCREL(%rip), %rax
	addq	$16, %rax
	movq	%rax, 368(%rsp)
	call	_ZNSt8ios_baseD2Ev@PLT
	addq	$1032, %rsp
	.cfi_remember_state
	.cfi_def_cfa_offset 56
	popq	%rbx
	.cfi_def_cfa_offset 48
	popq	%rbp
	.cfi_def_cfa_offset 40
	popq	%r12
	.cfi_def_cfa_offset 32
	popq	%r13
	.cfi_def_cfa_offset 24
	popq	%r14
	.cfi_def_cfa_offset 16
	popq	%r15
	.cfi_def_cfa_offset 8
	ret
	.p2align 4,,10
	.p2align 3
.L1386:
	.cfi_restore_state
	movsbl	%r12b, %esi
	movq	%r14, %rdi
.LEHB41:
	call	*%rax
.LEHE41:
	movl	%eax, %r12d
	jmp	.L1819
	.p2align 4,,10
	.p2align 3
.L1852:
	testl	%r14d, %r14d
	je	.L1862
	movq	32(%rsp), %rax
	movb	$0, 240(%rsp)
	movq	$0, 232(%rsp)
	movq	%rax, 224(%rsp)
.L1433:
	leaq	176(%rsp), %rdi
	movl	%r14d, 176(%rsp)
.LEHB42:
	call	_ZN4asio6detail14do_throw_errorERKSt10error_code@PLT
.LEHE42:
	.p2align 4,,10
	.p2align 3
.L1483:
	movq	64(%rsp), %rax
	movdqu	224(%rax), %xmm0
	movhlps	%xmm0, %xmm5
	movaps	%xmm0, 192(%rsp)
	movq	%xmm5, %rax
	testq	%rax, %rax
	je	.L1486
	movq	__libc_single_threaded@GOTPCREL(%rip), %rbx
	cmpb	$0, (%rbx)
	je	.L1487
	addl	$1, 8(%rax)
.L1486:
	movq	96(%rsp), %rsi
	movq	(%rsp), %rdi
.LEHB43:
	call	_ZN8asiodnp315MasterTCPServer17SessionIdToStringB5cxx11Em@PLT
.LEHE43:
	movq	64(%rsp), %rax
	movl	$56, %edi
	movq	40(%rax), %r13
.LEHB44:
	call	_Znwm@PLT
.LEHE44:
	movq	%rax, %rbx
	movq	%r14, 8(%rax)
	movq	_ZTVSt23_Sp_counted_ptr_inplaceIN7openpal6Logger8SettingsESaIvELN9__gnu_cxx12_Lock_policyE2EE@GOTPCREL(%rip), %rax
	leaq	32(%rbx), %rdi
	movl	32(%r13), %ecx
	movq	224(%rsp), %r8
	leaq	16(%rbx), %r9
	addq	$16, %rax
	movq	%rdi, 16(%rbx)
	movq	%rax, (%rbx)
	movq	232(%rsp), %rax
	movq	%rax, 168(%rsp)
	cmpq	$15, %rax
	ja	.L1488
	movq	64(%rsp), %rdx
	leaq	208(%rdx), %r13
	leaq	1(%rax), %rdx
	testq	%rax, %rax
	je	.L1489
.L1490:
	movq	%r8, %rsi
	movq	%r9, 72(%rsp)
	movl	%ecx, 16(%rsp)
	call	memcpy@PLT
	movq	72(%rsp), %r9
	movl	16(%rsp), %ecx
	movq	168(%rsp), %rax
.L1492:
	movq	%rax, 24(%rbx)
	movq	64(%rsp), %rax
	movl	%ecx, 48(%rbx)
	movdqu	24(%rax), %xmm0
	movhlps	%xmm0, %xmm6
	movaps	%xmm0, 640(%rsp)
	movq	%xmm6, %rax
	testq	%rax, %rax
	je	.L1863
	movq	__libc_single_threaded@GOTPCREL(%rip), %rcx
	cmpb	$0, (%rcx)
	je	.L1497
	addl	$1, 8(%rax)
	movq	%r9, 656(%rsp)
	movq	%rbx, 664(%rsp)
.L1498:
	addl	$1, 8(%rbx)
.L1501:
	movq	%rbx, %rdi
	call	_ZNSt16_Sp_counted_baseILN9__gnu_cxx12_Lock_policyE2EE10_M_releaseEv@PLT
	movl	$624, %edi
.LEHB45:
	call	_Znwm@PLT
.LEHE45:
	movq	%r14, 8(%rax)
	movq	%rax, %rbx
	movq	96(%rsp), %rdx
	movq	%r13, %r8
	movq	_ZTVSt23_Sp_counted_ptr_inplaceIN8asiodnp311LinkSessionESaIvELN9__gnu_cxx12_Lock_policyE2EE@GOTPCREL(%rip), %rax
	leaq	16(%rbx), %r14
	movq	48(%rsp), %rsi
	leaq	192(%rsp), %rcx
	leaq	176(%rsp), %r9
	movq	%r14, %rdi
	addq	$16, %rax
	movq	%rax, (%rbx)
.LEHB46:
	call	_ZN8asiodnp311LinkSessionC1ERKN7openpal6LoggerEmRKSt10shared_ptrIN7asiopal16IResourceManagerEERKS5_INS_16IListenCallbacksEERKS5_INS6_13IAsyncChannelEE@PLT
.LEHE46:
	movq	48(%rbx), %rdi
	testq	%rdi, %rdi
	je	.L1503
	movl	8(%rdi), %eax
	testl	%eax, %eax
	je	.L1503
.L1506:
	movq	%r14, %rdi
.LEHB47:
	call	_ZN8asiodnp311LinkSession5StartEv@PLT
.LEHE47:
	movq	664(%rsp), %rdi
	testq	%rdi, %rdi
	je	.L1515
	call	_ZNSt16_Sp_counted_baseILN9__gnu_cxx12_Lock_policyE2EE10_M_releaseEv@PLT
.L1515:
	movq	648(%rsp), %rdi
	testq	%rdi, %rdi
	je	.L1516
	call	_ZNSt16_Sp_counted_baseILN9__gnu_cxx12_Lock_policyE2EE10_M_releaseEv@PLT
.L1516:
	movq	224(%rsp), %rdi
	cmpq	32(%rsp), %rdi
	je	.L1517
	movq	240(%rsp), %rax
	leaq	1(%rax), %rsi
	call	_ZdlPvm@PLT
.L1517:
	movq	200(%rsp), %rdi
	testq	%rdi, %rdi
	je	.L1518
	call	_ZNSt16_Sp_counted_baseILN9__gnu_cxx12_Lock_policyE2EE10_M_releaseEv@PLT
.L1518:
	movq	__libc_single_threaded@GOTPCREL(%rip), %rax
	leaq	56(%rbx), %r14
	cmpb	$0, (%rax)
	je	.L1522
	addl	$1, 8(%rbx)
.L1523:
	movq	72(%rbp), %r13
	leaq	64(%rbp), %rcx
	testq	%r13, %r13
	je	.L1589
	movzbl	56(%rsp), %r8d
	jmp	.L1526
	.p2align 6
	.p2align 4,,10
	.p2align 3
.L1591:
	movq	%rax, %r13
.L1526:
	movq	32(%r13), %rdx
	movq	24(%r13), %rax
	movl	$0, %esi
	cmpq	%rdx, %r14
	cmovb	16(%r13), %rax
	cmovb	%r8d, %esi
	testq	%rax, %rax
	jne	.L1591
	testb	%sil, %sil
	jne	.L1524
.L1527:
	cmpq	%r14, %rdx
	jnb	.L1864
.L1528:
	cmpq	%rcx, %r13
	jne	.L1865
.L1530:
	movl	$48, %edi
	movq	%rcx, 48(%rsp)
.LEHB48:
	call	_Znwm@PLT
.LEHE48:
	movq	%r14, 32(%rax)
	movzbl	56(%rsp), %edi
	movq	%r13, %rdx
	movq	%rax, %rsi
	movq	%rbx, 40(%rax)
	movq	48(%rsp), %rcx
	call	_ZSt29_Rb_tree_insert_and_rebalancebPSt18_Rb_tree_node_baseS0_RS_@PLT
	addq	$1, 96(%rbp)
	jmp	.L1529
	.p2align 4,,10
	.p2align 3
.L1368:
	movq	48(%rsp), %rdi
	movl	$58, %esi
.LEHB49:
	call	_ZNSo3putEc@PLT
.LEHE49:
	movq	48(%rsp), %rdi
	jmp	.L1369
	.p2align 4,,10
	.p2align 3
.L1861:
	movq	32(%rsp), %rax
	movq	304(%rsp), %r8
	movq	$0, 232(%rsp)
	movb	$0, 240(%rsp)
	movq	%rax, 224(%rsp)
	testq	%r8, %r8
	je	.L1577
	movq	288(%rsp), %rax
	movq	%r8, %rdx
	movq	296(%rsp), %rcx
	movq	(%rsp), %rdi
	cmpq	%r8, %rax
	cmovnb	%rax, %r8
	testq	%rax, %rax
	cmove	%rdx, %r8
	xorl	%edx, %edx
	xorl	%esi, %esi
	subq	%rcx, %r8
.LEHB50:
	call	_ZNSt7__cxx1112basic_stringIcSt11char_traitsIcESaIcEE10_M_replaceEmmPKcm@PLT
.LEHE50:
.L1579:
	movq	48(%rsp), %rdi
	movq	224(%rsp), %rcx
	leaq	.LC39(%rip), %rdx
	xorl	%eax, %eax
	movl	$120, %esi
	call	snprintf@PLT
	movq	224(%rsp), %rdi
	cmpq	32(%rsp), %rdi
	je	.L1580
	movq	240(%rsp), %rax
	leaq	1(%rax), %rsi
	call	_ZdlPvm@PLT
.L1580:
	movq	48(%rsp), %rcx
	movq	(%rsp), %rsi
	leaq	.LC40(%rip), %rdx
	movq	%rbx, %rdi
	movl	$8, 224(%rsp)
.LEHB51:
	call	_ZN7openpal6Logger3LogERKNS_10LogFiltersEPKcS5_@PLT
.LEHE51:
	jmp	.L1559
	.p2align 4,,10
	.p2align 3
.L1362:
	movq	640(%rsp), %rax
	movb	$91, 165(%rsp)
	movq	-24(%rax), %rax
	cmpq	$0, 656(%rsp,%rax)
	je	.L1364
	movq	48(%rsp), %rdi
	leaq	165(%rsp), %rsi
	movl	$1, %edx
.LEHB52:
	call	_ZSt16__ostream_insertIcSt11char_traitsIcEERSt13basic_ostreamIT_T0_ES6_PKS3_l@PLT
	movq	%rax, %rdi
.L1365:
	movq	200(%rsp), %rdx
	movq	192(%rsp), %rsi
	call	_ZSt16__ostream_insertIcSt11char_traitsIcEERSt13basic_ostreamIT_T0_ES6_PKS3_l@PLT
	movq	(%rax), %rdx
	movb	$93, 166(%rsp)
	movq	-24(%rdx), %rdx
	cmpq	$0, 16(%rax,%rdx)
	je	.L1366
	leaq	166(%rsp), %rsi
	movl	$1, %edx
	movq	%rax, %rdi
	call	_ZSt16__ostream_insertIcSt11char_traitsIcEERSt13basic_ostreamIT_T0_ES6_PKS3_l@PLT
.LEHE52:
	jmp	.L1363
	.p2align 4,,10
	.p2align 3
.L1836:
	movq	72(%rsp), %rdi
	leaq	168(%rsp), %rsi
	xorl	%edx, %edx
	movq	%rax, 144(%rsp)
.LEHB53:
	call	_ZNSt7__cxx1112basic_stringIcSt11char_traitsIcESaIcEE9_M_createERmm@PLT
	movq	%rax, 192(%rsp)
	movq	%rax, %rdi
	movq	168(%rsp), %rax
	movq	144(%rsp), %rcx
	movq	%rax, 208(%rsp)
.L1351:
	movq	%rcx, %rdx
	movq	%r14, %rsi
	call	memcpy@PLT
	movq	168(%rsp), %rax
	movq	192(%rsp), %rdx
	jmp	.L1353
	.p2align 4,,10
	.p2align 3
.L1853:
	movq	(%rsp), %rdi
	leaq	168(%rsp), %rsi
	xorl	%edx, %edx
	movq	%rax, 56(%rsp)
	call	_ZNSt7__cxx1112basic_stringIcSt11char_traitsIcESaIcEE9_M_createERmm@PLT
	movq	%rax, 224(%rsp)
	movq	%rax, %rdi
	movq	56(%rsp), %rcx
	movq	168(%rsp), %rax
	movq	%rax, 240(%rsp)
.L1437:
	movq	%rcx, %rdx
	movq	%r13, %rsi
	call	memcpy@PLT
	movq	168(%rsp), %rax
	movq	224(%rsp), %rdx
	jmp	.L1439
	.p2align 4,,10
	.p2align 3
.L1463:
	lock addl	$1, 8(%rbx)
	jmp	.L1464
	.p2align 4,,10
	.p2align 3
.L1830:
	movq	_ZGVZN4asio15system_categoryEvE8instance@GOTPCREL(%rip), %rdi
	call	__cxa_guard_acquire@PLT
	testl	%eax, %eax
	je	.L1323
	movq	16(%rsp), %rsi
	movq	_ZN4asio6detail15system_categoryD1Ev@GOTPCREL(%rip), %rdi
	leaq	__dso_handle(%rip), %rdx
	call	__cxa_atexit@PLT
	movq	_ZGVZN4asio15system_categoryEvE8instance@GOTPCREL(%rip), %rdi
	call	__cxa_guard_release@PLT
	jmp	.L1323
	.p2align 4,,10
	.p2align 3
.L1845:
	movq	_ZGVZN4asio15system_categoryEvE8instance@GOTPCREL(%rip), %rdi
	call	__cxa_guard_acquire@PLT
	testl	%eax, %eax
	je	.L1406
	movq	16(%rsp), %rsi
	movq	_ZN4asio6detail15system_categoryD1Ev@GOTPCREL(%rip), %rdi
	leaq	__dso_handle(%rip), %rdx
	call	__cxa_atexit@PLT
	movq	_ZGVZN4asio15system_categoryEvE8instance@GOTPCREL(%rip), %rdi
	call	__cxa_guard_release@PLT
	jmp	.L1406
	.p2align 4,,10
	.p2align 3
.L1860:
	movq	_ZGVZN4asio15system_categoryEvE8instance@GOTPCREL(%rip), %rax
	movl	0(%rbp), %r13d
	movzbl	(%rax), %eax
	testb	%al, %al
	je	.L1866
.L1567:
	cmpl	$11, %r13d
	je	.L1569
	movq	_ZGVZN4asio15system_categoryEvE8instance@GOTPCREL(%rip), %rax
	movzbl	(%rax), %eax
	testb	%al, %al
	je	.L1867
.L1573:
	movl	$-1, (%rbx)
	movb	$0, 4(%rbx)
	testl	%r13d, %r13d
	je	.L1561
	movq	16(%rsp), %rax
	movq	48(%rsp), %rdi
	leaq	.LC38(%rip), %rsi
	movl	%r13d, 640(%rsp)
	movq	%rax, 648(%rsp)
	call	_ZN4asio6detail14do_throw_errorERKSt10error_codePKc@PLT
.LEHE53:
	.p2align 4,,10
	.p2align 3
.L1859:
	movq	_ZGVZN4asio15system_categoryEvE8instance@GOTPCREL(%rip), %rdi
	call	__cxa_guard_acquire@PLT
	testl	%eax, %eax
	je	.L1564
	movq	16(%rsp), %rsi
	movq	_ZN4asio6detail15system_categoryD1Ev@GOTPCREL(%rip), %rdi
	leaq	__dso_handle(%rip), %rdx
	call	__cxa_atexit@PLT
	movq	_ZGVZN4asio15system_categoryEvE8instance@GOTPCREL(%rip), %rdi
	call	__cxa_guard_release@PLT
	jmp	.L1564
.L1476:
	lock addl	$1, 12(%rbp)
	movq	32(%rbp), %rdi
	testq	%rdi, %rdi
	je	.L1478
	cmpb	$0, (%rax)
	jne	.L1477
	movl	$-1, %eax
	lock xaddl	%eax, 12(%rdi)
	jmp	.L1481
.L1457:
	lock addl	$1, 12(%rbx)
	movq	32(%rbx), %rdi
	testq	%rdi, %rdi
	je	.L1459
	cmpb	$0, (%rax)
	jne	.L1458
	movl	$-1, %eax
	lock xaddl	%eax, 12(%rdi)
	jmp	.L1462
	.p2align 4,,10
	.p2align 3
.L1846:
	movl	56(%rsp), %ecx
	testl	%ecx, %ecx
	je	.L1868
	movq	32(%rsp), %rax
	movb	$0, 240(%rsp)
	movq	$0, 232(%rsp)
	movq	%rax, 224(%rsp)
.L1413:
	movl	56(%rsp), %eax
	leaq	176(%rsp), %rdi
	movl	%eax, 176(%rsp)
.LEHB54:
	call	_ZN4asio6detail14do_throw_errorERKSt10error_code@PLT
.LEHE54:
	.p2align 4,,10
	.p2align 3
.L1840:
	movq	_ZGVZN4asio15system_categoryEvE8instance@GOTPCREL(%rip), %rax
	movzbl	(%rax), %eax
	testb	%al, %al
	je	.L1869
.L1346:
	movq	16(%rsp), %rax
	movb	$0, 240(%rsp)
	movl	$22, %r12d
	movq	$0, 232(%rsp)
	movq	%rax, 184(%rsp)
	leaq	240(%rsp), %rax
	movq	%rax, 32(%rsp)
	movq	%rax, 224(%rsp)
	jmp	.L1348
	.p2align 4,,10
	.p2align 3
.L1366:
	movl	$93, %esi
	movq	%rax, %rdi
.LEHB55:
	call	_ZNSo3putEc@PLT
	jmp	.L1363
	.p2align 4,,10
	.p2align 3
.L1364:
	movq	48(%rsp), %rdi
	movl	$91, %esi
	call	_ZNSo3putEc@PLT
.LEHE55:
	movq	48(%rsp), %rdi
	jmp	.L1365
	.p2align 4,,10
	.p2align 3
.L1468:
	movl	$-1, %eax
	lock xaddl	%eax, (%rcx)
	jmp	.L1469
	.p2align 4,,10
	.p2align 3
.L1862:
	movq	_ZGVZN4asio15system_categoryEvE8instance@GOTPCREL(%rip), %rax
	movzbl	(%rax), %eax
	testb	%al, %al
	je	.L1870
.L1431:
	movq	16(%rsp), %rax
	movb	$0, 240(%rsp)
	movl	$22, %r14d
	movq	$0, 232(%rsp)
	movq	%rax, 184(%rsp)
	movq	32(%rsp), %rax
	movq	%rax, 224(%rsp)
	jmp	.L1433
.L1849:
	movzbl	(%r14), %edx
	movb	%dl, 240(%rsp)
	jmp	.L1423
.L1833:
	movzbl	(%r14), %edx
	movb	%dl, 208(%rsp)
	jmp	.L1340
	.p2align 4,,10
	.p2align 3
.L1832:
	movq	72(%rsp), %rdi
	leaq	168(%rsp), %rsi
	xorl	%edx, %edx
	movq	%rax, 144(%rsp)
.LEHB56:
	call	_ZNSt7__cxx1112basic_stringIcSt11char_traitsIcESaIcEE9_M_createERmm@PLT
	movq	%rax, 192(%rsp)
	movq	%rax, %rdi
	movq	168(%rsp), %rax
	movq	144(%rsp), %rcx
	movq	%rax, 208(%rsp)
.L1337:
	movq	%rcx, %rdx
	movq	%r14, %rsi
	call	memcpy@PLT
	movq	168(%rsp), %rax
	movq	192(%rsp), %rdx
	jmp	.L1339
	.p2align 4,,10
	.p2align 3
.L1848:
	movq	(%rsp), %rdi
	leaq	168(%rsp), %rsi
	xorl	%edx, %edx
	call	_ZNSt7__cxx1112basic_stringIcSt11char_traitsIcESaIcEE9_M_createERmm@PLT
.LEHE56:
	movq	%rax, 224(%rsp)
	movq	%rax, %rdi
	movq	168(%rsp), %rax
	movq	%rax, 240(%rsp)
.L1420:
	movq	%r13, %rdx
	movq	%r14, %rsi
	call	memcpy@PLT
	movq	168(%rsp), %rax
	movq	224(%rsp), %rdx
	jmp	.L1422
	.p2align 4,,10
	.p2align 3
.L1488:
	leaq	168(%rsp), %rsi
	xorl	%edx, %edx
	movq	%r9, %rdi
	movq	%r8, 128(%rsp)
	movl	%ecx, 72(%rsp)
	movq	%r9, 16(%rsp)
.LEHB57:
	call	_ZNSt7__cxx1112basic_stringIcSt11char_traitsIcESaIcEE9_M_createERmm@PLT
.LEHE57:
	movq	%rax, 16(%rbx)
	movq	%rax, %rdi
	movq	168(%rsp), %rax
	movq	64(%rsp), %rcx
	movq	16(%rsp), %r9
	testq	%rax, %rax
	movq	%rax, 32(%rbx)
	movq	128(%rsp), %r8
	leaq	1(%rax), %rdx
	leaq	208(%rcx), %r13
	movl	72(%rsp), %ecx
	jne	.L1491
.L1489:
	movzbl	(%r8), %eax
	movb	%al, (%rdi)
	movq	168(%rsp), %rax
	jmp	.L1492
	.p2align 4,,10
	.p2align 3
.L1856:
	movq	$0, 8(%r12)
	movq	(%r12), %rax
	movq	%r12, %rdi
	call	*16(%rax)
	movq	(%r12), %rax
	movq	%r12, %rdi
	call	*24(%rax)
	movq	664(%rsp), %rax
	movq	48(%rsp), %rsi
	leaq	40(%rax), %rdi
	call	_ZN4asio6detail28reactive_socket_service_base7destroyERNS1_24base_implementation_typeE@PLT
	jmp	.L1467
.L1864:
	movq	%rbx, %rdi
	call	_ZNSt16_Sp_counted_baseILN9__gnu_cxx12_Lock_policyE2EE10_M_releaseEv@PLT
.L1529:
	movq	%r12, %rdi
	call	pthread_mutex_unlock@PLT
	movq	%rbx, %rdi
	call	_ZNSt16_Sp_counted_baseILN9__gnu_cxx12_Lock_policyE2EE10_M_releaseEv@PLT
	jmp	.L1484
.L1491:
	movq	$-1, %rax
	testq	%rdx, %rdx
	je	.L1492
	jmp	.L1490
.L1589:
	movq	%rcx, %r13
.L1524:
	cmpq	80(%rbp), %r13
	je	.L1528
	movq	%r13, %rdi
	movq	%rcx, 48(%rsp)
	call	_ZSt18_Rb_tree_decrementPSt18_Rb_tree_node_base@PLT
	movq	48(%rsp), %rcx
	movq	32(%rax), %rdx
	jmp	.L1527
	.p2align 4,,10
	.p2align 3
.L1503:
	movq	__libc_single_threaded@GOTPCREL(%rip), %rax
	movq	%r14, 40(%rbx)
	cmpb	$0, (%rax)
	je	.L1507
	addl	$1, 12(%rbx)
	testq	%rdi, %rdi
	je	.L1509
.L1508:
	movl	12(%rdi), %eax
	leal	-1(%rax), %edx
	movl	%edx, 12(%rdi)
.L1512:
	cmpl	$1, %eax
	jne	.L1509
	movq	(%rdi), %rax
	call	*24(%rax)
	.p2align 4
	.p2align 3
.L1509:
	movq	%rbx, 48(%rbx)
	jmp	.L1506
.L1870:
	movq	_ZGVZN4asio15system_categoryEvE8instance@GOTPCREL(%rip), %rdi
	call	__cxa_guard_acquire@PLT
	testl	%eax, %eax
	je	.L1431
	movq	16(%rsp), %rsi
	movq	_ZN4asio6detail15system_categoryD1Ev@GOTPCREL(%rip), %rdi
	leaq	__dso_handle(%rip), %rdx
	call	__cxa_atexit@PLT
	movq	_ZGVZN4asio15system_categoryEvE8instance@GOTPCREL(%rip), %rdi
	call	__cxa_guard_release@PLT
	jmp	.L1431
.L1858:
	lock addl	$1, 8(%rbx)
	jmp	.L1537
	.p2align 4,,10
	.p2align 3
.L1863:
	movq	%r9, 656(%rsp)
	movq	%rbx, 664(%rsp)
.L1499:
	movq	__libc_single_threaded@GOTPCREL(%rip), %rax
	cmpb	$0, (%rax)
	jne	.L1498
	lock addl	$1, 8(%rbx)
	jmp	.L1501
	.p2align 4,,10
	.p2align 3
.L1370:
	movq	(%rsp), %rdi
	leaq	720(%rsp), %rsi
.LEHB58:
	call	_ZNSt7__cxx1112basic_stringIcSt11char_traitsIcESaIcEE9_M_assignERKS4_@PLT
.LEHE58:
	jmp	.L1372
.L1415:
	movl	140(%rsp), %edi
	movq	%rcx, %rsi
	movq	%rcx, 144(%rsp)
	call	if_indextoname@PLT
	movq	144(%rsp), %rcx
	testq	%rax, %rax
	jne	.L1416
	jmp	.L1417
.L1332:
	movl	144(%rsp), %edi
	movq	%rcx, %rsi
	movq	%rcx, 72(%rsp)
	call	if_indextoname@PLT
	movq	72(%rsp), %rcx
	testq	%rax, %rax
	jne	.L1333
	jmp	.L1334
.L1539:
	movq	%r14, %rdi
	call	_ZdlPv@PLT
.L1538:
	movl	$41, %edi
.LEHB59:
	call	_Znwm@PLT
.LEHE59:
	movb	$40, 40(%rax)
	movq	%rax, %r14
	jmp	.L1540
.L1487:
	lock addl	$1, 8(%rax)
	jmp	.L1486
.L1497:
	lock addl	$1, 8(%rax)
	movq	%r9, 656(%rsp)
	movq	%rbx, 664(%rsp)
	jmp	.L1499
.L1446:
	movq	(%rsp), %rdi
	leaq	336(%rsp), %rsi
.LEHB60:
	call	_ZNSt7__cxx1112basic_stringIcSt11char_traitsIcESaIcEE9_M_assignERKS4_@PLT
.LEHE60:
	jmp	.L1448
.L1855:
	movq	32(%rsp), %rdi
	jmp	.L1437
.L1838:
	movq	%r13, %rdi
	jmp	.L1351
.L1866:
	movq	_ZGVZN4asio15system_categoryEvE8instance@GOTPCREL(%rip), %rdi
	call	__cxa_guard_acquire@PLT
	testl	%eax, %eax
	je	.L1567
	movq	16(%rsp), %rsi
	movq	_ZN4asio6detail15system_categoryD1Ev@GOTPCREL(%rip), %rdi
	leaq	__dso_handle(%rip), %rdx
	call	__cxa_atexit@PLT
	movq	_ZGVZN4asio15system_categoryEvE8instance@GOTPCREL(%rip), %rdi
	call	__cxa_guard_release@PLT
	jmp	.L1567
.L1507:
	lock addl	$1, 12(%rbx)
	movq	48(%rbx), %rdi
	testq	%rdi, %rdi
	je	.L1509
	cmpb	$0, (%rax)
	jne	.L1508
	movl	$-1, %eax
	lock xaddl	%eax, 12(%rdi)
	jmp	.L1512
.L1868:
	movq	_ZGVZN4asio15system_categoryEvE8instance@GOTPCREL(%rip), %rax
	movzbl	(%rax), %eax
	testb	%al, %al
	je	.L1871
.L1411:
	movq	16(%rsp), %rax
	movb	$0, 240(%rsp)
	movq	$0, 232(%rsp)
	movq	%rax, 184(%rsp)
	movq	32(%rsp), %rax
	movl	$22, 56(%rsp)
	movq	%rax, 224(%rsp)
	jmp	.L1413
.L1869:
	movq	_ZGVZN4asio15system_categoryEvE8instance@GOTPCREL(%rip), %rdi
	call	__cxa_guard_acquire@PLT
	testl	%eax, %eax
	je	.L1346
	movq	16(%rsp), %rsi
	movq	_ZN4asio6detail15system_categoryD1Ev@GOTPCREL(%rip), %rdi
	leaq	__dso_handle(%rip), %rdx
	call	__cxa_atexit@PLT
	movq	_ZGVZN4asio15system_categoryEvE8instance@GOTPCREL(%rip), %rdi
	call	__cxa_guard_release@PLT
	jmp	.L1346
.L1867:
	movq	_ZGVZN4asio15system_categoryEvE8instance@GOTPCREL(%rip), %rdi
	call	__cxa_guard_acquire@PLT
	testl	%eax, %eax
	je	.L1573
	movq	16(%rsp), %rsi
	movq	_ZN4asio6detail15system_categoryD1Ev@GOTPCREL(%rip), %rdi
	leaq	__dso_handle(%rip), %rdx
	call	__cxa_atexit@PLT
	movq	_ZGVZN4asio15system_categoryEvE8instance@GOTPCREL(%rip), %rdi
	call	__cxa_guard_release@PLT
	jmp	.L1573
.L1577:
	movq	(%rsp), %rdi
	leaq	336(%rsp), %rsi
.LEHB61:
	call	_ZNSt7__cxx1112basic_stringIcSt11char_traitsIcESaIcEE9_M_assignERKS4_@PLT
.LEHE61:
	jmp	.L1579
.L1569:
	movq	48(%rsp), %rdx
	movl	%r12d, %edi
	movl	$21537, %esi
	xorl	%eax, %eax
	movl	$0, 640(%rsp)
	call	ioctl@PLT
	andb	$-4, 4(%rbx)
	movl	%r12d, %edi
	movl	$0, 0(%rbp)
.LEHB62:
	call	close@PLT
.LEHE62:
	movl	%eax, %r12d
	movq	_ZGVZN4asio15system_categoryEvE8instance@GOTPCREL(%rip), %rax
	movzbl	(%rax), %eax
	testb	%al, %al
	je	.L1872
.L1575:
	movl	0(%rbp), %r13d
	testl	%r12d, %r12d
	je	.L1562
	jmp	.L1573
.L1857:
	movq	%r12, %rdi
	call	_ZNSt16_Sp_counted_baseILN9__gnu_cxx12_Lock_policyE2EE24_M_release_last_use_coldEv@PLT
	movq	664(%rsp), %rax
	movq	48(%rsp), %rsi
	leaq	40(%rax), %rdi
	call	_ZN4asio6detail28reactive_socket_service_base7destroyERNS1_24base_implementation_typeE@PLT
	jmp	.L1467
.L1522:
	lock addl	$1, 8(%rbx)
	jmp	.L1523
.L1541:
	movb	$1, 64(%rax)
	leaq	24(%rax), %rdi
	call	pthread_mutex_unlock@PLT
	movq	48(%rbp), %r15
	movq	$0, (%r14)
	movq	%r15, %xmm5
	movq	96(%r15), %rax
	punpcklqdq	%xmm5, %xmm5
	movaps	%xmm5, 16(%rsp)
	testq	%rax, %rax
	je	.L1545
	movq	%r14, (%rax)
	movq	%r14, 96(%r15)
.L1546:
	movq	40(%r13), %r12
	cmpb	$0, 40(%r12)
	je	.L1547
	data16	leaq	_ZN4asio6detail15keyword_tss_ptrINS0_10call_stackINS0_15task_io_serviceENS0_27task_io_service_thread_infoEE7contextEE6value_E@tlsgd(%rip), %rdi
	.value	0x6666
	rex64
	call	__tls_get_addr@PLT
	movq	(%rax), %rax
	testq	%rax, %rax
	jne	.L1550
	jmp	.L1547
	.p2align 4
	.p2align 4,,10
	.p2align 3
.L1548:
	movq	16(%rax), %rax
	testq	%rax, %rax
	je	.L1547
.L1550:
	cmpq	(%rax), %r12
	jne	.L1548
	movq	8(%rax), %rax
	testq	%rax, %rax
	je	.L1547
	movq	16(%rax), %rdx
	addq	$1, 24(%rax)
	movq	$0, (%r15)
	testq	%rdx, %rdx
	je	.L1551
	movq	%r15, (%rdx)
	movq	%r15, 16(%rax)
	jmp	.L1544
.L1834:
	movq	%r13, %rdi
	jmp	.L1337
.L1850:
	movq	32(%rsp), %rdi
	jmp	.L1420
.L1547:
	lock addq	$1, 184(%r12)
	leaq	48(%r12), %rbp
	movq	%rbp, %rdi
	call	pthread_mutex_lock@PLT
	movq	200(%r12), %rax
	movq	$0, (%r15)
	testq	%rax, %rax
	je	.L1552
	movq	%r15, (%rax)
	movq	%r15, 200(%r12)
.L1553:
	movq	136(%r12), %rax
	movq	%rax, %rdx
	orq	$1, %rdx
	movq	%rdx, 136(%r12)
	cmpq	$1, %rax
	jbe	.L1554
	movq	%rbp, %rdi
	call	pthread_mutex_unlock@PLT
	leaq	88(%r12), %rdi
	call	pthread_cond_signal@PLT
	jmp	.L1544
.L1542:
	movdqa	(%rsp), %xmm6
	movups	%xmm6, 72(%rax)
	jmp	.L1543
.L1871:
	movq	_ZGVZN4asio15system_categoryEvE8instance@GOTPCREL(%rip), %rdi
	call	__cxa_guard_acquire@PLT
	testl	%eax, %eax
	je	.L1411
	movq	16(%rsp), %rsi
	movq	_ZN4asio6detail15system_categoryD1Ev@GOTPCREL(%rip), %rdi
	leaq	__dso_handle(%rip), %rdx
	call	__cxa_atexit@PLT
	movq	_ZGVZN4asio15system_categoryEvE8instance@GOTPCREL(%rip), %rdi
	call	__cxa_guard_release@PLT
	jmp	.L1411
.L1865:
	cmpq	32(%r13), %r14
	setb	56(%rsp)
	jmp	.L1530
.L1872:
	movq	_ZGVZN4asio15system_categoryEvE8instance@GOTPCREL(%rip), %rdi
	call	__cxa_guard_acquire@PLT
	testl	%eax, %eax
	je	.L1575
	movq	16(%rsp), %rsi
	movq	_ZN4asio6detail15system_categoryD1Ev@GOTPCREL(%rip), %rdi
	leaq	__dso_handle(%rip), %rdx
	call	__cxa_atexit@PLT
	movq	_ZGVZN4asio15system_categoryEvE8instance@GOTPCREL(%rip), %rdi
	call	__cxa_guard_release@PLT
	jmp	.L1575
.L1554:
	cmpb	$0, 176(%r12)
	jne	.L1556
	movq	144(%r12), %rax
	testq	%rax, %rax
	je	.L1556
	leaq	88(%rax), %rdx
	movq	48(%rsp), %rcx
	movl	$3, %esi
	movb	$1, 176(%r12)
	movq	%rdx, 644(%rsp)
	movl	88(%rax), %edx
	movl	$-2147483639, 640(%rsp)
	movl	96(%rax), %edi
	call	epoll_ctl@PLT
.L1556:
	movq	%rbp, %rdi
	call	pthread_mutex_unlock@PLT
	jmp	.L1544
.L1545:
	movdqa	(%rsp), %xmm6
	movups	%xmm6, 88(%r15)
	jmp	.L1546
.L1842:
	call	_ZN4asio15system_categoryEv@PLT
	movq	%rax, 200(%rsp)
	movl	$9, %eax
.L1394:
	leaq	192(%rsp), %rdi
	leaq	.LC32(%rip), %rsi
	movl	%eax, 192(%rsp)
.LEHB63:
	call	_ZN4asio6detail14do_throw_errorERKSt10error_codePKc@PLT
	.p2align 4,,10
	.p2align 3
.L1828:
	call	_ZN4asio15system_categoryEv@PLT
	movq	%rax, 200(%rsp)
	movl	$9, %eax
.L1311:
	leaq	192(%rsp), %rdi
	leaq	.LC32(%rip), %rsi
	movl	%eax, 192(%rsp)
	call	_ZN4asio6detail14do_throw_errorERKSt10error_codePKc@PLT
	.p2align 4,,10
	.p2align 3
.L1552:
	movdqa	16(%rsp), %xmm6
	movups	%xmm6, 192(%r12)
	jmp	.L1553
.L1817:
	jmp	.L1534
.L1551:
	movdqa	16(%rsp), %xmm6
	movups	%xmm6, 8(%rax)
	jmp	.L1544
.L1844:
	call	_ZN4asio15system_categoryEv@PLT
	movq	(%rsp), %rdi
	movl	$22, 224(%rsp)
	movq	%rax, 232(%rsp)
	call	_ZN4asio6detail14do_throw_errorERKSt10error_code@PLT
.L1829:
	call	_ZN4asio15system_categoryEv@PLT
	movq	(%rsp), %rdi
	movl	$22, 224(%rsp)
	movq	%rax, 232(%rsp)
	call	_ZN4asio6detail14do_throw_errorERKSt10error_code@PLT
.LEHE63:
.L1841:
	leaq	176(%rsp), %rdi
	movl	%r12d, 176(%rsp)
.LEHB64:
	call	_ZN4asio6detail14do_throw_errorERKSt10error_code@PLT
.LEHE64:
.L1604:
	movq	%rax, %rbx
	jmp	.L1375
.L1618:
	movq	%rax, %rbx
	jmp	.L1584
.L1614:
	movq	%rax, %rbp
	jmp	.L1495
.L1791:
	jmp	.L1792
.L1599:
	movq	%rax, %rbx
	jmp	.L1308
.L1793:
	jmp	.L1794
.L1598:
	movq	%rax, %rbx
	jmp	.L1309
.L1608:
	movq	%rax, %rbp
	jmp	.L1454
.L1595:
	movq	%rax, %rbx
	jmp	.L1455
.L1593:
	movq	%rax, %rbx
	jmp	.L1379
.L1594:
	movq	%rax, %rbx
	jmp	.L1584
.L1609:
	movq	%rax, %r12
	jmp	.L1471
.L1596:
	movq	%rax, %r12
	jmp	.L1473
.L1615:
	movq	%rax, %rbp
	jmp	.L1514
.L1616:
	movq	%rax, %rbp
	jmp	.L1504
.L1613:
	movq	%rax, %rbx
	jmp	.L1505
.L1606:
	movq	%rax, %rbx
	jmp	.L1584
.L1612:
	movq	%rax, %rbx
	jmp	.L1496
.L1605:
	movq	%rax, %rbx
	jmp	.L1584
.L1610:
	movq	%rax, %rbp
	jmp	.L1531
.L1611:
	movq	%rax, %rbx
	jmp	.L1519
.L1617:
	movq	%rax, %rbp
	jmp	.L1557
.L1607:
	movq	%rax, %rbx
	jmp	.L1584
.L1602:
	movq	%rax, %rbx
	jmp	.L1360
.L1601:
	movq	%rax, %rbx
	jmp	.L1376
.L1603:
	movq	%rax, %rbx
	jmp	.L1359
	.section	.gcc_except_table
.LLSDA8275:
	.byte	0xff
	.byte	0xff
	.byte	0x1
	.uleb128 .LLSDACSE8275-.LLSDACSB8275
.LLSDACSB8275:
	.uleb128 .LEHB23-.LFB8275
	.uleb128 .LEHE23-.LEHB23
	.uleb128 .L1598-.LFB8275
	.uleb128 0
	.uleb128 .LEHB24-.LFB8275
	.uleb128 .LEHE24-.LEHB24
	.uleb128 .L1599-.LFB8275
	.uleb128 0
	.uleb128 .LEHB25-.LFB8275
	.uleb128 .LEHE25-.LEHB25
	.uleb128 .L1602-.LFB8275
	.uleb128 0
	.uleb128 .LEHB26-.LFB8275
	.uleb128 .LEHE26-.LEHB26
	.uleb128 .L1603-.LFB8275
	.uleb128 0
	.uleb128 .LEHB27-.LFB8275
	.uleb128 .LEHE27-.LEHB27
	.uleb128 .L1601-.LFB8275
	.uleb128 0
	.uleb128 .LEHB28-.LFB8275
	.uleb128 .LEHE28-.LEHB28
	.uleb128 .L1604-.LFB8275
	.uleb128 0
	.uleb128 .LEHB29-.LFB8275
	.uleb128 .LEHE29-.LEHB29
	.uleb128 .L1793-.LFB8275
	.uleb128 0
	.uleb128 .LEHB30-.LFB8275
	.uleb128 .LEHE30-.LEHB30
	.uleb128 .L1594-.LFB8275
	.uleb128 0
	.uleb128 .LEHB31-.LFB8275
	.uleb128 .LEHE31-.LEHB31
	.uleb128 .L1593-.LFB8275
	.uleb128 0
	.uleb128 .LEHB32-.LFB8275
	.uleb128 .LEHE32-.LEHB32
	.uleb128 .L1607-.LFB8275
	.uleb128 0
	.uleb128 .LEHB33-.LFB8275
	.uleb128 .LEHE33-.LEHB33
	.uleb128 .L1593-.LFB8275
	.uleb128 0
	.uleb128 .LEHB34-.LFB8275
	.uleb128 .LEHE34-.LEHB34
	.uleb128 .L1595-.LFB8275
	.uleb128 0
	.uleb128 .LEHB35-.LFB8275
	.uleb128 .LEHE35-.LEHB35
	.uleb128 .L1608-.LFB8275
	.uleb128 0
	.uleb128 .LEHB36-.LFB8275
	.uleb128 .LEHE36-.LEHB36
	.uleb128 .L1596-.LFB8275
	.uleb128 0
	.uleb128 .LEHB37-.LFB8275
	.uleb128 .LEHE37-.LEHB37
	.uleb128 .L1609-.LFB8275
	.uleb128 0
	.uleb128 .LEHB38-.LFB8275
	.uleb128 .LEHE38-.LEHB38
	.uleb128 .L1791-.LFB8275
	.uleb128 0
	.uleb128 .LEHB39-.LFB8275
	.uleb128 .LEHE39-.LEHB39
	.uleb128 .L1793-.LFB8275
	.uleb128 0
	.uleb128 .LEHB40-.LFB8275
	.uleb128 .LEHE40-.LEHB40
	.uleb128 .L1593-.LFB8275
	.uleb128 0
	.uleb128 .LEHB41-.LFB8275
	.uleb128 .LEHE41-.LEHB41
	.uleb128 .L1793-.LFB8275
	.uleb128 0
	.uleb128 .LEHB42-.LFB8275
	.uleb128 .LEHE42-.LEHB42
	.uleb128 .L1606-.LFB8275
	.uleb128 0
	.uleb128 .LEHB43-.LFB8275
	.uleb128 .LEHE43-.LEHB43
	.uleb128 .L1611-.LFB8275
	.uleb128 0
	.uleb128 .LEHB44-.LFB8275
	.uleb128 .LEHE44-.LEHB44
	.uleb128 .L1612-.LFB8275
	.uleb128 0
	.uleb128 .LEHB45-.LFB8275
	.uleb128 .LEHE45-.LEHB45
	.uleb128 .L1613-.LFB8275
	.uleb128 0
	.uleb128 .LEHB46-.LFB8275
	.uleb128 .LEHE46-.LEHB46
	.uleb128 .L1616-.LFB8275
	.uleb128 0
	.uleb128 .LEHB47-.LFB8275
	.uleb128 .LEHE47-.LEHB47
	.uleb128 .L1615-.LFB8275
	.uleb128 0
	.uleb128 .LEHB48-.LFB8275
	.uleb128 .LEHE48-.LEHB48
	.uleb128 .L1610-.LFB8275
	.uleb128 0
	.uleb128 .LEHB49-.LFB8275
	.uleb128 .LEHE49-.LEHB49
	.uleb128 .L1601-.LFB8275
	.uleb128 0
	.uleb128 .LEHB50-.LFB8275
	.uleb128 .LEHE50-.LEHB50
	.uleb128 .L1618-.LFB8275
	.uleb128 0
	.uleb128 .LEHB51-.LFB8275
	.uleb128 .LEHE51-.LEHB51
	.uleb128 .L1593-.LFB8275
	.uleb128 0
	.uleb128 .LEHB52-.LFB8275
	.uleb128 .LEHE52-.LEHB52
	.uleb128 .L1601-.LFB8275
	.uleb128 0
	.uleb128 .LEHB53-.LFB8275
	.uleb128 .LEHE53-.LEHB53
	.uleb128 .L1593-.LFB8275
	.uleb128 0
	.uleb128 .LEHB54-.LFB8275
	.uleb128 .LEHE54-.LEHB54
	.uleb128 .L1605-.LFB8275
	.uleb128 0
	.uleb128 .LEHB55-.LFB8275
	.uleb128 .LEHE55-.LEHB55
	.uleb128 .L1601-.LFB8275
	.uleb128 0
	.uleb128 .LEHB56-.LFB8275
	.uleb128 .LEHE56-.LEHB56
	.uleb128 .L1593-.LFB8275
	.uleb128 0
	.uleb128 .LEHB57-.LFB8275
	.uleb128 .LEHE57-.LEHB57
	.uleb128 .L1614-.LFB8275
	.uleb128 0
	.uleb128 .LEHB58-.LFB8275
	.uleb128 .LEHE58-.LEHB58
	.uleb128 .L1604-.LFB8275
	.uleb128 0
	.uleb128 .LEHB59-.LFB8275
	.uleb128 .LEHE59-.LEHB59
	.uleb128 .L1617-.LFB8275
	.uleb128 0
	.uleb128 .LEHB60-.LFB8275
	.uleb128 .LEHE60-.LEHB60
	.uleb128 .L1607-.LFB8275
	.uleb128 0
	.uleb128 .LEHB61-.LFB8275
	.uleb128 .LEHE61-.LEHB61
	.uleb128 .L1618-.LFB8275
	.uleb128 0
	.uleb128 .LEHB62-.LFB8275
	.uleb128 .LEHE62-.LEHB62
	.uleb128 .L1593-.LFB8275
	.uleb128 0
	.uleb128 .LEHB63-.LFB8275
	.uleb128 .LEHE63-.LEHB63
	.uleb128 .L1593-.LFB8275
	.uleb128 0
	.uleb128 .LEHB64-.LFB8275
	.uleb128 .LEHE64-.LEHB64
	.uleb128 .L1793-.LFB8275
	.uleb128 0
.LLSDACSE8275:
	.text
	.cfi_endproc
	.section	.text.unlikely
	.cfi_startproc
	.cfi_personality 0x9b,DW.ref.__gxx_personality_v0
	.cfi_lsda 0x1b,.LLSDAC8275
	.type	_ZN8asiodnp315MasterTCPServer16AcceptConnectionEmRKSt10shared_ptrIN7asiopal8ExecutorEEN4asio19basic_stream_socketINS7_2ip3tcpENS7_21stream_socket_serviceISA_EEEE.cold, @function
_ZN8asiodnp315MasterTCPServer16AcceptConnectionEmRKSt10shared_ptrIN7asiopal8ExecutorEEN4asio19basic_stream_socketINS7_2ip3tcpENS7_21stream_socket_serviceISA_EEEE.cold:
.LFSB8275:
.L1534:
	.cfi_def_cfa_offset 1088
	.cfi_offset 3, -56
	.cfi_offset 6, -48
	.cfi_offset 12, -40
	.cfi_offset 13, -32
	.cfi_offset 14, -24
	.cfi_offset 15, -16
.LEHB65:
	call	_ZSt20__throw_bad_weak_ptrv@PLT
.LEHE65:
.L1375:
	movq	(%rsp), %rdi
	call	_ZNSt7__cxx1112basic_stringIcSt11char_traitsIcESaIcEE10_M_disposeEv@PLT
.L1376:
	movq	48(%rsp), %rdi
	call	_ZNSt7__cxx1119basic_ostringstreamIcSt11char_traitsIcESaIcEED1Ev@PLT
.L1361:
	movq	72(%rsp), %rdi
	call	_ZNSt7__cxx1112basic_stringIcSt11char_traitsIcESaIcEE10_M_disposeEv@PLT
.L1379:
	movq	%r15, %rdi
	call	_ZNSt7__cxx1119basic_ostringstreamIcSt11char_traitsIcESaIcEED1Ev@PLT
	movq	%rbx, %rdi
.LEHB66:
	call	_Unwind_Resume@PLT
.LEHE66:
.L1584:
	movq	(%rsp), %rdi
	call	_ZNSt7__cxx1112basic_stringIcSt11char_traitsIcESaIcEE10_M_disposeEv@PLT
	jmp	.L1379
.L1495:
	movq	%rbx, %rdi
	movl	$56, %esi
	movq	%rbp, %rbx
	call	_ZdlPvm@PLT
.L1496:
	movq	(%rsp), %rdi
	call	_ZNSt7__cxx1112basic_stringIcSt11char_traitsIcESaIcEE10_M_disposeEv@PLT
.L1519:
	movq	200(%rsp), %rdi
	testq	%rdi, %rdi
	je	.L1521
	call	_ZNSt16_Sp_counted_baseILN9__gnu_cxx12_Lock_policyE2EE10_M_releaseEv@PLT
.L1521:
	movq	%r12, %rdi
	call	pthread_mutex_unlock@PLT
.L1532:
	movq	184(%rsp), %rdi
	testq	%rdi, %rdi
	je	.L1379
	call	_ZNSt16_Sp_counted_baseILN9__gnu_cxx12_Lock_policyE2EE10_M_releaseEv@PLT
	jmp	.L1379
.L1597:
.L1792:
	movq	%rax, %rbx
	jmp	.L1532
.L1796:
	movl	%eax, %edi
.LEHB67:
	call	_ZSt20__throw_system_errori@PLT
.LEHE67:
.L1308:
	movq	_ZTVNSt7__cxx1115basic_stringbufIcSt11char_traitsIcESaIcEEE@GOTPCREL(%rip), %rax
	leaq	336(%rsp), %rdi
	addq	$16, %rax
	movq	%rax, 264(%rsp)
	call	_ZNSt7__cxx1112basic_stringIcSt11char_traitsIcESaIcEE10_M_disposeEv@PLT
	movq	_ZTVSt15basic_streambufIcSt11char_traitsIcEE@GOTPCREL(%rip), %rax
	movq	104(%rsp), %rdi
	addq	$16, %rax
	movq	%rax, 264(%rsp)
	call	_ZNSt6localeD1Ev@PLT
	movq	80(%rsp), %rax
	movq	88(%rsp), %rcx
	movq	%rax, 256(%rsp)
	movq	-24(%rax), %rax
	movq	%rcx, 256(%rsp,%rax)
.L1309:
	movq	_ZTVSt9basic_iosIcSt11char_traitsIcEE@GOTPCREL(%rip), %rax
	movq	112(%rsp), %rdi
	addq	$16, %rax
	movq	%rax, 368(%rsp)
	call	_ZNSt8ios_baseD2Ev@PLT
	movq	%rbx, %rdi
.LEHB68:
	call	_Unwind_Resume@PLT
.LEHE68:
.L1600:
.L1794:
	movq	(%rsp), %rdi
	movq	%rax, %rbx
	call	_ZNSt7__cxx1112basic_stringIcSt11char_traitsIcESaIcEE10_M_disposeEv@PLT
	jmp	.L1379
.L1454:
	movq	%rbx, %rdi
	movl	$72, %esi
	movq	%rbp, %rbx
	call	_ZdlPvm@PLT
.L1455:
	movl	72(%rsp), %eax
	movq	48(%rsp), %rsi
	leaq	40(%r13), %rdi
	movq	%r13, 664(%rsp)
	movl	%eax, 640(%rsp)
	movzbl	140(%rsp), %eax
	movb	%al, 644(%rsp)
	movq	144(%rsp), %rax
	movq	%rax, 648(%rsp)
	movl	152(%rsp), %eax
	movl	%eax, 656(%rsp)
	call	_ZN4asio6detail28reactive_socket_service_base7destroyERNS1_24base_implementation_typeE@PLT
	jmp	.L1379
.L1471:
	movq	232(%rsp), %rdi
	testq	%rdi, %rdi
	je	.L1472
	call	_ZNSt16_Sp_counted_baseILN9__gnu_cxx12_Lock_policyE2EE10_M_releaseEv@PLT
.L1472:
	movq	664(%rsp), %rax
	movq	48(%rsp), %rsi
	leaq	40(%rax), %rdi
	call	_ZN4asio6detail28reactive_socket_service_base7destroyERNS1_24base_implementation_typeE@PLT
	movl	$112, %esi
	movq	%rbp, %rdi
	call	_ZdlPvm@PLT
	xorl	%eax, %eax
	movl	$2, 152(%rsp)
	movq	%rax, 144(%rsp)
	movb	$0, 140(%rsp)
	movl	$-1, 72(%rsp)
.L1473:
	movq	%rbx, %rdi
	movq	%r12, %rbx
	call	_ZNSt16_Sp_counted_baseILN9__gnu_cxx12_Lock_policyE2EE10_M_releaseEv@PLT
	jmp	.L1455
.L1514:
	movq	%rbx, %rdi
	movq	%rbp, %rbx
	call	_ZNSt16_Sp_counted_baseILN9__gnu_cxx12_Lock_policyE2EE10_M_releaseEv@PLT
.L1505:
	movq	48(%rsp), %rdi
	call	_ZN7openpal6LoggerD1Ev@PLT
	jmp	.L1496
.L1504:
	movq	%rbx, %rdi
	movl	$624, %esi
	movq	%rbp, %rbx
	call	_ZdlPvm@PLT
	jmp	.L1505
.L1795:
.LEHB69:
	call	_ZSt16__throw_bad_castv@PLT
.LEHE69:
.L1531:
	movq	%rbx, %rdi
	call	_ZNSt16_Sp_counted_baseILN9__gnu_cxx12_Lock_policyE2EE10_M_releaseEv@PLT
	movq	%rbx, %rdi
	movq	%rbp, %rbx
	call	_ZNSt16_Sp_counted_baseILN9__gnu_cxx12_Lock_policyE2EE10_M_releaseEv@PLT
	jmp	.L1521
.L1557:
	movq	%rbx, %rdi
	call	_ZNSt16_Sp_counted_baseILN9__gnu_cxx12_Lock_policyE2EE10_M_releaseEv@PLT
	movq	%rbx, %rdi
	movq	%rbp, %rbx
	call	_ZNSt16_Sp_counted_baseILN9__gnu_cxx12_Lock_policyE2EE10_M_releaseEv@PLT
	jmp	.L1532
.L1359:
	movq	_ZTVNSt7__cxx1115basic_stringbufIcSt11char_traitsIcESaIcEEE@GOTPCREL(%rip), %rax
	leaq	720(%rsp), %rdi
	addq	$16, %rax
	movq	%rax, 648(%rsp)
	call	_ZNSt7__cxx1112basic_stringIcSt11char_traitsIcESaIcEE10_M_disposeEv@PLT
	movq	_ZTVSt15basic_streambufIcSt11char_traitsIcEE@GOTPCREL(%rip), %rax
	movq	152(%rsp), %rdi
	addq	$16, %rax
	movq	%rax, 648(%rsp)
	call	_ZNSt6localeD1Ev@PLT
	movq	80(%rsp), %rax
	movq	88(%rsp), %rcx
	movq	%rax, 640(%rsp)
	movq	-24(%rax), %rax
	movq	%rcx, 640(%rsp,%rax)
.L1360:
	movq	_ZTVSt9basic_iosIcSt11char_traitsIcEE@GOTPCREL(%rip), %rax
	movq	%r14, %rdi
	addq	$16, %rax
	movq	%rax, 752(%rsp)
	call	_ZNSt8ios_baseD2Ev@PLT
	jmp	.L1361
	.cfi_endproc
.LFE8275:
	.section	.gcc_except_table
.LLSDAC8275:
	.byte	0xff
	.byte	0xff
	.byte	0x1
	.uleb128 .LLSDACSEC8275-.LLSDACSBC8275
.LLSDACSBC8275:
	.uleb128 .LEHB65-.LCOLDB52
	.uleb128 .LEHE65-.LEHB65
	.uleb128 .L1597-.LCOLDB52
	.uleb128 0
	.uleb128 .LEHB66-.LCOLDB52
	.uleb128 .LEHE66-.LEHB66
	.uleb128 0
	.uleb128 0
	.uleb128 .LEHB67-.LCOLDB52
	.uleb128 .LEHE67-.LEHB67
	.uleb128 .L1597-.LCOLDB52
	.uleb128 0
	.uleb128 .LEHB68-.LCOLDB52
	.uleb128 .LEHE68-.LEHB68
	.uleb128 0
	.uleb128 0
	.uleb128 .LEHB69-.LCOLDB52
	.uleb128 .LEHE69-.LEHB69
	.uleb128 .L1600-.LCOLDB52
	.uleb128 0
.LLSDACSEC8275:
	.section	.text.unlikely
	.text
	.size	_ZN8asiodnp315MasterTCPServer16AcceptConnectionEmRKSt10shared_ptrIN7asiopal8ExecutorEEN4asio19basic_stream_socketINS7_2ip3tcpENS7_21stream_socket_serviceISA_EEEE, .-_ZN8asiodnp315MasterTCPServer16AcceptConnectionEmRKSt10shared_ptrIN7asiopal8ExecutorEEN4asio19basic_stream_socketINS7_2ip3tcpENS7_21stream_socket_serviceISA_EEEE
	.section	.text.unlikely
	.size	_ZN8asiodnp315MasterTCPServer16AcceptConnectionEmRKSt10shared_ptrIN7asiopal8ExecutorEEN4asio19basic_stream_socketINS7_2ip3tcpENS7_21stream_socket_serviceISA_EEEE.cold, .-_ZN8asiodnp315MasterTCPServer16AcceptConnectionEmRKSt10shared_ptrIN7asiopal8ExecutorEEN4asio19basic_stream_socketINS7_2ip3tcpENS7_21stream_socket_serviceISA_EEEE.cold
.LCOLDE52:
	.text
.LHOTE52:
	.section	.text._ZN4asio6detail18completion_handlerIZN7asiopal13IAsyncChannel8ShutdownEvEUlvE_E3ptr5resetEv,"axG",@progbits,_ZN4asio6detail18completion_handlerIZN7asiopal13IAsyncChannel8ShutdownEvEUlvE_E3ptr5resetEv,comdat
	.align 2
	.p2align 4
	.weak	_ZN4asio6detail18completion_handlerIZN7asiopal13IAsyncChannel8ShutdownEvEUlvE_E3ptr5resetEv
	.type	_ZN4asio6detail18completion_handlerIZN7asiopal13IAsyncChannel8ShutdownEvEUlvE_E3ptr5resetEv, @function
_ZN4asio6detail18completion_handlerIZN7asiopal13IAsyncChannel8ShutdownEvEUlvE_E3ptr5resetEv:
.LFB10241:
	.cfi_startproc
	pushq	%rbp
	.cfi_def_cfa_offset 16
	.cfi_offset 6, -16
	pushq	%rbx
	.cfi_def_cfa_offset 24
	.cfi_offset 3, -24
	movq	%rdi, %rbx
	subq	$8, %rsp
	.cfi_def_cfa_offset 32
	movq	16(%rdi), %rax
	testq	%rax, %rax
	je	.L1874
	movq	32(%rax), %rbp
	testq	%rbp, %rbp
	je	.L1876
	movq	8(%rbp), %rdx
	leaq	8(%rbp), %rcx
	movabsq	$4294967297, %rax
	cmpq	%rax, %rdx
	je	.L1897
	movq	__libc_single_threaded@GOTPCREL(%rip), %rax
	cmpb	$0, (%rax)
	je	.L1878
	movl	8(%rbp), %eax
	leal	-1(%rax), %edx
	movl	%edx, 8(%rbp)
.L1879:
	cmpl	$1, %eax
	je	.L1898
.L1876:
	movq	$0, 16(%rbx)
.L1874:
	movq	8(%rbx), %rbp
	testq	%rbp, %rbp
	je	.L1873
	data16	leaq	_ZN4asio6detail15keyword_tss_ptrINS0_10call_stackINS0_15task_io_serviceENS0_27task_io_service_thread_infoEE7contextEE6value_E@tlsgd(%rip), %rdi
	.value	0x6666
	rex64
	call	__tls_get_addr@PLT
	movq	(%rax), %rax
	testq	%rax, %rax
	je	.L1882
	movq	8(%rax), %rax
	testq	%rax, %rax
	je	.L1882
	cmpq	$0, (%rax)
	je	.L1899
.L1882:
	movq	%rbp, %rdi
	call	_ZdlPv@PLT
.L1883:
	movq	$0, 8(%rbx)
.L1873:
	addq	$8, %rsp
	.cfi_remember_state
	.cfi_def_cfa_offset 24
	popq	%rbx
	.cfi_def_cfa_offset 16
	popq	%rbp
	.cfi_def_cfa_offset 8
	ret
	.p2align 4,,10
	.p2align 3
.L1878:
	.cfi_restore_state
	movl	$-1, %eax
	lock xaddl	%eax, (%rcx)
	jmp	.L1879
	.p2align 4,,10
	.p2align 3
.L1899:
	movzbl	40(%rbp), %edx
	movb	%dl, 0(%rbp)
	movq	%rbp, (%rax)
	jmp	.L1883
	.p2align 4,,10
	.p2align 3
.L1897:
	movq	0(%rbp), %rax
	movq	%rbp, %rdi
	movq	$0, 8(%rbp)
	call	*16(%rax)
	movq	0(%rbp), %rax
	movq	%rbp, %rdi
	call	*24(%rax)
	jmp	.L1876
	.p2align 4,,10
	.p2align 3
.L1898:
	movq	%rbp, %rdi
	call	_ZNSt16_Sp_counted_baseILN9__gnu_cxx12_Lock_policyE2EE24_M_release_last_use_coldEv@PLT
	jmp	.L1876
	.cfi_endproc
.LFE10241:
	.size	_ZN4asio6detail18completion_handlerIZN7asiopal13IAsyncChannel8ShutdownEvEUlvE_E3ptr5resetEv, .-_ZN4asio6detail18completion_handlerIZN7asiopal13IAsyncChannel8ShutdownEvEUlvE_E3ptr5resetEv
	.section	.text._ZN4asio6detail18completion_handlerIZN7asiopal13IAsyncChannel8ShutdownEvEUlvE_E11do_completeEPNS0_15task_io_serviceEPNS0_25task_io_service_operationERKSt10error_codem,"axG",@progbits,_ZN4asio6detail18completion_handlerIZN7asiopal13IAsyncChannel8ShutdownEvEUlvE_E11do_completeEPNS0_15task_io_serviceEPNS0_25task_io_service_operationERKSt10error_codem,comdat
	.p2align 4
	.weak	_ZN4asio6detail18completion_handlerIZN7asiopal13IAsyncChannel8ShutdownEvEUlvE_E11do_completeEPNS0_15task_io_serviceEPNS0_25task_io_service_operationERKSt10error_codem
	.type	_ZN4asio6detail18completion_handlerIZN7asiopal13IAsyncChannel8ShutdownEvEUlvE_E11do_completeEPNS0_15task_io_serviceEPNS0_25task_io_service_operationERKSt10error_codem, @function
_ZN4asio6detail18completion_handlerIZN7asiopal13IAsyncChannel8ShutdownEvEUlvE_E11do_completeEPNS0_15task_io_serviceEPNS0_25task_io_service_operationERKSt10error_codem:
.LFB10245:
	.cfi_startproc
	.cfi_personality 0x9b,DW.ref.__gxx_personality_v0
	.cfi_lsda 0x1b,.LLSDA10245
	pushq	%r12
	.cfi_def_cfa_offset 16
	.cfi_offset 12, -16
	movq	%rdi, %r12
	pushq	%rbp
	.cfi_def_cfa_offset 24
	.cfi_offset 6, -24
	movq	%rsi, %rbp
	pushq	%rbx
	.cfi_def_cfa_offset 32
	.cfi_offset 3, -32
	subq	$80, %rsp
	.cfi_def_cfa_offset 112
	movdqu	24(%rsi), %xmm0
	leaq	16(%rsp), %rax
	movq	%rax, 48(%rsp)
	movaps	%xmm0, 16(%rsp)
	movaps	%xmm0, (%rsp)
	data16	leaq	_ZN4asio6detail15keyword_tss_ptrINS0_10call_stackINS0_15task_io_serviceENS0_27task_io_service_thread_infoEE7contextEE6value_E@tlsgd(%rip), %rdi
	.value	0x6666
	rex64
	call	__tls_get_addr@PLT
	movq	(%rax), %rax
	testq	%rax, %rax
	je	.L1902
	movq	8(%rax), %rax
	testq	%rax, %rax
	je	.L1902
	cmpq	$0, (%rax)
	je	.L1935
.L1902:
	movq	%rbp, %rdi
	call	_ZdlPv@PLT
	movq	24(%rsp), %rbx
.L1904:
	testq	%r12, %r12
	je	.L1934
	movq	16(%rsp), %rax
	movq	%rax, 32(%rsp)
	testq	%rbx, %rbx
	je	.L1936
	movq	__libc_single_threaded@GOTPCREL(%rip), %rbp
	cmpb	$0, 0(%rbp)
	je	.L1910
	addl	$1, 8(%rbx)
	leaq	32(%rsp), %rdi
	movq	%rbx, 40(%rsp)
.LEHB70:
	call	_ZN7asiopal13IAsyncChannel16CheckForShutdownESt10shared_ptrIS0_E.isra.0
.L1911:
	movq	8(%rbx), %rdx
	leaq	8(%rbx), %rcx
	movabsq	$4294967297, %rax
	cmpq	%rax, %rdx
	je	.L1937
	cmpb	$0, 0(%rbp)
	je	.L1914
	movl	8(%rbx), %eax
	leal	-1(%rax), %edx
	movl	%edx, 8(%rbx)
.L1915:
	cmpl	$1, %eax
	jne	.L1912
	movq	%rbx, %rdi
	call	_ZNSt16_Sp_counted_baseILN9__gnu_cxx12_Lock_policyE2EE24_M_release_last_use_coldEv@PLT
	jmp	.L1912
	.p2align 4,,10
	.p2align 3
.L1936:
	movq	$0, 40(%rsp)
	leaq	32(%rsp), %rdi
	call	_ZN7asiopal13IAsyncChannel16CheckForShutdownESt10shared_ptrIS0_E.isra.0
.L1912:
	sfence
	movq	24(%rsp), %rbx
.L1934:
	testq	%rbx, %rbx
	je	.L1900
	movq	8(%rbx), %rdx
	leaq	8(%rbx), %rcx
	movabsq	$4294967297, %rax
	cmpq	%rax, %rdx
	je	.L1938
	movq	__libc_single_threaded@GOTPCREL(%rip), %rax
	cmpb	$0, (%rax)
	je	.L1922
	movl	8(%rbx), %eax
	leal	-1(%rax), %edx
	movl	%edx, 8(%rbx)
.L1923:
	cmpl	$1, %eax
	je	.L1939
.L1900:
	addq	$80, %rsp
	.cfi_remember_state
	.cfi_def_cfa_offset 32
	popq	%rbx
	.cfi_def_cfa_offset 24
	popq	%rbp
	.cfi_def_cfa_offset 16
	popq	%r12
	.cfi_def_cfa_offset 8
	ret
	.p2align 4,,10
	.p2align 3
.L1938:
	.cfi_restore_state
	movq	(%rbx), %rax
	movq	%rbx, %rdi
	movq	$0, 8(%rbx)
	call	*16(%rax)
	movq	(%rbx), %rax
	movq	%rbx, %rdi
	call	*24(%rax)
	addq	$80, %rsp
	.cfi_remember_state
	.cfi_def_cfa_offset 32
	popq	%rbx
	.cfi_def_cfa_offset 24
	popq	%rbp
	.cfi_def_cfa_offset 16
	popq	%r12
	.cfi_def_cfa_offset 8
	ret
	.p2align 4,,10
	.p2align 3
.L1935:
	.cfi_restore_state
	movzbl	40(%rbp), %edx
	movq	8(%rsp), %rbx
	movb	%dl, 0(%rbp)
	movq	%rbp, (%rax)
	jmp	.L1904
	.p2align 4,,10
	.p2align 3
.L1914:
	movl	$-1, %eax
	lock xaddl	%eax, (%rcx)
	jmp	.L1915
	.p2align 4,,10
	.p2align 3
.L1922:
	movl	$-1, %eax
	lock xaddl	%eax, (%rcx)
	jmp	.L1923
	.p2align 4,,10
	.p2align 3
.L1910:
	lock addl	$1, 8(%rbx)
	leaq	32(%rsp), %rdi
	movq	%rbx, 40(%rsp)
	call	_ZN7asiopal13IAsyncChannel16CheckForShutdownESt10shared_ptrIS0_E.isra.0
.LEHE70:
	jmp	.L1911
	.p2align 4,,10
	.p2align 3
.L1937:
	movq	(%rbx), %rax
	movq	%rbx, %rdi
	movq	$0, 8(%rbx)
	call	*16(%rax)
	movq	(%rbx), %rax
	movq	%rbx, %rdi
	call	*24(%rax)
	jmp	.L1912
	.p2align 4,,10
	.p2align 3
.L1939:
	movq	%rbx, %rdi
	call	_ZNSt16_Sp_counted_baseILN9__gnu_cxx12_Lock_policyE2EE24_M_release_last_use_coldEv@PLT
	jmp	.L1900
.L1925:
	movq	%rax, %rbp
.L1917:
	testq	%rbx, %rbx
	je	.L1918
	movq	%rbx, %rdi
	call	_ZNSt16_Sp_counted_baseILN9__gnu_cxx12_Lock_policyE2EE10_M_releaseEv@PLT
.L1918:
	sfence
	movq	24(%rsp), %rdi
	testq	%rdi, %rdi
	je	.L1920
	call	_ZNSt16_Sp_counted_baseILN9__gnu_cxx12_Lock_policyE2EE10_M_releaseEv@PLT
.L1920:
	pxor	%xmm0, %xmm0
	leaq	48(%rsp), %rdi
	movups	%xmm0, 56(%rsp)
	call	_ZN4asio6detail18completion_handlerIZN7asiopal13IAsyncChannel8ShutdownEvEUlvE_E3ptr5resetEv@PLT
	movq	%rbp, %rdi
.LEHB71:
	call	_Unwind_Resume@PLT
.LEHE71:
	.cfi_endproc
.LFE10245:
	.section	.gcc_except_table
.LLSDA10245:
	.byte	0xff
	.byte	0xff
	.byte	0x1
	.uleb128 .LLSDACSE10245-.LLSDACSB10245
.LLSDACSB10245:
	.uleb128 .LEHB70-.LFB10245
	.uleb128 .LEHE70-.LEHB70
	.uleb128 .L1925-.LFB10245
	.uleb128 0
	.uleb128 .LEHB71-.LFB10245
	.uleb128 .LEHE71-.LEHB71
	.uleb128 0
	.uleb128 0
.LLSDACSE10245:
	.section	.text._ZN4asio6detail18completion_handlerIZN7asiopal13IAsyncChannel8ShutdownEvEUlvE_E11do_completeEPNS0_15task_io_serviceEPNS0_25task_io_service_operationERKSt10error_codem,"axG",@progbits,_ZN4asio6detail18completion_handlerIZN7asiopal13IAsyncChannel8ShutdownEvEUlvE_E11do_completeEPNS0_15task_io_serviceEPNS0_25task_io_service_operationERKSt10error_codem,comdat
	.size	_ZN4asio6detail18completion_handlerIZN7asiopal13IAsyncChannel8ShutdownEvEUlvE_E11do_completeEPNS0_15task_io_serviceEPNS0_25task_io_service_operationERKSt10error_codem, .-_ZN4asio6detail18completion_handlerIZN7asiopal13IAsyncChannel8ShutdownEvEUlvE_E11do_completeEPNS0_15task_io_serviceEPNS0_25task_io_service_operationERKSt10error_codem
	.section	.text._ZN4asio6detail18completion_handlerIZN7asiopal13IAsyncChannel16CheckForShutdownESt10shared_ptrIS3_EEUlvE_E3ptr5resetEv,"axG",@progbits,_ZN4asio6detail18completion_handlerIZN7asiopal13IAsyncChannel16CheckForShutdownESt10shared_ptrIS3_EEUlvE_E3ptr5resetEv,comdat
	.align 2
	.p2align 4
	.weak	_ZN4asio6detail18completion_handlerIZN7asiopal13IAsyncChannel16CheckForShutdownESt10shared_ptrIS3_EEUlvE_E3ptr5resetEv
	.type	_ZN4asio6detail18completion_handlerIZN7asiopal13IAsyncChannel16CheckForShutdownESt10shared_ptrIS3_EEUlvE_E3ptr5resetEv, @function
_ZN4asio6detail18completion_handlerIZN7asiopal13IAsyncChannel16CheckForShutdownESt10shared_ptrIS3_EEUlvE_E3ptr5resetEv:
.LFB10247:
	.cfi_startproc
	pushq	%rbp
	.cfi_def_cfa_offset 16
	.cfi_offset 6, -16
	pushq	%rbx
	.cfi_def_cfa_offset 24
	.cfi_offset 3, -24
	movq	%rdi, %rbx
	subq	$8, %rsp
	.cfi_def_cfa_offset 32
	movq	16(%rdi), %rax
	testq	%rax, %rax
	je	.L1941
	movq	32(%rax), %rbp
	testq	%rbp, %rbp
	je	.L1943
	movq	8(%rbp), %rdx
	leaq	8(%rbp), %rcx
	movabsq	$4294967297, %rax
	cmpq	%rax, %rdx
	je	.L1964
	movq	__libc_single_threaded@GOTPCREL(%rip), %rax
	cmpb	$0, (%rax)
	je	.L1945
	movl	8(%rbp), %eax
	leal	-1(%rax), %edx
	movl	%edx, 8(%rbp)
.L1946:
	cmpl	$1, %eax
	je	.L1965
.L1943:
	movq	$0, 16(%rbx)
.L1941:
	movq	8(%rbx), %rbp
	testq	%rbp, %rbp
	je	.L1940
	data16	leaq	_ZN4asio6detail15keyword_tss_ptrINS0_10call_stackINS0_15task_io_serviceENS0_27task_io_service_thread_infoEE7contextEE6value_E@tlsgd(%rip), %rdi
	.value	0x6666
	rex64
	call	__tls_get_addr@PLT
	movq	(%rax), %rax
	testq	%rax, %rax
	je	.L1949
	movq	8(%rax), %rax
	testq	%rax, %rax
	je	.L1949
	cmpq	$0, (%rax)
	je	.L1966
.L1949:
	movq	%rbp, %rdi
	call	_ZdlPv@PLT
.L1950:
	movq	$0, 8(%rbx)
.L1940:
	addq	$8, %rsp
	.cfi_remember_state
	.cfi_def_cfa_offset 24
	popq	%rbx
	.cfi_def_cfa_offset 16
	popq	%rbp
	.cfi_def_cfa_offset 8
	ret
	.p2align 4,,10
	.p2align 3
.L1945:
	.cfi_restore_state
	movl	$-1, %eax
	lock xaddl	%eax, (%rcx)
	jmp	.L1946
	.p2align 4,,10
	.p2align 3
.L1966:
	movzbl	40(%rbp), %edx
	movb	%dl, 0(%rbp)
	movq	%rbp, (%rax)
	jmp	.L1950
	.p2align 4,,10
	.p2align 3
.L1964:
	movq	0(%rbp), %rax
	movq	%rbp, %rdi
	movq	$0, 8(%rbp)
	call	*16(%rax)
	movq	0(%rbp), %rax
	movq	%rbp, %rdi
	call	*24(%rax)
	jmp	.L1943
	.p2align 4,,10
	.p2align 3
.L1965:
	movq	%rbp, %rdi
	call	_ZNSt16_Sp_counted_baseILN9__gnu_cxx12_Lock_policyE2EE24_M_release_last_use_coldEv@PLT
	jmp	.L1943
	.cfi_endproc
.LFE10247:
	.size	_ZN4asio6detail18completion_handlerIZN7asiopal13IAsyncChannel16CheckForShutdownESt10shared_ptrIS3_EEUlvE_E3ptr5resetEv, .-_ZN4asio6detail18completion_handlerIZN7asiopal13IAsyncChannel16CheckForShutdownESt10shared_ptrIS3_EEUlvE_E3ptr5resetEv
	.section	.text._ZN4asio6detail18completion_handlerIZN7asiopal13IAsyncChannel16CheckForShutdownESt10shared_ptrIS3_EEUlvE_E11do_completeEPNS0_15task_io_serviceEPNS0_25task_io_service_operationERKSt10error_codem,"axG",@progbits,_ZN4asio6detail18completion_handlerIZN7asiopal13IAsyncChannel16CheckForShutdownESt10shared_ptrIS3_EEUlvE_E11do_completeEPNS0_15task_io_serviceEPNS0_25task_io_service_operationERKSt10error_codem,comdat
	.p2align 4
	.weak	_ZN4asio6detail18completion_handlerIZN7asiopal13IAsyncChannel16CheckForShutdownESt10shared_ptrIS3_EEUlvE_E11do_completeEPNS0_15task_io_serviceEPNS0_25task_io_service_operationERKSt10error_codem
	.type	_ZN4asio6detail18completion_handlerIZN7asiopal13IAsyncChannel16CheckForShutdownESt10shared_ptrIS3_EEUlvE_E11do_completeEPNS0_15task_io_serviceEPNS0_25task_io_service_operationERKSt10error_codem, @function
_ZN4asio6detail18completion_handlerIZN7asiopal13IAsyncChannel16CheckForShutdownESt10shared_ptrIS3_EEUlvE_E11do_completeEPNS0_15task_io_serviceEPNS0_25task_io_service_operationERKSt10error_codem:
.LFB10251:
	.cfi_startproc
	.cfi_personality 0x9b,DW.ref.__gxx_personality_v0
	.cfi_lsda 0x1b,.LLSDA10251
	pushq	%r12
	.cfi_def_cfa_offset 16
	.cfi_offset 12, -16
	movq	%rdi, %r12
	pushq	%rbp
	.cfi_def_cfa_offset 24
	.cfi_offset 6, -24
	movq	%rsi, %rbp
	pushq	%rbx
	.cfi_def_cfa_offset 32
	.cfi_offset 3, -32
	subq	$80, %rsp
	.cfi_def_cfa_offset 112
	movdqu	24(%rsi), %xmm0
	leaq	16(%rsp), %rax
	movq	%rax, 48(%rsp)
	movaps	%xmm0, 16(%rsp)
	movaps	%xmm0, (%rsp)
	data16	leaq	_ZN4asio6detail15keyword_tss_ptrINS0_10call_stackINS0_15task_io_serviceENS0_27task_io_service_thread_infoEE7contextEE6value_E@tlsgd(%rip), %rdi
	.value	0x6666
	rex64
	call	__tls_get_addr@PLT
	movq	(%rax), %rax
	testq	%rax, %rax
	je	.L1969
	movq	8(%rax), %rax
	testq	%rax, %rax
	je	.L1969
	cmpq	$0, (%rax)
	je	.L2002
.L1969:
	movq	%rbp, %rdi
	call	_ZdlPv@PLT
	movq	24(%rsp), %rbx
.L1971:
	testq	%r12, %r12
	je	.L2001
	movq	16(%rsp), %rax
	movq	%rax, 32(%rsp)
	testq	%rbx, %rbx
	je	.L2003
	movq	__libc_single_threaded@GOTPCREL(%rip), %rbp
	cmpb	$0, 0(%rbp)
	je	.L1977
	addl	$1, 8(%rbx)
	leaq	32(%rsp), %rdi
	movq	%rbx, 40(%rsp)
.LEHB72:
	call	_ZN7asiopal13IAsyncChannel16CheckForShutdownESt10shared_ptrIS0_E.isra.0
.L1978:
	movq	8(%rbx), %rdx
	leaq	8(%rbx), %rcx
	movabsq	$4294967297, %rax
	cmpq	%rax, %rdx
	je	.L2004
	cmpb	$0, 0(%rbp)
	je	.L1981
	movl	8(%rbx), %eax
	leal	-1(%rax), %edx
	movl	%edx, 8(%rbx)
.L1982:
	cmpl	$1, %eax
	jne	.L1979
	movq	%rbx, %rdi
	call	_ZNSt16_Sp_counted_baseILN9__gnu_cxx12_Lock_policyE2EE24_M_release_last_use_coldEv@PLT
	jmp	.L1979
	.p2align 4,,10
	.p2align 3
.L2003:
	movq	$0, 40(%rsp)
	leaq	32(%rsp), %rdi
	call	_ZN7asiopal13IAsyncChannel16CheckForShutdownESt10shared_ptrIS0_E.isra.0
.L1979:
	sfence
	movq	24(%rsp), %rbx
.L2001:
	testq	%rbx, %rbx
	je	.L1967
	movq	8(%rbx), %rdx
	leaq	8(%rbx), %rcx
	movabsq	$4294967297, %rax
	cmpq	%rax, %rdx
	je	.L2005
	movq	__libc_single_threaded@GOTPCREL(%rip), %rax
	cmpb	$0, (%rax)
	je	.L1989
	movl	8(%rbx), %eax
	leal	-1(%rax), %edx
	movl	%edx, 8(%rbx)
.L1990:
	cmpl	$1, %eax
	je	.L2006
.L1967:
	addq	$80, %rsp
	.cfi_remember_state
	.cfi_def_cfa_offset 32
	popq	%rbx
	.cfi_def_cfa_offset 24
	popq	%rbp
	.cfi_def_cfa_offset 16
	popq	%r12
	.cfi_def_cfa_offset 8
	ret
	.p2align 4,,10
	.p2align 3
.L2005:
	.cfi_restore_state
	movq	(%rbx), %rax
	movq	%rbx, %rdi
	movq	$0, 8(%rbx)
	call	*16(%rax)
	movq	(%rbx), %rax
	movq	%rbx, %rdi
	call	*24(%rax)
	addq	$80, %rsp
	.cfi_remember_state
	.cfi_def_cfa_offset 32
	popq	%rbx
	.cfi_def_cfa_offset 24
	popq	%rbp
	.cfi_def_cfa_offset 16
	popq	%r12
	.cfi_def_cfa_offset 8
	ret
	.p2align 4,,10
	.p2align 3
.L2002:
	.cfi_restore_state
	movzbl	40(%rbp), %edx
	movq	8(%rsp), %rbx
	movb	%dl, 0(%rbp)
	movq	%rbp, (%rax)
	jmp	.L1971
	.p2align 4,,10
	.p2align 3
.L1981:
	movl	$-1, %eax
	lock xaddl	%eax, (%rcx)
	jmp	.L1982
	.p2align 4,,10
	.p2align 3
.L1989:
	movl	$-1, %eax
	lock xaddl	%eax, (%rcx)
	jmp	.L1990
	.p2align 4,,10
	.p2align 3
.L1977:
	lock addl	$1, 8(%rbx)
	leaq	32(%rsp), %rdi
	movq	%rbx, 40(%rsp)
	call	_ZN7asiopal13IAsyncChannel16CheckForShutdownESt10shared_ptrIS0_E.isra.0
.LEHE72:
	jmp	.L1978
	.p2align 4,,10
	.p2align 3
.L2004:
	movq	(%rbx), %rax
	movq	%rbx, %rdi
	movq	$0, 8(%rbx)
	call	*16(%rax)
	movq	(%rbx), %rax
	movq	%rbx, %rdi
	call	*24(%rax)
	jmp	.L1979
	.p2align 4,,10
	.p2align 3
.L2006:
	movq	%rbx, %rdi
	call	_ZNSt16_Sp_counted_baseILN9__gnu_cxx12_Lock_policyE2EE24_M_release_last_use_coldEv@PLT
	jmp	.L1967
.L1992:
	movq	%rax, %rbp
.L1984:
	testq	%rbx, %rbx
	je	.L1985
	movq	%rbx, %rdi
	call	_ZNSt16_Sp_counted_baseILN9__gnu_cxx12_Lock_policyE2EE10_M_releaseEv@PLT
.L1985:
	sfence
	movq	24(%rsp), %rdi
	testq	%rdi, %rdi
	je	.L1987
	call	_ZNSt16_Sp_counted_baseILN9__gnu_cxx12_Lock_policyE2EE10_M_releaseEv@PLT
.L1987:
	pxor	%xmm0, %xmm0
	leaq	48(%rsp), %rdi
	movups	%xmm0, 56(%rsp)
	call	_ZN4asio6detail18completion_handlerIZN7asiopal13IAsyncChannel16CheckForShutdownESt10shared_ptrIS3_EEUlvE_E3ptr5resetEv@PLT
	movq	%rbp, %rdi
.LEHB73:
	call	_Unwind_Resume@PLT
.LEHE73:
	.cfi_endproc
.LFE10251:
	.section	.gcc_except_table
.LLSDA10251:
	.byte	0xff
	.byte	0xff
	.byte	0x1
	.uleb128 .LLSDACSE10251-.LLSDACSB10251
.LLSDACSB10251:
	.uleb128 .LEHB72-.LFB10251
	.uleb128 .LEHE72-.LEHB72
	.uleb128 .L1992-.LFB10251
	.uleb128 0
	.uleb128 .LEHB73-.LFB10251
	.uleb128 .LEHE73-.LEHB73
	.uleb128 0
	.uleb128 0
.LLSDACSE10251:
	.section	.text._ZN4asio6detail18completion_handlerIZN7asiopal13IAsyncChannel16CheckForShutdownESt10shared_ptrIS3_EEUlvE_E11do_completeEPNS0_15task_io_serviceEPNS0_25task_io_service_operationERKSt10error_codem,"axG",@progbits,_ZN4asio6detail18completion_handlerIZN7asiopal13IAsyncChannel16CheckForShutdownESt10shared_ptrIS3_EEUlvE_E11do_completeEPNS0_15task_io_serviceEPNS0_25task_io_service_operationERKSt10error_codem,comdat
	.size	_ZN4asio6detail18completion_handlerIZN7asiopal13IAsyncChannel16CheckForShutdownESt10shared_ptrIS3_EEUlvE_E11do_completeEPNS0_15task_io_serviceEPNS0_25task_io_service_operationERKSt10error_codem, .-_ZN4asio6detail18completion_handlerIZN7asiopal13IAsyncChannel16CheckForShutdownESt10shared_ptrIS3_EEUlvE_E11do_completeEPNS0_15task_io_serviceEPNS0_25task_io_service_operationERKSt10error_codem
	.section	.text.startup,"ax",@progbits
	.p2align 4
	.type	_GLOBAL__sub_I_MasterTCPServer.cpp, @function
_GLOBAL__sub_I_MasterTCPServer.cpp:
.LFB11230:
	.cfi_startproc
	subq	$8, %rsp
	.cfi_def_cfa_offset 16
	call	_ZN4asio15system_categoryEv@PLT
	movq	_ZGVZN4asio5error18get_netdb_categoryEvE8instance@GOTPCREL(%rip), %rax
	movzbl	(%rax), %eax
	testb	%al, %al
	je	.L2032
.L2009:
	movq	_ZGVZN4asio5error21get_addrinfo_categoryEvE8instance@GOTPCREL(%rip), %rax
	movzbl	(%rax), %eax
	testb	%al, %al
	je	.L2033
.L2012:
	movq	_ZGVZN4asio5error17get_misc_categoryEvE8instance@GOTPCREL(%rip), %rax
	movzbl	(%rax), %eax
	testb	%al, %al
	je	.L2034
.L2015:
	movl	$5000, %edi
	call	_ZN7openpal12TimeDuration12MillisecondsEl@PLT
	movq	_ZGVN4asio6detail10call_stackINS0_15task_io_serviceENS0_27task_io_service_thread_infoEE4top_E@GOTPCREL(%rip), %rax
	cmpb	$0, (%rax)
	jne	.L2017
	movb	$1, (%rax)
.L2017:
	movq	_ZGVN4asio6detail12service_baseINS0_13epoll_reactorEE2idE@GOTPCREL(%rip), %rax
	cmpb	$0, (%rax)
	jne	.L2018
	movb	$1, (%rax)
.L2018:
	movq	_ZGVN4asio6detail12service_baseINS0_15task_io_serviceEE2idE@GOTPCREL(%rip), %rax
	cmpb	$0, (%rax)
	jne	.L2019
	movb	$1, (%rax)
.L2019:
	movq	_ZGVN4asio6detail10call_stackINS0_14strand_service11strand_implEhE4top_E@GOTPCREL(%rip), %rax
	cmpb	$0, (%rax)
	je	.L2035
.L2020:
	movq	_ZGVN4asio6detail12service_baseINS0_14strand_serviceEE2idE@GOTPCREL(%rip), %rax
	cmpb	$0, (%rax)
	jne	.L2007
	movb	$1, (%rax)
.L2007:
	addq	$8, %rsp
	.cfi_remember_state
	.cfi_def_cfa_offset 8
	ret
.L2032:
	.cfi_restore_state
	movq	_ZGVZN4asio5error18get_netdb_categoryEvE8instance@GOTPCREL(%rip), %rdi
	call	__cxa_guard_acquire@PLT
	testl	%eax, %eax
	je	.L2009
	movq	_ZZN4asio5error18get_netdb_categoryEvE8instance@GOTPCREL(%rip), %rsi
	movq	_ZN4asio5error6detail14netdb_categoryD1Ev@GOTPCREL(%rip), %rdi
	leaq	__dso_handle(%rip), %rdx
	call	__cxa_atexit@PLT
	movq	_ZGVZN4asio5error18get_netdb_categoryEvE8instance@GOTPCREL(%rip), %rdi
	call	__cxa_guard_release@PLT
	jmp	.L2009
.L2035:
	movb	$1, (%rax)
	jmp	.L2020
.L2034:
	movq	_ZGVZN4asio5error17get_misc_categoryEvE8instance@GOTPCREL(%rip), %rdi
	call	__cxa_guard_acquire@PLT
	testl	%eax, %eax
	je	.L2015
	movq	_ZZN4asio5error17get_misc_categoryEvE8instance@GOTPCREL(%rip), %rsi
	movq	_ZN4asio5error6detail13misc_categoryD1Ev@GOTPCREL(%rip), %rdi
	leaq	__dso_handle(%rip), %rdx
	call	__cxa_atexit@PLT
	movq	_ZGVZN4asio5error17get_misc_categoryEvE8instance@GOTPCREL(%rip), %rdi
	call	__cxa_guard_release@PLT
	jmp	.L2015
.L2033:
	movq	_ZGVZN4asio5error21get_addrinfo_categoryEvE8instance@GOTPCREL(%rip), %rdi
	call	__cxa_guard_acquire@PLT
	testl	%eax, %eax
	je	.L2012
	movq	_ZZN4asio5error21get_addrinfo_categoryEvE8instance@GOTPCREL(%rip), %rsi
	movq	_ZN4asio5error6detail17addrinfo_categoryD1Ev@GOTPCREL(%rip), %rdi
	leaq	__dso_handle(%rip), %rdx
	call	__cxa_atexit@PLT
	movq	_ZGVZN4asio5error21get_addrinfo_categoryEvE8instance@GOTPCREL(%rip), %rdi
	call	__cxa_guard_release@PLT
	jmp	.L2012
	.cfi_endproc
.LFE11230:
	.size	_GLOBAL__sub_I_MasterTCPServer.cpp, .-_GLOBAL__sub_I_MasterTCPServer.cpp
	.section	.init_array,"aw"
	.align 8
	.quad	_GLOBAL__sub_I_MasterTCPServer.cpp
	.weak	_ZTSSt11_Mutex_baseILN9__gnu_cxx12_Lock_policyE2EE
	.section	.rodata._ZTSSt11_Mutex_baseILN9__gnu_cxx12_Lock_policyE2EE,"aG",@progbits,_ZTSSt11_Mutex_baseILN9__gnu_cxx12_Lock_policyE2EE,comdat
	.align 32
	.type	_ZTSSt11_Mutex_baseILN9__gnu_cxx12_Lock_policyE2EE, @object
	.size	_ZTSSt11_Mutex_baseILN9__gnu_cxx12_Lock_policyE2EE, 47
_ZTSSt11_Mutex_baseILN9__gnu_cxx12_Lock_policyE2EE:
	.string	"St11_Mutex_baseILN9__gnu_cxx12_Lock_policyE2EE"
	.weak	_ZTISt11_Mutex_baseILN9__gnu_cxx12_Lock_policyE2EE
	.section	.data.rel.ro._ZTISt11_Mutex_baseILN9__gnu_cxx12_Lock_policyE2EE,"awG",@progbits,_ZTISt11_Mutex_baseILN9__gnu_cxx12_Lock_policyE2EE,comdat
	.align 8
	.type	_ZTISt11_Mutex_baseILN9__gnu_cxx12_Lock_policyE2EE, @object
	.size	_ZTISt11_Mutex_baseILN9__gnu_cxx12_Lock_policyE2EE, 16
_ZTISt11_Mutex_baseILN9__gnu_cxx12_Lock_policyE2EE:
	.quad	_ZTVN10__cxxabiv117__class_type_infoE+16
	.quad	_ZTSSt11_Mutex_baseILN9__gnu_cxx12_Lock_policyE2EE
	.weak	_ZTSN7openpal10UncopyableE
	.section	.rodata._ZTSN7openpal10UncopyableE,"aG",@progbits,_ZTSN7openpal10UncopyableE,comdat
	.align 16
	.type	_ZTSN7openpal10UncopyableE, @object
	.size	_ZTSN7openpal10UncopyableE, 23
_ZTSN7openpal10UncopyableE:
	.string	"N7openpal10UncopyableE"
	.weak	_ZTIN7openpal10UncopyableE
	.section	.data.rel.ro._ZTIN7openpal10UncopyableE,"awG",@progbits,_ZTIN7openpal10UncopyableE,comdat
	.align 8
	.type	_ZTIN7openpal10UncopyableE, @object
	.size	_ZTIN7openpal10UncopyableE, 16
_ZTIN7openpal10UncopyableE:
	.quad	_ZTVN10__cxxabiv117__class_type_infoE+16
	.quad	_ZTSN7openpal10UncopyableE
	.weak	_ZTSSt23enable_shared_from_thisIN7asiopal13IAsyncChannelEE
	.section	.rodata._ZTSSt23enable_shared_from_thisIN7asiopal13IAsyncChannelEE,"aG",@progbits,_ZTSSt23enable_shared_from_thisIN7asiopal13IAsyncChannelEE,comdat
	.align 32
	.type	_ZTSSt23enable_shared_from_thisIN7asiopal13IAsyncChannelEE, @object
	.size	_ZTSSt23enable_shared_from_thisIN7asiopal13IAsyncChannelEE, 55
_ZTSSt23enable_shared_from_thisIN7asiopal13IAsyncChannelEE:
	.string	"St23enable_shared_from_thisIN7asiopal13IAsyncChannelEE"
	.weak	_ZTISt23enable_shared_from_thisIN7asiopal13IAsyncChannelEE
	.section	.data.rel.ro._ZTISt23enable_shared_from_thisIN7asiopal13IAsyncChannelEE,"awG",@progbits,_ZTISt23enable_shared_from_thisIN7asiopal13IAsyncChannelEE,comdat
	.align 8
	.type	_ZTISt23enable_shared_from_thisIN7asiopal13IAsyncChannelEE, @object
	.size	_ZTISt23enable_shared_from_thisIN7asiopal13IAsyncChannelEE, 16
_ZTISt23enable_shared_from_thisIN7asiopal13IAsyncChannelEE:
	.quad	_ZTVN10__cxxabiv117__class_type_infoE+16
	.quad	_ZTSSt23enable_shared_from_thisIN7asiopal13IAsyncChannelEE
	.weak	_ZTSSt19_Sp_make_shared_tag
	.section	.rodata._ZTSSt19_Sp_make_shared_tag,"aG",@progbits,_ZTSSt19_Sp_make_shared_tag,comdat
	.align 16
	.type	_ZTSSt19_Sp_make_shared_tag, @object
	.size	_ZTSSt19_Sp_make_shared_tag, 24
_ZTSSt19_Sp_make_shared_tag:
	.string	"St19_Sp_make_shared_tag"
	.weak	_ZGVN4asio6detail12service_baseINS0_14strand_serviceEE2idE
	.section	.bss._ZGVN4asio6detail12service_baseINS0_14strand_serviceEE2idE,"awG",@nobits,_ZGVN4asio6detail12service_baseINS0_14strand_serviceEE2idE,comdat
	.align 8
	.type	_ZGVN4asio6detail12service_baseINS0_14strand_serviceEE2idE, @gnu_unique_object
	.size	_ZGVN4asio6detail12service_baseINS0_14strand_serviceEE2idE, 8
_ZGVN4asio6detail12service_baseINS0_14strand_serviceEE2idE:
	.zero	8
	.weak	_ZGVN4asio6detail10call_stackINS0_14strand_service11strand_implEhE4top_E
	.section	.bss._ZGVN4asio6detail10call_stackINS0_14strand_service11strand_implEhE4top_E,"awG",@nobits,_ZGVN4asio6detail10call_stackINS0_14strand_service11strand_implEhE4top_E,comdat
	.align 8
	.type	_ZGVN4asio6detail10call_stackINS0_14strand_service11strand_implEhE4top_E, @gnu_unique_object
	.size	_ZGVN4asio6detail10call_stackINS0_14strand_service11strand_implEhE4top_E, 8
_ZGVN4asio6detail10call_stackINS0_14strand_service11strand_implEhE4top_E:
	.zero	8
	.weak	_ZGVN4asio6detail12service_baseINS0_15task_io_serviceEE2idE
	.section	.bss._ZGVN4asio6detail12service_baseINS0_15task_io_serviceEE2idE,"awG",@nobits,_ZGVN4asio6detail12service_baseINS0_15task_io_serviceEE2idE,comdat
	.align 8
	.type	_ZGVN4asio6detail12service_baseINS0_15task_io_serviceEE2idE, @gnu_unique_object
	.size	_ZGVN4asio6detail12service_baseINS0_15task_io_serviceEE2idE, 8
_ZGVN4asio6detail12service_baseINS0_15task_io_serviceEE2idE:
	.zero	8
	.weak	_ZGVN4asio6detail12service_baseINS0_13epoll_reactorEE2idE
	.section	.bss._ZGVN4asio6detail12service_baseINS0_13epoll_reactorEE2idE,"awG",@nobits,_ZGVN4asio6detail12service_baseINS0_13epoll_reactorEE2idE,comdat
	.align 8
	.type	_ZGVN4asio6detail12service_baseINS0_13epoll_reactorEE2idE, @gnu_unique_object
	.size	_ZGVN4asio6detail12service_baseINS0_13epoll_reactorEE2idE, 8
_ZGVN4asio6detail12service_baseINS0_13epoll_reactorEE2idE:
	.zero	8
	.weak	_ZGVN4asio6detail10call_stackINS0_15task_io_serviceENS0_27task_io_service_thread_infoEE4top_E
	.section	.bss._ZGVN4asio6detail10call_stackINS0_15task_io_serviceENS0_27task_io_service_thread_infoEE4top_E,"awG",@nobits,_ZGVN4asio6detail10call_stackINS0_15task_io_serviceENS0_27task_io_service_thread_infoEE4top_E,comdat
	.align 8
	.type	_ZGVN4asio6detail10call_stackINS0_15task_io_serviceENS0_27task_io_service_thread_infoEE4top_E, @gnu_unique_object
	.size	_ZGVN4asio6detail10call_stackINS0_15task_io_serviceENS0_27task_io_service_thread_infoEE4top_E, 8
_ZGVN4asio6detail10call_stackINS0_15task_io_serviceENS0_27task_io_service_thread_infoEE4top_E:
	.zero	8
	.weak	_ZTSSt16_Sp_counted_baseILN9__gnu_cxx12_Lock_policyE2EE
	.section	.rodata._ZTSSt16_Sp_counted_baseILN9__gnu_cxx12_Lock_policyE2EE,"aG",@progbits,_ZTSSt16_Sp_counted_baseILN9__gnu_cxx12_Lock_policyE2EE,comdat
	.align 32
	.type	_ZTSSt16_Sp_counted_baseILN9__gnu_cxx12_Lock_policyE2EE, @object
	.size	_ZTSSt16_Sp_counted_baseILN9__gnu_cxx12_Lock_policyE2EE, 52
_ZTSSt16_Sp_counted_baseILN9__gnu_cxx12_Lock_policyE2EE:
	.string	"St16_Sp_counted_baseILN9__gnu_cxx12_Lock_policyE2EE"
	.weak	_ZTISt16_Sp_counted_baseILN9__gnu_cxx12_Lock_policyE2EE
	.section	.data.rel.ro._ZTISt16_Sp_counted_baseILN9__gnu_cxx12_Lock_policyE2EE,"awG",@progbits,_ZTISt16_Sp_counted_baseILN9__gnu_cxx12_Lock_policyE2EE,comdat
	.align 8
	.type	_ZTISt16_Sp_counted_baseILN9__gnu_cxx12_Lock_policyE2EE, @object
	.size	_ZTISt16_Sp_counted_baseILN9__gnu_cxx12_Lock_policyE2EE, 24
_ZTISt16_Sp_counted_baseILN9__gnu_cxx12_Lock_policyE2EE:
	.quad	_ZTVN10__cxxabiv120__si_class_type_infoE+16
	.quad	_ZTSSt16_Sp_counted_baseILN9__gnu_cxx12_Lock_policyE2EE
	.quad	_ZTISt11_Mutex_baseILN9__gnu_cxx12_Lock_policyE2EE
	.weak	_ZTSN4asio6detail15system_categoryE
	.section	.rodata._ZTSN4asio6detail15system_categoryE,"aG",@progbits,_ZTSN4asio6detail15system_categoryE,comdat
	.align 32
	.type	_ZTSN4asio6detail15system_categoryE, @object
	.size	_ZTSN4asio6detail15system_categoryE, 32
_ZTSN4asio6detail15system_categoryE:
	.string	"N4asio6detail15system_categoryE"
	.weak	_ZTIN4asio6detail15system_categoryE
	.section	.data.rel.ro._ZTIN4asio6detail15system_categoryE,"awG",@progbits,_ZTIN4asio6detail15system_categoryE,comdat
	.align 8
	.type	_ZTIN4asio6detail15system_categoryE, @object
	.size	_ZTIN4asio6detail15system_categoryE, 24
_ZTIN4asio6detail15system_categoryE:
	.quad	_ZTVN10__cxxabiv120__si_class_type_infoE+16
	.quad	_ZTSN4asio6detail15system_categoryE
	.quad	_ZTINSt3_V214error_categoryE
	.weak	_ZTSN4asio5error6detail14netdb_categoryE
	.section	.rodata._ZTSN4asio5error6detail14netdb_categoryE,"aG",@progbits,_ZTSN4asio5error6detail14netdb_categoryE,comdat
	.align 32
	.type	_ZTSN4asio5error6detail14netdb_categoryE, @object
	.size	_ZTSN4asio5error6detail14netdb_categoryE, 37
_ZTSN4asio5error6detail14netdb_categoryE:
	.string	"N4asio5error6detail14netdb_categoryE"
	.weak	_ZTIN4asio5error6detail14netdb_categoryE
	.section	.data.rel.ro._ZTIN4asio5error6detail14netdb_categoryE,"awG",@progbits,_ZTIN4asio5error6detail14netdb_categoryE,comdat
	.align 8
	.type	_ZTIN4asio5error6detail14netdb_categoryE, @object
	.size	_ZTIN4asio5error6detail14netdb_categoryE, 24
_ZTIN4asio5error6detail14netdb_categoryE:
	.quad	_ZTVN10__cxxabiv120__si_class_type_infoE+16
	.quad	_ZTSN4asio5error6detail14netdb_categoryE
	.quad	_ZTINSt3_V214error_categoryE
	.weak	_ZTSN4asio5error6detail17addrinfo_categoryE
	.section	.rodata._ZTSN4asio5error6detail17addrinfo_categoryE,"aG",@progbits,_ZTSN4asio5error6detail17addrinfo_categoryE,comdat
	.align 32
	.type	_ZTSN4asio5error6detail17addrinfo_categoryE, @object
	.size	_ZTSN4asio5error6detail17addrinfo_categoryE, 40
_ZTSN4asio5error6detail17addrinfo_categoryE:
	.string	"N4asio5error6detail17addrinfo_categoryE"
	.weak	_ZTIN4asio5error6detail17addrinfo_categoryE
	.section	.data.rel.ro._ZTIN4asio5error6detail17addrinfo_categoryE,"awG",@progbits,_ZTIN4asio5error6detail17addrinfo_categoryE,comdat
	.align 8
	.type	_ZTIN4asio5error6detail17addrinfo_categoryE, @object
	.size	_ZTIN4asio5error6detail17addrinfo_categoryE, 24
_ZTIN4asio5error6detail17addrinfo_categoryE:
	.quad	_ZTVN10__cxxabiv120__si_class_type_infoE+16
	.quad	_ZTSN4asio5error6detail17addrinfo_categoryE
	.quad	_ZTINSt3_V214error_categoryE
	.weak	_ZTSN4asio5error6detail13misc_categoryE
	.section	.rodata._ZTSN4asio5error6detail13misc_categoryE,"aG",@progbits,_ZTSN4asio5error6detail13misc_categoryE,comdat
	.align 32
	.type	_ZTSN4asio5error6detail13misc_categoryE, @object
	.size	_ZTSN4asio5error6detail13misc_categoryE, 36
_ZTSN4asio5error6detail13misc_categoryE:
	.string	"N4asio5error6detail13misc_categoryE"
	.weak	_ZTIN4asio5error6detail13misc_categoryE
	.section	.data.rel.ro._ZTIN4asio5error6detail13misc_categoryE,"awG",@progbits,_ZTIN4asio5error6detail13misc_categoryE,comdat
	.align 8
	.type	_ZTIN4asio5error6detail13misc_categoryE, @object
	.size	_ZTIN4asio5error6detail13misc_categoryE, 24
_ZTIN4asio5error6detail13misc_categoryE:
	.quad	_ZTVN10__cxxabiv120__si_class_type_infoE+16
	.quad	_ZTSN4asio5error6detail13misc_categoryE
	.quad	_ZTINSt3_V214error_categoryE
	.weak	_ZTSN8asiodnp315MasterTCPServerE
	.section	.rodata._ZTSN8asiodnp315MasterTCPServerE,"aG",@progbits,_ZTSN8asiodnp315MasterTCPServerE,comdat
	.align 16
	.type	_ZTSN8asiodnp315MasterTCPServerE, @object
	.size	_ZTSN8asiodnp315MasterTCPServerE, 29
_ZTSN8asiodnp315MasterTCPServerE:
	.string	"N8asiodnp315MasterTCPServerE"
	.weak	_ZTIN8asiodnp315MasterTCPServerE
	.section	.data.rel.ro._ZTIN8asiodnp315MasterTCPServerE,"awG",@progbits,_ZTIN8asiodnp315MasterTCPServerE,comdat
	.align 8
	.type	_ZTIN8asiodnp315MasterTCPServerE, @object
	.size	_ZTIN8asiodnp315MasterTCPServerE, 24
_ZTIN8asiodnp315MasterTCPServerE:
	.quad	_ZTVN10__cxxabiv120__si_class_type_infoE+16
	.quad	_ZTSN8asiodnp315MasterTCPServerE
	.quad	_ZTIN7asiopal9TCPServerE
	.weak	_ZTSN7asiopal13IAsyncChannelE
	.section	.rodata._ZTSN7asiopal13IAsyncChannelE,"aG",@progbits,_ZTSN7asiopal13IAsyncChannelE,comdat
	.align 16
	.type	_ZTSN7asiopal13IAsyncChannelE, @object
	.size	_ZTSN7asiopal13IAsyncChannelE, 26
_ZTSN7asiopal13IAsyncChannelE:
	.string	"N7asiopal13IAsyncChannelE"
	.weak	_ZTIN7asiopal13IAsyncChannelE
	.section	.data.rel.ro._ZTIN7asiopal13IAsyncChannelE,"awG",@progbits,_ZTIN7asiopal13IAsyncChannelE,comdat
	.align 8
	.type	_ZTIN7asiopal13IAsyncChannelE, @object
	.size	_ZTIN7asiopal13IAsyncChannelE, 56
_ZTIN7asiopal13IAsyncChannelE:
	.quad	_ZTVN10__cxxabiv121__vmi_class_type_infoE+16
	.quad	_ZTSN7asiopal13IAsyncChannelE
	.long	0
	.long	2
	.quad	_ZTISt23enable_shared_from_thisIN7asiopal13IAsyncChannelEE
	.quad	2050
	.quad	_ZTIN7openpal10UncopyableE
	.quad	0
	.weak	_ZTSSt23_Sp_counted_ptr_inplaceIN7openpal6Logger8SettingsESaIvELN9__gnu_cxx12_Lock_policyE2EE
	.section	.rodata._ZTSSt23_Sp_counted_ptr_inplaceIN7openpal6Logger8SettingsESaIvELN9__gnu_cxx12_Lock_policyE2EE,"aG",@progbits,_ZTSSt23_Sp_counted_ptr_inplaceIN7openpal6Logger8SettingsESaIvELN9__gnu_cxx12_Lock_policyE2EE,comdat
	.align 32
	.type	_ZTSSt23_Sp_counted_ptr_inplaceIN7openpal6Logger8SettingsESaIvELN9__gnu_cxx12_Lock_policyE2EE, @object
	.size	_ZTSSt23_Sp_counted_ptr_inplaceIN7openpal6Logger8SettingsESaIvELN9__gnu_cxx12_Lock_policyE2EE, 90
_ZTSSt23_Sp_counted_ptr_inplaceIN7openpal6Logger8SettingsESaIvELN9__gnu_cxx12_Lock_policyE2EE:
	.string	"St23_Sp_counted_ptr_inplaceIN7openpal6Logger8SettingsESaIvELN9__gnu_cxx12_Lock_policyE2EE"
	.weak	_ZTISt23_Sp_counted_ptr_inplaceIN7openpal6Logger8SettingsESaIvELN9__gnu_cxx12_Lock_policyE2EE
	.section	.data.rel.ro._ZTISt23_Sp_counted_ptr_inplaceIN7openpal6Logger8SettingsESaIvELN9__gnu_cxx12_Lock_policyE2EE,"awG",@progbits,_ZTISt23_Sp_counted_ptr_inplaceIN7openpal6Logger8SettingsESaIvELN9__gnu_cxx12_Lock_policyE2EE,comdat
	.align 8
	.type	_ZTISt23_Sp_counted_ptr_inplaceIN7openpal6Logger8SettingsESaIvELN9__gnu_cxx12_Lock_policyE2EE, @object
	.size	_ZTISt23_Sp_counted_ptr_inplaceIN7openpal6Logger8SettingsESaIvELN9__gnu_cxx12_Lock_policyE2EE, 24
_ZTISt23_Sp_counted_ptr_inplaceIN7openpal6Logger8SettingsESaIvELN9__gnu_cxx12_Lock_policyE2EE:
	.quad	_ZTVN10__cxxabiv120__si_class_type_infoE+16
	.quad	_ZTSSt23_Sp_counted_ptr_inplaceIN7openpal6Logger8SettingsESaIvELN9__gnu_cxx12_Lock_policyE2EE
	.quad	_ZTISt16_Sp_counted_baseILN9__gnu_cxx12_Lock_policyE2EE
	.weak	_ZTSSt23_Sp_counted_ptr_inplaceIN7asiopal8ExecutorESaIvELN9__gnu_cxx12_Lock_policyE2EE
	.section	.rodata._ZTSSt23_Sp_counted_ptr_inplaceIN7asiopal8ExecutorESaIvELN9__gnu_cxx12_Lock_policyE2EE,"aG",@progbits,_ZTSSt23_Sp_counted_ptr_inplaceIN7asiopal8ExecutorESaIvELN9__gnu_cxx12_Lock_policyE2EE,comdat
	.align 32
	.type	_ZTSSt23_Sp_counted_ptr_inplaceIN7asiopal8ExecutorESaIvELN9__gnu_cxx12_Lock_policyE2EE, @object
	.size	_ZTSSt23_Sp_counted_ptr_inplaceIN7asiopal8ExecutorESaIvELN9__gnu_cxx12_Lock_policyE2EE, 83
_ZTSSt23_Sp_counted_ptr_inplaceIN7asiopal8ExecutorESaIvELN9__gnu_cxx12_Lock_policyE2EE:
	.string	"St23_Sp_counted_ptr_inplaceIN7asiopal8ExecutorESaIvELN9__gnu_cxx12_Lock_policyE2EE"
	.weak	_ZTISt23_Sp_counted_ptr_inplaceIN7asiopal8ExecutorESaIvELN9__gnu_cxx12_Lock_policyE2EE
	.section	.data.rel.ro._ZTISt23_Sp_counted_ptr_inplaceIN7asiopal8ExecutorESaIvELN9__gnu_cxx12_Lock_policyE2EE,"awG",@progbits,_ZTISt23_Sp_counted_ptr_inplaceIN7asiopal8ExecutorESaIvELN9__gnu_cxx12_Lock_policyE2EE,comdat
	.align 8
	.type	_ZTISt23_Sp_counted_ptr_inplaceIN7asiopal8ExecutorESaIvELN9__gnu_cxx12_Lock_policyE2EE, @object
	.size	_ZTISt23_Sp_counted_ptr_inplaceIN7asiopal8ExecutorESaIvELN9__gnu_cxx12_Lock_policyE2EE, 24
_ZTISt23_Sp_counted_ptr_inplaceIN7asiopal8ExecutorESaIvELN9__gnu_cxx12_Lock_policyE2EE:
	.quad	_ZTVN10__cxxabiv120__si_class_type_infoE+16
	.quad	_ZTSSt23_Sp_counted_ptr_inplaceIN7asiopal8ExecutorESaIvELN9__gnu_cxx12_Lock_policyE2EE
	.quad	_ZTISt16_Sp_counted_baseILN9__gnu_cxx12_Lock_policyE2EE
	.weak	_ZTSSt23_Sp_counted_ptr_inplaceIN8asiodnp311LinkSessionESaIvELN9__gnu_cxx12_Lock_policyE2EE
	.section	.rodata._ZTSSt23_Sp_counted_ptr_inplaceIN8asiodnp311LinkSessionESaIvELN9__gnu_cxx12_Lock_policyE2EE,"aG",@progbits,_ZTSSt23_Sp_counted_ptr_inplaceIN8asiodnp311LinkSessionESaIvELN9__gnu_cxx12_Lock_policyE2EE,comdat
	.align 32
	.type	_ZTSSt23_Sp_counted_ptr_inplaceIN8asiodnp311LinkSessionESaIvELN9__gnu_cxx12_Lock_policyE2EE, @object
	.size	_ZTSSt23_Sp_counted_ptr_inplaceIN8asiodnp311LinkSessionESaIvELN9__gnu_cxx12_Lock_policyE2EE, 88
_ZTSSt23_Sp_counted_ptr_inplaceIN8asiodnp311LinkSessionESaIvELN9__gnu_cxx12_Lock_policyE2EE:
	.string	"St23_Sp_counted_ptr_inplaceIN8asiodnp311LinkSessionESaIvELN9__gnu_cxx12_Lock_policyE2EE"
	.weak	_ZTISt23_Sp_counted_ptr_inplaceIN8asiodnp311LinkSessionESaIvELN9__gnu_cxx12_Lock_policyE2EE
	.section	.data.rel.ro._ZTISt23_Sp_counted_ptr_inplaceIN8asiodnp311LinkSessionESaIvELN9__gnu_cxx12_Lock_policyE2EE,"awG",@progbits,_ZTISt23_Sp_counted_ptr_inplaceIN8asiodnp311LinkSessionESaIvELN9__gnu_cxx12_Lock_policyE2EE,comdat
	.align 8
	.type	_ZTISt23_Sp_counted_ptr_inplaceIN8asiodnp311LinkSessionESaIvELN9__gnu_cxx12_Lock_policyE2EE, @object
	.size	_ZTISt23_Sp_counted_ptr_inplaceIN8asiodnp311LinkSessionESaIvELN9__gnu_cxx12_Lock_policyE2EE, 24
_ZTISt23_Sp_counted_ptr_inplaceIN8asiodnp311LinkSessionESaIvELN9__gnu_cxx12_Lock_policyE2EE:
	.quad	_ZTVN10__cxxabiv120__si_class_type_infoE+16
	.quad	_ZTSSt23_Sp_counted_ptr_inplaceIN8asiodnp311LinkSessionESaIvELN9__gnu_cxx12_Lock_policyE2EE
	.quad	_ZTISt16_Sp_counted_baseILN9__gnu_cxx12_Lock_policyE2EE
	.weak	_ZTSSt23_Sp_counted_ptr_inplaceIN7asiopal13SocketChannelESaIvELN9__gnu_cxx12_Lock_policyE2EE
	.section	.rodata._ZTSSt23_Sp_counted_ptr_inplaceIN7asiopal13SocketChannelESaIvELN9__gnu_cxx12_Lock_policyE2EE,"aG",@progbits,_ZTSSt23_Sp_counted_ptr_inplaceIN7asiopal13SocketChannelESaIvELN9__gnu_cxx12_Lock_policyE2EE,comdat
	.align 32
	.type	_ZTSSt23_Sp_counted_ptr_inplaceIN7asiopal13SocketChannelESaIvELN9__gnu_cxx12_Lock_policyE2EE, @object
	.size	_ZTSSt23_Sp_counted_ptr_inplaceIN7asiopal13SocketChannelESaIvELN9__gnu_cxx12_Lock_policyE2EE, 89
_ZTSSt23_Sp_counted_ptr_inplaceIN7asiopal13SocketChannelESaIvELN9__gnu_cxx12_Lock_policyE2EE:
	.string	"St23_Sp_counted_ptr_inplaceIN7asiopal13SocketChannelESaIvELN9__gnu_cxx12_Lock_policyE2EE"
	.weak	_ZTISt23_Sp_counted_ptr_inplaceIN7asiopal13SocketChannelESaIvELN9__gnu_cxx12_Lock_policyE2EE
	.section	.data.rel.ro._ZTISt23_Sp_counted_ptr_inplaceIN7asiopal13SocketChannelESaIvELN9__gnu_cxx12_Lock_policyE2EE,"awG",@progbits,_ZTISt23_Sp_counted_ptr_inplaceIN7asiopal13SocketChannelESaIvELN9__gnu_cxx12_Lock_policyE2EE,comdat
	.align 8
	.type	_ZTISt23_Sp_counted_ptr_inplaceIN7asiopal13SocketChannelESaIvELN9__gnu_cxx12_Lock_policyE2EE, @object
	.size	_ZTISt23_Sp_counted_ptr_inplaceIN7asiopal13SocketChannelESaIvELN9__gnu_cxx12_Lock_policyE2EE, 24
_ZTISt23_Sp_counted_ptr_inplaceIN7asiopal13SocketChannelESaIvELN9__gnu_cxx12_Lock_policyE2EE:
	.quad	_ZTVN10__cxxabiv120__si_class_type_infoE+16
	.quad	_ZTSSt23_Sp_counted_ptr_inplaceIN7asiopal13SocketChannelESaIvELN9__gnu_cxx12_Lock_policyE2EE
	.quad	_ZTISt16_Sp_counted_baseILN9__gnu_cxx12_Lock_policyE2EE
	.weak	_ZTVN4asio6detail15system_categoryE
	.section	.data.rel.ro._ZTVN4asio6detail15system_categoryE,"awG",@progbits,_ZTVN4asio6detail15system_categoryE,comdat
	.align 8
	.type	_ZTVN4asio6detail15system_categoryE, @object
	.size	_ZTVN4asio6detail15system_categoryE, 80
_ZTVN4asio6detail15system_categoryE:
	.quad	0
	.quad	_ZTIN4asio6detail15system_categoryE
	.quad	_ZN4asio6detail15system_categoryD1Ev
