	.file	"MasterSessionStack.cpp"
	.text
	.section	.rodata._ZNK4asio6detail15system_category4nameEv.str1.1,"aMS",@progbits,1
.LC0:
	.string	"asio.system"
	.section	.text._ZNK4asio6detail15system_category4nameEv,"axG",@progbits,_ZNK4asio6detail15system_category4nameEv,comdat
	.align 2
	.p2align 4
	.weak	_ZNK4asio6detail15system_category4nameEv
	.type	_ZNK4asio6detail15system_category4nameEv, @function
_ZNK4asio6detail15system_category4nameEv:
.LFB3385:
	.cfi_startproc
	leaq	.LC0(%rip), %rax
	ret
	.cfi_endproc
.LFE3385:
	.size	_ZNK4asio6detail15system_category4nameEv, .-_ZNK4asio6detail15system_category4nameEv
	.section	.rodata._ZNK4asio5error6detail14netdb_category4nameEv.str1.1,"aMS",@progbits,1
.LC1:
	.string	"asio.netdb"
	.section	.text._ZNK4asio5error6detail14netdb_category4nameEv,"axG",@progbits,_ZNK4asio5error6detail14netdb_category4nameEv,comdat
	.align 2
	.p2align 4
	.weak	_ZNK4asio5error6detail14netdb_category4nameEv
	.type	_ZNK4asio5error6detail14netdb_category4nameEv, @function
_ZNK4asio5error6detail14netdb_category4nameEv:
.LFB3429:
	.cfi_startproc
	leaq	.LC1(%rip), %rax
	ret
	.cfi_endproc
.LFE3429:
	.size	_ZNK4asio5error6detail14netdb_category4nameEv, .-_ZNK4asio5error6detail14netdb_category4nameEv
	.section	.rodata._ZNK4asio5error6detail17addrinfo_category4nameEv.str1.1,"aMS",@progbits,1
.LC2:
	.string	"asio.addrinfo"
	.section	.text._ZNK4asio5error6detail17addrinfo_category4nameEv,"axG",@progbits,_ZNK4asio5error6detail17addrinfo_category4nameEv,comdat
	.align 2
	.p2align 4
	.weak	_ZNK4asio5error6detail17addrinfo_category4nameEv
	.type	_ZNK4asio5error6detail17addrinfo_category4nameEv, @function
_ZNK4asio5error6detail17addrinfo_category4nameEv:
.LFB3439:
	.cfi_startproc
	leaq	.LC2(%rip), %rax
	ret
	.cfi_endproc
.LFE3439:
	.size	_ZNK4asio5error6detail17addrinfo_category4nameEv, .-_ZNK4asio5error6detail17addrinfo_category4nameEv
	.section	.rodata._ZNK4asio5error6detail13misc_category4nameEv.str1.1,"aMS",@progbits,1
.LC3:
	.string	"asio.misc"
	.section	.text._ZNK4asio5error6detail13misc_category4nameEv,"axG",@progbits,_ZNK4asio5error6detail13misc_category4nameEv,comdat
	.align 2
	.p2align 4
	.weak	_ZNK4asio5error6detail13misc_category4nameEv
	.type	_ZNK4asio5error6detail13misc_category4nameEv, @function
_ZNK4asio5error6detail13misc_category4nameEv:
.LFB3449:
	.cfi_startproc
	leaq	.LC3(%rip), %rax
	ret
	.cfi_endproc
.LFE3449:
	.size	_ZNK4asio5error6detail13misc_category4nameEv, .-_ZNK4asio5error6detail13misc_category4nameEv
	.section	.text._ZNSt13__future_base13_State_baseV217_M_complete_asyncEv,"axG",@progbits,_ZNSt13__future_base13_State_baseV217_M_complete_asyncEv,comdat
	.align 2
	.p2align 4
	.weak	_ZNSt13__future_base13_State_baseV217_M_complete_asyncEv
	.type	_ZNSt13__future_base13_State_baseV217_M_complete_asyncEv, @function
_ZNSt13__future_base13_State_baseV217_M_complete_asyncEv:
.LFB7506:
	.cfi_startproc
	ret
	.cfi_endproc
.LFE7506:
	.size	_ZNSt13__future_base13_State_baseV217_M_complete_asyncEv, .-_ZNSt13__future_base13_State_baseV217_M_complete_asyncEv
	.section	.text._ZNKSt13__future_base13_State_baseV221_M_is_deferred_futureEv,"axG",@progbits,_ZNKSt13__future_base13_State_baseV221_M_is_deferred_futureEv,comdat
	.align 2
	.p2align 4
	.weak	_ZNKSt13__future_base13_State_baseV221_M_is_deferred_futureEv
	.type	_ZNKSt13__future_base13_State_baseV221_M_is_deferred_futureEv, @function
_ZNKSt13__future_base13_State_baseV221_M_is_deferred_futureEv:
.LFB7507:
	.cfi_startproc
	xorl	%eax, %eax
	ret
	.cfi_endproc
.LFE7507:
	.size	_ZNKSt13__future_base13_State_baseV221_M_is_deferred_futureEv, .-_ZNKSt13__future_base13_State_baseV221_M_is_deferred_futureEv
	.section	.text._ZZNSt9once_flag18_Prepare_executionC4IZSt9call_onceIMNSt13__future_base13_State_baseV2EFvPSt8functionIFSt10unique_ptrINS3_12_Result_baseENS7_8_DeleterEEvEEPbEJPS4_SC_SD_EEvRS_OT_DpOT0_EUlvE_EERSI_ENUlvE_4_FUNEv,"axG",@progbits,_ZZNSt9once_flag18_Prepare_executionC4IZSt9call_onceIMNSt13__future_base13_State_baseV2EFvPSt8functionIFSt10unique_ptrINS3_12_Result_baseENS7_8_DeleterEEvEEPbEJPS4_SC_SD_EEvRS_OT_DpOT0_EUlvE_EERSI_ENUlvE_4_FUNEv,comdat
	.p2align 4
	.weak	_ZZNSt9once_flag18_Prepare_executionC4IZSt9call_onceIMNSt13__future_base13_State_baseV2EFvPSt8functionIFSt10unique_ptrINS3_12_Result_baseENS7_8_DeleterEEvEEPbEJPS4_SC_SD_EEvRS_OT_DpOT0_EUlvE_EERSI_ENUlvE_4_FUNEv
	.type	_ZZNSt9once_flag18_Prepare_executionC4IZSt9call_onceIMNSt13__future_base13_State_baseV2EFvPSt8functionIFSt10unique_ptrINS3_12_Result_baseENS7_8_DeleterEEvEEPbEJPS4_SC_SD_EEvRS_OT_DpOT0_EUlvE_EERSI_ENUlvE_4_FUNEv, @function
_ZZNSt9once_flag18_Prepare_executionC4IZSt9call_onceIMNSt13__future_base13_State_baseV2EFvPSt8functionIFSt10unique_ptrINS3_12_Result_baseENS7_8_DeleterEEvEEPbEJPS4_SC_SD_EEvRS_OT_DpOT0_EUlvE_EERSI_ENUlvE_4_FUNEv:
.LFB9607:
	.cfi_startproc
	subq	$8, %rsp
	.cfi_def_cfa_offset 16
	data16	leaq	_ZSt15__once_callable@tlsgd(%rip), %rdi
	.value	0x6666
	rex64
	call	__tls_get_addr@PLT
	movq	(%rax), %rax
	movq	(%rax), %rdx
	movq	24(%rax), %r8
	movq	16(%rax), %rsi
	movq	8(%rax), %rax
	movq	(%rdx), %rcx
	movq	8(%rdx), %rdi
	addq	(%rax), %rdi
	testb	$1, %cl
	je	.L9
	movq	(%rdi), %rax
	movq	-1(%rax,%rcx), %rcx
.L9:
	movq	(%r8), %rdx
	movq	(%rsi), %rsi
	addq	$8, %rsp
	.cfi_def_cfa_offset 8
	jmp	*%rcx
	.cfi_endproc
.LFE9607:
	.size	_ZZNSt9once_flag18_Prepare_executionC4IZSt9call_onceIMNSt13__future_base13_State_baseV2EFvPSt8functionIFSt10unique_ptrINS3_12_Result_baseENS7_8_DeleterEEvEEPbEJPS4_SC_SD_EEvRS_OT_DpOT0_EUlvE_EERSI_ENUlvE_4_FUNEv, .-_ZZNSt9once_flag18_Prepare_executionC4IZSt9call_onceIMNSt13__future_base13_State_baseV2EFvPSt8functionIFSt10unique_ptrINS3_12_Result_baseENS7_8_DeleterEEvEEPbEJPS4_SC_SD_EEvRS_OT_DpOT0_EUlvE_EERSI_ENUlvE_4_FUNEv
	.section	.text._ZNSt15__exception_ptr12__dest_thunkISt12future_errorEEvPv,"axG",@progbits,_ZNSt15__exception_ptr12__dest_thunkISt12future_errorEEvPv,comdat
	.p2align 4
	.weak	_ZNSt15__exception_ptr12__dest_thunkISt12future_errorEEvPv
	.type	_ZNSt15__exception_ptr12__dest_thunkISt12future_errorEEvPv, @function
_ZNSt15__exception_ptr12__dest_thunkISt12future_errorEEvPv:
.LFB9631:
	.cfi_startproc
	movq	(%rdi), %rax
	jmp	*(%rax)
	.cfi_endproc
.LFE9631:
	.size	_ZNSt15__exception_ptr12__dest_thunkISt12future_errorEEvPv, .-_ZNSt15__exception_ptr12__dest_thunkISt12future_errorEEvPv
	.section	.text._ZNSt17_Function_handlerIFSt10unique_ptrINSt13__future_base12_Result_baseENS2_8_DeleterEEvENS1_13_State_baseV27_SetterIN8opendnp315StackStatisticsEOS9_EEE9_M_invokeERKSt9_Any_data,"axG",@progbits,_ZNSt17_Function_handlerIFSt10unique_ptrINSt13__future_base12_Result_baseENS2_8_DeleterEEvENS1_13_State_baseV27_SetterIN8opendnp315StackStatisticsEOS9_EEE9_M_invokeERKSt9_Any_data,comdat
	.p2align 4
	.weak	_ZNSt17_Function_handlerIFSt10unique_ptrINSt13__future_base12_Result_baseENS2_8_DeleterEEvENS1_13_State_baseV27_SetterIN8opendnp315StackStatisticsEOS9_EEE9_M_invokeERKSt9_Any_data
	.type	_ZNSt17_Function_handlerIFSt10unique_ptrINSt13__future_base12_Result_baseENS2_8_DeleterEEvENS1_13_State_baseV27_SetterIN8opendnp315StackStatisticsEOS9_EEE9_M_invokeERKSt9_Any_data, @function
_ZNSt17_Function_handlerIFSt10unique_ptrINSt13__future_base12_Result_baseENS2_8_DeleterEEvENS1_13_State_baseV27_SetterIN8opendnp315StackStatisticsEOS9_EEE9_M_invokeERKSt9_Any_data:
.LFB10747:
	.cfi_startproc
	movq	8(%rsi), %rdx
	movq	(%rsi), %rcx
	movdqu	(%rdx), %xmm0
	movq	16(%rcx), %rax
	movups	%xmm0, 16(%rax)
	movdqu	16(%rdx), %xmm0
	movups	%xmm0, 32(%rax)
	movq	32(%rdx), %rdx
	movb	$1, 56(%rax)
	movq	%rdx, 48(%rax)
	movq	$0, 16(%rcx)
	movq	%rax, (%rdi)
	movq	%rdi, %rax
	ret
	.cfi_endproc
.LFE10747:
	.size	_ZNSt17_Function_handlerIFSt10unique_ptrINSt13__future_base12_Result_baseENS2_8_DeleterEEvENS1_13_State_baseV27_SetterIN8opendnp315StackStatisticsEOS9_EEE9_M_invokeERKSt9_Any_data, .-_ZNSt17_Function_handlerIFSt10unique_ptrINSt13__future_base12_Result_baseENS2_8_DeleterEEvENS1_13_State_baseV27_SetterIN8opendnp315StackStatisticsEOS9_EEE9_M_invokeERKSt9_Any_data
	.section	.text._ZNSt17_Function_handlerIFSt10unique_ptrINSt13__future_base12_Result_baseENS2_8_DeleterEEvENS1_13_State_baseV27_SetterISt10shared_ptrIN8opendnp311IMasterTaskEEOSB_EEE9_M_invokeERKSt9_Any_data,"axG",@progbits,_ZNSt17_Function_handlerIFSt10unique_ptrINSt13__future_base12_Result_baseENS2_8_DeleterEEvENS1_13_State_baseV27_SetterISt10shared_ptrIN8opendnp311IMasterTaskEEOSB_EEE9_M_invokeERKSt9_Any_data,comdat
	.p2align 4
	.weak	_ZNSt17_Function_handlerIFSt10unique_ptrINSt13__future_base12_Result_baseENS2_8_DeleterEEvENS1_13_State_baseV27_SetterISt10shared_ptrIN8opendnp311IMasterTaskEEOSB_EEE9_M_invokeERKSt9_Any_data
	.type	_ZNSt17_Function_handlerIFSt10unique_ptrINSt13__future_base12_Result_baseENS2_8_DeleterEEvENS1_13_State_baseV27_SetterISt10shared_ptrIN8opendnp311IMasterTaskEEOSB_EEE9_M_invokeERKSt9_Any_data, @function
_ZNSt17_Function_handlerIFSt10unique_ptrINSt13__future_base12_Result_baseENS2_8_DeleterEEvENS1_13_State_baseV27_SetterISt10shared_ptrIN8opendnp311IMasterTaskEEOSB_EEE9_M_invokeERKSt9_Any_data:
.LFB10782:
	.cfi_startproc
	movq	(%rsi), %rcx
	movq	8(%rsi), %rdx
	pxor	%xmm0, %xmm0
	movq	16(%rcx), %rax
	movq	(%rdx), %rsi
	movq	$0, 24(%rax)
	movq	%rsi, 16(%rax)
	movq	8(%rdx), %rsi
	movups	%xmm0, (%rdx)
	movq	%rsi, 24(%rax)
	movb	$1, 32(%rax)
	movq	$0, 16(%rcx)
	movq	%rax, (%rdi)
	movq	%rdi, %rax
	ret
	.cfi_endproc
.LFE10782:
	.size	_ZNSt17_Function_handlerIFSt10unique_ptrINSt13__future_base12_Result_baseENS2_8_DeleterEEvENS1_13_State_baseV27_SetterISt10shared_ptrIN8opendnp311IMasterTaskEEOSB_EEE9_M_invokeERKSt9_Any_data, .-_ZNSt17_Function_handlerIFSt10unique_ptrINSt13__future_base12_Result_baseENS2_8_DeleterEEvENS1_13_State_baseV27_SetterISt10shared_ptrIN8opendnp311IMasterTaskEEOSB_EEE9_M_invokeERKSt9_Any_data
	.section	.text._ZNSt13__future_base13_State_baseV2D2Ev,"axG",@progbits,_ZNSt13__future_base13_State_baseV2D5Ev,comdat
	.align 2
	.p2align 4
	.weak	_ZNSt13__future_base13_State_baseV2D2Ev
	.type	_ZNSt13__future_base13_State_baseV2D2Ev, @function
_ZNSt13__future_base13_State_baseV2D2Ev:
.LFB11640:
	.cfi_startproc
	.cfi_personality 0x9b,DW.ref.__gxx_personality_v0
	.cfi_lsda 0x1b,.LLSDA11640
	movq	_ZTVNSt13__future_base13_State_baseV2E@GOTPCREL(%rip), %rax
	addq	$16, %rax
	movq	%rax, (%rdi)
	movq	8(%rdi), %rdi
	testq	%rdi, %rdi
	je	.L23
	subq	$8, %rsp
	.cfi_def_cfa_offset 16
	movq	(%rdi), %rax
	call	*(%rax)
	addq	$8, %rsp
	.cfi_def_cfa_offset 8
	ret
	.p2align 4,,10
	.p2align 3
.L23:
	ret
	.cfi_endproc
.LFE11640:
	.section	.gcc_except_table._ZNSt13__future_base13_State_baseV2D2Ev,"aG",@progbits,_ZNSt13__future_base13_State_baseV2D5Ev,comdat
.LLSDA11640:
	.byte	0xff
	.byte	0xff
	.byte	0x1
	.uleb128 .LLSDACSE11640-.LLSDACSB11640
.LLSDACSB11640:
.LLSDACSE11640:
	.section	.text._ZNSt13__future_base13_State_baseV2D2Ev,"axG",@progbits,_ZNSt13__future_base13_State_baseV2D5Ev,comdat
	.size	_ZNSt13__future_base13_State_baseV2D2Ev, .-_ZNSt13__future_base13_State_baseV2D2Ev
	.weak	_ZNSt13__future_base13_State_baseV2D1Ev
	.set	_ZNSt13__future_base13_State_baseV2D1Ev,_ZNSt13__future_base13_State_baseV2D2Ev
	.section	.text._ZN4asio6detail7tss_ptrINS0_10call_stackINS0_14strand_service11strand_implEhE7contextEED2Ev,"axG",@progbits,_ZN4asio6detail7tss_ptrINS0_10call_stackINS0_14strand_service11strand_implEhE7contextEED5Ev,comdat
	.align 2
	.p2align 4
	.weak	_ZN4asio6detail7tss_ptrINS0_10call_stackINS0_14strand_service11strand_implEhE7contextEED2Ev
	.type	_ZN4asio6detail7tss_ptrINS0_10call_stackINS0_14strand_service11strand_implEhE7contextEED2Ev, @function
_ZN4asio6detail7tss_ptrINS0_10call_stackINS0_14strand_service11strand_implEhE7contextEED2Ev:
.LFB11674:
	.cfi_startproc
	ret
	.cfi_endproc
.LFE11674:
	.size	_ZN4asio6detail7tss_ptrINS0_10call_stackINS0_14strand_service11strand_implEhE7contextEED2Ev, .-_ZN4asio6detail7tss_ptrINS0_10call_stackINS0_14strand_service11strand_implEhE7contextEED2Ev
	.weak	_ZN4asio6detail7tss_ptrINS0_10call_stackINS0_14strand_service11strand_implEhE7contextEED1Ev
	.set	_ZN4asio6detail7tss_ptrINS0_10call_stackINS0_14strand_service11strand_implEhE7contextEED1Ev,_ZN4asio6detail7tss_ptrINS0_10call_stackINS0_14strand_service11strand_implEhE7contextEED2Ev
	.section	.text._ZNSt23_Sp_counted_ptr_inplaceIN8opendnp310CommandSetESaIvELN9__gnu_cxx12_Lock_policyE2EED2Ev,"axG",@progbits,_ZNSt23_Sp_counted_ptr_inplaceIN8opendnp310CommandSetESaIvELN9__gnu_cxx12_Lock_policyE2EED5Ev,comdat
	.align 2
	.p2align 4
	.weak	_ZNSt23_Sp_counted_ptr_inplaceIN8opendnp310CommandSetESaIvELN9__gnu_cxx12_Lock_policyE2EED2Ev
	.type	_ZNSt23_Sp_counted_ptr_inplaceIN8opendnp310CommandSetESaIvELN9__gnu_cxx12_Lock_policyE2EED2Ev, @function
_ZNSt23_Sp_counted_ptr_inplaceIN8opendnp310CommandSetESaIvELN9__gnu_cxx12_Lock_policyE2EED2Ev:
.LFB11680:
	.cfi_startproc
	ret
	.cfi_endproc
.LFE11680:
	.size	_ZNSt23_Sp_counted_ptr_inplaceIN8opendnp310CommandSetESaIvELN9__gnu_cxx12_Lock_policyE2EED2Ev, .-_ZNSt23_Sp_counted_ptr_inplaceIN8opendnp310CommandSetESaIvELN9__gnu_cxx12_Lock_policyE2EED2Ev
	.weak	_ZNSt23_Sp_counted_ptr_inplaceIN8opendnp310CommandSetESaIvELN9__gnu_cxx12_Lock_policyE2EED1Ev
	.set	_ZNSt23_Sp_counted_ptr_inplaceIN8opendnp310CommandSetESaIvELN9__gnu_cxx12_Lock_policyE2EED1Ev,_ZNSt23_Sp_counted_ptr_inplaceIN8opendnp310CommandSetESaIvELN9__gnu_cxx12_Lock_policyE2EED2Ev
	.section	.text._ZNSt23_Sp_counted_ptr_inplaceIN8asiodnp318MasterSessionStackESaIvELN9__gnu_cxx12_Lock_policyE2EED2Ev,"axG",@progbits,_ZNSt23_Sp_counted_ptr_inplaceIN8asiodnp318MasterSessionStackESaIvELN9__gnu_cxx12_Lock_policyE2EED5Ev,comdat
	.align 2
	.p2align 4
	.weak	_ZNSt23_Sp_counted_ptr_inplaceIN8asiodnp318MasterSessionStackESaIvELN9__gnu_cxx12_Lock_policyE2EED2Ev
	.type	_ZNSt23_Sp_counted_ptr_inplaceIN8asiodnp318MasterSessionStackESaIvELN9__gnu_cxx12_Lock_policyE2EED2Ev, @function
_ZNSt23_Sp_counted_ptr_inplaceIN8asiodnp318MasterSessionStackESaIvELN9__gnu_cxx12_Lock_policyE2EED2Ev:
.LFB11687:
	.cfi_startproc
	ret
	.cfi_endproc
.LFE11687:
	.size	_ZNSt23_Sp_counted_ptr_inplaceIN8asiodnp318MasterSessionStackESaIvELN9__gnu_cxx12_Lock_policyE2EED2Ev, .-_ZNSt23_Sp_counted_ptr_inplaceIN8asiodnp318MasterSessionStackESaIvELN9__gnu_cxx12_Lock_policyE2EED2Ev
	.weak	_ZNSt23_Sp_counted_ptr_inplaceIN8asiodnp318MasterSessionStackESaIvELN9__gnu_cxx12_Lock_policyE2EED1Ev
	.set	_ZNSt23_Sp_counted_ptr_inplaceIN8asiodnp318MasterSessionStackESaIvELN9__gnu_cxx12_Lock_policyE2EED1Ev,_ZNSt23_Sp_counted_ptr_inplaceIN8asiodnp318MasterSessionStackESaIvELN9__gnu_cxx12_Lock_policyE2EED2Ev
	.section	.text._ZNSt23_Sp_counted_ptr_inplaceINSt13__future_base13_State_baseV2ESaIvELN9__gnu_cxx12_Lock_policyE2EED2Ev,"axG",@progbits,_ZNSt23_Sp_counted_ptr_inplaceINSt13__future_base13_State_baseV2ESaIvELN9__gnu_cxx12_Lock_policyE2EED5Ev,comdat
	.align 2
	.p2align 4
	.weak	_ZNSt23_Sp_counted_ptr_inplaceINSt13__future_base13_State_baseV2ESaIvELN9__gnu_cxx12_Lock_policyE2EED2Ev
	.type	_ZNSt23_Sp_counted_ptr_inplaceINSt13__future_base13_State_baseV2ESaIvELN9__gnu_cxx12_Lock_policyE2EED2Ev, @function
_ZNSt23_Sp_counted_ptr_inplaceINSt13__future_base13_State_baseV2ESaIvELN9__gnu_cxx12_Lock_policyE2EED2Ev:
.LFB11708:
	.cfi_startproc
	ret
	.cfi_endproc
.LFE11708:
	.size	_ZNSt23_Sp_counted_ptr_inplaceINSt13__future_base13_State_baseV2ESaIvELN9__gnu_cxx12_Lock_policyE2EED2Ev, .-_ZNSt23_Sp_counted_ptr_inplaceINSt13__future_base13_State_baseV2ESaIvELN9__gnu_cxx12_Lock_policyE2EED2Ev
	.weak	_ZNSt23_Sp_counted_ptr_inplaceINSt13__future_base13_State_baseV2ESaIvELN9__gnu_cxx12_Lock_policyE2EED1Ev
	.set	_ZNSt23_Sp_counted_ptr_inplaceINSt13__future_base13_State_baseV2ESaIvELN9__gnu_cxx12_Lock_policyE2EED1Ev,_ZNSt23_Sp_counted_ptr_inplaceINSt13__future_base13_State_baseV2ESaIvELN9__gnu_cxx12_Lock_policyE2EED2Ev
	.section	.text._ZNSt23_Sp_counted_ptr_inplaceINSt13__future_base13_State_baseV2ESaIvELN9__gnu_cxx12_Lock_policyE2EE10_M_disposeEv,"axG",@progbits,_ZNSt23_Sp_counted_ptr_inplaceINSt13__future_base13_State_baseV2ESaIvELN9__gnu_cxx12_Lock_policyE2EE10_M_disposeEv,comdat
	.align 2
	.p2align 4
	.weak	_ZNSt23_Sp_counted_ptr_inplaceINSt13__future_base13_State_baseV2ESaIvELN9__gnu_cxx12_Lock_policyE2EE10_M_disposeEv
	.type	_ZNSt23_Sp_counted_ptr_inplaceINSt13__future_base13_State_baseV2ESaIvELN9__gnu_cxx12_Lock_policyE2EE10_M_disposeEv, @function
_ZNSt23_Sp_counted_ptr_inplaceINSt13__future_base13_State_baseV2ESaIvELN9__gnu_cxx12_Lock_policyE2EE10_M_disposeEv:
.LFB11711:
	.cfi_startproc
	movq	16(%rdi), %rax
	addq	$16, %rdi
	movq	(%rax), %rax
	jmp	*%rax
	.cfi_endproc
.LFE11711:
	.size	_ZNSt23_Sp_counted_ptr_inplaceINSt13__future_base13_State_baseV2ESaIvELN9__gnu_cxx12_Lock_policyE2EE10_M_disposeEv, .-_ZNSt23_Sp_counted_ptr_inplaceINSt13__future_base13_State_baseV2ESaIvELN9__gnu_cxx12_Lock_policyE2EE10_M_disposeEv
	.section	.text._ZNSt23_Sp_counted_ptr_inplaceIN8asiodnp310MasterScanESaIvELN9__gnu_cxx12_Lock_policyE2EED2Ev,"axG",@progbits,_ZNSt23_Sp_counted_ptr_inplaceIN8asiodnp310MasterScanESaIvELN9__gnu_cxx12_Lock_policyE2EED5Ev,comdat
	.align 2
	.p2align 4
	.weak	_ZNSt23_Sp_counted_ptr_inplaceIN8asiodnp310MasterScanESaIvELN9__gnu_cxx12_Lock_policyE2EED2Ev
	.type	_ZNSt23_Sp_counted_ptr_inplaceIN8asiodnp310MasterScanESaIvELN9__gnu_cxx12_Lock_policyE2EED2Ev, @function
_ZNSt23_Sp_counted_ptr_inplaceIN8asiodnp310MasterScanESaIvELN9__gnu_cxx12_Lock_policyE2EED2Ev:
.LFB11729:
	.cfi_startproc
	ret
	.cfi_endproc
.LFE11729:
	.size	_ZNSt23_Sp_counted_ptr_inplaceIN8asiodnp310MasterScanESaIvELN9__gnu_cxx12_Lock_policyE2EED2Ev, .-_ZNSt23_Sp_counted_ptr_inplaceIN8asiodnp310MasterScanESaIvELN9__gnu_cxx12_Lock_policyE2EED2Ev
	.weak	_ZNSt23_Sp_counted_ptr_inplaceIN8asiodnp310MasterScanESaIvELN9__gnu_cxx12_Lock_policyE2EED1Ev
	.set	_ZNSt23_Sp_counted_ptr_inplaceIN8asiodnp310MasterScanESaIvELN9__gnu_cxx12_Lock_policyE2EED1Ev,_ZNSt23_Sp_counted_ptr_inplaceIN8asiodnp310MasterScanESaIvELN9__gnu_cxx12_Lock_policyE2EED2Ev
	.section	.text._ZNSt23_Sp_counted_ptr_inplaceIN8opendnp310CommandSetESaIvELN9__gnu_cxx12_Lock_policyE2EED0Ev,"axG",@progbits,_ZNSt23_Sp_counted_ptr_inplaceIN8opendnp310CommandSetESaIvELN9__gnu_cxx12_Lock_policyE2EED5Ev,comdat
	.align 2
	.p2align 4
	.weak	_ZNSt23_Sp_counted_ptr_inplaceIN8opendnp310CommandSetESaIvELN9__gnu_cxx12_Lock_policyE2EED0Ev
	.type	_ZNSt23_Sp_counted_ptr_inplaceIN8opendnp310CommandSetESaIvELN9__gnu_cxx12_Lock_policyE2EED0Ev, @function
_ZNSt23_Sp_counted_ptr_inplaceIN8opendnp310CommandSetESaIvELN9__gnu_cxx12_Lock_policyE2EED0Ev:
.LFB11682:
	.cfi_startproc
	movl	$40, %esi
	jmp	_ZdlPvm@PLT
	.cfi_endproc
.LFE11682:
	.size	_ZNSt23_Sp_counted_ptr_inplaceIN8opendnp310CommandSetESaIvELN9__gnu_cxx12_Lock_policyE2EED0Ev, .-_ZNSt23_Sp_counted_ptr_inplaceIN8opendnp310CommandSetESaIvELN9__gnu_cxx12_Lock_policyE2EED0Ev
	.section	.text._ZNSt23_Sp_counted_ptr_inplaceINSt13__future_base13_State_baseV2ESaIvELN9__gnu_cxx12_Lock_policyE2EED0Ev,"axG",@progbits,_ZNSt23_Sp_counted_ptr_inplaceINSt13__future_base13_State_baseV2ESaIvELN9__gnu_cxx12_Lock_policyE2EED5Ev,comdat
	.align 2
	.p2align 4
	.weak	_ZNSt23_Sp_counted_ptr_inplaceINSt13__future_base13_State_baseV2ESaIvELN9__gnu_cxx12_Lock_policyE2EED0Ev
	.type	_ZNSt23_Sp_counted_ptr_inplaceINSt13__future_base13_State_baseV2ESaIvELN9__gnu_cxx12_Lock_policyE2EED0Ev, @function
_ZNSt23_Sp_counted_ptr_inplaceINSt13__future_base13_State_baseV2ESaIvELN9__gnu_cxx12_Lock_policyE2EED0Ev:
.LFB11710:
	.cfi_startproc
	movl	$48, %esi
	jmp	_ZdlPvm@PLT
	.cfi_endproc
.LFE11710:
	.size	_ZNSt23_Sp_counted_ptr_inplaceINSt13__future_base13_State_baseV2ESaIvELN9__gnu_cxx12_Lock_policyE2EED0Ev, .-_ZNSt23_Sp_counted_ptr_inplaceINSt13__future_base13_State_baseV2ESaIvELN9__gnu_cxx12_Lock_policyE2EED0Ev
	.section	.text._ZNSt23_Sp_counted_ptr_inplaceIN8asiodnp310MasterScanESaIvELN9__gnu_cxx12_Lock_policyE2EED0Ev,"axG",@progbits,_ZNSt23_Sp_counted_ptr_inplaceIN8asiodnp310MasterScanESaIvELN9__gnu_cxx12_Lock_policyE2EED5Ev,comdat
	.align 2
	.p2align 4
	.weak	_ZNSt23_Sp_counted_ptr_inplaceIN8asiodnp310MasterScanESaIvELN9__gnu_cxx12_Lock_policyE2EED0Ev
	.type	_ZNSt23_Sp_counted_ptr_inplaceIN8asiodnp310MasterScanESaIvELN9__gnu_cxx12_Lock_policyE2EED0Ev, @function
_ZNSt23_Sp_counted_ptr_inplaceIN8asiodnp310MasterScanESaIvELN9__gnu_cxx12_Lock_policyE2EED0Ev:
.LFB11731:
	.cfi_startproc
	movl	$56, %esi
	jmp	_ZdlPvm@PLT
	.cfi_endproc
.LFE11731:
	.size	_ZNSt23_Sp_counted_ptr_inplaceIN8asiodnp310MasterScanESaIvELN9__gnu_cxx12_Lock_policyE2EED0Ev, .-_ZNSt23_Sp_counted_ptr_inplaceIN8asiodnp310MasterScanESaIvELN9__gnu_cxx12_Lock_policyE2EED0Ev
	.section	.text._ZNSt23_Sp_counted_ptr_inplaceIN8asiodnp318MasterSessionStackESaIvELN9__gnu_cxx12_Lock_policyE2EED0Ev,"axG",@progbits,_ZNSt23_Sp_counted_ptr_inplaceIN8asiodnp318MasterSessionStackESaIvELN9__gnu_cxx12_Lock_policyE2EED5Ev,comdat
	.align 2
	.p2align 4
	.weak	_ZNSt23_Sp_counted_ptr_inplaceIN8asiodnp318MasterSessionStackESaIvELN9__gnu_cxx12_Lock_policyE2EED0Ev
	.type	_ZNSt23_Sp_counted_ptr_inplaceIN8asiodnp318MasterSessionStackESaIvELN9__gnu_cxx12_Lock_policyE2EED0Ev, @function
_ZNSt23_Sp_counted_ptr_inplaceIN8asiodnp318MasterSessionStackESaIvELN9__gnu_cxx12_Lock_policyE2EED0Ev:
.LFB11689:
	.cfi_startproc
	movl	$632, %esi
	jmp	_ZdlPvm@PLT
	.cfi_endproc
.LFE11689:
	.size	_ZNSt23_Sp_counted_ptr_inplaceIN8asiodnp318MasterSessionStackESaIvELN9__gnu_cxx12_Lock_policyE2EED0Ev, .-_ZNSt23_Sp_counted_ptr_inplaceIN8asiodnp318MasterSessionStackESaIvELN9__gnu_cxx12_Lock_policyE2EED0Ev
	.section	.text._ZNSt13__future_base13_State_baseV2D0Ev,"axG",@progbits,_ZNSt13__future_base13_State_baseV2D5Ev,comdat
	.align 2
	.p2align 4
	.weak	_ZNSt13__future_base13_State_baseV2D0Ev
	.type	_ZNSt13__future_base13_State_baseV2D0Ev, @function
_ZNSt13__future_base13_State_baseV2D0Ev:
.LFB11642:
	.cfi_startproc
	.cfi_personality 0x9b,DW.ref.__gxx_personality_v0
	.cfi_lsda 0x1b,.LLSDA11642
	movq	_ZTVNSt13__future_base13_State_baseV2E@GOTPCREL(%rip), %rax
	pushq	%rbx
	.cfi_def_cfa_offset 16
	.cfi_offset 3, -16
	movq	%rdi, %rbx
	addq	$16, %rax
	movq	%rax, (%rdi)
	movq	8(%rdi), %rdi
	testq	%rdi, %rdi
	je	.L37
	movq	(%rdi), %rax
	call	*(%rax)
.L37:
	movq	%rbx, %rdi
	movl	$32, %esi
	popq	%rbx
	.cfi_def_cfa_offset 8
.LEHB0:
	jmp	_ZdlPvm@PLT
.LEHE0:
	.cfi_endproc
.LFE11642:
	.section	.gcc_except_table._ZNSt13__future_base13_State_baseV2D0Ev,"aG",@progbits,_ZNSt13__future_base13_State_baseV2D5Ev,comdat
.LLSDA11642:
	.byte	0xff
	.byte	0xff
	.byte	0x1
	.uleb128 .LLSDACSE11642-.LLSDACSB11642
.LLSDACSB11642:
	.uleb128 .LEHB0-.LFB11642
	.uleb128 .LEHE0-.LEHB0
	.uleb128 0
	.uleb128 0
.LLSDACSE11642:
	.section	.text._ZNSt13__future_base13_State_baseV2D0Ev,"axG",@progbits,_ZNSt13__future_base13_State_baseV2D5Ev,comdat
	.size	_ZNSt13__future_base13_State_baseV2D0Ev, .-_ZNSt13__future_base13_State_baseV2D0Ev
	.section	.text._ZNSt23_Sp_counted_ptr_inplaceIN8asiodnp318MasterSessionStackESaIvELN9__gnu_cxx12_Lock_policyE2EE10_M_destroyEv,"axG",@progbits,_ZNSt23_Sp_counted_ptr_inplaceIN8asiodnp318MasterSessionStackESaIvELN9__gnu_cxx12_Lock_policyE2EE10_M_destroyEv,comdat
	.align 2
	.p2align 4
	.weak	_ZNSt23_Sp_counted_ptr_inplaceIN8asiodnp318MasterSessionStackESaIvELN9__gnu_cxx12_Lock_policyE2EE10_M_destroyEv
	.type	_ZNSt23_Sp_counted_ptr_inplaceIN8asiodnp318MasterSessionStackESaIvELN9__gnu_cxx12_Lock_policyE2EE10_M_destroyEv, @function
_ZNSt23_Sp_counted_ptr_inplaceIN8asiodnp318MasterSessionStackESaIvELN9__gnu_cxx12_Lock_policyE2EE10_M_destroyEv:
.LFB11691:
	.cfi_startproc
	movl	$632, %esi
	jmp	_ZdlPvm@PLT
	.cfi_endproc
.LFE11691:
	.size	_ZNSt23_Sp_counted_ptr_inplaceIN8asiodnp318MasterSessionStackESaIvELN9__gnu_cxx12_Lock_policyE2EE10_M_destroyEv, .-_ZNSt23_Sp_counted_ptr_inplaceIN8asiodnp318MasterSessionStackESaIvELN9__gnu_cxx12_Lock_policyE2EE10_M_destroyEv
	.section	.text._ZNSt23_Sp_counted_ptr_inplaceIN8opendnp310CommandSetESaIvELN9__gnu_cxx12_Lock_policyE2EE10_M_destroyEv,"axG",@progbits,_ZNSt23_Sp_counted_ptr_inplaceIN8opendnp310CommandSetESaIvELN9__gnu_cxx12_Lock_policyE2EE10_M_destroyEv,comdat
	.align 2
	.p2align 4
	.weak	_ZNSt23_Sp_counted_ptr_inplaceIN8opendnp310CommandSetESaIvELN9__gnu_cxx12_Lock_policyE2EE10_M_destroyEv
	.type	_ZNSt23_Sp_counted_ptr_inplaceIN8opendnp310CommandSetESaIvELN9__gnu_cxx12_Lock_policyE2EE10_M_destroyEv, @function
_ZNSt23_Sp_counted_ptr_inplaceIN8opendnp310CommandSetESaIvELN9__gnu_cxx12_Lock_policyE2EE10_M_destroyEv:
.LFB11684:
	.cfi_startproc
	movl	$40, %esi
	jmp	_ZdlPvm@PLT
	.cfi_endproc
.LFE11684:
	.size	_ZNSt23_Sp_counted_ptr_inplaceIN8opendnp310CommandSetESaIvELN9__gnu_cxx12_Lock_policyE2EE10_M_destroyEv, .-_ZNSt23_Sp_counted_ptr_inplaceIN8opendnp310CommandSetESaIvELN9__gnu_cxx12_Lock_policyE2EE10_M_destroyEv
	.section	.text._ZNSt23_Sp_counted_ptr_inplaceINSt13__future_base13_State_baseV2ESaIvELN9__gnu_cxx12_Lock_policyE2EE10_M_destroyEv,"axG",@progbits,_ZNSt23_Sp_counted_ptr_inplaceINSt13__future_base13_State_baseV2ESaIvELN9__gnu_cxx12_Lock_policyE2EE10_M_destroyEv,comdat
	.align 2
	.p2align 4
	.weak	_ZNSt23_Sp_counted_ptr_inplaceINSt13__future_base13_State_baseV2ESaIvELN9__gnu_cxx12_Lock_policyE2EE10_M_destroyEv
	.type	_ZNSt23_Sp_counted_ptr_inplaceINSt13__future_base13_State_baseV2ESaIvELN9__gnu_cxx12_Lock_policyE2EE10_M_destroyEv, @function
_ZNSt23_Sp_counted_ptr_inplaceINSt13__future_base13_State_baseV2ESaIvELN9__gnu_cxx12_Lock_policyE2EE10_M_destroyEv:
.LFB11712:
	.cfi_startproc
	movl	$48, %esi
	jmp	_ZdlPvm@PLT
	.cfi_endproc
.LFE11712:
	.size	_ZNSt23_Sp_counted_ptr_inplaceINSt13__future_base13_State_baseV2ESaIvELN9__gnu_cxx12_Lock_policyE2EE10_M_destroyEv, .-_ZNSt23_Sp_counted_ptr_inplaceINSt13__future_base13_State_baseV2ESaIvELN9__gnu_cxx12_Lock_policyE2EE10_M_destroyEv
	.section	.text._ZNSt23_Sp_counted_ptr_inplaceIN8asiodnp310MasterScanESaIvELN9__gnu_cxx12_Lock_policyE2EE10_M_destroyEv,"axG",@progbits,_ZNSt23_Sp_counted_ptr_inplaceIN8asiodnp310MasterScanESaIvELN9__gnu_cxx12_Lock_policyE2EE10_M_destroyEv,comdat
	.align 2
	.p2align 4
	.weak	_ZNSt23_Sp_counted_ptr_inplaceIN8asiodnp310MasterScanESaIvELN9__gnu_cxx12_Lock_policyE2EE10_M_destroyEv
	.type	_ZNSt23_Sp_counted_ptr_inplaceIN8asiodnp310MasterScanESaIvELN9__gnu_cxx12_Lock_policyE2EE10_M_destroyEv, @function
_ZNSt23_Sp_counted_ptr_inplaceIN8asiodnp310MasterScanESaIvELN9__gnu_cxx12_Lock_policyE2EE10_M_destroyEv:
.LFB11733:
	.cfi_startproc
	movl	$56, %esi
	jmp	_ZdlPvm@PLT
	.cfi_endproc
.LFE11733:
	.size	_ZNSt23_Sp_counted_ptr_inplaceIN8asiodnp310MasterScanESaIvELN9__gnu_cxx12_Lock_policyE2EE10_M_destroyEv, .-_ZNSt23_Sp_counted_ptr_inplaceIN8asiodnp310MasterScanESaIvELN9__gnu_cxx12_Lock_policyE2EE10_M_destroyEv
	.section	.text._ZNSt23_Sp_counted_ptr_inplaceIN8opendnp310CommandSetESaIvELN9__gnu_cxx12_Lock_policyE2EE10_M_disposeEv,"axG",@progbits,_ZNSt23_Sp_counted_ptr_inplaceIN8opendnp310CommandSetESaIvELN9__gnu_cxx12_Lock_policyE2EE10_M_disposeEv,comdat
	.align 2
	.p2align 4
	.weak	_ZNSt23_Sp_counted_ptr_inplaceIN8opendnp310CommandSetESaIvELN9__gnu_cxx12_Lock_policyE2EE10_M_disposeEv
	.type	_ZNSt23_Sp_counted_ptr_inplaceIN8opendnp310CommandSetESaIvELN9__gnu_cxx12_Lock_policyE2EE10_M_disposeEv, @function
_ZNSt23_Sp_counted_ptr_inplaceIN8opendnp310CommandSetESaIvELN9__gnu_cxx12_Lock_policyE2EE10_M_disposeEv:
.LFB11683:
	.cfi_startproc
	addq	$16, %rdi
	jmp	_ZN8opendnp310CommandSetD1Ev@PLT
	.cfi_endproc
.LFE11683:
	.size	_ZNSt23_Sp_counted_ptr_inplaceIN8opendnp310CommandSetESaIvELN9__gnu_cxx12_Lock_policyE2EE10_M_disposeEv, .-_ZNSt23_Sp_counted_ptr_inplaceIN8opendnp310CommandSetESaIvELN9__gnu_cxx12_Lock_policyE2EE10_M_disposeEv
	.section	.text._ZNSt13__future_base7_ResultIN8opendnp315StackStatisticsEED2Ev,"axG",@progbits,_ZNSt13__future_base7_ResultIN8opendnp315StackStatisticsEED5Ev,comdat
	.align 2
	.p2align 4
	.weak	_ZNSt13__future_base7_ResultIN8opendnp315StackStatisticsEED2Ev
	.type	_ZNSt13__future_base7_ResultIN8opendnp315StackStatisticsEED2Ev, @function
_ZNSt13__future_base7_ResultIN8opendnp315StackStatisticsEED2Ev:
.LFB11749:
	.cfi_startproc
	movq	_ZTVNSt13__future_base7_ResultIN8opendnp315StackStatisticsEEE@GOTPCREL(%rip), %rax
	addq	$16, %rax
	movq	%rax, (%rdi)
	jmp	_ZNSt13__future_base12_Result_baseD2Ev@PLT
	.cfi_endproc
.LFE11749:
	.size	_ZNSt13__future_base7_ResultIN8opendnp315StackStatisticsEED2Ev, .-_ZNSt13__future_base7_ResultIN8opendnp315StackStatisticsEED2Ev
	.weak	_ZNSt13__future_base7_ResultIN8opendnp315StackStatisticsEED1Ev
	.set	_ZNSt13__future_base7_ResultIN8opendnp315StackStatisticsEED1Ev,_ZNSt13__future_base7_ResultIN8opendnp315StackStatisticsEED2Ev
	.section	.text._ZNSt13__future_base7_ResultIN8opendnp315StackStatisticsEED0Ev,"axG",@progbits,_ZNSt13__future_base7_ResultIN8opendnp315StackStatisticsEED5Ev,comdat
	.align 2
	.p2align 4
	.weak	_ZNSt13__future_base7_ResultIN8opendnp315StackStatisticsEED0Ev
	.type	_ZNSt13__future_base7_ResultIN8opendnp315StackStatisticsEED0Ev, @function
_ZNSt13__future_base7_ResultIN8opendnp315StackStatisticsEED0Ev:
.LFB11751:
	.cfi_startproc
	subq	$24, %rsp
	.cfi_def_cfa_offset 32
	movq	_ZTVNSt13__future_base7_ResultIN8opendnp315StackStatisticsEEE@GOTPCREL(%rip), %rax
	movq	%rdi, 8(%rsp)
	addq	$16, %rax
	movq	%rax, (%rdi)
	call	_ZNSt13__future_base12_Result_baseD2Ev@PLT
	movq	8(%rsp), %rdi
	movl	$64, %esi
	addq	$24, %rsp
	.cfi_def_cfa_offset 8
	jmp	_ZdlPvm@PLT
	.cfi_endproc
.LFE11751:
	.size	_ZNSt13__future_base7_ResultIN8opendnp315StackStatisticsEED0Ev, .-_ZNSt13__future_base7_ResultIN8opendnp315StackStatisticsEED0Ev
	.section	.text._ZNSt13__future_base13_State_baseV29_M_do_setEPSt8functionIFSt10unique_ptrINS_12_Result_baseENS3_8_DeleterEEvEEPb,"axG",@progbits,_ZNSt13__future_base13_State_baseV29_M_do_setEPSt8functionIFSt10unique_ptrINS_12_Result_baseENS3_8_DeleterEEvEEPb,comdat
	.align 2
	.p2align 4
	.weak	_ZNSt13__future_base13_State_baseV29_M_do_setEPSt8functionIFSt10unique_ptrINS_12_Result_baseENS3_8_DeleterEEvEEPb
	.type	_ZNSt13__future_base13_State_baseV29_M_do_setEPSt8functionIFSt10unique_ptrINS_12_Result_baseENS3_8_DeleterEEvEEPb, @function
_ZNSt13__future_base13_State_baseV29_M_do_setEPSt8functionIFSt10unique_ptrINS_12_Result_baseENS3_8_DeleterEEvEEPb:
.LFB7499:
	.cfi_startproc
	.cfi_personality 0x9b,DW.ref.__gxx_personality_v0
	.cfi_lsda 0x1b,.LLSDA7499
	pushq	%rbp
	.cfi_def_cfa_offset 16
	.cfi_offset 6, -16
	pushq	%rbx
	.cfi_def_cfa_offset 24
	.cfi_offset 3, -24
	subq	$24, %rsp
	.cfi_def_cfa_offset 48
	cmpq	$0, 16(%rsi)
	je	.L57
	movq	%rdi, %rbx
	movq	%rdx, %rbp
	leaq	8(%rsp), %rdi
.LEHB1:
	call	*24(%rsi)
.LEHE1:
	movq	8(%rbx), %rdi
	movq	8(%rsp), %rax
	movb	$1, 0(%rbp)
	movq	%rdi, 8(%rsp)
	movq	%rax, 8(%rbx)
	testq	%rdi, %rdi
	je	.L50
	movq	(%rdi), %rax
	call	*(%rax)
.L50:
	addq	$24, %rsp
	.cfi_remember_state
	.cfi_def_cfa_offset 24
	popq	%rbx
	.cfi_def_cfa_offset 16
	popq	%rbp
	.cfi_def_cfa_offset 8
	ret
.L57:
	.cfi_restore_state
.LEHB2:
	call	_ZSt25__throw_bad_function_callv@PLT
.LEHE2:
	.cfi_endproc
.LFE7499:
	.section	.gcc_except_table._ZNSt13__future_base13_State_baseV29_M_do_setEPSt8functionIFSt10unique_ptrINS_12_Result_baseENS3_8_DeleterEEvEEPb,"aG",@progbits,_ZNSt13__future_base13_State_baseV29_M_do_setEPSt8functionIFSt10unique_ptrINS_12_Result_baseENS3_8_DeleterEEvEEPb,comdat
.LLSDA7499:
	.byte	0xff
	.byte	0xff
	.byte	0x1
	.uleb128 .LLSDACSE7499-.LLSDACSB7499
.LLSDACSB7499:
	.uleb128 .LEHB1-.LFB7499
	.uleb128 .LEHE1-.LEHB1
	.uleb128 0
	.uleb128 0
	.uleb128 .LEHB2-.LFB7499
	.uleb128 .LEHE2-.LEHB2
	.uleb128 0
	.uleb128 0
.LLSDACSE7499:
	.section	.text._ZNSt13__future_base13_State_baseV29_M_do_setEPSt8functionIFSt10unique_ptrINS_12_Result_baseENS3_8_DeleterEEvEEPb,"axG",@progbits,_ZNSt13__future_base13_State_baseV29_M_do_setEPSt8functionIFSt10unique_ptrINS_12_Result_baseENS3_8_DeleterEEvEEPb,comdat
	.size	_ZNSt13__future_base13_State_baseV29_M_do_setEPSt8functionIFSt10unique_ptrINS_12_Result_baseENS3_8_DeleterEEvEEPb, .-_ZNSt13__future_base13_State_baseV29_M_do_setEPSt8functionIFSt10unique_ptrINS_12_Result_baseENS3_8_DeleterEEvEEPb
	.text
	.p2align 4
	.type	_ZNSt17_Function_handlerIFSt10shared_ptrIN8opendnp311IMasterTaskEEvEZN8asiodnp318MasterSessionStack7AddScanEN7openpal12TimeDurationERKSt6vectorINS1_6HeaderESaISA_EERKNS1_10TaskConfigEEUlvE_E9_M_invokeERKSt9_Any_data, @function
_ZNSt17_Function_handlerIFSt10shared_ptrIN8opendnp311IMasterTaskEEvEZN8asiodnp318MasterSessionStack7AddScanEN7openpal12TimeDurationERKSt6vectorINS1_6HeaderESaISA_EERKNS1_10TaskConfigEEUlvE_E9_M_invokeERKSt9_Any_data:
.LFB9866:
	.cfi_startproc
	pushq	%rbx
	.cfi_def_cfa_offset 16
	.cfi_offset 3, -16
	movq	(%rsi), %rax
	movq	%rdi, %rbx
	movq	(%rax), %rdi
	movq	16(%rax), %rdx
	leaq	24(%rax), %rcx
	movq	56(%rax), %r8
	movq	64(%rax), %r9
	leaq	96(%rdi), %rsi
	movq	%rbx, %rdi
	call	_ZN8opendnp38MContext7AddScanEN7openpal12TimeDurationERKSt8functionIFbRNS_12HeaderWriterEEENS_10TaskConfigE@PLT
	movq	%rbx, %rax
	popq	%rbx
	.cfi_def_cfa_offset 8
	ret
	.cfi_endproc
.LFE9866:
	.size	_ZNSt17_Function_handlerIFSt10shared_ptrIN8opendnp311IMasterTaskEEvEZN8asiodnp318MasterSessionStack7AddScanEN7openpal12TimeDurationERKSt6vectorINS1_6HeaderESaISA_EERKNS1_10TaskConfigEEUlvE_E9_M_invokeERKSt9_Any_data, .-_ZNSt17_Function_handlerIFSt10shared_ptrIN8opendnp311IMasterTaskEEvEZN8asiodnp318MasterSessionStack7AddScanEN7openpal12TimeDurationERKSt6vectorINS1_6HeaderESaISA_EERKNS1_10TaskConfigEEUlvE_E9_M_invokeERKSt9_Any_data
	.p2align 4
	.type	_ZNSt17_Function_handlerIFSt10shared_ptrIN8opendnp311IMasterTaskEEvEZN8asiodnp318MasterSessionStack17AddAllObjectsScanENS1_16GroupVariationIDEN7openpal12TimeDurationERKNS1_10TaskConfigEEUlvE_E9_M_invokeERKSt9_Any_data, @function
_ZNSt17_Function_handlerIFSt10shared_ptrIN8opendnp311IMasterTaskEEvEZN8asiodnp318MasterSessionStack17AddAllObjectsScanENS1_16GroupVariationIDEN7openpal12TimeDurationERKNS1_10TaskConfigEEUlvE_E9_M_invokeERKSt9_Any_data:
.LFB9898:
	.cfi_startproc
	pushq	%rbx
	.cfi_def_cfa_offset 16
	.cfi_offset 3, -16
	movq	(%rsi), %rax
	movq	%rdi, %rbx
	movq	(%rax), %rdi
	movq	24(%rax), %rcx
	movzwl	16(%rax), %edx
	movq	32(%rax), %r8
	movq	40(%rax), %r9
	leaq	96(%rdi), %rsi
	movq	%rbx, %rdi
	call	_ZN8opendnp38MContext17AddAllObjectsScanENS_16GroupVariationIDEN7openpal12TimeDurationENS_10TaskConfigE@PLT
	movq	%rbx, %rax
	popq	%rbx
	.cfi_def_cfa_offset 8
	ret
	.cfi_endproc
.LFE9898:
	.size	_ZNSt17_Function_handlerIFSt10shared_ptrIN8opendnp311IMasterTaskEEvEZN8asiodnp318MasterSessionStack17AddAllObjectsScanENS1_16GroupVariationIDEN7openpal12TimeDurationERKNS1_10TaskConfigEEUlvE_E9_M_invokeERKSt9_Any_data, .-_ZNSt17_Function_handlerIFSt10shared_ptrIN8opendnp311IMasterTaskEEvEZN8asiodnp318MasterSessionStack17AddAllObjectsScanENS1_16GroupVariationIDEN7openpal12TimeDurationERKNS1_10TaskConfigEEUlvE_E9_M_invokeERKSt9_Any_data
	.p2align 4
	.type	_ZNSt17_Function_handlerIFSt10shared_ptrIN8opendnp311IMasterTaskEEvEZN8asiodnp318MasterSessionStack12AddClassScanERKNS1_10ClassFieldEN7openpal12TimeDurationERKNS1_10TaskConfigEEUlvE_E9_M_invokeERKSt9_Any_data, @function
_ZNSt17_Function_handlerIFSt10shared_ptrIN8opendnp311IMasterTaskEEvEZN8asiodnp318MasterSessionStack12AddClassScanERKNS1_10ClassFieldEN7openpal12TimeDurationERKNS1_10TaskConfigEEUlvE_E9_M_invokeERKSt9_Any_data:
.LFB9903:
	.cfi_startproc
	pushq	%rbx
	.cfi_def_cfa_offset 16
	.cfi_offset 3, -16
	movq	(%rsi), %rax
	movq	%rdi, %rbx
	movq	(%rax), %rdi
	movq	24(%rax), %rcx
	leaq	16(%rax), %rdx
	movq	32(%rax), %r8
	movq	40(%rax), %r9
	leaq	96(%rdi), %rsi
	movq	%rbx, %rdi
	call	_ZN8opendnp38MContext12AddClassScanERKNS_10ClassFieldEN7openpal12TimeDurationENS_10TaskConfigE@PLT
	movq	%rbx, %rax
	popq	%rbx
	.cfi_def_cfa_offset 8
	ret
	.cfi_endproc
.LFE9903:
	.size	_ZNSt17_Function_handlerIFSt10shared_ptrIN8opendnp311IMasterTaskEEvEZN8asiodnp318MasterSessionStack12AddClassScanERKNS1_10ClassFieldEN7openpal12TimeDurationERKNS1_10TaskConfigEEUlvE_E9_M_invokeERKSt9_Any_data, .-_ZNSt17_Function_handlerIFSt10shared_ptrIN8opendnp311IMasterTaskEEvEZN8asiodnp318MasterSessionStack12AddClassScanERKNS1_10ClassFieldEN7openpal12TimeDurationERKNS1_10TaskConfigEEUlvE_E9_M_invokeERKSt9_Any_data
	.p2align 4
	.type	_ZNSt17_Function_handlerIFSt10shared_ptrIN8opendnp311IMasterTaskEEvEZN8asiodnp318MasterSessionStack12AddRangeScanENS1_16GroupVariationIDEttN7openpal12TimeDurationERKNS1_10TaskConfigEEUlvE_E9_M_invokeERKSt9_Any_data, @function
_ZNSt17_Function_handlerIFSt10shared_ptrIN8opendnp311IMasterTaskEEvEZN8asiodnp318MasterSessionStack12AddRangeScanENS1_16GroupVariationIDEttN7openpal12TimeDurationERKNS1_10TaskConfigEEUlvE_E9_M_invokeERKSt9_Any_data:
.LFB9908:
	.cfi_startproc
	pushq	%rbx
	.cfi_def_cfa_offset 16
	.cfi_offset 3, -16
	movq	(%rsi), %rax
	movq	%rdi, %rbx
	movzwl	16(%rax), %edx
	movq	(%rax), %rdi
	movq	24(%rax), %r9
	movzwl	20(%rax), %r8d
	movzwl	18(%rax), %ecx
	pushq	40(%rax)
	.cfi_def_cfa_offset 24
	leaq	96(%rdi), %rsi
	movq	%rbx, %rdi
	pushq	32(%rax)
	.cfi_def_cfa_offset 32
	call	_ZN8opendnp38MContext12AddRangeScanENS_16GroupVariationIDEttN7openpal12TimeDurationENS_10TaskConfigE@PLT
	popq	%rax
	.cfi_def_cfa_offset 24
	movq	%rbx, %rax
	popq	%rdx
	.cfi_def_cfa_offset 16
	popq	%rbx
	.cfi_def_cfa_offset 8
	ret
	.cfi_endproc
.LFE9908:
	.size	_ZNSt17_Function_handlerIFSt10shared_ptrIN8opendnp311IMasterTaskEEvEZN8asiodnp318MasterSessionStack12AddRangeScanENS1_16GroupVariationIDEttN7openpal12TimeDurationERKNS1_10TaskConfigEEUlvE_E9_M_invokeERKSt9_Any_data, .-_ZNSt17_Function_handlerIFSt10shared_ptrIN8opendnp311IMasterTaskEEvEZN8asiodnp318MasterSessionStack12AddRangeScanENS1_16GroupVariationIDEttN7openpal12TimeDurationERKNS1_10TaskConfigEEUlvE_E9_M_invokeERKSt9_Any_data
	.section	.text._ZN4asio6detail15system_categoryD2Ev,"axG",@progbits,_ZN4asio6detail15system_categoryD5Ev,comdat
	.align 2
	.p2align 4
	.weak	_ZN4asio6detail15system_categoryD2Ev
	.type	_ZN4asio6detail15system_categoryD2Ev, @function
_ZN4asio6detail15system_categoryD2Ev:
.LFB3397:
	.cfi_startproc
	movq	_ZTVN4asio6detail15system_categoryE@GOTPCREL(%rip), %rax
	addq	$16, %rax
	movq	%rax, (%rdi)
	jmp	_ZNSt3_V214error_categoryD2Ev@PLT
	.cfi_endproc
.LFE3397:
	.size	_ZN4asio6detail15system_categoryD2Ev, .-_ZN4asio6detail15system_categoryD2Ev
	.weak	_ZN4asio6detail15system_categoryD1Ev
	.set	_ZN4asio6detail15system_categoryD1Ev,_ZN4asio6detail15system_categoryD2Ev
	.section	.text._ZN4asio6detail15system_categoryD0Ev,"axG",@progbits,_ZN4asio6detail15system_categoryD5Ev,comdat
	.align 2
	.p2align 4
	.weak	_ZN4asio6detail15system_categoryD0Ev
	.type	_ZN4asio6detail15system_categoryD0Ev, @function
_ZN4asio6detail15system_categoryD0Ev:
.LFB3399:
	.cfi_startproc
	subq	$24, %rsp
	.cfi_def_cfa_offset 32
	movq	_ZTVN4asio6detail15system_categoryE@GOTPCREL(%rip), %rax
	movq	%rdi, 8(%rsp)
	addq	$16, %rax
	movq	%rax, (%rdi)
	call	_ZNSt3_V214error_categoryD2Ev@PLT
	movq	8(%rsp), %rdi
	movl	$8, %esi
	addq	$24, %rsp
	.cfi_def_cfa_offset 8
	jmp	_ZdlPvm@PLT
	.cfi_endproc
.LFE3399:
	.size	_ZN4asio6detail15system_categoryD0Ev, .-_ZN4asio6detail15system_categoryD0Ev
	.section	.text._ZN4asio5error6detail14netdb_categoryD2Ev,"axG",@progbits,_ZN4asio5error6detail14netdb_categoryD5Ev,comdat
	.align 2
	.p2align 4
	.weak	_ZN4asio5error6detail14netdb_categoryD2Ev
	.type	_ZN4asio5error6detail14netdb_categoryD2Ev, @function
_ZN4asio5error6detail14netdb_categoryD2Ev:
.LFB3436:
	.cfi_startproc
	movq	_ZTVN4asio5error6detail14netdb_categoryE@GOTPCREL(%rip), %rax
	addq	$16, %rax
	movq	%rax, (%rdi)
	jmp	_ZNSt3_V214error_categoryD2Ev@PLT
	.cfi_endproc
.LFE3436:
	.size	_ZN4asio5error6detail14netdb_categoryD2Ev, .-_ZN4asio5error6detail14netdb_categoryD2Ev
	.weak	_ZN4asio5error6detail14netdb_categoryD1Ev
	.set	_ZN4asio5error6detail14netdb_categoryD1Ev,_ZN4asio5error6detail14netdb_categoryD2Ev
	.section	.text._ZN4asio5error6detail14netdb_categoryD0Ev,"axG",@progbits,_ZN4asio5error6detail14netdb_categoryD5Ev,comdat
	.align 2
	.p2align 4
	.weak	_ZN4asio5error6detail14netdb_categoryD0Ev
	.type	_ZN4asio5error6detail14netdb_categoryD0Ev, @function
_ZN4asio5error6detail14netdb_categoryD0Ev:
.LFB3438:
	.cfi_startproc
	subq	$24, %rsp
	.cfi_def_cfa_offset 32
	movq	_ZTVN4asio5error6detail14netdb_categoryE@GOTPCREL(%rip), %rax
	movq	%rdi, 8(%rsp)
	addq	$16, %rax
	movq	%rax, (%rdi)
	call	_ZNSt3_V214error_categoryD2Ev@PLT
	movq	8(%rsp), %rdi
	movl	$8, %esi
	addq	$24, %rsp
	.cfi_def_cfa_offset 8
	jmp	_ZdlPvm@PLT
	.cfi_endproc
.LFE3438:
	.size	_ZN4asio5error6detail14netdb_categoryD0Ev, .-_ZN4asio5error6detail14netdb_categoryD0Ev
	.section	.text._ZN4asio5error6detail17addrinfo_categoryD2Ev,"axG",@progbits,_ZN4asio5error6detail17addrinfo_categoryD5Ev,comdat
	.align 2
	.p2align 4
	.weak	_ZN4asio5error6detail17addrinfo_categoryD2Ev
	.type	_ZN4asio5error6detail17addrinfo_categoryD2Ev, @function
_ZN4asio5error6detail17addrinfo_categoryD2Ev:
.LFB3446:
	.cfi_startproc
	movq	_ZTVN4asio5error6detail17addrinfo_categoryE@GOTPCREL(%rip), %rax
	addq	$16, %rax
	movq	%rax, (%rdi)
	jmp	_ZNSt3_V214error_categoryD2Ev@PLT
	.cfi_endproc
.LFE3446:
	.size	_ZN4asio5error6detail17addrinfo_categoryD2Ev, .-_ZN4asio5error6detail17addrinfo_categoryD2Ev
	.weak	_ZN4asio5error6detail17addrinfo_categoryD1Ev
	.set	_ZN4asio5error6detail17addrinfo_categoryD1Ev,_ZN4asio5error6detail17addrinfo_categoryD2Ev
	.section	.text._ZN4asio5error6detail17addrinfo_categoryD0Ev,"axG",@progbits,_ZN4asio5error6detail17addrinfo_categoryD5Ev,comdat
	.align 2
	.p2align 4
	.weak	_ZN4asio5error6detail17addrinfo_categoryD0Ev
	.type	_ZN4asio5error6detail17addrinfo_categoryD0Ev, @function
_ZN4asio5error6detail17addrinfo_categoryD0Ev:
.LFB3448:
	.cfi_startproc
	subq	$24, %rsp
	.cfi_def_cfa_offset 32
	movq	_ZTVN4asio5error6detail17addrinfo_categoryE@GOTPCREL(%rip), %rax
	movq	%rdi, 8(%rsp)
	addq	$16, %rax
	movq	%rax, (%rdi)
	call	_ZNSt3_V214error_categoryD2Ev@PLT
	movq	8(%rsp), %rdi
	movl	$8, %esi
	addq	$24, %rsp
	.cfi_def_cfa_offset 8
	jmp	_ZdlPvm@PLT
	.cfi_endproc
.LFE3448:
	.size	_ZN4asio5error6detail17addrinfo_categoryD0Ev, .-_ZN4asio5error6detail17addrinfo_categoryD0Ev
	.section	.text._ZN4asio5error6detail13misc_categoryD2Ev,"axG",@progbits,_ZN4asio5error6detail13misc_categoryD5Ev,comdat
	.align 2
	.p2align 4
	.weak	_ZN4asio5error6detail13misc_categoryD2Ev
	.type	_ZN4asio5error6detail13misc_categoryD2Ev, @function
_ZN4asio5error6detail13misc_categoryD2Ev:
.LFB3456:
	.cfi_startproc
	movq	_ZTVN4asio5error6detail13misc_categoryE@GOTPCREL(%rip), %rax
	addq	$16, %rax
	movq	%rax, (%rdi)
	jmp	_ZNSt3_V214error_categoryD2Ev@PLT
	.cfi_endproc
.LFE3456:
	.size	_ZN4asio5error6detail13misc_categoryD2Ev, .-_ZN4asio5error6detail13misc_categoryD2Ev
	.weak	_ZN4asio5error6detail13misc_categoryD1Ev
	.set	_ZN4asio5error6detail13misc_categoryD1Ev,_ZN4asio5error6detail13misc_categoryD2Ev
	.section	.text._ZN4asio5error6detail13misc_categoryD0Ev,"axG",@progbits,_ZN4asio5error6detail13misc_categoryD5Ev,comdat
	.align 2
	.p2align 4
	.weak	_ZN4asio5error6detail13misc_categoryD0Ev
	.type	_ZN4asio5error6detail13misc_categoryD0Ev, @function
_ZN4asio5error6detail13misc_categoryD0Ev:
.LFB3458:
	.cfi_startproc
	subq	$24, %rsp
	.cfi_def_cfa_offset 32
	movq	_ZTVN4asio5error6detail13misc_categoryE@GOTPCREL(%rip), %rax
	movq	%rdi, 8(%rsp)
	addq	$16, %rax
	movq	%rax, (%rdi)
	call	_ZNSt3_V214error_categoryD2Ev@PLT
	movq	8(%rsp), %rdi
	movl	$8, %esi
	addq	$24, %rsp
	.cfi_def_cfa_offset 8
	jmp	_ZdlPvm@PLT
	.cfi_endproc
.LFE3458:
	.size	_ZN4asio5error6detail13misc_categoryD0Ev, .-_ZN4asio5error6detail13misc_categoryD0Ev
	.section	.text._ZNSt17_Function_handlerIFSt10unique_ptrINSt13__future_base12_Result_baseENS2_8_DeleterEEvENS1_13_State_baseV27_SetterIN8opendnp315StackStatisticsEOS9_EEE10_M_managerERSt9_Any_dataRKSD_St18_Manager_operation,"axG",@progbits,_ZNSt17_Function_handlerIFSt10unique_ptrINSt13__future_base12_Result_baseENS2_8_DeleterEEvENS1_13_State_baseV27_SetterIN8opendnp315StackStatisticsEOS9_EEE10_M_managerERSt9_Any_dataRKSD_St18_Manager_operation,comdat
	.p2align 4
	.weak	_ZNSt17_Function_handlerIFSt10unique_ptrINSt13__future_base12_Result_baseENS2_8_DeleterEEvENS1_13_State_baseV27_SetterIN8opendnp315StackStatisticsEOS9_EEE10_M_managerERSt9_Any_dataRKSD_St18_Manager_operation
	.type	_ZNSt17_Function_handlerIFSt10unique_ptrINSt13__future_base12_Result_baseENS2_8_DeleterEEvENS1_13_State_baseV27_SetterIN8opendnp315StackStatisticsEOS9_EEE10_M_managerERSt9_Any_dataRKSD_St18_Manager_operation, @function
_ZNSt17_Function_handlerIFSt10unique_ptrINSt13__future_base12_Result_baseENS2_8_DeleterEEvENS1_13_State_baseV27_SetterIN8opendnp315StackStatisticsEOS9_EEE10_M_managerERSt9_Any_dataRKSD_St18_Manager_operation:
.LFB10748:
	.cfi_startproc
	testl	%edx, %edx
	je	.L79
	cmpl	$1, %edx
	jne	.L84
	movq	%rsi, (%rdi)
.L82:
	xorl	%eax, %eax
	ret
	.p2align 4,,10
	.p2align 3
.L84:
	cmpl	$2, %edx
	jne	.L82
	movdqu	(%rsi), %xmm0
	movups	%xmm0, (%rdi)
	jmp	.L82
	.p2align 4,,10
	.p2align 3
.L79:
	movq	_ZTINSt13__future_base13_State_baseV27_SetterIN8opendnp315StackStatisticsEOS3_EE@GOTPCREL(%rip), %rax
	movq	%rax, (%rdi)
	xorl	%eax, %eax
	ret
	.cfi_endproc
.LFE10748:
	.size	_ZNSt17_Function_handlerIFSt10unique_ptrINSt13__future_base12_Result_baseENS2_8_DeleterEEvENS1_13_State_baseV27_SetterIN8opendnp315StackStatisticsEOS9_EEE10_M_managerERSt9_Any_dataRKSD_St18_Manager_operation, .-_ZNSt17_Function_handlerIFSt10unique_ptrINSt13__future_base12_Result_baseENS2_8_DeleterEEvENS1_13_State_baseV27_SetterIN8opendnp315StackStatisticsEOS9_EEE10_M_managerERSt9_Any_dataRKSD_St18_Manager_operation
	.section	.text._ZNSt17_Function_handlerIFSt10unique_ptrINSt13__future_base12_Result_baseENS2_8_DeleterEEvENS1_13_State_baseV27_SetterISt10shared_ptrIN8opendnp311IMasterTaskEEOSB_EEE10_M_managerERSt9_Any_dataRKSF_St18_Manager_operation,"axG",@progbits,_ZNSt17_Function_handlerIFSt10unique_ptrINSt13__future_base12_Result_baseENS2_8_DeleterEEvENS1_13_State_baseV27_SetterISt10shared_ptrIN8opendnp311IMasterTaskEEOSB_EEE10_M_managerERSt9_Any_dataRKSF_St18_Manager_operation,comdat
	.p2align 4
	.weak	_ZNSt17_Function_handlerIFSt10unique_ptrINSt13__future_base12_Result_baseENS2_8_DeleterEEvENS1_13_State_baseV27_SetterISt10shared_ptrIN8opendnp311IMasterTaskEEOSB_EEE10_M_managerERSt9_Any_dataRKSF_St18_Manager_operation
	.type	_ZNSt17_Function_handlerIFSt10unique_ptrINSt13__future_base12_Result_baseENS2_8_DeleterEEvENS1_13_State_baseV27_SetterISt10shared_ptrIN8opendnp311IMasterTaskEEOSB_EEE10_M_managerERSt9_Any_dataRKSF_St18_Manager_operation, @function
_ZNSt17_Function_handlerIFSt10unique_ptrINSt13__future_base12_Result_baseENS2_8_DeleterEEvENS1_13_State_baseV27_SetterISt10shared_ptrIN8opendnp311IMasterTaskEEOSB_EEE10_M_managerERSt9_Any_dataRKSF_St18_Manager_operation:
.LFB10783:
	.cfi_startproc
	testl	%edx, %edx
	je	.L86
	cmpl	$1, %edx
	jne	.L91
	movq	%rsi, (%rdi)
.L89:
	xorl	%eax, %eax
	ret
	.p2align 4,,10
	.p2align 3
.L91:
	cmpl	$2, %edx
	jne	.L89
	movdqu	(%rsi), %xmm0
	movups	%xmm0, (%rdi)
	jmp	.L89
	.p2align 4,,10
	.p2align 3
.L86:
	movq	_ZTINSt13__future_base13_State_baseV27_SetterISt10shared_ptrIN8opendnp311IMasterTaskEEOS5_EE@GOTPCREL(%rip), %rax
	movq	%rax, (%rdi)
	xorl	%eax, %eax
	ret
	.cfi_endproc
.LFE10783:
	.size	_ZNSt17_Function_handlerIFSt10unique_ptrINSt13__future_base12_Result_baseENS2_8_DeleterEEvENS1_13_State_baseV27_SetterISt10shared_ptrIN8opendnp311IMasterTaskEEOSB_EEE10_M_managerERSt9_Any_dataRKSF_St18_Manager_operation, .-_ZNSt17_Function_handlerIFSt10unique_ptrINSt13__future_base12_Result_baseENS2_8_DeleterEEvENS1_13_State_baseV27_SetterISt10shared_ptrIN8opendnp311IMasterTaskEEOSB_EEE10_M_managerERSt9_Any_dataRKSF_St18_Manager_operation
	.section	.text._ZNSt23_Sp_counted_ptr_inplaceIN8opendnp310CommandSetESaIvELN9__gnu_cxx12_Lock_policyE2EE14_M_get_deleterERKSt9type_info,"axG",@progbits,_ZNSt23_Sp_counted_ptr_inplaceIN8opendnp310CommandSetESaIvELN9__gnu_cxx12_Lock_policyE2EE14_M_get_deleterERKSt9type_info,comdat
	.align 2
	.p2align 4
	.weak	_ZNSt23_Sp_counted_ptr_inplaceIN8opendnp310CommandSetESaIvELN9__gnu_cxx12_Lock_policyE2EE14_M_get_deleterERKSt9type_info
	.type	_ZNSt23_Sp_counted_ptr_inplaceIN8opendnp310CommandSetESaIvELN9__gnu_cxx12_Lock_policyE2EE14_M_get_deleterERKSt9type_info, @function
_ZNSt23_Sp_counted_ptr_inplaceIN8opendnp310CommandSetESaIvELN9__gnu_cxx12_Lock_policyE2EE14_M_get_deleterERKSt9type_info:
.LFB11685:
	.cfi_startproc
	cmpq	_ZZNSt19_Sp_make_shared_tag5_S_tiEvE5__tag@GOTPCREL(%rip), %rsi
	movq	%rdi, %rcx
	je	.L98
	movq	8(%rsi), %rdi
	movq	_ZTSSt19_Sp_make_shared_tag@GOTPCREL(%rip), %rsi
	cmpq	%rsi, %rdi
	je	.L98
	xorl	%edx, %edx
	cmpb	$42, (%rdi)
	je	.L99
	subq	$24, %rsp
	.cfi_def_cfa_offset 32
	movq	%rdx, (%rsp)
	movq	%rcx, 8(%rsp)
	call	strcmp@PLT
	xorl	%edx, %edx
	movq	8(%rsp), %rcx
	testl	%eax, %eax
	jne	.L92
	leaq	16(%rcx), %rdx
.L92:
	movq	%rdx, %rax
	addq	$24, %rsp
	.cfi_def_cfa_offset 8
	ret
	.p2align 4,,10
	.p2align 3
.L98:
	leaq	16(%rcx), %rdx
.L99:
	movq	%rdx, %rax
	ret
	.cfi_endproc
.LFE11685:
	.size	_ZNSt23_Sp_counted_ptr_inplaceIN8opendnp310CommandSetESaIvELN9__gnu_cxx12_Lock_policyE2EE14_M_get_deleterERKSt9type_info, .-_ZNSt23_Sp_counted_ptr_inplaceIN8opendnp310CommandSetESaIvELN9__gnu_cxx12_Lock_policyE2EE14_M_get_deleterERKSt9type_info
	.section	.text._ZNSt13__future_base7_ResultIN8opendnp315StackStatisticsEE10_M_destroyEv,"axG",@progbits,_ZNSt13__future_base7_ResultIN8opendnp315StackStatisticsEE10_M_destroyEv,comdat
	.align 2
	.p2align 4
	.weak	_ZNSt13__future_base7_ResultIN8opendnp315StackStatisticsEE10_M_destroyEv
	.type	_ZNSt13__future_base7_ResultIN8opendnp315StackStatisticsEE10_M_destroyEv, @function
_ZNSt13__future_base7_ResultIN8opendnp315StackStatisticsEE10_M_destroyEv:
.LFB11747:
	.cfi_startproc
	movq	(%rdi), %rax
	movq	16(%rax), %rax
	cmpq	_ZNSt13__future_base7_ResultIN8opendnp315StackStatisticsEED0Ev@GOTPCREL(%rip), %rax
	jne	.L103
	subq	$24, %rsp
	.cfi_def_cfa_offset 32
	movq	_ZTVNSt13__future_base7_ResultIN8opendnp315StackStatisticsEEE@GOTPCREL(%rip), %rax
	movq	%rdi, 8(%rsp)
	addq	$16, %rax
	movq	%rax, (%rdi)
	call	_ZNSt13__future_base12_Result_baseD2Ev@PLT
	movq	8(%rsp), %rdi
	movl	$64, %esi
	addq	$24, %rsp
	.cfi_def_cfa_offset 8
	jmp	_ZdlPvm@PLT
	.p2align 4,,10
	.p2align 3
.L103:
	jmp	*%rax
	.cfi_endproc
.LFE11747:
	.size	_ZNSt13__future_base7_ResultIN8opendnp315StackStatisticsEE10_M_destroyEv, .-_ZNSt13__future_base7_ResultIN8opendnp315StackStatisticsEE10_M_destroyEv
	.section	.text.unlikely,"ax",@progbits
.LCOLDB4:
	.text
.LHOTB4:
	.p2align 4
	.type	_ZN4asio6detail18completion_handlerIZN8asiodnp318MasterSessionStack13SetLogFiltersERKN7openpal10LogFiltersEEUlvE_E11do_completeEPNS0_15task_io_serviceEPNS0_25task_io_service_operationERKSt10error_codem, @function
_ZN4asio6detail18completion_handlerIZN8asiodnp318MasterSessionStack13SetLogFiltersERKN7openpal10LogFiltersEEUlvE_E11do_completeEPNS0_15task_io_serviceEPNS0_25task_io_service_operationERKSt10error_codem:
.LFB10713:
	.cfi_startproc
	.cfi_personality 0x9b,DW.ref.__gxx_personality_v0
	.cfi_lsda 0x1b,.LLSDA10713
	pushq	%r13
	.cfi_def_cfa_offset 16
	.cfi_offset 13, -16
	pushq	%r12
	.cfi_def_cfa_offset 24
	.cfi_offset 12, -24
	movq	%rdi, %r12
	pushq	%rbp
	.cfi_def_cfa_offset 32
	.cfi_offset 6, -32
	pushq	%rbx
	.cfi_def_cfa_offset 40
	.cfi_offset 3, -40
	movq	%rsi, %rbx
	subq	$8, %rsp
	.cfi_def_cfa_offset 48
	movq	32(%rsi), %rbp
	movq	24(%rsi), %r13
	data16	leaq	_ZN4asio6detail15keyword_tss_ptrINS0_10call_stackINS0_15task_io_serviceENS0_27task_io_service_thread_infoEE7contextEE6value_E@tlsgd(%rip), %rdi
	.value	0x6666
	rex64
	call	__tls_get_addr@PLT
	movq	(%rax), %rax
	testq	%rax, %rax
	je	.L108
	movq	8(%rax), %rax
	testq	%rax, %rax
	je	.L108
	cmpq	$0, (%rax)
	je	.L124
.L108:
	movq	%rbx, %rdi
	call	_ZdlPv@PLT
.L112:
	testq	%r12, %r12
	je	.L120
	movq	48(%r13), %rdi
	movl	%ebp, %esi
.LEHB3:
	call	_ZN8asiodnp311LinkSession13SetLogFiltersEN7openpal10LogFiltersE@PLT
.LEHE3:
	sfence
.L120:
	addq	$8, %rsp
	.cfi_remember_state
	.cfi_def_cfa_offset 40
	popq	%rbx
	.cfi_def_cfa_offset 32
	popq	%rbp
	.cfi_def_cfa_offset 24
	popq	%r12
	.cfi_def_cfa_offset 16
	popq	%r13
	.cfi_def_cfa_offset 8
	ret
	.p2align 4,,10
	.p2align 3
.L124:
	.cfi_restore_state
	movzbl	40(%rbx), %edx
	movb	%dl, (%rbx)
	movq	%rbx, (%rax)
	jmp	.L112
.L116:
	jmp	.L115
	.section	.gcc_except_table,"a",@progbits
.LLSDA10713:
	.byte	0xff
	.byte	0xff
	.byte	0x1
	.uleb128 .LLSDACSE10713-.LLSDACSB10713
.LLSDACSB10713:
	.uleb128 .LEHB3-.LFB10713
	.uleb128 .LEHE3-.LEHB3
	.uleb128 .L116-.LFB10713
	.uleb128 0
.LLSDACSE10713:
	.text
	.cfi_endproc
	.section	.text.unlikely
	.cfi_startproc
	.cfi_personality 0x9b,DW.ref.__gxx_personality_v0
	.cfi_lsda 0x1b,.LLSDAC10713
	.type	_ZN4asio6detail18completion_handlerIZN8asiodnp318MasterSessionStack13SetLogFiltersERKN7openpal10LogFiltersEEUlvE_E11do_completeEPNS0_15task_io_serviceEPNS0_25task_io_service_operationERKSt10error_codem.cold, @function
_ZN4asio6detail18completion_handlerIZN8asiodnp318MasterSessionStack13SetLogFiltersERKN7openpal10LogFiltersEEUlvE_E11do_completeEPNS0_15task_io_serviceEPNS0_25task_io_service_operationERKSt10error_codem.cold:
.LFSB10713:
.L115:
	.cfi_def_cfa_offset 48
	.cfi_offset 3, -40
	.cfi_offset 6, -32
	.cfi_offset 12, -24
	.cfi_offset 13, -16
	sfence
	movq	%rax, %rdi
.LEHB4:
	call	_Unwind_Resume@PLT
.LEHE4:
	.cfi_endproc
.LFE10713:
	.section	.gcc_except_table
.LLSDAC10713:
	.byte	0xff
	.byte	0xff
	.byte	0x1
	.uleb128 .LLSDACSEC10713-.LLSDACSBC10713
.LLSDACSBC10713:
	.uleb128 .LEHB4-.LCOLDB4
	.uleb128 .LEHE4-.LEHB4
	.uleb128 0
	.uleb128 0
.LLSDACSEC10713:
	.section	.text.unlikely
	.text
	.size	_ZN4asio6detail18completion_handlerIZN8asiodnp318MasterSessionStack13SetLogFiltersERKN7openpal10LogFiltersEEUlvE_E11do_completeEPNS0_15task_io_serviceEPNS0_25task_io_service_operationERKSt10error_codem, .-_ZN4asio6detail18completion_handlerIZN8asiodnp318MasterSessionStack13SetLogFiltersERKN7openpal10LogFiltersEEUlvE_E11do_completeEPNS0_15task_io_serviceEPNS0_25task_io_service_operationERKSt10error_codem
	.section	.text.unlikely
	.size	_ZN4asio6detail18completion_handlerIZN8asiodnp318MasterSessionStack13SetLogFiltersERKN7openpal10LogFiltersEEUlvE_E11do_completeEPNS0_15task_io_serviceEPNS0_25task_io_service_operationERKSt10error_codem.cold, .-_ZN4asio6detail18completion_handlerIZN8asiodnp318MasterSessionStack13SetLogFiltersERKN7openpal10LogFiltersEEUlvE_E11do_completeEPNS0_15task_io_serviceEPNS0_25task_io_service_operationERKSt10error_codem.cold
.LCOLDE4:
	.text
.LHOTE4:
	.section	.text._ZNSt23_Sp_counted_ptr_inplaceIN8asiodnp310MasterScanESaIvELN9__gnu_cxx12_Lock_policyE2EE14_M_get_deleterERKSt9type_info,"axG",@progbits,_ZNSt23_Sp_counted_ptr_inplaceIN8asiodnp310MasterScanESaIvELN9__gnu_cxx12_Lock_policyE2EE14_M_get_deleterERKSt9type_info,comdat
	.align 2
	.p2align 4
	.weak	_ZNSt23_Sp_counted_ptr_inplaceIN8asiodnp310MasterScanESaIvELN9__gnu_cxx12_Lock_policyE2EE14_M_get_deleterERKSt9type_info
	.type	_ZNSt23_Sp_counted_ptr_inplaceIN8asiodnp310MasterScanESaIvELN9__gnu_cxx12_Lock_policyE2EE14_M_get_deleterERKSt9type_info, @function
_ZNSt23_Sp_counted_ptr_inplaceIN8asiodnp310MasterScanESaIvELN9__gnu_cxx12_Lock_policyE2EE14_M_get_deleterERKSt9type_info:
.LFB11734:
	.cfi_startproc
	cmpq	_ZZNSt19_Sp_make_shared_tag5_S_tiEvE5__tag@GOTPCREL(%rip), %rsi
	movq	%rdi, %rcx
	je	.L131
	movq	8(%rsi), %rdi
	movq	_ZTSSt19_Sp_make_shared_tag@GOTPCREL(%rip), %rsi
	cmpq	%rsi, %rdi
	je	.L131
	xorl	%edx, %edx
	cmpb	$42, (%rdi)
	je	.L132
	subq	$24, %rsp
	.cfi_def_cfa_offset 32
	movq	%rdx, (%rsp)
	movq	%rcx, 8(%rsp)
	call	strcmp@PLT
	xorl	%edx, %edx
	movq	8(%rsp), %rcx
	testl	%eax, %eax
	jne	.L125
	leaq	16(%rcx), %rdx
.L125:
	movq	%rdx, %rax
	addq	$24, %rsp
	.cfi_def_cfa_offset 8
	ret
	.p2align 4,,10
	.p2align 3
.L131:
	leaq	16(%rcx), %rdx
.L132:
	movq	%rdx, %rax
	ret
	.cfi_endproc
.LFE11734:
	.size	_ZNSt23_Sp_counted_ptr_inplaceIN8asiodnp310MasterScanESaIvELN9__gnu_cxx12_Lock_policyE2EE14_M_get_deleterERKSt9type_info, .-_ZNSt23_Sp_counted_ptr_inplaceIN8asiodnp310MasterScanESaIvELN9__gnu_cxx12_Lock_policyE2EE14_M_get_deleterERKSt9type_info
	.section	.text._ZNSt23_Sp_counted_ptr_inplaceINSt13__future_base13_State_baseV2ESaIvELN9__gnu_cxx12_Lock_policyE2EE14_M_get_deleterERKSt9type_info,"axG",@progbits,_ZNSt23_Sp_counted_ptr_inplaceINSt13__future_base13_State_baseV2ESaIvELN9__gnu_cxx12_Lock_policyE2EE14_M_get_deleterERKSt9type_info,comdat
	.align 2
	.p2align 4
	.weak	_ZNSt23_Sp_counted_ptr_inplaceINSt13__future_base13_State_baseV2ESaIvELN9__gnu_cxx12_Lock_policyE2EE14_M_get_deleterERKSt9type_info
	.type	_ZNSt23_Sp_counted_ptr_inplaceINSt13__future_base13_State_baseV2ESaIvELN9__gnu_cxx12_Lock_policyE2EE14_M_get_deleterERKSt9type_info, @function
_ZNSt23_Sp_counted_ptr_inplaceINSt13__future_base13_State_baseV2ESaIvELN9__gnu_cxx12_Lock_policyE2EE14_M_get_deleterERKSt9type_info:
.LFB11713:
	.cfi_startproc
	cmpq	_ZZNSt19_Sp_make_shared_tag5_S_tiEvE5__tag@GOTPCREL(%rip), %rsi
	movq	%rdi, %rcx
	je	.L141
	movq	8(%rsi), %rdi
	movq	_ZTSSt19_Sp_make_shared_tag@GOTPCREL(%rip), %rsi
	cmpq	%rsi, %rdi
	je	.L141
	xorl	%edx, %edx
	cmpb	$42, (%rdi)
	je	.L142
	subq	$24, %rsp
	.cfi_def_cfa_offset 32
	movq	%rdx, (%rsp)
	movq	%rcx, 8(%rsp)
	call	strcmp@PLT
	xorl	%edx, %edx
	movq	8(%rsp), %rcx
	testl	%eax, %eax
	jne	.L135
	leaq	16(%rcx), %rdx
.L135:
	movq	%rdx, %rax
	addq	$24, %rsp
	.cfi_def_cfa_offset 8
	ret
	.p2align 4,,10
	.p2align 3
.L141:
	leaq	16(%rcx), %rdx
.L142:
	movq	%rdx, %rax
	ret
	.cfi_endproc
.LFE11713:
	.size	_ZNSt23_Sp_counted_ptr_inplaceINSt13__future_base13_State_baseV2ESaIvELN9__gnu_cxx12_Lock_policyE2EE14_M_get_deleterERKSt9type_info, .-_ZNSt23_Sp_counted_ptr_inplaceINSt13__future_base13_State_baseV2ESaIvELN9__gnu_cxx12_Lock_policyE2EE14_M_get_deleterERKSt9type_info
	.section	.text._ZNSt23_Sp_counted_ptr_inplaceIN8asiodnp318MasterSessionStackESaIvELN9__gnu_cxx12_Lock_policyE2EE14_M_get_deleterERKSt9type_info,"axG",@progbits,_ZNSt23_Sp_counted_ptr_inplaceIN8asiodnp318MasterSessionStackESaIvELN9__gnu_cxx12_Lock_policyE2EE14_M_get_deleterERKSt9type_info,comdat
	.align 2
	.p2align 4
	.weak	_ZNSt23_Sp_counted_ptr_inplaceIN8asiodnp318MasterSessionStackESaIvELN9__gnu_cxx12_Lock_policyE2EE14_M_get_deleterERKSt9type_info
	.type	_ZNSt23_Sp_counted_ptr_inplaceIN8asiodnp318MasterSessionStackESaIvELN9__gnu_cxx12_Lock_policyE2EE14_M_get_deleterERKSt9type_info, @function
_ZNSt23_Sp_counted_ptr_inplaceIN8asiodnp318MasterSessionStackESaIvELN9__gnu_cxx12_Lock_policyE2EE14_M_get_deleterERKSt9type_info:
.LFB11692:
	.cfi_startproc
	cmpq	_ZZNSt19_Sp_make_shared_tag5_S_tiEvE5__tag@GOTPCREL(%rip), %rsi
	movq	%rdi, %rcx
	je	.L151
	movq	8(%rsi), %rdi
	movq	_ZTSSt19_Sp_make_shared_tag@GOTPCREL(%rip), %rsi
	cmpq	%rsi, %rdi
	je	.L151
	xorl	%edx, %edx
	cmpb	$42, (%rdi)
	je	.L152
	subq	$24, %rsp
	.cfi_def_cfa_offset 32
	movq	%rdx, (%rsp)
	movq	%rcx, 8(%rsp)
	call	strcmp@PLT
	xorl	%edx, %edx
	movq	8(%rsp), %rcx
	testl	%eax, %eax
	jne	.L145
	leaq	16(%rcx), %rdx
.L145:
	movq	%rdx, %rax
	addq	$24, %rsp
	.cfi_def_cfa_offset 8
	ret
	.p2align 4,,10
	.p2align 3
.L151:
	leaq	16(%rcx), %rdx
.L152:
	movq	%rdx, %rax
	ret
	.cfi_endproc
.LFE11692:
	.size	_ZNSt23_Sp_counted_ptr_inplaceIN8asiodnp318MasterSessionStackESaIvELN9__gnu_cxx12_Lock_policyE2EE14_M_get_deleterERKSt9type_info, .-_ZNSt23_Sp_counted_ptr_inplaceIN8asiodnp318MasterSessionStackESaIvELN9__gnu_cxx12_Lock_policyE2EE14_M_get_deleterERKSt9type_info
	.section	.text._ZN4asio6detail18completion_handlerIZN7asiopal8Executor10ReturnFromIN8opendnp315StackStatisticsEEET_RKSt8functionIFS7_vEEEUlvE_E11do_completeEPNS0_15task_io_serviceEPNS0_25task_io_service_operationERKSt10error_codem,"axG",@progbits,_ZN4asio6detail18completion_handlerIZN7asiopal8Executor10ReturnFromIN8opendnp315StackStatisticsEEET_RKSt8functionIFS7_vEEEUlvE_E11do_completeEPNS0_15task_io_serviceEPNS0_25task_io_service_operationERKSt10error_codem,comdat
	.p2align 4
	.weak	_ZN4asio6detail18completion_handlerIZN7asiopal8Executor10ReturnFromIN8opendnp315StackStatisticsEEET_RKSt8functionIFS7_vEEEUlvE_E11do_completeEPNS0_15task_io_serviceEPNS0_25task_io_service_operationERKSt10error_codem
	.type	_ZN4asio6detail18completion_handlerIZN7asiopal8Executor10ReturnFromIN8opendnp315StackStatisticsEEET_RKSt8functionIFS7_vEEEUlvE_E11do_completeEPNS0_15task_io_serviceEPNS0_25task_io_service_operationERKSt10error_codem, @function
_ZN4asio6detail18completion_handlerIZN7asiopal8Executor10ReturnFromIN8opendnp315StackStatisticsEEET_RKSt8functionIFS7_vEEEUlvE_E11do_completeEPNS0_15task_io_serviceEPNS0_25task_io_service_operationERKSt10error_codem:
.LFB11154:
	.cfi_startproc
	.cfi_personality 0x9b,DW.ref.__gxx_personality_v0
	.cfi_lsda 0x1b,.LLSDA11154
	pushq	%r13
	.cfi_def_cfa_offset 16
	.cfi_offset 13, -16
	movq	%rdi, %r13
	pushq	%r12
	.cfi_def_cfa_offset 24
	.cfi_offset 12, -24
	pushq	%rbp
	.cfi_def_cfa_offset 32
	.cfi_offset 6, -32
	pushq	%rbx
	.cfi_def_cfa_offset 40
	.cfi_offset 3, -40
	movq	%rsi, %rbx
	subq	$168, %rsp
	.cfi_def_cfa_offset 208
	movq	24(%rsi), %r12
	movq	32(%rsi), %rbp
	data16	leaq	_ZN4asio6detail15keyword_tss_ptrINS0_10call_stackINS0_15task_io_serviceENS0_27task_io_service_thread_infoEE7contextEE6value_E@tlsgd(%rip), %rdi
	.value	0x6666
	rex64
	call	__tls_get_addr@PLT
	movq	(%rax), %rax
	testq	%rax, %rax
	je	.L191
	movq	8(%rax), %rax
	testq	%rax, %rax
	je	.L191
	cmpq	$0, (%rax)
	je	.L192
.L191:
	movq	%rbx, %rdi
	call	_ZdlPv@PLT
.L190:
	testq	%r13, %r13
	je	.L155
	cmpq	$0, 16(%rbp)
	je	.L193
	leaq	112(%rsp), %rbx
	movq	%rbp, %rsi
	movq	%rbx, %rdi
.LEHB5:
	call	*24(%rbp)
.LEHE5:
	leaq	32(%rsp), %rax
	movq	%rbx, %xmm6
	movq	(%r12), %rbx
	movq	%r12, %xmm3
	movq	%rax, %xmm1
	leaq	8(%rsp), %rax
	punpcklqdq	%xmm6, %xmm3
	movq	_ZNSt17_Function_handlerIFSt10unique_ptrINSt13__future_base12_Result_baseENS2_8_DeleterEEvENS1_13_State_baseV27_SetterIN8opendnp315StackStatisticsEOS9_EEE10_M_managerERSt9_Any_dataRKSD_St18_Manager_operation@GOTPCREL(%rip), %xmm2
	movq	%rax, %xmm4
	leaq	16(%rsp), %rax
	movhps	_ZNSt17_Function_handlerIFSt10unique_ptrINSt13__future_base12_Result_baseENS2_8_DeleterEEvENS1_13_State_baseV27_SetterIN8opendnp315StackStatisticsEOS9_EEE9_M_invokeERKSt9_Any_data@GOTPCREL(%rip), %xmm2
	movq	%rax, %xmm0
	leaq	24(%rsp), %rax
	punpcklqdq	%xmm4, %xmm1
	movq	%rax, %xmm5
	punpcklqdq	%xmm5, %xmm0
	testq	%rbx, %rbx
	je	.L194
	leaq	7(%rsp), %rax
	leaq	48(%rsp), %rbp
	movaps	%xmm3, 48(%rsp)
	movq	%rax, 24(%rsp)
	movq	_ZNSt13__future_base13_State_baseV29_M_do_setEPSt8functionIFSt10unique_ptrINS_12_Result_baseENS3_8_DeleterEEvEEPb@GOTPCREL(%rip), %rax
	movaps	%xmm2, 64(%rsp)
	movaps	%xmm1, 80(%rsp)
	movaps	%xmm0, 96(%rsp)
	movb	$0, 7(%rsp)
	movq	%rbp, 16(%rsp)
	movq	%rbx, 8(%rsp)
	movq	%rax, 32(%rsp)
	movq	$0, 40(%rsp)
	data16	leaq	_ZSt15__once_callable@tlsgd(%rip), %rdi
	.value	0x6666
	rex64
	call	__tls_get_addr@PLT
	leaq	80(%rsp), %rdx
	movq	%rdx, (%rax)
	data16	leaq	_ZSt11__once_call@tlsgd(%rip), %rdi
	.value	0x6666
	rex64
	call	__tls_get_addr@PLT
	movq	_ZZNSt9once_flag18_Prepare_executionC4IZSt9call_onceIMNSt13__future_base13_State_baseV2EFvPSt8functionIFSt10unique_ptrINS3_12_Result_baseENS7_8_DeleterEEvEEPbEJPS4_SC_SD_EEvRS_OT_DpOT0_EUlvE_EERSI_ENUlvE_4_FUNEv@GOTPCREL(%rip), %rdx
	movq	__once_proxy@GOTPCREL(%rip), %rsi
	leaq	24(%rbx), %rdi
	movq	%rdx, (%rax)
.LEHB6:
	call	pthread_once@PLT
.LEHE6:
	testl	%eax, %eax
	jne	.L195
	data16	leaq	_ZSt15__once_callable@tlsgd(%rip), %rdi
	.value	0x6666
	rex64
	call	__tls_get_addr@PLT
	movq	$0, (%rax)
	data16	leaq	_ZSt11__once_call@tlsgd(%rip), %rdi
	.value	0x6666
	rex64
	call	__tls_get_addr@PLT
	movq	$0, (%rax)
	cmpb	$0, 7(%rsp)
	je	.L196
	leaq	16(%rbx), %rdi
	movl	$1, %eax
	xchgl	(%rdi), %eax
	testl	%eax, %eax
	js	.L169
.L172:
	movq	64(%rsp), %rax
	testq	%rax, %rax
	je	.L171
	movl	$3, %edx
	movq	%rbp, %rsi
	movq	%rbp, %rdi
	call	*%rax
.L171:
	sfence
.L155:
	addq	$168, %rsp
	.cfi_remember_state
	.cfi_def_cfa_offset 40
	popq	%rbx
	.cfi_def_cfa_offset 32
	popq	%rbp
	.cfi_def_cfa_offset 24
	popq	%r12
	.cfi_def_cfa_offset 16
	popq	%r13
	.cfi_def_cfa_offset 8
	ret
	.p2align 4,,10
	.p2align 3
.L192:
	.cfi_restore_state
	movzbl	40(%rbx), %edx
	movb	%dl, (%rbx)
	movq	%rbx, (%rax)
	jmp	.L190
	.p2align 4,,10
	.p2align 3
.L169:
.LEHB7:
	call	_ZNSt28__atomic_futex_unsigned_base19_M_futex_notify_allEPj@PLT
.LEHE7:
	jmp	.L172
.L176:
	movq	%rax, %rbx
	jmp	.L168
.L175:
	movq	%rax, %rdi
	jmp	.L174
.L193:
.LEHB8:
	call	_ZSt25__throw_bad_function_callv@PLT
.LEHE8:
.L167:
	data16	leaq	_ZSt15__once_callable@tlsgd(%rip), %rdi
	.value	0x6666
	rex64
	call	__tls_get_addr@PLT
	xorl	%edx, %edx
	movq	%rdx, (%rax)
	data16	leaq	_ZSt11__once_call@tlsgd(%rip), %rdi
	.value	0x6666
	rex64
	call	__tls_get_addr@PLT
	xorl	%ecx, %ecx
	movq	%rcx, (%rax)
.L168:
	movq	64(%rsp), %rax
	testq	%rax, %rax
	je	.L173
	movl	$3, %edx
	movq	%rbp, %rsi
	movq	%rbp, %rdi
	call	*%rax
.L173:
	movq	%rbx, %rdi
.L174:
	sfence
.LEHB9:
	call	_Unwind_Resume@PLT
.LEHE9:
.L194:
	movl	$3, %edi
.LEHB10:
	call	_ZSt20__throw_future_errori@PLT
.LEHE10:
.L177:
	movq	%rax, %rbx
	jmp	.L167
.L196:
	movl	$2, %edi
.LEHB11:
	call	_ZSt20__throw_future_errori@PLT
.LEHE11:
.L195:
	movl	%eax, %edi
.LEHB12:
	call	_ZSt20__throw_system_errori@PLT
.LEHE12:
	.cfi_endproc
.LFE11154:
	.section	.gcc_except_table
.LLSDA11154:
	.byte	0xff
	.byte	0xff
	.byte	0x1
	.uleb128 .LLSDACSE11154-.LLSDACSB11154
.LLSDACSB11154:
	.uleb128 .LEHB5-.LFB11154
	.uleb128 .LEHE5-.LEHB5
	.uleb128 .L175-.LFB11154
	.uleb128 0
	.uleb128 .LEHB6-.LFB11154
	.uleb128 .LEHE6-.LEHB6
	.uleb128 .L177-.LFB11154
	.uleb128 0
	.uleb128 .LEHB7-.LFB11154
	.uleb128 .LEHE7-.LEHB7
	.uleb128 .L176-.LFB11154
	.uleb128 0
	.uleb128 .LEHB8-.LFB11154
	.uleb128 .LEHE8-.LEHB8
	.uleb128 .L175-.LFB11154
	.uleb128 0
	.uleb128 .LEHB9-.LFB11154
	.uleb128 .LEHE9-.LEHB9
	.uleb128 0
	.uleb128 0
	.uleb128 .LEHB10-.LFB11154
	.uleb128 .LEHE10-.LEHB10
	.uleb128 .L175-.LFB11154
	.uleb128 0
	.uleb128 .LEHB11-.LFB11154
	.uleb128 .LEHE11-.LEHB11
	.uleb128 .L176-.LFB11154
	.uleb128 0
	.uleb128 .LEHB12-.LFB11154
	.uleb128 .LEHE12-.LEHB12
	.uleb128 .L177-.LFB11154
	.uleb128 0
.LLSDACSE11154:
	.section	.text._ZN4asio6detail18completion_handlerIZN7asiopal8Executor10ReturnFromIN8opendnp315StackStatisticsEEET_RKSt8functionIFS7_vEEEUlvE_E11do_completeEPNS0_15task_io_serviceEPNS0_25task_io_service_operationERKSt10error_codem,"axG",@progbits,_ZN4asio6detail18completion_handlerIZN7asiopal8Executor10ReturnFromIN8opendnp315StackStatisticsEEET_RKSt8functionIFS7_vEEEUlvE_E11do_completeEPNS0_15task_io_serviceEPNS0_25task_io_service_operationERKSt10error_codem,comdat
	.size	_ZN4asio6detail18completion_handlerIZN7asiopal8Executor10ReturnFromIN8opendnp315StackStatisticsEEET_RKSt8functionIFS7_vEEEUlvE_E11do_completeEPNS0_15task_io_serviceEPNS0_25task_io_service_operationERKSt10error_codem, .-_ZN4asio6detail18completion_handlerIZN7asiopal8Executor10ReturnFromIN8opendnp315StackStatisticsEEET_RKSt8functionIFS7_vEEEUlvE_E11do_completeEPNS0_15task_io_serviceEPNS0_25task_io_service_operationERKSt10error_codem
	.section	.rodata._ZNK4asio6detail15system_category7messageB5cxx11Ei.str1.8,"aMS",@progbits,1
	.align 8
.LC5:
	.string	"basic_string: construction from null is not valid"
	.section	.text._ZNK4asio6detail15system_category7messageB5cxx11Ei,"axG",@progbits,_ZNK4asio6detail15system_category7messageB5cxx11Ei,comdat
	.align 2
	.p2align 4
	.weak	_ZNK4asio6detail15system_category7messageB5cxx11Ei
	.type	_ZNK4asio6detail15system_category7messageB5cxx11Ei, @function
_ZNK4asio6detail15system_category7messageB5cxx11Ei:
.LFB3386:
	.cfi_startproc
	pushq	%r12
	.cfi_def_cfa_offset 16
	.cfi_offset 12, -16
	pushq	%rbp
	.cfi_def_cfa_offset 24
	.cfi_offset 6, -24
	pushq	%rbx
	.cfi_def_cfa_offset 32
	.cfi_offset 3, -32
	movq	%rdi, %rbx
	subq	$288, %rsp
	.cfi_def_cfa_offset 320
	cmpl	$125, %edx
	je	.L209
	pxor	%xmm0, %xmm0
	leaq	32(%rsp), %rsi
	leaq	16(%rbx), %rbp
	movl	%edx, %edi
	movl	$256, %edx
	movaps	%xmm0, 32(%rsp)
	movaps	%xmm0, 48(%rsp)
	movaps	%xmm0, 64(%rsp)
	movaps	%xmm0, 80(%rsp)
	movaps	%xmm0, 96(%rsp)
	movaps	%xmm0, 112(%rsp)
	movaps	%xmm0, 128(%rsp)
	movaps	%xmm0, 144(%rsp)
	movaps	%xmm0, 160(%rsp)
	movaps	%xmm0, 176(%rsp)
	movaps	%xmm0, 192(%rsp)
	movaps	%xmm0, 208(%rsp)
	movaps	%xmm0, 224(%rsp)
	movaps	%xmm0, 240(%rsp)
	movaps	%xmm0, 256(%rsp)
	movaps	%xmm0, 272(%rsp)
	call	strerror_r@PLT
	movq	%rbp, (%rbx)
	movq	%rax, %r12
	testq	%rax, %rax
	je	.L210
	movq	%rax, %rdi
	call	strlen@PLT
	movq	%rax, 24(%rsp)
	movq	%rax, %rcx
	cmpq	$15, %rax
	ja	.L211
	cmpq	$1, %rax
	jne	.L203
	movzbl	(%r12), %edx
	movb	%dl, 16(%rbx)
.L204:
	movq	%rax, 8(%rbx)
	movb	$0, 0(%rbp,%rax)
	addq	$288, %rsp
	.cfi_remember_state
	.cfi_def_cfa_offset 32
	movq	%rbx, %rax
	popq	%rbx
	.cfi_def_cfa_offset 24
	popq	%rbp
	.cfi_def_cfa_offset 16
	popq	%r12
	.cfi_def_cfa_offset 8
	ret
	.p2align 4,,10
	.p2align 3
.L211:
	.cfi_restore_state
	leaq	24(%rsp), %rsi
	xorl	%edx, %edx
	movq	%rbx, %rdi
	movq	%rax, 8(%rsp)
	call	_ZNSt7__cxx1112basic_stringIcSt11char_traitsIcESaIcEE9_M_createERmm@PLT
	movq	8(%rsp), %rcx
	movq	%rax, (%rbx)
	movq	%rax, %rbp
	movq	24(%rsp), %rax
	movq	%rax, 16(%rbx)
.L202:
	movq	%rbp, %rdi
	movq	%rcx, %rdx
	movq	%r12, %rsi
	call	memcpy@PLT
	movq	24(%rsp), %rax
	movq	(%rbx), %rbp
	jmp	.L204
	.p2align 4,,10
	.p2align 3
.L209:
	leaq	16(%rdi), %rax
	leaq	32(%rsp), %rsi
	xorl	%edx, %edx
	movq	$18, 32(%rsp)
	movq	%rax, (%rdi)
	call	_ZNSt7__cxx1112basic_stringIcSt11char_traitsIcESaIcEE9_M_createERmm@PLT
	movq	32(%rsp), %rdx
	movdqa	.LC6(%rip), %xmm0
	movq	%rax, (%rbx)
	movq	%rdx, 16(%rbx)
	movl	$11876, %edx
	movw	%dx, 16(%rax)
	movups	%xmm0, (%rax)
	movq	32(%rsp), %rax
	movq	(%rbx), %rdx
	movq	%rax, 8(%rbx)
	movb	$0, (%rdx,%rax)
	addq	$288, %rsp
	.cfi_remember_state
	.cfi_def_cfa_offset 32
	movq	%rbx, %rax
	popq	%rbx
	.cfi_def_cfa_offset 24
	popq	%rbp
	.cfi_def_cfa_offset 16
	popq	%r12
	.cfi_def_cfa_offset 8
	ret
	.p2align 4,,10
	.p2align 3
.L203:
	.cfi_restore_state
	testq	%rax, %rax
	je	.L204
	jmp	.L202
.L210:
	leaq	.LC5(%rip), %rdi
	call	_ZSt19__throw_logic_errorPKc@PLT
	.cfi_endproc
.LFE3386:
	.size	_ZNK4asio6detail15system_category7messageB5cxx11Ei, .-_ZNK4asio6detail15system_category7messageB5cxx11Ei
	.section	.text._ZNK4asio5error6detail17addrinfo_category7messageB5cxx11Ei,"axG",@progbits,_ZNK4asio5error6detail17addrinfo_category7messageB5cxx11Ei,comdat
	.align 2
	.p2align 4
	.weak	_ZNK4asio5error6detail17addrinfo_category7messageB5cxx11Ei
	.type	_ZNK4asio5error6detail17addrinfo_category7messageB5cxx11Ei, @function
_ZNK4asio5error6detail17addrinfo_category7messageB5cxx11Ei:
.LFB3440:
	.cfi_startproc
	pushq	%rbx
	.cfi_def_cfa_offset 16
	.cfi_offset 3, -16
	leaq	16(%rdi), %rax
	movq	%rdi, %rbx
	subq	$16, %rsp
	.cfi_def_cfa_offset 32
	movq	%rax, (%rdi)
	cmpl	$-8, %edx
	je	.L217
	cmpl	$-7, %edx
	je	.L218
	movq	$19, 8(%rsp)
	leaq	8(%rsp), %rsi
	xorl	%edx, %edx
	call	_ZNSt7__cxx1112basic_stringIcSt11char_traitsIcESaIcEE9_M_createERmm@PLT
	movq	8(%rsp), %rdx
	movdqa	.LC11(%rip), %xmm0
	movq	%rax, (%rbx)
	movq	%rdx, 16(%rbx)
	movups	%xmm0, (%rax)
	movl	$1919906418, 15(%rax)
	movq	8(%rsp), %rax
	movq	(%rbx), %rdx
	movq	%rax, 8(%rbx)
	movb	$0, (%rdx,%rax)
	addq	$16, %rsp
	.cfi_remember_state
	.cfi_def_cfa_offset 16
	movq	%rbx, %rax
	popq	%rbx
	.cfi_def_cfa_offset 8
	ret
	.p2align 4,,10
	.p2align 3
.L218:
	.cfi_restore_state
	movq	$25, 8(%rsp)
	leaq	8(%rsp), %rsi
	xorl	%edx, %edx
	call	_ZNSt7__cxx1112basic_stringIcSt11char_traitsIcESaIcEE9_M_createERmm@PLT
	movq	8(%rsp), %rdx
	movdqa	.LC9(%rip), %xmm0
	movq	%rax, (%rbx)
	movq	%rdx, 16(%rbx)
	movups	%xmm0, (%rax)
	movdqa	.LC10(%rip), %xmm0
	movups	%xmm0, 9(%rax)
	movq	8(%rsp), %rax
	movq	(%rbx), %rdx
	movq	%rax, 8(%rbx)
	movb	$0, (%rdx,%rax)
	addq	$16, %rsp
	.cfi_remember_state
	.cfi_def_cfa_offset 16
	movq	%rbx, %rax
	popq	%rbx
	.cfi_def_cfa_offset 8
	ret
	.p2align 4,,10
	.p2align 3
.L217:
	.cfi_restore_state
	movq	$17, 8(%rsp)
	leaq	8(%rsp), %rsi
	xorl	%edx, %edx
	call	_ZNSt7__cxx1112basic_stringIcSt11char_traitsIcESaIcEE9_M_createERmm@PLT
	movq	8(%rsp), %rdx
	movdqa	.LC8(%rip), %xmm0
	movq	%rax, (%rbx)
	movq	%rdx, 16(%rbx)
	movb	$100, 16(%rax)
	movups	%xmm0, (%rax)
	movq	8(%rsp), %rax
	movq	(%rbx), %rdx
	movq	%rax, 8(%rbx)
	movb	$0, (%rdx,%rax)
	addq	$16, %rsp
	.cfi_def_cfa_offset 16
	movq	%rbx, %rax
	popq	%rbx
	.cfi_def_cfa_offset 8
	ret
	.cfi_endproc
.LFE3440:
	.size	_ZNK4asio5error6detail17addrinfo_category7messageB5cxx11Ei, .-_ZNK4asio5error6detail17addrinfo_category7messageB5cxx11Ei
	.section	.text._ZNK4asio5error6detail14netdb_category7messageB5cxx11Ei,"axG",@progbits,_ZNK4asio5error6detail14netdb_category7messageB5cxx11Ei,comdat
	.align 2
	.p2align 4
	.weak	_ZNK4asio5error6detail14netdb_category7messageB5cxx11Ei
	.type	_ZNK4asio5error6detail14netdb_category7messageB5cxx11Ei, @function
_ZNK4asio5error6detail14netdb_category7messageB5cxx11Ei:
.LFB3430:
	.cfi_startproc
	pushq	%rbx
	.cfi_def_cfa_offset 16
	.cfi_offset 3, -16
	leaq	16(%rdi), %rax
	movq	%rdi, %rbx
	subq	$16, %rsp
	.cfi_def_cfa_offset 32
	movq	%rax, (%rdi)
	cmpl	$1, %edx
	je	.L226
	cmpl	$2, %edx
	je	.L227
	cmpl	$4, %edx
	je	.L228
	cmpl	$3, %edx
	je	.L229
	movq	$16, 8(%rsp)
	leaq	8(%rsp), %rsi
	xorl	%edx, %edx
	call	_ZNSt7__cxx1112basic_stringIcSt11char_traitsIcESaIcEE9_M_createERmm@PLT
	movq	8(%rsp), %rdx
	movdqa	.LC22(%rip), %xmm0
	movq	%rax, (%rbx)
	movq	%rdx, 16(%rbx)
	movups	%xmm0, (%rax)
	movq	8(%rsp), %rax
	movq	(%rbx), %rdx
	movq	%rax, 8(%rbx)
	movb	$0, (%rdx,%rax)
	addq	$16, %rsp
	.cfi_remember_state
	.cfi_def_cfa_offset 16
	movq	%rbx, %rax
	popq	%rbx
	.cfi_def_cfa_offset 8
	ret
	.p2align 4,,10
	.p2align 3
.L226:
	.cfi_restore_state
	movq	$30, 8(%rsp)
	leaq	8(%rsp), %rsi
	xorl	%edx, %edx
	call	_ZNSt7__cxx1112basic_stringIcSt11char_traitsIcESaIcEE9_M_createERmm@PLT
	movq	8(%rsp), %rdx
	movdqa	.LC12(%rip), %xmm0
	movq	%rax, (%rbx)
	movq	%rdx, 16(%rbx)
	movups	%xmm0, (%rax)
	movdqa	.LC13(%rip), %xmm0
	movups	%xmm0, 14(%rax)
	movq	8(%rsp), %rax
	movq	(%rbx), %rdx
	movq	%rax, 8(%rbx)
	movb	$0, (%rdx,%rax)
	addq	$16, %rsp
	.cfi_remember_state
	.cfi_def_cfa_offset 16
	movq	%rbx, %rax
	popq	%rbx
	.cfi_def_cfa_offset 8
	ret
	.p2align 4,,10
	.p2align 3
.L229:
	.cfi_restore_state
	movq	$55, 8(%rsp)
	leaq	8(%rsp), %rsi
	xorl	%edx, %edx
	call	_ZNSt7__cxx1112basic_stringIcSt11char_traitsIcESaIcEE9_M_createERmm@PLT
	movq	8(%rsp), %rdx
	movdqa	.LC19(%rip), %xmm0
	movabsq	$8103501230877974629, %rcx
	movq	%rax, (%rbx)
	movq	%rdx, 16(%rbx)
	movups	%xmm0, (%rax)
	movdqa	.LC20(%rip), %xmm0
	movups	%xmm0, 16(%rax)
	movdqa	.LC21(%rip), %xmm0
	movups	%xmm0, 32(%rax)
	movq	%rcx, 47(%rax)
	movq	8(%rsp), %rax
	movq	(%rbx), %rdx
	movq	%rax, 8(%rbx)
	movb	$0, (%rdx,%rax)
	addq	$16, %rsp
	.cfi_remember_state
	.cfi_def_cfa_offset 16
	movq	%rbx, %rax
	popq	%rbx
	.cfi_def_cfa_offset 8
	ret
	.p2align 4,,10
	.p2align 3
.L227:
	.cfi_restore_state
	movq	$51, 8(%rsp)
	leaq	8(%rsp), %rsi
	xorl	%edx, %edx
	call	_ZNSt7__cxx1112basic_stringIcSt11char_traitsIcESaIcEE9_M_createERmm@PLT
	movq	8(%rsp), %rdx
	movdqa	.LC12(%rip), %xmm0
	movq	%rax, (%rbx)
	movq	%rdx, 16(%rbx)
	movups	%xmm0, (%rax)
	movdqa	.LC14(%rip), %xmm0
	movups	%xmm0, 16(%rax)
	movdqa	.LC15(%rip), %xmm0
	movups	%xmm0, 32(%rax)
	movl	$1919251553, 47(%rax)
	movq	8(%rsp), %rax
	movq	(%rbx), %rdx
	movq	%rax, 8(%rbx)
	movb	$0, (%rdx,%rax)
	addq	$16, %rsp
	.cfi_remember_state
	.cfi_def_cfa_offset 16
	movq	%rbx, %rax
	popq	%rbx
	.cfi_def_cfa_offset 8
	ret
	.p2align 4,,10
	.p2align 3
.L228:
	.cfi_restore_state
	movq	$56, 8(%rsp)
	leaq	8(%rsp), %rsi
	xorl	%edx, %edx
	call	_ZNSt7__cxx1112basic_stringIcSt11char_traitsIcESaIcEE9_M_createERmm@PLT
	movq	8(%rsp), %rdx
	movdqa	.LC16(%rip), %xmm0
	movabsq	$7022344801645520244, %rcx
	movq	%rax, (%rbx)
	movq	%rdx, 16(%rbx)
	movups	%xmm0, (%rax)
	movdqa	.LC17(%rip), %xmm0
	movq	%rcx, 48(%rax)
	movups	%xmm0, 16(%rax)
	movdqa	.LC18(%rip), %xmm0
	movups	%xmm0, 32(%rax)
	movq	8(%rsp), %rax
	movq	(%rbx), %rdx
	movq	%rax, 8(%rbx)
	movb	$0, (%rdx,%rax)
	addq	$16, %rsp
	.cfi_def_cfa_offset 16
	movq	%rbx, %rax
	popq	%rbx
	.cfi_def_cfa_offset 8
	ret
	.cfi_endproc
.LFE3430:
	.size	_ZNK4asio5error6detail14netdb_category7messageB5cxx11Ei, .-_ZNK4asio5error6detail14netdb_category7messageB5cxx11Ei
	.section	.text._ZNK4asio5error6detail13misc_category7messageB5cxx11Ei,"axG",@progbits,_ZNK4asio5error6detail13misc_category7messageB5cxx11Ei,comdat
	.align 2
	.p2align 4
	.weak	_ZNK4asio5error6detail13misc_category7messageB5cxx11Ei
	.type	_ZNK4asio5error6detail13misc_category7messageB5cxx11Ei, @function
_ZNK4asio5error6detail13misc_category7messageB5cxx11Ei:
.LFB3450:
	.cfi_startproc
	cmpl	$1, %edx
	je	.L239
	cmpl	$2, %edx
	je	.L240
	leaq	16(%rdi), %rax
	subq	$40, %rsp
	.cfi_def_cfa_offset 48
	movq	%rax, (%rdi)
	cmpl	$3, %edx
	je	.L241
	cmpl	$4, %edx
	je	.L242
	movabsq	$8316298233121436513, %rcx
	movq	$15, 8(%rdi)
	movq	%rdi, %rax
	movq	%rcx, 16(%rdi)
	movabsq	$8245935278387127155, %rcx
	movq	%rcx, 23(%rdi)
	movb	$0, 31(%rdi)
	addq	$40, %rsp
	.cfi_def_cfa_offset 8
	ret
	.p2align 4,,10
	.p2align 3
.L239:
	leaq	16(%rdi), %rax
	movl	$1852141679, 24(%rdi)
	movabsq	$2340011850872286273, %rsi
	movq	%rax, (%rdi)
	movq	%rdi, %rax
	movq	%rsi, 16(%rdi)
	movq	$12, 8(%rdi)
	movb	$0, 28(%rdi)
	ret
	.p2align 4,,10
	.p2align 3
.L242:
	.cfi_def_cfa_offset 48
	leaq	24(%rsp), %rsi
	xorl	%edx, %edx
	movq	%rdi, 8(%rsp)
	movq	$57, 24(%rsp)
	call	_ZNSt7__cxx1112basic_stringIcSt11char_traitsIcESaIcEE9_M_createERmm@PLT
	movq	24(%rsp), %rdx
	movq	8(%rsp), %rdi
	movdqa	.LC24(%rip), %xmm0
	movq	%rax, (%rdi)
	movq	%rdx, 16(%rdi)
	movups	%xmm0, (%rax)
	movdqa	.LC25(%rip), %xmm0
	movups	%xmm0, 16(%rax)
	movdqa	.LC26(%rip), %xmm0
	movups	%xmm0, 32(%rax)
	movdqa	.LC27(%rip), %xmm0
	movups	%xmm0, 41(%rax)
	movq	24(%rsp), %rax
	movq	(%rdi), %rdx
	movq	%rax, 8(%rdi)
	movb	$0, (%rdx,%rax)
	movq	%rdi, %rax
	addq	$40, %rsp
	.cfi_def_cfa_offset 8
	ret
	.p2align 4,,10
	.p2align 3
.L240:
	leaq	16(%rdi), %rax
	movq	$11, 8(%rdi)
	movabsq	$7358994418594246213, %rsi
	movq	%rax, (%rdi)
	movq	%rdi, %rax
	movq	%rsi, 16(%rdi)
	movb	$0, 27(%rdi)
	movl	$1701603686, 23(%rdi)
	ret
	.p2align 4,,10
	.p2align 3
.L241:
	.cfi_def_cfa_offset 48
	leaq	24(%rsp), %rsi
	xorl	%edx, %edx
	movq	%rdi, 8(%rsp)
	movq	$17, 24(%rsp)
	call	_ZNSt7__cxx1112basic_stringIcSt11char_traitsIcESaIcEE9_M_createERmm@PLT
	movq	8(%rsp), %rdi
	movq	24(%rsp), %rdx
	movdqa	.LC23(%rip), %xmm0
	movq	%rax, (%rdi)
	movq	%rdx, 16(%rdi)
	movb	$100, 16(%rax)
	movups	%xmm0, (%rax)
	movq	24(%rsp), %rax
	movq	(%rdi), %rdx
	movq	%rax, 8(%rdi)
	movb	$0, (%rdx,%rax)
	movq	%rdi, %rax
	addq	$40, %rsp
	.cfi_def_cfa_offset 8
	ret
	.cfi_endproc
.LFE3450:
	.size	_ZNK4asio5error6detail13misc_category7messageB5cxx11Ei, .-_ZNK4asio5error6detail13misc_category7messageB5cxx11Ei
	.section	.text._ZN4asio6detail14strand_service7do_postERPNS1_11strand_implEPNS0_25task_io_service_operationEb,"axG",@progbits,_ZN4asio6detail14strand_service7do_postERPNS1_11strand_implEPNS0_25task_io_service_operationEb,comdat
	.align 2
	.p2align 4
	.weak	_ZN4asio6detail14strand_service7do_postERPNS1_11strand_implEPNS0_25task_io_service_operationEb
	.type	_ZN4asio6detail14strand_service7do_postERPNS1_11strand_implEPNS0_25task_io_service_operationEb, @function
_ZN4asio6detail14strand_service7do_postERPNS1_11strand_implEPNS0_25task_io_service_operationEb:
.LFB7198:
	.cfi_startproc
	pushq	%r15
	.cfi_def_cfa_offset 16
	.cfi_offset 15, -16
	movq	%rdx, %xmm0
	movl	%ecx, %r15d
	pushq	%r14
	.cfi_def_cfa_offset 24
	.cfi_offset 14, -24
	punpcklqdq	%xmm0, %xmm0
	movq	%rdi, %r14
	pushq	%rbp
	.cfi_def_cfa_offset 32
	.cfi_offset 6, -32
	movq	%rsi, %rbp
	pushq	%rbx
	.cfi_def_cfa_offset 40
	.cfi_offset 3, -40
	movq	%rdx, %rbx
	subq	$56, %rsp
	.cfi_def_cfa_offset 96
	movq	(%rsi), %rax
	movaps	%xmm0, (%rsp)
	leaq	24(%rax), %rdi
	call	pthread_mutex_lock@PLT
	movq	0(%rbp), %rdi
	cmpb	$0, 64(%rdi)
	je	.L244
	movq	80(%rdi), %rax
	movq	$0, (%rbx)
	testq	%rax, %rax
	je	.L245
	movq	%rbx, (%rax)
	movq	%rbx, 80(%rdi)
.L246:
	addq	$24, %rdi
.L269:
	addq	$56, %rsp
	.cfi_remember_state
	.cfi_def_cfa_offset 40
	popq	%rbx
	.cfi_def_cfa_offset 32
	popq	%rbp
	.cfi_def_cfa_offset 24
	popq	%r14
	.cfi_def_cfa_offset 16
	popq	%r15
	.cfi_def_cfa_offset 8
	jmp	pthread_mutex_unlock@PLT
	.p2align 4,,10
	.p2align 3
.L245:
	.cfi_restore_state
	movdqa	(%rsp), %xmm2
	movups	%xmm2, 72(%rdi)
	jmp	.L246
	.p2align 4,,10
	.p2align 3
.L244:
	movb	$1, 64(%rdi)
	addq	$24, %rdi
	call	pthread_mutex_unlock@PLT
	movq	0(%rbp), %rbp
	movq	$0, (%rbx)
	movq	%rbp, %xmm1
	movq	96(%rbp), %rax
	punpcklqdq	%xmm1, %xmm1
	movaps	%xmm1, 16(%rsp)
	testq	%rax, %rax
	je	.L247
	movq	%rbx, (%rax)
	movq	%rbx, 96(%rbp)
.L248:
	movq	40(%r14), %rbx
	cmpb	$0, 40(%rbx)
	jne	.L260
	testb	%r15b, %r15b
	je	.L249
.L260:
	data16	leaq	_ZN4asio6detail15keyword_tss_ptrINS0_10call_stackINS0_15task_io_serviceENS0_27task_io_service_thread_infoEE7contextEE6value_E@tlsgd(%rip), %rdi
	.value	0x6666
	rex64
	call	__tls_get_addr@PLT
	movq	(%rax), %rax
	testq	%rax, %rax
	jne	.L253
	jmp	.L249
	.p2align 4
	.p2align 4,,10
	.p2align 3
.L251:
	movq	16(%rax), %rax
	testq	%rax, %rax
	je	.L249
.L253:
	cmpq	(%rax), %rbx
	jne	.L251
	movq	8(%rax), %rax
	testq	%rax, %rax
	je	.L249
	movq	16(%rax), %rdx
	addq	$1, 24(%rax)
	movq	$0, 0(%rbp)
	testq	%rdx, %rdx
	je	.L254
	movq	%rbp, (%rdx)
	movq	%rbp, 16(%rax)
.L243:
	addq	$56, %rsp
	.cfi_remember_state
	.cfi_def_cfa_offset 40
	popq	%rbx
	.cfi_def_cfa_offset 32
	popq	%rbp
	.cfi_def_cfa_offset 24
	popq	%r14
	.cfi_def_cfa_offset 16
	popq	%r15
	.cfi_def_cfa_offset 8
	ret
	.p2align 4,,10
	.p2align 3
.L249:
	.cfi_restore_state
	lock addq	$1, 184(%rbx)
	leaq	48(%rbx), %r8
	movq	%r8, %rdi
	movq	%r8, (%rsp)
	call	pthread_mutex_lock@PLT
	movq	200(%rbx), %rax
	movq	(%rsp), %r8
	movq	$0, 0(%rbp)
	testq	%rax, %rax
	je	.L256
	movq	%rbp, (%rax)
	movq	%rbp, 200(%rbx)
.L257:
	movq	136(%rbx), %rax
	movq	%rax, %rcx
	orq	$1, %rcx
	movq	%rcx, 136(%rbx)
	cmpq	$1, %rax
	jbe	.L258
	movq	%r8, %rdi
	call	pthread_mutex_unlock@PLT
	addq	$56, %rsp
	.cfi_remember_state
	.cfi_def_cfa_offset 40
	leaq	88(%rbx), %rdi
	popq	%rbx
	.cfi_def_cfa_offset 32
	popq	%rbp
	.cfi_def_cfa_offset 24
	popq	%r14
	.cfi_def_cfa_offset 16
	popq	%r15
	.cfi_def_cfa_offset 8
	jmp	pthread_cond_signal@PLT
	.p2align 4,,10
	.p2align 3
.L247:
	.cfi_restore_state
	movdqa	(%rsp), %xmm3
	movups	%xmm3, 88(%rbp)
	jmp	.L248
	.p2align 4,,10
	.p2align 3
.L258:
	cmpb	$0, 176(%rbx)
	jne	.L259
	movq	144(%rbx), %rax
	testq	%rax, %rax
	je	.L259
	leaq	88(%rax), %rdx
	movl	96(%rax), %edi
	leaq	36(%rsp), %rcx
	movq	%r8, (%rsp)
	movb	$1, 176(%rbx)
	movl	$3, %esi
	movq	%rdx, 40(%rsp)
	movl	88(%rax), %edx
	movl	$-2147483639, 36(%rsp)
	call	epoll_ctl@PLT
	movq	(%rsp), %r8
.L259:
	movq	%r8, %rdi
	jmp	.L269
	.p2align 4,,10
	.p2align 3
.L256:
	movdqa	16(%rsp), %xmm4
	movups	%xmm4, 192(%rbx)
	jmp	.L257
	.p2align 4,,10
	.p2align 3
.L254:
	movdqa	16(%rsp), %xmm5
	movups	%xmm5, 8(%rax)
	jmp	.L243
	.cfi_endproc
.LFE7198:
	.size	_ZN4asio6detail14strand_service7do_postERPNS1_11strand_implEPNS0_25task_io_service_operationEb, .-_ZN4asio6detail14strand_service7do_postERPNS1_11strand_implEPNS0_25task_io_service_operationEb
	.text
	.align 2
	.p2align 4
	.globl	_ZN8asiodnp318MasterSessionStack13SetLogFiltersERKN7openpal10LogFiltersE
	.type	_ZN8asiodnp318MasterSessionStack13SetLogFiltersERKN7openpal10LogFiltersE, @function
_ZN8asiodnp318MasterSessionStack13SetLogFiltersERKN7openpal10LogFiltersE:
.LFB8016:
	.cfi_startproc
	pushq	%r13
	.cfi_def_cfa_offset 16
	.cfi_offset 13, -16
	pushq	%r12
	.cfi_def_cfa_offset 24
	.cfi_offset 12, -24
	pushq	%rbp
	.cfi_def_cfa_offset 32
	.cfi_offset 6, -32
	movq	%rdi, %rbp
	pushq	%rbx
	.cfi_def_cfa_offset 40
	.cfi_offset 3, -40
	subq	$8, %rsp
	.cfi_def_cfa_offset 48
	movq	32(%rdi), %rbx
	movl	(%rsi), %r13d
	data16	leaq	_ZN4asio6detail15keyword_tss_ptrINS0_10call_stackINS0_15task_io_serviceENS0_27task_io_service_thread_infoEE7contextEE6value_E@tlsgd(%rip), %rdi
	.value	0x6666
	rex64
	call	__tls_get_addr@PLT
	movq	40(%rbx), %r12
	addq	$48, %rbx
	movq	(%rax), %rax
	testq	%rax, %rax
	je	.L271
	movq	8(%rax), %rax
	testq	%rax, %rax
	je	.L271
	movq	(%rax), %rdx
	testq	%rdx, %rdx
	je	.L271
	movq	$0, (%rax)
	movzbl	(%rdx), %eax
	cmpb	$39, %al
	jbe	.L272
	movb	%al, 40(%rdx)
	jmp	.L273
	.p2align 4,,10
	.p2align 3
.L272:
	movq	%rdx, %rdi
	call	_ZdlPv@PLT
.L271:
	movl	$41, %edi
	call	_Znwm@PLT
	movb	$40, 40(%rax)
	movq	%rax, %rdx
.L273:
	leaq	_ZN4asio6detail18completion_handlerIZN8asiodnp318MasterSessionStack13SetLogFiltersERKN7openpal10LogFiltersEEUlvE_E11do_completeEPNS0_15task_io_serviceEPNS0_25task_io_service_operationERKSt10error_codem(%rip), %rax
	movq	%rbp, 24(%rdx)
	movq	%rbx, %rsi
	xorl	%ecx, %ecx
	movq	$0, (%rdx)
	movq	%r12, %rdi
	movq	%rax, 8(%rdx)
	movl	$0, 16(%rdx)
	movl	%r13d, 32(%rdx)
	addq	$8, %rsp
	.cfi_def_cfa_offset 40
	popq	%rbx
	.cfi_def_cfa_offset 32
	popq	%rbp
	.cfi_def_cfa_offset 24
	popq	%r12
	.cfi_def_cfa_offset 16
	popq	%r13
	.cfi_def_cfa_offset 8
	jmp	_ZN4asio6detail14strand_service7do_postERPNS1_11strand_implEPNS0_25task_io_service_operationEb@PLT
	.cfi_endproc
.LFE8016:
	.size	_ZN8asiodnp318MasterSessionStack13SetLogFiltersERKN7openpal10LogFiltersE, .-_ZN8asiodnp318MasterSessionStack13SetLogFiltersERKN7openpal10LogFiltersE
	.align 2
	.p2align 4
	.globl	_ZNK8asiodnp318MasterSessionStack16CreateStatisticsEv
	.type	_ZNK8asiodnp318MasterSessionStack16CreateStatisticsEv, @function
_ZNK8asiodnp318MasterSessionStack16CreateStatisticsEv:
.LFB8206:
	.cfi_startproc
	pushq	%rbp
	.cfi_def_cfa_offset 16
	.cfi_offset 6, -16
	movq	%rsi, %rbp
	pushq	%rbx
	.cfi_def_cfa_offset 24
	.cfi_offset 3, -24
	movq	%rdi, %rbx
	subq	$40, %rsp
	.cfi_def_cfa_offset 64
	movq	64(%rsi), %rsi
	movq	%rsp, %rdi
	call	_ZNK8opendnp314TransportLayer13GetStatisticsEv@PLT
	movq	80(%rbp), %rdi
	call	_ZNK8opendnp39LinkLayer13GetStatisticsEv@PLT
	movdqu	(%rax), %xmm0
	movq	16(%rsp), %rax
	movups	%xmm0, (%rbx)
	movdqa	(%rsp), %xmm0
	movq	%rax, 32(%rbx)
	movq	%rbx, %rax
	movups	%xmm0, 16(%rbx)
	addq	$40, %rsp
	.cfi_def_cfa_offset 24
	popq	%rbx
	.cfi_def_cfa_offset 16
	popq	%rbp
	.cfi_def_cfa_offset 8
	ret
	.cfi_endproc
.LFE8206:
	.size	_ZNK8asiodnp318MasterSessionStack16CreateStatisticsEv, .-_ZNK8asiodnp318MasterSessionStack16CreateStatisticsEv
	.p2align 4
	.type	_ZNSt17_Function_handlerIFN8opendnp315StackStatisticsEvEZN8asiodnp318MasterSessionStack18GetStackStatisticsEvEUlvE_E9_M_invokeERKSt9_Any_data, @function
_ZNSt17_Function_handlerIFN8opendnp315StackStatisticsEvEZN8asiodnp318MasterSessionStack18GetStackStatisticsEvEUlvE_E9_M_invokeERKSt9_Any_data:
.LFB9839:
	.cfi_startproc
	pushq	%rbx
	.cfi_def_cfa_offset 16
	.cfi_offset 3, -16
	movq	(%rsi), %rax
	movq	%rdi, %rbx
	movq	(%rax), %rsi
	call	_ZNK8asiodnp318MasterSessionStack16CreateStatisticsEv@PLT
	movq	%rbx, %rax
	popq	%rbx
	.cfi_def_cfa_offset 8
	ret
	.cfi_endproc
.LFE9839:
	.size	_ZNSt17_Function_handlerIFN8opendnp315StackStatisticsEvEZN8asiodnp318MasterSessionStack18GetStackStatisticsEvEUlvE_E9_M_invokeERKSt9_Any_data, .-_ZNSt17_Function_handlerIFN8opendnp315StackStatisticsEvEZN8asiodnp318MasterSessionStack18GetStackStatisticsEvEUlvE_E9_M_invokeERKSt9_Any_data
	.section	.text._ZNSt16_Sp_counted_baseILN9__gnu_cxx12_Lock_policyE2EE24_M_release_last_use_coldEv,"axG",@progbits,_ZNSt16_Sp_counted_baseILN9__gnu_cxx12_Lock_policyE2EE24_M_release_last_use_coldEv,comdat
	.align 2
	.p2align 4
	.weak	_ZNSt16_Sp_counted_baseILN9__gnu_cxx12_Lock_policyE2EE24_M_release_last_use_coldEv
	.type	_ZNSt16_Sp_counted_baseILN9__gnu_cxx12_Lock_policyE2EE24_M_release_last_use_coldEv, @function
_ZNSt16_Sp_counted_baseILN9__gnu_cxx12_Lock_policyE2EE24_M_release_last_use_coldEv:
.LFB8213:
	.cfi_startproc
	pushq	%rbx
	.cfi_def_cfa_offset 16
	.cfi_offset 3, -16
	movq	(%rdi), %rax
	movq	%rdi, %rbx
	call	*16(%rax)
	movq	__libc_single_threaded@GOTPCREL(%rip), %rax
	cmpb	$0, (%rax)
	je	.L289
	movl	12(%rbx), %eax
	leal	-1(%rax), %edx
	movl	%edx, 12(%rbx)
.L290:
	cmpl	$1, %eax
	je	.L293
	popq	%rbx
	.cfi_remember_state
	.cfi_def_cfa_offset 8
	ret
	.p2align 4,,10
	.p2align 3
.L293:
	.cfi_restore_state
	movq	(%rbx), %rax
	movq	%rbx, %rdi
	popq	%rbx
	.cfi_remember_state
	.cfi_def_cfa_offset 8
	movq	24(%rax), %rax
	jmp	*%rax
	.p2align 4,,10
	.p2align 3
.L289:
	.cfi_restore_state
	movl	$-1, %eax
	lock xaddl	%eax, 12(%rbx)
	jmp	.L290
	.cfi_endproc
.LFE8213:
	.size	_ZNSt16_Sp_counted_baseILN9__gnu_cxx12_Lock_policyE2EE24_M_release_last_use_coldEv, .-_ZNSt16_Sp_counted_baseILN9__gnu_cxx12_Lock_policyE2EE24_M_release_last_use_coldEv
	.section	.text._ZNSt16_Sp_counted_baseILN9__gnu_cxx12_Lock_policyE2EE10_M_releaseEv,"axG",@progbits,_ZNSt16_Sp_counted_baseILN9__gnu_cxx12_Lock_policyE2EE10_M_releaseEv,comdat
	.align 2
	.p2align 4
	.weak	_ZNSt16_Sp_counted_baseILN9__gnu_cxx12_Lock_policyE2EE10_M_releaseEv
	.type	_ZNSt16_Sp_counted_baseILN9__gnu_cxx12_Lock_policyE2EE10_M_releaseEv, @function
_ZNSt16_Sp_counted_baseILN9__gnu_cxx12_Lock_policyE2EE10_M_releaseEv:
.LFB1292:
	.cfi_startproc
	movabsq	$4294967297, %rax
	movq	8(%rdi), %rdx
	cmpq	%rax, %rdx
	je	.L302
	movq	__libc_single_threaded@GOTPCREL(%rip), %rax
	cmpb	$0, (%rax)
	je	.L296
	movl	8(%rdi), %eax
	leal	-1(%rax), %edx
	movl	%edx, 8(%rdi)
.L297:
	cmpl	$1, %eax
	je	.L303
	ret
	.p2align 4,,10
	.p2align 3
.L296:
	leaq	8(%rdi), %rcx
	movl	$-1, %eax
	lock xaddl	%eax, (%rcx)
	jmp	.L297
	.p2align 4,,10
	.p2align 3
.L302:
	subq	$24, %rsp
	.cfi_def_cfa_offset 32
	movq	(%rdi), %rax
	movq	$0, 8(%rdi)
	movq	%rdi, 8(%rsp)
	call	*16(%rax)
	movq	8(%rsp), %rdi
	movq	(%rdi), %rax
	movq	24(%rax), %rax
	addq	$24, %rsp
	.cfi_def_cfa_offset 8
	jmp	*%rax
	.p2align 4,,10
	.p2align 3
.L303:
	jmp	_ZNSt16_Sp_counted_baseILN9__gnu_cxx12_Lock_policyE2EE24_M_release_last_use_coldEv@PLT
	.cfi_endproc
.LFE1292:
	.size	_ZNSt16_Sp_counted_baseILN9__gnu_cxx12_Lock_policyE2EE10_M_releaseEv, .-_ZNSt16_Sp_counted_baseILN9__gnu_cxx12_Lock_policyE2EE10_M_releaseEv
	.section	.text.unlikely
	.align 2
.LCOLDB28:
	.text
.LHOTB28:
	.align 2
	.p2align 4
	.globl	_ZN8asiodnp318MasterSessionStack14ScanAllObjectsEN8opendnp316GroupVariationIDERKNS1_10TaskConfigE
	.type	_ZN8asiodnp318MasterSessionStack14ScanAllObjectsEN8opendnp316GroupVariationIDERKNS1_10TaskConfigE, @function
_ZN8asiodnp318MasterSessionStack14ScanAllObjectsEN8opendnp316GroupVariationIDERKNS1_10TaskConfigE:
.LFB8123:
	.cfi_startproc
	.cfi_personality 0x9b,DW.ref.__gxx_personality_v0
	.cfi_lsda 0x1b,.LLSDA8123
	pushq	%r14
	.cfi_def_cfa_offset 16
	.cfi_offset 14, -16
	pushq	%r12
	.cfi_def_cfa_offset 24
	.cfi_offset 12, -24
	pushq	%rbp
	.cfi_def_cfa_offset 32
	.cfi_offset 6, -32
	pushq	%rbx
	.cfi_def_cfa_offset 40
	.cfi_offset 3, -40
	subq	$56, %rsp
	.cfi_def_cfa_offset 96
	movq	24(%rdi), %rbx
	testq	%rbx, %rbx
	je	.L306
	movl	8(%rbx), %eax
	leaq	8(%rbx), %rcx
.L308:
	testl	%eax, %eax
	je	.L306
	leal	1(%rax), %r8d
	lock cmpxchgl	%r8d, (%rcx)
	jne	.L308
	movq	16(%rdi), %r14
	movq	32(%rdi), %rbp
	movq	__libc_single_threaded@GOTPCREL(%rip), %rdi
	movl	(%rdx), %ecx
	movzbl	4(%rdx), %eax
	movq	8(%rdx), %rdx
	cmpb	$0, (%rdi)
	je	.L331
	addl	$1, 8(%rbx)
.L309:
	movw	%si, 16(%rsp)
	movq	40(%rbp), %r12
	movl	%ecx, 24(%rsp)
	movb	%al, 28(%rsp)
	movq	%rdx, 32(%rsp)
	data16	leaq	_ZN4asio6detail15keyword_tss_ptrINS0_10call_stackINS0_15task_io_serviceENS0_27task_io_service_thread_infoEE7contextEE6value_E@tlsgd(%rip), %rdi
	.value	0x6666
	rex64
	call	__tls_get_addr@PLT
	movq	(%rax), %rax
	testq	%rax, %rax
	je	.L310
	movq	8(%rax), %rax
	testq	%rax, %rax
	je	.L310
	movq	(%rax), %rdx
	testq	%rdx, %rdx
	je	.L310
	movq	$0, (%rax)
	movzbl	(%rdx), %eax
	cmpb	$63, %al
	jbe	.L311
	movb	%al, 64(%rdx)
	jmp	.L312
	.p2align 4,,10
	.p2align 3
.L311:
	movq	%rdx, %rdi
	call	_ZdlPv@PLT
.L310:
	movl	$65, %edi
.LEHB13:
	call	_Znwm@PLT
.LEHE13:
	movb	$64, 64(%rax)
	movq	%rax, %rdx
.L312:
	movq	%rbx, %xmm1
	movq	%r14, %xmm0
	movq	%r12, %rdi
	xorl	%ecx, %ecx
	leaq	_ZN4asio6detail18completion_handlerIZN8asiodnp318MasterSessionStack14ScanAllObjectsEN8opendnp316GroupVariationIDERKNS4_10TaskConfigEEUlvE_E11do_completeEPNS0_15task_io_serviceEPNS0_25task_io_service_operationERKSt10error_codem(%rip), %rax
	punpcklqdq	%xmm1, %xmm0
	leaq	48(%rbp), %rsi
	movq	$0, (%rdx)
	movq	%rax, 8(%rdx)
	movzwl	16(%rsp), %eax
	movups	%xmm0, 24(%rdx)
	movdqu	24(%rsp), %xmm0
	movl	$0, 16(%rdx)
	movw	%ax, 40(%rdx)
	movups	%xmm0, 48(%rdx)
	call	_ZN4asio6detail14strand_service7do_postERPNS1_11strand_implEPNS0_25task_io_service_operationEb@PLT
	addq	$56, %rsp
	.cfi_remember_state
	.cfi_def_cfa_offset 40
	movq	%rbx, %rdi
	popq	%rbx
	.cfi_def_cfa_offset 32
	popq	%rbp
	.cfi_def_cfa_offset 24
	popq	%r12
	.cfi_def_cfa_offset 16
	popq	%r14
	.cfi_def_cfa_offset 8
.LEHB14:
	jmp	_ZNSt16_Sp_counted_baseILN9__gnu_cxx12_Lock_policyE2EE10_M_releaseEv@PLT
.LEHE14:
	.p2align 4,,10
	.p2align 3
.L331:
	.cfi_restore_state
	lock addl	$1, 8(%rbx)
	jmp	.L309
.L316:
	movq	%rax, %rbp
	jmp	.L313
	.section	.gcc_except_table
.LLSDA8123:
	.byte	0xff
	.byte	0xff
	.byte	0x1
	.uleb128 .LLSDACSE8123-.LLSDACSB8123
.LLSDACSB8123:
	.uleb128 .LEHB13-.LFB8123
	.uleb128 .LEHE13-.LEHB13
	.uleb128 .L316-.LFB8123
	.uleb128 0
	.uleb128 .LEHB14-.LFB8123
	.uleb128 .LEHE14-.LEHB14
	.uleb128 0
	.uleb128 0
.LLSDACSE8123:
	.text
	.cfi_endproc
	.section	.text.unlikely
	.cfi_startproc
	.cfi_personality 0x9b,DW.ref.__gxx_personality_v0
	.cfi_lsda 0x1b,.LLSDAC8123
	.type	_ZN8asiodnp318MasterSessionStack14ScanAllObjectsEN8opendnp316GroupVariationIDERKNS1_10TaskConfigE.cold, @function
_ZN8asiodnp318MasterSessionStack14ScanAllObjectsEN8opendnp316GroupVariationIDERKNS1_10TaskConfigE.cold:
.LFSB8123:
.L306:
	.cfi_def_cfa_offset 96
	.cfi_offset 3, -40
	.cfi_offset 6, -32
	.cfi_offset 12, -24
	.cfi_offset 14, -16
	movl	$8, %edi
	call	__cxa_allocate_exception@PLT
	movq	_ZTVSt12bad_weak_ptr@GOTPCREL(%rip), %rdx
	movq	_ZTISt12bad_weak_ptr@GOTPCREL(%rip), %rsi
	movq	%rax, %rdi
	addq	$16, %rdx
	movq	%rdx, (%rax)
	movq	_ZNSt12bad_weak_ptrD1Ev@GOTPCREL(%rip), %rdx
.LEHB15:
	call	__cxa_throw@PLT
.L313:
	movq	%rbx, %rdi
	call	_ZNSt16_Sp_counted_baseILN9__gnu_cxx12_Lock_policyE2EE10_M_releaseEv@PLT
	movq	%rbx, %rdi
	call	_ZNSt16_Sp_counted_baseILN9__gnu_cxx12_Lock_policyE2EE10_M_releaseEv@PLT
	movq	%rbp, %rdi
	call	_Unwind_Resume@PLT
.LEHE15:
	.cfi_endproc
.LFE8123:
	.section	.gcc_except_table
.LLSDAC8123:
	.byte	0xff
	.byte	0xff
	.byte	0x1
	.uleb128 .LLSDACSEC8123-.LLSDACSBC8123
.LLSDACSBC8123:
	.uleb128 .LEHB15-.LCOLDB28
	.uleb128 .LEHE15-.LEHB15
	.uleb128 0
	.uleb128 0
.LLSDACSEC8123:
	.section	.text.unlikely
	.text
	.size	_ZN8asiodnp318MasterSessionStack14ScanAllObjectsEN8opendnp316GroupVariationIDERKNS1_10TaskConfigE, .-_ZN8asiodnp318MasterSessionStack14ScanAllObjectsEN8opendnp316GroupVariationIDERKNS1_10TaskConfigE
	.section	.text.unlikely
	.size	_ZN8asiodnp318MasterSessionStack14ScanAllObjectsEN8opendnp316GroupVariationIDERKNS1_10TaskConfigE.cold, .-_ZN8asiodnp318MasterSessionStack14ScanAllObjectsEN8opendnp316GroupVariationIDERKNS1_10TaskConfigE.cold
.LCOLDE28:
	.text
.LHOTE28:
	.section	.text.unlikely
	.align 2
.LCOLDB29:
	.text
.LHOTB29:
	.align 2
	.p2align 4
	.globl	_ZN8asiodnp318MasterSessionStack11ScanClassesERKN8opendnp310ClassFieldERKNS1_10TaskConfigE
	.type	_ZN8asiodnp318MasterSessionStack11ScanClassesERKN8opendnp310ClassFieldERKNS1_10TaskConfigE, @function
_ZN8asiodnp318MasterSessionStack11ScanClassesERKN8opendnp310ClassFieldERKNS1_10TaskConfigE:
.LFB8131:
	.cfi_startproc
	.cfi_personality 0x9b,DW.ref.__gxx_personality_v0
	.cfi_lsda 0x1b,.LLSDA8131
	pushq	%r14
	.cfi_def_cfa_offset 16
	.cfi_offset 14, -16
	pushq	%r12
	.cfi_def_cfa_offset 24
	.cfi_offset 12, -24
	pushq	%rbp
	.cfi_def_cfa_offset 32
	.cfi_offset 6, -32
	pushq	%rbx
	.cfi_def_cfa_offset 40
	.cfi_offset 3, -40
	subq	$56, %rsp
	.cfi_def_cfa_offset 96
	movq	24(%rdi), %rbx
	testq	%rbx, %rbx
	je	.L334
	movl	8(%rbx), %eax
	leaq	8(%rbx), %rcx
.L336:
	testl	%eax, %eax
	je	.L334
	leal	1(%rax), %r8d
	lock cmpxchgl	%r8d, (%rcx)
	jne	.L336
	movzbl	(%rsi), %r8d
	movzbl	4(%rdx), %ecx
	movl	(%rdx), %esi
	movq	8(%rdx), %rax
	movq	__libc_single_threaded@GOTPCREL(%rip), %rdx
	movq	16(%rdi), %r14
	movq	32(%rdi), %rbp
	cmpb	$0, (%rdx)
	je	.L359
	addl	$1, 8(%rbx)
.L337:
	movb	%r8b, 16(%rsp)
	movq	40(%rbp), %r12
	movl	%esi, 24(%rsp)
	movb	%cl, 28(%rsp)
	movq	%rax, 32(%rsp)
	data16	leaq	_ZN4asio6detail15keyword_tss_ptrINS0_10call_stackINS0_15task_io_serviceENS0_27task_io_service_thread_infoEE7contextEE6value_E@tlsgd(%rip), %rdi
	.value	0x6666
	rex64
	call	__tls_get_addr@PLT
	movq	(%rax), %rax
	testq	%rax, %rax
	je	.L338
	movq	8(%rax), %rax
	testq	%rax, %rax
	je	.L338
	movq	(%rax), %rdx
	testq	%rdx, %rdx
	je	.L338
	movq	$0, (%rax)
	movzbl	(%rdx), %eax
	cmpb	$63, %al
	jbe	.L339
	movb	%al, 64(%rdx)
	jmp	.L340
	.p2align 4,,10
	.p2align 3
.L339:
	movq	%rdx, %rdi
	call	_ZdlPv@PLT
.L338:
	movl	$65, %edi
.LEHB16:
	call	_Znwm@PLT
.LEHE16:
	movb	$64, 64(%rax)
	movq	%rax, %rdx
.L340:
	movq	%rbx, %xmm1
	movq	%r14, %xmm0
	movq	%r12, %rdi
	xorl	%ecx, %ecx
	leaq	_ZN4asio6detail18completion_handlerIZN8asiodnp318MasterSessionStack11ScanClassesERKN8opendnp310ClassFieldERKNS4_10TaskConfigEEUlvE_E11do_completeEPNS0_15task_io_serviceEPNS0_25task_io_service_operationERKSt10error_codem(%rip), %rax
	punpcklqdq	%xmm1, %xmm0
	leaq	48(%rbp), %rsi
	movq	$0, (%rdx)
	movq	%rax, 8(%rdx)
	movzbl	16(%rsp), %eax
	movups	%xmm0, 24(%rdx)
	movdqu	24(%rsp), %xmm0
	movl	$0, 16(%rdx)
	movb	%al, 40(%rdx)
	movups	%xmm0, 48(%rdx)
	call	_ZN4asio6detail14strand_service7do_postERPNS1_11strand_implEPNS0_25task_io_service_operationEb@PLT
	addq	$56, %rsp
	.cfi_remember_state
	.cfi_def_cfa_offset 40
	movq	%rbx, %rdi
	popq	%rbx
	.cfi_def_cfa_offset 32
	popq	%rbp
	.cfi_def_cfa_offset 24
	popq	%r12
	.cfi_def_cfa_offset 16
	popq	%r14
	.cfi_def_cfa_offset 8
.LEHB17:
	jmp	_ZNSt16_Sp_counted_baseILN9__gnu_cxx12_Lock_policyE2EE10_M_releaseEv@PLT
.LEHE17:
	.p2align 4,,10
	.p2align 3
.L359:
	.cfi_restore_state
	lock addl	$1, 8(%rbx)
	jmp	.L337
.L344:
	movq	%rax, %rbp
	jmp	.L341
	.section	.gcc_except_table
.LLSDA8131:
	.byte	0xff
	.byte	0xff
	.byte	0x1
	.uleb128 .LLSDACSE8131-.LLSDACSB8131
.LLSDACSB8131:
	.uleb128 .LEHB16-.LFB8131
	.uleb128 .LEHE16-.LEHB16
	.uleb128 .L344-.LFB8131
	.uleb128 0
	.uleb128 .LEHB17-.LFB8131
	.uleb128 .LEHE17-.LEHB17
	.uleb128 0
	.uleb128 0
.LLSDACSE8131:
	.text
	.cfi_endproc
	.section	.text.unlikely
	.cfi_startproc
	.cfi_personality 0x9b,DW.ref.__gxx_personality_v0
	.cfi_lsda 0x1b,.LLSDAC8131
	.type	_ZN8asiodnp318MasterSessionStack11ScanClassesERKN8opendnp310ClassFieldERKNS1_10TaskConfigE.cold, @function
_ZN8asiodnp318MasterSessionStack11ScanClassesERKN8opendnp310ClassFieldERKNS1_10TaskConfigE.cold:
.LFSB8131:
.L334:
	.cfi_def_cfa_offset 96
	.cfi_offset 3, -40
	.cfi_offset 6, -32
	.cfi_offset 12, -24
	.cfi_offset 14, -16
	movl	$8, %edi
	call	__cxa_allocate_exception@PLT
	movq	_ZTVSt12bad_weak_ptr@GOTPCREL(%rip), %rdx
	movq	_ZTISt12bad_weak_ptr@GOTPCREL(%rip), %rsi
	movq	%rax, %rdi
	addq	$16, %rdx
	movq	%rdx, (%rax)
	movq	_ZNSt12bad_weak_ptrD1Ev@GOTPCREL(%rip), %rdx
.LEHB18:
	call	__cxa_throw@PLT
.L341:
	movq	%rbx, %rdi
	call	_ZNSt16_Sp_counted_baseILN9__gnu_cxx12_Lock_policyE2EE10_M_releaseEv@PLT
	movq	%rbx, %rdi
	call	_ZNSt16_Sp_counted_baseILN9__gnu_cxx12_Lock_policyE2EE10_M_releaseEv@PLT
	movq	%rbp, %rdi
	call	_Unwind_Resume@PLT
.LEHE18:
	.cfi_endproc
.LFE8131:
	.section	.gcc_except_table
.LLSDAC8131:
	.byte	0xff
	.byte	0xff
	.byte	0x1
	.uleb128 .LLSDACSEC8131-.LLSDACSBC8131
.LLSDACSBC8131:
	.uleb128 .LEHB18-.LCOLDB29
	.uleb128 .LEHE18-.LEHB18
	.uleb128 0
	.uleb128 0
.LLSDACSEC8131:
	.section	.text.unlikely
	.text
	.size	_ZN8asiodnp318MasterSessionStack11ScanClassesERKN8opendnp310ClassFieldERKNS1_10TaskConfigE, .-_ZN8asiodnp318MasterSessionStack11ScanClassesERKN8opendnp310ClassFieldERKNS1_10TaskConfigE
	.section	.text.unlikely
	.size	_ZN8asiodnp318MasterSessionStack11ScanClassesERKN8opendnp310ClassFieldERKNS1_10TaskConfigE.cold, .-_ZN8asiodnp318MasterSessionStack11ScanClassesERKN8opendnp310ClassFieldERKNS1_10TaskConfigE.cold
.LCOLDE29:
	.text
.LHOTE29:
	.section	.text.unlikely
	.align 2
.LCOLDB30:
	.text
.LHOTB30:
	.align 2
	.p2align 4
	.globl	_ZN8asiodnp318MasterSessionStack9ScanRangeEN8opendnp316GroupVariationIDEttRKNS1_10TaskConfigE
	.type	_ZN8asiodnp318MasterSessionStack9ScanRangeEN8opendnp316GroupVariationIDEttRKNS1_10TaskConfigE, @function
_ZN8asiodnp318MasterSessionStack9ScanRangeEN8opendnp316GroupVariationIDEttRKNS1_10TaskConfigE:
.LFB8139:
	.cfi_startproc
	.cfi_personality 0x9b,DW.ref.__gxx_personality_v0
	.cfi_lsda 0x1b,.LLSDA8139
	pushq	%r15
	.cfi_def_cfa_offset 16
	.cfi_offset 15, -16
	pushq	%r14
	.cfi_def_cfa_offset 24
	.cfi_offset 14, -24
	pushq	%r13
	.cfi_def_cfa_offset 32
	.cfi_offset 13, -32
	pushq	%r12
	.cfi_def_cfa_offset 40
	.cfi_offset 12, -40
	pushq	%rbp
	.cfi_def_cfa_offset 48
	.cfi_offset 6, -48
	pushq	%rbx
	.cfi_def_cfa_offset 56
	.cfi_offset 3, -56
	subq	$56, %rsp
	.cfi_def_cfa_offset 112
	movq	24(%rdi), %rbx
	testq	%rbx, %rbx
	je	.L362
	movl	8(%rbx), %eax
	movl	%edx, %r12d
	movl	%ecx, %r13d
	leaq	8(%rbx), %rdx
.L364:
	testl	%eax, %eax
	je	.L362
	leal	1(%rax), %ecx
	lock cmpxchgl	%ecx, (%rdx)
	jne	.L364
	movq	16(%rdi), %r15
	movq	32(%rdi), %rbp
	movq	__libc_single_threaded@GOTPCREL(%rip), %rdi
	movl	(%r8), %ecx
	movzbl	4(%r8), %edx
	movq	8(%r8), %rax
	cmpb	$0, (%rdi)
	je	.L387
	addl	$1, 8(%rbx)
.L365:
	movw	%si, 16(%rsp)
	movq	40(%rbp), %r14
	movl	%ecx, 24(%rsp)
	movb	%dl, 28(%rsp)
	movq	%rax, 32(%rsp)
	data16	leaq	_ZN4asio6detail15keyword_tss_ptrINS0_10call_stackINS0_15task_io_serviceENS0_27task_io_service_thread_infoEE7contextEE6value_E@tlsgd(%rip), %rdi
	.value	0x6666
	rex64
	call	__tls_get_addr@PLT
	movq	(%rax), %rax
	testq	%rax, %rax
	je	.L366
	movq	8(%rax), %rax
	testq	%rax, %rax
	je	.L366
	movq	(%rax), %rdx
	testq	%rdx, %rdx
	je	.L366
	movq	$0, (%rax)
	movzbl	(%rdx), %eax
	cmpb	$63, %al
	jbe	.L367
	movb	%al, 64(%rdx)
	jmp	.L368
	.p2align 4,,10
	.p2align 3
.L367:
	movq	%rdx, %rdi
	call	_ZdlPv@PLT
.L366:
	movl	$65, %edi
.LEHB19:
	call	_Znwm@PLT
.LEHE19:
	movb	$64, 64(%rax)
	movq	%rax, %rdx
.L368:
	movq	%rbx, %xmm1
	movq	%r15, %xmm0
	movq	%r14, %rdi
	xorl	%ecx, %ecx
	leaq	_ZN4asio6detail18completion_handlerIZN8asiodnp318MasterSessionStack9ScanRangeEN8opendnp316GroupVariationIDEttRKNS4_10TaskConfigEEUlvE_E11do_completeEPNS0_15task_io_serviceEPNS0_25task_io_service_operationERKSt10error_codem(%rip), %rax
	punpcklqdq	%xmm1, %xmm0
	leaq	48(%rbp), %rsi
	movw	%r12w, 42(%rdx)
	movq	%rax, 8(%rdx)
	movzwl	16(%rsp), %eax
	movw	%r13w, 44(%rdx)
	movups	%xmm0, 24(%rdx)
	movdqu	24(%rsp), %xmm0
	movq	$0, (%rdx)
	movl	$0, 16(%rdx)
	movw	%ax, 40(%rdx)
	movups	%xmm0, 48(%rdx)
	call	_ZN4asio6detail14strand_service7do_postERPNS1_11strand_implEPNS0_25task_io_service_operationEb@PLT
	addq	$56, %rsp
	.cfi_remember_state
	.cfi_def_cfa_offset 56
	movq	%rbx, %rdi
	popq	%rbx
	.cfi_def_cfa_offset 48
	popq	%rbp
	.cfi_def_cfa_offset 40
	popq	%r12
	.cfi_def_cfa_offset 32
	popq	%r13
	.cfi_def_cfa_offset 24
	popq	%r14
	.cfi_def_cfa_offset 16
	popq	%r15
	.cfi_def_cfa_offset 8
.LEHB20:
	jmp	_ZNSt16_Sp_counted_baseILN9__gnu_cxx12_Lock_policyE2EE10_M_releaseEv@PLT
.LEHE20:
	.p2align 4,,10
	.p2align 3
.L387:
	.cfi_restore_state
	lock addl	$1, 8(%rbx)
	jmp	.L365
.L372:
	movq	%rax, %rbp
	jmp	.L369
	.section	.gcc_except_table
.LLSDA8139:
	.byte	0xff
	.byte	0xff
	.byte	0x1
	.uleb128 .LLSDACSE8139-.LLSDACSB8139
.LLSDACSB8139:
	.uleb128 .LEHB19-.LFB8139
	.uleb128 .LEHE19-.LEHB19
	.uleb128 .L372-.LFB8139
	.uleb128 0
	.uleb128 .LEHB20-.LFB8139
	.uleb128 .LEHE20-.LEHB20
	.uleb128 0
	.uleb128 0
.LLSDACSE8139:
	.text
	.cfi_endproc
	.section	.text.unlikely
	.cfi_startproc
	.cfi_personality 0x9b,DW.ref.__gxx_personality_v0
	.cfi_lsda 0x1b,.LLSDAC8139
	.type	_ZN8asiodnp318MasterSessionStack9ScanRangeEN8opendnp316GroupVariationIDEttRKNS1_10TaskConfigE.cold, @function
_ZN8asiodnp318MasterSessionStack9ScanRangeEN8opendnp316GroupVariationIDEttRKNS1_10TaskConfigE.cold:
.LFSB8139:
.L362:
	.cfi_def_cfa_offset 112
	.cfi_offset 3, -56
	.cfi_offset 6, -48
	.cfi_offset 12, -40
	.cfi_offset 13, -32
	.cfi_offset 14, -24
	.cfi_offset 15, -16
	movl	$8, %edi
	call	__cxa_allocate_exception@PLT
	movq	_ZTVSt12bad_weak_ptr@GOTPCREL(%rip), %rdx
	movq	_ZTISt12bad_weak_ptr@GOTPCREL(%rip), %rsi
	movq	%rax, %rdi
	addq	$16, %rdx
	movq	%rdx, (%rax)
	movq	_ZNSt12bad_weak_ptrD1Ev@GOTPCREL(%rip), %rdx
.LEHB21:
	call	__cxa_throw@PLT
.L369:
	movq	%rbx, %rdi
	call	_ZNSt16_Sp_counted_baseILN9__gnu_cxx12_Lock_policyE2EE10_M_releaseEv@PLT
	movq	%rbx, %rdi
	call	_ZNSt16_Sp_counted_baseILN9__gnu_cxx12_Lock_policyE2EE10_M_releaseEv@PLT
	movq	%rbp, %rdi
	call	_Unwind_Resume@PLT
.LEHE21:
	.cfi_endproc
.LFE8139:
	.section	.gcc_except_table
.LLSDAC8139:
	.byte	0xff
	.byte	0xff
	.byte	0x1
	.uleb128 .LLSDACSEC8139-.LLSDACSBC8139
.LLSDACSBC8139:
	.uleb128 .LEHB21-.LCOLDB30
	.uleb128 .LEHE21-.LEHB21
	.uleb128 0
	.uleb128 0
.LLSDACSEC8139:
	.section	.text.unlikely
	.text
	.size	_ZN8asiodnp318MasterSessionStack9ScanRangeEN8opendnp316GroupVariationIDEttRKNS1_10TaskConfigE, .-_ZN8asiodnp318MasterSessionStack9ScanRangeEN8opendnp316GroupVariationIDEttRKNS1_10TaskConfigE
	.section	.text.unlikely
	.size	_ZN8asiodnp318MasterSessionStack9ScanRangeEN8opendnp316GroupVariationIDEttRKNS1_10TaskConfigE.cold, .-_ZN8asiodnp318MasterSessionStack9ScanRangeEN8opendnp316GroupVariationIDEttRKNS1_10TaskConfigE.cold
.LCOLDE30:
	.text
.LHOTE30:
	.section	.text.unlikely
	.align 2
.LCOLDB31:
	.text
.LHOTB31:
	.align 2
	.p2align 4
	.globl	_ZN8asiodnp318MasterSessionStack5WriteERKN8opendnp315TimeAndIntervalEtRKNS1_10TaskConfigE
	.type	_ZN8asiodnp318MasterSessionStack5WriteERKN8opendnp315TimeAndIntervalEtRKNS1_10TaskConfigE, @function
_ZN8asiodnp318MasterSessionStack5WriteERKN8opendnp315TimeAndIntervalEtRKNS1_10TaskConfigE:
.LFB8147:
	.cfi_startproc
	.cfi_personality 0x9b,DW.ref.__gxx_personality_v0
	.cfi_lsda 0x1b,.LLSDA8147
	pushq	%r14
	.cfi_def_cfa_offset 16
	.cfi_offset 14, -16
	pushq	%r13
	.cfi_def_cfa_offset 24
	.cfi_offset 13, -24
	pushq	%r12
	.cfi_def_cfa_offset 32
	.cfi_offset 12, -32
	pushq	%rbp
	.cfi_def_cfa_offset 40
	.cfi_offset 6, -40
	pushq	%rbx
	.cfi_def_cfa_offset 48
	.cfi_offset 3, -48
	subq	$64, %rsp
	.cfi_def_cfa_offset 112
	movq	24(%rdi), %rbx
	testq	%rbx, %rbx
	je	.L390
	movl	8(%rbx), %eax
	movl	%edx, %r12d
	leaq	8(%rbx), %rdx
.L392:
	testl	%eax, %eax
	je	.L390
	leal	1(%rax), %r8d
	lock cmpxchgl	%r8d, (%rdx)
	jne	.L392
	movq	16(%rdi), %r14
	movq	32(%rdi), %rbp
	movq	__libc_single_threaded@GOTPCREL(%rip), %rdi
	movq	(%rsi), %r9
	movl	8(%rsi), %r8d
	movl	(%rcx), %edx
	movzbl	4(%rcx), %eax
	movzbl	12(%rsi), %esi
	movq	8(%rcx), %rcx
	cmpb	$0, (%rdi)
	je	.L415
	addl	$1, 8(%rbx)
.L393:
	movq	%r9, 16(%rsp)
	movq	40(%rbp), %r13
	movl	%r8d, 24(%rsp)
	movb	%sil, 28(%rsp)
	movl	%edx, 40(%rsp)
	movb	%al, 44(%rsp)
	movq	%rcx, 48(%rsp)
	data16	leaq	_ZN4asio6detail15keyword_tss_ptrINS0_10call_stackINS0_15task_io_serviceENS0_27task_io_service_thread_infoEE7contextEE6value_E@tlsgd(%rip), %rdi
	.value	0x6666
	rex64
	call	__tls_get_addr@PLT
	movq	(%rax), %rax
	testq	%rax, %rax
	je	.L394
	movq	8(%rax), %rax
	testq	%rax, %rax
	je	.L394
	movq	(%rax), %rdx
	testq	%rdx, %rdx
	je	.L394
	movq	$0, (%rax)
	movzbl	(%rdx), %eax
	cmpb	$79, %al
	jbe	.L395
	movb	%al, 80(%rdx)
	jmp	.L396
	.p2align 4,,10
	.p2align 3
.L395:
	movq	%rdx, %rdi
	call	_ZdlPv@PLT
.L394:
	movl	$81, %edi
.LEHB22:
	call	_Znwm@PLT
.LEHE22:
	movb	$80, 80(%rax)
	movq	%rax, %rdx
.L396:
	movq	%rbx, %xmm1
	movq	%r14, %xmm0
	movq	%r13, %rdi
	xorl	%ecx, %ecx
	punpcklqdq	%xmm1, %xmm0
	movw	%r12w, 56(%rdx)
	leaq	_ZN4asio6detail18completion_handlerIZN8asiodnp318MasterSessionStack5WriteERKN8opendnp315TimeAndIntervalEtRKNS4_10TaskConfigEEUlvE_E11do_completeEPNS0_15task_io_serviceEPNS0_25task_io_service_operationERKSt10error_codem(%rip), %rax
	leaq	48(%rbp), %rsi
	movups	%xmm0, 24(%rdx)
	movdqa	16(%rsp), %xmm0
	movq	$0, (%rdx)
	movups	%xmm0, 40(%rdx)
	movdqu	40(%rsp), %xmm0
	movq	%rax, 8(%rdx)
	movl	$0, 16(%rdx)
	movups	%xmm0, 64(%rdx)
	call	_ZN4asio6detail14strand_service7do_postERPNS1_11strand_implEPNS0_25task_io_service_operationEb@PLT
	addq	$64, %rsp
	.cfi_remember_state
	.cfi_def_cfa_offset 48
	movq	%rbx, %rdi
	popq	%rbx
	.cfi_def_cfa_offset 40
	popq	%rbp
	.cfi_def_cfa_offset 32
	popq	%r12
	.cfi_def_cfa_offset 24
	popq	%r13
	.cfi_def_cfa_offset 16
	popq	%r14
	.cfi_def_cfa_offset 8
.LEHB23:
	jmp	_ZNSt16_Sp_counted_baseILN9__gnu_cxx12_Lock_policyE2EE10_M_releaseEv@PLT
.LEHE23:
	.p2align 4,,10
	.p2align 3
.L415:
	.cfi_restore_state
	lock addl	$1, 8(%rbx)
	jmp	.L393
.L400:
	movq	%rax, %rbp
	jmp	.L397
	.section	.gcc_except_table
.LLSDA8147:
	.byte	0xff
	.byte	0xff
	.byte	0x1
	.uleb128 .LLSDACSE8147-.LLSDACSB8147
.LLSDACSB8147:
	.uleb128 .LEHB22-.LFB8147
	.uleb128 .LEHE22-.LEHB22
	.uleb128 .L400-.LFB8147
	.uleb128 0
	.uleb128 .LEHB23-.LFB8147
	.uleb128 .LEHE23-.LEHB23
	.uleb128 0
	.uleb128 0
.LLSDACSE8147:
	.text
	.cfi_endproc
	.section	.text.unlikely
	.cfi_startproc
	.cfi_personality 0x9b,DW.ref.__gxx_personality_v0
	.cfi_lsda 0x1b,.LLSDAC8147
	.type	_ZN8asiodnp318MasterSessionStack5WriteERKN8opendnp315TimeAndIntervalEtRKNS1_10TaskConfigE.cold, @function
_ZN8asiodnp318MasterSessionStack5WriteERKN8opendnp315TimeAndIntervalEtRKNS1_10TaskConfigE.cold:
.LFSB8147:
.L390:
	.cfi_def_cfa_offset 112
	.cfi_offset 3, -48
	.cfi_offset 6, -40
	.cfi_offset 12, -32
	.cfi_offset 13, -24
	.cfi_offset 14, -16
	movl	$8, %edi
	call	__cxa_allocate_exception@PLT
	movq	_ZTVSt12bad_weak_ptr@GOTPCREL(%rip), %rdx
	movq	_ZTISt12bad_weak_ptr@GOTPCREL(%rip), %rsi
	movq	%rax, %rdi
	addq	$16, %rdx
	movq	%rdx, (%rax)
	movq	_ZNSt12bad_weak_ptrD1Ev@GOTPCREL(%rip), %rdx
.LEHB24:
	call	__cxa_throw@PLT
.L397:
	movq	%rbx, %rdi
	call	_ZNSt16_Sp_counted_baseILN9__gnu_cxx12_Lock_policyE2EE10_M_releaseEv@PLT
	movq	%rbx, %rdi
	call	_ZNSt16_Sp_counted_baseILN9__gnu_cxx12_Lock_policyE2EE10_M_releaseEv@PLT
	movq	%rbp, %rdi
	call	_Unwind_Resume@PLT
.LEHE24:
	.cfi_endproc
.LFE8147:
	.section	.gcc_except_table
.LLSDAC8147:
	.byte	0xff
	.byte	0xff
	.byte	0x1
	.uleb128 .LLSDACSEC8147-.LLSDACSBC8147
.LLSDACSBC8147:
	.uleb128 .LEHB24-.LCOLDB31
	.uleb128 .LEHE24-.LEHB24
	.uleb128 0
	.uleb128 0
.LLSDACSEC8147:
	.section	.text.unlikely
	.text
	.size	_ZN8asiodnp318MasterSessionStack5WriteERKN8opendnp315TimeAndIntervalEtRKNS1_10TaskConfigE, .-_ZN8asiodnp318MasterSessionStack5WriteERKN8opendnp315TimeAndIntervalEtRKNS1_10TaskConfigE
	.section	.text.unlikely
	.size	_ZN8asiodnp318MasterSessionStack5WriteERKN8opendnp315TimeAndIntervalEtRKNS1_10TaskConfigE.cold, .-_ZN8asiodnp318MasterSessionStack5WriteERKN8opendnp315TimeAndIntervalEtRKNS1_10TaskConfigE.cold
.LCOLDE31:
	.text
.LHOTE31:
	.p2align 4
	.type	_ZNSt17_Function_handlerIFSt10shared_ptrIN8opendnp311IMasterTaskEEvEZN8asiodnp318MasterSessionStack12AddRangeScanENS1_16GroupVariationIDEttN7openpal12TimeDurationERKNS1_10TaskConfigEEUlvE_E10_M_managerERSt9_Any_dataRKSF_St18_Manager_operation, @function
_ZNSt17_Function_handlerIFSt10shared_ptrIN8opendnp311IMasterTaskEEvEZN8asiodnp318MasterSessionStack12AddRangeScanENS1_16GroupVariationIDEttN7openpal12TimeDurationERKNS1_10TaskConfigEEUlvE_E10_M_managerERSt9_Any_dataRKSF_St18_Manager_operation:
.LFB9909:
	.cfi_startproc
	testl	%edx, %edx
	je	.L417
	cmpl	$1, %edx
	je	.L418
	subq	$24, %rsp
	.cfi_def_cfa_offset 32
	cmpl	$2, %edx
	je	.L421
	cmpl	$3, %edx
	je	.L422
.L420:
	xorl	%eax, %eax
	addq	$24, %rsp
	.cfi_def_cfa_offset 8
	ret
	.p2align 4,,10
	.p2align 3
.L418:
	movq	(%rsi), %rax
	movq	%rax, (%rdi)
	xorl	%eax, %eax
	ret
	.p2align 4,,10
	.p2align 3
.L417:
	leaq	_ZTIZN8asiodnp318MasterSessionStack12AddRangeScanEN8opendnp316GroupVariationIDEttN7openpal12TimeDurationERKNS1_10TaskConfigEEUlvE_(%rip), %rax
	movq	%rax, (%rdi)
	xorl	%eax, %eax
	ret
	.p2align 4,,10
	.p2align 3
.L422:
	.cfi_def_cfa_offset 32
	movq	(%rdi), %rax
	testq	%rax, %rax
	je	.L420
	movq	8(%rax), %rdi
	testq	%rdi, %rdi
	je	.L425
	movq	%rax, (%rsp)
	call	_ZNSt16_Sp_counted_baseILN9__gnu_cxx12_Lock_policyE2EE10_M_releaseEv@PLT
	movq	(%rsp), %rax
.L425:
	movl	$48, %esi
	movq	%rax, %rdi
	call	_ZdlPvm@PLT
	jmp	.L420
	.p2align 4,,10
	.p2align 3
.L421:
	movq	(%rsi), %rdx
	movq	%rdi, 8(%rsp)
	movl	$48, %edi
	movq	%rdx, (%rsp)
	call	_Znwm@PLT
	movq	(%rsp), %rdx
	movq	8(%rsp), %rcx
	movdqu	(%rdx), %xmm0
	movhlps	%xmm0, %xmm1
	movups	%xmm0, (%rax)
	movq	%xmm1, %rsi
	testq	%rsi, %rsi
	je	.L423
	movq	__libc_single_threaded@GOTPCREL(%rip), %rdi
	cmpb	$0, (%rdi)
	je	.L424
	addl	$1, 8(%rsi)
.L423:
	movzwl	16(%rdx), %esi
	movdqu	32(%rdx), %xmm0
	movw	%si, 16(%rax)
	movl	18(%rdx), %esi
	movups	%xmm0, 32(%rax)
	movl	%esi, 18(%rax)
	movq	24(%rdx), %rsi
	movq	%rax, (%rcx)
	movq	%rsi, 24(%rax)
	jmp	.L420
	.p2align 4,,10
	.p2align 3
.L424:
	lock addl	$1, 8(%rsi)
	jmp	.L423
	.cfi_endproc
.LFE9909:
	.size	_ZNSt17_Function_handlerIFSt10shared_ptrIN8opendnp311IMasterTaskEEvEZN8asiodnp318MasterSessionStack12AddRangeScanENS1_16GroupVariationIDEttN7openpal12TimeDurationERKNS1_10TaskConfigEEUlvE_E10_M_managerERSt9_Any_dataRKSF_St18_Manager_operation, .-_ZNSt17_Function_handlerIFSt10shared_ptrIN8opendnp311IMasterTaskEEvEZN8asiodnp318MasterSessionStack12AddRangeScanENS1_16GroupVariationIDEttN7openpal12TimeDurationERKNS1_10TaskConfigEEUlvE_E10_M_managerERSt9_Any_dataRKSF_St18_Manager_operation
	.p2align 4
	.type	_ZNSt17_Function_handlerIFSt10shared_ptrIN8opendnp311IMasterTaskEEvEZN8asiodnp318MasterSessionStack12AddClassScanERKNS1_10ClassFieldEN7openpal12TimeDurationERKNS1_10TaskConfigEEUlvE_E10_M_managerERSt9_Any_dataRKSH_St18_Manager_operation, @function
_ZNSt17_Function_handlerIFSt10shared_ptrIN8opendnp311IMasterTaskEEvEZN8asiodnp318MasterSessionStack12AddClassScanERKNS1_10ClassFieldEN7openpal12TimeDurationERKNS1_10TaskConfigEEUlvE_E10_M_managerERSt9_Any_dataRKSH_St18_Manager_operation:
.LFB9904:
	.cfi_startproc
	testl	%edx, %edx
	je	.L441
	cmpl	$1, %edx
	je	.L442
	subq	$24, %rsp
	.cfi_def_cfa_offset 32
	cmpl	$2, %edx
	je	.L445
	cmpl	$3, %edx
	je	.L446
.L444:
	xorl	%eax, %eax
	addq	$24, %rsp
	.cfi_def_cfa_offset 8
	ret
	.p2align 4,,10
	.p2align 3
.L442:
	movq	(%rsi), %rax
	movq	%rax, (%rdi)
	xorl	%eax, %eax
	ret
	.p2align 4,,10
	.p2align 3
.L441:
	leaq	_ZTIZN8asiodnp318MasterSessionStack12AddClassScanERKN8opendnp310ClassFieldEN7openpal12TimeDurationERKNS1_10TaskConfigEEUlvE_(%rip), %rax
	movq	%rax, (%rdi)
	xorl	%eax, %eax
	ret
	.p2align 4,,10
	.p2align 3
.L446:
	.cfi_def_cfa_offset 32
	movq	(%rdi), %rax
	testq	%rax, %rax
	je	.L444
	movq	8(%rax), %rdi
	testq	%rdi, %rdi
	je	.L449
	movq	%rax, (%rsp)
	call	_ZNSt16_Sp_counted_baseILN9__gnu_cxx12_Lock_policyE2EE10_M_releaseEv@PLT
	movq	(%rsp), %rax
.L449:
	movl	$48, %esi
	movq	%rax, %rdi
	call	_ZdlPvm@PLT
	jmp	.L444
	.p2align 4,,10
	.p2align 3
.L445:
	movq	(%rsi), %rdx
	movq	%rdi, 8(%rsp)
	movl	$48, %edi
	movq	%rdx, (%rsp)
	call	_Znwm@PLT
	movq	(%rsp), %rdx
	movq	8(%rsp), %rcx
	movdqu	(%rdx), %xmm0
	movhlps	%xmm0, %xmm1
	movups	%xmm0, (%rax)
	movq	%xmm1, %rsi
	testq	%rsi, %rsi
	je	.L447
	movq	__libc_single_threaded@GOTPCREL(%rip), %rdi
	cmpb	$0, (%rdi)
	je	.L448
	addl	$1, 8(%rsi)
.L447:
	movzbl	16(%rdx), %esi
	movdqu	32(%rdx), %xmm0
	movb	%sil, 16(%rax)
	movq	24(%rdx), %rsi
	movups	%xmm0, 32(%rax)
	movq	%rsi, 24(%rax)
	movq	%rax, (%rcx)
	jmp	.L444
	.p2align 4,,10
	.p2align 3
.L448:
	lock addl	$1, 8(%rsi)
	jmp	.L447
	.cfi_endproc
.LFE9904:
	.size	_ZNSt17_Function_handlerIFSt10shared_ptrIN8opendnp311IMasterTaskEEvEZN8asiodnp318MasterSessionStack12AddClassScanERKNS1_10ClassFieldEN7openpal12TimeDurationERKNS1_10TaskConfigEEUlvE_E10_M_managerERSt9_Any_dataRKSH_St18_Manager_operation, .-_ZNSt17_Function_handlerIFSt10shared_ptrIN8opendnp311IMasterTaskEEvEZN8asiodnp318MasterSessionStack12AddClassScanERKNS1_10ClassFieldEN7openpal12TimeDurationERKNS1_10TaskConfigEEUlvE_E10_M_managerERSt9_Any_dataRKSH_St18_Manager_operation
	.p2align 4
	.type	_ZNSt17_Function_handlerIFSt10shared_ptrIN8opendnp311IMasterTaskEEvEZN8asiodnp318MasterSessionStack17AddAllObjectsScanENS1_16GroupVariationIDEN7openpal12TimeDurationERKNS1_10TaskConfigEEUlvE_E10_M_managerERSt9_Any_dataRKSF_St18_Manager_operation, @function
_ZNSt17_Function_handlerIFSt10shared_ptrIN8opendnp311IMasterTaskEEvEZN8asiodnp318MasterSessionStack17AddAllObjectsScanENS1_16GroupVariationIDEN7openpal12TimeDurationERKNS1_10TaskConfigEEUlvE_E10_M_managerERSt9_Any_dataRKSF_St18_Manager_operation:
.LFB9899:
	.cfi_startproc
	testl	%edx, %edx
	je	.L465
	cmpl	$1, %edx
	je	.L466
	subq	$24, %rsp
	.cfi_def_cfa_offset 32
	cmpl	$2, %edx
	je	.L469
	cmpl	$3, %edx
	je	.L470
.L468:
	xorl	%eax, %eax
	addq	$24, %rsp
	.cfi_def_cfa_offset 8
	ret
	.p2align 4,,10
	.p2align 3
.L466:
	movq	(%rsi), %rax
	movq	%rax, (%rdi)
	xorl	%eax, %eax
	ret
	.p2align 4,,10
	.p2align 3
.L465:
	leaq	_ZTIZN8asiodnp318MasterSessionStack17AddAllObjectsScanEN8opendnp316GroupVariationIDEN7openpal12TimeDurationERKNS1_10TaskConfigEEUlvE_(%rip), %rax
	movq	%rax, (%rdi)
	xorl	%eax, %eax
	ret
	.p2align 4,,10
	.p2align 3
.L470:
	.cfi_def_cfa_offset 32
	movq	(%rdi), %rax
	testq	%rax, %rax
	je	.L468
	movq	8(%rax), %rdi
	testq	%rdi, %rdi
	je	.L473
	movq	%rax, (%rsp)
	call	_ZNSt16_Sp_counted_baseILN9__gnu_cxx12_Lock_policyE2EE10_M_releaseEv@PLT
	movq	(%rsp), %rax
.L473:
	movl	$48, %esi
	movq	%rax, %rdi
	call	_ZdlPvm@PLT
	jmp	.L468
	.p2align 4,,10
	.p2align 3
.L469:
	movq	(%rsi), %rdx
	movq	%rdi, 8(%rsp)
	movl	$48, %edi
	movq	%rdx, (%rsp)
	call	_Znwm@PLT
	movq	(%rsp), %rdx
	movq	8(%rsp), %rcx
	movdqu	(%rdx), %xmm0
	movhlps	%xmm0, %xmm1
	movups	%xmm0, (%rax)
	movq	%xmm1, %rsi
	testq	%rsi, %rsi
	je	.L471
	movq	__libc_single_threaded@GOTPCREL(%rip), %rdi
	cmpb	$0, (%rdi)
	je	.L472
	addl	$1, 8(%rsi)
.L471:
	movzwl	16(%rdx), %esi
	movdqu	32(%rdx), %xmm0
	movw	%si, 16(%rax)
	movq	24(%rdx), %rsi
	movups	%xmm0, 32(%rax)
	movq	%rsi, 24(%rax)
	movq	%rax, (%rcx)
	jmp	.L468
	.p2align 4,,10
	.p2align 3
.L472:
	lock addl	$1, 8(%rsi)
	jmp	.L471
	.cfi_endproc
.LFE9899:
	.size	_ZNSt17_Function_handlerIFSt10shared_ptrIN8opendnp311IMasterTaskEEvEZN8asiodnp318MasterSessionStack17AddAllObjectsScanENS1_16GroupVariationIDEN7openpal12TimeDurationERKNS1_10TaskConfigEEUlvE_E10_M_managerERSt9_Any_dataRKSF_St18_Manager_operation, .-_ZNSt17_Function_handlerIFSt10shared_ptrIN8opendnp311IMasterTaskEEvEZN8asiodnp318MasterSessionStack17AddAllObjectsScanENS1_16GroupVariationIDEN7openpal12TimeDurationERKNS1_10TaskConfigEEUlvE_E10_M_managerERSt9_Any_dataRKSF_St18_Manager_operation
	.p2align 4
	.type	_ZNSt17_Function_handlerIFN8opendnp315StackStatisticsEvEZN8asiodnp318MasterSessionStack18GetStackStatisticsEvEUlvE_E10_M_managerERSt9_Any_dataRKS7_St18_Manager_operation, @function
_ZNSt17_Function_handlerIFN8opendnp315StackStatisticsEvEZN8asiodnp318MasterSessionStack18GetStackStatisticsEvEUlvE_E10_M_managerERSt9_Any_dataRKS7_St18_Manager_operation:
.LFB9840:
	.cfi_startproc
	testl	%edx, %edx
	je	.L489
	cmpl	$1, %edx
	je	.L490
	subq	$24, %rsp
	.cfi_def_cfa_offset 32
	cmpl	$2, %edx
	je	.L493
	cmpl	$3, %edx
	je	.L494
.L492:
	xorl	%eax, %eax
	addq	$24, %rsp
	.cfi_def_cfa_offset 8
	ret
	.p2align 4,,10
	.p2align 3
.L490:
	movq	(%rsi), %rax
	movq	%rax, (%rdi)
	xorl	%eax, %eax
	ret
	.p2align 4,,10
	.p2align 3
.L489:
	leaq	_ZTIZN8asiodnp318MasterSessionStack18GetStackStatisticsEvEUlvE_(%rip), %rax
	movq	%rax, (%rdi)
	xorl	%eax, %eax
	ret
	.p2align 4,,10
	.p2align 3
.L494:
	.cfi_def_cfa_offset 32
	movq	(%rdi), %rax
	testq	%rax, %rax
	je	.L492
	movq	8(%rax), %rdi
	testq	%rdi, %rdi
	je	.L497
	movq	%rax, (%rsp)
	call	_ZNSt16_Sp_counted_baseILN9__gnu_cxx12_Lock_policyE2EE10_M_releaseEv@PLT
	movq	(%rsp), %rax
.L497:
	movl	$16, %esi
	movq	%rax, %rdi
	call	_ZdlPvm@PLT
	jmp	.L492
	.p2align 4,,10
	.p2align 3
.L493:
	movq	(%rsi), %rsi
	movq	%rdi, 8(%rsp)
	movl	$16, %edi
	movq	%rsi, (%rsp)
	call	_Znwm@PLT
	movq	(%rsp), %rsi
	movq	8(%rsp), %rcx
	movq	%rax, %rdx
	movdqu	(%rsi), %xmm0
	movhlps	%xmm0, %xmm1
	movups	%xmm0, (%rdx)
	movq	%xmm1, %rax
	testq	%rax, %rax
	je	.L495
	movq	__libc_single_threaded@GOTPCREL(%rip), %rsi
	cmpb	$0, (%rsi)
	je	.L496
	addl	$1, 8(%rax)
.L495:
	movq	%rdx, (%rcx)
	jmp	.L492
	.p2align 4,,10
	.p2align 3
.L496:
	lock addl	$1, 8(%rax)
	jmp	.L495
	.cfi_endproc
.LFE9840:
	.size	_ZNSt17_Function_handlerIFN8opendnp315StackStatisticsEvEZN8asiodnp318MasterSessionStack18GetStackStatisticsEvEUlvE_E10_M_managerERSt9_Any_dataRKS7_St18_Manager_operation, .-_ZNSt17_Function_handlerIFN8opendnp315StackStatisticsEvEZN8asiodnp318MasterSessionStack18GetStackStatisticsEvEUlvE_E10_M_managerERSt9_Any_dataRKS7_St18_Manager_operation
	.section	.text._ZN4asio6detail18completion_handlerIZN7asiopal8Executor10ReturnFromISt10shared_ptrIN8opendnp311IMasterTaskEEEET_RKSt8functionIFS9_vEEEUlvE_E11do_completeEPNS0_15task_io_serviceEPNS0_25task_io_service_operationERKSt10error_codem,"axG",@progbits,_ZN4asio6detail18completion_handlerIZN7asiopal8Executor10ReturnFromISt10shared_ptrIN8opendnp311IMasterTaskEEEET_RKSt8functionIFS9_vEEEUlvE_E11do_completeEPNS0_15task_io_serviceEPNS0_25task_io_service_operationERKSt10error_codem,comdat
	.p2align 4
	.weak	_ZN4asio6detail18completion_handlerIZN7asiopal8Executor10ReturnFromISt10shared_ptrIN8opendnp311IMasterTaskEEEET_RKSt8functionIFS9_vEEEUlvE_E11do_completeEPNS0_15task_io_serviceEPNS0_25task_io_service_operationERKSt10error_codem
	.type	_ZN4asio6detail18completion_handlerIZN7asiopal8Executor10ReturnFromISt10shared_ptrIN8opendnp311IMasterTaskEEEET_RKSt8functionIFS9_vEEEUlvE_E11do_completeEPNS0_15task_io_serviceEPNS0_25task_io_service_operationERKSt10error_codem, @function
_ZN4asio6detail18completion_handlerIZN7asiopal8Executor10ReturnFromISt10shared_ptrIN8opendnp311IMasterTaskEEEET_RKSt8functionIFS9_vEEEUlvE_E11do_completeEPNS0_15task_io_serviceEPNS0_25task_io_service_operationERKSt10error_codem:
.LFB11174:
	.cfi_startproc
	.cfi_personality 0x9b,DW.ref.__gxx_personality_v0
	.cfi_lsda 0x1b,.LLSDA11174
	pushq	%r13
	.cfi_def_cfa_offset 16
	.cfi_offset 13, -16
	movq	%rdi, %r13
	pushq	%r12
	.cfi_def_cfa_offset 24
	.cfi_offset 12, -24
	pushq	%rbp
	.cfi_def_cfa_offset 32
	.cfi_offset 6, -32
	pushq	%rbx
	.cfi_def_cfa_offset 40
	.cfi_offset 3, -40
	movq	%rsi, %rbx
	subq	$136, %rsp
	.cfi_def_cfa_offset 176
	movq	24(%rsi), %r12
	movq	32(%rsi), %rbp
	data16	leaq	_ZN4asio6detail15keyword_tss_ptrINS0_10call_stackINS0_15task_io_serviceENS0_27task_io_service_thread_infoEE7contextEE6value_E@tlsgd(%rip), %rdi
	.value	0x6666
	rex64
	call	__tls_get_addr@PLT
	movq	(%rax), %rax
	testq	%rax, %rax
	je	.L556
	movq	8(%rax), %rax
	testq	%rax, %rax
	je	.L556
	cmpq	$0, (%rax)
	je	.L557
.L556:
	movq	%rbx, %rdi
	call	_ZdlPv@PLT
.L555:
	testq	%r13, %r13
	je	.L512
	cmpq	$0, 16(%rbp)
	je	.L558
	leaq	32(%rsp), %rbx
	movq	%rbp, %rsi
	movq	%rbx, %rdi
.LEHB25:
	call	*24(%rbp)
.LEHE25:
	leaq	48(%rsp), %rax
	movq	%rbx, %xmm6
	movq	(%r12), %rbx
	movq	%r12, %xmm3
	movq	%rax, %xmm1
	leaq	8(%rsp), %rax
	punpcklqdq	%xmm6, %xmm3
	movq	_ZNSt17_Function_handlerIFSt10unique_ptrINSt13__future_base12_Result_baseENS2_8_DeleterEEvENS1_13_State_baseV27_SetterISt10shared_ptrIN8opendnp311IMasterTaskEEOSB_EEE10_M_managerERSt9_Any_dataRKSF_St18_Manager_operation@GOTPCREL(%rip), %xmm2
	movq	%rax, %xmm4
	leaq	16(%rsp), %rax
	movhps	_ZNSt17_Function_handlerIFSt10unique_ptrINSt13__future_base12_Result_baseENS2_8_DeleterEEvENS1_13_State_baseV27_SetterISt10shared_ptrIN8opendnp311IMasterTaskEEOSB_EEE9_M_invokeERKSt9_Any_data@GOTPCREL(%rip), %xmm2
	movq	%rax, %xmm0
	leaq	24(%rsp), %rax
	punpcklqdq	%xmm4, %xmm1
	movq	%rax, %xmm5
	punpcklqdq	%xmm5, %xmm0
	testq	%rbx, %rbx
	je	.L559
	leaq	7(%rsp), %rax
	leaq	64(%rsp), %rbp
	movaps	%xmm3, 64(%rsp)
	movq	%rax, 24(%rsp)
	movq	_ZNSt13__future_base13_State_baseV29_M_do_setEPSt8functionIFSt10unique_ptrINS_12_Result_baseENS3_8_DeleterEEvEEPb@GOTPCREL(%rip), %rax
	movaps	%xmm2, 80(%rsp)
	movaps	%xmm1, 96(%rsp)
	movaps	%xmm0, 112(%rsp)
	movb	$0, 7(%rsp)
	movq	%rbp, 16(%rsp)
	movq	%rbx, 8(%rsp)
	movq	%rax, 48(%rsp)
	movq	$0, 56(%rsp)
	data16	leaq	_ZSt15__once_callable@tlsgd(%rip), %rdi
	.value	0x6666
	rex64
	call	__tls_get_addr@PLT
	leaq	96(%rsp), %rdx
	movq	%rdx, (%rax)
	data16	leaq	_ZSt11__once_call@tlsgd(%rip), %rdi
	.value	0x6666
	rex64
	call	__tls_get_addr@PLT
	movq	_ZZNSt9once_flag18_Prepare_executionC4IZSt9call_onceIMNSt13__future_base13_State_baseV2EFvPSt8functionIFSt10unique_ptrINS3_12_Result_baseENS7_8_DeleterEEvEEPbEJPS4_SC_SD_EEvRS_OT_DpOT0_EUlvE_EERSI_ENUlvE_4_FUNEv@GOTPCREL(%rip), %rdx
	movq	__once_proxy@GOTPCREL(%rip), %rsi
	leaq	24(%rbx), %rdi
	movq	%rdx, (%rax)
.LEHB26:
	call	pthread_once@PLT
.LEHE26:
	testl	%eax, %eax
	jne	.L560
	data16	leaq	_ZSt15__once_callable@tlsgd(%rip), %rdi
	.value	0x6666
	rex64
	call	__tls_get_addr@PLT
	movq	$0, (%rax)
	data16	leaq	_ZSt11__once_call@tlsgd(%rip), %rdi
	.value	0x6666
	rex64
	call	__tls_get_addr@PLT
	movq	$0, (%rax)
	cmpb	$0, 7(%rsp)
	je	.L561
	leaq	16(%rbx), %rdi
	movl	$1, %eax
	xchgl	(%rdi), %eax
	testl	%eax, %eax
	js	.L526
.L529:
	movq	80(%rsp), %rax
	testq	%rax, %rax
	je	.L528
	movl	$3, %edx
	movq	%rbp, %rsi
	movq	%rbp, %rdi
	call	*%rax
.L528:
	movq	40(%rsp), %rdi
	testq	%rdi, %rdi
	je	.L531
	call	_ZNSt16_Sp_counted_baseILN9__gnu_cxx12_Lock_policyE2EE10_M_releaseEv@PLT
.L531:
	sfence
.L512:
	addq	$136, %rsp
	.cfi_remember_state
	.cfi_def_cfa_offset 40
	popq	%rbx
	.cfi_def_cfa_offset 32
	popq	%rbp
	.cfi_def_cfa_offset 24
	popq	%r12
	.cfi_def_cfa_offset 16
	popq	%r13
	.cfi_def_cfa_offset 8
	ret
	.p2align 4,,10
	.p2align 3
.L557:
	.cfi_restore_state
	movzbl	40(%rbx), %edx
	movb	%dl, (%rbx)
	movq	%rbx, (%rax)
	jmp	.L555
	.p2align 4,,10
	.p2align 3
.L526:
.LEHB27:
	call	_ZNSt28__atomic_futex_unsigned_base19_M_futex_notify_allEPj@PLT
.LEHE27:
	jmp	.L529
.L538:
	movq	%rax, %rbx
	jmp	.L525
.L558:
.LEHB28:
	call	_ZSt25__throw_bad_function_callv@PLT
.LEHE28:
.L561:
	movl	$2, %edi
.LEHB29:
	call	_ZSt20__throw_future_errori@PLT
.LEHE29:
.L524:
	data16	leaq	_ZSt15__once_callable@tlsgd(%rip), %rdi
	.value	0x6666
	rex64
	call	__tls_get_addr@PLT
	xorl	%edx, %edx
	movq	%rdx, (%rax)
	data16	leaq	_ZSt11__once_call@tlsgd(%rip), %rdi
	.value	0x6666
	rex64
	call	__tls_get_addr@PLT
	xorl	%ecx, %ecx
	movq	%rcx, (%rax)
.L525:
	movq	80(%rsp), %rax
	testq	%rax, %rax
	je	.L533
	movl	$3, %edx
	movq	%rbp, %rsi
	movq	%rbp, %rdi
	call	*%rax
.L533:
	movq	40(%rsp), %rdi
	testq	%rdi, %rdi
	je	.L535
	call	_ZNSt16_Sp_counted_baseILN9__gnu_cxx12_Lock_policyE2EE10_M_releaseEv@PLT
.L535:
	sfence
	movq	%rbx, %rdi
.LEHB30:
	call	_Unwind_Resume@PLT
.LEHE30:
.L536:
	movq	%rax, %rbx
	jmp	.L535
.L559:
	movl	$3, %edi
.LEHB31:
	call	_ZSt20__throw_future_errori@PLT
.LEHE31:
.L537:
	movq	%rax, %rbx
	jmp	.L533
.L560:
	movl	%eax, %edi
.LEHB32:
	call	_ZSt20__throw_system_errori@PLT
.LEHE32:
.L539:
	movq	%rax, %rbx
	jmp	.L524
	.cfi_endproc
.LFE11174:
	.section	.gcc_except_table
.LLSDA11174:
	.byte	0xff
	.byte	0xff
	.byte	0x1
	.uleb128 .LLSDACSE11174-.LLSDACSB11174
.LLSDACSB11174:
	.uleb128 .LEHB25-.LFB11174
	.uleb128 .LEHE25-.LEHB25
	.uleb128 .L536-.LFB11174
	.uleb128 0
	.uleb128 .LEHB26-.LFB11174
	.uleb128 .LEHE26-.LEHB26
	.uleb128 .L539-.LFB11174
	.uleb128 0
	.uleb128 .LEHB27-.LFB11174
	.uleb128 .LEHE27-.LEHB27
	.uleb128 .L538-.LFB11174
	.uleb128 0
	.uleb128 .LEHB28-.LFB11174
	.uleb128 .LEHE28-.LEHB28
	.uleb128 .L536-.LFB11174
	.uleb128 0
	.uleb128 .LEHB29-.LFB11174
	.uleb128 .LEHE29-.LEHB29
	.uleb128 .L538-.LFB11174
	.uleb128 0
	.uleb128 .LEHB30-.LFB11174
	.uleb128 .LEHE30-.LEHB30
	.uleb128 0
	.uleb128 0
	.uleb128 .LEHB31-.LFB11174
	.uleb128 .LEHE31-.LEHB31
	.uleb128 .L537-.LFB11174
	.uleb128 0
	.uleb128 .LEHB32-.LFB11174
	.uleb128 .LEHE32-.LEHB32
	.uleb128 .L539-.LFB11174
	.uleb128 0
.LLSDACSE11174:
	.section	.text._ZN4asio6detail18completion_handlerIZN7asiopal8Executor10ReturnFromISt10shared_ptrIN8opendnp311IMasterTaskEEEET_RKSt8functionIFS9_vEEEUlvE_E11do_completeEPNS0_15task_io_serviceEPNS0_25task_io_service_operationERKSt10error_codem,"axG",@progbits,_ZN4asio6detail18completion_handlerIZN7asiopal8Executor10ReturnFromISt10shared_ptrIN8opendnp311IMasterTaskEEEET_RKSt8functionIFS9_vEEEUlvE_E11do_completeEPNS0_15task_io_serviceEPNS0_25task_io_service_operationERKSt10error_codem,comdat
	.size	_ZN4asio6detail18completion_handlerIZN7asiopal8Executor10ReturnFromISt10shared_ptrIN8opendnp311IMasterTaskEEEET_RKSt8functionIFS9_vEEEUlvE_E11do_completeEPNS0_15task_io_serviceEPNS0_25task_io_service_operationERKSt10error_codem, .-_ZN4asio6detail18completion_handlerIZN7asiopal8Executor10ReturnFromISt10shared_ptrIN8opendnp311IMasterTaskEEEET_RKSt8functionIFS9_vEEEUlvE_E11do_completeEPNS0_15task_io_serviceEPNS0_25task_io_service_operationERKSt10error_codem
	.section	.text.unlikely
.LCOLDB32:
	.text
.LHOTB32:
	.p2align 4
	.type	_ZNSt17_Function_handlerIFSt10shared_ptrIN8opendnp311IMasterTaskEEvEZN8asiodnp318MasterSessionStack7AddScanEN7openpal12TimeDurationERKSt6vectorINS1_6HeaderESaISA_EERKNS1_10TaskConfigEEUlvE_E10_M_managerERSt9_Any_dataRKSK_St18_Manager_operation, @function
_ZNSt17_Function_handlerIFSt10shared_ptrIN8opendnp311IMasterTaskEEvEZN8asiodnp318MasterSessionStack7AddScanEN7openpal12TimeDurationERKSt6vectorINS1_6HeaderESaISA_EERKNS1_10TaskConfigEEUlvE_E10_M_managerERSt9_Any_dataRKSK_St18_Manager_operation:
.LFB9867:
	.cfi_startproc
	.cfi_personality 0x9b,DW.ref.__gxx_personality_v0
	.cfi_lsda 0x1b,.LLSDA9867
	testl	%edx, %edx
	je	.L563
	cmpl	$1, %edx
	je	.L564
	pushq	%r15
	.cfi_def_cfa_offset 16
	.cfi_offset 15, -16
	pushq	%r14
	.cfi_def_cfa_offset 24
	.cfi_offset 14, -24
	pushq	%rbx
	.cfi_def_cfa_offset 32
	.cfi_offset 3, -32
	subq	$16, %rsp
	.cfi_def_cfa_offset 48
	cmpl	$2, %edx
	je	.L567
	cmpl	$3, %edx
	je	.L568
.L566:
	addq	$16, %rsp
	.cfi_def_cfa_offset 32
	xorl	%eax, %eax
	popq	%rbx
	.cfi_def_cfa_offset 24
	popq	%r14
	.cfi_def_cfa_offset 16
	popq	%r15
	.cfi_def_cfa_offset 8
	ret
	.p2align 4,,10
	.p2align 3
.L564:
	.cfi_restore 3
	.cfi_restore 14
	.cfi_restore 15
	movq	(%rsi), %rax
	movq	%rax, (%rdi)
	xorl	%eax, %eax
	ret
	.p2align 4,,10
	.p2align 3
.L563:
	leaq	_ZTIZN8asiodnp318MasterSessionStack7AddScanEN7openpal12TimeDurationERKSt6vectorIN8opendnp36HeaderESaIS5_EERKNS4_10TaskConfigEEUlvE_(%rip), %rax
	movq	%rax, (%rdi)
	xorl	%eax, %eax
	ret
	.p2align 4,,10
	.p2align 3
.L568:
	.cfi_def_cfa_offset 48
	.cfi_offset 3, -32
	.cfi_offset 14, -24
	.cfi_offset 15, -16
	movq	(%rdi), %rcx
	testq	%rcx, %rcx
	je	.L566
	movq	40(%rcx), %rax
	testq	%rax, %rax
	je	.L575
	leaq	24(%rcx), %rdi
	movq	%rcx, (%rsp)
	movl	$3, %edx
	movq	%rdi, %rsi
	call	*%rax
	movq	(%rsp), %rcx
.L575:
	movq	8(%rcx), %rdi
	testq	%rdi, %rdi
	je	.L576
	movq	%rcx, (%rsp)
	call	_ZNSt16_Sp_counted_baseILN9__gnu_cxx12_Lock_policyE2EE10_M_releaseEv@PLT
	movq	(%rsp), %rcx
.L576:
	movl	$72, %esi
	movq	%rcx, %rdi
	call	_ZdlPvm@PLT
	jmp	.L566
	.p2align 4,,10
	.p2align 3
.L567:
	movq	(%rsi), %r8
	movq	%rdi, 8(%rsp)
	movl	$72, %edi
	movq	%r8, (%rsp)
.LEHB33:
	call	_Znwm@PLT
.LEHE33:
	movq	(%rsp), %r8
	movq	%rax, %rcx
	movq	%rax, %rbx
	movdqu	(%r8), %xmm0
	movhlps	%xmm0, %xmm1
	movups	%xmm0, (%rcx)
	movq	8(%rsp), %rcx
	movq	%xmm1, %rax
	testq	%rax, %rax
	je	.L569
	movq	__libc_single_threaded@GOTPCREL(%rip), %rdx
	cmpb	$0, (%rdx)
	je	.L570
	addl	$1, 8(%rax)
.L569:
	movq	16(%r8), %rax
	pxor	%xmm0, %xmm0
	movq	$0, 40(%rbx)
	movq	$0, 48(%rbx)
	movq	%rax, 16(%rbx)
	movq	40(%r8), %rax
	movups	%xmm0, 24(%rbx)
	testq	%rax, %rax
	je	.L571
	leaq	24(%rbx), %rdi
	movq	%rcx, 8(%rsp)
	leaq	24(%r8), %rsi
	movl	$2, %edx
	movq	%r8, (%rsp)
	movq	%rdi, %r14
.LEHB34:
	call	*%rax
.LEHE34:
	movq	(%rsp), %r8
	movq	8(%rsp), %rcx
	movdqu	40(%r8), %xmm0
	movups	%xmm0, 40(%rbx)
.L571:
	movdqu	56(%r8), %xmm0
	movq	%rbx, (%rcx)
	movups	%xmm0, 56(%rbx)
	jmp	.L566
	.p2align 4,,10
	.p2align 3
.L570:
	lock addl	$1, 8(%rax)
	jmp	.L569
.L577:
	movq	%rax, %r15
	jmp	.L572
	.section	.gcc_except_table
.LLSDA9867:
	.byte	0xff
	.byte	0xff
	.byte	0x1
	.uleb128 .LLSDACSE9867-.LLSDACSB9867
.LLSDACSB9867:
	.uleb128 .LEHB33-.LFB9867
	.uleb128 .LEHE33-.LEHB33
	.uleb128 0
	.uleb128 0
	.uleb128 .LEHB34-.LFB9867
	.uleb128 .LEHE34-.LEHB34
	.uleb128 .L577-.LFB9867
	.uleb128 0
.LLSDACSE9867:
	.text
	.cfi_endproc
	.section	.text.unlikely
	.cfi_startproc
	.cfi_personality 0x9b,DW.ref.__gxx_personality_v0
	.cfi_lsda 0x1b,.LLSDAC9867
	.type	_ZNSt17_Function_handlerIFSt10shared_ptrIN8opendnp311IMasterTaskEEvEZN8asiodnp318MasterSessionStack7AddScanEN7openpal12TimeDurationERKSt6vectorINS1_6HeaderESaISA_EERKNS1_10TaskConfigEEUlvE_E10_M_managerERSt9_Any_dataRKSK_St18_Manager_operation.cold, @function
_ZNSt17_Function_handlerIFSt10shared_ptrIN8opendnp311IMasterTaskEEvEZN8asiodnp318MasterSessionStack7AddScanEN7openpal12TimeDurationERKSt6vectorINS1_6HeaderESaISA_EERKNS1_10TaskConfigEEUlvE_E10_M_managerERSt9_Any_dataRKSK_St18_Manager_operation.cold:
.LFSB9867:
.L572:
	.cfi_def_cfa_offset 48
	.cfi_offset 3, -32
	.cfi_offset 14, -24
	.cfi_offset 15, -16
	movq	40(%rbx), %rax
	testq	%rax, %rax
	je	.L573
	movl	$3, %edx
	movq	%r14, %rsi
	movq	%r14, %rdi
	call	*%rax
.L573:
	movq	8(%rbx), %rdi
	testq	%rdi, %rdi
	je	.L574
	call	_ZNSt16_Sp_counted_baseILN9__gnu_cxx12_Lock_policyE2EE10_M_releaseEv@PLT
.L574:
	movq	%rbx, %rdi
	movl	$72, %esi
	call	_ZdlPvm@PLT
	movq	%r15, %rdi
.LEHB35:
	call	_Unwind_Resume@PLT
.LEHE35:
	.cfi_endproc
.LFE9867:
	.section	.gcc_except_table
.LLSDAC9867:
	.byte	0xff
	.byte	0xff
	.byte	0x1
	.uleb128 .LLSDACSEC9867-.LLSDACSBC9867
.LLSDACSBC9867:
	.uleb128 .LEHB35-.LCOLDB32
	.uleb128 .LEHE35-.LEHB35
	.uleb128 0
	.uleb128 0
.LLSDACSEC9867:
	.section	.text.unlikely
	.text
	.size	_ZNSt17_Function_handlerIFSt10shared_ptrIN8opendnp311IMasterTaskEEvEZN8asiodnp318MasterSessionStack7AddScanEN7openpal12TimeDurationERKSt6vectorINS1_6HeaderESaISA_EERKNS1_10TaskConfigEEUlvE_E10_M_managerERSt9_Any_dataRKSK_St18_Manager_operation, .-_ZNSt17_Function_handlerIFSt10shared_ptrIN8opendnp311IMasterTaskEEvEZN8asiodnp318MasterSessionStack7AddScanEN7openpal12TimeDurationERKSt6vectorINS1_6HeaderESaISA_EERKNS1_10TaskConfigEEUlvE_E10_M_managerERSt9_Any_dataRKSK_St18_Manager_operation
	.section	.text.unlikely
	.size	_ZNSt17_Function_handlerIFSt10shared_ptrIN8opendnp311IMasterTaskEEvEZN8asiodnp318MasterSessionStack7AddScanEN7openpal12TimeDurationERKSt6vectorINS1_6HeaderESaISA_EERKNS1_10TaskConfigEEUlvE_E10_M_managerERSt9_Any_dataRKSK_St18_Manager_operation.cold, .-_ZNSt17_Function_handlerIFSt10shared_ptrIN8opendnp311IMasterTaskEEvEZN8asiodnp318MasterSessionStack7AddScanEN7openpal12TimeDurationERKSt6vectorINS1_6HeaderESaISA_EERKNS1_10TaskConfigEEUlvE_E10_M_managerERSt9_Any_dataRKSK_St18_Manager_operation.cold
.LCOLDE32:
	.text
.LHOTE32:
	.section	.text._ZN8opendnp38MContextD2Ev,"axG",@progbits,_ZN8opendnp38MContextD5Ev,comdat
	.align 2
	.p2align 4
	.weak	_ZN8opendnp38MContextD2Ev
	.type	_ZN8opendnp38MContextD2Ev, @function
_ZN8opendnp38MContextD2Ev:
.LFB8007:
	.cfi_startproc
	movq	_ZTVN8opendnp38MContextE@GOTPCREL(%rip), %rax
	pushq	%r14
	.cfi_def_cfa_offset 16
	.cfi_offset 14, -16
	pushq	%r13
	.cfi_def_cfa_offset 24
	.cfi_offset 13, -24
	leaq	128(%rax), %rdx
	leaq	16(%rax), %rcx
	pushq	%r12
	.cfi_def_cfa_offset 32
	.cfi_offset 12, -32
	movq	%rdi, %r12
	movq	%rcx, %xmm0
	movq	%rdx, %xmm1
	addq	$152, %rax
	pushq	%rbp
	.cfi_def_cfa_offset 40
	.cfi_offset 6, -40
	punpcklqdq	%xmm1, %xmm0
	pushq	%rbx
	.cfi_def_cfa_offset 48
	.cfi_offset 3, -48
	movq	%rax, 16(%rdi)
	movups	%xmm0, (%rdi)
	movq	504(%rdi), %rdi
	testq	%rdi, %rdi
	je	.L605
	call	_ZdaPv@PLT
.L605:
	movq	408(%r12), %rdi
	testq	%rdi, %rdi
	je	.L606
	movq	480(%r12), %rax
	movq	448(%r12), %rbx
	leaq	8(%rax), %rbp
	cmpq	%rbp, %rbx
	jnb	.L607
	.p2align 4
	.p2align 3
.L608:
	movq	(%rbx), %rdi
	movl	$510, %esi
	addq	$8, %rbx
	call	_ZdlPvm@PLT
	cmpq	%rbp, %rbx
	jb	.L608
	movq	408(%r12), %rdi
.L607:
	movq	416(%r12), %rax
	leaq	0(,%rax,8), %rsi
	call	_ZdlPvm@PLT
.L606:
	movq	392(%r12), %r13
	movq	384(%r12), %rbx
	cmpq	%rbx, %r13
	je	.L609
	movabsq	$4294967297, %r14
	jmp	.L616
	.p2align 4,,10
	.p2align 3
.L699:
	movl	8(%rbp), %eax
	leal	-1(%rax), %edx
	movl	%edx, 8(%rbp)
	cmpl	$1, %eax
	je	.L696
.L611:
	addq	$16, %rbx
	cmpq	%rbx, %r13
	je	.L697
.L616:
	movq	8(%rbx), %rbp
	testq	%rbp, %rbp
	je	.L611
	movq	8(%rbp), %rax
	leaq	8(%rbp), %rdx
	cmpq	%r14, %rax
	je	.L698
	movq	__libc_single_threaded@GOTPCREL(%rip), %rax
	cmpb	$0, (%rax)
	jne	.L699
	movl	$-1, %eax
	lock xaddl	%eax, (%rdx)
	cmpl	$1, %eax
	jne	.L611
.L696:
	movq	%rbp, %rdi
	addq	$16, %rbx
	call	_ZNSt16_Sp_counted_baseILN9__gnu_cxx12_Lock_policyE2EE24_M_release_last_use_coldEv@PLT
	cmpq	%rbx, %r13
	jne	.L616
	.p2align 4
	.p2align 3
.L697:
	movq	384(%r12), %rbx
.L609:
	testq	%rbx, %rbx
	je	.L617
	movq	400(%r12), %rsi
	movq	%rbx, %rdi
	subq	%rbx, %rsi
	call	_ZdlPvm@PLT
.L617:
	movq	360(%r12), %r13
	movq	352(%r12), %rbx
	cmpq	%rbx, %r13
	je	.L618
	movabsq	$4294967297, %r14
	jmp	.L625
	.p2align 4,,10
	.p2align 3
.L703:
	movl	8(%rbp), %eax
	leal	-1(%rax), %edx
	movl	%edx, 8(%rbp)
	cmpl	$1, %eax
	je	.L700
.L620:
	addq	$16, %rbx
	cmpq	%rbx, %r13
	je	.L701
.L625:
	movq	8(%rbx), %rbp
	testq	%rbp, %rbp
	je	.L620
	movq	8(%rbp), %rax
	leaq	8(%rbp), %rdx
	cmpq	%r14, %rax
	je	.L702
	movq	__libc_single_threaded@GOTPCREL(%rip), %rax
	cmpb	$0, (%rax)
	jne	.L703
	movl	$-1, %eax
	lock xaddl	%eax, (%rdx)
	cmpl	$1, %eax
	jne	.L620
.L700:
	movq	%rbp, %rdi
	addq	$16, %rbx
	call	_ZNSt16_Sp_counted_baseILN9__gnu_cxx12_Lock_policyE2EE24_M_release_last_use_coldEv@PLT
	cmpq	%rbx, %r13
	jne	.L625
	.p2align 4
	.p2align 3
.L701:
	movq	352(%r12), %rbx
.L618:
	testq	%rbx, %rbx
	je	.L626
	movq	368(%r12), %rsi
	movq	%rbx, %rdi
	subq	%rbx, %rsi
	call	_ZdlPvm@PLT
.L626:
	movq	344(%r12), %rdi
	testq	%rdi, %rdi
	je	.L627
	call	_ZNSt16_Sp_counted_baseILN9__gnu_cxx12_Lock_policyE2EE10_M_releaseEv@PLT
.L627:
	movq	328(%r12), %rdi
	testq	%rdi, %rdi
	je	.L628
	call	_ZNSt16_Sp_counted_baseILN9__gnu_cxx12_Lock_policyE2EE10_M_releaseEv@PLT
.L628:
	movq	312(%r12), %rdi
	testq	%rdi, %rdi
	je	.L629
	call	_ZNSt16_Sp_counted_baseILN9__gnu_cxx12_Lock_policyE2EE10_M_releaseEv@PLT
.L629:
	movq	296(%r12), %rdi
	testq	%rdi, %rdi
	je	.L630
	call	_ZNSt16_Sp_counted_baseILN9__gnu_cxx12_Lock_policyE2EE10_M_releaseEv@PLT
.L630:
	movq	280(%r12), %rdi
	testq	%rdi, %rdi
	je	.L631
	call	_ZNSt16_Sp_counted_baseILN9__gnu_cxx12_Lock_policyE2EE10_M_releaseEv@PLT
.L631:
	movq	264(%r12), %rdi
	testq	%rdi, %rdi
	je	.L632
	call	_ZNSt16_Sp_counted_baseILN9__gnu_cxx12_Lock_policyE2EE10_M_releaseEv@PLT
.L632:
	movq	248(%r12), %rdi
	testq	%rdi, %rdi
	je	.L633
	call	_ZNSt16_Sp_counted_baseILN9__gnu_cxx12_Lock_policyE2EE10_M_releaseEv@PLT
.L633:
	leaq	224(%r12), %rdi
	call	_ZN7openpal8TimerRefD1Ev@PLT
	leaq	208(%r12), %rdi
	call	_ZN7openpal8TimerRefD1Ev@PLT
	leaq	192(%r12), %rdi
	call	_ZN7openpal8TimerRefD1Ev@PLT
	movq	184(%r12), %rdi
	testq	%rdi, %rdi
	je	.L634
	call	_ZNSt16_Sp_counted_baseILN9__gnu_cxx12_Lock_policyE2EE10_M_releaseEv@PLT
.L634:
	movq	152(%r12), %rdi
	testq	%rdi, %rdi
	je	.L635
	call	_ZNSt16_Sp_counted_baseILN9__gnu_cxx12_Lock_policyE2EE10_M_releaseEv@PLT
.L635:
	movq	136(%r12), %rdi
	testq	%rdi, %rdi
	je	.L636
	call	_ZNSt16_Sp_counted_baseILN9__gnu_cxx12_Lock_policyE2EE10_M_releaseEv@PLT
.L636:
	movq	80(%r12), %rdi
	testq	%rdi, %rdi
	je	.L637
	call	_ZNSt16_Sp_counted_baseILN9__gnu_cxx12_Lock_policyE2EE10_M_releaseEv@PLT
.L637:
	movq	64(%r12), %rdi
	testq	%rdi, %rdi
	je	.L638
	call	_ZNSt16_Sp_counted_baseILN9__gnu_cxx12_Lock_policyE2EE10_M_releaseEv@PLT
.L638:
	movq	48(%r12), %rdi
	testq	%rdi, %rdi
	je	.L639
	call	_ZNSt16_Sp_counted_baseILN9__gnu_cxx12_Lock_policyE2EE10_M_releaseEv@PLT
.L639:
	movq	32(%r12), %rdi
	testq	%rdi, %rdi
	je	.L604
	popq	%rbx
	.cfi_remember_state
	.cfi_def_cfa_offset 40
	popq	%rbp
	.cfi_def_cfa_offset 32
	popq	%r12
	.cfi_def_cfa_offset 24
	popq	%r13
	.cfi_def_cfa_offset 16
	popq	%r14
	.cfi_def_cfa_offset 8
	jmp	_ZNSt16_Sp_counted_baseILN9__gnu_cxx12_Lock_policyE2EE10_M_releaseEv@PLT
	.p2align 4,,10
	.p2align 3
.L698:
	.cfi_restore_state
	movq	0(%rbp), %rax
	movq	%rbp, %rdi
	movq	$0, 8(%rbp)
	call	*16(%rax)
	movq	0(%rbp), %rax
	movq	%rbp, %rdi
	call	*24(%rax)
	jmp	.L611
	.p2align 4,,10
	.p2align 3
.L702:
	movq	0(%rbp), %rax
	movq	%rbp, %rdi
	movq	$0, 8(%rbp)
	call	*16(%rax)
	movq	0(%rbp), %rax
	movq	%rbp, %rdi
	call	*24(%rax)
	jmp	.L620
	.p2align 4,,10
	.p2align 3
.L604:
	popq	%rbx
	.cfi_def_cfa_offset 40
	popq	%rbp
	.cfi_def_cfa_offset 32
	popq	%r12
	.cfi_def_cfa_offset 24
	popq	%r13
	.cfi_def_cfa_offset 16
	popq	%r14
	.cfi_def_cfa_offset 8
	ret
	.cfi_endproc
.LFE8007:
	.size	_ZN8opendnp38MContextD2Ev, .-_ZN8opendnp38MContextD2Ev
	.weak	_ZN8opendnp38MContextD1Ev
	.set	_ZN8opendnp38MContextD1Ev,_ZN8opendnp38MContextD2Ev
	.section	.text.unlikely
	.align 2
	.type	_ZZN8asiodnp318MasterSessionStack4ScanERKSt6vectorIN8opendnp36HeaderESaIS3_EERKNS2_10TaskConfigEENUlvE_D2Ev, @function
_ZZN8asiodnp318MasterSessionStack4ScanERKSt6vectorIN8opendnp36HeaderESaIS3_EERKNS2_10TaskConfigEENUlvE_D2Ev:
.LFB8118:
	.cfi_startproc
	.cfi_personality 0x9b,DW.ref.__gxx_personality_v0
	.cfi_lsda 0x1b,.LLSDA8118
	pushq	%rbx
	.cfi_def_cfa_offset 16
	.cfi_offset 3, -16
	movq	32(%rdi), %rax
	movq	%rdi, %rbx
	testq	%rax, %rax
	je	.L705
	leaq	16(%rdi), %rdi
	movl	$3, %edx
	movq	%rdi, %rsi
	call	*%rax
.L705:
	movq	8(%rbx), %rbx
	testq	%rbx, %rbx
	je	.L704
	movq	8(%rbx), %rcx
	leaq	8(%rbx), %rdx
	movabsq	$4294967297, %rax
	cmpq	%rax, %rcx
	jne	.L708
	xorl	%eax, %eax
	movq	%rbx, %rdi
	movq	%rax, 8(%rbx)
	movq	(%rbx), %rax
	call	*16(%rax)
	movq	(%rbx), %rax
	movq	%rbx, %rdi
	popq	%rbx
	.cfi_remember_state
	.cfi_def_cfa_offset 8
	movq	24(%rax), %rax
.LEHB36:
	jmp	*%rax
.L708:
	.cfi_restore_state
	movq	__libc_single_threaded@GOTPCREL(%rip), %rax
	cmpb	$0, (%rax)
	je	.L709
	movl	8(%rbx), %eax
	leal	-1(%rax), %edx
	movl	%edx, 8(%rbx)
	jmp	.L710
.L709:
	movl	$-1, %eax
	lock xaddl	%eax, (%rdx)
.L710:
	decl	%eax
	jne	.L704
	movq	%rbx, %rdi
	popq	%rbx
	.cfi_remember_state
	.cfi_def_cfa_offset 8
	jmp	_ZNSt16_Sp_counted_baseILN9__gnu_cxx12_Lock_policyE2EE24_M_release_last_use_coldEv@PLT
.LEHE36:
.L704:
	.cfi_restore_state
	popq	%rbx
	.cfi_def_cfa_offset 8
	ret
	.cfi_endproc
.LFE8118:
	.section	.gcc_except_table
.LLSDA8118:
	.byte	0xff
	.byte	0xff
	.byte	0x1
	.uleb128 .LLSDACSE8118-.LLSDACSB8118
.LLSDACSB8118:
	.uleb128 .LEHB36-.LFB8118
	.uleb128 .LEHE36-.LEHB36
	.uleb128 0
	.uleb128 0
.LLSDACSE8118:
	.section	.text.unlikely
	.size	_ZZN8asiodnp318MasterSessionStack4ScanERKSt6vectorIN8opendnp36HeaderESaIS3_EERKNS2_10TaskConfigEENUlvE_D2Ev, .-_ZZN8asiodnp318MasterSessionStack4ScanERKSt6vectorIN8opendnp36HeaderESaIS3_EERKNS2_10TaskConfigEENUlvE_D2Ev
	.set	_ZZN8asiodnp318MasterSessionStack4ScanERKSt6vectorIN8opendnp36HeaderESaIS3_EERKNS2_10TaskConfigEENUlvE_D1Ev,_ZZN8asiodnp318MasterSessionStack4ScanERKSt6vectorIN8opendnp36HeaderESaIS3_EERKNS2_10TaskConfigEENUlvE_D2Ev
	.align 2
.LCOLDB33:
	.text
.LHOTB33:
	.align 2
	.p2align 4
	.globl	_ZN8asiodnp318MasterSessionStack4ScanERKSt6vectorIN8opendnp36HeaderESaIS3_EERKNS2_10TaskConfigE
	.type	_ZN8asiodnp318MasterSessionStack4ScanERKSt6vectorIN8opendnp36HeaderESaIS3_EERKNS2_10TaskConfigE, @function
_ZN8asiodnp318MasterSessionStack4ScanERKSt6vectorIN8opendnp36HeaderESaIS3_EERKNS2_10TaskConfigE:
.LFB8115:
	.cfi_startproc
	.cfi_personality 0x9b,DW.ref.__gxx_personality_v0
	.cfi_lsda 0x1b,.LLSDA8115
	pushq	%r13
	.cfi_def_cfa_offset 16
	.cfi_offset 13, -16
	pushq	%r12
	.cfi_def_cfa_offset 24
	.cfi_offset 12, -24
	movq	%rdi, %r12
	pushq	%rbp
	.cfi_def_cfa_offset 32
	.cfi_offset 6, -32
	movq	%rdx, %rbp
	pushq	%rbx
	.cfi_def_cfa_offset 40
	.cfi_offset 3, -40
	subq	$184, %rsp
	.cfi_def_cfa_offset 224
	movq	%rsp, %rdi
.LEHB37:
	call	_ZN8asiodnp315ConvertToLambdaERKSt6vectorIN8opendnp36HeaderESaIS2_EE@PLT
.LEHE37:
	movq	24(%r12), %rax
	movq	%rax, 40(%rsp)
	testq	%rax, %rax
	je	.L718
	leaq	8(%rax), %rdx
	movl	8(%rax), %eax
.L720:
	testl	%eax, %eax
	je	.L718
	leal	1(%rax), %ecx
	lock cmpxchgl	%ecx, (%rdx)
	jne	.L720
	movq	16(%r12), %xmm0
	movq	16(%rsp), %rax
	pxor	%xmm1, %xmm1
	movq	$0, 64(%rsp)
	movq	$0, 72(%rsp)
	movq	%xmm0, 32(%rsp)
	movaps	%xmm1, 48(%rsp)
	testq	%rax, %rax
	je	.L749
	movl	$2, %edx
	movq	%rsp, %rsi
	leaq	48(%rsp), %rdi
.LEHB38:
	call	*%rax
.LEHE38:
	movdqa	16(%rsp), %xmm0
	movq	16(%rsp), %rax
	movaps	%xmm0, 64(%rsp)
	movq	32(%rsp), %xmm0
.L749:
	movq	40(%rsp), %rdx
	movdqu	0(%rbp), %xmm1
	movq	32(%r12), %rbp
	movq	%rdx, %xmm2
	movaps	%xmm1, 80(%rsp)
	punpcklqdq	%xmm2, %xmm0
	movaps	%xmm0, 96(%rsp)
	testq	%rdx, %rdx
	je	.L722
	movq	__libc_single_threaded@GOTPCREL(%rip), %rcx
	cmpb	$0, (%rcx)
	je	.L727
	addl	$1, 8(%rdx)
.L722:
	movq	$0, 128(%rsp)
	pxor	%xmm0, %xmm0
	movq	$0, 136(%rsp)
	movaps	%xmm0, 112(%rsp)
	testq	%rax, %rax
	je	.L729
	leaq	48(%rsp), %rsi
	movl	$2, %edx
	leaq	112(%rsp), %rdi
.LEHB39:
	call	*%rax
.LEHE39:
	movdqa	64(%rsp), %xmm0
	movaps	%xmm0, 128(%rsp)
.L729:
	movdqa	80(%rsp), %xmm0
	movq	40(%rbp), %r12
	movaps	%xmm0, 144(%rsp)
	data16	leaq	_ZN4asio6detail15keyword_tss_ptrINS0_10call_stackINS0_15task_io_serviceENS0_27task_io_service_thread_infoEE7contextEE6value_E@tlsgd(%rip), %rdi
	.value	0x6666
	rex64
	call	__tls_get_addr@PLT
	movq	(%rax), %rax
	testq	%rax, %rax
	je	.L731
	movq	8(%rax), %rax
	testq	%rax, %rax
	je	.L731
	movq	(%rax), %rdx
	testq	%rdx, %rdx
	je	.L731
	movq	$0, (%rax)
	movzbl	(%rdx), %eax
	cmpb	$87, %al
	jbe	.L736
	movb	%al, 88(%rdx)
	jmp	.L737
	.p2align 4,,10
	.p2align 3
.L736:
	movq	%rdx, %rdi
	call	_ZdlPv@PLT
.L731:
	movl	$89, %edi
.LEHB40:
	call	_Znwm@PLT
.LEHE40:
	movb	$88, 88(%rax)
	movq	%rax, %rdx
.L737:
	leaq	_ZN4asio6detail18completion_handlerIZN8asiodnp318MasterSessionStack4ScanERKSt6vectorIN8opendnp36HeaderESaIS6_EERKNS5_10TaskConfigEEUlvE_E11do_completeEPNS0_15task_io_serviceEPNS0_25task_io_service_operationERKSt10error_codem(%rip), %rax
	pxor	%xmm1, %xmm1
	movq	$0, (%rdx)
	leaq	48(%rbp), %rsi
	movq	%rax, 8(%rdx)
	movdqa	96(%rsp), %xmm0
	movl	$0, 16(%rdx)
	movups	%xmm0, 24(%rdx)
	movq	136(%rsp), %rax
	pxor	%xmm0, %xmm0
	movq	$0, 56(%rdx)
	movq	%rax, 64(%rdx)
	movq	128(%rsp), %rax
	movaps	%xmm0, 96(%rsp)
	movups	%xmm1, 40(%rdx)
	testq	%rax, %rax
	je	.L738
	movdqa	112(%rsp), %xmm1
	movq	%rax, 56(%rdx)
	movaps	%xmm0, 128(%rsp)
	movups	%xmm1, 40(%rdx)
.L738:
	movdqa	144(%rsp), %xmm0
	xorl	%ecx, %ecx
	movq	%r12, %rdi
	movups	%xmm0, 72(%rdx)
	call	_ZN4asio6detail14strand_service7do_postERPNS1_11strand_implEPNS0_25task_io_service_operationEb@PLT
	movq	128(%rsp), %rax
	testq	%rax, %rax
	je	.L739
	leaq	112(%rsp), %rdi
	movl	$3, %edx
	movq	%rdi, %rsi
	call	*%rax
.L739:
	movq	104(%rsp), %rdi
	testq	%rdi, %rdi
	je	.L740
	call	_ZNSt16_Sp_counted_baseILN9__gnu_cxx12_Lock_policyE2EE10_M_releaseEv@PLT
.L740:
	movq	64(%rsp), %rax
	testq	%rax, %rax
	je	.L742
	leaq	48(%rsp), %rdi
	movl	$3, %edx
	movq	%rdi, %rsi
	call	*%rax
.L742:
	movq	40(%rsp), %rdi
	testq	%rdi, %rdi
	je	.L744
	call	_ZNSt16_Sp_counted_baseILN9__gnu_cxx12_Lock_policyE2EE10_M_releaseEv@PLT
.L744:
	movq	16(%rsp), %rax
	testq	%rax, %rax
	je	.L716
	movl	$3, %edx
	movq	%rsp, %rsi
	movq	%rsp, %rdi
	call	*%rax
.L716:
	addq	$184, %rsp
	.cfi_remember_state
	.cfi_def_cfa_offset 40
	popq	%rbx
	.cfi_def_cfa_offset 32
	popq	%rbp
	.cfi_def_cfa_offset 24
	popq	%r12
	.cfi_def_cfa_offset 16
	popq	%r13
	.cfi_def_cfa_offset 8
	ret
	.p2align 4,,10
	.p2align 3
.L727:
	.cfi_restore_state
	lock addl	$1, 8(%rdx)
	movq	64(%rsp), %rax
	jmp	.L722
.L751:
	movq	%rax, %rbp
	jmp	.L723
.L753:
	movq	%rax, %rbp
	jmp	.L732
.L752:
	movq	%rax, %rbp
	jmp	.L743
	.section	.gcc_except_table
.LLSDA8115:
	.byte	0xff
	.byte	0xff
	.byte	0x1
	.uleb128 .LLSDACSE8115-.LLSDACSB8115
.LLSDACSB8115:
	.uleb128 .LEHB37-.LFB8115
	.uleb128 .LEHE37-.LEHB37
	.uleb128 0
	.uleb128 0
	.uleb128 .LEHB38-.LFB8115
	.uleb128 .LEHE38-.LEHB38
	.uleb128 .L751-.LFB8115
	.uleb128 0
	.uleb128 .LEHB39-.LFB8115
	.uleb128 .LEHE39-.LEHB39
	.uleb128 .L753-.LFB8115
	.uleb128 0
	.uleb128 .LEHB40-.LFB8115
	.uleb128 .LEHE40-.LEHB40
	.uleb128 .L752-.LFB8115
	.uleb128 0
.LLSDACSE8115:
	.text
	.cfi_endproc
	.section	.text.unlikely
	.cfi_startproc
	.cfi_personality 0x9b,DW.ref.__gxx_personality_v0
	.cfi_lsda 0x1b,.LLSDAC8115
	.type	_ZN8asiodnp318MasterSessionStack4ScanERKSt6vectorIN8opendnp36HeaderESaIS3_EERKNS2_10TaskConfigE.cold, @function
_ZN8asiodnp318MasterSessionStack4ScanERKSt6vectorIN8opendnp36HeaderESaIS3_EERKNS2_10TaskConfigE.cold:
.LFSB8115:
.L723:
	.cfi_def_cfa_offset 224
	.cfi_offset 3, -40
	.cfi_offset 6, -32
	.cfi_offset 12, -24
	.cfi_offset 13, -16
	movq	64(%rsp), %rax
	testq	%rax, %rax
	je	.L724
	movl	$3, %edx
	leaq	48(%rsp), %rsi
	leaq	48(%rsp), %rdi
	call	*%rax
.L724:
	movq	40(%rsp), %rdi
	testq	%rdi, %rdi
	je	.L746
	call	_ZNSt16_Sp_counted_baseILN9__gnu_cxx12_Lock_policyE2EE10_M_releaseEv@PLT
.L746:
	movq	16(%rsp), %rax
	testq	%rax, %rax
	je	.L747
	movl	$3, %edx
	movq	%rsp, %rsi
	movq	%rsp, %rdi
	call	*%rax
.L747:
	movq	%rbp, %rdi
.LEHB41:
	call	_Unwind_Resume@PLT
.LEHE41:
.L732:
	movq	128(%rsp), %rax
	testq	%rax, %rax
	je	.L733
	movl	$3, %edx
	leaq	112(%rsp), %rsi
	leaq	112(%rsp), %rdi
	call	*%rax
.L733:
	movq	104(%rsp), %rdi
	testq	%rdi, %rdi
	je	.L735
	call	_ZNSt16_Sp_counted_baseILN9__gnu_cxx12_Lock_policyE2EE10_M_releaseEv@PLT
	jmp	.L735
.L718:
	movl	$8, %edi
	call	__cxa_allocate_exception@PLT
	movq	_ZTVSt12bad_weak_ptr@GOTPCREL(%rip), %rdx
	movq	_ZTISt12bad_weak_ptr@GOTPCREL(%rip), %rsi
	movq	%rax, %rdi
	addq	$16, %rdx
	movq	%rdx, (%rax)
	movq	_ZNSt12bad_weak_ptrD1Ev@GOTPCREL(%rip), %rdx
.LEHB42:
	call	__cxa_throw@PLT
.LEHE42:
.L750:
	movq	%rax, %rbp
	jmp	.L746
.L743:
	leaq	96(%rsp), %rdi
	call	_ZZN8asiodnp318MasterSessionStack4ScanERKSt6vectorIN8opendnp36HeaderESaIS3_EERKNS2_10TaskConfigEENUlvE_D1Ev
.L735:
	leaq	32(%rsp), %rdi
	call	_ZZN8asiodnp318MasterSessionStack4ScanERKSt6vectorIN8opendnp36HeaderESaIS3_EERKNS2_10TaskConfigEENUlvE_D1Ev
	jmp	.L746
	.cfi_endproc
.LFE8115:
	.section	.gcc_except_table
.LLSDAC8115:
	.byte	0xff
	.byte	0xff
	.byte	0x1
	.uleb128 .LLSDACSEC8115-.LLSDACSBC8115
.LLSDACSBC8115:
	.uleb128 .LEHB41-.LCOLDB33
	.uleb128 .LEHE41-.LEHB41
	.uleb128 0
	.uleb128 0
	.uleb128 .LEHB42-.LCOLDB33
	.uleb128 .LEHE42-.LEHB42
	.uleb128 .L750-.LCOLDB33
	.uleb128 0
.LLSDACSEC8115:
	.section	.text.unlikely
	.text
	.size	_ZN8asiodnp318MasterSessionStack4ScanERKSt6vectorIN8opendnp36HeaderESaIS3_EERKNS2_10TaskConfigE, .-_ZN8asiodnp318MasterSessionStack4ScanERKSt6vectorIN8opendnp36HeaderESaIS3_EERKNS2_10TaskConfigE
	.section	.text.unlikely
	.size	_ZN8asiodnp318MasterSessionStack4ScanERKSt6vectorIN8opendnp36HeaderESaIS3_EERKNS2_10TaskConfigE.cold, .-_ZN8asiodnp318MasterSessionStack4ScanERKSt6vectorIN8opendnp36HeaderESaIS3_EERKNS2_10TaskConfigE.cold
.LCOLDE33:
	.text
.LHOTE33:
	.section	.text.unlikely
	.align 2
	.type	_ZZN8asiodnp318MasterSessionStack7RestartEN8opendnp311RestartTypeERKSt8functionIFvRKNS1_22RestartOperationResultEEENS1_10TaskConfigEENUlvE_D2Ev, @function
_ZZN8asiodnp318MasterSessionStack7RestartEN8opendnp311RestartTypeERKSt8functionIFvRKNS1_22RestartOperationResultEEENS1_10TaskConfigEENUlvE_D2Ev:
.LFB8161:
	.cfi_startproc
	.cfi_personality 0x9b,DW.ref.__gxx_personality_v0
	.cfi_lsda 0x1b,.LLSDA8161
	pushq	%rbx
	.cfi_def_cfa_offset 16
	.cfi_offset 3, -16
	movq	40(%rdi), %rax
	movq	%rdi, %rbx
	testq	%rax, %rax
	je	.L795
	leaq	24(%rdi), %rdi
	movl	$3, %edx
	movq	%rdi, %rsi
	call	*%rax
.L795:
	movq	8(%rbx), %rbx
	testq	%rbx, %rbx
	je	.L794
	movq	8(%rbx), %rcx
	leaq	8(%rbx), %rdx
	movabsq	$4294967297, %rax
	cmpq	%rax, %rcx
	jne	.L798
	xorl	%eax, %eax
	movq	%rbx, %rdi
	movq	%rax, 8(%rbx)
	movq	(%rbx), %rax
	call	*16(%rax)
	movq	(%rbx), %rax
	movq	%rbx, %rdi
	popq	%rbx
	.cfi_remember_state
	.cfi_def_cfa_offset 8
	movq	24(%rax), %rax
.LEHB43:
	jmp	*%rax
.L798:
	.cfi_restore_state
	movq	__libc_single_threaded@GOTPCREL(%rip), %rax
	cmpb	$0, (%rax)
	je	.L799
	movl	8(%rbx), %eax
	leal	-1(%rax), %edx
	movl	%edx, 8(%rbx)
	jmp	.L800
.L799:
	movl	$-1, %eax
	lock xaddl	%eax, (%rdx)
.L800:
	decl	%eax
	jne	.L794
	movq	%rbx, %rdi
	popq	%rbx
	.cfi_remember_state
	.cfi_def_cfa_offset 8
	jmp	_ZNSt16_Sp_counted_baseILN9__gnu_cxx12_Lock_policyE2EE24_M_release_last_use_coldEv@PLT
.LEHE43:
.L794:
	.cfi_restore_state
	popq	%rbx
	.cfi_def_cfa_offset 8
	ret
	.cfi_endproc
.LFE8161:
	.section	.gcc_except_table
.LLSDA8161:
	.byte	0xff
	.byte	0xff
	.byte	0x1
	.uleb128 .LLSDACSE8161-.LLSDACSB8161
.LLSDACSB8161:
	.uleb128 .LEHB43-.LFB8161
	.uleb128 .LEHE43-.LEHB43
	.uleb128 0
	.uleb128 0
.LLSDACSE8161:
	.section	.text.unlikely
	.size	_ZZN8asiodnp318MasterSessionStack7RestartEN8opendnp311RestartTypeERKSt8functionIFvRKNS1_22RestartOperationResultEEENS1_10TaskConfigEENUlvE_D2Ev, .-_ZZN8asiodnp318MasterSessionStack7RestartEN8opendnp311RestartTypeERKSt8functionIFvRKNS1_22RestartOperationResultEEENS1_10TaskConfigEENUlvE_D2Ev
	.set	_ZZN8asiodnp318MasterSessionStack7RestartEN8opendnp311RestartTypeERKSt8functionIFvRKNS1_22RestartOperationResultEEENS1_10TaskConfigEENUlvE_D1Ev,_ZZN8asiodnp318MasterSessionStack7RestartEN8opendnp311RestartTypeERKSt8functionIFvRKNS1_22RestartOperationResultEEENS1_10TaskConfigEENUlvE_D2Ev
	.section	.text._ZN8opendnp38MContextD0Ev,"axG",@progbits,_ZN8opendnp38MContextD5Ev,comdat
	.align 2
	.p2align 4
	.weak	_ZN8opendnp38MContextD0Ev
	.type	_ZN8opendnp38MContextD0Ev, @function
_ZN8opendnp38MContextD0Ev:
.LFB8009:
	.cfi_startproc
	movq	_ZTVN8opendnp38MContextE@GOTPCREL(%rip), %rax
	pushq	%r14
	.cfi_def_cfa_offset 16
	.cfi_offset 14, -16
	pushq	%r13
	.cfi_def_cfa_offset 24
	.cfi_offset 13, -24
	leaq	128(%rax), %rdx
	leaq	16(%rax), %rcx
	pushq	%r12
	.cfi_def_cfa_offset 32
	.cfi_offset 12, -32
	movq	%rdi, %r12
	movq	%rcx, %xmm0
	movq	%rdx, %xmm1
	addq	$152, %rax
	pushq	%rbp
	.cfi_def_cfa_offset 40
	.cfi_offset 6, -40
	punpcklqdq	%xmm1, %xmm0
	pushq	%rbx
	.cfi_def_cfa_offset 48
	.cfi_offset 3, -48
	movq	%rax, 16(%rdi)
	movups	%xmm0, (%rdi)
	movq	504(%rdi), %rdi
	testq	%rdi, %rdi
	je	.L807
	call	_ZdaPv@PLT
.L807:
	movq	408(%r12), %rdi
	testq	%rdi, %rdi
	je	.L808
	movq	480(%r12), %rax
	movq	448(%r12), %rbx
	leaq	8(%rax), %rbp
	cmpq	%rbp, %rbx
	jnb	.L809
	.p2align 4
	.p2align 3
.L810:
	movq	(%rbx), %rdi
	movl	$510, %esi
	addq	$8, %rbx
	call	_ZdlPvm@PLT
	cmpq	%rbp, %rbx
	jb	.L810
	movq	408(%r12), %rdi
.L809:
	movq	416(%r12), %rax
	leaq	0(,%rax,8), %rsi
	call	_ZdlPvm@PLT
.L808:
	movq	392(%r12), %r13
	movq	384(%r12), %rbx
	cmpq	%rbx, %r13
	je	.L811
	movabsq	$4294967297, %r14
	jmp	.L818
	.p2align 4,,10
	.p2align 3
.L904:
	movl	8(%rbp), %eax
	leal	-1(%rax), %edx
	movl	%edx, 8(%rbp)
	cmpl	$1, %eax
	je	.L901
.L813:
	addq	$16, %rbx
	cmpq	%rbx, %r13
	je	.L902
.L818:
	movq	8(%rbx), %rbp
	testq	%rbp, %rbp
	je	.L813
	movq	8(%rbp), %rax
	leaq	8(%rbp), %rdx
	cmpq	%r14, %rax
	je	.L903
	movq	__libc_single_threaded@GOTPCREL(%rip), %rax
	cmpb	$0, (%rax)
	jne	.L904
	movl	$-1, %eax
	lock xaddl	%eax, (%rdx)
	cmpl	$1, %eax
	jne	.L813
.L901:
	movq	%rbp, %rdi
	addq	$16, %rbx
	call	_ZNSt16_Sp_counted_baseILN9__gnu_cxx12_Lock_policyE2EE24_M_release_last_use_coldEv@PLT
	cmpq	%rbx, %r13
	jne	.L818
	.p2align 4
	.p2align 3
.L902:
	movq	384(%r12), %rbx
.L811:
	testq	%rbx, %rbx
	je	.L819
	movq	400(%r12), %rsi
	movq	%rbx, %rdi
	subq	%rbx, %rsi
	call	_ZdlPvm@PLT
.L819:
	movq	360(%r12), %r13
	movq	352(%r12), %rbx
	cmpq	%rbx, %r13
	je	.L820
	movabsq	$4294967297, %r14
	jmp	.L827
	.p2align 4,,10
	.p2align 3
.L908:
	movl	8(%rbp), %eax
	leal	-1(%rax), %edx
	movl	%edx, 8(%rbp)
	cmpl	$1, %eax
	je	.L905
.L822:
	addq	$16, %rbx
	cmpq	%rbx, %r13
	je	.L906
.L827:
	movq	8(%rbx), %rbp
	testq	%rbp, %rbp
	je	.L822
	movq	8(%rbp), %rax
	leaq	8(%rbp), %rdx
	cmpq	%r14, %rax
	je	.L907
	movq	__libc_single_threaded@GOTPCREL(%rip), %rax
	cmpb	$0, (%rax)
	jne	.L908
	movl	$-1, %eax
	lock xaddl	%eax, (%rdx)
	cmpl	$1, %eax
	jne	.L822
.L905:
	movq	%rbp, %rdi
	addq	$16, %rbx
	call	_ZNSt16_Sp_counted_baseILN9__gnu_cxx12_Lock_policyE2EE24_M_release_last_use_coldEv@PLT
	cmpq	%rbx, %r13
	jne	.L827
	.p2align 4
	.p2align 3
.L906:
	movq	352(%r12), %rbx
.L820:
	testq	%rbx, %rbx
	je	.L828
	movq	368(%r12), %rsi
	movq	%rbx, %rdi
	subq	%rbx, %rsi
	call	_ZdlPvm@PLT
.L828:
	movq	344(%r12), %rdi
	testq	%rdi, %rdi
	je	.L829
	call	_ZNSt16_Sp_counted_baseILN9__gnu_cxx12_Lock_policyE2EE10_M_releaseEv@PLT
.L829:
	movq	328(%r12), %rdi
	testq	%rdi, %rdi
	je	.L830
	call	_ZNSt16_Sp_counted_baseILN9__gnu_cxx12_Lock_policyE2EE10_M_releaseEv@PLT
.L830:
	movq	312(%r12), %rdi
	testq	%rdi, %rdi
	je	.L831
	call	_ZNSt16_Sp_counted_baseILN9__gnu_cxx12_Lock_policyE2EE10_M_releaseEv@PLT
.L831:
	movq	296(%r12), %rdi
	testq	%rdi, %rdi
	je	.L832
	call	_ZNSt16_Sp_counted_baseILN9__gnu_cxx12_Lock_policyE2EE10_M_releaseEv@PLT
.L832:
	movq	280(%r12), %rdi
	testq	%rdi, %rdi
	je	.L833
	call	_ZNSt16_Sp_counted_baseILN9__gnu_cxx12_Lock_policyE2EE10_M_releaseEv@PLT
.L833:
	movq	264(%r12), %rdi
	testq	%rdi, %rdi
	je	.L834
	call	_ZNSt16_Sp_counted_baseILN9__gnu_cxx12_Lock_policyE2EE10_M_releaseEv@PLT
.L834:
	movq	248(%r12), %rdi
	testq	%rdi, %rdi
	je	.L835
	call	_ZNSt16_Sp_counted_baseILN9__gnu_cxx12_Lock_policyE2EE10_M_releaseEv@PLT
.L835:
	leaq	224(%r12), %rdi
	call	_ZN7openpal8TimerRefD1Ev@PLT
	leaq	208(%r12), %rdi
	call	_ZN7openpal8TimerRefD1Ev@PLT
	leaq	192(%r12), %rdi
	call	_ZN7openpal8TimerRefD1Ev@PLT
	movq	184(%r12), %rdi
	testq	%rdi, %rdi
	je	.L836
	call	_ZNSt16_Sp_counted_baseILN9__gnu_cxx12_Lock_policyE2EE10_M_releaseEv@PLT
.L836:
	movq	152(%r12), %rdi
	testq	%rdi, %rdi
	je	.L837
	call	_ZNSt16_Sp_counted_baseILN9__gnu_cxx12_Lock_policyE2EE10_M_releaseEv@PLT
.L837:
	movq	136(%r12), %rdi
	testq	%rdi, %rdi
	je	.L838
	call	_ZNSt16_Sp_counted_baseILN9__gnu_cxx12_Lock_policyE2EE10_M_releaseEv@PLT
.L838:
	movq	80(%r12), %rdi
	testq	%rdi, %rdi
	je	.L839
	call	_ZNSt16_Sp_counted_baseILN9__gnu_cxx12_Lock_policyE2EE10_M_releaseEv@PLT
.L839:
	movq	64(%r12), %rdi
	testq	%rdi, %rdi
	je	.L840
	call	_ZNSt16_Sp_counted_baseILN9__gnu_cxx12_Lock_policyE2EE10_M_releaseEv@PLT
.L840:
	movq	48(%r12), %rdi
	testq	%rdi, %rdi
	je	.L841
	call	_ZNSt16_Sp_counted_baseILN9__gnu_cxx12_Lock_policyE2EE10_M_releaseEv@PLT
.L841:
	movq	32(%r12), %rdi
	testq	%rdi, %rdi
	je	.L842
	call	_ZNSt16_Sp_counted_baseILN9__gnu_cxx12_Lock_policyE2EE10_M_releaseEv@PLT
.L842:
	popq	%rbx
	.cfi_remember_state
	.cfi_def_cfa_offset 40
	movq	%r12, %rdi
	popq	%rbp
	.cfi_def_cfa_offset 32
	movl	$520, %esi
	popq	%r12
	.cfi_def_cfa_offset 24
	popq	%r13
	.cfi_def_cfa_offset 16
	popq	%r14
	.cfi_def_cfa_offset 8
	jmp	_ZdlPvm@PLT
	.p2align 4,,10
	.p2align 3
.L903:
	.cfi_restore_state
	movq	0(%rbp), %rax
	movq	%rbp, %rdi
	movq	$0, 8(%rbp)
	call	*16(%rax)
	movq	0(%rbp), %rax
	movq	%rbp, %rdi
	call	*24(%rax)
	jmp	.L813
	.p2align 4,,10
	.p2align 3
.L907:
	movq	0(%rbp), %rax
	movq	%rbp, %rdi
	movq	$0, 8(%rbp)
	call	*16(%rax)
	movq	0(%rbp), %rax
	movq	%rbp, %rdi
	call	*24(%rax)
	jmp	.L822
	.cfi_endproc
.LFE8009:
	.size	_ZN8opendnp38MContextD0Ev, .-_ZN8opendnp38MContextD0Ev
	.section	.text.unlikely
	.align 2
	.type	_ZZN8asiodnp318MasterSessionStack15PerformFunctionERKNSt7__cxx1112basic_stringIcSt11char_traitsIcESaIcEEEN8opendnp312FunctionCodeERKSt6vectorINS9_6HeaderESaISC_EERKNS9_10TaskConfigEENUlvE_D2Ev, @function
_ZZN8asiodnp318MasterSessionStack15PerformFunctionERKNSt7__cxx1112basic_stringIcSt11char_traitsIcESaIcEEEN8opendnp312FunctionCodeERKSt6vectorINS9_6HeaderESaISC_EERKNS9_10TaskConfigEENUlvE_D2Ev:
.LFB8169:
	.cfi_startproc
	.cfi_personality 0x9b,DW.ref.__gxx_personality_v0
	.cfi_lsda 0x1b,.LLSDA8169
	pushq	%rbx
	.cfi_def_cfa_offset 16
	.cfi_offset 3, -16
	movq	72(%rdi), %rax
	movq	%rdi, %rbx
	testq	%rax, %rax
	je	.L910
	leaq	56(%rdi), %rdi
	movl	$3, %edx
	movq	%rdi, %rsi
	call	*%rax
.L910:
	movq	16(%rbx), %rdi
	leaq	32(%rbx), %rax
	cmpq	%rax, %rdi
	je	.L911
	movq	32(%rbx), %rax
	leaq	1(%rax), %rsi
	call	_ZdlPvm@PLT
.L911:
	movq	8(%rbx), %rbx
	testq	%rbx, %rbx
	je	.L909
	movq	8(%rbx), %rcx
	leaq	8(%rbx), %rdx
	movabsq	$4294967297, %rax
	cmpq	%rax, %rcx
	jne	.L914
	xorl	%eax, %eax
	movq	%rbx, %rdi
	movq	%rax, 8(%rbx)
	movq	(%rbx), %rax
	call	*16(%rax)
	movq	(%rbx), %rax
	movq	%rbx, %rdi
	popq	%rbx
	.cfi_remember_state
	.cfi_def_cfa_offset 8
	movq	24(%rax), %rax
.LEHB44:
	jmp	*%rax
.L914:
	.cfi_restore_state
	movq	__libc_single_threaded@GOTPCREL(%rip), %rax
	cmpb	$0, (%rax)
	je	.L915
	movl	8(%rbx), %eax
	leal	-1(%rax), %edx
	movl	%edx, 8(%rbx)
	jmp	.L916
.L915:
	movl	$-1, %eax
	lock xaddl	%eax, (%rdx)
.L916:
	decl	%eax
	jne	.L909
	movq	%rbx, %rdi
	popq	%rbx
	.cfi_remember_state
	.cfi_def_cfa_offset 8
	jmp	_ZNSt16_Sp_counted_baseILN9__gnu_cxx12_Lock_policyE2EE24_M_release_last_use_coldEv@PLT
.LEHE44:
.L909:
	.cfi_restore_state
	popq	%rbx
	.cfi_def_cfa_offset 8
	ret
	.cfi_endproc
.LFE8169:
	.section	.gcc_except_table
.LLSDA8169:
	.byte	0xff
	.byte	0xff
	.byte	0x1
	.uleb128 .LLSDACSE8169-.LLSDACSB8169
.LLSDACSB8169:
	.uleb128 .LEHB44-.LFB8169
	.uleb128 .LEHE44-.LEHB44
	.uleb128 0
	.uleb128 0
.LLSDACSE8169:
	.section	.text.unlikely
	.size	_ZZN8asiodnp318MasterSessionStack15PerformFunctionERKNSt7__cxx1112basic_stringIcSt11char_traitsIcESaIcEEEN8opendnp312FunctionCodeERKSt6vectorINS9_6HeaderESaISC_EERKNS9_10TaskConfigEENUlvE_D2Ev, .-_ZZN8asiodnp318MasterSessionStack15PerformFunctionERKNSt7__cxx1112basic_stringIcSt11char_traitsIcESaIcEEEN8opendnp312FunctionCodeERKSt6vectorINS9_6HeaderESaISC_EERKNS9_10TaskConfigEENUlvE_D2Ev
	.set	_ZZN8asiodnp318MasterSessionStack15PerformFunctionERKNSt7__cxx1112basic_stringIcSt11char_traitsIcESaIcEEEN8opendnp312FunctionCodeERKSt6vectorINS9_6HeaderESaISC_EERKNS9_10TaskConfigEENUlvE_D1Ev,_ZZN8asiodnp318MasterSessionStack15PerformFunctionERKNSt7__cxx1112basic_stringIcSt11char_traitsIcESaIcEEEN8opendnp312FunctionCodeERKSt6vectorINS9_6HeaderESaISC_EERKNS9_10TaskConfigEENUlvE_D2Ev
	.section	.text._ZNSt23_Sp_counted_ptr_inplaceIN8asiodnp318MasterSessionStackESaIvELN9__gnu_cxx12_Lock_policyE2EE10_M_disposeEv,"axG",@progbits,_ZNSt23_Sp_counted_ptr_inplaceIN8asiodnp318MasterSessionStackESaIvELN9__gnu_cxx12_Lock_policyE2EE10_M_disposeEv,comdat
	.align 2
	.p2align 4
	.weak	_ZNSt23_Sp_counted_ptr_inplaceIN8asiodnp318MasterSessionStackESaIvELN9__gnu_cxx12_Lock_policyE2EE10_M_disposeEv
	.type	_ZNSt23_Sp_counted_ptr_inplaceIN8asiodnp318MasterSessionStackESaIvELN9__gnu_cxx12_Lock_policyE2EE10_M_disposeEv, @function
_ZNSt23_Sp_counted_ptr_inplaceIN8asiodnp318MasterSessionStackESaIvELN9__gnu_cxx12_Lock_policyE2EE10_M_disposeEv:
.LFB11690:
	.cfi_startproc
	movq	_ZTVN8asiodnp318MasterSessionStackE@GOTPCREL(%rip), %rax
	pushq	%r14
	.cfi_def_cfa_offset 16
	.cfi_offset 14, -16
	pushq	%r13
	.cfi_def_cfa_offset 24
	.cfi_offset 13, -24
	leaq	184(%rax), %rdx
	addq	$16, %rax
	pushq	%r12
	.cfi_def_cfa_offset 32
	.cfi_offset 12, -32
	movq	%rax, %xmm0
	movq	_ZTVN8opendnp38MContextE@GOTPCREL(%rip), %rax
	movq	%rdx, %xmm1
	pushq	%rbp
	.cfi_def_cfa_offset 40
	.cfi_offset 6, -40
	punpcklqdq	%xmm1, %xmm0
	pushq	%rbx
	.cfi_def_cfa_offset 48
	.cfi_offset 3, -48
	movq	%rdi, %rbx
	leaq	128(%rax), %rdx
	leaq	16(%rax), %rcx
	movups	%xmm0, 16(%rdi)
	addq	$152, %rax
	movq	%rcx, %xmm0
	movq	%rdx, %xmm2
	movq	%rax, 128(%rdi)
	punpcklqdq	%xmm2, %xmm0
	movups	%xmm0, 112(%rdi)
	movq	616(%rdi), %rdi
	testq	%rdi, %rdi
	je	.L923
	call	_ZdaPv@PLT
.L923:
	movq	520(%rbx), %rdi
	testq	%rdi, %rdi
	je	.L924
	movq	592(%rbx), %rax
	movq	560(%rbx), %rbp
	leaq	8(%rax), %r12
	cmpq	%r12, %rbp
	jnb	.L925
	.p2align 4
	.p2align 3
.L926:
	movq	0(%rbp), %rdi
	movl	$510, %esi
	addq	$8, %rbp
	call	_ZdlPvm@PLT
	cmpq	%r12, %rbp
	jb	.L926
	movq	520(%rbx), %rdi
.L925:
	movq	528(%rbx), %rax
	leaq	0(,%rax,8), %rsi
	call	_ZdlPvm@PLT
.L924:
	movq	504(%rbx), %r13
	movq	496(%rbx), %rbp
	cmpq	%rbp, %r13
	je	.L927
	movabsq	$4294967297, %r14
	jmp	.L934
	.p2align 4,,10
	.p2align 3
.L1041:
	movl	8(%r12), %eax
	leal	-1(%rax), %edx
	movl	%edx, 8(%r12)
	cmpl	$1, %eax
	je	.L1038
.L929:
	addq	$16, %rbp
	cmpq	%rbp, %r13
	je	.L1039
.L934:
	movq	8(%rbp), %r12
	testq	%r12, %r12
	je	.L929
	movq	8(%r12), %rax
	leaq	8(%r12), %rdx
	cmpq	%r14, %rax
	je	.L1040
	movq	__libc_single_threaded@GOTPCREL(%rip), %rax
	cmpb	$0, (%rax)
	jne	.L1041
	movl	$-1, %eax
	lock xaddl	%eax, (%rdx)
	cmpl	$1, %eax
	jne	.L929
.L1038:
	movq	%r12, %rdi
	addq	$16, %rbp
	call	_ZNSt16_Sp_counted_baseILN9__gnu_cxx12_Lock_policyE2EE24_M_release_last_use_coldEv@PLT
	cmpq	%rbp, %r13
	jne	.L934
	.p2align 4
	.p2align 3
.L1039:
	movq	496(%rbx), %rbp
.L927:
	testq	%rbp, %rbp
	je	.L935
	movq	512(%rbx), %rsi
	movq	%rbp, %rdi
	subq	%rbp, %rsi
	call	_ZdlPvm@PLT
.L935:
	movq	472(%rbx), %r13
	movq	464(%rbx), %rbp
	cmpq	%rbp, %r13
	je	.L936
	movabsq	$4294967297, %r14
	jmp	.L943
	.p2align 4,,10
	.p2align 3
.L1045:
	movl	8(%r12), %eax
	leal	-1(%rax), %edx
	movl	%edx, 8(%r12)
	cmpl	$1, %eax
	je	.L1042
.L938:
	addq	$16, %rbp
	cmpq	%rbp, %r13
	je	.L1043
.L943:
	movq	8(%rbp), %r12
	testq	%r12, %r12
	je	.L938
	movq	8(%r12), %rax
	leaq	8(%r12), %rdx
	cmpq	%r14, %rax
	je	.L1044
	movq	__libc_single_threaded@GOTPCREL(%rip), %rax
	cmpb	$0, (%rax)
	jne	.L1045
	movl	$-1, %eax
	lock xaddl	%eax, (%rdx)
	cmpl	$1, %eax
	jne	.L938
.L1042:
	movq	%r12, %rdi
	addq	$16, %rbp
	call	_ZNSt16_Sp_counted_baseILN9__gnu_cxx12_Lock_policyE2EE24_M_release_last_use_coldEv@PLT
	cmpq	%rbp, %r13
	jne	.L943
	.p2align 4
	.p2align 3
.L1043:
	movq	464(%rbx), %rbp
.L936:
	testq	%rbp, %rbp
	je	.L944
	movq	480(%rbx), %rsi
	movq	%rbp, %rdi
	subq	%rbp, %rsi
	call	_ZdlPvm@PLT
.L944:
	movq	456(%rbx), %rdi
	testq	%rdi, %rdi
	je	.L945
	call	_ZNSt16_Sp_counted_baseILN9__gnu_cxx12_Lock_policyE2EE10_M_releaseEv@PLT
.L945:
	movq	440(%rbx), %rdi
	testq	%rdi, %rdi
	je	.L946
	call	_ZNSt16_Sp_counted_baseILN9__gnu_cxx12_Lock_policyE2EE10_M_releaseEv@PLT
.L946:
	movq	424(%rbx), %rdi
	testq	%rdi, %rdi
	je	.L947
	call	_ZNSt16_Sp_counted_baseILN9__gnu_cxx12_Lock_policyE2EE10_M_releaseEv@PLT
.L947:
	movq	408(%rbx), %rdi
	testq	%rdi, %rdi
	je	.L948
	call	_ZNSt16_Sp_counted_baseILN9__gnu_cxx12_Lock_policyE2EE10_M_releaseEv@PLT
.L948:
	movq	392(%rbx), %rdi
	testq	%rdi, %rdi
	je	.L949
	call	_ZNSt16_Sp_counted_baseILN9__gnu_cxx12_Lock_policyE2EE10_M_releaseEv@PLT
.L949:
	movq	376(%rbx), %rdi
	testq	%rdi, %rdi
	je	.L950
	call	_ZNSt16_Sp_counted_baseILN9__gnu_cxx12_Lock_policyE2EE10_M_releaseEv@PLT
.L950:
	movq	360(%rbx), %rdi
	testq	%rdi, %rdi
	je	.L951
	call	_ZNSt16_Sp_counted_baseILN9__gnu_cxx12_Lock_policyE2EE10_M_releaseEv@PLT
.L951:
	leaq	336(%rbx), %rdi
	call	_ZN7openpal8TimerRefD1Ev@PLT
	leaq	320(%rbx), %rdi
	call	_ZN7openpal8TimerRefD1Ev@PLT
	leaq	304(%rbx), %rdi
	call	_ZN7openpal8TimerRefD1Ev@PLT
	movq	296(%rbx), %rdi
	testq	%rdi, %rdi
	je	.L952
	call	_ZNSt16_Sp_counted_baseILN9__gnu_cxx12_Lock_policyE2EE10_M_releaseEv@PLT
.L952:
	movq	264(%rbx), %rdi
	testq	%rdi, %rdi
	je	.L953
	call	_ZNSt16_Sp_counted_baseILN9__gnu_cxx12_Lock_policyE2EE10_M_releaseEv@PLT
.L953:
	movq	248(%rbx), %rdi
	testq	%rdi, %rdi
	je	.L954
	call	_ZNSt16_Sp_counted_baseILN9__gnu_cxx12_Lock_policyE2EE10_M_releaseEv@PLT
.L954:
	movq	192(%rbx), %rdi
	testq	%rdi, %rdi
	je	.L955
	call	_ZNSt16_Sp_counted_baseILN9__gnu_cxx12_Lock_policyE2EE10_M_releaseEv@PLT
.L955:
	movq	176(%rbx), %rdi
	testq	%rdi, %rdi
	je	.L956
	call	_ZNSt16_Sp_counted_baseILN9__gnu_cxx12_Lock_policyE2EE10_M_releaseEv@PLT
.L956:
	movq	160(%rbx), %rdi
	testq	%rdi, %rdi
	je	.L957
	call	_ZNSt16_Sp_counted_baseILN9__gnu_cxx12_Lock_policyE2EE10_M_releaseEv@PLT
.L957:
	movq	144(%rbx), %rdi
	testq	%rdi, %rdi
	je	.L958
	call	_ZNSt16_Sp_counted_baseILN9__gnu_cxx12_Lock_policyE2EE10_M_releaseEv@PLT
.L958:
	movq	104(%rbx), %rdi
	testq	%rdi, %rdi
	je	.L959
	call	_ZNSt16_Sp_counted_baseILN9__gnu_cxx12_Lock_policyE2EE10_M_releaseEv@PLT
.L959:
	movq	88(%rbx), %rdi
	testq	%rdi, %rdi
	je	.L960
	call	_ZNSt16_Sp_counted_baseILN9__gnu_cxx12_Lock_policyE2EE10_M_releaseEv@PLT
.L960:
	movq	72(%rbx), %rdi
	testq	%rdi, %rdi
	je	.L961
	call	_ZNSt16_Sp_counted_baseILN9__gnu_cxx12_Lock_policyE2EE10_M_releaseEv@PLT
.L961:
	movq	56(%rbx), %rdi
	testq	%rdi, %rdi
	je	.L962
	call	_ZNSt16_Sp_counted_baseILN9__gnu_cxx12_Lock_policyE2EE10_M_releaseEv@PLT
.L962:
	movq	40(%rbx), %rdi
	testq	%rdi, %rdi
	je	.L922
	movq	__libc_single_threaded@GOTPCREL(%rip), %rax
	cmpb	$0, (%rax)
	je	.L965
	movl	12(%rdi), %eax
	leal	-1(%rax), %edx
	movl	%edx, 12(%rdi)
.L966:
	cmpl	$1, %eax
	je	.L1046
.L922:
	popq	%rbx
	.cfi_remember_state
	.cfi_def_cfa_offset 40
	popq	%rbp
	.cfi_def_cfa_offset 32
	popq	%r12
	.cfi_def_cfa_offset 24
	popq	%r13
	.cfi_def_cfa_offset 16
	popq	%r14
	.cfi_def_cfa_offset 8
	ret
	.p2align 4,,10
	.p2align 3
.L1040:
	.cfi_restore_state
	movq	$0, 8(%r12)
	movq	(%r12), %rax
	movq	%r12, %rdi
	call	*16(%rax)
	movq	(%r12), %rax
	movq	%r12, %rdi
	call	*24(%rax)
	jmp	.L929
	.p2align 4,,10
	.p2align 3
.L1044:
	movq	$0, 8(%r12)
	movq	(%r12), %rax
	movq	%r12, %rdi
	call	*16(%rax)
	movq	(%r12), %rax
	movq	%r12, %rdi
	call	*24(%rax)
	jmp	.L938
	.p2align 4,,10
	.p2align 3
.L1046:
	movq	(%rdi), %rax
	popq	%rbx
	.cfi_remember_state
	.cfi_def_cfa_offset 40
	popq	%rbp
	.cfi_def_cfa_offset 32
	popq	%r12
	.cfi_def_cfa_offset 24
	movq	24(%rax), %rax
	popq	%r13
	.cfi_def_cfa_offset 16
	popq	%r14
	.cfi_def_cfa_offset 8
	jmp	*%rax
	.p2align 4,,10
	.p2align 3
.L965:
	.cfi_restore_state
	movl	$-1, %eax
	lock xaddl	%eax, 12(%rdi)
	jmp	.L966
	.cfi_endproc
.LFE11690:
	.size	_ZNSt23_Sp_counted_ptr_inplaceIN8asiodnp318MasterSessionStackESaIvELN9__gnu_cxx12_Lock_policyE2EE10_M_disposeEv, .-_ZNSt23_Sp_counted_ptr_inplaceIN8asiodnp318MasterSessionStackESaIvELN9__gnu_cxx12_Lock_policyE2EE10_M_disposeEv
	.section	.text._ZN8asiodnp318MasterSessionStackD2Ev,"axG",@progbits,_ZN8asiodnp318MasterSessionStackD5Ev,comdat
	.align 2
	.p2align 4
	.weak	_ZN8asiodnp318MasterSessionStackD2Ev
	.type	_ZN8asiodnp318MasterSessionStackD2Ev, @function
_ZN8asiodnp318MasterSessionStackD2Ev:
.LFB11636:
	.cfi_startproc
	movq	_ZTVN8asiodnp318MasterSessionStackE@GOTPCREL(%rip), %rax
	pushq	%r14
	.cfi_def_cfa_offset 16
	.cfi_offset 14, -16
	pushq	%r13
	.cfi_def_cfa_offset 24
	.cfi_offset 13, -24
	leaq	184(%rax), %rdx
	addq	$16, %rax
	pushq	%r12
	.cfi_def_cfa_offset 32
	.cfi_offset 12, -32
	movq	%rax, %xmm0
	movq	_ZTVN8opendnp38MContextE@GOTPCREL(%rip), %rax
	movq	%rdx, %xmm1
	pushq	%rbp
	.cfi_def_cfa_offset 40
	.cfi_offset 6, -40
	punpcklqdq	%xmm1, %xmm0
	pushq	%rbx
	.cfi_def_cfa_offset 48
	.cfi_offset 3, -48
	movq	%rdi, %rbx
	leaq	128(%rax), %rdx
	leaq	16(%rax), %rcx
	movups	%xmm0, (%rdi)
	addq	$152, %rax
	movq	%rcx, %xmm0
	movq	%rdx, %xmm2
	movq	%rax, 112(%rdi)
	punpcklqdq	%xmm2, %xmm0
	movups	%xmm0, 96(%rdi)
	movq	600(%rdi), %rdi
	testq	%rdi, %rdi
	je	.L1048
	call	_ZdaPv@PLT
.L1048:
	movq	504(%rbx), %rdi
	testq	%rdi, %rdi
	je	.L1049
	movq	576(%rbx), %rax
	movq	544(%rbx), %rbp
	leaq	8(%rax), %r12
	cmpq	%r12, %rbp
	jnb	.L1050
	.p2align 4
	.p2align 3
.L1051:
	movq	0(%rbp), %rdi
	movl	$510, %esi
	addq	$8, %rbp
	call	_ZdlPvm@PLT
	cmpq	%r12, %rbp
	jb	.L1051
	movq	504(%rbx), %rdi
.L1050:
	movq	512(%rbx), %rax
	leaq	0(,%rax,8), %rsi
	call	_ZdlPvm@PLT
.L1049:
	movq	488(%rbx), %r13
	movq	480(%rbx), %rbp
	cmpq	%rbp, %r13
	je	.L1052
	movabsq	$4294967297, %r14
	jmp	.L1059
	.p2align 4,,10
	.p2align 3
.L1166:
	movl	8(%r12), %eax
	leal	-1(%rax), %edx
	movl	%edx, 8(%r12)
	cmpl	$1, %eax
	je	.L1163
.L1054:
	addq	$16, %rbp
	cmpq	%rbp, %r13
	je	.L1164
.L1059:
	movq	8(%rbp), %r12
	testq	%r12, %r12
	je	.L1054
	movq	8(%r12), %rax
	leaq	8(%r12), %rdx
	cmpq	%r14, %rax
	je	.L1165
	movq	__libc_single_threaded@GOTPCREL(%rip), %rax
	cmpb	$0, (%rax)
	jne	.L1166
	movl	$-1, %eax
	lock xaddl	%eax, (%rdx)
	cmpl	$1, %eax
	jne	.L1054
.L1163:
	movq	%r12, %rdi
	addq	$16, %rbp
	call	_ZNSt16_Sp_counted_baseILN9__gnu_cxx12_Lock_policyE2EE24_M_release_last_use_coldEv@PLT
	cmpq	%rbp, %r13
	jne	.L1059
	.p2align 4
	.p2align 3
.L1164:
	movq	480(%rbx), %rbp
.L1052:
	testq	%rbp, %rbp
	je	.L1060
	movq	496(%rbx), %rsi
	movq	%rbp, %rdi
	subq	%rbp, %rsi
	call	_ZdlPvm@PLT
.L1060:
	movq	456(%rbx), %r13
	movq	448(%rbx), %rbp
	cmpq	%rbp, %r13
	je	.L1061
	movabsq	$4294967297, %r14
	jmp	.L1068
	.p2align 4,,10
	.p2align 3
.L1170:
	movl	8(%r12), %eax
	leal	-1(%rax), %edx
	movl	%edx, 8(%r12)
	cmpl	$1, %eax
	je	.L1167
.L1063:
	addq	$16, %rbp
	cmpq	%rbp, %r13
	je	.L1168
.L1068:
	movq	8(%rbp), %r12
	testq	%r12, %r12
	je	.L1063
	movq	8(%r12), %rax
	leaq	8(%r12), %rdx
	cmpq	%r14, %rax
	je	.L1169
	movq	__libc_single_threaded@GOTPCREL(%rip), %rax
	cmpb	$0, (%rax)
	jne	.L1170
	movl	$-1, %eax
	lock xaddl	%eax, (%rdx)
	cmpl	$1, %eax
	jne	.L1063
.L1167:
	movq	%r12, %rdi
	addq	$16, %rbp
	call	_ZNSt16_Sp_counted_baseILN9__gnu_cxx12_Lock_policyE2EE24_M_release_last_use_coldEv@PLT
	cmpq	%rbp, %r13
	jne	.L1068
	.p2align 4
	.p2align 3
.L1168:
	movq	448(%rbx), %rbp
.L1061:
	testq	%rbp, %rbp
	je	.L1069
	movq	464(%rbx), %rsi
	movq	%rbp, %rdi
	subq	%rbp, %rsi
	call	_ZdlPvm@PLT
.L1069:
	movq	440(%rbx), %rdi
	testq	%rdi, %rdi
	je	.L1070
	call	_ZNSt16_Sp_counted_baseILN9__gnu_cxx12_Lock_policyE2EE10_M_releaseEv@PLT
.L1070:
	movq	424(%rbx), %rdi
	testq	%rdi, %rdi
	je	.L1071
	call	_ZNSt16_Sp_counted_baseILN9__gnu_cxx12_Lock_policyE2EE10_M_releaseEv@PLT
.L1071:
	movq	408(%rbx), %rdi
	testq	%rdi, %rdi
	je	.L1072
	call	_ZNSt16_Sp_counted_baseILN9__gnu_cxx12_Lock_policyE2EE10_M_releaseEv@PLT
.L1072:
	movq	392(%rbx), %rdi
	testq	%rdi, %rdi
	je	.L1073
	call	_ZNSt16_Sp_counted_baseILN9__gnu_cxx12_Lock_policyE2EE10_M_releaseEv@PLT
.L1073:
	movq	376(%rbx), %rdi
	testq	%rdi, %rdi
	je	.L1074
	call	_ZNSt16_Sp_counted_baseILN9__gnu_cxx12_Lock_policyE2EE10_M_releaseEv@PLT
.L1074:
	movq	360(%rbx), %rdi
	testq	%rdi, %rdi
	je	.L1075
	call	_ZNSt16_Sp_counted_baseILN9__gnu_cxx12_Lock_policyE2EE10_M_releaseEv@PLT
.L1075:
	movq	344(%rbx), %rdi
	testq	%rdi, %rdi
	je	.L1076
	call	_ZNSt16_Sp_counted_baseILN9__gnu_cxx12_Lock_policyE2EE10_M_releaseEv@PLT
.L1076:
	leaq	320(%rbx), %rdi
	call	_ZN7openpal8TimerRefD1Ev@PLT
	leaq	304(%rbx), %rdi
	call	_ZN7openpal8TimerRefD1Ev@PLT
	leaq	288(%rbx), %rdi
	call	_ZN7openpal8TimerRefD1Ev@PLT
	movq	280(%rbx), %rdi
	testq	%rdi, %rdi
	je	.L1077
	call	_ZNSt16_Sp_counted_baseILN9__gnu_cxx12_Lock_policyE2EE10_M_releaseEv@PLT
.L1077:
	movq	248(%rbx), %rdi
	testq	%rdi, %rdi
	je	.L1078
	call	_ZNSt16_Sp_counted_baseILN9__gnu_cxx12_Lock_policyE2EE10_M_releaseEv@PLT
.L1078:
	movq	232(%rbx), %rdi
	testq	%rdi, %rdi
	je	.L1079
	call	_ZNSt16_Sp_counted_baseILN9__gnu_cxx12_Lock_policyE2EE10_M_releaseEv@PLT
.L1079:
	movq	176(%rbx), %rdi
	testq	%rdi, %rdi
	je	.L1080
	call	_ZNSt16_Sp_counted_baseILN9__gnu_cxx12_Lock_policyE2EE10_M_releaseEv@PLT
.L1080:
	movq	160(%rbx), %rdi
	testq	%rdi, %rdi
	je	.L1081
	call	_ZNSt16_Sp_counted_baseILN9__gnu_cxx12_Lock_policyE2EE10_M_releaseEv@PLT
.L1081:
	movq	144(%rbx), %rdi
	testq	%rdi, %rdi
	je	.L1082
	call	_ZNSt16_Sp_counted_baseILN9__gnu_cxx12_Lock_policyE2EE10_M_releaseEv@PLT
.L1082:
	movq	128(%rbx), %rdi
	testq	%rdi, %rdi
	je	.L1083
	call	_ZNSt16_Sp_counted_baseILN9__gnu_cxx12_Lock_policyE2EE10_M_releaseEv@PLT
.L1083:
	movq	88(%rbx), %rdi
	testq	%rdi, %rdi
	je	.L1084
	call	_ZNSt16_Sp_counted_baseILN9__gnu_cxx12_Lock_policyE2EE10_M_releaseEv@PLT
.L1084:
	movq	72(%rbx), %rdi
	testq	%rdi, %rdi
	je	.L1085
	call	_ZNSt16_Sp_counted_baseILN9__gnu_cxx12_Lock_policyE2EE10_M_releaseEv@PLT
.L1085:
	movq	56(%rbx), %rdi
	testq	%rdi, %rdi
	je	.L1086
	call	_ZNSt16_Sp_counted_baseILN9__gnu_cxx12_Lock_policyE2EE10_M_releaseEv@PLT
.L1086:
	movq	40(%rbx), %rdi
	testq	%rdi, %rdi
	je	.L1087
	call	_ZNSt16_Sp_counted_baseILN9__gnu_cxx12_Lock_policyE2EE10_M_releaseEv@PLT
.L1087:
	movq	24(%rbx), %rdi
	testq	%rdi, %rdi
	je	.L1047
	movq	__libc_single_threaded@GOTPCREL(%rip), %rax
	cmpb	$0, (%rax)
	je	.L1090
	movl	12(%rdi), %eax
	leal	-1(%rax), %edx
	movl	%edx, 12(%rdi)
.L1091:
	cmpl	$1, %eax
	je	.L1171
.L1047:
	popq	%rbx
	.cfi_remember_state
	.cfi_def_cfa_offset 40
	popq	%rbp
	.cfi_def_cfa_offset 32
	popq	%r12
	.cfi_def_cfa_offset 24
	popq	%r13
	.cfi_def_cfa_offset 16
	popq	%r14
	.cfi_def_cfa_offset 8
	ret
	.p2align 4,,10
	.p2align 3
.L1165:
	.cfi_restore_state
	movq	$0, 8(%r12)
	movq	(%r12), %rax
	movq	%r12, %rdi
	call	*16(%rax)
	movq	(%r12), %rax
	movq	%r12, %rdi
	call	*24(%rax)
	jmp	.L1054
	.p2align 4,,10
	.p2align 3
.L1169:
	movq	$0, 8(%r12)
	movq	(%r12), %rax
	movq	%r12, %rdi
	call	*16(%rax)
	movq	(%r12), %rax
	movq	%r12, %rdi
	call	*24(%rax)
	jmp	.L1063
	.p2align 4,,10
	.p2align 3
.L1171:
	movq	(%rdi), %rax
	popq	%rbx
	.cfi_remember_state
	.cfi_def_cfa_offset 40
	popq	%rbp
	.cfi_def_cfa_offset 32
	popq	%r12
	.cfi_def_cfa_offset 24
	movq	24(%rax), %rax
	popq	%r13
	.cfi_def_cfa_offset 16
	popq	%r14
	.cfi_def_cfa_offset 8
	jmp	*%rax
	.p2align 4,,10
	.p2align 3
.L1090:
	.cfi_restore_state
	movl	$-1, %eax
	lock xaddl	%eax, 12(%rdi)
	jmp	.L1091
	.cfi_endproc
.LFE11636:
	.size	_ZN8asiodnp318MasterSessionStackD2Ev, .-_ZN8asiodnp318MasterSessionStackD2Ev
	.weak	_ZN8asiodnp318MasterSessionStackD1Ev
	.set	_ZN8asiodnp318MasterSessionStackD1Ev,_ZN8asiodnp318MasterSessionStackD2Ev
	.section	.text._ZN8asiodnp318MasterSessionStackD0Ev,"axG",@progbits,_ZN8asiodnp318MasterSessionStackD5Ev,comdat
	.align 2
	.p2align 4
	.weak	_ZN8asiodnp318MasterSessionStackD0Ev
	.type	_ZN8asiodnp318MasterSessionStackD0Ev, @function
_ZN8asiodnp318MasterSessionStackD0Ev:
.LFB11638:
	.cfi_startproc
	movq	_ZTVN8asiodnp318MasterSessionStackE@GOTPCREL(%rip), %rax
	pushq	%r14
	.cfi_def_cfa_offset 16
	.cfi_offset 14, -16
	pushq	%r13
	.cfi_def_cfa_offset 24
	.cfi_offset 13, -24
	leaq	184(%rax), %rdx
	addq	$16, %rax
	pushq	%r12
	.cfi_def_cfa_offset 32
	.cfi_offset 12, -32
	movq	%rax, %xmm0
	movq	_ZTVN8opendnp38MContextE@GOTPCREL(%rip), %rax
	movq	%rdx, %xmm1
	pushq	%rbp
	.cfi_def_cfa_offset 40
	.cfi_offset 6, -40
	punpcklqdq	%xmm1, %xmm0
	pushq	%rbx
	.cfi_def_cfa_offset 48
	.cfi_offset 3, -48
	movq	%rdi, %rbx
	leaq	128(%rax), %rdx
	leaq	16(%rax), %rcx
	movups	%xmm0, (%rdi)
	addq	$152, %rax
	movq	%rcx, %xmm0
	movq	%rdx, %xmm2
	movq	%rax, 112(%rdi)
	punpcklqdq	%xmm2, %xmm0
	movups	%xmm0, 96(%rdi)
	movq	600(%rdi), %rdi
	testq	%rdi, %rdi
	je	.L1173
	call	_ZdaPv@PLT
.L1173:
	movq	504(%rbx), %rdi
	testq	%rdi, %rdi
	je	.L1174
	movq	576(%rbx), %rax
	movq	544(%rbx), %rbp
	leaq	8(%rax), %r12
	cmpq	%r12, %rbp
	jnb	.L1175
	.p2align 4
	.p2align 3
.L1176:
	movq	0(%rbp), %rdi
	movl	$510, %esi
	addq	$8, %rbp
	call	_ZdlPvm@PLT
	cmpq	%r12, %rbp
	jb	.L1176
	movq	504(%rbx), %rdi
.L1175:
	movq	512(%rbx), %rax
	leaq	0(,%rax,8), %rsi
	call	_ZdlPvm@PLT
.L1174:
	movq	488(%rbx), %r13
	movq	480(%rbx), %rbp
	cmpq	%rbp, %r13
	je	.L1177
	movabsq	$4294967297, %r14
	jmp	.L1184
	.p2align 4,,10
	.p2align 3
.L1291:
	movl	8(%r12), %eax
	leal	-1(%rax), %edx
	movl	%edx, 8(%r12)
	cmpl	$1, %eax
	je	.L1288
.L1179:
	addq	$16, %rbp
	cmpq	%rbp, %r13
	je	.L1289
.L1184:
	movq	8(%rbp), %r12
	testq	%r12, %r12
	je	.L1179
	movq	8(%r12), %rax
	leaq	8(%r12), %rdx
	cmpq	%r14, %rax
	je	.L1290
	movq	__libc_single_threaded@GOTPCREL(%rip), %rax
	cmpb	$0, (%rax)
	jne	.L1291
	movl	$-1, %eax
	lock xaddl	%eax, (%rdx)
	cmpl	$1, %eax
	jne	.L1179
.L1288:
	movq	%r12, %rdi
	addq	$16, %rbp
	call	_ZNSt16_Sp_counted_baseILN9__gnu_cxx12_Lock_policyE2EE24_M_release_last_use_coldEv@PLT
	cmpq	%rbp, %r13
	jne	.L1184
	.p2align 4
	.p2align 3
.L1289:
	movq	480(%rbx), %rbp
.L1177:
	testq	%rbp, %rbp
	je	.L1185
	movq	496(%rbx), %rsi
	movq	%rbp, %rdi
	subq	%rbp, %rsi
	call	_ZdlPvm@PLT
.L1185:
	movq	456(%rbx), %r13
	movq	448(%rbx), %rbp
	cmpq	%rbp, %r13
	je	.L1186
	movabsq	$4294967297, %r14
	jmp	.L1193
	.p2align 4,,10
	.p2align 3
.L1295:
	movl	8(%r12), %eax
	leal	-1(%rax), %edx
	movl	%edx, 8(%r12)
	cmpl	$1, %eax
	je	.L1292
.L1188:
	addq	$16, %rbp
	cmpq	%rbp, %r13
	je	.L1293
.L1193:
	movq	8(%rbp), %r12
	testq	%r12, %r12
	je	.L1188
	movq	8(%r12), %rax
	leaq	8(%r12), %rdx
	cmpq	%r14, %rax
	je	.L1294
	movq	__libc_single_threaded@GOTPCREL(%rip), %rax
	cmpb	$0, (%rax)
	jne	.L1295
	movl	$-1, %eax
	lock xaddl	%eax, (%rdx)
	cmpl	$1, %eax
	jne	.L1188
.L1292:
	movq	%r12, %rdi
	addq	$16, %rbp
	call	_ZNSt16_Sp_counted_baseILN9__gnu_cxx12_Lock_policyE2EE24_M_release_last_use_coldEv@PLT
	cmpq	%rbp, %r13
	jne	.L1193
	.p2align 4
	.p2align 3
.L1293:
	movq	448(%rbx), %rbp
.L1186:
	testq	%rbp, %rbp
	je	.L1194
	movq	464(%rbx), %rsi
	movq	%rbp, %rdi
	subq	%rbp, %rsi
	call	_ZdlPvm@PLT
.L1194:
	movq	440(%rbx), %rdi
	testq	%rdi, %rdi
	je	.L1195
	call	_ZNSt16_Sp_counted_baseILN9__gnu_cxx12_Lock_policyE2EE10_M_releaseEv@PLT
.L1195:
	movq	424(%rbx), %rdi
	testq	%rdi, %rdi
	je	.L1196
	call	_ZNSt16_Sp_counted_baseILN9__gnu_cxx12_Lock_policyE2EE10_M_releaseEv@PLT
.L1196:
	movq	408(%rbx), %rdi
	testq	%rdi, %rdi
	je	.L1197
	call	_ZNSt16_Sp_counted_baseILN9__gnu_cxx12_Lock_policyE2EE10_M_releaseEv@PLT
.L1197:
	movq	392(%rbx), %rdi
	testq	%rdi, %rdi
	je	.L1198
	call	_ZNSt16_Sp_counted_baseILN9__gnu_cxx12_Lock_policyE2EE10_M_releaseEv@PLT
.L1198:
	movq	376(%rbx), %rdi
	testq	%rdi, %rdi
	je	.L1199
	call	_ZNSt16_Sp_counted_baseILN9__gnu_cxx12_Lock_policyE2EE10_M_releaseEv@PLT
.L1199:
	movq	360(%rbx), %rdi
	testq	%rdi, %rdi
	je	.L1200
	call	_ZNSt16_Sp_counted_baseILN9__gnu_cxx12_Lock_policyE2EE10_M_releaseEv@PLT
.L1200:
	movq	344(%rbx), %rdi
	testq	%rdi, %rdi
	je	.L1201
	call	_ZNSt16_Sp_counted_baseILN9__gnu_cxx12_Lock_policyE2EE10_M_releaseEv@PLT
.L1201:
	leaq	320(%rbx), %rdi
	call	_ZN7openpal8TimerRefD1Ev@PLT
	leaq	304(%rbx), %rdi
	call	_ZN7openpal8TimerRefD1Ev@PLT
	leaq	288(%rbx), %rdi
	call	_ZN7openpal8TimerRefD1Ev@PLT
	movq	280(%rbx), %rdi
	testq	%rdi, %rdi
	je	.L1202
	call	_ZNSt16_Sp_counted_baseILN9__gnu_cxx12_Lock_policyE2EE10_M_releaseEv@PLT
.L1202:
	movq	248(%rbx), %rdi
	testq	%rdi, %rdi
	je	.L1203
	call	_ZNSt16_Sp_counted_baseILN9__gnu_cxx12_Lock_policyE2EE10_M_releaseEv@PLT
.L1203:
	movq	232(%rbx), %rdi
	testq	%rdi, %rdi
	je	.L1204
	call	_ZNSt16_Sp_counted_baseILN9__gnu_cxx12_Lock_policyE2EE10_M_releaseEv@PLT
.L1204:
	movq	176(%rbx), %rdi
	testq	%rdi, %rdi
	je	.L1205
	call	_ZNSt16_Sp_counted_baseILN9__gnu_cxx12_Lock_policyE2EE10_M_releaseEv@PLT
.L1205:
	movq	160(%rbx), %rdi
	testq	%rdi, %rdi
	je	.L1206
	call	_ZNSt16_Sp_counted_baseILN9__gnu_cxx12_Lock_policyE2EE10_M_releaseEv@PLT
.L1206:
	movq	144(%rbx), %rdi
	testq	%rdi, %rdi
	je	.L1207
	call	_ZNSt16_Sp_counted_baseILN9__gnu_cxx12_Lock_policyE2EE10_M_releaseEv@PLT
.L1207:
	movq	128(%rbx), %rdi
	testq	%rdi, %rdi
	je	.L1208
	call	_ZNSt16_Sp_counted_baseILN9__gnu_cxx12_Lock_policyE2EE10_M_releaseEv@PLT
.L1208:
	movq	88(%rbx), %rdi
	testq	%rdi, %rdi
	je	.L1209
	call	_ZNSt16_Sp_counted_baseILN9__gnu_cxx12_Lock_policyE2EE10_M_releaseEv@PLT
.L1209:
	movq	72(%rbx), %rdi
	testq	%rdi, %rdi
	je	.L1210
	call	_ZNSt16_Sp_counted_baseILN9__gnu_cxx12_Lock_policyE2EE10_M_releaseEv@PLT
.L1210:
	movq	56(%rbx), %rdi
	testq	%rdi, %rdi
	je	.L1211
	call	_ZNSt16_Sp_counted_baseILN9__gnu_cxx12_Lock_policyE2EE10_M_releaseEv@PLT
.L1211:
	movq	40(%rbx), %rdi
	testq	%rdi, %rdi
	je	.L1212
	call	_ZNSt16_Sp_counted_baseILN9__gnu_cxx12_Lock_policyE2EE10_M_releaseEv@PLT
.L1212:
	movq	24(%rbx), %rdi
	testq	%rdi, %rdi
	je	.L1214
	movq	__libc_single_threaded@GOTPCREL(%rip), %rax
	cmpb	$0, (%rax)
	je	.L1215
	movl	12(%rdi), %eax
	leal	-1(%rax), %edx
	movl	%edx, 12(%rdi)
.L1216:
	cmpl	$1, %eax
	je	.L1296
.L1214:
	movq	%rbx, %rdi
	movl	$616, %esi
	popq	%rbx
	.cfi_remember_state
	.cfi_def_cfa_offset 40
	popq	%rbp
	.cfi_def_cfa_offset 32
	popq	%r12
	.cfi_def_cfa_offset 24
	popq	%r13
	.cfi_def_cfa_offset 16
	popq	%r14
	.cfi_def_cfa_offset 8
	jmp	_ZdlPvm@PLT
	.p2align 4,,10
	.p2align 3
.L1290:
	.cfi_restore_state
	movq	$0, 8(%r12)
	movq	(%r12), %rax
	movq	%r12, %rdi
	call	*16(%rax)
	movq	(%r12), %rax
	movq	%r12, %rdi
	call	*24(%rax)
	jmp	.L1179
	.p2align 4,,10
	.p2align 3
.L1294:
	movq	$0, 8(%r12)
	movq	(%r12), %rax
	movq	%r12, %rdi
	call	*16(%rax)
	movq	(%r12), %rax
	movq	%r12, %rdi
	call	*24(%rax)
	jmp	.L1188
	.p2align 4,,10
	.p2align 3
.L1296:
	movq	(%rdi), %rax
	call	*24(%rax)
	jmp	.L1214
	.p2align 4,,10
	.p2align 3
.L1215:
	movl	$-1, %eax
	lock xaddl	%eax, 12(%rdi)
	jmp	.L1216
	.cfi_endproc
.LFE11638:
	.size	_ZN8asiodnp318MasterSessionStackD0Ev, .-_ZN8asiodnp318MasterSessionStackD0Ev
	.section	.text.unlikely
	.align 2
	.type	_ZZN8asiodnp318MasterSessionStack6DemandERKSt10shared_ptrIN8opendnp311IMasterTaskEEENUlvE_D2Ev, @function
_ZZN8asiodnp318MasterSessionStack6DemandERKSt10shared_ptrIN8opendnp311IMasterTaskEEENUlvE_D2Ev:
.LFB8027:
	.cfi_startproc
	pushq	%rbp
	.cfi_def_cfa_offset 16
	.cfi_offset 6, -16
	movq	%rdi, %rbp
	pushq	%rbx
	.cfi_def_cfa_offset 24
	.cfi_offset 3, -24
	pushq	%r8
	.cfi_def_cfa_offset 32
	movq	24(%rdi), %rbx
	testq	%rbx, %rbx
	je	.L1299
	movq	8(%rbx), %rcx
	leaq	8(%rbx), %rdx
	movabsq	$4294967297, %rax
	cmpq	%rax, %rcx
	jne	.L1300
	movq	(%rbx), %rax
	xorl	%edi, %edi
	movq	%rdi, 8(%rbx)
	movq	%rbx, %rdi
	call	*16(%rax)
	movq	(%rbx), %rax
	movq	%rbx, %rdi
	call	*24(%rax)
	jmp	.L1299
.L1300:
	movq	__libc_single_threaded@GOTPCREL(%rip), %rax
	cmpb	$0, (%rax)
	je	.L1301
	movl	8(%rbx), %eax
	leal	-1(%rax), %edx
	movl	%edx, 8(%rbx)
	jmp	.L1302
.L1301:
	movl	$-1, %eax
	lock xaddl	%eax, (%rdx)
.L1302:
	decl	%eax
	jne	.L1299
	movq	%rbx, %rdi
	call	_ZNSt16_Sp_counted_baseILN9__gnu_cxx12_Lock_policyE2EE24_M_release_last_use_coldEv@PLT
.L1299:
	movq	8(%rbp), %rbx
	testq	%rbx, %rbx
	je	.L1297
	movq	8(%rbx), %rcx
	leaq	8(%rbx), %rdx
	movabsq	$4294967297, %rax
	cmpq	%rax, %rcx
	jne	.L1306
	movq	(%rbx), %rax
	xorl	%ecx, %ecx
	movq	%rbx, %rdi
	movq	%rcx, 8(%rbx)
	call	*16(%rax)
	movq	(%rbx), %rax
	movq	%rbx, %rdi
	movq	24(%rax), %rax
	popq	%rsi
	.cfi_remember_state
	.cfi_def_cfa_offset 24
	popq	%rbx
	.cfi_def_cfa_offset 16
	popq	%rbp
	.cfi_def_cfa_offset 8
	jmp	*%rax
.L1306:
	.cfi_restore_state
	movq	__libc_single_threaded@GOTPCREL(%rip), %rax
	cmpb	$0, (%rax)
	je	.L1307
	movl	8(%rbx), %eax
	leal	-1(%rax), %edx
	movl	%edx, 8(%rbx)
	jmp	.L1308
.L1307:
	movl	$-1, %eax
	lock xaddl	%eax, (%rdx)
.L1308:
	decl	%eax
	jne	.L1297
	popq	%rdx
	.cfi_remember_state
	.cfi_def_cfa_offset 24
	movq	%rbx, %rdi
	popq	%rbx
	.cfi_def_cfa_offset 16
	popq	%rbp
	.cfi_def_cfa_offset 8
	jmp	_ZNSt16_Sp_counted_baseILN9__gnu_cxx12_Lock_policyE2EE24_M_release_last_use_coldEv@PLT
.L1297:
	.cfi_restore_state
	popq	%rax
	.cfi_def_cfa_offset 24
	popq	%rbx
	.cfi_def_cfa_offset 16
	popq	%rbp
	.cfi_def_cfa_offset 8
	ret
	.cfi_endproc
.LFE8027:
	.size	_ZZN8asiodnp318MasterSessionStack6DemandERKSt10shared_ptrIN8opendnp311IMasterTaskEEENUlvE_D2Ev, .-_ZZN8asiodnp318MasterSessionStack6DemandERKSt10shared_ptrIN8opendnp311IMasterTaskEEENUlvE_D2Ev
	.set	_ZZN8asiodnp318MasterSessionStack6DemandERKSt10shared_ptrIN8opendnp311IMasterTaskEEENUlvE_D1Ev,_ZZN8asiodnp318MasterSessionStack6DemandERKSt10shared_ptrIN8opendnp311IMasterTaskEEENUlvE_D2Ev
	.align 2
.LCOLDB34:
	.text
.LHOTB34:
	.align 2
	.p2align 4
	.globl	_ZN8asiodnp318MasterSessionStack6DemandERKSt10shared_ptrIN8opendnp311IMasterTaskEE
	.type	_ZN8asiodnp318MasterSessionStack6DemandERKSt10shared_ptrIN8opendnp311IMasterTaskEE, @function
_ZN8asiodnp318MasterSessionStack6DemandERKSt10shared_ptrIN8opendnp311IMasterTaskEE:
.LFB8018:
	.cfi_startproc
	.cfi_personality 0x9b,DW.ref.__gxx_personality_v0
	.cfi_lsda 0x1b,.LLSDA8018
	pushq	%r15
	.cfi_def_cfa_offset 16
	.cfi_offset 15, -16
	pushq	%r14
	.cfi_def_cfa_offset 24
	.cfi_offset 14, -24
	pushq	%r13
	.cfi_def_cfa_offset 32
	.cfi_offset 13, -32
	pushq	%r12
	.cfi_def_cfa_offset 40
	.cfi_offset 12, -40
	pushq	%rbp
	.cfi_def_cfa_offset 48
	.cfi_offset 6, -48
	pushq	%rbx
	.cfi_def_cfa_offset 56
	.cfi_offset 3, -56
	subq	$88, %rsp
	.cfi_def_cfa_offset 144
	movq	8(%rsi), %rbx
	movq	(%rsi), %r15
	testq	%rbx, %rbx
	je	.L1312
	movq	__libc_single_threaded@GOTPCREL(%rip), %rax
	cmpb	$0, (%rax)
	je	.L1313
	addl	$1, 8(%rbx)
.L1312:
	movq	24(%rdi), %rbp
	testq	%rbp, %rbp
	je	.L1315
	movl	8(%rbp), %eax
	leaq	8(%rbp), %rdx
.L1317:
	testl	%eax, %eax
	je	.L1315
	leal	1(%rax), %ecx
	lock cmpxchgl	%ecx, (%rdx)
	jne	.L1317
	movq	__libc_single_threaded@GOTPCREL(%rip), %rax
	movq	16(%rdi), %r14
	movq	32(%rdi), %r12
	movzbl	(%rax), %eax
	testq	%rbx, %rbx
	je	.L1332
	testb	%al, %al
	je	.L1318
	addl	$1, 8(%rbx)
.L1319:
	addl	$1, 8(%rbp)
.L1321:
	data16	leaq	_ZN4asio6detail15keyword_tss_ptrINS0_10call_stackINS0_15task_io_serviceENS0_27task_io_service_thread_infoEE7contextEE6value_E@tlsgd(%rip), %rdi
	.value	0x6666
	rex64
	call	__tls_get_addr@PLT
	movq	40(%r12), %r13
	movq	(%rax), %rax
	testq	%rax, %rax
	je	.L1322
	movq	8(%rax), %rax
	testq	%rax, %rax
	je	.L1322
	movq	(%rax), %rdx
	testq	%rdx, %rdx
	je	.L1322
	movq	$0, (%rax)
	movzbl	(%rdx), %eax
	cmpb	$55, %al
	jbe	.L1323
	movb	%al, 56(%rdx)
.L1324:
	movq	%r15, %xmm0
	movq	%rbx, %xmm3
	movq	%r14, %xmm1
	movq	$0, (%rdx)
	movq	%rbp, %xmm2
	punpcklqdq	%xmm3, %xmm0
	leaq	_ZN4asio6detail18completion_handlerIZN8asiodnp318MasterSessionStack6DemandERKSt10shared_ptrIN8opendnp311IMasterTaskEEEUlvE_E11do_completeEPNS0_15task_io_serviceEPNS0_25task_io_service_operationERKSt10error_codem(%rip), %rax
	movl	$0, 16(%rdx)
	movq	%rax, 8(%rdx)
	punpcklqdq	%xmm2, %xmm1
	leaq	48(%r12), %rsi
	movups	%xmm0, 24(%rdx)
	testq	%rbx, %rbx
	je	.L1355
	movq	__libc_single_threaded@GOTPCREL(%rip), %rax
	cmpb	$0, (%rax)
	je	.L1326
	addl	$1, 8(%rbx)
.L1327:
	movups	%xmm1, 40(%rdx)
	xorl	%ecx, %ecx
	movq	%r13, %rdi
	call	_ZN4asio6detail14strand_service7do_postERPNS1_11strand_implEPNS0_25task_io_service_operationEb@PLT
	movq	%rbx, %rdi
	call	_ZNSt16_Sp_counted_baseILN9__gnu_cxx12_Lock_policyE2EE10_M_releaseEv@PLT
	movq	%rbp, %rdi
	call	_ZNSt16_Sp_counted_baseILN9__gnu_cxx12_Lock_policyE2EE10_M_releaseEv@PLT
	movq	%rbx, %rdi
.L1354:
	addq	$88, %rsp
	.cfi_remember_state
	.cfi_def_cfa_offset 56
	popq	%rbx
	.cfi_def_cfa_offset 48
	popq	%rbp
	.cfi_def_cfa_offset 40
	popq	%r12
	.cfi_def_cfa_offset 32
	popq	%r13
	.cfi_def_cfa_offset 24
	popq	%r14
	.cfi_def_cfa_offset 16
	popq	%r15
	.cfi_def_cfa_offset 8
.LEHB45:
	jmp	_ZNSt16_Sp_counted_baseILN9__gnu_cxx12_Lock_policyE2EE10_M_releaseEv@PLT
.LEHE45:
	.p2align 4,,10
	.p2align 3
.L1318:
	.cfi_restore_state
	lock addl	$1, 8(%rbx)
	movq	__libc_single_threaded@GOTPCREL(%rip), %rax
	movzbl	(%rax), %eax
.L1332:
	testb	%al, %al
	jne	.L1319
	lock addl	$1, 8(%rbp)
	jmp	.L1321
	.p2align 4,,10
	.p2align 3
.L1313:
	lock addl	$1, 8(%rbx)
	jmp	.L1312
	.p2align 4,,10
	.p2align 3
.L1323:
	movq	%rdx, %rdi
	call	_ZdlPv@PLT
.L1322:
	movl	$57, %edi
.LEHB46:
	call	_Znwm@PLT
.LEHE46:
	movb	$56, 56(%rax)
	movq	%rax, %rdx
	jmp	.L1324
	.p2align 4,,10
	.p2align 3
.L1355:
	movq	%r13, %rdi
	movups	%xmm1, 40(%rdx)
	xorl	%ecx, %ecx
	call	_ZN4asio6detail14strand_service7do_postERPNS1_11strand_implEPNS0_25task_io_service_operationEb@PLT
	movq	%rbp, %rdi
	jmp	.L1354
	.p2align 4,,10
	.p2align 3
.L1326:
	lock addl	$1, 8(%rbx)
	jmp	.L1327
.L1334:
	movq	%rax, %r12
	jmp	.L1328
	.section	.gcc_except_table
.LLSDA8018:
	.byte	0xff
	.byte	0xff
	.byte	0x1
	.uleb128 .LLSDACSE8018-.LLSDACSB8018
.LLSDACSB8018:
	.uleb128 .LEHB45-.LFB8018
	.uleb128 .LEHE45-.LEHB45
	.uleb128 0
	.uleb128 0
	.uleb128 .LEHB46-.LFB8018
	.uleb128 .LEHE46-.LEHB46
	.uleb128 .L1334-.LFB8018
	.uleb128 0
.LLSDACSE8018:
	.text
	.cfi_endproc
	.section	.text.unlikely
	.cfi_startproc
	.cfi_personality 0x9b,DW.ref.__gxx_personality_v0
	.cfi_lsda 0x1b,.LLSDAC8018
	.type	_ZN8asiodnp318MasterSessionStack6DemandERKSt10shared_ptrIN8opendnp311IMasterTaskEE.cold, @function
_ZN8asiodnp318MasterSessionStack6DemandERKSt10shared_ptrIN8opendnp311IMasterTaskEE.cold:
.LFSB8018:
.L1315:
	.cfi_def_cfa_offset 144
	.cfi_offset 3, -56
	.cfi_offset 6, -48
	.cfi_offset 12, -40
	.cfi_offset 13, -32
	.cfi_offset 14, -24
	.cfi_offset 15, -16
	movl	$8, %edi
	call	__cxa_allocate_exception@PLT
	movq	_ZTVSt12bad_weak_ptr@GOTPCREL(%rip), %rdx
	movq	_ZTISt12bad_weak_ptr@GOTPCREL(%rip), %rsi
	movq	%rax, %rdi
	addq	$16, %rdx
	movq	%rdx, (%rax)
	movq	_ZNSt12bad_weak_ptrD1Ev@GOTPCREL(%rip), %rdx
.LEHB47:
	call	__cxa_throw@PLT
.LEHE47:
.L1328:
	movq	%rbx, %xmm4
	movq	%rbp, %xmm5
	movq	%r15, %xmm1
	movq	%r14, %xmm0
	punpcklqdq	%xmm4, %xmm1
	leaq	32(%rsp), %rdi
	punpcklqdq	%xmm5, %xmm0
	movaps	%xmm1, 32(%rsp)
	movaps	%xmm1, 16(%rsp)
	movaps	%xmm0, 48(%rsp)
	movaps	%xmm0, (%rsp)
	call	_ZZN8asiodnp318MasterSessionStack6DemandERKSt10shared_ptrIN8opendnp311IMasterTaskEEENUlvE_D1Ev
	movdqa	16(%rsp), %xmm1
	movdqa	(%rsp), %xmm0
	leaq	32(%rsp), %rdi
	movaps	%xmm1, 32(%rsp)
	movaps	%xmm0, 48(%rsp)
	call	_ZZN8asiodnp318MasterSessionStack6DemandERKSt10shared_ptrIN8opendnp311IMasterTaskEEENUlvE_D1Ev
	movq	%r12, %rdi
.LEHB48:
	call	_Unwind_Resume@PLT
.L1333:
	movq	%rax, %rbp
	testq	%rbx, %rbx
	je	.L1330
	movq	%rbx, %rdi
	call	_ZNSt16_Sp_counted_baseILN9__gnu_cxx12_Lock_policyE2EE10_M_releaseEv@PLT
.L1330:
	movq	%rbp, %rdi
	call	_Unwind_Resume@PLT
.LEHE48:
	.cfi_endproc
.LFE8018:
	.section	.gcc_except_table
.LLSDAC8018:
	.byte	0xff
	.byte	0xff
	.byte	0x1
	.uleb128 .LLSDACSEC8018-.LLSDACSBC8018
.LLSDACSBC8018:
	.uleb128 .LEHB47-.LCOLDB34
	.uleb128 .LEHE47-.LEHB47
	.uleb128 .L1333-.LCOLDB34
	.uleb128 0
	.uleb128 .LEHB48-.LCOLDB34
	.uleb128 .LEHE48-.LEHB48
	.uleb128 0
	.uleb128 0
.LLSDACSEC8018:
	.section	.text.unlikely
	.text
	.size	_ZN8asiodnp318MasterSessionStack6DemandERKSt10shared_ptrIN8opendnp311IMasterTaskEE, .-_ZN8asiodnp318MasterSessionStack6DemandERKSt10shared_ptrIN8opendnp311IMasterTaskEE
	.section	.text.unlikely
	.size	_ZN8asiodnp318MasterSessionStack6DemandERKSt10shared_ptrIN8opendnp311IMasterTaskEE.cold, .-_ZN8asiodnp318MasterSessionStack6DemandERKSt10shared_ptrIN8opendnp311IMasterTaskEE.cold
.LCOLDE34:
	.text
.LHOTE34:
	.set	.LTHUNK2,_ZN8asiodnp318MasterSessionStack6DemandERKSt10shared_ptrIN8opendnp311IMasterTaskEE
	.p2align 4
	.globl	_ZThn8_N8asiodnp318MasterSessionStack6DemandERKSt10shared_ptrIN8opendnp311IMasterTaskEE
	.type	_ZThn8_N8asiodnp318MasterSessionStack6DemandERKSt10shared_ptrIN8opendnp311IMasterTaskEE, @function
_ZThn8_N8asiodnp318MasterSessionStack6DemandERKSt10shared_ptrIN8opendnp311IMasterTaskEE:
.LFB11893:
	.cfi_startproc
	subq	$8, %rdi
	jmp	.LTHUNK2
	.cfi_endproc
.LFE11893:
	.size	_ZThn8_N8asiodnp318MasterSessionStack6DemandERKSt10shared_ptrIN8opendnp311IMasterTaskEE, .-_ZThn8_N8asiodnp318MasterSessionStack6DemandERKSt10shared_ptrIN8opendnp311IMasterTaskEE
	.section	.text._ZN8opendnp314TransportStackD2Ev,"axG",@progbits,_ZN8opendnp314TransportStackD5Ev,comdat
	.align 2
	.p2align 4
	.weak	_ZN8opendnp314TransportStackD2Ev
	.type	_ZN8opendnp314TransportStackD2Ev, @function
_ZN8opendnp314TransportStackD2Ev:
.LFB7932:
	.cfi_startproc
	subq	$24, %rsp
	.cfi_def_cfa_offset 32
	movq	%rdi, %rax
	movq	24(%rdi), %rdi
	testq	%rdi, %rdi
	je	.L1358
	movq	8(%rdi), %rcx
	leaq	8(%rdi), %rsi
	movabsq	$4294967297, %rdx
	cmpq	%rdx, %rcx
	je	.L1370
	movq	__libc_single_threaded@GOTPCREL(%rip), %rdx
	cmpb	$0, (%rdx)
	je	.L1360
	movl	8(%rdi), %edx
	leal	-1(%rdx), %ecx
	movl	%ecx, 8(%rdi)
.L1361:
	cmpl	$1, %edx
	je	.L1371
.L1358:
	movq	8(%rax), %rdi
	testq	%rdi, %rdi
	je	.L1356
	movq	8(%rdi), %rdx
	leaq	8(%rdi), %rcx
	movabsq	$4294967297, %rax
	cmpq	%rax, %rdx
	je	.L1372
	movq	__libc_single_threaded@GOTPCREL(%rip), %rax
	cmpb	$0, (%rax)
	je	.L1366
	movl	8(%rdi), %eax
	leal	-1(%rax), %edx
	movl	%edx, 8(%rdi)
.L1367:
	cmpl	$1, %eax
	je	.L1373
.L1356:
	addq	$24, %rsp
	.cfi_remember_state
	.cfi_def_cfa_offset 8
	ret
	.p2align 4,,10
	.p2align 3
.L1372:
	.cfi_restore_state
	movq	(%rdi), %rax
	movq	%rdi, (%rsp)
	movq	$0, 8(%rdi)
	call	*16(%rax)
	movq	(%rsp), %rdi
	movq	(%rdi), %rax
	movq	24(%rax), %rax
	addq	$24, %rsp
	.cfi_remember_state
	.cfi_def_cfa_offset 8
	jmp	*%rax
	.p2align 4,,10
	.p2align 3
.L1370:
	.cfi_restore_state
	movq	(%rdi), %rdx
	movq	%rax, 8(%rsp)
	movq	$0, 8(%rdi)
	movq	%rdi, (%rsp)
	call	*16(%rdx)
	movq	(%rsp), %rdi
	movq	(%rdi), %rdx
	call	*24(%rdx)
	movq	8(%rsp), %rax
	jmp	.L1358
	.p2align 4,,10
	.p2align 3
.L1366:
	movl	$-1, %eax
	lock xaddl	%eax, (%rcx)
	jmp	.L1367
	.p2align 4,,10
	.p2align 3
.L1360:
	movl	$-1, %edx
	lock xaddl	%edx, (%rsi)
	jmp	.L1361
	.p2align 4,,10
	.p2align 3
.L1371:
	movq	%rax, (%rsp)
	call	_ZNSt16_Sp_counted_baseILN9__gnu_cxx12_Lock_policyE2EE24_M_release_last_use_coldEv@PLT
	movq	(%rsp), %rax
	jmp	.L1358
	.p2align 4,,10
	.p2align 3
.L1373:
	addq	$24, %rsp
	.cfi_def_cfa_offset 8
	jmp	_ZNSt16_Sp_counted_baseILN9__gnu_cxx12_Lock_policyE2EE24_M_release_last_use_coldEv@PLT
	.cfi_endproc
.LFE7932:
	.size	_ZN8opendnp314TransportStackD2Ev, .-_ZN8opendnp314TransportStackD2Ev
	.weak	_ZN8opendnp314TransportStackD1Ev
	.set	_ZN8opendnp314TransportStackD1Ev,_ZN8opendnp314TransportStackD2Ev
	.section	.text.unlikely
	.align 2
.LCOLDB35:
	.text
.LHOTB35:
	.align 2
	.p2align 4
	.globl	_ZN8asiodnp318MasterSessionStackC2ERKN7openpal6LoggerERKSt10shared_ptrIN7asiopal8ExecutorEERKS5_IN8opendnp311ISOEHandlerEERKS5_INSB_18IMasterApplicationEERKS5_INS_11LinkSessionEERNSB_7ILinkTxERKNS_17MasterStackConfigE
	.type	_ZN8asiodnp318MasterSessionStackC2ERKN7openpal6LoggerERKSt10shared_ptrIN7asiopal8ExecutorEERKS5_IN8opendnp311ISOEHandlerEERKS5_INSB_18IMasterApplicationEERKS5_INS_11LinkSessionEERNSB_7ILinkTxERKNS_17MasterStackConfigE, @function
_ZN8asiodnp318MasterSessionStackC2ERKN7openpal6LoggerERKSt10shared_ptrIN7asiopal8ExecutorEERKS5_IN8opendnp311ISOEHandlerEERKS5_INSB_18IMasterApplicationEERKS5_INS_11LinkSessionEERNSB_7ILinkTxERKNS_17MasterStackConfigE:
.LFB8010:
	.cfi_startproc
	.cfi_personality 0x9b,DW.ref.__gxx_personality_v0
	.cfi_lsda 0x1b,.LLSDA8010
	pushq	%rbp
	.cfi_def_cfa_offset 16
	.cfi_offset 6, -16
	movq	%rsp, %rbp
	.cfi_def_cfa_register 6
	pushq	%r15
	.cfi_offset 15, -24
	movq	%r8, %r15
	pushq	%r14
	pushq	%r13
	pushq	%r12
	pushq	%rbx
	.cfi_offset 14, -32
	.cfi_offset 13, -40
	.cfi_offset 12, -48
	.cfi_offset 3, -56
	movq	%rdi, %rbx
	subq	$72, %rsp
	movq	_ZTVN8asiodnp318MasterSessionStackE@GOTPCREL(%rip), %rax
	movq	%rsi, -88(%rbp)
	movq	%rdx, %rsi
	movq	%rdx, -96(%rbp)
	leaq	184(%rax), %rdx
	addq	$16, %rax
	movq	%rcx, -112(%rbp)
	movq	%rax, %xmm0
	movq	%rdx, %xmm1
	punpcklqdq	%xmm1, %xmm0
	movups	%xmm0, (%rdi)
	pxor	%xmm0, %xmm0
	movups	%xmm0, 16(%rdi)
	movdqu	(%rsi), %xmm0
	movhlps	%xmm0, %xmm2
	movups	%xmm0, 32(%rdi)
	movq	%xmm2, %rax
	testq	%rax, %rax
	je	.L1375
	movq	__libc_single_threaded@GOTPCREL(%rip), %rdx
	cmpb	$0, (%rdx)
	je	.L1376
	addl	$1, 8(%rax)
.L1375:
	movdqu	(%r9), %xmm0
	movhlps	%xmm0, %xmm3
	movups	%xmm0, 48(%rbx)
	movq	%xmm3, %rax
	testq	%rax, %rax
	je	.L1377
	movq	__libc_single_threaded@GOTPCREL(%rip), %rdx
	cmpb	$0, (%rdx)
	je	.L1378
	addl	$1, 8(%rax)
.L1377:
	movdqu	(%r15), %xmm0
	leaq	64(%rbx), %rax
	movq	%rax, -104(%rbp)
	movq	24(%rbp), %rax
	movhlps	%xmm0, %xmm4
	movaps	%xmm0, -64(%rbp)
	movl	36(%rax), %r8d
	leaq	40(%rax), %r9
	movq	%xmm4, %rax
	testq	%rax, %rax
	je	.L1379
	movq	__libc_single_threaded@GOTPCREL(%rip), %rdx
	cmpb	$0, (%rdx)
	je	.L1380
	addl	$1, 8(%rax)
.L1379:
	movq	-96(%rbp), %rax
	movdqu	(%rax), %xmm0
	movhlps	%xmm0, %xmm5
	movaps	%xmm0, -80(%rbp)
	movq	%xmm5, %rax
	testq	%rax, %rax
	je	.L1381
	movq	__libc_single_threaded@GOTPCREL(%rip), %rdx
	cmpb	$0, (%rdx)
	je	.L1382
	addl	$1, 8(%rax)
.L1381:
	movq	-88(%rbp), %rsi
	movq	-104(%rbp), %rdi
	leaq	-64(%rbp), %rcx
	leaq	-80(%rbp), %rdx
.LEHB49:
	call	_ZN8opendnp314TransportStackC1ERKN7openpal6LoggerERKSt10shared_ptrINS1_9IExecutorEERKS5_INS_13ILinkListenerEEjRKNS_10LinkConfigE@PLT
.LEHE49:
	movq	-72(%rbp), %rdi
	testq	%rdi, %rdi
	je	.L1383
	call	_ZNSt16_Sp_counted_baseILN9__gnu_cxx12_Lock_policyE2EE10_M_releaseEv@PLT
.L1383:
	movq	-56(%rbp), %rdi
	testq	%rdi, %rdi
	je	.L1384
	call	_ZNSt16_Sp_counted_baseILN9__gnu_cxx12_Lock_policyE2EE10_M_releaseEv@PLT
.L1384:
.LEHB50:
	call	_ZN8opendnp312NullTaskLock8InstanceEv@PLT
.LEHE50:
	movq	64(%rbx), %rdx
	leaq	8(%rdx), %rcx
	testq	%rdx, %rdx
	cmovne	%rcx, %rdx
	movq	72(%rbx), %rcx
	movq	%rdx, %xmm0
	movq	%rcx, %xmm6
	punpcklqdq	%xmm6, %xmm0
	movaps	%xmm0, -64(%rbp)
	testq	%rcx, %rcx
	je	.L1386
	movq	__libc_single_threaded@GOTPCREL(%rip), %rdx
	cmpb	$0, (%rdx)
	je	.L1387
	addl	$1, 8(%rcx)
.L1386:
	movq	-96(%rbp), %rsi
	movdqu	(%rsi), %xmm0
	movhlps	%xmm0, %xmm7
	movaps	%xmm0, -80(%rbp)
	movq	%xmm7, %rdx
	testq	%rdx, %rdx
	je	.L1388
	movq	__libc_single_threaded@GOTPCREL(%rip), %rcx
	cmpb	$0, (%rcx)
	je	.L1389
	addl	$1, 8(%rdx)
.L1388:
	pushq	%rax
	movq	-112(%rbp), %r8
	movq	%r15, %r9
	leaq	-64(%rbp), %rcx
	pushq	24(%rbp)
	movq	-88(%rbp), %rsi
	leaq	-80(%rbp), %rdx
	leaq	96(%rbx), %rdi
.LEHB51:
	.cfi_escape 0x2e,0x10
	call	_ZN8opendnp38MContextC1ERKN7openpal6LoggerERKSt10shared_ptrINS1_9IExecutorEERKS5_INS_11ILowerLayerEERKS5_INS_11ISOEHandlerEERKS5_INS_18IMasterApplicationEERKNS_12MasterParamsERNS_9ITaskLockE@PLT
.LEHE51:
	movq	-72(%rbp), %rdi
	popq	%rax
	popq	%rdx
	testq	%rdi, %rdi
	je	.L1390
	call	_ZNSt16_Sp_counted_baseILN9__gnu_cxx12_Lock_policyE2EE10_M_releaseEv@PLT
.L1390:
	movq	-56(%rbp), %rdi
	testq	%rdi, %rdi
	je	.L1391
	call	_ZNSt16_Sp_counted_baseILN9__gnu_cxx12_Lock_policyE2EE10_M_releaseEv@PLT
.L1391:
	movq	80(%rbx), %rdi
	movq	16(%rbp), %rsi
.LEHB52:
	.cfi_escape 0x2e,0
	call	_ZN8opendnp39LinkLayer9SetRouterERNS_7ILinkTxE@PLT
	movq	64(%rbx), %rdi
	leaq	96(%rbx), %rsi
	call	_ZN8opendnp314TransportLayer11SetAppLayerERNS_11IUpperLayerE@PLT
.LEHE52:
	leaq	-40(%rbp), %rsp
	popq	%rbx
	popq	%r12
	popq	%r13
	popq	%r14
	popq	%r15
	popq	%rbp
	.cfi_remember_state
	.cfi_def_cfa 7, 8
	ret
	.p2align 4,,10
	.p2align 3
.L1380:
	.cfi_restore_state
	lock addl	$1, 8(%rax)
	jmp	.L1379
	.p2align 4,,10
	.p2align 3
.L1378:
	lock addl	$1, 8(%rax)
	jmp	.L1377
	.p2align 4,,10
	.p2align 3
.L1376:
	lock addl	$1, 8(%rax)
	jmp	.L1375
	.p2align 4,,10
	.p2align 3
.L1389:
	lock addl	$1, 8(%rdx)
	jmp	.L1388
	.p2align 4,,10
	.p2align 3
.L1387:
	lock addl	$1, 8(%rcx)
	jmp	.L1386
	.p2align 4,,10
	.p2align 3
.L1382:
	lock addl	$1, 8(%rax)
	jmp	.L1381
.L1409:
	movq	%rax, %r14
	jmp	.L1399
.L1408:
	movq	%rax, %r15
	jmp	.L1392
.L1411:
	movq	%rax, %r15
	jmp	.L1400
.L1410:
	movq	%rax, %r14
	jmp	.L1396
	.section	.gcc_except_table
.LLSDA8010:
	.byte	0xff
	.byte	0xff
	.byte	0x1
	.uleb128 .LLSDACSE8010-.LLSDACSB8010
.LLSDACSB8010:
	.uleb128 .LEHB49-.LFB8010
	.uleb128 .LEHE49-.LEHB49
	.uleb128 .L1408-.LFB8010
	.uleb128 0
	.uleb128 .LEHB50-.LFB8010
	.uleb128 .LEHE50-.LEHB50
	.uleb128 .L1409-.LFB8010
	.uleb128 0
	.uleb128 .LEHB51-.LFB8010
	.uleb128 .LEHE51-.LEHB51
	.uleb128 .L1410-.LFB8010
	.uleb128 0
	.uleb128 .LEHB52-.LFB8010
	.uleb128 .LEHE52-.LEHB52
	.uleb128 .L1411-.LFB8010
	.uleb128 0
.LLSDACSE8010:
	.text
	.cfi_endproc
	.section	.text.unlikely
	.cfi_startproc
	.cfi_personality 0x9b,DW.ref.__gxx_personality_v0
	.cfi_lsda 0x1b,.LLSDAC8010
	.type	_ZN8asiodnp318MasterSessionStackC2ERKN7openpal6LoggerERKSt10shared_ptrIN7asiopal8ExecutorEERKS5_IN8opendnp311ISOEHandlerEERKS5_INSB_18IMasterApplicationEERKS5_INS_11LinkSessionEERNSB_7ILinkTxERKNS_17MasterStackConfigE.cold, @function
_ZN8asiodnp318MasterSessionStackC2ERKN7openpal6LoggerERKSt10shared_ptrIN7asiopal8ExecutorEERKS5_IN8opendnp311ISOEHandlerEERKS5_INSB_18IMasterApplicationEERKS5_INS_11LinkSessionEERNSB_7ILinkTxERKNS_17MasterStackConfigE.cold:
.LFSB8010:
.L1396:
	.cfi_def_cfa 6, 16
	.cfi_offset 3, -56
	.cfi_offset 6, -16
	.cfi_offset 12, -48
	.cfi_offset 13, -40
	.cfi_offset 14, -32
	.cfi_offset 15, -24
	movq	-72(%rbp), %rdi
	testq	%rdi, %rdi
	jne	.L1464
.L1397:
	movq	-56(%rbp), %rdi
	testq	%rdi, %rdi
	je	.L1399
	call	_ZNSt16_Sp_counted_baseILN9__gnu_cxx12_Lock_policyE2EE10_M_releaseEv@PLT
.L1399:
	movq	-104(%rbp), %rdi
	movq	%r14, %r15
	call	_ZN8opendnp314TransportStackD1Ev@PLT
.L1395:
	movq	56(%rbx), %rdi
	testq	%rdi, %rdi
	je	.L1401
	call	_ZNSt16_Sp_counted_baseILN9__gnu_cxx12_Lock_policyE2EE10_M_releaseEv@PLT
.L1401:
	movq	40(%rbx), %rdi
	testq	%rdi, %rdi
	je	.L1402
	call	_ZNSt16_Sp_counted_baseILN9__gnu_cxx12_Lock_policyE2EE10_M_releaseEv@PLT
.L1402:
	movq	24(%rbx), %rdi
	testq	%rdi, %rdi
	je	.L1404
	movq	__libc_single_threaded@GOTPCREL(%rip), %rax
	cmpb	$0, (%rax)
	je	.L1405
	movl	12(%rdi), %eax
	leal	-1(%rax), %edx
	movl	%edx, 12(%rdi)
.L1406:
	subl	$1, %eax
	je	.L1465
.L1404:
	movq	%r15, %rdi
.LEHB53:
	call	_Unwind_Resume@PLT
.LEHE53:
.L1392:
	movq	-72(%rbp), %rdi
	testq	%rdi, %rdi
	je	.L1393
	call	_ZNSt16_Sp_counted_baseILN9__gnu_cxx12_Lock_policyE2EE10_M_releaseEv@PLT
.L1393:
	movq	-56(%rbp), %rdi
	testq	%rdi, %rdi
	je	.L1395
	call	_ZNSt16_Sp_counted_baseILN9__gnu_cxx12_Lock_policyE2EE10_M_releaseEv@PLT
	jmp	.L1395
.L1400:
	leaq	96(%rbx), %rdi
	movq	%r15, %r14
	call	_ZN8opendnp38MContextD1Ev@PLT
	jmp	.L1399
.L1464:
	call	_ZNSt16_Sp_counted_baseILN9__gnu_cxx12_Lock_policyE2EE10_M_releaseEv@PLT
	jmp	.L1397
.L1405:
	movl	$-1, %eax
	lock xaddl	%eax, 12(%rdi)
	jmp	.L1406
.L1465:
	movq	(%rdi), %rax
	call	*24(%rax)
	jmp	.L1404
	.cfi_endproc
.LFE8010:
	.section	.gcc_except_table
.LLSDAC8010:
	.byte	0xff
	.byte	0xff
	.byte	0x1
	.uleb128 .LLSDACSEC8010-.LLSDACSBC8010
.LLSDACSBC8010:
	.uleb128 .LEHB53-.LCOLDB35
	.uleb128 .LEHE53-.LEHB53
	.uleb128 0
	.uleb128 0
.LLSDACSEC8010:
	.section	.text.unlikely
	.text
	.size	_ZN8asiodnp318MasterSessionStackC2ERKN7openpal6LoggerERKSt10shared_ptrIN7asiopal8ExecutorEERKS5_IN8opendnp311ISOEHandlerEERKS5_INSB_18IMasterApplicationEERKS5_INS_11LinkSessionEERNSB_7ILinkTxERKNS_17MasterStackConfigE, .-_ZN8asiodnp318MasterSessionStackC2ERKN7openpal6LoggerERKSt10shared_ptrIN7asiopal8ExecutorEERKS5_IN8opendnp311ISOEHandlerEERKS5_INSB_18IMasterApplicationEERKS5_INS_11LinkSessionEERNSB_7ILinkTxERKNS_17MasterStackConfigE
	.section	.text.unlikely
	.size	_ZN8asiodnp318MasterSessionStackC2ERKN7openpal6LoggerERKSt10shared_ptrIN7asiopal8ExecutorEERKS5_IN8opendnp311ISOEHandlerEERKS5_INSB_18IMasterApplicationEERKS5_INS_11LinkSessionEERNSB_7ILinkTxERKNS_17MasterStackConfigE.cold, .-_ZN8asiodnp318MasterSessionStackC2ERKN7openpal6LoggerERKSt10shared_ptrIN7asiopal8ExecutorEERKS5_IN8opendnp311ISOEHandlerEERKS5_INSB_18IMasterApplicationEERKS5_INS_11LinkSessionEERNSB_7ILinkTxERKNS_17MasterStackConfigE.cold
.LCOLDE35:
	.text
.LHOTE35:
	.globl	_ZN8asiodnp318MasterSessionStackC1ERKN7openpal6LoggerERKSt10shared_ptrIN7asiopal8ExecutorEERKS5_IN8opendnp311ISOEHandlerEERKS5_INSB_18IMasterApplicationEERKS5_INS_11LinkSessionEERNSB_7ILinkTxERKNS_17MasterStackConfigE
	.set	_ZN8asiodnp318MasterSessionStackC1ERKN7openpal6LoggerERKSt10shared_ptrIN7asiopal8ExecutorEERKS5_IN8opendnp311ISOEHandlerEERKS5_INSB_18IMasterApplicationEERKS5_INS_11LinkSessionEERNSB_7ILinkTxERKNS_17MasterStackConfigE,_ZN8asiodnp318MasterSessionStackC2ERKN7openpal6LoggerERKSt10shared_ptrIN7asiopal8ExecutorEERKS5_IN8opendnp311ISOEHandlerEERKS5_INSB_18IMasterApplicationEERKS5_INS_11LinkSessionEERNSB_7ILinkTxERKNS_17MasterStackConfigE
	.section	.text.unlikely
	.align 2
.LCOLDB38:
	.text
.LHOTB38:
	.align 2
	.p2align 4
	.globl	_ZN8asiodnp318MasterSessionStack6CreateERKN7openpal6LoggerERKSt10shared_ptrIN7asiopal8ExecutorEERKS5_IN8opendnp311ISOEHandlerEERKS5_INSB_18IMasterApplicationEERKS5_INS_11LinkSessionEERNSB_7ILinkTxERKNS_17MasterStackConfigE
	.type	_ZN8asiodnp318MasterSessionStack6CreateERKN7openpal6LoggerERKSt10shared_ptrIN7asiopal8ExecutorEERKS5_IN8opendnp311ISOEHandlerEERKS5_INSB_18IMasterApplicationEERKS5_INS_11LinkSessionEERNSB_7ILinkTxERKNS_17MasterStackConfigE, @function
_ZN8asiodnp318MasterSessionStack6CreateERKN7openpal6LoggerERKSt10shared_ptrIN7asiopal8ExecutorEERKS5_IN8opendnp311ISOEHandlerEERKS5_INSB_18IMasterApplicationEERKS5_INS_11LinkSessionEERNSB_7ILinkTxERKNS_17MasterStackConfigE:
.LFB7869:
	.cfi_startproc
	.cfi_personality 0x9b,DW.ref.__gxx_personality_v0
	.cfi_lsda 0x1b,.LLSDA7869
	pushq	%rbp
	.cfi_def_cfa_offset 16
	.cfi_offset 6, -16
	movq	%rsp, %rbp
	.cfi_def_cfa_register 6
	pushq	%r14
	.cfi_offset 14, -24
	movq	%rdi, %r14
	pushq	%r12
	pushq	%rbx
	subq	$56, %rsp
	.cfi_offset 12, -32
	.cfi_offset 3, -40
	movq	$0, (%rdi)
	movl	$632, %edi
	movq	%rsi, -72(%rbp)
	movq	%rdx, -64(%rbp)
	movq	%rcx, -56(%rbp)
	movq	%r8, -48(%rbp)
	movq	%r9, -40(%rbp)
.LEHB54:
	call	_Znwm@PLT
.LEHE54:
	movq	-40(%rbp), %r9
	movq	-48(%rbp), %r8
	movq	%rax, %rbx
	movq	.LC36(%rip), %rax
	movq	-56(%rbp), %rcx
	leaq	16(%rbx), %r12
	movq	-64(%rbp), %rdx
	movq	-72(%rbp), %rsi
	movq	%rax, 8(%rbx)
	movq	_ZTVSt23_Sp_counted_ptr_inplaceIN8asiodnp318MasterSessionStackESaIvELN9__gnu_cxx12_Lock_policyE2EE@GOTPCREL(%rip), %rax
	movq	%r12, %rdi
	addq	$16, %rax
	movq	%rax, (%rbx)
	pushq	24(%rbp)
	pushq	16(%rbp)
.LEHB55:
	.cfi_escape 0x2e,0x10
	call	_ZN8asiodnp318MasterSessionStackC1ERKN7openpal6LoggerERKSt10shared_ptrIN7asiopal8ExecutorEERKS5_IN8opendnp311ISOEHandlerEERKS5_INSB_18IMasterApplicationEERKS5_INS_11LinkSessionEERNSB_7ILinkTxERKNS_17MasterStackConfigE@PLT
.LEHE55:
	movq	40(%rbx), %rdi
	popq	%rax
	popq	%rdx
	movq	%rbx, 8(%r14)
	movq	%r12, (%r14)
	testq	%rdi, %rdi
	je	.L1486
	movl	8(%rdi), %eax
	testl	%eax, %eax
	jne	.L1466
	movq	%r12, 32(%rbx)
	testq	%rbx, %rbx
	je	.L1471
	movq	__libc_single_threaded@GOTPCREL(%rip), %rax
	cmpb	$0, (%rax)
	je	.L1472
.L1487:
	addl	$1, 12(%rbx)
	testq	%rdi, %rdi
	je	.L1474
.L1473:
	movl	12(%rdi), %eax
	leal	-1(%rax), %edx
	movl	%edx, 12(%rdi)
.L1477:
	cmpl	$1, %eax
	jne	.L1474
	movq	(%rdi), %rax
	call	*24(%rax)
	.p2align 4
	.p2align 3
.L1474:
	movq	%rbx, 40(%rbx)
.L1466:
	leaq	-24(%rbp), %rsp
	movq	%r14, %rax
	popq	%rbx
	popq	%r12
	popq	%r14
	popq	%rbp
	.cfi_remember_state
	.cfi_def_cfa 7, 8
	ret
	.p2align 4,,10
	.p2align 3
.L1486:
	.cfi_restore_state
	movq	__libc_single_threaded@GOTPCREL(%rip), %rax
	movq	%r12, 32(%rbx)
	cmpb	$0, (%rax)
	jne	.L1487
.L1472:
	lock addl	$1, 12(%rbx)
	movq	40(%rbx), %rdi
.L1471:
	testq	%rdi, %rdi
	je	.L1474
	movq	__libc_single_threaded@GOTPCREL(%rip), %rax
	cmpb	$0, (%rax)
	jne	.L1473
	movl	$-1, %eax
	lock xaddl	%eax, 12(%rdi)
	jmp	.L1477
.L1478:
	movq	%rax, %r14
	jmp	.L1469
	.section	.gcc_except_table
.LLSDA7869:
	.byte	0xff
	.byte	0xff
	.byte	0x1
	.uleb128 .LLSDACSE7869-.LLSDACSB7869
.LLSDACSB7869:
	.uleb128 .LEHB54-.LFB7869
	.uleb128 .LEHE54-.LEHB54
	.uleb128 0
	.uleb128 0
	.uleb128 .LEHB55-.LFB7869
	.uleb128 .LEHE55-.LEHB55
	.uleb128 .L1478-.LFB7869
	.uleb128 0
.LLSDACSE7869:
	.text
	.cfi_endproc
	.section	.text.unlikely
	.cfi_startproc
	.cfi_personality 0x9b,DW.ref.__gxx_personality_v0
	.cfi_lsda 0x1b,.LLSDAC7869
	.type	_ZN8asiodnp318MasterSessionStack6CreateERKN7openpal6LoggerERKSt10shared_ptrIN7asiopal8ExecutorEERKS5_IN8opendnp311ISOEHandlerEERKS5_INSB_18IMasterApplicationEERKS5_INS_11LinkSessionEERNSB_7ILinkTxERKNS_17MasterStackConfigE.cold, @function
_ZN8asiodnp318MasterSessionStack6CreateERKN7openpal6LoggerERKSt10shared_ptrIN7asiopal8ExecutorEERKS5_IN8opendnp311ISOEHandlerEERKS5_INSB_18IMasterApplicationEERKS5_INS_11LinkSessionEERNSB_7ILinkTxERKNS_17MasterStackConfigE.cold:
.LFSB7869:
.L1469:
	.cfi_def_cfa 6, 16
	.cfi_offset 3, -40
	.cfi_offset 6, -16
	.cfi_offset 12, -32
	.cfi_offset 14, -24
	movq	%rbx, %rdi
	movl	$632, %esi
	call	_ZdlPvm@PLT
	movq	%r14, %rdi
.LEHB56:
	call	_Unwind_Resume@PLT
.LEHE56:
	.cfi_endproc
.LFE7869:
	.section	.gcc_except_table
.LLSDAC7869:
	.byte	0xff
	.byte	0xff
	.byte	0x1
	.uleb128 .LLSDACSEC7869-.LLSDACSBC7869
.LLSDACSBC7869:
	.uleb128 .LEHB56-.LCOLDB38
	.uleb128 .LEHE56-.LEHB56
	.uleb128 0
	.uleb128 0
.LLSDACSEC7869:
	.section	.text.unlikely
	.text
	.size	_ZN8asiodnp318MasterSessionStack6CreateERKN7openpal6LoggerERKSt10shared_ptrIN7asiopal8ExecutorEERKS5_IN8opendnp311ISOEHandlerEERKS5_INSB_18IMasterApplicationEERKS5_INS_11LinkSessionEERNSB_7ILinkTxERKNS_17MasterStackConfigE, .-_ZN8asiodnp318MasterSessionStack6CreateERKN7openpal6LoggerERKSt10shared_ptrIN7asiopal8ExecutorEERKS5_IN8opendnp311ISOEHandlerEERKS5_INSB_18IMasterApplicationEERKS5_INS_11LinkSessionEERNSB_7ILinkTxERKNS_17MasterStackConfigE
	.section	.text.unlikely
	.size	_ZN8asiodnp318MasterSessionStack6CreateERKN7openpal6LoggerERKSt10shared_ptrIN7asiopal8ExecutorEERKS5_IN8opendnp311ISOEHandlerEERKS5_INSB_18IMasterApplicationEERKS5_INS_11LinkSessionEERNSB_7ILinkTxERKNS_17MasterStackConfigE.cold, .-_ZN8asiodnp318MasterSessionStack6CreateERKN7openpal6LoggerERKSt10shared_ptrIN7asiopal8ExecutorEERKS5_IN8opendnp311ISOEHandlerEERKS5_INSB_18IMasterApplicationEERKS5_INS_11LinkSessionEERNSB_7ILinkTxERKNS_17MasterStackConfigE.cold
.LCOLDE38:
	.text
.LHOTE38:
	.section	.text._ZNSt23_Sp_counted_ptr_inplaceIN8asiodnp310MasterScanESaIvELN9__gnu_cxx12_Lock_policyE2EE10_M_disposeEv,"axG",@progbits,_ZNSt23_Sp_counted_ptr_inplaceIN8asiodnp310MasterScanESaIvELN9__gnu_cxx12_Lock_policyE2EE10_M_disposeEv,comdat
	.align 2
	.p2align 4
	.weak	_ZNSt23_Sp_counted_ptr_inplaceIN8asiodnp310MasterScanESaIvELN9__gnu_cxx12_Lock_policyE2EE10_M_disposeEv
	.type	_ZNSt23_Sp_counted_ptr_inplaceIN8asiodnp310MasterScanESaIvELN9__gnu_cxx12_Lock_policyE2EE10_M_disposeEv, @function
_ZNSt23_Sp_counted_ptr_inplaceIN8asiodnp310MasterScanESaIvELN9__gnu_cxx12_Lock_policyE2EE10_M_disposeEv:
.LFB11732:
	.cfi_startproc
	subq	$24, %rsp
	.cfi_def_cfa_offset 32
	movq	_ZTVN8asiodnp310MasterScanE@GOTPCREL(%rip), %rdx
	movq	%rdi, %rax
	addq	$16, %rdx
	movq	%rdx, 16(%rdi)
	movq	48(%rdi), %rdi
	testq	%rdi, %rdi
	je	.L1490
	movq	8(%rdi), %rcx
	leaq	8(%rdi), %rsi
	movabsq	$4294967297, %rdx
	cmpq	%rdx, %rcx
	je	.L1502
	movq	__libc_single_threaded@GOTPCREL(%rip), %rdx
	cmpb	$0, (%rdx)
	je	.L1492
	movl	8(%rdi), %edx
	leal	-1(%rdx), %ecx
	movl	%ecx, 8(%rdi)
.L1493:
	cmpl	$1, %edx
	je	.L1503
.L1490:
	movq	32(%rax), %rdi
	testq	%rdi, %rdi
	je	.L1488
	movq	8(%rdi), %rdx
	leaq	8(%rdi), %rcx
	movabsq	$4294967297, %rax
	cmpq	%rax, %rdx
	je	.L1504
	movq	__libc_single_threaded@GOTPCREL(%rip), %rax
	cmpb	$0, (%rax)
	je	.L1498
	movl	8(%rdi), %eax
	leal	-1(%rax), %edx
	movl	%edx, 8(%rdi)
.L1499:
	cmpl	$1, %eax
	je	.L1505
.L1488:
	addq	$24, %rsp
	.cfi_remember_state
	.cfi_def_cfa_offset 8
	ret
	.p2align 4,,10
	.p2align 3
.L1504:
	.cfi_restore_state
	movq	(%rdi), %rax
	movq	%rdi, (%rsp)
	movq	$0, 8(%rdi)
	call	*16(%rax)
	movq	(%rsp), %rdi
	movq	(%rdi), %rax
	movq	24(%rax), %rax
	addq	$24, %rsp
	.cfi_remember_state
	.cfi_def_cfa_offset 8
	jmp	*%rax
	.p2align 4,,10
	.p2align 3
.L1502:
	.cfi_restore_state
	movq	(%rdi), %rdx
	movq	%rax, 8(%rsp)
	movq	$0, 8(%rdi)
	movq	%rdi, (%rsp)
	call	*16(%rdx)
	movq	(%rsp), %rdi
	movq	(%rdi), %rdx
	call	*24(%rdx)
	movq	8(%rsp), %rax
	jmp	.L1490
	.p2align 4,,10
	.p2align 3
.L1498:
	movl	$-1, %eax
	lock xaddl	%eax, (%rcx)
	jmp	.L1499
	.p2align 4,,10
	.p2align 3
.L1492:
	movl	$-1, %edx
	lock xaddl	%edx, (%rsi)
	jmp	.L1493
	.p2align 4,,10
	.p2align 3
.L1503:
	movq	%rax, (%rsp)
	call	_ZNSt16_Sp_counted_baseILN9__gnu_cxx12_Lock_policyE2EE24_M_release_last_use_coldEv@PLT
	movq	(%rsp), %rax
	jmp	.L1490
	.p2align 4,,10
	.p2align 3
.L1505:
	addq	$24, %rsp
	.cfi_def_cfa_offset 8
	jmp	_ZNSt16_Sp_counted_baseILN9__gnu_cxx12_Lock_policyE2EE24_M_release_last_use_coldEv@PLT
	.cfi_endproc
.LFE11732:
	.size	_ZNSt23_Sp_counted_ptr_inplaceIN8asiodnp310MasterScanESaIvELN9__gnu_cxx12_Lock_policyE2EE10_M_disposeEv, .-_ZNSt23_Sp_counted_ptr_inplaceIN8asiodnp310MasterScanESaIvELN9__gnu_cxx12_Lock_policyE2EE10_M_disposeEv
	.section	.text._ZN8asiodnp318MasterSessionStackD0Ev,"axG",@progbits,_ZN8asiodnp318MasterSessionStackD5Ev,comdat
	.p2align 4
	.weak	_ZThn8_N8asiodnp318MasterSessionStackD0Ev
	.type	_ZThn8_N8asiodnp318MasterSessionStackD0Ev, @function
_ZThn8_N8asiodnp318MasterSessionStackD0Ev:
.LFB11851:
	.cfi_startproc
	pushq	%r15
	.cfi_def_cfa_offset 16
	.cfi_offset 15, -16
	pushq	%r14
	.cfi_def_cfa_offset 24
	.cfi_offset 14, -24
	pushq	%r13
	.cfi_def_cfa_offset 32
	.cfi_offset 13, -32
	pushq	%r12
	.cfi_def_cfa_offset 40
	.cfi_offset 12, -40
	pushq	%rbp
	.cfi_def_cfa_offset 48
	.cfi_offset 6, -48
	pushq	%rbx
	.cfi_def_cfa_offset 56
	.cfi_offset 3, -56
	movq	%rdi, %rbx
	subq	$8, %rsp
	.cfi_def_cfa_offset 64
	movq	_ZTVN8asiodnp318MasterSessionStackE@GOTPCREL(%rip), %rax
	leaq	184(%rax), %rdx
	addq	$16, %rax
	movq	%rax, %xmm0
	movq	_ZTVN8opendnp38MContextE@GOTPCREL(%rip), %rax
	movq	%rdx, %xmm1
	punpcklqdq	%xmm1, %xmm0
	leaq	128(%rax), %rdx
	leaq	16(%rax), %rcx
	movups	%xmm0, -8(%rdi)
	addq	$152, %rax
	movq	%rcx, %xmm0
	movq	%rdx, %xmm2
	movq	%rax, 104(%rdi)
	punpcklqdq	%xmm2, %xmm0
	movups	%xmm0, 88(%rdi)
	movq	592(%rdi), %rdi
	testq	%rdi, %rdi
	je	.L1507
	call	_ZdaPv@PLT
.L1507:
	movq	496(%rbx), %rdi
	testq	%rdi, %rdi
	je	.L1508
	movq	568(%rbx), %rax
	movq	536(%rbx), %rbp
	leaq	8(%rax), %r12
	cmpq	%r12, %rbp
	jnb	.L1509
	.p2align 4
	.p2align 3
.L1510:
	movq	0(%rbp), %rdi
	movl	$510, %esi
	addq	$8, %rbp
	call	_ZdlPvm@PLT
	cmpq	%r12, %rbp
	jb	.L1510
	movq	496(%rbx), %rdi
.L1509:
	movq	504(%rbx), %rax
	leaq	0(,%rax,8), %rsi
	call	_ZdlPvm@PLT
.L1508:
	movq	480(%rbx), %r14
	movq	472(%rbx), %rbp
	cmpq	%rbp, %r14
	je	.L1511
	movabsq	$4294967297, %r15
	jmp	.L1518
	.p2align 4,,10
	.p2align 3
.L1629:
	movl	8(%r12), %eax
	leal	-1(%rax), %edx
	movl	%edx, 8(%r12)
	cmpl	$1, %eax
	je	.L1626
.L1513:
	addq	$16, %rbp
	cmpq	%rbp, %r14
	je	.L1627
.L1518:
	movq	8(%rbp), %r12
	testq	%r12, %r12
	je	.L1513
	movq	8(%r12), %rax
	leaq	8(%r12), %rdx
	cmpq	%r15, %rax
	je	.L1628
	movq	__libc_single_threaded@GOTPCREL(%rip), %rax
	cmpb	$0, (%rax)
	jne	.L1629
	movl	$-1, %eax
	lock xaddl	%eax, (%rdx)
	cmpl	$1, %eax
	jne	.L1513
.L1626:
	movq	%r12, %rdi
	addq	$16, %rbp
	call	_ZNSt16_Sp_counted_baseILN9__gnu_cxx12_Lock_policyE2EE24_M_release_last_use_coldEv@PLT
	cmpq	%rbp, %r14
	jne	.L1518
	.p2align 4
	.p2align 3
.L1627:
	movq	472(%rbx), %rbp
.L1511:
	testq	%rbp, %rbp
	je	.L1519
	movq	488(%rbx), %rsi
	movq	%rbp, %rdi
	subq	%rbp, %rsi
	call	_ZdlPvm@PLT
.L1519:
	movq	448(%rbx), %r14
	movq	440(%rbx), %rbp
	cmpq	%rbp, %r14
	je	.L1520
	movabsq	$4294967297, %r15
	jmp	.L1527
	.p2align 4,,10
	.p2align 3
.L1633:
	movl	8(%r12), %eax
	leal	-1(%rax), %edx
	movl	%edx, 8(%r12)
	cmpl	$1, %eax
	je	.L1630
.L1522:
	addq	$16, %rbp
	cmpq	%rbp, %r14
	je	.L1631
.L1527:
	movq	8(%rbp), %r12
	testq	%r12, %r12
	je	.L1522
	movq	8(%r12), %rax
	leaq	8(%r12), %rdx
	cmpq	%r15, %rax
	je	.L1632
	movq	__libc_single_threaded@GOTPCREL(%rip), %rax
	cmpb	$0, (%rax)
	jne	.L1633
	movl	$-1, %eax
	lock xaddl	%eax, (%rdx)
	cmpl	$1, %eax
	jne	.L1522
.L1630:
	movq	%r12, %rdi
	addq	$16, %rbp
	call	_ZNSt16_Sp_counted_baseILN9__gnu_cxx12_Lock_policyE2EE24_M_release_last_use_coldEv@PLT
	cmpq	%rbp, %r14
	jne	.L1527
	.p2align 4
	.p2align 3
.L1631:
	movq	440(%rbx), %rbp
.L1520:
	testq	%rbp, %rbp
	je	.L1528
	movq	456(%rbx), %rsi
	movq	%rbp, %rdi
	subq	%rbp, %rsi
	call	_ZdlPvm@PLT
.L1528:
	movq	432(%rbx), %rdi
	testq	%rdi, %rdi
	je	.L1529
	call	_ZNSt16_Sp_counted_baseILN9__gnu_cxx12_Lock_policyE2EE10_M_releaseEv@PLT
.L1529:
	movq	416(%rbx), %rdi
	testq	%rdi, %rdi
	je	.L1530
	call	_ZNSt16_Sp_counted_baseILN9__gnu_cxx12_Lock_policyE2EE10_M_releaseEv@PLT
.L1530:
	movq	400(%rbx), %rdi
	testq	%rdi, %rdi
	je	.L1531
	call	_ZNSt16_Sp_counted_baseILN9__gnu_cxx12_Lock_policyE2EE10_M_releaseEv@PLT
.L1531:
	movq	384(%rbx), %rdi
	testq	%rdi, %rdi
	je	.L1532
	call	_ZNSt16_Sp_counted_baseILN9__gnu_cxx12_Lock_policyE2EE10_M_releaseEv@PLT
.L1532:
	movq	368(%rbx), %rdi
	testq	%rdi, %rdi
	je	.L1533
	call	_ZNSt16_Sp_counted_baseILN9__gnu_cxx12_Lock_policyE2EE10_M_releaseEv@PLT
.L1533:
	movq	352(%rbx), %rdi
	testq	%rdi, %rdi
	je	.L1534
	call	_ZNSt16_Sp_counted_baseILN9__gnu_cxx12_Lock_policyE2EE10_M_releaseEv@PLT
.L1534:
	movq	336(%rbx), %rdi
	testq	%rdi, %rdi
	je	.L1535
	call	_ZNSt16_Sp_counted_baseILN9__gnu_cxx12_Lock_policyE2EE10_M_releaseEv@PLT
.L1535:
	leaq	312(%rbx), %rdi
	call	_ZN7openpal8TimerRefD1Ev@PLT
	leaq	296(%rbx), %rdi
	call	_ZN7openpal8TimerRefD1Ev@PLT
	leaq	280(%rbx), %rdi
	call	_ZN7openpal8TimerRefD1Ev@PLT
	movq	272(%rbx), %rdi
	testq	%rdi, %rdi
	je	.L1536
	call	_ZNSt16_Sp_counted_baseILN9__gnu_cxx12_Lock_policyE2EE10_M_releaseEv@PLT
.L1536:
	movq	240(%rbx), %rdi
	testq	%rdi, %rdi
	je	.L1537
	call	_ZNSt16_Sp_counted_baseILN9__gnu_cxx12_Lock_policyE2EE10_M_releaseEv@PLT
.L1537:
	movq	224(%rbx), %rdi
	testq	%rdi, %rdi
	je	.L1538
	call	_ZNSt16_Sp_counted_baseILN9__gnu_cxx12_Lock_policyE2EE10_M_releaseEv@PLT
.L1538:
	movq	168(%rbx), %rdi
	testq	%rdi, %rdi
	je	.L1539
	call	_ZNSt16_Sp_counted_baseILN9__gnu_cxx12_Lock_policyE2EE10_M_releaseEv@PLT
.L1539:
	movq	152(%rbx), %rdi
	testq	%rdi, %rdi
	je	.L1540
	call	_ZNSt16_Sp_counted_baseILN9__gnu_cxx12_Lock_policyE2EE10_M_releaseEv@PLT
.L1540:
	movq	136(%rbx), %rdi
	testq	%rdi, %rdi
	je	.L1541
	call	_ZNSt16_Sp_counted_baseILN9__gnu_cxx12_Lock_policyE2EE10_M_releaseEv@PLT
.L1541:
	movq	120(%rbx), %rdi
	testq	%rdi, %rdi
	je	.L1542
	call	_ZNSt16_Sp_counted_baseILN9__gnu_cxx12_Lock_policyE2EE10_M_releaseEv@PLT
.L1542:
	movq	80(%rbx), %rdi
	testq	%rdi, %rdi
	je	.L1543
	call	_ZNSt16_Sp_counted_baseILN9__gnu_cxx12_Lock_policyE2EE10_M_releaseEv@PLT
.L1543:
	movq	64(%rbx), %rdi
	testq	%rdi, %rdi
	je	.L1544
	call	_ZNSt16_Sp_counted_baseILN9__gnu_cxx12_Lock_policyE2EE10_M_releaseEv@PLT
.L1544:
	movq	48(%rbx), %rbp
	testq	%rbp, %rbp
	je	.L1546
	movq	8(%rbp), %rdx
	leaq	8(%rbp), %rcx
	movabsq	$4294967297, %rax
	cmpq	%rax, %rdx
	je	.L1634
	movq	__libc_single_threaded@GOTPCREL(%rip), %rax
	cmpb	$0, (%rax)
	je	.L1548
	movl	8(%rbp), %eax
	leal	-1(%rax), %edx
	movl	%edx, 8(%rbp)
.L1549:
	cmpl	$1, %eax
	je	.L1635
.L1546:
	movq	32(%rbx), %rbp
	testq	%rbp, %rbp
	je	.L1552
	movq	8(%rbp), %rdx
	leaq	8(%rbp), %rcx
	movabsq	$4294967297, %rax
	cmpq	%rax, %rdx
	je	.L1636
	movq	__libc_single_threaded@GOTPCREL(%rip), %rax
	cmpb	$0, (%rax)
	je	.L1554
	movl	8(%rbp), %eax
	leal	-1(%rax), %edx
	movl	%edx, 8(%rbp)
.L1555:
	cmpl	$1, %eax
	je	.L1637
.L1552:
	movq	16(%rbx), %rdi
	testq	%rdi, %rdi
	je	.L1558
	movq	__libc_single_threaded@GOTPCREL(%rip), %rax
	cmpb	$0, (%rax)
	je	.L1559
	movl	12(%rdi), %eax
	leal	-1(%rax), %edx
	movl	%edx, 12(%rdi)
.L1560:
	cmpl	$1, %eax
	je	.L1638
.L1558:
	addq	$8, %rsp
	.cfi_remember_state
	.cfi_def_cfa_offset 56
	leaq	-8(%rbx), %rdi
	movl	$616, %esi
	popq	%rbx
	.cfi_def_cfa_offset 48
	popq	%rbp
	.cfi_def_cfa_offset 40
	popq	%r12
	.cfi_def_cfa_offset 32
	popq	%r13
	.cfi_def_cfa_offset 24
	popq	%r14
	.cfi_def_cfa_offset 16
	popq	%r15
	.cfi_def_cfa_offset 8
	jmp	_ZdlPvm@PLT
	.p2align 4,,10
	.p2align 3
.L1628:
	.cfi_restore_state
	movq	$0, 8(%r12)
	movq	(%r12), %rax
	movq	%r12, %rdi
	call	*16(%rax)
	movq	(%r12), %rax
	movq	%r12, %rdi
	call	*24(%rax)
	jmp	.L1513
	.p2align 4,,10
	.p2align 3
.L1632:
	movq	$0, 8(%r12)
	movq	(%r12), %rax
	movq	%r12, %rdi
	call	*16(%rax)
	movq	(%r12), %rax
	movq	%r12, %rdi
	call	*24(%rax)
	jmp	.L1522
	.p2align 4,,10
	.p2align 3
.L1638:
	movq	(%rdi), %rax
	call	*24(%rax)
	jmp	.L1558
	.p2align 4,,10
	.p2align 3
.L1559:
	movl	$-1, %eax
	lock xaddl	%eax, 12(%rdi)
	jmp	.L1560
	.p2align 4,,10
	.p2align 3
.L1636:
	movq	0(%rbp), %rax
	movq	%rbp, %rdi
	movq	$0, 8(%rbp)
	call	*16(%rax)
	movq	0(%rbp), %rax
	movq	%rbp, %rdi
	call	*24(%rax)
	jmp	.L1552
	.p2align 4,,10
	.p2align 3
.L1634:
	movq	0(%rbp), %rax
	movq	%rbp, %rdi
	movq	$0, 8(%rbp)
	call	*16(%rax)
	movq	0(%rbp), %rax
	movq	%rbp, %rdi
	call	*24(%rax)
	jmp	.L1546
	.p2align 4,,10
	.p2align 3
.L1554:
	movl	$-1, %eax
	lock xaddl	%eax, (%rcx)
	jmp	.L1555
	.p2align 4,,10
	.p2align 3
.L1548:
	movl	$-1, %eax
	lock xaddl	%eax, (%rcx)
	jmp	.L1549
.L1635:
	movq	%rbp, %rdi
	call	_ZNSt16_Sp_counted_baseILN9__gnu_cxx12_Lock_policyE2EE24_M_release_last_use_coldEv@PLT
	jmp	.L1546
.L1637:
	movq	%rbp, %rdi
	call	_ZNSt16_Sp_counted_baseILN9__gnu_cxx12_Lock_policyE2EE24_M_release_last_use_coldEv@PLT
	jmp	.L1552
	.cfi_endproc
.LFE11851:
	.size	_ZThn8_N8asiodnp318MasterSessionStackD0Ev, .-_ZThn8_N8asiodnp318MasterSessionStackD0Ev
	.section	.text._ZN8asiodnp318MasterSessionStackD2Ev,"axG",@progbits,_ZN8asiodnp318MasterSessionStackD5Ev,comdat
	.p2align 4
	.weak	_ZThn8_N8asiodnp318MasterSessionStackD1Ev
	.type	_ZThn8_N8asiodnp318MasterSessionStackD1Ev, @function
_ZThn8_N8asiodnp318MasterSessionStackD1Ev:
.LFB11856:
	.cfi_startproc
	movq	_ZTVN8asiodnp318MasterSessionStackE@GOTPCREL(%rip), %rax
	pushq	%r14
	.cfi_def_cfa_offset 16
	.cfi_offset 14, -16
	pushq	%r13
	.cfi_def_cfa_offset 24
	.cfi_offset 13, -24
	leaq	184(%rax), %rdx
	addq	$16, %rax
	pushq	%r12
	.cfi_def_cfa_offset 32
	.cfi_offset 12, -32
	movq	%rax, %xmm0
	movq	_ZTVN8opendnp38MContextE@GOTPCREL(%rip), %rax
	movq	%rdx, %xmm1
	pushq	%rbp
	.cfi_def_cfa_offset 40
	.cfi_offset 6, -40
	punpcklqdq	%xmm1, %xmm0
	pushq	%rbx
	.cfi_def_cfa_offset 48
	.cfi_offset 3, -48
	movq	%rdi, %rbx
	leaq	128(%rax), %rdx
	leaq	16(%rax), %rcx
	movups	%xmm0, -8(%rdi)
	addq	$152, %rax
	movq	%rcx, %xmm0
	movq	%rdx, %xmm2
	movq	%rax, 104(%rdi)
	punpcklqdq	%xmm2, %xmm0
	movups	%xmm0, 88(%rdi)
	movq	592(%rdi), %rdi
	testq	%rdi, %rdi
	je	.L1640
	call	_ZdaPv@PLT
.L1640:
	movq	496(%rbx), %rdi
	testq	%rdi, %rdi
	je	.L1641
	movq	568(%rbx), %rax
	movq	536(%rbx), %rbp
	leaq	8(%rax), %r12
	cmpq	%r12, %rbp
	jnb	.L1642
	.p2align 4
	.p2align 3
.L1643:
	movq	0(%rbp), %rdi
	movl	$510, %esi
	addq	$8, %rbp
	call	_ZdlPvm@PLT
	cmpq	%r12, %rbp
	jb	.L1643
	movq	496(%rbx), %rdi
.L1642:
	movq	504(%rbx), %rax
	leaq	0(,%rax,8), %rsi
	call	_ZdlPvm@PLT
.L1641:
	movq	480(%rbx), %r13
	movq	472(%rbx), %rbp
	cmpq	%rbp, %r13
	je	.L1644
	movabsq	$4294967297, %r14
	jmp	.L1651
	.p2align 4,,10
	.p2align 3
.L1764:
	movl	8(%r12), %eax
	leal	-1(%rax), %edx
	movl	%edx, 8(%r12)
	cmpl	$1, %eax
	je	.L1761
.L1646:
	addq	$16, %rbp
	cmpq	%rbp, %r13
	je	.L1762
.L1651:
	movq	8(%rbp), %r12
	testq	%r12, %r12
	je	.L1646
	movq	8(%r12), %rax
	leaq	8(%r12), %rdx
	cmpq	%r14, %rax
	je	.L1763
	movq	__libc_single_threaded@GOTPCREL(%rip), %rax
	cmpb	$0, (%rax)
	jne	.L1764
	movl	$-1, %eax
	lock xaddl	%eax, (%rdx)
	cmpl	$1, %eax
	jne	.L1646
.L1761:
	movq	%r12, %rdi
	addq	$16, %rbp
	call	_ZNSt16_Sp_counted_baseILN9__gnu_cxx12_Lock_policyE2EE24_M_release_last_use_coldEv@PLT
	cmpq	%rbp, %r13
	jne	.L1651
	.p2align 4
	.p2align 3
.L1762:
	movq	472(%rbx), %rbp
.L1644:
	testq	%rbp, %rbp
	je	.L1652
	movq	488(%rbx), %rsi
	movq	%rbp, %rdi
	subq	%rbp, %rsi
	call	_ZdlPvm@PLT
.L1652:
	movq	448(%rbx), %r13
	movq	440(%rbx), %rbp
	cmpq	%rbp, %r13
	je	.L1653
	movabsq	$4294967297, %r14
	jmp	.L1660
	.p2align 4,,10
	.p2align 3
.L1768:
	movl	8(%r12), %eax
	leal	-1(%rax), %edx
	movl	%edx, 8(%r12)
	cmpl	$1, %eax
	je	.L1765
.L1655:
	addq	$16, %rbp
	cmpq	%rbp, %r13
	je	.L1766
.L1660:
	movq	8(%rbp), %r12
	testq	%r12, %r12
	je	.L1655
	movq	8(%r12), %rax
	leaq	8(%r12), %rdx
	cmpq	%r14, %rax
	je	.L1767
	movq	__libc_single_threaded@GOTPCREL(%rip), %rax
	cmpb	$0, (%rax)
	jne	.L1768
	movl	$-1, %eax
	lock xaddl	%eax, (%rdx)
	cmpl	$1, %eax
	jne	.L1655
.L1765:
	movq	%r12, %rdi
	addq	$16, %rbp
	call	_ZNSt16_Sp_counted_baseILN9__gnu_cxx12_Lock_policyE2EE24_M_release_last_use_coldEv@PLT
	cmpq	%rbp, %r13
	jne	.L1660
	.p2align 4
	.p2align 3
.L1766:
	movq	440(%rbx), %rbp
.L1653:
	testq	%rbp, %rbp
	je	.L1661
	movq	456(%rbx), %rsi
	movq	%rbp, %rdi
	subq	%rbp, %rsi
	call	_ZdlPvm@PLT
.L1661:
	movq	432(%rbx), %rdi
	testq	%rdi, %rdi
	je	.L1662
	call	_ZNSt16_Sp_counted_baseILN9__gnu_cxx12_Lock_policyE2EE10_M_releaseEv@PLT
.L1662:
	movq	416(%rbx), %rdi
	testq	%rdi, %rdi
	je	.L1663
	call	_ZNSt16_Sp_counted_baseILN9__gnu_cxx12_Lock_policyE2EE10_M_releaseEv@PLT
.L1663:
	movq	400(%rbx), %rdi
	testq	%rdi, %rdi
	je	.L1664
	call	_ZNSt16_Sp_counted_baseILN9__gnu_cxx12_Lock_policyE2EE10_M_releaseEv@PLT
.L1664:
	movq	384(%rbx), %rdi
	testq	%rdi, %rdi
	je	.L1665
	call	_ZNSt16_Sp_counted_baseILN9__gnu_cxx12_Lock_policyE2EE10_M_releaseEv@PLT
.L1665:
	movq	368(%rbx), %rdi
	testq	%rdi, %rdi
	je	.L1666
	call	_ZNSt16_Sp_counted_baseILN9__gnu_cxx12_Lock_policyE2EE10_M_releaseEv@PLT
.L1666:
	movq	352(%rbx), %rdi
	testq	%rdi, %rdi
	je	.L1667
	call	_ZNSt16_Sp_counted_baseILN9__gnu_cxx12_Lock_policyE2EE10_M_releaseEv@PLT
.L1667:
	movq	336(%rbx), %rdi
	testq	%rdi, %rdi
	je	.L1668
	call	_ZNSt16_Sp_counted_baseILN9__gnu_cxx12_Lock_policyE2EE10_M_releaseEv@PLT
.L1668:
	leaq	312(%rbx), %rdi
	call	_ZN7openpal8TimerRefD1Ev@PLT
	leaq	296(%rbx), %rdi
	call	_ZN7openpal8TimerRefD1Ev@PLT
	leaq	280(%rbx), %rdi
	call	_ZN7openpal8TimerRefD1Ev@PLT
	movq	272(%rbx), %rdi
	testq	%rdi, %rdi
	je	.L1669
	call	_ZNSt16_Sp_counted_baseILN9__gnu_cxx12_Lock_policyE2EE10_M_releaseEv@PLT
.L1669:
	movq	240(%rbx), %rdi
	testq	%rdi, %rdi
	je	.L1670
	call	_ZNSt16_Sp_counted_baseILN9__gnu_cxx12_Lock_policyE2EE10_M_releaseEv@PLT
.L1670:
	movq	224(%rbx), %rdi
	testq	%rdi, %rdi
	je	.L1671
	call	_ZNSt16_Sp_counted_baseILN9__gnu_cxx12_Lock_policyE2EE10_M_releaseEv@PLT
.L1671:
	movq	168(%rbx), %rdi
	testq	%rdi, %rdi
	je	.L1672
	call	_ZNSt16_Sp_counted_baseILN9__gnu_cxx12_Lock_policyE2EE10_M_releaseEv@PLT
.L1672:
	movq	152(%rbx), %rdi
	testq	%rdi, %rdi
	je	.L1673
	call	_ZNSt16_Sp_counted_baseILN9__gnu_cxx12_Lock_policyE2EE10_M_releaseEv@PLT
.L1673:
	movq	136(%rbx), %rdi
	testq	%rdi, %rdi
	je	.L1674
	call	_ZNSt16_Sp_counted_baseILN9__gnu_cxx12_Lock_policyE2EE10_M_releaseEv@PLT
.L1674:
	movq	120(%rbx), %rdi
	testq	%rdi, %rdi
	je	.L1675
	call	_ZNSt16_Sp_counted_baseILN9__gnu_cxx12_Lock_policyE2EE10_M_releaseEv@PLT
.L1675:
	movq	80(%rbx), %rbp
	testq	%rbp, %rbp
	je	.L1677
	movq	8(%rbp), %rdx
	leaq	8(%rbp), %rcx
	movabsq	$4294967297, %rax
	cmpq	%rax, %rdx
	je	.L1769
	movq	__libc_single_threaded@GOTPCREL(%rip), %rax
	cmpb	$0, (%rax)
	je	.L1679
	movl	8(%rbp), %eax
	leal	-1(%rax), %edx
	movl	%edx, 8(%rbp)
.L1680:
	cmpl	$1, %eax
	je	.L1770
.L1677:
	movq	64(%rbx), %rdi
	testq	%rdi, %rdi
	je	.L1682
	call	_ZNSt16_Sp_counted_baseILN9__gnu_cxx12_Lock_policyE2EE10_M_releaseEv@PLT
.L1682:
	movq	48(%rbx), %rbp
	testq	%rbp, %rbp
	je	.L1684
	movq	8(%rbp), %rdx
	leaq	8(%rbp), %rcx
	movabsq	$4294967297, %rax
	cmpq	%rax, %rdx
	je	.L1771
	movq	__libc_single_threaded@GOTPCREL(%rip), %rax
	cmpb	$0, (%rax)
	je	.L1686
	movl	8(%rbp), %eax
	leal	-1(%rax), %edx
	movl	%edx, 8(%rbp)
.L1687:
	cmpl	$1, %eax
	je	.L1772
.L1684:
	movq	32(%rbx), %rbp
	testq	%rbp, %rbp
	je	.L1690
	movq	8(%rbp), %rdx
	leaq	8(%rbp), %rcx
	movabsq	$4294967297, %rax
	cmpq	%rax, %rdx
	je	.L1773
	movq	__libc_single_threaded@GOTPCREL(%rip), %rax
	cmpb	$0, (%rax)
	je	.L1692
	movl	8(%rbp), %eax
	leal	-1(%rax), %edx
	movl	%edx, 8(%rbp)
.L1693:
	cmpl	$1, %eax
	je	.L1774
.L1690:
	movq	16(%rbx), %rdi
	testq	%rdi, %rdi
	je	.L1639
	movq	__libc_single_threaded@GOTPCREL(%rip), %rax
	cmpb	$0, (%rax)
	je	.L1697
	movl	12(%rdi), %eax
	leal	-1(%rax), %edx
	movl	%edx, 12(%rdi)
.L1698:
	cmpl	$1, %eax
	je	.L1775
.L1639:
	popq	%rbx
	.cfi_remember_state
	.cfi_def_cfa_offset 40
	popq	%rbp
	.cfi_def_cfa_offset 32
	popq	%r12
	.cfi_def_cfa_offset 24
	popq	%r13
	.cfi_def_cfa_offset 16
	popq	%r14
	.cfi_def_cfa_offset 8
	ret
	.p2align 4,,10
	.p2align 3
.L1763:
	.cfi_restore_state
	movq	$0, 8(%r12)
	movq	(%r12), %rax
	movq	%r12, %rdi
	call	*16(%rax)
	movq	(%r12), %rax
	movq	%r12, %rdi
	call	*24(%rax)
	jmp	.L1646
	.p2align 4,,10
	.p2align 3
.L1767:
	movq	$0, 8(%r12)
	movq	(%r12), %rax
	movq	%r12, %rdi
	call	*16(%rax)
	movq	(%r12), %rax
	movq	%r12, %rdi
	call	*24(%rax)
	jmp	.L1655
	.p2align 4,,10
	.p2align 3
.L1775:
	movq	(%rdi), %rax
	popq	%rbx
	.cfi_remember_state
	.cfi_def_cfa_offset 40
	popq	%rbp
	.cfi_def_cfa_offset 32
	popq	%r12
	.cfi_def_cfa_offset 24
	movq	24(%rax), %rax
	popq	%r13
	.cfi_def_cfa_offset 16
	popq	%r14
	.cfi_def_cfa_offset 8
	jmp	*%rax
	.p2align 4,,10
	.p2align 3
.L1697:
	.cfi_restore_state
	movl	$-1, %eax
	lock xaddl	%eax, 12(%rdi)
	jmp	.L1698
	.p2align 4,,10
	.p2align 3
.L1769:
	movq	0(%rbp), %rax
	movq	%rbp, %rdi
	movq	$0, 8(%rbp)
	call	*16(%rax)
	movq	0(%rbp), %rax
	movq	%rbp, %rdi
	call	*24(%rax)
	jmp	.L1677
	.p2align 4,,10
	.p2align 3
.L1771:
	movq	0(%rbp), %rax
	movq	%rbp, %rdi
	movq	$0, 8(%rbp)
	call	*16(%rax)
	movq	0(%rbp), %rax
	movq	%rbp, %rdi
	call	*24(%rax)
	jmp	.L1684
	.p2align 4,,10
	.p2align 3
.L1773:
	movq	0(%rbp), %rax
	movq	%rbp, %rdi
	movq	$0, 8(%rbp)
	call	*16(%rax)
	movq	0(%rbp), %rax
	movq	%rbp, %rdi
	call	*24(%rax)
	jmp	.L1690
	.p2align 4,,10
	.p2align 3
.L1692:
	movl	$-1, %eax
	lock xaddl	%eax, (%rcx)
	jmp	.L1693
	.p2align 4,,10
	.p2align 3
.L1679:
	movl	$-1, %eax
	lock xaddl	%eax, (%rcx)
	jmp	.L1680
	.p2align 4,,10
	.p2align 3
.L1686:
	movl	$-1, %eax
	lock xaddl	%eax, (%rcx)
	jmp	.L1687
.L1770:
	movq	%rbp, %rdi
	call	_ZNSt16_Sp_counted_baseILN9__gnu_cxx12_Lock_policyE2EE24_M_release_last_use_coldEv@PLT
	jmp	.L1677
.L1774:
	movq	%rbp, %rdi
	call	_ZNSt16_Sp_counted_baseILN9__gnu_cxx12_Lock_policyE2EE24_M_release_last_use_coldEv@PLT
	jmp	.L1690
.L1772:
	movq	%rbp, %rdi
	call	_ZNSt16_Sp_counted_baseILN9__gnu_cxx12_Lock_policyE2EE24_M_release_last_use_coldEv@PLT
	jmp	.L1684
	.cfi_endproc
.LFE11856:
	.size	_ZThn8_N8asiodnp318MasterSessionStackD1Ev, .-_ZThn8_N8asiodnp318MasterSessionStackD1Ev
	.section	.text.unlikely
	.align 2
	.type	_ZZN8asiodnp318MasterSessionStack16SelectAndOperateEON8opendnp310CommandSetERKSt8functionIFvRKNS1_18ICommandTaskResultEEERKNS1_10TaskConfigEENUlvE_D2Ev, @function
_ZZN8asiodnp318MasterSessionStack16SelectAndOperateEON8opendnp310CommandSetERKSt8functionIFvRKNS1_18ICommandTaskResultEEERKNS1_10TaskConfigEENUlvE_D2Ev:
.LFB8193:
	.cfi_startproc
	.cfi_personality 0x9b,DW.ref.__gxx_personality_v0
	.cfi_lsda 0x1b,.LLSDA8193
	pushq	%rbp
	.cfi_def_cfa_offset 16
	.cfi_offset 6, -16
	movq	%rdi, %rbp
	pushq	%rbx
	.cfi_def_cfa_offset 24
	.cfi_offset 3, -24
	pushq	%r8
	.cfi_def_cfa_offset 32
	movq	64(%rdi), %rax
	testq	%rax, %rax
	je	.L1777
	leaq	48(%rdi), %rdi
	movl	$3, %edx
	movq	%rdi, %rsi
	call	*%rax
.L1777:
	movq	24(%rbp), %rbx
	testq	%rbx, %rbx
	je	.L1779
	movq	8(%rbx), %rcx
	leaq	8(%rbx), %rdx
	movabsq	$4294967297, %rax
	cmpq	%rax, %rcx
	jne	.L1780
	movq	(%rbx), %rax
	xorl	%edi, %edi
	movq	%rdi, 8(%rbx)
	movq	%rbx, %rdi
	call	*16(%rax)
	movq	(%rbx), %rax
	movq	%rbx, %rdi
	call	*24(%rax)
	jmp	.L1779
.L1780:
	movq	__libc_single_threaded@GOTPCREL(%rip), %rax
	cmpb	$0, (%rax)
	je	.L1781
	movl	8(%rbx), %eax
	leal	-1(%rax), %edx
	movl	%edx, 8(%rbx)
	jmp	.L1782
.L1781:
	movl	$-1, %eax
	lock xaddl	%eax, (%rdx)
.L1782:
	decl	%eax
	jne	.L1779
	movq	%rbx, %rdi
	call	_ZNSt16_Sp_counted_baseILN9__gnu_cxx12_Lock_policyE2EE24_M_release_last_use_coldEv@PLT
.L1779:
	movq	8(%rbp), %rbx
	testq	%rbx, %rbx
	je	.L1776
	movq	8(%rbx), %rcx
	leaq	8(%rbx), %rdx
	movabsq	$4294967297, %rax
	cmpq	%rax, %rcx
	jne	.L1786
	movq	(%rbx), %rax
	xorl	%ecx, %ecx
	movq	%rbx, %rdi
	movq	%rcx, 8(%rbx)
	call	*16(%rax)
	movq	(%rbx), %rax
	movq	%rbx, %rdi
	movq	24(%rax), %rax
	popq	%rsi
	.cfi_remember_state
	.cfi_def_cfa_offset 24
	popq	%rbx
	.cfi_def_cfa_offset 16
	popq	%rbp
	.cfi_def_cfa_offset 8
.LEHB57:
	jmp	*%rax
.L1786:
	.cfi_restore_state
	movq	__libc_single_threaded@GOTPCREL(%rip), %rax
	cmpb	$0, (%rax)
	je	.L1787
	movl	8(%rbx), %eax
	leal	-1(%rax), %edx
	movl	%edx, 8(%rbx)
	jmp	.L1788
.L1787:
	movl	$-1, %eax
	lock xaddl	%eax, (%rdx)
.L1788:
	decl	%eax
	jne	.L1776
	popq	%rdx
	.cfi_remember_state
	.cfi_def_cfa_offset 24
	movq	%rbx, %rdi
	popq	%rbx
	.cfi_def_cfa_offset 16
	popq	%rbp
	.cfi_def_cfa_offset 8
	jmp	_ZNSt16_Sp_counted_baseILN9__gnu_cxx12_Lock_policyE2EE24_M_release_last_use_coldEv@PLT
.LEHE57:
.L1776:
	.cfi_restore_state
	popq	%rax
	.cfi_def_cfa_offset 24
	popq	%rbx
	.cfi_def_cfa_offset 16
	popq	%rbp
	.cfi_def_cfa_offset 8
	ret
	.cfi_endproc
.LFE8193:
	.section	.gcc_except_table
.LLSDA8193:
	.byte	0xff
	.byte	0xff
	.byte	0x1
	.uleb128 .LLSDACSE8193-.LLSDACSB8193
.LLSDACSB8193:
	.uleb128 .LEHB57-.LFB8193
	.uleb128 .LEHE57-.LEHB57
	.uleb128 0
	.uleb128 0
.LLSDACSE8193:
	.section	.text.unlikely
	.size	_ZZN8asiodnp318MasterSessionStack16SelectAndOperateEON8opendnp310CommandSetERKSt8functionIFvRKNS1_18ICommandTaskResultEEERKNS1_10TaskConfigEENUlvE_D2Ev, .-_ZZN8asiodnp318MasterSessionStack16SelectAndOperateEON8opendnp310CommandSetERKSt8functionIFvRKNS1_18ICommandTaskResultEEERKNS1_10TaskConfigEENUlvE_D2Ev
	.set	_ZZN8asiodnp318MasterSessionStack16SelectAndOperateEON8opendnp310CommandSetERKSt8functionIFvRKNS1_18ICommandTaskResultEEERKNS1_10TaskConfigEENUlvE_D1Ev,_ZZN8asiodnp318MasterSessionStack16SelectAndOperateEON8opendnp310CommandSetERKSt8functionIFvRKNS1_18ICommandTaskResultEEERKNS1_10TaskConfigEENUlvE_D2Ev
	.align 2
	.type	_ZZN8asiodnp318MasterSessionStack13DirectOperateEON8opendnp310CommandSetERKSt8functionIFvRKNS1_18ICommandTaskResultEEERKNS1_10TaskConfigEENUlvE_D2Ev, @function
_ZZN8asiodnp318MasterSessionStack13DirectOperateEON8opendnp310CommandSetERKSt8functionIFvRKNS1_18ICommandTaskResultEEERKNS1_10TaskConfigEENUlvE_D2Ev:
.LFB8201:
	.cfi_startproc
	.cfi_personality 0x9b,DW.ref.__gxx_personality_v0
	.cfi_lsda 0x1b,.LLSDA8201
	pushq	%rbp
	.cfi_def_cfa_offset 16
	.cfi_offset 6, -16
	movq	%rdi, %rbp
	pushq	%rbx
	.cfi_def_cfa_offset 24
	.cfi_offset 3, -24
	pushq	%r8
	.cfi_def_cfa_offset 32
	movq	64(%rdi), %rax
	testq	%rax, %rax
	je	.L1795
	leaq	48(%rdi), %rdi
	movl	$3, %edx
	movq	%rdi, %rsi
	call	*%rax
.L1795:
	movq	24(%rbp), %rbx
	testq	%rbx, %rbx
	je	.L1797
	movq	8(%rbx), %rcx
	leaq	8(%rbx), %rdx
	movabsq	$4294967297, %rax
	cmpq	%rax, %rcx
	jne	.L1798
	movq	(%rbx), %rax
	xorl	%edi, %edi
	movq	%rdi, 8(%rbx)
	movq	%rbx, %rdi
	call	*16(%rax)
	movq	(%rbx), %rax
	movq	%rbx, %rdi
	call	*24(%rax)
	jmp	.L1797
.L1798:
	movq	__libc_single_threaded@GOTPCREL(%rip), %rax
	cmpb	$0, (%rax)
	je	.L1799
	movl	8(%rbx), %eax
	leal	-1(%rax), %edx
	movl	%edx, 8(%rbx)
	jmp	.L1800
.L1799:
	movl	$-1, %eax
	lock xaddl	%eax, (%rdx)
.L1800:
	decl	%eax
	jne	.L1797
	movq	%rbx, %rdi
	call	_ZNSt16_Sp_counted_baseILN9__gnu_cxx12_Lock_policyE2EE24_M_release_last_use_coldEv@PLT
.L1797:
	movq	8(%rbp), %rbx
	testq	%rbx, %rbx
	je	.L1794
	movq	8(%rbx), %rcx
	leaq	8(%rbx), %rdx
	movabsq	$4294967297, %rax
	cmpq	%rax, %rcx
	jne	.L1804
	movq	(%rbx), %rax
	xorl	%ecx, %ecx
	movq	%rbx, %rdi
	movq	%rcx, 8(%rbx)
	call	*16(%rax)
	movq	(%rbx), %rax
	movq	%rbx, %rdi
	movq	24(%rax), %rax
	popq	%rsi
	.cfi_remember_state
	.cfi_def_cfa_offset 24
	popq	%rbx
	.cfi_def_cfa_offset 16
	popq	%rbp
	.cfi_def_cfa_offset 8
.LEHB58:
	jmp	*%rax
.L1804:
	.cfi_restore_state
	movq	__libc_single_threaded@GOTPCREL(%rip), %rax
	cmpb	$0, (%rax)
	je	.L1805
	movl	8(%rbx), %eax
	leal	-1(%rax), %edx
	movl	%edx, 8(%rbx)
	jmp	.L1806
.L1805:
	movl	$-1, %eax
	lock xaddl	%eax, (%rdx)
.L1806:
	decl	%eax
	jne	.L1794
	popq	%rdx
	.cfi_remember_state
	.cfi_def_cfa_offset 24
	movq	%rbx, %rdi
	popq	%rbx
	.cfi_def_cfa_offset 16
	popq	%rbp
	.cfi_def_cfa_offset 8
	jmp	_ZNSt16_Sp_counted_baseILN9__gnu_cxx12_Lock_policyE2EE24_M_release_last_use_coldEv@PLT
.LEHE58:
.L1794:
	.cfi_restore_state
	popq	%rax
	.cfi_def_cfa_offset 24
	popq	%rbx
	.cfi_def_cfa_offset 16
	popq	%rbp
	.cfi_def_cfa_offset 8
	ret
	.cfi_endproc
.LFE8201:
	.section	.gcc_except_table
.LLSDA8201:
	.byte	0xff
	.byte	0xff
	.byte	0x1
	.uleb128 .LLSDACSE8201-.LLSDACSB8201
.LLSDACSB8201:
	.uleb128 .LEHB58-.LFB8201
	.uleb128 .LEHE58-.LEHB58
	.uleb128 0
	.uleb128 0
.LLSDACSE8201:
	.section	.text.unlikely
	.size	_ZZN8asiodnp318MasterSessionStack13DirectOperateEON8opendnp310CommandSetERKSt8functionIFvRKNS1_18ICommandTaskResultEEERKNS1_10TaskConfigEENUlvE_D2Ev, .-_ZZN8asiodnp318MasterSessionStack13DirectOperateEON8opendnp310CommandSetERKSt8functionIFvRKNS1_18ICommandTaskResultEEERKNS1_10TaskConfigEENUlvE_D2Ev
	.set	_ZZN8asiodnp318MasterSessionStack13DirectOperateEON8opendnp310CommandSetERKSt8functionIFvRKNS1_18ICommandTaskResultEEERKNS1_10TaskConfigEENUlvE_D1Ev,_ZZN8asiodnp318MasterSessionStack13DirectOperateEON8opendnp310CommandSetERKSt8functionIFvRKNS1_18ICommandTaskResultEEERKNS1_10TaskConfigEENUlvE_D2Ev
	.section	.text._ZNSt13__future_base7_ResultISt10shared_ptrIN8opendnp311IMasterTaskEEED2Ev,"axG",@progbits,_ZNSt13__future_base7_ResultISt10shared_ptrIN8opendnp311IMasterTaskEEED5Ev,comdat
	.align 2
	.p2align 4
	.weak	_ZNSt13__future_base7_ResultISt10shared_ptrIN8opendnp311IMasterTaskEEED2Ev
	.type	_ZNSt13__future_base7_ResultISt10shared_ptrIN8opendnp311IMasterTaskEEED2Ev, @function
_ZNSt13__future_base7_ResultISt10shared_ptrIN8opendnp311IMasterTaskEEED2Ev:
.LFB11744:
	.cfi_startproc
	movq	_ZTVNSt13__future_base7_ResultISt10shared_ptrIN8opendnp311IMasterTaskEEEE@GOTPCREL(%rip), %rdx
	movq	%rdi, %rax
	addq	$16, %rdx
	movq	%rdx, (%rdi)
	cmpb	$0, 32(%rdi)
	je	.L1821
	movq	24(%rdi), %rdi
	testq	%rdi, %rdi
	je	.L1821
	subq	$24, %rsp
	.cfi_def_cfa_offset 32
	movq	8(%rdi), %rcx
	leaq	8(%rdi), %rsi
	movabsq	$4294967297, %rdx
	cmpq	%rdx, %rcx
	je	.L1824
	movq	__libc_single_threaded@GOTPCREL(%rip), %rdx
	cmpb	$0, (%rdx)
	je	.L1817
	movl	8(%rdi), %edx
	leal	-1(%rdx), %ecx
	movl	%ecx, 8(%rdi)
.L1818:
	cmpl	$1, %edx
	je	.L1825
.L1813:
	movq	%rax, %rdi
	addq	$24, %rsp
	.cfi_def_cfa_offset 8
	jmp	_ZNSt13__future_base12_Result_baseD2Ev@PLT
	.p2align 4,,10
	.p2align 3
.L1821:
	movq	%rax, %rdi
	jmp	_ZNSt13__future_base12_Result_baseD2Ev@PLT
	.p2align 4,,10
	.p2align 3
.L1817:
	.cfi_def_cfa_offset 32
	movl	$-1, %edx
	lock xaddl	%edx, (%rsi)
	jmp	.L1818
	.p2align 4,,10
	.p2align 3
.L1824:
	movq	(%rdi), %rdx
	movq	%rax, 8(%rsp)
	movq	$0, 8(%rdi)
	movq	%rdi, (%rsp)
	call	*16(%rdx)
	movq	(%rsp), %rdi
	movq	(%rdi), %rdx
	call	*24(%rdx)
	movq	8(%rsp), %rax
	jmp	.L1813
	.p2align 4,,10
	.p2align 3
.L1825:
	movq	%rax, (%rsp)
	call	_ZNSt16_Sp_counted_baseILN9__gnu_cxx12_Lock_policyE2EE24_M_release_last_use_coldEv@PLT
	movq	(%rsp), %rax
	jmp	.L1813
	.cfi_endproc
.LFE11744:
	.size	_ZNSt13__future_base7_ResultISt10shared_ptrIN8opendnp311IMasterTaskEEED2Ev, .-_ZNSt13__future_base7_ResultISt10shared_ptrIN8opendnp311IMasterTaskEEED2Ev
	.weak	_ZNSt13__future_base7_ResultISt10shared_ptrIN8opendnp311IMasterTaskEEED1Ev
	.set	_ZNSt13__future_base7_ResultISt10shared_ptrIN8opendnp311IMasterTaskEEED1Ev,_ZNSt13__future_base7_ResultISt10shared_ptrIN8opendnp311IMasterTaskEEED2Ev
	.section	.text._ZNSt13__future_base7_ResultISt10shared_ptrIN8opendnp311IMasterTaskEEED0Ev,"axG",@progbits,_ZNSt13__future_base7_ResultISt10shared_ptrIN8opendnp311IMasterTaskEEED5Ev,comdat
	.align 2
	.p2align 4
	.weak	_ZNSt13__future_base7_ResultISt10shared_ptrIN8opendnp311IMasterTaskEEED0Ev
	.type	_ZNSt13__future_base7_ResultISt10shared_ptrIN8opendnp311IMasterTaskEEED0Ev, @function
_ZNSt13__future_base7_ResultISt10shared_ptrIN8opendnp311IMasterTaskEEED0Ev:
.LFB11746:
	.cfi_startproc
	pushq	%rbx
	.cfi_def_cfa_offset 16
	.cfi_offset 3, -16
	movq	%rdi, %rbx
	subq	$16, %rsp
	.cfi_def_cfa_offset 32
	movq	_ZTVNSt13__future_base7_ResultISt10shared_ptrIN8opendnp311IMasterTaskEEEE@GOTPCREL(%rip), %rax
	addq	$16, %rax
	movq	%rax, (%rdi)
	cmpb	$0, 32(%rdi)
	je	.L1827
	movq	24(%rdi), %rdi
	testq	%rdi, %rdi
	je	.L1827
	movq	8(%rdi), %rdx
	leaq	8(%rdi), %rcx
	movabsq	$4294967297, %rax
	cmpq	%rax, %rdx
	je	.L1835
	movq	__libc_single_threaded@GOTPCREL(%rip), %rax
	cmpb	$0, (%rax)
	je	.L1831
	movl	8(%rdi), %eax
	leal	-1(%rax), %edx
	movl	%edx, 8(%rdi)
.L1832:
	cmpl	$1, %eax
	je	.L1836
.L1827:
	movq	%rbx, %rdi
	call	_ZNSt13__future_base12_Result_baseD2Ev@PLT
	addq	$16, %rsp
	.cfi_remember_state
	.cfi_def_cfa_offset 16
	movq	%rbx, %rdi
	movl	$40, %esi
	popq	%rbx
	.cfi_def_cfa_offset 8
	jmp	_ZdlPvm@PLT
	.p2align 4,,10
	.p2align 3
.L1831:
	.cfi_restore_state
	movl	$-1, %eax
	lock xaddl	%eax, (%rcx)
	jmp	.L1832
	.p2align 4,,10
	.p2align 3
.L1835:
	movq	(%rdi), %rax
	movq	%rdi, 8(%rsp)
	movq	$0, 8(%rdi)
	call	*16(%rax)
	movq	8(%rsp), %rdi
	movq	(%rdi), %rax
	call	*24(%rax)
	jmp	.L1827
	.p2align 4,,10
	.p2align 3
.L1836:
	call	_ZNSt16_Sp_counted_baseILN9__gnu_cxx12_Lock_policyE2EE24_M_release_last_use_coldEv@PLT
	jmp	.L1827
	.cfi_endproc
.LFE11746:
	.size	_ZNSt13__future_base7_ResultISt10shared_ptrIN8opendnp311IMasterTaskEEED0Ev, .-_ZNSt13__future_base7_ResultISt10shared_ptrIN8opendnp311IMasterTaskEEED0Ev
	.section	.text.unlikely
.LCOLDB39:
	.text
.LHOTB39:
	.p2align 4
	.type	_ZN4asio6detail18completion_handlerIZN8asiodnp318MasterSessionStack13BeginShutdownEvEUlvE_E11do_completeEPNS0_15task_io_serviceEPNS0_25task_io_service_operationERKSt10error_codem, @function
_ZN4asio6detail18completion_handlerIZN8asiodnp318MasterSessionStack13BeginShutdownEvEUlvE_E11do_completeEPNS0_15task_io_serviceEPNS0_25task_io_service_operationERKSt10error_codem:
.LFB10725:
	.cfi_startproc
	.cfi_personality 0x9b,DW.ref.__gxx_personality_v0
	.cfi_lsda 0x1b,.LLSDA10725
	pushq	%r13
	.cfi_def_cfa_offset 16
	.cfi_offset 13, -16
	pushq	%r12
	.cfi_def_cfa_offset 24
	.cfi_offset 12, -24
	movq	%rdi, %r12
	pushq	%rbp
	.cfi_def_cfa_offset 32
	.cfi_offset 6, -32
	movq	%rsi, %rbp
	pushq	%rbx
	.cfi_def_cfa_offset 40
	.cfi_offset 3, -40
	subq	$8, %rsp
	.cfi_def_cfa_offset 48
	movq	24(%rsi), %r13
	movq	32(%rsi), %rbx
	data16	leaq	_ZN4asio6detail15keyword_tss_ptrINS0_10call_stackINS0_15task_io_serviceENS0_27task_io_service_thread_infoEE7contextEE6value_E@tlsgd(%rip), %rdi
	.value	0x6666
	rex64
	call	__tls_get_addr@PLT
	movq	(%rax), %rax
	testq	%rax, %rax
	je	.L1839
	movq	8(%rax), %rax
	testq	%rax, %rax
	je	.L1839
	cmpq	$0, (%rax)
	je	.L1869
.L1839:
	movq	%rbp, %rdi
	call	_ZdlPv@PLT
.L1840:
	testq	%r12, %r12
	je	.L1870
	movq	%r13, %rdi
.LEHB59:
	call	_ZN8asiodnp311LinkSession8ShutdownEv@PLT
.LEHE59:
	sfence
	testq	%rbx, %rbx
	je	.L1837
.L1847:
	movq	8(%rbx), %rdx
	leaq	8(%rbx), %rcx
	movabsq	$4294967297, %rax
	cmpq	%rax, %rdx
	je	.L1871
	movq	__libc_single_threaded@GOTPCREL(%rip), %rax
	cmpb	$0, (%rax)
	je	.L1849
	movl	8(%rbx), %eax
	leal	-1(%rax), %edx
	movl	%edx, 8(%rbx)
.L1850:
	cmpl	$1, %eax
	je	.L1872
.L1837:
	addq	$8, %rsp
	.cfi_remember_state
	.cfi_def_cfa_offset 40
	popq	%rbx
	.cfi_def_cfa_offset 32
	popq	%rbp
	.cfi_def_cfa_offset 24
	popq	%r12
	.cfi_def_cfa_offset 16
	popq	%r13
	.cfi_def_cfa_offset 8
	ret
	.p2align 4,,10
	.p2align 3
.L1870:
	.cfi_restore_state
	testq	%rbx, %rbx
	jne	.L1847
	jmp	.L1837
	.p2align 4,,10
	.p2align 3
.L1871:
	movq	(%rbx), %rax
	movq	%rbx, %rdi
	movq	$0, 8(%rbx)
	call	*16(%rax)
	movq	(%rbx), %rax
	movq	%rbx, %rdi
	movq	24(%rax), %rax
	addq	$8, %rsp
	.cfi_remember_state
	.cfi_def_cfa_offset 40
	popq	%rbx
	.cfi_def_cfa_offset 32
	popq	%rbp
	.cfi_def_cfa_offset 24
	popq	%r12
	.cfi_def_cfa_offset 16
	popq	%r13
	.cfi_def_cfa_offset 8
.LEHB60:
	jmp	*%rax
	.p2align 4,,10
	.p2align 3
.L1869:
	.cfi_restore_state
	movzbl	40(%rbp), %edx
	movb	%dl, 0(%rbp)
	movq	%rbp, (%rax)
	jmp	.L1840
	.p2align 4,,10
	.p2align 3
.L1849:
	movl	$-1, %eax
	lock xaddl	%eax, (%rcx)
	jmp	.L1850
	.p2align 4,,10
	.p2align 3
.L1872:
	addq	$8, %rsp
	.cfi_remember_state
	.cfi_def_cfa_offset 40
	movq	%rbx, %rdi
	popq	%rbx
	.cfi_def_cfa_offset 32
	popq	%rbp
	.cfi_def_cfa_offset 24
	popq	%r12
	.cfi_def_cfa_offset 16
	popq	%r13
	.cfi_def_cfa_offset 8
	jmp	_ZNSt16_Sp_counted_baseILN9__gnu_cxx12_Lock_policyE2EE24_M_release_last_use_coldEv@PLT
.LEHE60:
.L1854:
	.cfi_restore_state
	movq	%rax, %rbp
	jmp	.L1852
	.section	.gcc_except_table
.LLSDA10725:
	.byte	0xff
	.byte	0xff
	.byte	0x1
	.uleb128 .LLSDACSE10725-.LLSDACSB10725
.LLSDACSB10725:
	.uleb128 .LEHB59-.LFB10725
	.uleb128 .LEHE59-.LEHB59
	.uleb128 .L1854-.LFB10725
	.uleb128 0
	.uleb128 .LEHB60-.LFB10725
	.uleb128 .LEHE60-.LEHB60
	.uleb128 0
	.uleb128 0
.LLSDACSE10725:
	.text
	.cfi_endproc
	.section	.text.unlikely
	.cfi_startproc
	.cfi_personality 0x9b,DW.ref.__gxx_personality_v0
	.cfi_lsda 0x1b,.LLSDAC10725
	.type	_ZN4asio6detail18completion_handlerIZN8asiodnp318MasterSessionStack13BeginShutdownEvEUlvE_E11do_completeEPNS0_15task_io_serviceEPNS0_25task_io_service_operationERKSt10error_codem.cold, @function
_ZN4asio6detail18completion_handlerIZN8asiodnp318MasterSessionStack13BeginShutdownEvEUlvE_E11do_completeEPNS0_15task_io_serviceEPNS0_25task_io_service_operationERKSt10error_codem.cold:
.LFSB10725:
.L1852:
	.cfi_def_cfa_offset 48
	.cfi_offset 3, -40
	.cfi_offset 6, -32
	.cfi_offset 12, -24
	.cfi_offset 13, -16
	sfence
	testq	%rbx, %rbx
	je	.L1853
	movq	%rbx, %rdi
	call	_ZNSt16_Sp_counted_baseILN9__gnu_cxx12_Lock_policyE2EE10_M_releaseEv@PLT
.L1853:
	movq	%rbp, %rdi
.LEHB61:
	call	_Unwind_Resume@PLT
.LEHE61:
	.cfi_endproc
.LFE10725:
	.section	.gcc_except_table
.LLSDAC10725:
	.byte	0xff
	.byte	0xff
	.byte	0x1
	.uleb128 .LLSDACSEC10725-.LLSDACSBC10725
.LLSDACSBC10725:
	.uleb128 .LEHB61-.LCOLDB39
	.uleb128 .LEHE61-.LEHB61
	.uleb128 0
	.uleb128 0
.LLSDACSEC10725:
	.section	.text.unlikely
	.text
	.size	_ZN4asio6detail18completion_handlerIZN8asiodnp318MasterSessionStack13BeginShutdownEvEUlvE_E11do_completeEPNS0_15task_io_serviceEPNS0_25task_io_service_operationERKSt10error_codem, .-_ZN4asio6detail18completion_handlerIZN8asiodnp318MasterSessionStack13BeginShutdownEvEUlvE_E11do_completeEPNS0_15task_io_serviceEPNS0_25task_io_service_operationERKSt10error_codem
	.section	.text.unlikely
	.size	_ZN4asio6detail18completion_handlerIZN8asiodnp318MasterSessionStack13BeginShutdownEvEUlvE_E11do_completeEPNS0_15task_io_serviceEPNS0_25task_io_service_operationERKSt10error_codem.cold, .-_ZN4asio6detail18completion_handlerIZN8asiodnp318MasterSessionStack13BeginShutdownEvEUlvE_E11do_completeEPNS0_15task_io_serviceEPNS0_25task_io_service_operationERKSt10error_codem.cold
.LCOLDE39:
	.text
.LHOTE39:
	.section	.text.unlikely
.LCOLDB40:
	.text
.LHOTB40:
	.p2align 4
	.type	_ZN4asio6detail18completion_handlerIZN8asiodnp318MasterSessionStack14ScanAllObjectsEN8opendnp316GroupVariationIDERKNS4_10TaskConfigEEUlvE_E11do_completeEPNS0_15task_io_serviceEPNS0_25task_io_service_operationERKSt10error_codem, @function
_ZN4asio6detail18completion_handlerIZN8asiodnp318MasterSessionStack14ScanAllObjectsEN8opendnp316GroupVariationIDERKNS4_10TaskConfigEEUlvE_E11do_completeEPNS0_15task_io_serviceEPNS0_25task_io_service_operationERKSt10error_codem:
.LFB10826:
	.cfi_startproc
	.cfi_personality 0x9b,DW.ref.__gxx_personality_v0
	.cfi_lsda 0x1b,.LLSDA10826
	pushq	%r13
	.cfi_def_cfa_offset 16
	.cfi_offset 13, -16
	movq	%rdi, %r13
	pushq	%r12
	.cfi_def_cfa_offset 24
	.cfi_offset 12, -24
	pushq	%rbp
	.cfi_def_cfa_offset 32
	.cfi_offset 6, -32
	pushq	%rbx
	.cfi_def_cfa_offset 40
	.cfi_offset 3, -40
	movq	%rsi, %rbx
	subq	$56, %rsp
	.cfi_def_cfa_offset 96
	movzwl	40(%rsi), %eax
	movdqu	48(%rsi), %xmm0
	movq	24(%rsi), %r12
	movq	32(%rsi), %rbp
	movw	%ax, 16(%rsp)
	movups	%xmm0, 24(%rsp)
	data16	leaq	_ZN4asio6detail15keyword_tss_ptrINS0_10call_stackINS0_15task_io_serviceENS0_27task_io_service_thread_infoEE7contextEE6value_E@tlsgd(%rip), %rdi
	.value	0x6666
	rex64
	call	__tls_get_addr@PLT
	movq	(%rax), %rax
	testq	%rax, %rax
	je	.L1875
	movq	8(%rax), %rax
	testq	%rax, %rax
	je	.L1875
	cmpq	$0, (%rax)
	je	.L1901
.L1875:
	movq	%rbx, %rdi
	call	_ZdlPv@PLT
.L1876:
	testq	%r13, %r13
	je	.L1902
	movq	24(%rsp), %rdx
	movq	32(%rsp), %rcx
	leaq	96(%r12), %rdi
	movzwl	16(%rsp), %esi
.LEHB62:
	call	_ZN8opendnp38MContext14ScanAllObjectsENS_16GroupVariationIDENS_10TaskConfigE@PLT
.LEHE62:
	sfence
	testq	%rbp, %rbp
	je	.L1873
.L1882:
	movq	8(%rbp), %rdx
	leaq	8(%rbp), %rcx
	movabsq	$4294967297, %rax
	cmpq	%rax, %rdx
	je	.L1903
	movq	__libc_single_threaded@GOTPCREL(%rip), %rax
	cmpb	$0, (%rax)
	je	.L1883
	movl	8(%rbp), %eax
	leal	-1(%rax), %edx
	movl	%edx, 8(%rbp)
.L1884:
	cmpl	$1, %eax
	je	.L1904
.L1873:
	addq	$56, %rsp
	.cfi_remember_state
	.cfi_def_cfa_offset 40
	popq	%rbx
	.cfi_def_cfa_offset 32
	popq	%rbp
	.cfi_def_cfa_offset 24
	popq	%r12
	.cfi_def_cfa_offset 16
	popq	%r13
	.cfi_def_cfa_offset 8
	ret
	.p2align 4,,10
	.p2align 3
.L1902:
	.cfi_restore_state
	testq	%rbp, %rbp
	jne	.L1882
	jmp	.L1873
	.p2align 4,,10
	.p2align 3
.L1903:
	movq	0(%rbp), %rax
	movq	%rbp, %rdi
	movq	$0, 8(%rbp)
	call	*16(%rax)
	movq	0(%rbp), %rax
	movq	%rbp, %rdi
	movq	24(%rax), %rax
	addq	$56, %rsp
	.cfi_remember_state
	.cfi_def_cfa_offset 40
	popq	%rbx
	.cfi_def_cfa_offset 32
	popq	%rbp
	.cfi_def_cfa_offset 24
	popq	%r12
	.cfi_def_cfa_offset 16
	popq	%r13
	.cfi_def_cfa_offset 8
.LEHB63:
	jmp	*%rax
	.p2align 4,,10
	.p2align 3
.L1901:
	.cfi_restore_state
	movzbl	64(%rbx), %edx
	movb	%dl, (%rbx)
	movq	%rbx, (%rax)
	jmp	.L1876
	.p2align 4,,10
	.p2align 3
.L1883:
	movl	$-1, %eax
	lock xaddl	%eax, (%rcx)
	jmp	.L1884
	.p2align 4,,10
	.p2align 3
.L1904:
	addq	$56, %rsp
	.cfi_remember_state
	.cfi_def_cfa_offset 40
	movq	%rbp, %rdi
	popq	%rbx
	.cfi_def_cfa_offset 32
	popq	%rbp
	.cfi_def_cfa_offset 24
	popq	%r12
	.cfi_def_cfa_offset 16
	popq	%r13
	.cfi_def_cfa_offset 8
	jmp	_ZNSt16_Sp_counted_baseILN9__gnu_cxx12_Lock_policyE2EE24_M_release_last_use_coldEv@PLT
.LEHE63:
.L1888:
	.cfi_restore_state
	movq	%rax, %rbx
	jmp	.L1886
	.section	.gcc_except_table
.LLSDA10826:
	.byte	0xff
	.byte	0xff
	.byte	0x1
	.uleb128 .LLSDACSE10826-.LLSDACSB10826
.LLSDACSB10826:
	.uleb128 .LEHB62-.LFB10826
	.uleb128 .LEHE62-.LEHB62
	.uleb128 .L1888-.LFB10826
	.uleb128 0
	.uleb128 .LEHB63-.LFB10826
	.uleb128 .LEHE63-.LEHB63
	.uleb128 0
	.uleb128 0
.LLSDACSE10826:
	.text
	.cfi_endproc
	.section	.text.unlikely
	.cfi_startproc
	.cfi_personality 0x9b,DW.ref.__gxx_personality_v0
	.cfi_lsda 0x1b,.LLSDAC10826
	.type	_ZN4asio6detail18completion_handlerIZN8asiodnp318MasterSessionStack14ScanAllObjectsEN8opendnp316GroupVariationIDERKNS4_10TaskConfigEEUlvE_E11do_completeEPNS0_15task_io_serviceEPNS0_25task_io_service_operationERKSt10error_codem.cold, @function
_ZN4asio6detail18completion_handlerIZN8asiodnp318MasterSessionStack14ScanAllObjectsEN8opendnp316GroupVariationIDERKNS4_10TaskConfigEEUlvE_E11do_completeEPNS0_15task_io_serviceEPNS0_25task_io_service_operationERKSt10error_codem.cold:
.LFSB10826:
.L1886:
	.cfi_def_cfa_offset 96
	.cfi_offset 3, -40
	.cfi_offset 6, -32
	.cfi_offset 12, -24
	.cfi_offset 13, -16
	sfence
	testq	%rbp, %rbp
	je	.L1887
	movq	%rbp, %rdi
	call	_ZNSt16_Sp_counted_baseILN9__gnu_cxx12_Lock_policyE2EE10_M_releaseEv@PLT
.L1887:
	movq	%rbx, %rdi
