	.file	"OutstationStack.cpp"
	.text
	.section	.rodata._ZNK4asio6detail15system_category4nameEv.str1.1,"aMS",@progbits,1
.LC0:
	.string	"asio.system"
	.section	.text._ZNK4asio6detail15system_category4nameEv,"axG",@progbits,_ZNK4asio6detail15system_category4nameEv,comdat
	.align 2
	.p2align 4
	.weak	_ZNK4asio6detail15system_category4nameEv
	.type	_ZNK4asio6detail15system_category4nameEv, @function
_ZNK4asio6detail15system_category4nameEv:
.LFB2692:
	.cfi_startproc
	leaq	.LC0(%rip), %rax
	ret
	.cfi_endproc
.LFE2692:
	.size	_ZNK4asio6detail15system_category4nameEv, .-_ZNK4asio6detail15system_category4nameEv
	.section	.rodata._ZNK4asio5error6detail14netdb_category4nameEv.str1.1,"aMS",@progbits,1
.LC1:
	.string	"asio.netdb"
	.section	.text._ZNK4asio5error6detail14netdb_category4nameEv,"axG",@progbits,_ZNK4asio5error6detail14netdb_category4nameEv,comdat
	.align 2
	.p2align 4
	.weak	_ZNK4asio5error6detail14netdb_category4nameEv
	.type	_ZNK4asio5error6detail14netdb_category4nameEv, @function
_ZNK4asio5error6detail14netdb_category4nameEv:
.LFB2736:
	.cfi_startproc
	leaq	.LC1(%rip), %rax
	ret
	.cfi_endproc
.LFE2736:
	.size	_ZNK4asio5error6detail14netdb_category4nameEv, .-_ZNK4asio5error6detail14netdb_category4nameEv
	.section	.rodata._ZNK4asio5error6detail17addrinfo_category4nameEv.str1.1,"aMS",@progbits,1
.LC2:
	.string	"asio.addrinfo"
	.section	.text._ZNK4asio5error6detail17addrinfo_category4nameEv,"axG",@progbits,_ZNK4asio5error6detail17addrinfo_category4nameEv,comdat
	.align 2
	.p2align 4
	.weak	_ZNK4asio5error6detail17addrinfo_category4nameEv
	.type	_ZNK4asio5error6detail17addrinfo_category4nameEv, @function
_ZNK4asio5error6detail17addrinfo_category4nameEv:
.LFB2746:
	.cfi_startproc
	leaq	.LC2(%rip), %rax
	ret
	.cfi_endproc
.LFE2746:
	.size	_ZNK4asio5error6detail17addrinfo_category4nameEv, .-_ZNK4asio5error6detail17addrinfo_category4nameEv
	.section	.rodata._ZNK4asio5error6detail13misc_category4nameEv.str1.1,"aMS",@progbits,1
.LC3:
	.string	"asio.misc"
	.section	.text._ZNK4asio5error6detail13misc_category4nameEv,"axG",@progbits,_ZNK4asio5error6detail13misc_category4nameEv,comdat
	.align 2
	.p2align 4
	.weak	_ZNK4asio5error6detail13misc_category4nameEv
	.type	_ZNK4asio5error6detail13misc_category4nameEv, @function
_ZNK4asio5error6detail13misc_category4nameEv:
.LFB2756:
	.cfi_startproc
	leaq	.LC3(%rip), %rax
	ret
	.cfi_endproc
.LFE2756:
	.size	_ZNK4asio5error6detail13misc_category4nameEv, .-_ZNK4asio5error6detail13misc_category4nameEv
	.section	.text._ZNSt13__future_base13_State_baseV217_M_complete_asyncEv,"axG",@progbits,_ZNSt13__future_base13_State_baseV217_M_complete_asyncEv,comdat
	.align 2
	.p2align 4
	.weak	_ZNSt13__future_base13_State_baseV217_M_complete_asyncEv
	.type	_ZNSt13__future_base13_State_baseV217_M_complete_asyncEv, @function
_ZNSt13__future_base13_State_baseV217_M_complete_asyncEv:
.LFB6813:
	.cfi_startproc
	ret
	.cfi_endproc
.LFE6813:
	.size	_ZNSt13__future_base13_State_baseV217_M_complete_asyncEv, .-_ZNSt13__future_base13_State_baseV217_M_complete_asyncEv
	.section	.text._ZNKSt13__future_base13_State_baseV221_M_is_deferred_futureEv,"axG",@progbits,_ZNKSt13__future_base13_State_baseV221_M_is_deferred_futureEv,comdat
	.align 2
	.p2align 4
	.weak	_ZNKSt13__future_base13_State_baseV221_M_is_deferred_futureEv
	.type	_ZNKSt13__future_base13_State_baseV221_M_is_deferred_futureEv, @function
_ZNKSt13__future_base13_State_baseV221_M_is_deferred_futureEv:
.LFB6814:
	.cfi_startproc
	xorl	%eax, %eax
	ret
	.cfi_endproc
.LFE6814:
	.size	_ZNKSt13__future_base13_State_baseV221_M_is_deferred_futureEv, .-_ZNKSt13__future_base13_State_baseV221_M_is_deferred_futureEv
	.section	.text._ZZNSt9once_flag18_Prepare_executionC4IZSt9call_onceIMNSt13__future_base13_State_baseV2EFvPSt8functionIFSt10unique_ptrINS3_12_Result_baseENS7_8_DeleterEEvEEPbEJPS4_SC_SD_EEvRS_OT_DpOT0_EUlvE_EERSI_ENUlvE_4_FUNEv,"axG",@progbits,_ZZNSt9once_flag18_Prepare_executionC4IZSt9call_onceIMNSt13__future_base13_State_baseV2EFvPSt8functionIFSt10unique_ptrINS3_12_Result_baseENS7_8_DeleterEEvEEPbEJPS4_SC_SD_EEvRS_OT_DpOT0_EUlvE_EERSI_ENUlvE_4_FUNEv,comdat
	.p2align 4
	.weak	_ZZNSt9once_flag18_Prepare_executionC4IZSt9call_onceIMNSt13__future_base13_State_baseV2EFvPSt8functionIFSt10unique_ptrINS3_12_Result_baseENS7_8_DeleterEEvEEPbEJPS4_SC_SD_EEvRS_OT_DpOT0_EUlvE_EERSI_ENUlvE_4_FUNEv
	.type	_ZZNSt9once_flag18_Prepare_executionC4IZSt9call_onceIMNSt13__future_base13_State_baseV2EFvPSt8functionIFSt10unique_ptrINS3_12_Result_baseENS7_8_DeleterEEvEEPbEJPS4_SC_SD_EEvRS_OT_DpOT0_EUlvE_EERSI_ENUlvE_4_FUNEv, @function
_ZZNSt9once_flag18_Prepare_executionC4IZSt9call_onceIMNSt13__future_base13_State_baseV2EFvPSt8functionIFSt10unique_ptrINS3_12_Result_baseENS7_8_DeleterEEvEEPbEJPS4_SC_SD_EEvRS_OT_DpOT0_EUlvE_EERSI_ENUlvE_4_FUNEv:
.LFB10068:
	.cfi_startproc
	subq	$8, %rsp
	.cfi_def_cfa_offset 16
	data16	leaq	_ZSt15__once_callable@tlsgd(%rip), %rdi
	.value	0x6666
	rex64
	call	__tls_get_addr@PLT
	movq	(%rax), %rax
	movq	(%rax), %rdx
	movq	24(%rax), %r8
	movq	16(%rax), %rsi
	movq	8(%rax), %rax
	movq	(%rdx), %rcx
	movq	8(%rdx), %rdi
	addq	(%rax), %rdi
	testb	$1, %cl
	je	.L9
	movq	(%rdi), %rax
	movq	-1(%rax,%rcx), %rcx
.L9:
	movq	(%r8), %rdx
	movq	(%rsi), %rsi
	addq	$8, %rsp
	.cfi_def_cfa_offset 8
	jmp	*%rcx
	.cfi_endproc
.LFE10068:
	.size	_ZZNSt9once_flag18_Prepare_executionC4IZSt9call_onceIMNSt13__future_base13_State_baseV2EFvPSt8functionIFSt10unique_ptrINS3_12_Result_baseENS7_8_DeleterEEvEEPbEJPS4_SC_SD_EEvRS_OT_DpOT0_EUlvE_EERSI_ENUlvE_4_FUNEv, .-_ZZNSt9once_flag18_Prepare_executionC4IZSt9call_onceIMNSt13__future_base13_State_baseV2EFvPSt8functionIFSt10unique_ptrINS3_12_Result_baseENS7_8_DeleterEEvEEPbEJPS4_SC_SD_EEvRS_OT_DpOT0_EUlvE_EERSI_ENUlvE_4_FUNEv
	.section	.text._ZNSt15__exception_ptr12__dest_thunkISt12future_errorEEvPv,"axG",@progbits,_ZNSt15__exception_ptr12__dest_thunkISt12future_errorEEvPv,comdat
	.p2align 4
	.weak	_ZNSt15__exception_ptr12__dest_thunkISt12future_errorEEvPv
	.type	_ZNSt15__exception_ptr12__dest_thunkISt12future_errorEEvPv, @function
_ZNSt15__exception_ptr12__dest_thunkISt12future_errorEEvPv:
.LFB10092:
	.cfi_startproc
	movq	(%rdi), %rax
	jmp	*(%rax)
	.cfi_endproc
.LFE10092:
	.size	_ZNSt15__exception_ptr12__dest_thunkISt12future_errorEEvPv, .-_ZNSt15__exception_ptr12__dest_thunkISt12future_errorEEvPv
	.section	.text._ZNSt17_Function_handlerIFSt10unique_ptrINSt13__future_base12_Result_baseENS2_8_DeleterEEvENS1_13_State_baseV27_SetterIbObEEE9_M_invokeERKSt9_Any_data,"axG",@progbits,_ZNSt17_Function_handlerIFSt10unique_ptrINSt13__future_base12_Result_baseENS2_8_DeleterEEvENS1_13_State_baseV27_SetterIbObEEE9_M_invokeERKSt9_Any_data,comdat
	.p2align 4
	.weak	_ZNSt17_Function_handlerIFSt10unique_ptrINSt13__future_base12_Result_baseENS2_8_DeleterEEvENS1_13_State_baseV27_SetterIbObEEE9_M_invokeERKSt9_Any_data
	.type	_ZNSt17_Function_handlerIFSt10unique_ptrINSt13__future_base12_Result_baseENS2_8_DeleterEEvENS1_13_State_baseV27_SetterIbObEEE9_M_invokeERKSt9_Any_data, @function
_ZNSt17_Function_handlerIFSt10unique_ptrINSt13__future_base12_Result_baseENS2_8_DeleterEEvENS1_13_State_baseV27_SetterIbObEEE9_M_invokeERKSt9_Any_data:
.LFB11087:
	.cfi_startproc
	movq	(%rsi), %rdx
	movq	8(%rsi), %rcx
	movq	16(%rdx), %rax
	movzbl	(%rcx), %ecx
	movb	$1, 17(%rax)
	movb	%cl, 16(%rax)
	movq	$0, 16(%rdx)
	movq	%rax, (%rdi)
	movq	%rdi, %rax
	ret
	.cfi_endproc
.LFE11087:
	.size	_ZNSt17_Function_handlerIFSt10unique_ptrINSt13__future_base12_Result_baseENS2_8_DeleterEEvENS1_13_State_baseV27_SetterIbObEEE9_M_invokeERKSt9_Any_data, .-_ZNSt17_Function_handlerIFSt10unique_ptrINSt13__future_base12_Result_baseENS2_8_DeleterEEvENS1_13_State_baseV27_SetterIbObEEE9_M_invokeERKSt9_Any_data
	.section	.text._ZNSt17_Function_handlerIFSt10unique_ptrINSt13__future_base12_Result_baseENS2_8_DeleterEEvENS1_13_State_baseV27_SetterIN8opendnp315StackStatisticsEOS9_EEE9_M_invokeERKSt9_Any_data,"axG",@progbits,_ZNSt17_Function_handlerIFSt10unique_ptrINSt13__future_base12_Result_baseENS2_8_DeleterEEvENS1_13_State_baseV27_SetterIN8opendnp315StackStatisticsEOS9_EEE9_M_invokeERKSt9_Any_data,comdat
	.p2align 4
	.weak	_ZNSt17_Function_handlerIFSt10unique_ptrINSt13__future_base12_Result_baseENS2_8_DeleterEEvENS1_13_State_baseV27_SetterIN8opendnp315StackStatisticsEOS9_EEE9_M_invokeERKSt9_Any_data
	.type	_ZNSt17_Function_handlerIFSt10unique_ptrINSt13__future_base12_Result_baseENS2_8_DeleterEEvENS1_13_State_baseV27_SetterIN8opendnp315StackStatisticsEOS9_EEE9_M_invokeERKSt9_Any_data, @function
_ZNSt17_Function_handlerIFSt10unique_ptrINSt13__future_base12_Result_baseENS2_8_DeleterEEvENS1_13_State_baseV27_SetterIN8opendnp315StackStatisticsEOS9_EEE9_M_invokeERKSt9_Any_data:
.LFB11150:
	.cfi_startproc
	movq	8(%rsi), %rdx
	movq	(%rsi), %rcx
	movdqu	(%rdx), %xmm0
	movq	16(%rcx), %rax
	movups	%xmm0, 16(%rax)
	movdqu	16(%rdx), %xmm0
	movups	%xmm0, 32(%rax)
	movq	32(%rdx), %rdx
	movb	$1, 56(%rax)
	movq	%rdx, 48(%rax)
	movq	$0, 16(%rcx)
	movq	%rax, (%rdi)
	movq	%rdi, %rax
	ret
	.cfi_endproc
.LFE11150:
	.size	_ZNSt17_Function_handlerIFSt10unique_ptrINSt13__future_base12_Result_baseENS2_8_DeleterEEvENS1_13_State_baseV27_SetterIN8opendnp315StackStatisticsEOS9_EEE9_M_invokeERKSt9_Any_data, .-_ZNSt17_Function_handlerIFSt10unique_ptrINSt13__future_base12_Result_baseENS2_8_DeleterEEvENS1_13_State_baseV27_SetterIN8opendnp315StackStatisticsEOS9_EEE9_M_invokeERKSt9_Any_data
	.section	.text._ZNSt13__future_base13_State_baseV2D2Ev,"axG",@progbits,_ZNSt13__future_base13_State_baseV2D5Ev,comdat
	.align 2
	.p2align 4
	.weak	_ZNSt13__future_base13_State_baseV2D2Ev
	.type	_ZNSt13__future_base13_State_baseV2D2Ev, @function
_ZNSt13__future_base13_State_baseV2D2Ev:
.LFB11887:
	.cfi_startproc
	.cfi_personality 0x9b,DW.ref.__gxx_personality_v0
	.cfi_lsda 0x1b,.LLSDA11887
	movq	_ZTVNSt13__future_base13_State_baseV2E@GOTPCREL(%rip), %rax
	addq	$16, %rax
	movq	%rax, (%rdi)
	movq	8(%rdi), %rdi
	testq	%rdi, %rdi
	je	.L23
	subq	$8, %rsp
	.cfi_def_cfa_offset 16
	movq	(%rdi), %rax
	call	*(%rax)
	addq	$8, %rsp
	.cfi_def_cfa_offset 8
	ret
	.p2align 4,,10
	.p2align 3
.L23:
	ret
	.cfi_endproc
.LFE11887:
	.section	.gcc_except_table._ZNSt13__future_base13_State_baseV2D2Ev,"aG",@progbits,_ZNSt13__future_base13_State_baseV2D5Ev,comdat
.LLSDA11887:
	.byte	0xff
	.byte	0xff
	.byte	0x1
	.uleb128 .LLSDACSE11887-.LLSDACSB11887
.LLSDACSB11887:
.LLSDACSE11887:
	.section	.text._ZNSt13__future_base13_State_baseV2D2Ev,"axG",@progbits,_ZNSt13__future_base13_State_baseV2D5Ev,comdat
	.size	_ZNSt13__future_base13_State_baseV2D2Ev, .-_ZNSt13__future_base13_State_baseV2D2Ev
	.weak	_ZNSt13__future_base13_State_baseV2D1Ev
	.set	_ZNSt13__future_base13_State_baseV2D1Ev,_ZNSt13__future_base13_State_baseV2D2Ev
	.section	.text._ZN4asio6detail7tss_ptrINS0_10call_stackINS0_14strand_service11strand_implEhE7contextEED2Ev,"axG",@progbits,_ZN4asio6detail7tss_ptrINS0_10call_stackINS0_14strand_service11strand_implEhE7contextEED5Ev,comdat
	.align 2
	.p2align 4
	.weak	_ZN4asio6detail7tss_ptrINS0_10call_stackINS0_14strand_service11strand_implEhE7contextEED2Ev
	.type	_ZN4asio6detail7tss_ptrINS0_10call_stackINS0_14strand_service11strand_implEhE7contextEED2Ev, @function
_ZN4asio6detail7tss_ptrINS0_10call_stackINS0_14strand_service11strand_implEhE7contextEED2Ev:
.LFB11921:
	.cfi_startproc
	ret
	.cfi_endproc
.LFE11921:
	.size	_ZN4asio6detail7tss_ptrINS0_10call_stackINS0_14strand_service11strand_implEhE7contextEED2Ev, .-_ZN4asio6detail7tss_ptrINS0_10call_stackINS0_14strand_service11strand_implEhE7contextEED2Ev
	.weak	_ZN4asio6detail7tss_ptrINS0_10call_stackINS0_14strand_service11strand_implEhE7contextEED1Ev
	.set	_ZN4asio6detail7tss_ptrINS0_10call_stackINS0_14strand_service11strand_implEhE7contextEED1Ev,_ZN4asio6detail7tss_ptrINS0_10call_stackINS0_14strand_service11strand_implEhE7contextEED2Ev
	.section	.text._ZNSt23_Sp_counted_ptr_inplaceINSt13__future_base13_State_baseV2ESaIvELN9__gnu_cxx12_Lock_policyE2EED2Ev,"axG",@progbits,_ZNSt23_Sp_counted_ptr_inplaceINSt13__future_base13_State_baseV2ESaIvELN9__gnu_cxx12_Lock_policyE2EED5Ev,comdat
	.align 2
	.p2align 4
	.weak	_ZNSt23_Sp_counted_ptr_inplaceINSt13__future_base13_State_baseV2ESaIvELN9__gnu_cxx12_Lock_policyE2EED2Ev
	.type	_ZNSt23_Sp_counted_ptr_inplaceINSt13__future_base13_State_baseV2ESaIvELN9__gnu_cxx12_Lock_policyE2EED2Ev, @function
_ZNSt23_Sp_counted_ptr_inplaceINSt13__future_base13_State_baseV2ESaIvELN9__gnu_cxx12_Lock_policyE2EED2Ev:
.LFB11955:
	.cfi_startproc
	ret
	.cfi_endproc
.LFE11955:
	.size	_ZNSt23_Sp_counted_ptr_inplaceINSt13__future_base13_State_baseV2ESaIvELN9__gnu_cxx12_Lock_policyE2EED2Ev, .-_ZNSt23_Sp_counted_ptr_inplaceINSt13__future_base13_State_baseV2ESaIvELN9__gnu_cxx12_Lock_policyE2EED2Ev
	.weak	_ZNSt23_Sp_counted_ptr_inplaceINSt13__future_base13_State_baseV2ESaIvELN9__gnu_cxx12_Lock_policyE2EED1Ev
	.set	_ZNSt23_Sp_counted_ptr_inplaceINSt13__future_base13_State_baseV2ESaIvELN9__gnu_cxx12_Lock_policyE2EED1Ev,_ZNSt23_Sp_counted_ptr_inplaceINSt13__future_base13_State_baseV2ESaIvELN9__gnu_cxx12_Lock_policyE2EED2Ev
	.section	.text._ZNSt23_Sp_counted_ptr_inplaceINSt13__future_base13_State_baseV2ESaIvELN9__gnu_cxx12_Lock_policyE2EE10_M_disposeEv,"axG",@progbits,_ZNSt23_Sp_counted_ptr_inplaceINSt13__future_base13_State_baseV2ESaIvELN9__gnu_cxx12_Lock_policyE2EE10_M_disposeEv,comdat
	.align 2
	.p2align 4
	.weak	_ZNSt23_Sp_counted_ptr_inplaceINSt13__future_base13_State_baseV2ESaIvELN9__gnu_cxx12_Lock_policyE2EE10_M_disposeEv
	.type	_ZNSt23_Sp_counted_ptr_inplaceINSt13__future_base13_State_baseV2ESaIvELN9__gnu_cxx12_Lock_policyE2EE10_M_disposeEv, @function
_ZNSt23_Sp_counted_ptr_inplaceINSt13__future_base13_State_baseV2ESaIvELN9__gnu_cxx12_Lock_policyE2EE10_M_disposeEv:
.LFB11958:
	.cfi_startproc
	movq	16(%rdi), %rax
	addq	$16, %rdi
	movq	(%rax), %rax
	jmp	*%rax
	.cfi_endproc
.LFE11958:
	.size	_ZNSt23_Sp_counted_ptr_inplaceINSt13__future_base13_State_baseV2ESaIvELN9__gnu_cxx12_Lock_policyE2EE10_M_disposeEv, .-_ZNSt23_Sp_counted_ptr_inplaceINSt13__future_base13_State_baseV2ESaIvELN9__gnu_cxx12_Lock_policyE2EE10_M_disposeEv
	.section	.text._ZNSt23_Sp_counted_ptr_inplaceINSt13__future_base13_State_baseV2ESaIvELN9__gnu_cxx12_Lock_policyE2EED0Ev,"axG",@progbits,_ZNSt23_Sp_counted_ptr_inplaceINSt13__future_base13_State_baseV2ESaIvELN9__gnu_cxx12_Lock_policyE2EED5Ev,comdat
	.align 2
	.p2align 4
	.weak	_ZNSt23_Sp_counted_ptr_inplaceINSt13__future_base13_State_baseV2ESaIvELN9__gnu_cxx12_Lock_policyE2EED0Ev
	.type	_ZNSt23_Sp_counted_ptr_inplaceINSt13__future_base13_State_baseV2ESaIvELN9__gnu_cxx12_Lock_policyE2EED0Ev, @function
_ZNSt23_Sp_counted_ptr_inplaceINSt13__future_base13_State_baseV2ESaIvELN9__gnu_cxx12_Lock_policyE2EED0Ev:
.LFB11957:
	.cfi_startproc
	movl	$48, %esi
	jmp	_ZdlPvm@PLT
	.cfi_endproc
.LFE11957:
	.size	_ZNSt23_Sp_counted_ptr_inplaceINSt13__future_base13_State_baseV2ESaIvELN9__gnu_cxx12_Lock_policyE2EED0Ev, .-_ZNSt23_Sp_counted_ptr_inplaceINSt13__future_base13_State_baseV2ESaIvELN9__gnu_cxx12_Lock_policyE2EED0Ev
	.section	.text._ZNSt13__future_base13_State_baseV2D0Ev,"axG",@progbits,_ZNSt13__future_base13_State_baseV2D5Ev,comdat
	.align 2
	.p2align 4
	.weak	_ZNSt13__future_base13_State_baseV2D0Ev
	.type	_ZNSt13__future_base13_State_baseV2D0Ev, @function
_ZNSt13__future_base13_State_baseV2D0Ev:
.LFB11889:
	.cfi_startproc
	.cfi_personality 0x9b,DW.ref.__gxx_personality_v0
	.cfi_lsda 0x1b,.LLSDA11889
	movq	_ZTVNSt13__future_base13_State_baseV2E@GOTPCREL(%rip), %rax
	pushq	%rbx
	.cfi_def_cfa_offset 16
	.cfi_offset 3, -16
	movq	%rdi, %rbx
	addq	$16, %rax
	movq	%rax, (%rdi)
	movq	8(%rdi), %rdi
	testq	%rdi, %rdi
	je	.L31
	movq	(%rdi), %rax
	call	*(%rax)
.L31:
	movq	%rbx, %rdi
	movl	$32, %esi
	popq	%rbx
	.cfi_def_cfa_offset 8
.LEHB0:
	jmp	_ZdlPvm@PLT
.LEHE0:
	.cfi_endproc
.LFE11889:
	.section	.gcc_except_table._ZNSt13__future_base13_State_baseV2D0Ev,"aG",@progbits,_ZNSt13__future_base13_State_baseV2D5Ev,comdat
.LLSDA11889:
	.byte	0xff
	.byte	0xff
	.byte	0x1
	.uleb128 .LLSDACSE11889-.LLSDACSB11889
.LLSDACSB11889:
	.uleb128 .LEHB0-.LFB11889
	.uleb128 .LEHE0-.LEHB0
	.uleb128 0
	.uleb128 0
.LLSDACSE11889:
	.section	.text._ZNSt13__future_base13_State_baseV2D0Ev,"axG",@progbits,_ZNSt13__future_base13_State_baseV2D5Ev,comdat
	.size	_ZNSt13__future_base13_State_baseV2D0Ev, .-_ZNSt13__future_base13_State_baseV2D0Ev
	.section	.text._ZNSt23_Sp_counted_ptr_inplaceINSt13__future_base13_State_baseV2ESaIvELN9__gnu_cxx12_Lock_policyE2EE10_M_destroyEv,"axG",@progbits,_ZNSt23_Sp_counted_ptr_inplaceINSt13__future_base13_State_baseV2ESaIvELN9__gnu_cxx12_Lock_policyE2EE10_M_destroyEv,comdat
	.align 2
	.p2align 4
	.weak	_ZNSt23_Sp_counted_ptr_inplaceINSt13__future_base13_State_baseV2ESaIvELN9__gnu_cxx12_Lock_policyE2EE10_M_destroyEv
	.type	_ZNSt23_Sp_counted_ptr_inplaceINSt13__future_base13_State_baseV2ESaIvELN9__gnu_cxx12_Lock_policyE2EE10_M_destroyEv, @function
_ZNSt23_Sp_counted_ptr_inplaceINSt13__future_base13_State_baseV2ESaIvELN9__gnu_cxx12_Lock_policyE2EE10_M_destroyEv:
.LFB11959:
	.cfi_startproc
	movl	$48, %esi
	jmp	_ZdlPvm@PLT
	.cfi_endproc
.LFE11959:
	.size	_ZNSt23_Sp_counted_ptr_inplaceINSt13__future_base13_State_baseV2ESaIvELN9__gnu_cxx12_Lock_policyE2EE10_M_destroyEv, .-_ZNSt23_Sp_counted_ptr_inplaceINSt13__future_base13_State_baseV2ESaIvELN9__gnu_cxx12_Lock_policyE2EE10_M_destroyEv
	.section	.text._ZNSt13__future_base7_ResultIbED2Ev,"axG",@progbits,_ZNSt13__future_base7_ResultIbED5Ev,comdat
	.align 2
	.p2align 4
	.weak	_ZNSt13__future_base7_ResultIbED2Ev
	.type	_ZNSt13__future_base7_ResultIbED2Ev, @function
_ZNSt13__future_base7_ResultIbED2Ev:
.LFB11982:
	.cfi_startproc
	movq	_ZTVNSt13__future_base7_ResultIbEE@GOTPCREL(%rip), %rax
	addq	$16, %rax
	movq	%rax, (%rdi)
	jmp	_ZNSt13__future_base12_Result_baseD2Ev@PLT
	.cfi_endproc
.LFE11982:
	.size	_ZNSt13__future_base7_ResultIbED2Ev, .-_ZNSt13__future_base7_ResultIbED2Ev
	.weak	_ZNSt13__future_base7_ResultIbED1Ev
	.set	_ZNSt13__future_base7_ResultIbED1Ev,_ZNSt13__future_base7_ResultIbED2Ev
	.section	.text._ZNSt13__future_base7_ResultIbED0Ev,"axG",@progbits,_ZNSt13__future_base7_ResultIbED5Ev,comdat
	.align 2
	.p2align 4
	.weak	_ZNSt13__future_base7_ResultIbED0Ev
	.type	_ZNSt13__future_base7_ResultIbED0Ev, @function
_ZNSt13__future_base7_ResultIbED0Ev:
.LFB11984:
	.cfi_startproc
	subq	$24, %rsp
	.cfi_def_cfa_offset 32
	movq	_ZTVNSt13__future_base7_ResultIbEE@GOTPCREL(%rip), %rax
	movq	%rdi, 8(%rsp)
	addq	$16, %rax
	movq	%rax, (%rdi)
	call	_ZNSt13__future_base12_Result_baseD2Ev@PLT
	movq	8(%rsp), %rdi
	movl	$24, %esi
	addq	$24, %rsp
	.cfi_def_cfa_offset 8
	jmp	_ZdlPvm@PLT
	.cfi_endproc
.LFE11984:
	.size	_ZNSt13__future_base7_ResultIbED0Ev, .-_ZNSt13__future_base7_ResultIbED0Ev
	.section	.text._ZNSt13__future_base7_ResultIN8opendnp315StackStatisticsEED2Ev,"axG",@progbits,_ZNSt13__future_base7_ResultIN8opendnp315StackStatisticsEED5Ev,comdat
	.align 2
	.p2align 4
	.weak	_ZNSt13__future_base7_ResultIN8opendnp315StackStatisticsEED2Ev
	.type	_ZNSt13__future_base7_ResultIN8opendnp315StackStatisticsEED2Ev, @function
_ZNSt13__future_base7_ResultIN8opendnp315StackStatisticsEED2Ev:
.LFB11977:
	.cfi_startproc
	movq	_ZTVNSt13__future_base7_ResultIN8opendnp315StackStatisticsEEE@GOTPCREL(%rip), %rax
	addq	$16, %rax
	movq	%rax, (%rdi)
	jmp	_ZNSt13__future_base12_Result_baseD2Ev@PLT
	.cfi_endproc
.LFE11977:
	.size	_ZNSt13__future_base7_ResultIN8opendnp315StackStatisticsEED2Ev, .-_ZNSt13__future_base7_ResultIN8opendnp315StackStatisticsEED2Ev
	.weak	_ZNSt13__future_base7_ResultIN8opendnp315StackStatisticsEED1Ev
	.set	_ZNSt13__future_base7_ResultIN8opendnp315StackStatisticsEED1Ev,_ZNSt13__future_base7_ResultIN8opendnp315StackStatisticsEED2Ev
	.section	.text._ZNSt13__future_base7_ResultIN8opendnp315StackStatisticsEED0Ev,"axG",@progbits,_ZNSt13__future_base7_ResultIN8opendnp315StackStatisticsEED5Ev,comdat
	.align 2
	.p2align 4
	.weak	_ZNSt13__future_base7_ResultIN8opendnp315StackStatisticsEED0Ev
	.type	_ZNSt13__future_base7_ResultIN8opendnp315StackStatisticsEED0Ev, @function
_ZNSt13__future_base7_ResultIN8opendnp315StackStatisticsEED0Ev:
.LFB11979:
	.cfi_startproc
	subq	$24, %rsp
	.cfi_def_cfa_offset 32
	movq	_ZTVNSt13__future_base7_ResultIN8opendnp315StackStatisticsEEE@GOTPCREL(%rip), %rax
	movq	%rdi, 8(%rsp)
	addq	$16, %rax
	movq	%rax, (%rdi)
	call	_ZNSt13__future_base12_Result_baseD2Ev@PLT
	movq	8(%rsp), %rdi
	movl	$64, %esi
	addq	$24, %rsp
	.cfi_def_cfa_offset 8
	jmp	_ZdlPvm@PLT
	.cfi_endproc
.LFE11979:
	.size	_ZNSt13__future_base7_ResultIN8opendnp315StackStatisticsEED0Ev, .-_ZNSt13__future_base7_ResultIN8opendnp315StackStatisticsEED0Ev
	.section	.text._ZNSt13__future_base13_State_baseV29_M_do_setEPSt8functionIFSt10unique_ptrINS_12_Result_baseENS3_8_DeleterEEvEEPb,"axG",@progbits,_ZNSt13__future_base13_State_baseV29_M_do_setEPSt8functionIFSt10unique_ptrINS_12_Result_baseENS3_8_DeleterEEvEEPb,comdat
	.align 2
	.p2align 4
	.weak	_ZNSt13__future_base13_State_baseV29_M_do_setEPSt8functionIFSt10unique_ptrINS_12_Result_baseENS3_8_DeleterEEvEEPb
	.type	_ZNSt13__future_base13_State_baseV29_M_do_setEPSt8functionIFSt10unique_ptrINS_12_Result_baseENS3_8_DeleterEEvEEPb, @function
_ZNSt13__future_base13_State_baseV29_M_do_setEPSt8functionIFSt10unique_ptrINS_12_Result_baseENS3_8_DeleterEEvEEPb:
.LFB6806:
	.cfi_startproc
	.cfi_personality 0x9b,DW.ref.__gxx_personality_v0
	.cfi_lsda 0x1b,.LLSDA6806
	pushq	%rbp
	.cfi_def_cfa_offset 16
	.cfi_offset 6, -16
	pushq	%rbx
	.cfi_def_cfa_offset 24
	.cfi_offset 3, -24
	subq	$24, %rsp
	.cfi_def_cfa_offset 48
	cmpq	$0, 16(%rsi)
	je	.L50
	movq	%rdi, %rbx
	movq	%rdx, %rbp
	leaq	8(%rsp), %rdi
.LEHB1:
	call	*24(%rsi)
.LEHE1:
	movq	8(%rbx), %rdi
	movq	8(%rsp), %rax
	movb	$1, 0(%rbp)
	movq	%rdi, 8(%rsp)
	movq	%rax, 8(%rbx)
	testq	%rdi, %rdi
	je	.L43
	movq	(%rdi), %rax
	call	*(%rax)
.L43:
	addq	$24, %rsp
	.cfi_remember_state
	.cfi_def_cfa_offset 24
	popq	%rbx
	.cfi_def_cfa_offset 16
	popq	%rbp
	.cfi_def_cfa_offset 8
	ret
.L50:
	.cfi_restore_state
.LEHB2:
	call	_ZSt25__throw_bad_function_callv@PLT
.LEHE2:
	.cfi_endproc
.LFE6806:
	.section	.gcc_except_table._ZNSt13__future_base13_State_baseV29_M_do_setEPSt8functionIFSt10unique_ptrINS_12_Result_baseENS3_8_DeleterEEvEEPb,"aG",@progbits,_ZNSt13__future_base13_State_baseV29_M_do_setEPSt8functionIFSt10unique_ptrINS_12_Result_baseENS3_8_DeleterEEvEEPb,comdat
.LLSDA6806:
	.byte	0xff
	.byte	0xff
	.byte	0x1
	.uleb128 .LLSDACSE6806-.LLSDACSB6806
.LLSDACSB6806:
	.uleb128 .LEHB1-.LFB6806
	.uleb128 .LEHE1-.LEHB1
	.uleb128 0
	.uleb128 0
	.uleb128 .LEHB2-.LFB6806
	.uleb128 .LEHE2-.LEHB2
	.uleb128 0
	.uleb128 0
.LLSDACSE6806:
	.section	.text._ZNSt13__future_base13_State_baseV29_M_do_setEPSt8functionIFSt10unique_ptrINS_12_Result_baseENS3_8_DeleterEEvEEPb,"axG",@progbits,_ZNSt13__future_base13_State_baseV29_M_do_setEPSt8functionIFSt10unique_ptrINS_12_Result_baseENS3_8_DeleterEEvEEPb,comdat
	.size	_ZNSt13__future_base13_State_baseV29_M_do_setEPSt8functionIFSt10unique_ptrINS_12_Result_baseENS3_8_DeleterEEvEEPb, .-_ZNSt13__future_base13_State_baseV29_M_do_setEPSt8functionIFSt10unique_ptrINS_12_Result_baseENS3_8_DeleterEEvEEPb
	.text
	.p2align 4
	.type	_ZNSt17_Function_handlerIFN8opendnp315StackStatisticsEvEZN8asiodnp315OutstationStack18GetStackStatisticsEvEUlvE_E9_M_invokeERKSt9_Any_data, @function
_ZNSt17_Function_handlerIFN8opendnp315StackStatisticsEvEZN8asiodnp315OutstationStack18GetStackStatisticsEvEUlvE_E9_M_invokeERKSt9_Any_data:
.LFB10392:
	.cfi_startproc
	pushq	%rbp
	.cfi_def_cfa_offset 16
	.cfi_offset 6, -16
	pushq	%rbx
	.cfi_def_cfa_offset 24
	.cfi_offset 3, -24
	movq	%rdi, %rbx
	subq	$40, %rsp
	.cfi_def_cfa_offset 64
	movq	(%rsi), %rax
	movq	%rsp, %rdi
	movq	(%rax), %rbp
	movq	120(%rbp), %rsi
	call	_ZNK8opendnp314TransportLayer13GetStatisticsEv@PLT
	movq	136(%rbp), %rdi
	call	_ZNK8opendnp39LinkLayer13GetStatisticsEv@PLT
	movdqu	(%rax), %xmm0
	movq	16(%rsp), %rax
	movups	%xmm0, (%rbx)
	movdqa	(%rsp), %xmm0
	movq	%rax, 32(%rbx)
	movq	%rbx, %rax
	movups	%xmm0, 16(%rbx)
	addq	$40, %rsp
	.cfi_def_cfa_offset 24
	popq	%rbx
	.cfi_def_cfa_offset 16
	popq	%rbp
	.cfi_def_cfa_offset 8
	ret
	.cfi_endproc
.LFE10392:
	.size	_ZNSt17_Function_handlerIFN8opendnp315StackStatisticsEvEZN8asiodnp315OutstationStack18GetStackStatisticsEvEUlvE_E9_M_invokeERKSt9_Any_data, .-_ZNSt17_Function_handlerIFN8opendnp315StackStatisticsEvEZN8asiodnp315OutstationStack18GetStackStatisticsEvEUlvE_E9_M_invokeERKSt9_Any_data
	.section	.text._ZN4asio6detail15system_categoryD2Ev,"axG",@progbits,_ZN4asio6detail15system_categoryD5Ev,comdat
	.align 2
	.p2align 4
	.weak	_ZN4asio6detail15system_categoryD2Ev
	.type	_ZN4asio6detail15system_categoryD2Ev, @function
_ZN4asio6detail15system_categoryD2Ev:
.LFB2704:
	.cfi_startproc
	movq	_ZTVN4asio6detail15system_categoryE@GOTPCREL(%rip), %rax
	addq	$16, %rax
	movq	%rax, (%rdi)
	jmp	_ZNSt3_V214error_categoryD2Ev@PLT
	.cfi_endproc
.LFE2704:
	.size	_ZN4asio6detail15system_categoryD2Ev, .-_ZN4asio6detail15system_categoryD2Ev
	.weak	_ZN4asio6detail15system_categoryD1Ev
	.set	_ZN4asio6detail15system_categoryD1Ev,_ZN4asio6detail15system_categoryD2Ev
	.section	.text._ZN4asio6detail15system_categoryD0Ev,"axG",@progbits,_ZN4asio6detail15system_categoryD5Ev,comdat
	.align 2
	.p2align 4
	.weak	_ZN4asio6detail15system_categoryD0Ev
	.type	_ZN4asio6detail15system_categoryD0Ev, @function
_ZN4asio6detail15system_categoryD0Ev:
.LFB2706:
	.cfi_startproc
	subq	$24, %rsp
	.cfi_def_cfa_offset 32
	movq	_ZTVN4asio6detail15system_categoryE@GOTPCREL(%rip), %rax
	movq	%rdi, 8(%rsp)
	addq	$16, %rax
	movq	%rax, (%rdi)
	call	_ZNSt3_V214error_categoryD2Ev@PLT
	movq	8(%rsp), %rdi
	movl	$8, %esi
	addq	$24, %rsp
	.cfi_def_cfa_offset 8
	jmp	_ZdlPvm@PLT
	.cfi_endproc
.LFE2706:
	.size	_ZN4asio6detail15system_categoryD0Ev, .-_ZN4asio6detail15system_categoryD0Ev
	.section	.text._ZN4asio5error6detail14netdb_categoryD2Ev,"axG",@progbits,_ZN4asio5error6detail14netdb_categoryD5Ev,comdat
	.align 2
	.p2align 4
	.weak	_ZN4asio5error6detail14netdb_categoryD2Ev
	.type	_ZN4asio5error6detail14netdb_categoryD2Ev, @function
_ZN4asio5error6detail14netdb_categoryD2Ev:
.LFB2743:
	.cfi_startproc
	movq	_ZTVN4asio5error6detail14netdb_categoryE@GOTPCREL(%rip), %rax
	addq	$16, %rax
	movq	%rax, (%rdi)
	jmp	_ZNSt3_V214error_categoryD2Ev@PLT
	.cfi_endproc
.LFE2743:
	.size	_ZN4asio5error6detail14netdb_categoryD2Ev, .-_ZN4asio5error6detail14netdb_categoryD2Ev
	.weak	_ZN4asio5error6detail14netdb_categoryD1Ev
	.set	_ZN4asio5error6detail14netdb_categoryD1Ev,_ZN4asio5error6detail14netdb_categoryD2Ev
	.section	.text._ZN4asio5error6detail14netdb_categoryD0Ev,"axG",@progbits,_ZN4asio5error6detail14netdb_categoryD5Ev,comdat
	.align 2
	.p2align 4
	.weak	_ZN4asio5error6detail14netdb_categoryD0Ev
	.type	_ZN4asio5error6detail14netdb_categoryD0Ev, @function
_ZN4asio5error6detail14netdb_categoryD0Ev:
.LFB2745:
	.cfi_startproc
	subq	$24, %rsp
	.cfi_def_cfa_offset 32
	movq	_ZTVN4asio5error6detail14netdb_categoryE@GOTPCREL(%rip), %rax
	movq	%rdi, 8(%rsp)
	addq	$16, %rax
	movq	%rax, (%rdi)
	call	_ZNSt3_V214error_categoryD2Ev@PLT
	movq	8(%rsp), %rdi
	movl	$8, %esi
	addq	$24, %rsp
	.cfi_def_cfa_offset 8
	jmp	_ZdlPvm@PLT
	.cfi_endproc
.LFE2745:
	.size	_ZN4asio5error6detail14netdb_categoryD0Ev, .-_ZN4asio5error6detail14netdb_categoryD0Ev
	.section	.text._ZN4asio5error6detail17addrinfo_categoryD2Ev,"axG",@progbits,_ZN4asio5error6detail17addrinfo_categoryD5Ev,comdat
	.align 2
	.p2align 4
	.weak	_ZN4asio5error6detail17addrinfo_categoryD2Ev
	.type	_ZN4asio5error6detail17addrinfo_categoryD2Ev, @function
_ZN4asio5error6detail17addrinfo_categoryD2Ev:
.LFB2753:
	.cfi_startproc
	movq	_ZTVN4asio5error6detail17addrinfo_categoryE@GOTPCREL(%rip), %rax
	addq	$16, %rax
	movq	%rax, (%rdi)
	jmp	_ZNSt3_V214error_categoryD2Ev@PLT
	.cfi_endproc
.LFE2753:
	.size	_ZN4asio5error6detail17addrinfo_categoryD2Ev, .-_ZN4asio5error6detail17addrinfo_categoryD2Ev
	.weak	_ZN4asio5error6detail17addrinfo_categoryD1Ev
	.set	_ZN4asio5error6detail17addrinfo_categoryD1Ev,_ZN4asio5error6detail17addrinfo_categoryD2Ev
	.section	.text._ZN4asio5error6detail17addrinfo_categoryD0Ev,"axG",@progbits,_ZN4asio5error6detail17addrinfo_categoryD5Ev,comdat
	.align 2
	.p2align 4
	.weak	_ZN4asio5error6detail17addrinfo_categoryD0Ev
	.type	_ZN4asio5error6detail17addrinfo_categoryD0Ev, @function
_ZN4asio5error6detail17addrinfo_categoryD0Ev:
.LFB2755:
	.cfi_startproc
	subq	$24, %rsp
	.cfi_def_cfa_offset 32
	movq	_ZTVN4asio5error6detail17addrinfo_categoryE@GOTPCREL(%rip), %rax
	movq	%rdi, 8(%rsp)
	addq	$16, %rax
	movq	%rax, (%rdi)
	call	_ZNSt3_V214error_categoryD2Ev@PLT
	movq	8(%rsp), %rdi
	movl	$8, %esi
	addq	$24, %rsp
	.cfi_def_cfa_offset 8
	jmp	_ZdlPvm@PLT
	.cfi_endproc
.LFE2755:
	.size	_ZN4asio5error6detail17addrinfo_categoryD0Ev, .-_ZN4asio5error6detail17addrinfo_categoryD0Ev
	.section	.text._ZN4asio5error6detail13misc_categoryD2Ev,"axG",@progbits,_ZN4asio5error6detail13misc_categoryD5Ev,comdat
	.align 2
	.p2align 4
	.weak	_ZN4asio5error6detail13misc_categoryD2Ev
	.type	_ZN4asio5error6detail13misc_categoryD2Ev, @function
_ZN4asio5error6detail13misc_categoryD2Ev:
.LFB2763:
	.cfi_startproc
	movq	_ZTVN4asio5error6detail13misc_categoryE@GOTPCREL(%rip), %rax
	addq	$16, %rax
	movq	%rax, (%rdi)
	jmp	_ZNSt3_V214error_categoryD2Ev@PLT
	.cfi_endproc
.LFE2763:
	.size	_ZN4asio5error6detail13misc_categoryD2Ev, .-_ZN4asio5error6detail13misc_categoryD2Ev
	.weak	_ZN4asio5error6detail13misc_categoryD1Ev
	.set	_ZN4asio5error6detail13misc_categoryD1Ev,_ZN4asio5error6detail13misc_categoryD2Ev
	.section	.text._ZN4asio5error6detail13misc_categoryD0Ev,"axG",@progbits,_ZN4asio5error6detail13misc_categoryD5Ev,comdat
	.align 2
	.p2align 4
	.weak	_ZN4asio5error6detail13misc_categoryD0Ev
	.type	_ZN4asio5error6detail13misc_categoryD0Ev, @function
_ZN4asio5error6detail13misc_categoryD0Ev:
.LFB2765:
	.cfi_startproc
	subq	$24, %rsp
	.cfi_def_cfa_offset 32
	movq	_ZTVN4asio5error6detail13misc_categoryE@GOTPCREL(%rip), %rax
	movq	%rdi, 8(%rsp)
	addq	$16, %rax
	movq	%rax, (%rdi)
	call	_ZNSt3_V214error_categoryD2Ev@PLT
	movq	8(%rsp), %rdi
	movl	$8, %esi
	addq	$24, %rsp
	.cfi_def_cfa_offset 8
	jmp	_ZdlPvm@PLT
	.cfi_endproc
.LFE2765:
	.size	_ZN4asio5error6detail13misc_categoryD0Ev, .-_ZN4asio5error6detail13misc_categoryD0Ev
	.section	.text._ZNSt17_Function_handlerIFSt10unique_ptrINSt13__future_base12_Result_baseENS2_8_DeleterEEvENS1_13_State_baseV27_SetterIbObEEE10_M_managerERSt9_Any_dataRKSB_St18_Manager_operation,"axG",@progbits,_ZNSt17_Function_handlerIFSt10unique_ptrINSt13__future_base12_Result_baseENS2_8_DeleterEEvENS1_13_State_baseV27_SetterIbObEEE10_M_managerERSt9_Any_dataRKSB_St18_Manager_operation,comdat
	.p2align 4
	.weak	_ZNSt17_Function_handlerIFSt10unique_ptrINSt13__future_base12_Result_baseENS2_8_DeleterEEvENS1_13_State_baseV27_SetterIbObEEE10_M_managerERSt9_Any_dataRKSB_St18_Manager_operation
	.type	_ZNSt17_Function_handlerIFSt10unique_ptrINSt13__future_base12_Result_baseENS2_8_DeleterEEvENS1_13_State_baseV27_SetterIbObEEE10_M_managerERSt9_Any_dataRKSB_St18_Manager_operation, @function
_ZNSt17_Function_handlerIFSt10unique_ptrINSt13__future_base12_Result_baseENS2_8_DeleterEEvENS1_13_State_baseV27_SetterIbObEEE10_M_managerERSt9_Any_dataRKSB_St18_Manager_operation:
.LFB11088:
	.cfi_startproc
	testl	%edx, %edx
	je	.L66
	cmpl	$1, %edx
	jne	.L71
	movq	%rsi, (%rdi)
.L69:
	xorl	%eax, %eax
	ret
	.p2align 4,,10
	.p2align 3
.L71:
	cmpl	$2, %edx
	jne	.L69
	movdqu	(%rsi), %xmm0
	movups	%xmm0, (%rdi)
	jmp	.L69
	.p2align 4,,10
	.p2align 3
.L66:
	movq	_ZTINSt13__future_base13_State_baseV27_SetterIbObEE@GOTPCREL(%rip), %rax
	movq	%rax, (%rdi)
	xorl	%eax, %eax
	ret
	.cfi_endproc
.LFE11088:
	.size	_ZNSt17_Function_handlerIFSt10unique_ptrINSt13__future_base12_Result_baseENS2_8_DeleterEEvENS1_13_State_baseV27_SetterIbObEEE10_M_managerERSt9_Any_dataRKSB_St18_Manager_operation, .-_ZNSt17_Function_handlerIFSt10unique_ptrINSt13__future_base12_Result_baseENS2_8_DeleterEEvENS1_13_State_baseV27_SetterIbObEEE10_M_managerERSt9_Any_dataRKSB_St18_Manager_operation
	.section	.text._ZNSt17_Function_handlerIFSt10unique_ptrINSt13__future_base12_Result_baseENS2_8_DeleterEEvENS1_13_State_baseV27_SetterIN8opendnp315StackStatisticsEOS9_EEE10_M_managerERSt9_Any_dataRKSD_St18_Manager_operation,"axG",@progbits,_ZNSt17_Function_handlerIFSt10unique_ptrINSt13__future_base12_Result_baseENS2_8_DeleterEEvENS1_13_State_baseV27_SetterIN8opendnp315StackStatisticsEOS9_EEE10_M_managerERSt9_Any_dataRKSD_St18_Manager_operation,comdat
	.p2align 4
	.weak	_ZNSt17_Function_handlerIFSt10unique_ptrINSt13__future_base12_Result_baseENS2_8_DeleterEEvENS1_13_State_baseV27_SetterIN8opendnp315StackStatisticsEOS9_EEE10_M_managerERSt9_Any_dataRKSD_St18_Manager_operation
	.type	_ZNSt17_Function_handlerIFSt10unique_ptrINSt13__future_base12_Result_baseENS2_8_DeleterEEvENS1_13_State_baseV27_SetterIN8opendnp315StackStatisticsEOS9_EEE10_M_managerERSt9_Any_dataRKSD_St18_Manager_operation, @function
_ZNSt17_Function_handlerIFSt10unique_ptrINSt13__future_base12_Result_baseENS2_8_DeleterEEvENS1_13_State_baseV27_SetterIN8opendnp315StackStatisticsEOS9_EEE10_M_managerERSt9_Any_dataRKSD_St18_Manager_operation:
.LFB11151:
	.cfi_startproc
	testl	%edx, %edx
	je	.L73
	cmpl	$1, %edx
	jne	.L78
	movq	%rsi, (%rdi)
.L76:
	xorl	%eax, %eax
	ret
	.p2align 4,,10
	.p2align 3
.L78:
	cmpl	$2, %edx
	jne	.L76
	movdqu	(%rsi), %xmm0
	movups	%xmm0, (%rdi)
	jmp	.L76
	.p2align 4,,10
	.p2align 3
.L73:
	movq	_ZTINSt13__future_base13_State_baseV27_SetterIN8opendnp315StackStatisticsEOS3_EE@GOTPCREL(%rip), %rax
	movq	%rax, (%rdi)
	xorl	%eax, %eax
	ret
	.cfi_endproc
.LFE11151:
	.size	_ZNSt17_Function_handlerIFSt10unique_ptrINSt13__future_base12_Result_baseENS2_8_DeleterEEvENS1_13_State_baseV27_SetterIN8opendnp315StackStatisticsEOS9_EEE10_M_managerERSt9_Any_dataRKSD_St18_Manager_operation, .-_ZNSt17_Function_handlerIFSt10unique_ptrINSt13__future_base12_Result_baseENS2_8_DeleterEEvENS1_13_State_baseV27_SetterIN8opendnp315StackStatisticsEOS9_EEE10_M_managerERSt9_Any_dataRKSD_St18_Manager_operation
	.section	.text._ZNSt23_Sp_counted_ptr_inplaceINSt13__future_base13_State_baseV2ESaIvELN9__gnu_cxx12_Lock_policyE2EE14_M_get_deleterERKSt9type_info,"axG",@progbits,_ZNSt23_Sp_counted_ptr_inplaceINSt13__future_base13_State_baseV2ESaIvELN9__gnu_cxx12_Lock_policyE2EE14_M_get_deleterERKSt9type_info,comdat
	.align 2
	.p2align 4
	.weak	_ZNSt23_Sp_counted_ptr_inplaceINSt13__future_base13_State_baseV2ESaIvELN9__gnu_cxx12_Lock_policyE2EE14_M_get_deleterERKSt9type_info
	.type	_ZNSt23_Sp_counted_ptr_inplaceINSt13__future_base13_State_baseV2ESaIvELN9__gnu_cxx12_Lock_policyE2EE14_M_get_deleterERKSt9type_info, @function
_ZNSt23_Sp_counted_ptr_inplaceINSt13__future_base13_State_baseV2ESaIvELN9__gnu_cxx12_Lock_policyE2EE14_M_get_deleterERKSt9type_info:
.LFB11960:
	.cfi_startproc
	cmpq	_ZZNSt19_Sp_make_shared_tag5_S_tiEvE5__tag@GOTPCREL(%rip), %rsi
	movq	%rdi, %rcx
	je	.L85
	movq	8(%rsi), %rdi
	movq	_ZTSSt19_Sp_make_shared_tag@GOTPCREL(%rip), %rsi
	cmpq	%rsi, %rdi
	je	.L85
	xorl	%edx, %edx
	cmpb	$42, (%rdi)
	je	.L86
	subq	$24, %rsp
	.cfi_def_cfa_offset 32
	movq	%rdx, (%rsp)
	movq	%rcx, 8(%rsp)
	call	strcmp@PLT
	xorl	%edx, %edx
	movq	8(%rsp), %rcx
	testl	%eax, %eax
	jne	.L79
	leaq	16(%rcx), %rdx
.L79:
	movq	%rdx, %rax
	addq	$24, %rsp
	.cfi_def_cfa_offset 8
	ret
	.p2align 4,,10
	.p2align 3
.L85:
	leaq	16(%rcx), %rdx
.L86:
	movq	%rdx, %rax
	ret
	.cfi_endproc
.LFE11960:
	.size	_ZNSt23_Sp_counted_ptr_inplaceINSt13__future_base13_State_baseV2ESaIvELN9__gnu_cxx12_Lock_policyE2EE14_M_get_deleterERKSt9type_info, .-_ZNSt23_Sp_counted_ptr_inplaceINSt13__future_base13_State_baseV2ESaIvELN9__gnu_cxx12_Lock_policyE2EE14_M_get_deleterERKSt9type_info
	.section	.text._ZNSt13__future_base7_ResultIbE10_M_destroyEv,"axG",@progbits,_ZNSt13__future_base7_ResultIbE10_M_destroyEv,comdat
	.align 2
	.p2align 4
	.weak	_ZNSt13__future_base7_ResultIbE10_M_destroyEv
	.type	_ZNSt13__future_base7_ResultIbE10_M_destroyEv, @function
_ZNSt13__future_base7_ResultIbE10_M_destroyEv:
.LFB11980:
	.cfi_startproc
	movq	(%rdi), %rax
	movq	16(%rax), %rax
	cmpq	_ZNSt13__future_base7_ResultIbED0Ev@GOTPCREL(%rip), %rax
	jne	.L90
	subq	$24, %rsp
	.cfi_def_cfa_offset 32
	movq	_ZTVNSt13__future_base7_ResultIbEE@GOTPCREL(%rip), %rax
	movq	%rdi, 8(%rsp)
	addq	$16, %rax
	movq	%rax, (%rdi)
	call	_ZNSt13__future_base12_Result_baseD2Ev@PLT
	movq	8(%rsp), %rdi
	movl	$24, %esi
	addq	$24, %rsp
	.cfi_def_cfa_offset 8
	jmp	_ZdlPvm@PLT
	.p2align 4,,10
	.p2align 3
.L90:
	jmp	*%rax
	.cfi_endproc
.LFE11980:
	.size	_ZNSt13__future_base7_ResultIbE10_M_destroyEv, .-_ZNSt13__future_base7_ResultIbE10_M_destroyEv
	.section	.text._ZNSt13__future_base7_ResultIN8opendnp315StackStatisticsEE10_M_destroyEv,"axG",@progbits,_ZNSt13__future_base7_ResultIN8opendnp315StackStatisticsEE10_M_destroyEv,comdat
	.align 2
	.p2align 4
	.weak	_ZNSt13__future_base7_ResultIN8opendnp315StackStatisticsEE10_M_destroyEv
	.type	_ZNSt13__future_base7_ResultIN8opendnp315StackStatisticsEE10_M_destroyEv, @function
_ZNSt13__future_base7_ResultIN8opendnp315StackStatisticsEE10_M_destroyEv:
.LFB11975:
	.cfi_startproc
	movq	(%rdi), %rax
	movq	16(%rax), %rax
	cmpq	_ZNSt13__future_base7_ResultIN8opendnp315StackStatisticsEED0Ev@GOTPCREL(%rip), %rax
	jne	.L95
	subq	$24, %rsp
	.cfi_def_cfa_offset 32
	movq	_ZTVNSt13__future_base7_ResultIN8opendnp315StackStatisticsEEE@GOTPCREL(%rip), %rax
	movq	%rdi, 8(%rsp)
	addq	$16, %rax
	movq	%rax, (%rdi)
	call	_ZNSt13__future_base12_Result_baseD2Ev@PLT
	movq	8(%rsp), %rdi
	movl	$64, %esi
	addq	$24, %rsp
	.cfi_def_cfa_offset 8
	jmp	_ZdlPvm@PLT
	.p2align 4,,10
	.p2align 3
.L95:
	jmp	*%rax
	.cfi_endproc
.LFE11975:
	.size	_ZNSt13__future_base7_ResultIN8opendnp315StackStatisticsEE10_M_destroyEv, .-_ZNSt13__future_base7_ResultIN8opendnp315StackStatisticsEE10_M_destroyEv
	.section	.text._ZN4asio6detail18completion_handlerIZN7asiopal8Executor10ReturnFromIN8opendnp315StackStatisticsEEET_RKSt8functionIFS7_vEEEUlvE_E11do_completeEPNS0_15task_io_serviceEPNS0_25task_io_service_operationERKSt10error_codem,"axG",@progbits,_ZN4asio6detail18completion_handlerIZN7asiopal8Executor10ReturnFromIN8opendnp315StackStatisticsEEET_RKSt8functionIFS7_vEEEUlvE_E11do_completeEPNS0_15task_io_serviceEPNS0_25task_io_service_operationERKSt10error_codem,comdat
	.p2align 4
	.weak	_ZN4asio6detail18completion_handlerIZN7asiopal8Executor10ReturnFromIN8opendnp315StackStatisticsEEET_RKSt8functionIFS7_vEEEUlvE_E11do_completeEPNS0_15task_io_serviceEPNS0_25task_io_service_operationERKSt10error_codem
	.type	_ZN4asio6detail18completion_handlerIZN7asiopal8Executor10ReturnFromIN8opendnp315StackStatisticsEEET_RKSt8functionIFS7_vEEEUlvE_E11do_completeEPNS0_15task_io_serviceEPNS0_25task_io_service_operationERKSt10error_codem, @function
_ZN4asio6detail18completion_handlerIZN7asiopal8Executor10ReturnFromIN8opendnp315StackStatisticsEEET_RKSt8functionIFS7_vEEEUlvE_E11do_completeEPNS0_15task_io_serviceEPNS0_25task_io_service_operationERKSt10error_codem:
.LFB11485:
	.cfi_startproc
	.cfi_personality 0x9b,DW.ref.__gxx_personality_v0
	.cfi_lsda 0x1b,.LLSDA11485
	pushq	%r13
	.cfi_def_cfa_offset 16
	.cfi_offset 13, -16
	movq	%rdi, %r13
	pushq	%r12
	.cfi_def_cfa_offset 24
	.cfi_offset 12, -24
	pushq	%rbp
	.cfi_def_cfa_offset 32
	.cfi_offset 6, -32
	pushq	%rbx
	.cfi_def_cfa_offset 40
	.cfi_offset 3, -40
	movq	%rsi, %rbx
	subq	$168, %rsp
	.cfi_def_cfa_offset 208
	movq	24(%rsi), %r12
	movq	32(%rsi), %rbp
	data16	leaq	_ZN4asio6detail15keyword_tss_ptrINS0_10call_stackINS0_15task_io_serviceENS0_27task_io_service_thread_infoEE7contextEE6value_E@tlsgd(%rip), %rdi
	.value	0x6666
	rex64
	call	__tls_get_addr@PLT
	movq	(%rax), %rax
	testq	%rax, %rax
	je	.L135
	movq	8(%rax), %rax
	testq	%rax, %rax
	je	.L135
	cmpq	$0, (%rax)
	je	.L136
.L135:
	movq	%rbx, %rdi
	call	_ZdlPv@PLT
.L134:
	testq	%r13, %r13
	je	.L99
	cmpq	$0, 16(%rbp)
	je	.L137
	leaq	112(%rsp), %rbx
	movq	%rbp, %rsi
	movq	%rbx, %rdi
.LEHB3:
	call	*24(%rbp)
.LEHE3:
	leaq	32(%rsp), %rax
	movq	%rbx, %xmm6
	movq	(%r12), %rbx
	movq	%r12, %xmm3
	movq	%rax, %xmm1
	leaq	8(%rsp), %rax
	punpcklqdq	%xmm6, %xmm3
	movq	_ZNSt17_Function_handlerIFSt10unique_ptrINSt13__future_base12_Result_baseENS2_8_DeleterEEvENS1_13_State_baseV27_SetterIN8opendnp315StackStatisticsEOS9_EEE10_M_managerERSt9_Any_dataRKSD_St18_Manager_operation@GOTPCREL(%rip), %xmm2
	movq	%rax, %xmm4
	leaq	16(%rsp), %rax
	movhps	_ZNSt17_Function_handlerIFSt10unique_ptrINSt13__future_base12_Result_baseENS2_8_DeleterEEvENS1_13_State_baseV27_SetterIN8opendnp315StackStatisticsEOS9_EEE9_M_invokeERKSt9_Any_data@GOTPCREL(%rip), %xmm2
	movq	%rax, %xmm0
	leaq	24(%rsp), %rax
	punpcklqdq	%xmm4, %xmm1
	movq	%rax, %xmm5
	punpcklqdq	%xmm5, %xmm0
	testq	%rbx, %rbx
	je	.L138
	leaq	7(%rsp), %rax
	leaq	48(%rsp), %rbp
	movaps	%xmm3, 48(%rsp)
	movq	%rax, 24(%rsp)
	movq	_ZNSt13__future_base13_State_baseV29_M_do_setEPSt8functionIFSt10unique_ptrINS_12_Result_baseENS3_8_DeleterEEvEEPb@GOTPCREL(%rip), %rax
	movaps	%xmm2, 64(%rsp)
	movaps	%xmm1, 80(%rsp)
	movaps	%xmm0, 96(%rsp)
	movb	$0, 7(%rsp)
	movq	%rbp, 16(%rsp)
	movq	%rbx, 8(%rsp)
	movq	%rax, 32(%rsp)
	movq	$0, 40(%rsp)
	data16	leaq	_ZSt15__once_callable@tlsgd(%rip), %rdi
	.value	0x6666
	rex64
	call	__tls_get_addr@PLT
	leaq	80(%rsp), %rdx
	movq	%rdx, (%rax)
	data16	leaq	_ZSt11__once_call@tlsgd(%rip), %rdi
	.value	0x6666
	rex64
	call	__tls_get_addr@PLT
	movq	_ZZNSt9once_flag18_Prepare_executionC4IZSt9call_onceIMNSt13__future_base13_State_baseV2EFvPSt8functionIFSt10unique_ptrINS3_12_Result_baseENS7_8_DeleterEEvEEPbEJPS4_SC_SD_EEvRS_OT_DpOT0_EUlvE_EERSI_ENUlvE_4_FUNEv@GOTPCREL(%rip), %rdx
	movq	__once_proxy@GOTPCREL(%rip), %rsi
	leaq	24(%rbx), %rdi
	movq	%rdx, (%rax)
.LEHB4:
	call	pthread_once@PLT
.LEHE4:
	testl	%eax, %eax
	jne	.L139
	data16	leaq	_ZSt15__once_callable@tlsgd(%rip), %rdi
	.value	0x6666
	rex64
	call	__tls_get_addr@PLT
	movq	$0, (%rax)
	data16	leaq	_ZSt11__once_call@tlsgd(%rip), %rdi
	.value	0x6666
	rex64
	call	__tls_get_addr@PLT
	movq	$0, (%rax)
	cmpb	$0, 7(%rsp)
	je	.L140
	leaq	16(%rbx), %rdi
	movl	$1, %eax
	xchgl	(%rdi), %eax
	testl	%eax, %eax
	js	.L113
.L116:
	movq	64(%rsp), %rax
	testq	%rax, %rax
	je	.L115
	movl	$3, %edx
	movq	%rbp, %rsi
	movq	%rbp, %rdi
	call	*%rax
.L115:
	sfence
.L99:
	addq	$168, %rsp
	.cfi_remember_state
	.cfi_def_cfa_offset 40
	popq	%rbx
	.cfi_def_cfa_offset 32
	popq	%rbp
	.cfi_def_cfa_offset 24
	popq	%r12
	.cfi_def_cfa_offset 16
	popq	%r13
	.cfi_def_cfa_offset 8
	ret
	.p2align 4,,10
	.p2align 3
.L136:
	.cfi_restore_state
	movzbl	40(%rbx), %edx
	movb	%dl, (%rbx)
	movq	%rbx, (%rax)
	jmp	.L134
	.p2align 4,,10
	.p2align 3
.L113:
.LEHB5:
	call	_ZNSt28__atomic_futex_unsigned_base19_M_futex_notify_allEPj@PLT
.LEHE5:
	jmp	.L116
.L120:
	movq	%rax, %rbx
	jmp	.L112
.L119:
	movq	%rax, %rdi
	jmp	.L118
.L137:
.LEHB6:
	call	_ZSt25__throw_bad_function_callv@PLT
.LEHE6:
.L111:
	data16	leaq	_ZSt15__once_callable@tlsgd(%rip), %rdi
	.value	0x6666
	rex64
	call	__tls_get_addr@PLT
	xorl	%edx, %edx
	movq	%rdx, (%rax)
	data16	leaq	_ZSt11__once_call@tlsgd(%rip), %rdi
	.value	0x6666
	rex64
	call	__tls_get_addr@PLT
	xorl	%ecx, %ecx
	movq	%rcx, (%rax)
.L112:
	movq	64(%rsp), %rax
	testq	%rax, %rax
	je	.L117
	movl	$3, %edx
	movq	%rbp, %rsi
	movq	%rbp, %rdi
	call	*%rax
.L117:
	movq	%rbx, %rdi
.L118:
	sfence
.LEHB7:
	call	_Unwind_Resume@PLT
.LEHE7:
.L138:
	movl	$3, %edi
.LEHB8:
	call	_ZSt20__throw_future_errori@PLT
.LEHE8:
.L121:
	movq	%rax, %rbx
	jmp	.L111
.L140:
	movl	$2, %edi
.LEHB9:
	call	_ZSt20__throw_future_errori@PLT
.LEHE9:
.L139:
	movl	%eax, %edi
.LEHB10:
	call	_ZSt20__throw_system_errori@PLT
.LEHE10:
	.cfi_endproc
.LFE11485:
	.section	.gcc_except_table._ZN4asio6detail18completion_handlerIZN7asiopal8Executor10ReturnFromIN8opendnp315StackStatisticsEEET_RKSt8functionIFS7_vEEEUlvE_E11do_completeEPNS0_15task_io_serviceEPNS0_25task_io_service_operationERKSt10error_codem,"aG",@progbits,_ZN4asio6detail18completion_handlerIZN7asiopal8Executor10ReturnFromIN8opendnp315StackStatisticsEEET_RKSt8functionIFS7_vEEEUlvE_E11do_completeEPNS0_15task_io_serviceEPNS0_25task_io_service_operationERKSt10error_codem,comdat
.LLSDA11485:
	.byte	0xff
	.byte	0xff
	.byte	0x1
	.uleb128 .LLSDACSE11485-.LLSDACSB11485
.LLSDACSB11485:
	.uleb128 .LEHB3-.LFB11485
	.uleb128 .LEHE3-.LEHB3
	.uleb128 .L119-.LFB11485
	.uleb128 0
	.uleb128 .LEHB4-.LFB11485
	.uleb128 .LEHE4-.LEHB4
	.uleb128 .L121-.LFB11485
	.uleb128 0
	.uleb128 .LEHB5-.LFB11485
	.uleb128 .LEHE5-.LEHB5
	.uleb128 .L120-.LFB11485
	.uleb128 0
	.uleb128 .LEHB6-.LFB11485
	.uleb128 .LEHE6-.LEHB6
	.uleb128 .L119-.LFB11485
	.uleb128 0
	.uleb128 .LEHB7-.LFB11485
	.uleb128 .LEHE7-.LEHB7
	.uleb128 0
	.uleb128 0
	.uleb128 .LEHB8-.LFB11485
	.uleb128 .LEHE8-.LEHB8
	.uleb128 .L119-.LFB11485
	.uleb128 0
	.uleb128 .LEHB9-.LFB11485
	.uleb128 .LEHE9-.LEHB9
	.uleb128 .L120-.LFB11485
	.uleb128 0
	.uleb128 .LEHB10-.LFB11485
	.uleb128 .LEHE10-.LEHB10
	.uleb128 .L121-.LFB11485
	.uleb128 0
.LLSDACSE11485:
	.section	.text._ZN4asio6detail18completion_handlerIZN7asiopal8Executor10ReturnFromIN8opendnp315StackStatisticsEEET_RKSt8functionIFS7_vEEEUlvE_E11do_completeEPNS0_15task_io_serviceEPNS0_25task_io_service_operationERKSt10error_codem,"axG",@progbits,_ZN4asio6detail18completion_handlerIZN7asiopal8Executor10ReturnFromIN8opendnp315StackStatisticsEEET_RKSt8functionIFS7_vEEEUlvE_E11do_completeEPNS0_15task_io_serviceEPNS0_25task_io_service_operationERKSt10error_codem,comdat
	.size	_ZN4asio6detail18completion_handlerIZN7asiopal8Executor10ReturnFromIN8opendnp315StackStatisticsEEET_RKSt8functionIFS7_vEEEUlvE_E11do_completeEPNS0_15task_io_serviceEPNS0_25task_io_service_operationERKSt10error_codem, .-_ZN4asio6detail18completion_handlerIZN7asiopal8Executor10ReturnFromIN8opendnp315StackStatisticsEEET_RKSt8functionIFS7_vEEEUlvE_E11do_completeEPNS0_15task_io_serviceEPNS0_25task_io_service_operationERKSt10error_codem
	.section	.text._ZN4asio6detail18completion_handlerIZN7asiopal8Executor10ReturnFromIbEET_RKSt8functionIFS5_vEEEUlvE_E11do_completeEPNS0_15task_io_serviceEPNS0_25task_io_service_operationERKSt10error_codem,"axG",@progbits,_ZN4asio6detail18completion_handlerIZN7asiopal8Executor10ReturnFromIbEET_RKSt8functionIFS5_vEEEUlvE_E11do_completeEPNS0_15task_io_serviceEPNS0_25task_io_service_operationERKSt10error_codem,comdat
	.p2align 4
	.weak	_ZN4asio6detail18completion_handlerIZN7asiopal8Executor10ReturnFromIbEET_RKSt8functionIFS5_vEEEUlvE_E11do_completeEPNS0_15task_io_serviceEPNS0_25task_io_service_operationERKSt10error_codem
	.type	_ZN4asio6detail18completion_handlerIZN7asiopal8Executor10ReturnFromIbEET_RKSt8functionIFS5_vEEEUlvE_E11do_completeEPNS0_15task_io_serviceEPNS0_25task_io_service_operationERKSt10error_codem, @function
_ZN4asio6detail18completion_handlerIZN7asiopal8Executor10ReturnFromIbEET_RKSt8functionIFS5_vEEEUlvE_E11do_completeEPNS0_15task_io_serviceEPNS0_25task_io_service_operationERKSt10error_codem:
.LFB11451:
	.cfi_startproc
	.cfi_personality 0x9b,DW.ref.__gxx_personality_v0
	.cfi_lsda 0x1b,.LLSDA11451
	pushq	%r13
	.cfi_def_cfa_offset 16
	.cfi_offset 13, -16
	movq	%rdi, %r13
	pushq	%r12
	.cfi_def_cfa_offset 24
	.cfi_offset 12, -24
	pushq	%rbp
	.cfi_def_cfa_offset 32
	.cfi_offset 6, -32
	pushq	%rbx
	.cfi_def_cfa_offset 40
	.cfi_offset 3, -40
	movq	%rsi, %rbx
	subq	$120, %rsp
	.cfi_def_cfa_offset 160
	movq	24(%rsi), %r12
	movq	32(%rsi), %rbp
	data16	leaq	_ZN4asio6detail15keyword_tss_ptrINS0_10call_stackINS0_15task_io_serviceENS0_27task_io_service_thread_infoEE7contextEE6value_E@tlsgd(%rip), %rdi
	.value	0x6666
	rex64
	call	__tls_get_addr@PLT
	movq	(%rax), %rax
	testq	%rax, %rax
	je	.L177
	movq	8(%rax), %rax
	testq	%rax, %rax
	je	.L177
	cmpq	$0, (%rax)
	je	.L178
.L177:
	movq	%rbx, %rdi
	call	_ZdlPv@PLT
.L176:
	testq	%r13, %r13
	je	.L141
	cmpq	$0, 16(%rbp)
	je	.L179
	movq	%rbp, %rdi
.LEHB11:
	call	*24(%rbp)
.LEHE11:
	leaq	8(%rsp), %rdx
	leaq	32(%rsp), %rcx
	movq	(%r12), %rbx
	movq	%r12, %xmm3
	movq	%rdx, %xmm4
	leaq	24(%rsp), %rdx
	movq	%rcx, %xmm1
	movb	%al, 6(%rsp)
	movq	%rdx, %xmm5
	leaq	16(%rsp), %rcx
	leaq	6(%rsp), %rdx
	movq	_ZNSt17_Function_handlerIFSt10unique_ptrINSt13__future_base12_Result_baseENS2_8_DeleterEEvENS1_13_State_baseV27_SetterIbObEEE10_M_managerERSt9_Any_dataRKSB_St18_Manager_operation@GOTPCREL(%rip), %xmm2
	movq	%rcx, %xmm0
	movq	%rdx, %xmm6
	punpcklqdq	%xmm4, %xmm1
	movhps	_ZNSt17_Function_handlerIFSt10unique_ptrINSt13__future_base12_Result_baseENS2_8_DeleterEEvENS1_13_State_baseV27_SetterIbObEEE9_M_invokeERKSt9_Any_data@GOTPCREL(%rip), %xmm2
	punpcklqdq	%xmm5, %xmm0
	punpcklqdq	%xmm6, %xmm3
	testq	%rbx, %rbx
	je	.L180
	leaq	7(%rsp), %rax
	leaq	48(%rsp), %rbp
	movaps	%xmm3, 48(%rsp)
	movq	%rax, 24(%rsp)
	movq	_ZNSt13__future_base13_State_baseV29_M_do_setEPSt8functionIFSt10unique_ptrINS_12_Result_baseENS3_8_DeleterEEvEEPb@GOTPCREL(%rip), %rax
	movaps	%xmm2, 64(%rsp)
	movaps	%xmm1, 80(%rsp)
	movaps	%xmm0, 96(%rsp)
	movb	$0, 7(%rsp)
	movq	%rbp, 16(%rsp)
	movq	%rbx, 8(%rsp)
	movq	%rax, 32(%rsp)
	movq	$0, 40(%rsp)
	data16	leaq	_ZSt15__once_callable@tlsgd(%rip), %rdi
	.value	0x6666
	rex64
	call	__tls_get_addr@PLT
	leaq	80(%rsp), %rdx
	movq	%rdx, (%rax)
	data16	leaq	_ZSt11__once_call@tlsgd(%rip), %rdi
	.value	0x6666
	rex64
	call	__tls_get_addr@PLT
	movq	_ZZNSt9once_flag18_Prepare_executionC4IZSt9call_onceIMNSt13__future_base13_State_baseV2EFvPSt8functionIFSt10unique_ptrINS3_12_Result_baseENS7_8_DeleterEEvEEPbEJPS4_SC_SD_EEvRS_OT_DpOT0_EUlvE_EERSI_ENUlvE_4_FUNEv@GOTPCREL(%rip), %rdx
	movq	__once_proxy@GOTPCREL(%rip), %rsi
	leaq	24(%rbx), %rdi
	movq	%rdx, (%rax)
.LEHB12:
	call	pthread_once@PLT
.LEHE12:
	testl	%eax, %eax
	jne	.L181
	data16	leaq	_ZSt15__once_callable@tlsgd(%rip), %rdi
	.value	0x6666
	rex64
	call	__tls_get_addr@PLT
	movq	$0, (%rax)
	data16	leaq	_ZSt11__once_call@tlsgd(%rip), %rdi
	.value	0x6666
	rex64
	call	__tls_get_addr@PLT
	movq	$0, (%rax)
	cmpb	$0, 7(%rsp)
	je	.L182
	leaq	16(%rbx), %rdi
	movl	$1, %eax
	xchgl	(%rdi), %eax
	testl	%eax, %eax
	js	.L155
.L158:
	movq	64(%rsp), %rax
	testq	%rax, %rax
	je	.L157
	movl	$3, %edx
	movq	%rbp, %rsi
	movq	%rbp, %rdi
	call	*%rax
.L157:
	sfence
.L141:
	addq	$120, %rsp
	.cfi_remember_state
	.cfi_def_cfa_offset 40
	popq	%rbx
	.cfi_def_cfa_offset 32
	popq	%rbp
	.cfi_def_cfa_offset 24
	popq	%r12
	.cfi_def_cfa_offset 16
	popq	%r13
	.cfi_def_cfa_offset 8
	ret
	.p2align 4,,10
	.p2align 3
.L178:
	.cfi_restore_state
	movzbl	40(%rbx), %edx
	movb	%dl, (%rbx)
	movq	%rbx, (%rax)
	jmp	.L176
	.p2align 4,,10
	.p2align 3
.L155:
.LEHB13:
	call	_ZNSt28__atomic_futex_unsigned_base19_M_futex_notify_allEPj@PLT
.LEHE13:
	jmp	.L158
.L162:
	movq	%rax, %rbx
	jmp	.L154
.L161:
	movq	%rax, %rdi
	jmp	.L160
.L179:
.LEHB14:
	call	_ZSt25__throw_bad_function_callv@PLT
.LEHE14:
.L153:
	data16	leaq	_ZSt15__once_callable@tlsgd(%rip), %rdi
	.value	0x6666
	rex64
	call	__tls_get_addr@PLT
	xorl	%edx, %edx
	movq	%rdx, (%rax)
	data16	leaq	_ZSt11__once_call@tlsgd(%rip), %rdi
	.value	0x6666
	rex64
	call	__tls_get_addr@PLT
	xorl	%ecx, %ecx
	movq	%rcx, (%rax)
.L154:
	movq	64(%rsp), %rax
	testq	%rax, %rax
	je	.L159
	movl	$3, %edx
	movq	%rbp, %rsi
	movq	%rbp, %rdi
	call	*%rax
.L159:
	movq	%rbx, %rdi
.L160:
	sfence
.LEHB15:
	call	_Unwind_Resume@PLT
.LEHE15:
.L180:
	movl	$3, %edi
.LEHB16:
	call	_ZSt20__throw_future_errori@PLT
.LEHE16:
.L163:
	movq	%rax, %rbx
	jmp	.L153
.L182:
	movl	$2, %edi
.LEHB17:
	call	_ZSt20__throw_future_errori@PLT
.LEHE17:
.L181:
	movl	%eax, %edi
.LEHB18:
	call	_ZSt20__throw_system_errori@PLT
.LEHE18:
	.cfi_endproc
.LFE11451:
	.section	.gcc_except_table._ZN4asio6detail18completion_handlerIZN7asiopal8Executor10ReturnFromIbEET_RKSt8functionIFS5_vEEEUlvE_E11do_completeEPNS0_15task_io_serviceEPNS0_25task_io_service_operationERKSt10error_codem,"aG",@progbits,_ZN4asio6detail18completion_handlerIZN7asiopal8Executor10ReturnFromIbEET_RKSt8functionIFS5_vEEEUlvE_E11do_completeEPNS0_15task_io_serviceEPNS0_25task_io_service_operationERKSt10error_codem,comdat
.LLSDA11451:
	.byte	0xff
	.byte	0xff
	.byte	0x1
	.uleb128 .LLSDACSE11451-.LLSDACSB11451
.LLSDACSB11451:
	.uleb128 .LEHB11-.LFB11451
	.uleb128 .LEHE11-.LEHB11
	.uleb128 .L161-.LFB11451
	.uleb128 0
	.uleb128 .LEHB12-.LFB11451
	.uleb128 .LEHE12-.LEHB12
	.uleb128 .L163-.LFB11451
	.uleb128 0
	.uleb128 .LEHB13-.LFB11451
	.uleb128 .LEHE13-.LEHB13
	.uleb128 .L162-.LFB11451
	.uleb128 0
	.uleb128 .LEHB14-.LFB11451
	.uleb128 .LEHE14-.LEHB14
	.uleb128 .L161-.LFB11451
	.uleb128 0
	.uleb128 .LEHB15-.LFB11451
	.uleb128 .LEHE15-.LEHB15
	.uleb128 0
	.uleb128 0
	.uleb128 .LEHB16-.LFB11451
	.uleb128 .LEHE16-.LEHB16
	.uleb128 .L161-.LFB11451
	.uleb128 0
	.uleb128 .LEHB17-.LFB11451
	.uleb128 .LEHE17-.LEHB17
	.uleb128 .L162-.LFB11451
	.uleb128 0
	.uleb128 .LEHB18-.LFB11451
	.uleb128 .LEHE18-.LEHB18
	.uleb128 .L163-.LFB11451
	.uleb128 0
.LLSDACSE11451:
	.section	.text._ZN4asio6detail18completion_handlerIZN7asiopal8Executor10ReturnFromIbEET_RKSt8functionIFS5_vEEEUlvE_E11do_completeEPNS0_15task_io_serviceEPNS0_25task_io_service_operationERKSt10error_codem,"axG",@progbits,_ZN4asio6detail18completion_handlerIZN7asiopal8Executor10ReturnFromIbEET_RKSt8functionIFS5_vEEEUlvE_E11do_completeEPNS0_15task_io_serviceEPNS0_25task_io_service_operationERKSt10error_codem,comdat
	.size	_ZN4asio6detail18completion_handlerIZN7asiopal8Executor10ReturnFromIbEET_RKSt8functionIFS5_vEEEUlvE_E11do_completeEPNS0_15task_io_serviceEPNS0_25task_io_service_operationERKSt10error_codem, .-_ZN4asio6detail18completion_handlerIZN7asiopal8Executor10ReturnFromIbEET_RKSt8functionIFS5_vEEEUlvE_E11do_completeEPNS0_15task_io_serviceEPNS0_25task_io_service_operationERKSt10error_codem
	.section	.rodata._ZNK4asio6detail15system_category7messageB5cxx11Ei.str1.8,"aMS",@progbits,1
	.align 8
.LC4:
	.string	"basic_string: construction from null is not valid"
	.section	.text._ZNK4asio6detail15system_category7messageB5cxx11Ei,"axG",@progbits,_ZNK4asio6detail15system_category7messageB5cxx11Ei,comdat
	.align 2
	.p2align 4
	.weak	_ZNK4asio6detail15system_category7messageB5cxx11Ei
	.type	_ZNK4asio6detail15system_category7messageB5cxx11Ei, @function
_ZNK4asio6detail15system_category7messageB5cxx11Ei:
.LFB2693:
	.cfi_startproc
	pushq	%r12
	.cfi_def_cfa_offset 16
	.cfi_offset 12, -16
	pushq	%rbp
	.cfi_def_cfa_offset 24
	.cfi_offset 6, -24
	pushq	%rbx
	.cfi_def_cfa_offset 32
	.cfi_offset 3, -32
	movq	%rdi, %rbx
	subq	$288, %rsp
	.cfi_def_cfa_offset 320
	cmpl	$125, %edx
	je	.L195
	pxor	%xmm0, %xmm0
	leaq	32(%rsp), %rsi
	leaq	16(%rbx), %rbp
	movl	%edx, %edi
	movl	$256, %edx
	movaps	%xmm0, 32(%rsp)
	movaps	%xmm0, 48(%rsp)
	movaps	%xmm0, 64(%rsp)
	movaps	%xmm0, 80(%rsp)
	movaps	%xmm0, 96(%rsp)
	movaps	%xmm0, 112(%rsp)
	movaps	%xmm0, 128(%rsp)
	movaps	%xmm0, 144(%rsp)
	movaps	%xmm0, 160(%rsp)
	movaps	%xmm0, 176(%rsp)
	movaps	%xmm0, 192(%rsp)
	movaps	%xmm0, 208(%rsp)
	movaps	%xmm0, 224(%rsp)
	movaps	%xmm0, 240(%rsp)
	movaps	%xmm0, 256(%rsp)
	movaps	%xmm0, 272(%rsp)
	call	strerror_r@PLT
	movq	%rbp, (%rbx)
	movq	%rax, %r12
	testq	%rax, %rax
	je	.L196
	movq	%rax, %rdi
	call	strlen@PLT
	movq	%rax, 24(%rsp)
	movq	%rax, %rcx
	cmpq	$15, %rax
	ja	.L197
	cmpq	$1, %rax
	jne	.L189
	movzbl	(%r12), %edx
	movb	%dl, 16(%rbx)
.L190:
	movq	%rax, 8(%rbx)
	movb	$0, 0(%rbp,%rax)
	addq	$288, %rsp
	.cfi_remember_state
	.cfi_def_cfa_offset 32
	movq	%rbx, %rax
	popq	%rbx
	.cfi_def_cfa_offset 24
	popq	%rbp
	.cfi_def_cfa_offset 16
	popq	%r12
	.cfi_def_cfa_offset 8
	ret
	.p2align 4,,10
	.p2align 3
.L197:
	.cfi_restore_state
	leaq	24(%rsp), %rsi
	xorl	%edx, %edx
	movq	%rbx, %rdi
	movq	%rax, 8(%rsp)
	call	_ZNSt7__cxx1112basic_stringIcSt11char_traitsIcESaIcEE9_M_createERmm@PLT
	movq	8(%rsp), %rcx
	movq	%rax, (%rbx)
	movq	%rax, %rbp
	movq	24(%rsp), %rax
	movq	%rax, 16(%rbx)
.L188:
	movq	%rbp, %rdi
	movq	%rcx, %rdx
	movq	%r12, %rsi
	call	memcpy@PLT
	movq	24(%rsp), %rax
	movq	(%rbx), %rbp
	jmp	.L190
	.p2align 4,,10
	.p2align 3
.L195:
	leaq	16(%rdi), %rax
	leaq	32(%rsp), %rsi
	xorl	%edx, %edx
	movq	$18, 32(%rsp)
	movq	%rax, (%rdi)
	call	_ZNSt7__cxx1112basic_stringIcSt11char_traitsIcESaIcEE9_M_createERmm@PLT
	movq	32(%rsp), %rdx
	movdqa	.LC5(%rip), %xmm0
	movq	%rax, (%rbx)
	movq	%rdx, 16(%rbx)
	movl	$11876, %edx
	movw	%dx, 16(%rax)
	movups	%xmm0, (%rax)
	movq	32(%rsp), %rax
	movq	(%rbx), %rdx
	movq	%rax, 8(%rbx)
	movb	$0, (%rdx,%rax)
	addq	$288, %rsp
	.cfi_remember_state
	.cfi_def_cfa_offset 32
	movq	%rbx, %rax
	popq	%rbx
	.cfi_def_cfa_offset 24
	popq	%rbp
	.cfi_def_cfa_offset 16
	popq	%r12
	.cfi_def_cfa_offset 8
	ret
	.p2align 4,,10
	.p2align 3
.L189:
	.cfi_restore_state
	testq	%rax, %rax
	je	.L190
	jmp	.L188
.L196:
	leaq	.LC4(%rip), %rdi
	call	_ZSt19__throw_logic_errorPKc@PLT
	.cfi_endproc
.LFE2693:
	.size	_ZNK4asio6detail15system_category7messageB5cxx11Ei, .-_ZNK4asio6detail15system_category7messageB5cxx11Ei
	.section	.text._ZNK4asio5error6detail17addrinfo_category7messageB5cxx11Ei,"axG",@progbits,_ZNK4asio5error6detail17addrinfo_category7messageB5cxx11Ei,comdat
	.align 2
	.p2align 4
	.weak	_ZNK4asio5error6detail17addrinfo_category7messageB5cxx11Ei
	.type	_ZNK4asio5error6detail17addrinfo_category7messageB5cxx11Ei, @function
_ZNK4asio5error6detail17addrinfo_category7messageB5cxx11Ei:
.LFB2747:
	.cfi_startproc
	pushq	%rbx
	.cfi_def_cfa_offset 16
	.cfi_offset 3, -16
	leaq	16(%rdi), %rax
	movq	%rdi, %rbx
	subq	$16, %rsp
	.cfi_def_cfa_offset 32
	movq	%rax, (%rdi)
	cmpl	$-8, %edx
	je	.L203
	cmpl	$-7, %edx
	je	.L204
	movq	$19, 8(%rsp)
	leaq	8(%rsp), %rsi
	xorl	%edx, %edx
	call	_ZNSt7__cxx1112basic_stringIcSt11char_traitsIcESaIcEE9_M_createERmm@PLT
	movq	8(%rsp), %rdx
	movdqa	.LC10(%rip), %xmm0
	movq	%rax, (%rbx)
	movq	%rdx, 16(%rbx)
	movups	%xmm0, (%rax)
	movl	$1919906418, 15(%rax)
	movq	8(%rsp), %rax
	movq	(%rbx), %rdx
	movq	%rax, 8(%rbx)
	movb	$0, (%rdx,%rax)
	addq	$16, %rsp
	.cfi_remember_state
	.cfi_def_cfa_offset 16
	movq	%rbx, %rax
	popq	%rbx
	.cfi_def_cfa_offset 8
	ret
	.p2align 4,,10
	.p2align 3
.L204:
	.cfi_restore_state
	movq	$25, 8(%rsp)
	leaq	8(%rsp), %rsi
	xorl	%edx, %edx
	call	_ZNSt7__cxx1112basic_stringIcSt11char_traitsIcESaIcEE9_M_createERmm@PLT
	movq	8(%rsp), %rdx
	movdqa	.LC8(%rip), %xmm0
	movq	%rax, (%rbx)
	movq	%rdx, 16(%rbx)
	movups	%xmm0, (%rax)
	movdqa	.LC9(%rip), %xmm0
	movups	%xmm0, 9(%rax)
	movq	8(%rsp), %rax
	movq	(%rbx), %rdx
	movq	%rax, 8(%rbx)
	movb	$0, (%rdx,%rax)
	addq	$16, %rsp
	.cfi_remember_state
	.cfi_def_cfa_offset 16
	movq	%rbx, %rax
	popq	%rbx
	.cfi_def_cfa_offset 8
	ret
	.p2align 4,,10
	.p2align 3
.L203:
	.cfi_restore_state
	movq	$17, 8(%rsp)
	leaq	8(%rsp), %rsi
	xorl	%edx, %edx
	call	_ZNSt7__cxx1112basic_stringIcSt11char_traitsIcESaIcEE9_M_createERmm@PLT
	movq	8(%rsp), %rdx
	movdqa	.LC7(%rip), %xmm0
	movq	%rax, (%rbx)
	movq	%rdx, 16(%rbx)
	movb	$100, 16(%rax)
	movups	%xmm0, (%rax)
	movq	8(%rsp), %rax
	movq	(%rbx), %rdx
	movq	%rax, 8(%rbx)
	movb	$0, (%rdx,%rax)
	addq	$16, %rsp
	.cfi_def_cfa_offset 16
	movq	%rbx, %rax
	popq	%rbx
	.cfi_def_cfa_offset 8
	ret
	.cfi_endproc
.LFE2747:
	.size	_ZNK4asio5error6detail17addrinfo_category7messageB5cxx11Ei, .-_ZNK4asio5error6detail17addrinfo_category7messageB5cxx11Ei
	.section	.text._ZNK4asio5error6detail14netdb_category7messageB5cxx11Ei,"axG",@progbits,_ZNK4asio5error6detail14netdb_category7messageB5cxx11Ei,comdat
	.align 2
	.p2align 4
	.weak	_ZNK4asio5error6detail14netdb_category7messageB5cxx11Ei
	.type	_ZNK4asio5error6detail14netdb_category7messageB5cxx11Ei, @function
_ZNK4asio5error6detail14netdb_category7messageB5cxx11Ei:
.LFB2737:
	.cfi_startproc
	pushq	%rbx
	.cfi_def_cfa_offset 16
	.cfi_offset 3, -16
	leaq	16(%rdi), %rax
	movq	%rdi, %rbx
	subq	$16, %rsp
	.cfi_def_cfa_offset 32
	movq	%rax, (%rdi)
	cmpl	$1, %edx
	je	.L212
	cmpl	$2, %edx
	je	.L213
	cmpl	$4, %edx
	je	.L214
	cmpl	$3, %edx
	je	.L215
	movq	$16, 8(%rsp)
	leaq	8(%rsp), %rsi
	xorl	%edx, %edx
	call	_ZNSt7__cxx1112basic_stringIcSt11char_traitsIcESaIcEE9_M_createERmm@PLT
	movq	8(%rsp), %rdx
	movdqa	.LC21(%rip), %xmm0
	movq	%rax, (%rbx)
	movq	%rdx, 16(%rbx)
	movups	%xmm0, (%rax)
	movq	8(%rsp), %rax
	movq	(%rbx), %rdx
	movq	%rax, 8(%rbx)
	movb	$0, (%rdx,%rax)
	addq	$16, %rsp
	.cfi_remember_state
	.cfi_def_cfa_offset 16
	movq	%rbx, %rax
	popq	%rbx
	.cfi_def_cfa_offset 8
	ret
	.p2align 4,,10
	.p2align 3
.L212:
	.cfi_restore_state
	movq	$30, 8(%rsp)
	leaq	8(%rsp), %rsi
	xorl	%edx, %edx
	call	_ZNSt7__cxx1112basic_stringIcSt11char_traitsIcESaIcEE9_M_createERmm@PLT
	movq	8(%rsp), %rdx
	movdqa	.LC11(%rip), %xmm0
	movq	%rax, (%rbx)
	movq	%rdx, 16(%rbx)
	movups	%xmm0, (%rax)
	movdqa	.LC12(%rip), %xmm0
	movups	%xmm0, 14(%rax)
	movq	8(%rsp), %rax
	movq	(%rbx), %rdx
	movq	%rax, 8(%rbx)
	movb	$0, (%rdx,%rax)
	addq	$16, %rsp
	.cfi_remember_state
	.cfi_def_cfa_offset 16
	movq	%rbx, %rax
	popq	%rbx
	.cfi_def_cfa_offset 8
	ret
	.p2align 4,,10
	.p2align 3
.L215:
	.cfi_restore_state
	movq	$55, 8(%rsp)
	leaq	8(%rsp), %rsi
	xorl	%edx, %edx
	call	_ZNSt7__cxx1112basic_stringIcSt11char_traitsIcESaIcEE9_M_createERmm@PLT
	movq	8(%rsp), %rdx
	movdqa	.LC18(%rip), %xmm0
	movabsq	$8103501230877974629, %rcx
	movq	%rax, (%rbx)
	movq	%rdx, 16(%rbx)
	movups	%xmm0, (%rax)
	movdqa	.LC19(%rip), %xmm0
	movups	%xmm0, 16(%rax)
	movdqa	.LC20(%rip), %xmm0
	movups	%xmm0, 32(%rax)
	movq	%rcx, 47(%rax)
	movq	8(%rsp), %rax
	movq	(%rbx), %rdx
	movq	%rax, 8(%rbx)
	movb	$0, (%rdx,%rax)
	addq	$16, %rsp
	.cfi_remember_state
	.cfi_def_cfa_offset 16
	movq	%rbx, %rax
	popq	%rbx
	.cfi_def_cfa_offset 8
	ret
	.p2align 4,,10
	.p2align 3
.L213:
	.cfi_restore_state
	movq	$51, 8(%rsp)
	leaq	8(%rsp), %rsi
	xorl	%edx, %edx
	call	_ZNSt7__cxx1112basic_stringIcSt11char_traitsIcESaIcEE9_M_createERmm@PLT
	movq	8(%rsp), %rdx
	movdqa	.LC11(%rip), %xmm0
	movq	%rax, (%rbx)
	movq	%rdx, 16(%rbx)
	movups	%xmm0, (%rax)
	movdqa	.LC13(%rip), %xmm0
	movups	%xmm0, 16(%rax)
	movdqa	.LC14(%rip), %xmm0
	movups	%xmm0, 32(%rax)
	movl	$1919251553, 47(%rax)
	movq	8(%rsp), %rax
	movq	(%rbx), %rdx
	movq	%rax, 8(%rbx)
	movb	$0, (%rdx,%rax)
	addq	$16, %rsp
	.cfi_remember_state
	.cfi_def_cfa_offset 16
	movq	%rbx, %rax
	popq	%rbx
	.cfi_def_cfa_offset 8
	ret
	.p2align 4,,10
	.p2align 3
.L214:
	.cfi_restore_state
	movq	$56, 8(%rsp)
	leaq	8(%rsp), %rsi
	xorl	%edx, %edx
	call	_ZNSt7__cxx1112basic_stringIcSt11char_traitsIcESaIcEE9_M_createERmm@PLT
	movq	8(%rsp), %rdx
	movdqa	.LC15(%rip), %xmm0
	movabsq	$7022344801645520244, %rcx
	movq	%rax, (%rbx)
	movq	%rdx, 16(%rbx)
	movups	%xmm0, (%rax)
	movdqa	.LC16(%rip), %xmm0
	movq	%rcx, 48(%rax)
	movups	%xmm0, 16(%rax)
	movdqa	.LC17(%rip), %xmm0
	movups	%xmm0, 32(%rax)
	movq	8(%rsp), %rax
	movq	(%rbx), %rdx
	movq	%rax, 8(%rbx)
	movb	$0, (%rdx,%rax)
	addq	$16, %rsp
	.cfi_def_cfa_offset 16
	movq	%rbx, %rax
	popq	%rbx
	.cfi_def_cfa_offset 8
	ret
	.cfi_endproc
.LFE2737:
	.size	_ZNK4asio5error6detail14netdb_category7messageB5cxx11Ei, .-_ZNK4asio5error6detail14netdb_category7messageB5cxx11Ei
	.section	.text._ZNK4asio5error6detail13misc_category7messageB5cxx11Ei,"axG",@progbits,_ZNK4asio5error6detail13misc_category7messageB5cxx11Ei,comdat
	.align 2
	.p2align 4
	.weak	_ZNK4asio5error6detail13misc_category7messageB5cxx11Ei
	.type	_ZNK4asio5error6detail13misc_category7messageB5cxx11Ei, @function
_ZNK4asio5error6detail13misc_category7messageB5cxx11Ei:
.LFB2757:
	.cfi_startproc
	cmpl	$1, %edx
	je	.L225
	cmpl	$2, %edx
	je	.L226
	leaq	16(%rdi), %rax
	subq	$40, %rsp
	.cfi_def_cfa_offset 48
	movq	%rax, (%rdi)
	cmpl	$3, %edx
	je	.L227
	cmpl	$4, %edx
	je	.L228
	movabsq	$8316298233121436513, %rcx
	movq	$15, 8(%rdi)
	movq	%rdi, %rax
	movq	%rcx, 16(%rdi)
	movabsq	$8245935278387127155, %rcx
	movq	%rcx, 23(%rdi)
	movb	$0, 31(%rdi)
	addq	$40, %rsp
	.cfi_def_cfa_offset 8
	ret
	.p2align 4,,10
	.p2align 3
.L225:
	leaq	16(%rdi), %rax
	movl	$1852141679, 24(%rdi)
	movabsq	$2340011850872286273, %rsi
	movq	%rax, (%rdi)
	movq	%rdi, %rax
	movq	%rsi, 16(%rdi)
	movq	$12, 8(%rdi)
	movb	$0, 28(%rdi)
	ret
	.p2align 4,,10
	.p2align 3
.L228:
	.cfi_def_cfa_offset 48
	leaq	24(%rsp), %rsi
	xorl	%edx, %edx
	movq	%rdi, 8(%rsp)
	movq	$57, 24(%rsp)
	call	_ZNSt7__cxx1112basic_stringIcSt11char_traitsIcESaIcEE9_M_createERmm@PLT
	movq	24(%rsp), %rdx
	movq	8(%rsp), %rdi
	movdqa	.LC23(%rip), %xmm0
	movq	%rax, (%rdi)
	movq	%rdx, 16(%rdi)
	movups	%xmm0, (%rax)
	movdqa	.LC24(%rip), %xmm0
	movups	%xmm0, 16(%rax)
	movdqa	.LC25(%rip), %xmm0
	movups	%xmm0, 32(%rax)
	movdqa	.LC26(%rip), %xmm0
	movups	%xmm0, 41(%rax)
	movq	24(%rsp), %rax
	movq	(%rdi), %rdx
	movq	%rax, 8(%rdi)
	movb	$0, (%rdx,%rax)
	movq	%rdi, %rax
	addq	$40, %rsp
	.cfi_def_cfa_offset 8
	ret
	.p2align 4,,10
	.p2align 3
.L226:
	leaq	16(%rdi), %rax
	movq	$11, 8(%rdi)
	movabsq	$7358994418594246213, %rsi
	movq	%rax, (%rdi)
	movq	%rdi, %rax
	movq	%rsi, 16(%rdi)
	movb	$0, 27(%rdi)
	movl	$1701603686, 23(%rdi)
	ret
	.p2align 4,,10
	.p2align 3
.L227:
	.cfi_def_cfa_offset 48
	leaq	24(%rsp), %rsi
	xorl	%edx, %edx
	movq	%rdi, 8(%rsp)
	movq	$17, 24(%rsp)
	call	_ZNSt7__cxx1112basic_stringIcSt11char_traitsIcESaIcEE9_M_createERmm@PLT
	movq	8(%rsp), %rdi
	movq	24(%rsp), %rdx
	movdqa	.LC22(%rip), %xmm0
	movq	%rax, (%rdi)
	movq	%rdx, 16(%rdi)
	movb	$100, 16(%rax)
	movups	%xmm0, (%rax)
	movq	24(%rsp), %rax
	movq	(%rdi), %rdx
	movq	%rax, 8(%rdi)
	movb	$0, (%rdx,%rax)
	movq	%rdi, %rax
	addq	$40, %rsp
	.cfi_def_cfa_offset 8
	ret
	.cfi_endproc
.LFE2757:
	.size	_ZNK4asio5error6detail13misc_category7messageB5cxx11Ei, .-_ZNK4asio5error6detail13misc_category7messageB5cxx11Ei
	.section	.text._ZNSt16_Sp_counted_baseILN9__gnu_cxx12_Lock_policyE2EE24_M_release_last_use_coldEv,"axG",@progbits,_ZNSt16_Sp_counted_baseILN9__gnu_cxx12_Lock_policyE2EE24_M_release_last_use_coldEv,comdat
	.align 2
	.p2align 4
	.weak	_ZNSt16_Sp_counted_baseILN9__gnu_cxx12_Lock_policyE2EE24_M_release_last_use_coldEv
	.type	_ZNSt16_Sp_counted_baseILN9__gnu_cxx12_Lock_policyE2EE24_M_release_last_use_coldEv, @function
_ZNSt16_Sp_counted_baseILN9__gnu_cxx12_Lock_policyE2EE24_M_release_last_use_coldEv:
.LFB8520:
	.cfi_startproc
	pushq	%rbx
	.cfi_def_cfa_offset 16
	.cfi_offset 3, -16
	movq	(%rdi), %rax
	movq	%rdi, %rbx
	call	*16(%rax)
	movq	__libc_single_threaded@GOTPCREL(%rip), %rax
	cmpb	$0, (%rax)
	je	.L230
	movl	12(%rbx), %eax
	leal	-1(%rax), %edx
	movl	%edx, 12(%rbx)
.L231:
	cmpl	$1, %eax
	je	.L234
	popq	%rbx
	.cfi_remember_state
	.cfi_def_cfa_offset 8
	ret
	.p2align 4,,10
	.p2align 3
.L234:
	.cfi_restore_state
	movq	(%rbx), %rax
	movq	%rbx, %rdi
	popq	%rbx
	.cfi_remember_state
	.cfi_def_cfa_offset 8
	movq	24(%rax), %rax
	jmp	*%rax
	.p2align 4,,10
	.p2align 3
.L230:
	.cfi_restore_state
	movl	$-1, %eax
	lock xaddl	%eax, 12(%rbx)
	jmp	.L231
	.cfi_endproc
.LFE8520:
	.size	_ZNSt16_Sp_counted_baseILN9__gnu_cxx12_Lock_policyE2EE24_M_release_last_use_coldEv, .-_ZNSt16_Sp_counted_baseILN9__gnu_cxx12_Lock_policyE2EE24_M_release_last_use_coldEv
	.section	.text._ZNSt16_Sp_counted_baseILN9__gnu_cxx12_Lock_policyE2EE10_M_releaseEv,"axG",@progbits,_ZNSt16_Sp_counted_baseILN9__gnu_cxx12_Lock_policyE2EE10_M_releaseEv,comdat
	.align 2
	.p2align 4
	.weak	_ZNSt16_Sp_counted_baseILN9__gnu_cxx12_Lock_policyE2EE10_M_releaseEv
	.type	_ZNSt16_Sp_counted_baseILN9__gnu_cxx12_Lock_policyE2EE10_M_releaseEv, @function
_ZNSt16_Sp_counted_baseILN9__gnu_cxx12_Lock_policyE2EE10_M_releaseEv:
.LFB1172:
	.cfi_startproc
	movabsq	$4294967297, %rax
	movq	8(%rdi), %rdx
	cmpq	%rax, %rdx
	je	.L243
	movq	__libc_single_threaded@GOTPCREL(%rip), %rax
	cmpb	$0, (%rax)
	je	.L237
	movl	8(%rdi), %eax
	leal	-1(%rax), %edx
	movl	%edx, 8(%rdi)
.L238:
	cmpl	$1, %eax
	je	.L244
	ret
	.p2align 4,,10
	.p2align 3
.L237:
	leaq	8(%rdi), %rcx
	movl	$-1, %eax
	lock xaddl	%eax, (%rcx)
	jmp	.L238
	.p2align 4,,10
	.p2align 3
.L243:
	subq	$24, %rsp
	.cfi_def_cfa_offset 32
	movq	(%rdi), %rax
	movq	$0, 8(%rdi)
	movq	%rdi, 8(%rsp)
	call	*16(%rax)
	movq	8(%rsp), %rdi
	movq	(%rdi), %rax
	movq	24(%rax), %rax
	addq	$24, %rsp
	.cfi_def_cfa_offset 8
	jmp	*%rax
	.p2align 4,,10
	.p2align 3
.L244:
	jmp	_ZNSt16_Sp_counted_baseILN9__gnu_cxx12_Lock_policyE2EE24_M_release_last_use_coldEv@PLT
	.cfi_endproc
.LFE1172:
	.size	_ZNSt16_Sp_counted_baseILN9__gnu_cxx12_Lock_policyE2EE10_M_releaseEv, .-_ZNSt16_Sp_counted_baseILN9__gnu_cxx12_Lock_policyE2EE10_M_releaseEv
	.section	.text._ZN8asiodnp315OutstationStack13BeginTransmitERKN7openpal6RSliceERN8opendnp312ILinkSessionE,"axG",@progbits,_ZN8asiodnp315OutstationStack13BeginTransmitERKN7openpal6RSliceERN8opendnp312ILinkSessionE,comdat
	.p2align 4
	.weak	_ZThn16_N8asiodnp315OutstationStack13BeginTransmitERKN7openpal6RSliceERN8opendnp312ILinkSessionE
	.type	_ZThn16_N8asiodnp315OutstationStack13BeginTransmitERKN7openpal6RSliceERN8opendnp312ILinkSessionE, @function
_ZThn16_N8asiodnp315OutstationStack13BeginTransmitERKN7openpal6RSliceERN8opendnp312ILinkSessionE:
.LFB12054:
	.cfi_startproc
	.cfi_personality 0x9b,DW.ref.__gxx_personality_v0
	.cfi_lsda 0x1b,.LLSDA12054
	pushq	%rbx
	.cfi_def_cfa_offset 16
	.cfi_offset 3, -16
	subq	$32, %rsp
	.cfi_def_cfa_offset 48
	movq	16(%rdi), %rdx
	movq	72(%rdi), %r8
	testq	%rdx, %rdx
	je	.L247
	movl	8(%rdx), %eax
	movq	%rsi, %r9
	leaq	8(%rdx), %rcx
.L249:
	testl	%eax, %eax
	je	.L247
	leal	1(%rax), %esi
	lock cmpxchgl	%esi, (%rcx)
	jne	.L249
	movq	8(%rdi), %rax
	movq	%rdx, %xmm1
	leaq	16(%rsp), %rsi
	movq	%r9, %rdx
	movq	%r8, %rdi
	leaq	8(%rax), %rcx
	testq	%rax, %rax
	cmovne	%rcx, %rax
	movq	%rax, %xmm0
	punpcklqdq	%xmm1, %xmm0
	movaps	%xmm0, 16(%rsp)
.LEHB19:
	call	_ZN8asiodnp39IOHandler13BeginTransmitERKSt10shared_ptrIN8opendnp312ILinkSessionEERKN7openpal6RSliceE@PLT
.LEHE19:
	movq	24(%rsp), %rdi
	testq	%rdi, %rdi
	je	.L245
	movq	8(%rdi), %rdx
	leaq	8(%rdi), %rcx
	movabsq	$4294967297, %rax
	cmpq	%rax, %rdx
	je	.L269
	movq	__libc_single_threaded@GOTPCREL(%rip), %rax
	cmpb	$0, (%rax)
	je	.L253
	movl	8(%rdi), %eax
	leal	-1(%rax), %edx
	movl	%edx, 8(%rdi)
.L254:
	cmpl	$1, %eax
	je	.L270
.L245:
	addq	$32, %rsp
	.cfi_remember_state
	.cfi_def_cfa_offset 16
	popq	%rbx
	.cfi_def_cfa_offset 8
	ret
	.p2align 4,,10
	.p2align 3
.L269:
	.cfi_restore_state
	movq	(%rdi), %rax
	movq	%rdi, 8(%rsp)
	movq	$0, 8(%rdi)
	call	*16(%rax)
	movq	8(%rsp), %rdi
	movq	(%rdi), %rax
	call	*24(%rax)
	addq	$32, %rsp
	.cfi_remember_state
	.cfi_def_cfa_offset 16
	popq	%rbx
	.cfi_def_cfa_offset 8
	ret
	.p2align 4,,10
	.p2align 3
.L253:
	.cfi_restore_state
	movl	$-1, %eax
	lock xaddl	%eax, (%rcx)
	jmp	.L254
	.p2align 4,,10
	.p2align 3
.L270:
	call	_ZNSt16_Sp_counted_baseILN9__gnu_cxx12_Lock_policyE2EE24_M_release_last_use_coldEv@PLT
	jmp	.L245
.L260:
	movq	%rax, %rbx
	jmp	.L256
.L247:
	movl	$8, %edi
	call	__cxa_allocate_exception@PLT
	movq	_ZTVSt12bad_weak_ptr@GOTPCREL(%rip), %rdx
	movq	_ZTISt12bad_weak_ptr@GOTPCREL(%rip), %rsi
	movq	%rax, %rdi
	addq	$16, %rdx
	movq	%rdx, (%rax)
	movq	_ZNSt12bad_weak_ptrD1Ev@GOTPCREL(%rip), %rdx
.LEHB20:
	call	__cxa_throw@PLT
.L256:
	movq	24(%rsp), %rdi
	testq	%rdi, %rdi
	je	.L257
	call	_ZNSt16_Sp_counted_baseILN9__gnu_cxx12_Lock_policyE2EE10_M_releaseEv@PLT
.L257:
	movq	%rbx, %rdi
	call	_Unwind_Resume@PLT
.LEHE20:
	.cfi_endproc
.LFE12054:
	.section	.gcc_except_table._ZThn16_N8asiodnp315OutstationStack13BeginTransmitERKN7openpal6RSliceERN8opendnp312ILinkSessionE,"aG",@progbits,_ZN8asiodnp315OutstationStack13BeginTransmitERKN7openpal6RSliceERN8opendnp312ILinkSessionE,comdat
.LLSDA12054:
	.byte	0xff
	.byte	0xff
	.byte	0x1
	.uleb128 .LLSDACSE12054-.LLSDACSB12054
.LLSDACSB12054:
	.uleb128 .LEHB19-.LFB12054
	.uleb128 .LEHE19-.LEHB19
	.uleb128 .L260-.LFB12054
	.uleb128 0
	.uleb128 .LEHB20-.LFB12054
	.uleb128 .LEHE20-.LEHB20
	.uleb128 0
	.uleb128 0
.LLSDACSE12054:
	.section	.text._ZN8asiodnp315OutstationStack13BeginTransmitERKN7openpal6RSliceERN8opendnp312ILinkSessionE,"axG",@progbits,_ZN8asiodnp315OutstationStack13BeginTransmitERKN7openpal6RSliceERN8opendnp312ILinkSessionE,comdat
	.size	_ZThn16_N8asiodnp315OutstationStack13BeginTransmitERKN7openpal6RSliceERN8opendnp312ILinkSessionE, .-_ZThn16_N8asiodnp315OutstationStack13BeginTransmitERKN7openpal6RSliceERN8opendnp312ILinkSessionE
	.section	.text.unlikely,"ax",@progbits
.LCOLDB27:
	.text
.LHOTB27:
	.p2align 4
	.type	_ZNSt17_Function_handlerIFbvEZN8asiodnp315OutstationStack6EnableEvEUlvE_E9_M_invokeERKSt9_Any_data, @function
_ZNSt17_Function_handlerIFbvEZN8asiodnp315OutstationStack6EnableEvEUlvE_E9_M_invokeERKSt9_Any_data:
.LFB10354:
	.cfi_startproc
	.cfi_personality 0x9b,DW.ref.__gxx_personality_v0
	.cfi_lsda 0x1b,.LLSDA10354
	pushq	%rbx
	.cfi_def_cfa_offset 16
	.cfi_offset 3, -16
	subq	$32, %rsp
	.cfi_def_cfa_offset 48
	movq	(%rdi), %rdx
	movq	(%rdx), %rax
	movq	8(%rdx), %rdx
	movq	88(%rax), %rdi
	addq	$8, %rax
	movq	%rdx, %xmm1
	movq	%rax, %xmm0
	punpcklqdq	%xmm1, %xmm0
	movaps	%xmm0, 16(%rsp)
	testq	%rdx, %rdx
	je	.L272
	movq	__libc_single_threaded@GOTPCREL(%rip), %rax
	cmpb	$0, (%rax)
	je	.L273
	addl	$1, 8(%rdx)
.L272:
	leaq	16(%rsp), %rsi
.LEHB21:
	call	_ZN8asiodnp39IOHandler6EnableERKSt10shared_ptrIN8opendnp312ILinkSessionEE@PLT
.LEHE21:
	movq	24(%rsp), %rdi
	testq	%rdi, %rdi
	je	.L271
	movq	8(%rdi), %rcx
	leaq	8(%rdi), %rsi
	movabsq	$4294967297, %rdx
	cmpq	%rdx, %rcx
	je	.L290
	movq	__libc_single_threaded@GOTPCREL(%rip), %rdx
	cmpb	$0, (%rdx)
	je	.L277
	movl	8(%rdi), %edx
	leal	-1(%rdx), %ecx
	movl	%ecx, 8(%rdi)
.L278:
	cmpl	$1, %edx
	je	.L291
.L271:
	addq	$32, %rsp
	.cfi_remember_state
	.cfi_def_cfa_offset 16
	popq	%rbx
	.cfi_def_cfa_offset 8
	ret
	.p2align 4,,10
	.p2align 3
.L273:
	.cfi_restore_state
	lock addl	$1, 8(%rdx)
	jmp	.L272
	.p2align 4,,10
	.p2align 3
.L290:
	movq	(%rdi), %rdx
	movb	%al, 15(%rsp)
	movq	%rdi, (%rsp)
	movq	$0, 8(%rdi)
	call	*16(%rdx)
	movq	(%rsp), %rdi
	movq	(%rdi), %rdx
	call	*24(%rdx)
	movzbl	15(%rsp), %eax
	addq	$32, %rsp
	.cfi_remember_state
	.cfi_def_cfa_offset 16
	popq	%rbx
	.cfi_def_cfa_offset 8
	ret
	.p2align 4,,10
	.p2align 3
.L277:
	.cfi_restore_state
	movl	$-1, %edx
	lock xaddl	%edx, (%rsi)
	jmp	.L278
	.p2align 4,,10
	.p2align 3
.L291:
	movb	%al, (%rsp)
	call	_ZNSt16_Sp_counted_baseILN9__gnu_cxx12_Lock_policyE2EE24_M_release_last_use_coldEv@PLT
	movzbl	(%rsp), %eax
	jmp	.L271
.L282:
	movq	%rax, %rbx
	jmp	.L280
	.section	.gcc_except_table,"a",@progbits
.LLSDA10354:
	.byte	0xff
	.byte	0xff
	.byte	0x1
	.uleb128 .LLSDACSE10354-.LLSDACSB10354
.LLSDACSB10354:
	.uleb128 .LEHB21-.LFB10354
	.uleb128 .LEHE21-.LEHB21
	.uleb128 .L282-.LFB10354
	.uleb128 0
.LLSDACSE10354:
	.text
	.cfi_endproc
	.section	.text.unlikely
	.cfi_startproc
	.cfi_personality 0x9b,DW.ref.__gxx_personality_v0
	.cfi_lsda 0x1b,.LLSDAC10354
	.type	_ZNSt17_Function_handlerIFbvEZN8asiodnp315OutstationStack6EnableEvEUlvE_E9_M_invokeERKSt9_Any_data.cold, @function
_ZNSt17_Function_handlerIFbvEZN8asiodnp315OutstationStack6EnableEvEUlvE_E9_M_invokeERKSt9_Any_data.cold:
.LFSB10354:
.L280:
	.cfi_def_cfa_offset 48
	.cfi_offset 3, -16
	movq	24(%rsp), %rdi
	testq	%rdi, %rdi
	je	.L281
	call	_ZNSt16_Sp_counted_baseILN9__gnu_cxx12_Lock_policyE2EE10_M_releaseEv@PLT
.L281:
	movq	%rbx, %rdi
.LEHB22:
	call	_Unwind_Resume@PLT
.LEHE22:
	.cfi_endproc
.LFE10354:
	.section	.gcc_except_table
.LLSDAC10354:
	.byte	0xff
	.byte	0xff
	.byte	0x1
	.uleb128 .LLSDACSEC10354-.LLSDACSBC10354
.LLSDACSBC10354:
	.uleb128 .LEHB22-.LCOLDB27
	.uleb128 .LEHE22-.LEHB22
	.uleb128 0
	.uleb128 0
.LLSDACSEC10354:
	.section	.text.unlikely
	.text
	.size	_ZNSt17_Function_handlerIFbvEZN8asiodnp315OutstationStack6EnableEvEUlvE_E9_M_invokeERKSt9_Any_data, .-_ZNSt17_Function_handlerIFbvEZN8asiodnp315OutstationStack6EnableEvEUlvE_E9_M_invokeERKSt9_Any_data
	.section	.text.unlikely
	.size	_ZNSt17_Function_handlerIFbvEZN8asiodnp315OutstationStack6EnableEvEUlvE_E9_M_invokeERKSt9_Any_data.cold, .-_ZNSt17_Function_handlerIFbvEZN8asiodnp315OutstationStack6EnableEvEUlvE_E9_M_invokeERKSt9_Any_data.cold
.LCOLDE27:
	.text
.LHOTE27:
	.section	.text.unlikely
.LCOLDB28:
	.text
.LHOTB28:
	.p2align 4
	.type	_ZNSt17_Function_handlerIFbvEZN8asiodnp315OutstationStack7DisableEvEUlvE_E9_M_invokeERKSt9_Any_data, @function
_ZNSt17_Function_handlerIFbvEZN8asiodnp315OutstationStack7DisableEvEUlvE_E9_M_invokeERKSt9_Any_data:
.LFB10376:
	.cfi_startproc
	.cfi_personality 0x9b,DW.ref.__gxx_personality_v0
	.cfi_lsda 0x1b,.LLSDA10376
	pushq	%rbx
	.cfi_def_cfa_offset 16
	.cfi_offset 3, -16
	subq	$32, %rsp
	.cfi_def_cfa_offset 48
	movq	(%rdi), %rdx
	movq	(%rdx), %rax
	movq	8(%rdx), %rdx
	movq	88(%rax), %rdi
	addq	$8, %rax
	movq	%rdx, %xmm1
	movq	%rax, %xmm0
	punpcklqdq	%xmm1, %xmm0
	movaps	%xmm0, 16(%rsp)
	testq	%rdx, %rdx
	je	.L293
	movq	__libc_single_threaded@GOTPCREL(%rip), %rax
	cmpb	$0, (%rax)
	je	.L294
	addl	$1, 8(%rdx)
.L293:
	leaq	16(%rsp), %rsi
.LEHB23:
	call	_ZN8asiodnp39IOHandler7DisableERKSt10shared_ptrIN8opendnp312ILinkSessionEE@PLT
.LEHE23:
	movq	24(%rsp), %rdi
	testq	%rdi, %rdi
	je	.L292
	movq	8(%rdi), %rcx
	leaq	8(%rdi), %rsi
	movabsq	$4294967297, %rdx
	cmpq	%rdx, %rcx
	je	.L311
	movq	__libc_single_threaded@GOTPCREL(%rip), %rdx
	cmpb	$0, (%rdx)
	je	.L298
	movl	8(%rdi), %edx
	leal	-1(%rdx), %ecx
	movl	%ecx, 8(%rdi)
.L299:
	cmpl	$1, %edx
	je	.L312
.L292:
	addq	$32, %rsp
	.cfi_remember_state
	.cfi_def_cfa_offset 16
	popq	%rbx
	.cfi_def_cfa_offset 8
	ret
	.p2align 4,,10
	.p2align 3
.L294:
	.cfi_restore_state
	lock addl	$1, 8(%rdx)
	jmp	.L293
	.p2align 4,,10
	.p2align 3
.L311:
	movq	(%rdi), %rdx
	movb	%al, 15(%rsp)
	movq	%rdi, (%rsp)
	movq	$0, 8(%rdi)
	call	*16(%rdx)
	movq	(%rsp), %rdi
	movq	(%rdi), %rdx
	call	*24(%rdx)
	movzbl	15(%rsp), %eax
	addq	$32, %rsp
	.cfi_remember_state
	.cfi_def_cfa_offset 16
	popq	%rbx
	.cfi_def_cfa_offset 8
	ret
	.p2align 4,,10
	.p2align 3
.L298:
	.cfi_restore_state
	movl	$-1, %edx
	lock xaddl	%edx, (%rsi)
	jmp	.L299
	.p2align 4,,10
	.p2align 3
.L312:
	movb	%al, (%rsp)
	call	_ZNSt16_Sp_counted_baseILN9__gnu_cxx12_Lock_policyE2EE24_M_release_last_use_coldEv@PLT
	movzbl	(%rsp), %eax
	jmp	.L292
.L303:
	movq	%rax, %rbx
	jmp	.L301
	.section	.gcc_except_table
.LLSDA10376:
	.byte	0xff
	.byte	0xff
	.byte	0x1
	.uleb128 .LLSDACSE10376-.LLSDACSB10376
.LLSDACSB10376:
	.uleb128 .LEHB23-.LFB10376
	.uleb128 .LEHE23-.LEHB23
	.uleb128 .L303-.LFB10376
	.uleb128 0
.LLSDACSE10376:
	.text
	.cfi_endproc
	.section	.text.unlikely
	.cfi_startproc
	.cfi_personality 0x9b,DW.ref.__gxx_personality_v0
	.cfi_lsda 0x1b,.LLSDAC10376
	.type	_ZNSt17_Function_handlerIFbvEZN8asiodnp315OutstationStack7DisableEvEUlvE_E9_M_invokeERKSt9_Any_data.cold, @function
_ZNSt17_Function_handlerIFbvEZN8asiodnp315OutstationStack7DisableEvEUlvE_E9_M_invokeERKSt9_Any_data.cold:
.LFSB10376:
.L301:
	.cfi_def_cfa_offset 48
	.cfi_offset 3, -16
	movq	24(%rsp), %rdi
	testq	%rdi, %rdi
	je	.L302
	call	_ZNSt16_Sp_counted_baseILN9__gnu_cxx12_Lock_policyE2EE10_M_releaseEv@PLT
.L302:
	movq	%rbx, %rdi
.LEHB24:
	call	_Unwind_Resume@PLT
.LEHE24:
	.cfi_endproc
.LFE10376:
	.section	.gcc_except_table
.LLSDAC10376:
	.byte	0xff
	.byte	0xff
	.byte	0x1
	.uleb128 .LLSDACSEC10376-.LLSDACSBC10376
.LLSDACSBC10376:
	.uleb128 .LEHB24-.LCOLDB28
	.uleb128 .LEHE24-.LEHB24
	.uleb128 0
	.uleb128 0
.LLSDACSEC10376:
	.section	.text.unlikely
	.text
	.size	_ZNSt17_Function_handlerIFbvEZN8asiodnp315OutstationStack7DisableEvEUlvE_E9_M_invokeERKSt9_Any_data, .-_ZNSt17_Function_handlerIFbvEZN8asiodnp315OutstationStack7DisableEvEUlvE_E9_M_invokeERKSt9_Any_data
	.section	.text.unlikely
	.size	_ZNSt17_Function_handlerIFbvEZN8asiodnp315OutstationStack7DisableEvEUlvE_E9_M_invokeERKSt9_Any_data.cold, .-_ZNSt17_Function_handlerIFbvEZN8asiodnp315OutstationStack7DisableEvEUlvE_E9_M_invokeERKSt9_Any_data.cold
.LCOLDE28:
	.text
.LHOTE28:
	.section	.text._ZN7openpal6LoggerD2Ev,"axG",@progbits,_ZN7openpal6LoggerD5Ev,comdat
	.align 2
	.p2align 4
	.weak	_ZN7openpal6LoggerD2Ev
	.type	_ZN7openpal6LoggerD2Ev, @function
_ZN7openpal6LoggerD2Ev:
.LFB7540:
	.cfi_startproc
	subq	$24, %rsp
	.cfi_def_cfa_offset 32
	movq	%rdi, %rax
	movq	24(%rdi), %rdi
	testq	%rdi, %rdi
	je	.L315
	movq	8(%rdi), %rcx
	leaq	8(%rdi), %rsi
	movabsq	$4294967297, %rdx
	cmpq	%rdx, %rcx
	je	.L327
	movq	__libc_single_threaded@GOTPCREL(%rip), %rdx
	cmpb	$0, (%rdx)
	je	.L317
	movl	8(%rdi), %edx
	leal	-1(%rdx), %ecx
	movl	%ecx, 8(%rdi)
.L318:
	cmpl	$1, %edx
	je	.L328
.L315:
	movq	8(%rax), %rdi
	testq	%rdi, %rdi
	je	.L313
	movq	8(%rdi), %rdx
	leaq	8(%rdi), %rcx
	movabsq	$4294967297, %rax
	cmpq	%rax, %rdx
	je	.L329
	movq	__libc_single_threaded@GOTPCREL(%rip), %rax
	cmpb	$0, (%rax)
	je	.L323
	movl	8(%rdi), %eax
	leal	-1(%rax), %edx
	movl	%edx, 8(%rdi)
.L324:
	cmpl	$1, %eax
	je	.L330
.L313:
	addq	$24, %rsp
	.cfi_remember_state
	.cfi_def_cfa_offset 8
	ret
	.p2align 4,,10
	.p2align 3
.L329:
	.cfi_restore_state
	movq	(%rdi), %rax
	movq	%rdi, (%rsp)
	movq	$0, 8(%rdi)
	call	*16(%rax)
	movq	(%rsp), %rdi
	movq	(%rdi), %rax
	movq	24(%rax), %rax
	addq	$24, %rsp
	.cfi_remember_state
	.cfi_def_cfa_offset 8
	jmp	*%rax
	.p2align 4,,10
	.p2align 3
.L327:
	.cfi_restore_state
	movq	(%rdi), %rdx
	movq	%rax, 8(%rsp)
	movq	$0, 8(%rdi)
	movq	%rdi, (%rsp)
	call	*16(%rdx)
	movq	(%rsp), %rdi
	movq	(%rdi), %rdx
	call	*24(%rdx)
	movq	8(%rsp), %rax
	jmp	.L315
	.p2align 4,,10
	.p2align 3
.L323:
	movl	$-1, %eax
	lock xaddl	%eax, (%rcx)
	jmp	.L324
	.p2align 4,,10
	.p2align 3
.L317:
	movl	$-1, %edx
	lock xaddl	%edx, (%rsi)
	jmp	.L318
	.p2align 4,,10
	.p2align 3
.L328:
	movq	%rax, (%rsp)
	call	_ZNSt16_Sp_counted_baseILN9__gnu_cxx12_Lock_policyE2EE24_M_release_last_use_coldEv@PLT
	movq	(%rsp), %rax
	jmp	.L315
	.p2align 4,,10
	.p2align 3
.L330:
	addq	$24, %rsp
	.cfi_def_cfa_offset 8
	jmp	_ZNSt16_Sp_counted_baseILN9__gnu_cxx12_Lock_policyE2EE24_M_release_last_use_coldEv@PLT
	.cfi_endproc
.LFE7540:
	.size	_ZN7openpal6LoggerD2Ev, .-_ZN7openpal6LoggerD2Ev
	.weak	_ZN7openpal6LoggerD1Ev
	.set	_ZN7openpal6LoggerD1Ev,_ZN7openpal6LoggerD2Ev
	.section	.text.unlikely
	.align 2
	.type	_ZZN8asiodnp315OutstationStack5ApplyERKNS_7UpdatesEENUlvE_D2Ev, @function
_ZZN8asiodnp315OutstationStack5ApplyERKNS_7UpdatesEENUlvE_D2Ev:
.LFB8509:
	.cfi_startproc
	pushq	%rbp
	.cfi_def_cfa_offset 16
	.cfi_offset 6, -16
	movq	%rdi, %rbp
	pushq	%rbx
	.cfi_def_cfa_offset 24
	.cfi_offset 3, -24
	pushq	%r8
	.cfi_def_cfa_offset 32
	movq	24(%rdi), %rbx
	testq	%rbx, %rbx
	je	.L333
	movq	8(%rbx), %rcx
	leaq	8(%rbx), %rdx
	movabsq	$4294967297, %rax
	cmpq	%rax, %rcx
	jne	.L334
	movq	(%rbx), %rax
	xorl	%edi, %edi
	movq	%rdi, 8(%rbx)
	movq	%rbx, %rdi
	call	*16(%rax)
	movq	(%rbx), %rax
	movq	%rbx, %rdi
	call	*24(%rax)
	jmp	.L333
.L334:
	movq	__libc_single_threaded@GOTPCREL(%rip), %rax
	cmpb	$0, (%rax)
	je	.L335
	movl	8(%rbx), %eax
	leal	-1(%rax), %edx
	movl	%edx, 8(%rbx)
	jmp	.L336
.L335:
	movl	$-1, %eax
	lock xaddl	%eax, (%rdx)
.L336:
	decl	%eax
	jne	.L333
	movq	%rbx, %rdi
	call	_ZNSt16_Sp_counted_baseILN9__gnu_cxx12_Lock_policyE2EE24_M_release_last_use_coldEv@PLT
.L333:
	movq	8(%rbp), %rbx
	testq	%rbx, %rbx
	je	.L331
	movq	8(%rbx), %rcx
	leaq	8(%rbx), %rdx
	movabsq	$4294967297, %rax
	cmpq	%rax, %rcx
	jne	.L340
	movq	(%rbx), %rax
	xorl	%ecx, %ecx
	movq	%rbx, %rdi
	movq	%rcx, 8(%rbx)
	call	*16(%rax)
	movq	(%rbx), %rax
	movq	%rbx, %rdi
	movq	24(%rax), %rax
	popq	%rsi
	.cfi_remember_state
	.cfi_def_cfa_offset 24
	popq	%rbx
	.cfi_def_cfa_offset 16
	popq	%rbp
	.cfi_def_cfa_offset 8
	jmp	*%rax
.L340:
	.cfi_restore_state
	movq	__libc_single_threaded@GOTPCREL(%rip), %rax
	cmpb	$0, (%rax)
	je	.L341
	movl	8(%rbx), %eax
	leal	-1(%rax), %edx
	movl	%edx, 8(%rbx)
	jmp	.L342
.L341:
	movl	$-1, %eax
	lock xaddl	%eax, (%rdx)
.L342:
	decl	%eax
	jne	.L331
	popq	%rdx
	.cfi_remember_state
	.cfi_def_cfa_offset 24
	movq	%rbx, %rdi
	popq	%rbx
	.cfi_def_cfa_offset 16
	popq	%rbp
	.cfi_def_cfa_offset 8
	jmp	_ZNSt16_Sp_counted_baseILN9__gnu_cxx12_Lock_policyE2EE24_M_release_last_use_coldEv@PLT
.L331:
	.cfi_restore_state
	popq	%rax
	.cfi_def_cfa_offset 24
	popq	%rbx
	.cfi_def_cfa_offset 16
	popq	%rbp
	.cfi_def_cfa_offset 8
	ret
	.cfi_endproc
.LFE8509:
	.size	_ZZN8asiodnp315OutstationStack5ApplyERKNS_7UpdatesEENUlvE_D2Ev, .-_ZZN8asiodnp315OutstationStack5ApplyERKNS_7UpdatesEENUlvE_D2Ev
	.set	_ZZN8asiodnp315OutstationStack5ApplyERKNS_7UpdatesEENUlvE_D1Ev,_ZZN8asiodnp315OutstationStack5ApplyERKNS_7UpdatesEENUlvE_D2Ev
	.section	.text._ZN8asiodnp315OutstationStack13BeginTransmitERKN7openpal6RSliceERN8opendnp312ILinkSessionE,"axG",@progbits,_ZN8asiodnp315OutstationStack13BeginTransmitERKN7openpal6RSliceERN8opendnp312ILinkSessionE,comdat
	.align 2
	.p2align 4
	.weak	_ZN8asiodnp315OutstationStack13BeginTransmitERKN7openpal6RSliceERN8opendnp312ILinkSessionE
	.type	_ZN8asiodnp315OutstationStack13BeginTransmitERKN7openpal6RSliceERN8opendnp312ILinkSessionE, @function
_ZN8asiodnp315OutstationStack13BeginTransmitERKN7openpal6RSliceERN8opendnp312ILinkSessionE:
.LFB8359:
	.cfi_startproc
	.cfi_personality 0x9b,DW.ref.__gxx_personality_v0
	.cfi_lsda 0x1b,.LLSDA8359
	pushq	%rbx
	.cfi_def_cfa_offset 16
	.cfi_offset 3, -16
	subq	$32, %rsp
	.cfi_def_cfa_offset 48
	movq	32(%rdi), %rdx
	movq	88(%rdi), %r8
	testq	%rdx, %rdx
	je	.L347
	movl	8(%rdx), %eax
	movq	%rsi, %r9
	leaq	8(%rdx), %rcx
.L349:
	testl	%eax, %eax
	je	.L347
	leal	1(%rax), %esi
	lock cmpxchgl	%esi, (%rcx)
	jne	.L349
	movq	24(%rdi), %rax
	movq	%rdx, %xmm1
	leaq	16(%rsp), %rsi
	movq	%r9, %rdx
	movq	%r8, %rdi
	leaq	8(%rax), %rcx
	testq	%rax, %rax
	cmovne	%rcx, %rax
	movq	%rax, %xmm0
	punpcklqdq	%xmm1, %xmm0
	movaps	%xmm0, 16(%rsp)
.LEHB25:
	call	_ZN8asiodnp39IOHandler13BeginTransmitERKSt10shared_ptrIN8opendnp312ILinkSessionEERKN7openpal6RSliceE@PLT
.LEHE25:
	movq	24(%rsp), %rdi
	testq	%rdi, %rdi
	je	.L345
	movq	8(%rdi), %rdx
	leaq	8(%rdi), %rcx
	movabsq	$4294967297, %rax
	cmpq	%rax, %rdx
	je	.L369
	movq	__libc_single_threaded@GOTPCREL(%rip), %rax
	cmpb	$0, (%rax)
	je	.L353
	movl	8(%rdi), %eax
	leal	-1(%rax), %edx
	movl	%edx, 8(%rdi)
.L354:
	cmpl	$1, %eax
	je	.L370
.L345:
	addq	$32, %rsp
	.cfi_remember_state
	.cfi_def_cfa_offset 16
	popq	%rbx
	.cfi_def_cfa_offset 8
	ret
	.p2align 4,,10
	.p2align 3
.L369:
	.cfi_restore_state
	movq	(%rdi), %rax
	movq	%rdi, 8(%rsp)
	movq	$0, 8(%rdi)
	call	*16(%rax)
	movq	8(%rsp), %rdi
	movq	(%rdi), %rax
	call	*24(%rax)
	addq	$32, %rsp
	.cfi_remember_state
	.cfi_def_cfa_offset 16
	popq	%rbx
	.cfi_def_cfa_offset 8
	ret
	.p2align 4,,10
	.p2align 3
.L353:
	.cfi_restore_state
	movl	$-1, %eax
	lock xaddl	%eax, (%rcx)
	jmp	.L354
	.p2align 4,,10
	.p2align 3
.L370:
	call	_ZNSt16_Sp_counted_baseILN9__gnu_cxx12_Lock_policyE2EE24_M_release_last_use_coldEv@PLT
	jmp	.L345
.L360:
	movq	%rax, %rbx
	jmp	.L356
.L347:
	movl	$8, %edi
	call	__cxa_allocate_exception@PLT
	movq	_ZTVSt12bad_weak_ptr@GOTPCREL(%rip), %rdx
	movq	_ZTISt12bad_weak_ptr@GOTPCREL(%rip), %rsi
	movq	%rax, %rdi
	addq	$16, %rdx
	movq	%rdx, (%rax)
	movq	_ZNSt12bad_weak_ptrD1Ev@GOTPCREL(%rip), %rdx
.LEHB26:
	call	__cxa_throw@PLT
.L356:
	movq	24(%rsp), %rdi
	testq	%rdi, %rdi
	je	.L357
	call	_ZNSt16_Sp_counted_baseILN9__gnu_cxx12_Lock_policyE2EE10_M_releaseEv@PLT
.L357:
	movq	%rbx, %rdi
	call	_Unwind_Resume@PLT
.LEHE26:
	.cfi_endproc
.LFE8359:
	.section	.gcc_except_table
.LLSDA8359:
	.byte	0xff
	.byte	0xff
	.byte	0x1
	.uleb128 .LLSDACSE8359-.LLSDACSB8359
.LLSDACSB8359:
	.uleb128 .LEHB25-.LFB8359
	.uleb128 .LEHE25-.LEHB25
	.uleb128 .L360-.LFB8359
	.uleb128 0
	.uleb128 .LEHB26-.LFB8359
	.uleb128 .LEHE26-.LEHB26
	.uleb128 0
	.uleb128 0
.LLSDACSE8359:
	.section	.text._ZN8asiodnp315OutstationStack13BeginTransmitERKN7openpal6RSliceERN8opendnp312ILinkSessionE,"axG",@progbits,_ZN8asiodnp315OutstationStack13BeginTransmitERKN7openpal6RSliceERN8opendnp312ILinkSessionE,comdat
	.size	_ZN8asiodnp315OutstationStack13BeginTransmitERKN7openpal6RSliceERN8opendnp312ILinkSessionE, .-_ZN8asiodnp315OutstationStack13BeginTransmitERKN7openpal6RSliceERN8opendnp312ILinkSessionE
	.section	.text.unlikely
	.align 2
.LCOLDB29:
	.text
.LHOTB29:
	.align 2
	.p2align 4
	.globl	_ZN8asiodnp315OutstationStack8ShutdownEv
	.type	_ZN8asiodnp315OutstationStack8ShutdownEv, @function
_ZN8asiodnp315OutstationStack8ShutdownEv:
.LFB8469:
	.cfi_startproc
	.cfi_personality 0x9b,DW.ref.__gxx_personality_v0
	.cfi_lsda 0x1b,.LLSDA8469
	pushq	%r14
	.cfi_def_cfa_offset 16
	.cfi_offset 14, -16
	pushq	%r13
	.cfi_def_cfa_offset 24
	.cfi_offset 13, -24
	pushq	%r12
	.cfi_def_cfa_offset 32
	.cfi_offset 12, -32
	pushq	%rbp
	.cfi_def_cfa_offset 40
	.cfi_offset 6, -40
	pushq	%rbx
	.cfi_def_cfa_offset 48
	.cfi_offset 3, -48
	subq	$48, %rsp
	.cfi_def_cfa_offset 96
	movq	32(%rdi), %rbx
	testq	%rbx, %rbx
	je	.L373
	movl	8(%rbx), %eax
	leaq	8(%rbx), %rbp
.L375:
	testl	%eax, %eax
	je	.L373
	leal	1(%rax), %edx
	lock cmpxchgl	%edx, 0(%rbp)
	jne	.L375
	movq	__libc_single_threaded@GOTPCREL(%rip), %r12
	movq	24(%rdi), %xmm0
	cmpb	$0, (%r12)
	je	.L408
	addl	$1, 8(%rbx)
.L376:
	movq	72(%rdi), %r14
	pxor	%xmm1, %xmm1
	movl	$16, %edi
	movq	$0, 32(%rsp)
	movq	$0, 40(%rsp)
	movq	%xmm0, 8(%rsp)
	movaps	%xmm1, 16(%rsp)
.LEHB27:
	call	_Znwm@PLT
.LEHE27:
	movq	8(%rsp), %xmm0
	movq	%rbx, %xmm2
	movq	_ZNSt17_Function_handlerIFvvEZN8asiodnp39StackBase15PerformShutdownINS1_15OutstationStackEEEvRKSt10shared_ptrIT_EEUlvE_E10_M_managerERSt9_Any_dataRKSC_St18_Manager_operation@GOTPCREL(%rip), %xmm1
	movhps	_ZNSt17_Function_handlerIFvvEZN8asiodnp39StackBase15PerformShutdownINS1_15OutstationStackEEEvRKSt10shared_ptrIT_EEUlvE_E9_M_invokeERKSt9_Any_data@GOTPCREL(%rip), %xmm1
	punpcklqdq	%xmm2, %xmm0
	movups	%xmm0, (%rax)
	cmpb	$0, (%r12)
	je	.L377
	addl	$1, 8(%rbx)
.L378:
	leaq	16(%rsp), %rsi
	movq	%r14, %rdi
	movq	%rax, 16(%rsp)
	movaps	%xmm1, 32(%rsp)
.LEHB28:
	call	_ZN7asiopal8Executor18BlockUntilAndFlushERKSt8functionIFvvEE@PLT
.LEHE28:
	movq	32(%rsp), %rax
	testq	%rax, %rax
	je	.L379
	movl	$3, %edx
	leaq	16(%rsp), %rsi
	leaq	16(%rsp), %rdi
	call	*%rax
.L379:
	movabsq	$4294967297, %rax
	movq	8(%rbx), %rdx
	cmpq	%rax, %rdx
	je	.L409
	cmpb	$0, (%r12)
	je	.L382
	movl	8(%rbx), %eax
	leal	-1(%rax), %edx
	movl	%edx, 8(%rbx)
.L383:
	cmpl	$1, %eax
	je	.L410
.L381:
	movabsq	$4294967297, %rax
	movq	8(%rbx), %rdx
	cmpq	%rax, %rdx
	je	.L411
	cmpb	$0, (%r12)
	je	.L389
	movl	8(%rbx), %eax
	leal	-1(%rax), %edx
	movl	%edx, 8(%rbx)
.L390:
	cmpl	$1, %eax
	je	.L412
	addq	$48, %rsp
	.cfi_remember_state
	.cfi_def_cfa_offset 48
	popq	%rbx
	.cfi_def_cfa_offset 40
	popq	%rbp
	.cfi_def_cfa_offset 32
	popq	%r12
	.cfi_def_cfa_offset 24
	popq	%r13
	.cfi_def_cfa_offset 16
	popq	%r14
	.cfi_def_cfa_offset 8
	ret
	.p2align 4,,10
	.p2align 3
.L377:
	.cfi_restore_state
	lock addl	$1, 8(%rbx)
	jmp	.L378
	.p2align 4,,10
	.p2align 3
.L408:
	lock addl	$1, 8(%rbx)
	jmp	.L376
	.p2align 4,,10
	.p2align 3
.L382:
	movl	$-1, %eax
	lock xaddl	%eax, 0(%rbp)
	jmp	.L383
	.p2align 4,,10
	.p2align 3
.L389:
	movl	$-1, %eax
	lock xaddl	%eax, 0(%rbp)
	jmp	.L390
	.p2align 4,,10
	.p2align 3
.L411:
	movq	(%rbx), %rax
	movq	%rbx, %rdi
	movq	$0, 8(%rbx)
	call	*16(%rax)
	movq	(%rbx), %rax
	movq	%rbx, %rdi
	movq	24(%rax), %rax
	addq	$48, %rsp
	.cfi_remember_state
	.cfi_def_cfa_offset 48
	popq	%rbx
	.cfi_def_cfa_offset 40
	popq	%rbp
	.cfi_def_cfa_offset 32
	popq	%r12
	.cfi_def_cfa_offset 24
	popq	%r13
	.cfi_def_cfa_offset 16
	popq	%r14
	.cfi_def_cfa_offset 8
.LEHB29:
	jmp	*%rax
	.p2align 4,,10
	.p2align 3
.L409:
	.cfi_restore_state
	movq	(%rbx), %rax
	movq	%rbx, %rdi
	movq	$0, 8(%rbx)
	call	*16(%rax)
	movq	(%rbx), %rax
	movq	%rbx, %rdi
	call	*24(%rax)
	jmp	.L381
	.p2align 4,,10
	.p2align 3
.L412:
	addq	$48, %rsp
	.cfi_remember_state
	.cfi_def_cfa_offset 48
	movq	%rbx, %rdi
	popq	%rbx
	.cfi_def_cfa_offset 40
	popq	%rbp
	.cfi_def_cfa_offset 32
	popq	%r12
	.cfi_def_cfa_offset 24
	popq	%r13
	.cfi_def_cfa_offset 16
	popq	%r14
	.cfi_def_cfa_offset 8
	jmp	_ZNSt16_Sp_counted_baseILN9__gnu_cxx12_Lock_policyE2EE24_M_release_last_use_coldEv@PLT
.LEHE29:
	.p2align 4,,10
	.p2align 3
.L410:
	.cfi_restore_state
	movq	%rbx, %rdi
	call	_ZNSt16_Sp_counted_baseILN9__gnu_cxx12_Lock_policyE2EE24_M_release_last_use_coldEv@PLT
	jmp	.L381
.L395:
	movq	%rax, %rbp
	jmp	.L386
.L394:
	movq	%rax, %rbp
	jmp	.L388
	.section	.gcc_except_table
.LLSDA8469:
	.byte	0xff
	.byte	0xff
	.byte	0x1
	.uleb128 .LLSDACSE8469-.LLSDACSB8469
.LLSDACSB8469:
	.uleb128 .LEHB27-.LFB8469
	.uleb128 .LEHE27-.LEHB27
	.uleb128 .L394-.LFB8469
	.uleb128 0
	.uleb128 .LEHB28-.LFB8469
	.uleb128 .LEHE28-.LEHB28
	.uleb128 .L395-.LFB8469
	.uleb128 0
	.uleb128 .LEHB29-.LFB8469
	.uleb128 .LEHE29-.LEHB29
	.uleb128 0
	.uleb128 0
.LLSDACSE8469:
	.text
	.cfi_endproc
	.section	.text.unlikely
	.cfi_startproc
	.cfi_personality 0x9b,DW.ref.__gxx_personality_v0
	.cfi_lsda 0x1b,.LLSDAC8469
	.type	_ZN8asiodnp315OutstationStack8ShutdownEv.cold, @function
_ZN8asiodnp315OutstationStack8ShutdownEv.cold:
.LFSB8469:
.L373:
	.cfi_def_cfa_offset 96
	.cfi_offset 3, -48
	.cfi_offset 6, -40
	.cfi_offset 12, -32
	.cfi_offset 13, -24
	.cfi_offset 14, -16
	movl	$8, %edi
	call	__cxa_allocate_exception@PLT
	movq	_ZTVSt12bad_weak_ptr@GOTPCREL(%rip), %rdx
	movq	_ZTISt12bad_weak_ptr@GOTPCREL(%rip), %rsi
	movq	%rax, %rdi
	addq	$16, %rdx
	movq	%rdx, (%rax)
	movq	_ZNSt12bad_weak_ptrD1Ev@GOTPCREL(%rip), %rdx
.LEHB30:
	call	__cxa_throw@PLT
.LEHE30:
.L386:
	movq	32(%rsp), %rax
	testq	%rax, %rax
	je	.L388
	movl	$3, %edx
	leaq	16(%rsp), %rsi
	leaq	16(%rsp), %rdi
	call	*%rax
.L388:
	movq	%rbx, %rdi
	call	_ZNSt16_Sp_counted_baseILN9__gnu_cxx12_Lock_policyE2EE10_M_releaseEv@PLT
	movq	%rbx, %rdi
	call	_ZNSt16_Sp_counted_baseILN9__gnu_cxx12_Lock_policyE2EE10_M_releaseEv@PLT
	movq	%rbp, %rdi
.LEHB31:
	call	_Unwind_Resume@PLT
.LEHE31:
	.cfi_endproc
.LFE8469:
	.section	.gcc_except_table
.LLSDAC8469:
	.byte	0xff
	.byte	0xff
	.byte	0x1
	.uleb128 .LLSDACSEC8469-.LLSDACSBC8469
.LLSDACSBC8469:
	.uleb128 .LEHB30-.LCOLDB29
	.uleb128 .LEHE30-.LEHB30
	.uleb128 0
	.uleb128 0
	.uleb128 .LEHB31-.LCOLDB29
	.uleb128 .LEHE31-.LEHB31
	.uleb128 0
	.uleb128 0
.LLSDACSEC8469:
	.section	.text.unlikely
	.text
	.size	_ZN8asiodnp315OutstationStack8ShutdownEv, .-_ZN8asiodnp315OutstationStack8ShutdownEv
	.section	.text.unlikely
	.size	_ZN8asiodnp315OutstationStack8ShutdownEv.cold, .-_ZN8asiodnp315OutstationStack8ShutdownEv.cold
.LCOLDE29:
	.text
.LHOTE29:
	.p2align 4
	.type	_ZN4asio6detail18completion_handlerIZN8asiodnp315OutstationStack13SetLogFiltersERKN7openpal10LogFiltersEEUlvE_E11do_completeEPNS0_15task_io_serviceEPNS0_25task_io_service_operationERKSt10error_codem, @function
_ZN4asio6detail18completion_handlerIZN8asiodnp315OutstationStack13SetLogFiltersERKN7openpal10LogFiltersEEUlvE_E11do_completeEPNS0_15task_io_serviceEPNS0_25task_io_service_operationERKSt10error_codem:
.LFB11170:
	.cfi_startproc
	pushq	%r13
	.cfi_def_cfa_offset 16
	.cfi_offset 13, -16
	pushq	%r12
	.cfi_def_cfa_offset 24
	.cfi_offset 12, -24
	movq	%rdi, %r12
	pushq	%rbp
	.cfi_def_cfa_offset 32
	.cfi_offset 6, -32
	pushq	%rbx
	.cfi_def_cfa_offset 40
	.cfi_offset 3, -40
	movq	%rsi, %rbx
	subq	$40, %rsp
	.cfi_def_cfa_offset 80
	movl	40(%rsi), %eax
	movq	24(%rsi), %r13
	movq	32(%rsi), %rbp
	movl	%eax, 16(%rsp)
	data16	leaq	_ZN4asio6detail15keyword_tss_ptrINS0_10call_stackINS0_15task_io_serviceENS0_27task_io_service_thread_infoEE7contextEE6value_E@tlsgd(%rip), %rdi
	.value	0x6666
	rex64
	call	__tls_get_addr@PLT
	movq	(%rax), %rax
	testq	%rax, %rax
	je	.L415
	movq	8(%rax), %rax
	testq	%rax, %rax
	je	.L415
	cmpq	$0, (%rax)
	je	.L435
.L415:
	movq	%rbx, %rdi
	call	_ZdlPv@PLT
.L416:
	testq	%r12, %r12
	je	.L436
	movq	56(%r13), %rax
	movl	16(%rsp), %edx
	movl	%edx, 32(%rax)
	sfence
	testq	%rbp, %rbp
	je	.L413
.L422:
	movq	8(%rbp), %rdx
	leaq	8(%rbp), %rcx
	movabsq	$4294967297, %rax
	cmpq	%rax, %rdx
	je	.L437
	movq	__libc_single_threaded@GOTPCREL(%rip), %rax
	cmpb	$0, (%rax)
	je	.L423
	movl	8(%rbp), %eax
	leal	-1(%rax), %edx
	movl	%edx, 8(%rbp)
.L424:
	cmpl	$1, %eax
	je	.L438
.L413:
	addq	$40, %rsp
	.cfi_remember_state
	.cfi_def_cfa_offset 40
	popq	%rbx
	.cfi_def_cfa_offset 32
	popq	%rbp
	.cfi_def_cfa_offset 24
	popq	%r12
	.cfi_def_cfa_offset 16
	popq	%r13
	.cfi_def_cfa_offset 8
	ret
	.p2align 4,,10
	.p2align 3
.L436:
	.cfi_restore_state
	testq	%rbp, %rbp
	jne	.L422
	jmp	.L413
	.p2align 4,,10
	.p2align 3
.L437:
	movq	0(%rbp), %rax
	movq	%rbp, %rdi
	movq	$0, 8(%rbp)
	call	*16(%rax)
	movq	0(%rbp), %rax
	movq	%rbp, %rdi
	movq	24(%rax), %rax
	addq	$40, %rsp
	.cfi_remember_state
	.cfi_def_cfa_offset 40
	popq	%rbx
	.cfi_def_cfa_offset 32
	popq	%rbp
	.cfi_def_cfa_offset 24
	popq	%r12
	.cfi_def_cfa_offset 16
	popq	%r13
	.cfi_def_cfa_offset 8
	jmp	*%rax
	.p2align 4,,10
	.p2align 3
.L435:
	.cfi_restore_state
	movzbl	48(%rbx), %edx
	movb	%dl, (%rbx)
	movq	%rbx, (%rax)
	jmp	.L416
	.p2align 4,,10
	.p2align 3
.L423:
	movl	$-1, %eax
	lock xaddl	%eax, (%rcx)
	jmp	.L424
	.p2align 4,,10
	.p2align 3
.L438:
	addq	$40, %rsp
	.cfi_def_cfa_offset 40
	movq	%rbp, %rdi
	popq	%rbx
	.cfi_def_cfa_offset 32
	popq	%rbp
	.cfi_def_cfa_offset 24
	popq	%r12
	.cfi_def_cfa_offset 16
	popq	%r13
	.cfi_def_cfa_offset 8
	jmp	_ZNSt16_Sp_counted_baseILN9__gnu_cxx12_Lock_policyE2EE24_M_release_last_use_coldEv@PLT
	.cfi_endproc
.LFE11170:
	.size	_ZN4asio6detail18completion_handlerIZN8asiodnp315OutstationStack13SetLogFiltersERKN7openpal10LogFiltersEEUlvE_E11do_completeEPNS0_15task_io_serviceEPNS0_25task_io_service_operationERKSt10error_codem, .-_ZN4asio6detail18completion_handlerIZN8asiodnp315OutstationStack13SetLogFiltersERKN7openpal10LogFiltersEEUlvE_E11do_completeEPNS0_15task_io_serviceEPNS0_25task_io_service_operationERKSt10error_codem
	.section	.text.unlikely
.LCOLDB30:
	.text
.LHOTB30:
	.p2align 4
	.type	_ZN4asio6detail18completion_handlerIZN8asiodnp315OutstationStack13SetRestartIINEvEUlvE_E11do_completeEPNS0_15task_io_serviceEPNS0_25task_io_service_operationERKSt10error_codem, @function
_ZN4asio6detail18completion_handlerIZN8asiodnp315OutstationStack13SetRestartIINEvEUlvE_E11do_completeEPNS0_15task_io_serviceEPNS0_25task_io_service_operationERKSt10error_codem:
.LFB11176:
	.cfi_startproc
	.cfi_personality 0x9b,DW.ref.__gxx_personality_v0
	.cfi_lsda 0x1b,.LLSDA11176
	pushq	%r13
	.cfi_def_cfa_offset 16
	.cfi_offset 13, -16
	movq	%rdi, %r13
	pushq	%r12
	.cfi_def_cfa_offset 24
	.cfi_offset 12, -24
	pushq	%rbp
	.cfi_def_cfa_offset 32
	.cfi_offset 6, -32
	movq	%rsi, %rbp
	pushq	%rbx
	.cfi_def_cfa_offset 40
	.cfi_offset 3, -40
	subq	$8, %rsp
	.cfi_def_cfa_offset 48
	movq	24(%rsi), %r12
	movq	32(%rsi), %rbx
	data16	leaq	_ZN4asio6detail15keyword_tss_ptrINS0_10call_stackINS0_15task_io_serviceENS0_27task_io_service_thread_infoEE7contextEE6value_E@tlsgd(%rip), %rdi
	.value	0x6666
	rex64
	call	__tls_get_addr@PLT
	movq	(%rax), %rax
	testq	%rax, %rax
	je	.L441
	movq	8(%rax), %rax
	testq	%rax, %rax
	je	.L441
	cmpq	$0, (%rax)
	je	.L471
.L441:
	movq	%rbp, %rdi
	call	_ZdlPv@PLT
.L442:
	testq	%r13, %r13
	je	.L472
	leaq	152(%r12), %rdi
.LEHB32:
	call	_ZN8opendnp38OContext13SetRestartIINEv@PLT
.LEHE32:
	sfence
	testq	%rbx, %rbx
	je	.L439
.L449:
	movq	8(%rbx), %rdx
	leaq	8(%rbx), %rcx
	movabsq	$4294967297, %rax
	cmpq	%rax, %rdx
	je	.L473
	movq	__libc_single_threaded@GOTPCREL(%rip), %rax
	cmpb	$0, (%rax)
	je	.L451
	movl	8(%rbx), %eax
	leal	-1(%rax), %edx
	movl	%edx, 8(%rbx)
.L452:
	cmpl	$1, %eax
	je	.L474
.L439:
	addq	$8, %rsp
	.cfi_remember_state
	.cfi_def_cfa_offset 40
	popq	%rbx
	.cfi_def_cfa_offset 32
	popq	%rbp
	.cfi_def_cfa_offset 24
	popq	%r12
	.cfi_def_cfa_offset 16
	popq	%r13
	.cfi_def_cfa_offset 8
	ret
	.p2align 4,,10
	.p2align 3
.L472:
	.cfi_restore_state
	testq	%rbx, %rbx
	jne	.L449
	jmp	.L439
	.p2align 4,,10
	.p2align 3
.L473:
	movq	(%rbx), %rax
	movq	%rbx, %rdi
	movq	$0, 8(%rbx)
	call	*16(%rax)
	movq	(%rbx), %rax
	movq	%rbx, %rdi
	movq	24(%rax), %rax
	addq	$8, %rsp
	.cfi_remember_state
	.cfi_def_cfa_offset 40
	popq	%rbx
	.cfi_def_cfa_offset 32
	popq	%rbp
	.cfi_def_cfa_offset 24
	popq	%r12
	.cfi_def_cfa_offset 16
	popq	%r13
	.cfi_def_cfa_offset 8
.LEHB33:
	jmp	*%rax
	.p2align 4,,10
	.p2align 3
.L471:
	.cfi_restore_state
	movzbl	40(%rbp), %edx
	movb	%dl, 0(%rbp)
	movq	%rbp, (%rax)
	jmp	.L442
	.p2align 4,,10
	.p2align 3
.L451:
	movl	$-1, %eax
	lock xaddl	%eax, (%rcx)
	jmp	.L452
	.p2align 4,,10
	.p2align 3
.L474:
	addq	$8, %rsp
	.cfi_remember_state
	.cfi_def_cfa_offset 40
	movq	%rbx, %rdi
	popq	%rbx
	.cfi_def_cfa_offset 32
	popq	%rbp
	.cfi_def_cfa_offset 24
	popq	%r12
	.cfi_def_cfa_offset 16
	popq	%r13
	.cfi_def_cfa_offset 8
	jmp	_ZNSt16_Sp_counted_baseILN9__gnu_cxx12_Lock_policyE2EE24_M_release_last_use_coldEv@PLT
.LEHE33:
.L456:
	.cfi_restore_state
	movq	%rax, %rbp
	jmp	.L454
	.section	.gcc_except_table
.LLSDA11176:
	.byte	0xff
	.byte	0xff
	.byte	0x1
	.uleb128 .LLSDACSE11176-.LLSDACSB11176
.LLSDACSB11176:
	.uleb128 .LEHB32-.LFB11176
	.uleb128 .LEHE32-.LEHB32
	.uleb128 .L456-.LFB11176
	.uleb128 0
	.uleb128 .LEHB33-.LFB11176
	.uleb128 .LEHE33-.LEHB33
	.uleb128 0
	.uleb128 0
.LLSDACSE11176:
	.text
	.cfi_endproc
	.section	.text.unlikely
	.cfi_startproc
	.cfi_personality 0x9b,DW.ref.__gxx_personality_v0
	.cfi_lsda 0x1b,.LLSDAC11176
	.type	_ZN4asio6detail18completion_handlerIZN8asiodnp315OutstationStack13SetRestartIINEvEUlvE_E11do_completeEPNS0_15task_io_serviceEPNS0_25task_io_service_operationERKSt10error_codem.cold, @function
_ZN4asio6detail18completion_handlerIZN8asiodnp315OutstationStack13SetRestartIINEvEUlvE_E11do_completeEPNS0_15task_io_serviceEPNS0_25task_io_service_operationERKSt10error_codem.cold:
.LFSB11176:
.L454:
	.cfi_def_cfa_offset 48
	.cfi_offset 3, -40
	.cfi_offset 6, -32
	.cfi_offset 12, -24
	.cfi_offset 13, -16
	sfence
	testq	%rbx, %rbx
	je	.L455
	movq	%rbx, %rdi
	call	_ZNSt16_Sp_counted_baseILN9__gnu_cxx12_Lock_policyE2EE10_M_releaseEv@PLT
.L455:
	movq	%rbp, %rdi
.LEHB34:
	call	_Unwind_Resume@PLT
.LEHE34:
	.cfi_endproc
.LFE11176:
	.section	.gcc_except_table
.LLSDAC11176:
	.byte	0xff
	.byte	0xff
	.byte	0x1
	.uleb128 .LLSDACSEC11176-.LLSDACSBC11176
.LLSDACSBC11176:
	.uleb128 .LEHB34-.LCOLDB30
	.uleb128 .LEHE34-.LEHB34
	.uleb128 0
	.uleb128 0
.LLSDACSEC11176:
	.section	.text.unlikely
	.text
	.size	_ZN4asio6detail18completion_handlerIZN8asiodnp315OutstationStack13SetRestartIINEvEUlvE_E11do_completeEPNS0_15task_io_serviceEPNS0_25task_io_service_operationERKSt10error_codem, .-_ZN4asio6detail18completion_handlerIZN8asiodnp315OutstationStack13SetRestartIINEvEUlvE_E11do_completeEPNS0_15task_io_serviceEPNS0_25task_io_service_operationERKSt10error_codem
	.section	.text.unlikely
	.size	_ZN4asio6detail18completion_handlerIZN8asiodnp315OutstationStack13SetRestartIINEvEUlvE_E11do_completeEPNS0_15task_io_serviceEPNS0_25task_io_service_operationERKSt10error_codem.cold, .-_ZN4asio6detail18completion_handlerIZN8asiodnp315OutstationStack13SetRestartIINEvEUlvE_E11do_completeEPNS0_15task_io_serviceEPNS0_25task_io_service_operationERKSt10error_codem.cold
.LCOLDE30:
	.text
.LHOTE30:
	.section	.text._ZN8asiodnp39StackBaseD2Ev,"axG",@progbits,_ZN8asiodnp39StackBaseD5Ev,comdat
	.align 2
	.p2align 4
	.weak	_ZN8asiodnp39StackBaseD2Ev
	.type	_ZN8asiodnp39StackBaseD2Ev, @function
_ZN8asiodnp39StackBaseD2Ev:
.LFB8394:
	.cfi_startproc
	pushq	%rbx
	.cfi_def_cfa_offset 16
	.cfi_offset 3, -16
	movq	%rdi, %rbx
	subq	$16, %rsp
	.cfi_def_cfa_offset 32
	movq	104(%rdi), %rdi
	testq	%rdi, %rdi
	je	.L477
	movq	8(%rdi), %rdx
	leaq	8(%rdi), %rcx
	movabsq	$4294967297, %rax
	cmpq	%rax, %rdx
	je	.L519
	movq	__libc_single_threaded@GOTPCREL(%rip), %rax
	cmpb	$0, (%rax)
	je	.L479
	movl	8(%rdi), %eax
	leal	-1(%rax), %edx
	movl	%edx, 8(%rdi)
.L480:
	cmpl	$1, %eax
	je	.L520
.L477:
	movq	88(%rbx), %rdi
	testq	%rdi, %rdi
	je	.L483
	movq	8(%rdi), %rdx
	leaq	8(%rdi), %rcx
	movabsq	$4294967297, %rax
	cmpq	%rax, %rdx
	je	.L521
	movq	__libc_single_threaded@GOTPCREL(%rip), %rax
	cmpb	$0, (%rax)
	je	.L485
	movl	8(%rdi), %eax
	leal	-1(%rax), %edx
	movl	%edx, 8(%rdi)
.L486:
	cmpl	$1, %eax
	je	.L522
.L483:
	movq	72(%rbx), %rdi
	testq	%rdi, %rdi
	je	.L489
	movq	8(%rdi), %rdx
	leaq	8(%rdi), %rcx
	movabsq	$4294967297, %rax
	cmpq	%rax, %rdx
	je	.L523
	movq	__libc_single_threaded@GOTPCREL(%rip), %rax
	cmpb	$0, (%rax)
	je	.L491
	movl	8(%rdi), %eax
	leal	-1(%rax), %edx
	movl	%edx, 8(%rdi)
.L492:
	cmpl	$1, %eax
	je	.L524
.L489:
	movq	56(%rbx), %rdi
	testq	%rdi, %rdi
	je	.L495
	movq	8(%rdi), %rdx
	leaq	8(%rdi), %rcx
	movabsq	$4294967297, %rax
	cmpq	%rax, %rdx
	je	.L525
	movq	__libc_single_threaded@GOTPCREL(%rip), %rax
	cmpb	$0, (%rax)
	je	.L497
	movl	8(%rdi), %eax
	leal	-1(%rax), %edx
	movl	%edx, 8(%rdi)
.L498:
	cmpl	$1, %eax
	je	.L526
.L495:
	movq	40(%rbx), %rdi
	testq	%rdi, %rdi
	je	.L501
	movq	8(%rdi), %rdx
	leaq	8(%rdi), %rcx
	movabsq	$4294967297, %rax
	cmpq	%rax, %rdx
	je	.L527
	movq	__libc_single_threaded@GOTPCREL(%rip), %rax
	cmpb	$0, (%rax)
	je	.L503
	movl	8(%rdi), %eax
	leal	-1(%rax), %edx
	movl	%edx, 8(%rdi)
.L504:
	cmpl	$1, %eax
	je	.L528
.L501:
	movq	24(%rbx), %rdi
	testq	%rdi, %rdi
	je	.L507
	movq	8(%rdi), %rdx
	leaq	8(%rdi), %rcx
	movabsq	$4294967297, %rax
	cmpq	%rax, %rdx
	je	.L529
	movq	__libc_single_threaded@GOTPCREL(%rip), %rax
	cmpb	$0, (%rax)
	je	.L509
	movl	8(%rdi), %eax
	leal	-1(%rax), %edx
	movl	%edx, 8(%rdi)
.L510:
	cmpl	$1, %eax
	je	.L530
.L507:
	movq	8(%rbx), %rbx
	testq	%rbx, %rbx
	je	.L475
	movq	8(%rbx), %rdx
	leaq	8(%rbx), %rcx
	movabsq	$4294967297, %rax
	cmpq	%rax, %rdx
	je	.L531
	movq	__libc_single_threaded@GOTPCREL(%rip), %rax
	cmpb	$0, (%rax)
	je	.L515
	movl	8(%rbx), %eax
	leal	-1(%rax), %edx
	movl	%edx, 8(%rbx)
.L516:
	cmpl	$1, %eax
	je	.L532
.L475:
	addq	$16, %rsp
	.cfi_remember_state
	.cfi_def_cfa_offset 16
	popq	%rbx
	.cfi_def_cfa_offset 8
	ret
	.p2align 4,,10
	.p2align 3
.L519:
	.cfi_restore_state
	movq	(%rdi), %rax
	movq	%rdi, 8(%rsp)
	movq	$0, 8(%rdi)
	call	*16(%rax)
	movq	8(%rsp), %rdi
	movq	(%rdi), %rax
	call	*24(%rax)
	jmp	.L477
	.p2align 4,,10
	.p2align 3
.L525:
	movq	(%rdi), %rax
	movq	%rdi, 8(%rsp)
	movq	$0, 8(%rdi)
	call	*16(%rax)
	movq	8(%rsp), %rdi
	movq	(%rdi), %rax
	call	*24(%rax)
	jmp	.L495
	.p2align 4,,10
	.p2align 3
.L527:
	movq	(%rdi), %rax
	movq	%rdi, 8(%rsp)
	movq	$0, 8(%rdi)
	call	*16(%rax)
	movq	8(%rsp), %rdi
	movq	(%rdi), %rax
	call	*24(%rax)
	jmp	.L501
	.p2align 4,,10
	.p2align 3
.L529:
	movq	(%rdi), %rax
	movq	%rdi, 8(%rsp)
	movq	$0, 8(%rdi)
	call	*16(%rax)
	movq	8(%rsp), %rdi
	movq	(%rdi), %rax
	call	*24(%rax)
	jmp	.L507
	.p2align 4,,10
	.p2align 3
.L531:
	movq	(%rbx), %rax
	movq	%rbx, %rdi
	movq	$0, 8(%rbx)
	call	*16(%rax)
	movq	(%rbx), %rax
	movq	%rbx, %rdi
	movq	24(%rax), %rax
	addq	$16, %rsp
	.cfi_remember_state
	.cfi_def_cfa_offset 16
	popq	%rbx
	.cfi_def_cfa_offset 8
	jmp	*%rax
	.p2align 4,,10
	.p2align 3
.L521:
	.cfi_restore_state
	movq	(%rdi), %rax
	movq	%rdi, 8(%rsp)
	movq	$0, 8(%rdi)
	call	*16(%rax)
	movq	8(%rsp), %rdi
	movq	(%rdi), %rax
	call	*24(%rax)
	jmp	.L483
	.p2align 4,,10
	.p2align 3
.L523:
	movq	(%rdi), %rax
	movq	%rdi, 8(%rsp)
	movq	$0, 8(%rdi)
	call	*16(%rax)
	movq	8(%rsp), %rdi
	movq	(%rdi), %rax
	call	*24(%rax)
	jmp	.L489
	.p2align 4,,10
	.p2align 3
.L509:
	movl	$-1, %eax
	lock xaddl	%eax, (%rcx)
	jmp	.L510
	.p2align 4,,10
	.p2align 3
.L497:
	movl	$-1, %eax
	lock xaddl	%eax, (%rcx)
	jmp	.L498
	.p2align 4,,10
	.p2align 3
.L503:
	movl	$-1, %eax
	lock xaddl	%eax, (%rcx)
	jmp	.L504
	.p2align 4,,10
	.p2align 3
.L515:
	movl	$-1, %eax
	lock xaddl	%eax, (%rcx)
	jmp	.L516
	.p2align 4,,10
	.p2align 3
.L479:
	movl	$-1, %eax
	lock xaddl	%eax, (%rcx)
	jmp	.L480
	.p2align 4,,10
	.p2align 3
.L485:
	movl	$-1, %eax
	lock xaddl	%eax, (%rcx)
	jmp	.L486
	.p2align 4,,10
	.p2align 3
.L491:
	movl	$-1, %eax
	lock xaddl	%eax, (%rcx)
	jmp	.L492
	.p2align 4,,10
	.p2align 3
.L532:
	addq	$16, %rsp
	.cfi_remember_state
	.cfi_def_cfa_offset 16
	movq	%rbx, %rdi
	popq	%rbx
	.cfi_def_cfa_offset 8
	jmp	_ZNSt16_Sp_counted_baseILN9__gnu_cxx12_Lock_policyE2EE24_M_release_last_use_coldEv@PLT
	.p2align 4,,10
	.p2align 3
.L530:
	.cfi_restore_state
	call	_ZNSt16_Sp_counted_baseILN9__gnu_cxx12_Lock_policyE2EE24_M_release_last_use_coldEv@PLT
	jmp	.L507
	.p2align 4,,10
	.p2align 3
.L528:
	call	_ZNSt16_Sp_counted_baseILN9__gnu_cxx12_Lock_policyE2EE24_M_release_last_use_coldEv@PLT
	jmp	.L501
	.p2align 4,,10
	.p2align 3
.L526:
	call	_ZNSt16_Sp_counted_baseILN9__gnu_cxx12_Lock_policyE2EE24_M_release_last_use_coldEv@PLT
	jmp	.L495
	.p2align 4,,10
	.p2align 3
.L524:
	call	_ZNSt16_Sp_counted_baseILN9__gnu_cxx12_Lock_policyE2EE24_M_release_last_use_coldEv@PLT
	jmp	.L489
	.p2align 4,,10
	.p2align 3
.L522:
	call	_ZNSt16_Sp_counted_baseILN9__gnu_cxx12_Lock_policyE2EE24_M_release_last_use_coldEv@PLT
	jmp	.L483
	.p2align 4,,10
	.p2align 3
.L520:
	call	_ZNSt16_Sp_counted_baseILN9__gnu_cxx12_Lock_policyE2EE24_M_release_last_use_coldEv@PLT
	jmp	.L477
	.cfi_endproc
.LFE8394:
	.size	_ZN8asiodnp39StackBaseD2Ev, .-_ZN8asiodnp39StackBaseD2Ev
	.weak	_ZN8asiodnp39StackBaseD1Ev
	.set	_ZN8asiodnp39StackBaseD1Ev,_ZN8asiodnp39StackBaseD2Ev
	.section	.text.unlikely
	.align 2
.LCOLDB31:
	.text
.LHOTB31:
	.align 2
	.p2align 4
	.globl	_ZN8asiodnp315OutstationStack13SetRestartIINEv
	.type	_ZN8asiodnp315OutstationStack13SetRestartIINEv, @function
_ZN8asiodnp315OutstationStack13SetRestartIINEv:
.LFB8491:
	.cfi_startproc
	.cfi_personality 0x9b,DW.ref.__gxx_personality_v0
	.cfi_lsda 0x1b,.LLSDA8491
	pushq	%r15
	.cfi_def_cfa_offset 16
	.cfi_offset 15, -16
	pushq	%r14
	.cfi_def_cfa_offset 24
	.cfi_offset 14, -24
	pushq	%r13
	.cfi_def_cfa_offset 32
	.cfi_offset 13, -32
	pushq	%r12
	.cfi_def_cfa_offset 40
	.cfi_offset 12, -40
	pushq	%rbp
	.cfi_def_cfa_offset 48
	.cfi_offset 6, -48
	pushq	%rbx
	.cfi_def_cfa_offset 56
	.cfi_offset 3, -56
	subq	$56, %rsp
	.cfi_def_cfa_offset 112
	movq	32(%rdi), %rbx
	testq	%rbx, %rbx
	je	.L535
	movl	8(%rbx), %eax
	leaq	8(%rbx), %r12
.L537:
	testl	%eax, %eax
	je	.L535
	leal	1(%rax), %edx
	lock cmpxchgl	%edx, (%r12)
	jne	.L537
	movq	__libc_single_threaded@GOTPCREL(%rip), %rax
	movq	24(%rdi), %r15
	movq	72(%rdi), %rbp
	cmpb	$0, (%rax)
	je	.L589
	addl	$1, 8(%rbx)
.L538:
	data16	leaq	_ZN4asio6detail15keyword_tss_ptrINS0_10call_stackINS0_15task_io_serviceENS0_27task_io_service_thread_infoEE7contextEE6value_E@tlsgd(%rip), %rdi
	.value	0x6666
	rex64
	call	__tls_get_addr@PLT
	movq	40(%rbp), %r13
	movq	(%rax), %rax
	testq	%rax, %rax
	je	.L539
	movq	8(%rax), %rax
	testq	%rax, %rax
	je	.L539
	movq	(%rax), %r14
	testq	%r14, %r14
	je	.L539
	movq	$0, (%rax)
	movzbl	(%r14), %eax
	cmpb	$39, %al
	jbe	.L540
	movb	%al, 40(%r14)
	jmp	.L541
	.p2align 4,,10
	.p2align 3
.L540:
	movq	%r14, %rdi
	call	_ZdlPv@PLT
.L539:
	movl	$41, %edi
.LEHB35:
	call	_Znwm@PLT
.LEHE35:
	movb	$40, 40(%rax)
	movq	%rax, %r14
.L541:
	movq	%rbx, %xmm2
	movq	%r15, %xmm0
	leaq	_ZN4asio6detail18completion_handlerIZN8asiodnp315OutstationStack13SetRestartIINEvEUlvE_E11do_completeEPNS0_15task_io_serviceEPNS0_25task_io_service_operationERKSt10error_codem(%rip), %rax
	movq	$0, (%r14)
	punpcklqdq	%xmm2, %xmm0
	movq	%rax, 8(%r14)
	movq	%r14, %xmm1
	movups	%xmm0, 24(%r14)
	movq	48(%rbp), %rax
	punpcklqdq	%xmm1, %xmm1
	movl	$0, 16(%r14)
	leaq	24(%rax), %rdi
	movaps	%xmm1, (%rsp)
	call	pthread_mutex_lock@PLT
	movq	48(%rbp), %rdi
	cmpb	$0, 64(%rdi)
	je	.L542
	movq	80(%rdi), %rax
	movq	$0, (%r14)
	testq	%rax, %rax
	je	.L543
	movq	%r14, (%rax)
	movq	%r14, 80(%rdi)
.L544:
	addq	$24, %rdi
	call	pthread_mutex_unlock@PLT
.L545:
	movabsq	$4294967297, %rax
	movq	8(%rbx), %rdx
	cmpq	%rax, %rdx
	je	.L590
	movq	__libc_single_threaded@GOTPCREL(%rip), %rax
	cmpb	$0, (%rax)
	je	.L561
	movl	8(%rbx), %eax
	leal	-1(%rax), %edx
	movl	%edx, 8(%rbx)
.L562:
	cmpl	$1, %eax
	je	.L591
	addq	$56, %rsp
	.cfi_remember_state
	.cfi_def_cfa_offset 56
	popq	%rbx
	.cfi_def_cfa_offset 48
	popq	%rbp
	.cfi_def_cfa_offset 40
	popq	%r12
	.cfi_def_cfa_offset 32
	popq	%r13
	.cfi_def_cfa_offset 24
	popq	%r14
	.cfi_def_cfa_offset 16
	popq	%r15
	.cfi_def_cfa_offset 8
	ret
	.p2align 4,,10
	.p2align 3
.L543:
	.cfi_restore_state
	movdqa	(%rsp), %xmm4
	movups	%xmm4, 72(%rdi)
	jmp	.L544
	.p2align 4,,10
	.p2align 3
.L542:
	movb	$1, 64(%rdi)
	addq	$24, %rdi
	call	pthread_mutex_unlock@PLT
	movq	48(%rbp), %rdx
	movq	$0, (%r14)
	movq	%rdx, %xmm3
	movq	96(%rdx), %rax
	punpcklqdq	%xmm3, %xmm3
	movaps	%xmm3, 16(%rsp)
	testq	%rax, %rax
	je	.L546
	movq	%r14, (%rax)
	movq	%r14, 96(%rdx)
.L547:
	movq	40(%r13), %rbp
	cmpb	$0, 40(%rbp)
	je	.L548
	movq	%rdx, (%rsp)
	data16	leaq	_ZN4asio6detail15keyword_tss_ptrINS0_10call_stackINS0_15task_io_serviceENS0_27task_io_service_thread_infoEE7contextEE6value_E@tlsgd(%rip), %rdi
	.value	0x6666
	rex64
	call	__tls_get_addr@PLT
	movq	(%rsp), %rdx
	movq	(%rax), %rax
	testq	%rax, %rax
	jne	.L551
	jmp	.L548
	.p2align 4
	.p2align 4,,10
	.p2align 3
.L549:
	movq	16(%rax), %rax
	testq	%rax, %rax
	je	.L548
.L551:
	cmpq	(%rax), %rbp
	jne	.L549
	movq	8(%rax), %rax
	testq	%rax, %rax
	je	.L548
	movq	16(%rax), %rcx
	addq	$1, 24(%rax)
	movq	$0, (%rdx)
	testq	%rcx, %rcx
	je	.L552
	movq	%rdx, (%rcx)
	movq	%rdx, 16(%rax)
	jmp	.L545
	.p2align 4,,10
	.p2align 3
.L548:
	movq	%rdx, (%rsp)
	lock addq	$1, 184(%rbp)
	leaq	48(%rbp), %r13
	movq	%r13, %rdi
	call	pthread_mutex_lock@PLT
	movq	(%rsp), %rdx
	movq	200(%rbp), %rax
	movq	$0, (%rdx)
	testq	%rax, %rax
	je	.L553
	movq	%rdx, (%rax)
	movq	%rdx, 200(%rbp)
.L554:
	movq	136(%rbp), %rax
	movq	%rax, %rdx
	orq	$1, %rdx
	movq	%rdx, 136(%rbp)
	cmpq	$1, %rax
	jbe	.L555
	movq	%r13, %rdi
	call	pthread_mutex_unlock@PLT
	leaq	88(%rbp), %rdi
	call	pthread_cond_signal@PLT
	jmp	.L545
	.p2align 4,,10
	.p2align 3
.L589:
	lock addl	$1, 8(%rbx)
	jmp	.L538
	.p2align 4,,10
	.p2align 3
.L553:
	movdqa	16(%rsp), %xmm6
	movups	%xmm6, 192(%rbp)
	jmp	.L554
	.p2align 4,,10
	.p2align 3
.L561:
	movl	$-1, %eax
	lock xaddl	%eax, (%r12)
	jmp	.L562
	.p2align 4,,10
	.p2align 3
.L555:
	cmpb	$0, 176(%rbp)
	jne	.L557
	movq	144(%rbp), %rax
	testq	%rax, %rax
	je	.L557
	leaq	88(%rax), %rdx
	movb	$1, 176(%rbp)
	movl	96(%rax), %edi
	leaq	36(%rsp), %rcx
	movq	%rdx, 40(%rsp)
	movl	88(%rax), %edx
	movl	$3, %esi
	movl	$-2147483639, 36(%rsp)
	call	epoll_ctl@PLT
.L557:
	movq	%r13, %rdi
	call	pthread_mutex_unlock@PLT
	jmp	.L545
	.p2align 4,,10
	.p2align 3
.L590:
	movq	(%rbx), %rax
	movq	%rbx, %rdi
	movq	$0, 8(%rbx)
	call	*16(%rax)
	movq	(%rbx), %rax
	movq	%rbx, %rdi
	movq	24(%rax), %rax
	addq	$56, %rsp
	.cfi_remember_state
	.cfi_def_cfa_offset 56
	popq	%rbx
	.cfi_def_cfa_offset 48
	popq	%rbp
	.cfi_def_cfa_offset 40
	popq	%r12
	.cfi_def_cfa_offset 32
	popq	%r13
	.cfi_def_cfa_offset 24
	popq	%r14
	.cfi_def_cfa_offset 16
	popq	%r15
	.cfi_def_cfa_offset 8
.LEHB36:
	jmp	*%rax
	.p2align 4,,10
	.p2align 3
.L546:
	.cfi_restore_state
	movdqa	(%rsp), %xmm5
	movups	%xmm5, 88(%rdx)
	jmp	.L547
	.p2align 4,,10
	.p2align 3
.L591:
	addq	$56, %rsp
	.cfi_remember_state
	.cfi_def_cfa_offset 56
	movq	%rbx, %rdi
	popq	%rbx
	.cfi_def_cfa_offset 48
	popq	%rbp
	.cfi_def_cfa_offset 40
	popq	%r12
	.cfi_def_cfa_offset 32
	popq	%r13
	.cfi_def_cfa_offset 24
	popq	%r14
	.cfi_def_cfa_offset 16
	popq	%r15
	.cfi_def_cfa_offset 8
	jmp	_ZNSt16_Sp_counted_baseILN9__gnu_cxx12_Lock_policyE2EE24_M_release_last_use_coldEv@PLT
.LEHE36:
	.p2align 4,,10
	.p2align 3
.L552:
	.cfi_restore_state
	movdqa	16(%rsp), %xmm7
	movups	%xmm7, 8(%rax)
	jmp	.L545
.L566:
	movq	%rax, %rbp
	jmp	.L560
	.section	.gcc_except_table
.LLSDA8491:
	.byte	0xff
	.byte	0xff
	.byte	0x1
	.uleb128 .LLSDACSE8491-.LLSDACSB8491
.LLSDACSB8491:
	.uleb128 .LEHB35-.LFB8491
	.uleb128 .LEHE35-.LEHB35
	.uleb128 .L566-.LFB8491
	.uleb128 0
	.uleb128 .LEHB36-.LFB8491
	.uleb128 .LEHE36-.LEHB36
	.uleb128 0
	.uleb128 0
.LLSDACSE8491:
	.text
	.cfi_endproc
	.section	.text.unlikely
	.cfi_startproc
	.cfi_personality 0x9b,DW.ref.__gxx_personality_v0
	.cfi_lsda 0x1b,.LLSDAC8491
	.type	_ZN8asiodnp315OutstationStack13SetRestartIINEv.cold, @function
_ZN8asiodnp315OutstationStack13SetRestartIINEv.cold:
.LFSB8491:
.L535:
	.cfi_def_cfa_offset 112
	.cfi_offset 3, -56
	.cfi_offset 6, -48
	.cfi_offset 12, -40
	.cfi_offset 13, -32
	.cfi_offset 14, -24
	.cfi_offset 15, -16
	movl	$8, %edi
	call	__cxa_allocate_exception@PLT
	movq	_ZTVSt12bad_weak_ptr@GOTPCREL(%rip), %rdx
	movq	_ZTISt12bad_weak_ptr@GOTPCREL(%rip), %rsi
	movq	%rax, %rdi
	addq	$16, %rdx
	movq	%rdx, (%rax)
	movq	_ZNSt12bad_weak_ptrD1Ev@GOTPCREL(%rip), %rdx
.LEHB37:
	call	__cxa_throw@PLT
.L560:
	movq	%rbx, %rdi
	call	_ZNSt16_Sp_counted_baseILN9__gnu_cxx12_Lock_policyE2EE10_M_releaseEv@PLT
	movq	%rbx, %rdi
	call	_ZNSt16_Sp_counted_baseILN9__gnu_cxx12_Lock_policyE2EE10_M_releaseEv@PLT
	movq	%rbp, %rdi
	call	_Unwind_Resume@PLT
.LEHE37:
	.cfi_endproc
.LFE8491:
	.section	.gcc_except_table
.LLSDAC8491:
	.byte	0xff
	.byte	0xff
	.byte	0x1
	.uleb128 .LLSDACSEC8491-.LLSDACSBC8491
.LLSDACSBC8491:
	.uleb128 .LEHB37-.LCOLDB31
	.uleb128 .LEHE37-.LEHB37
	.uleb128 0
	.uleb128 0
.LLSDACSEC8491:
	.section	.text.unlikely
	.text
	.size	_ZN8asiodnp315OutstationStack13SetRestartIINEv, .-_ZN8asiodnp315OutstationStack13SetRestartIINEv
	.section	.text.unlikely
	.size	_ZN8asiodnp315OutstationStack13SetRestartIINEv.cold, .-_ZN8asiodnp315OutstationStack13SetRestartIINEv.cold
.LCOLDE31:
	.text
.LHOTE31:
	.section	.text._ZN8opendnp38OContextD0Ev,"axG",@progbits,_ZN8opendnp38OContextD5Ev,comdat
	.align 2
	.p2align 4
	.weak	_ZN8opendnp38OContextD0Ev
	.type	_ZN8opendnp38OContextD0Ev, @function
_ZN8opendnp38OContextD0Ev:
.LFB8443:
	.cfi_startproc
	pushq	%rbx
	.cfi_def_cfa_offset 16
	.cfi_offset 3, -16
	movq	%rdi, %rbx
	subq	$16, %rsp
	.cfi_def_cfa_offset 32
	movq	_ZTVN8opendnp38OContextE@GOTPCREL(%rip), %rax
	addq	$16, %rax
	movq	%rax, (%rdi)
	movq	936(%rdi), %rdi
	testq	%rdi, %rdi
	je	.L593
	call	_ZdaPv@PLT
.L593:
	movq	880(%rbx), %rdi
	testq	%rdi, %rdi
	je	.L594
	call	_ZdaPv@PLT
.L594:
	movq	800(%rbx), %rdi
	testq	%rdi, %rdi
	je	.L595
	call	_ZdaPv@PLT
.L595:
	leaq	728(%rbx), %rdi
	call	_ZN7openpal8TimerRefD1Ev@PLT
	movq	592(%rbx), %rdi
	testq	%rdi, %rdi
	je	.L596
	call	_ZdaPv@PLT
.L596:
	movq	568(%rbx), %rdi
	testq	%rdi, %rdi
	je	.L597
	call	_ZdaPv@PLT
.L597:
	movq	544(%rbx), %rdi
	testq	%rdi, %rdi
	je	.L598
	call	_ZdaPv@PLT
.L598:
	movq	520(%rbx), %rdi
	testq	%rdi, %rdi
	je	.L599
	call	_ZdaPv@PLT
.L599:
	movq	496(%rbx), %rdi
	testq	%rdi, %rdi
	je	.L600
	call	_ZdaPv@PLT
.L600:
	movq	472(%rbx), %rdi
	testq	%rdi, %rdi
	je	.L601
	call	_ZdaPv@PLT
.L601:
	movq	448(%rbx), %rdi
	testq	%rdi, %rdi
	je	.L602
	call	_ZdaPv@PLT
.L602:
	movq	424(%rbx), %rdi
	testq	%rdi, %rdi
	je	.L603
	call	_ZdaPv@PLT
.L603:
	movq	208(%rbx), %rdi
	testq	%rdi, %rdi
	je	.L604
	call	_ZdaPv@PLT
.L604:
	movq	96(%rbx), %rdi
	testq	%rdi, %rdi
	je	.L606
	movq	8(%rdi), %rdx
	leaq	8(%rdi), %rcx
	movabsq	$4294967297, %rax
	cmpq	%rax, %rdx
	je	.L678
	movq	__libc_single_threaded@GOTPCREL(%rip), %rax
	cmpb	$0, (%rax)
	je	.L608
	movl	8(%rdi), %eax
	leal	-1(%rax), %edx
	movl	%edx, 8(%rdi)
.L609:
	cmpl	$1, %eax
	je	.L679
.L606:
	movq	80(%rbx), %rdi
	testq	%rdi, %rdi
	je	.L612
	movq	8(%rdi), %rdx
	leaq	8(%rdi), %rcx
	movabsq	$4294967297, %rax
	cmpq	%rax, %rdx
	je	.L680
	movq	__libc_single_threaded@GOTPCREL(%rip), %rax
	cmpb	$0, (%rax)
	je	.L614
	movl	8(%rdi), %eax
	leal	-1(%rax), %edx
	movl	%edx, 8(%rdi)
.L615:
	cmpl	$1, %eax
	je	.L681
.L612:
	movq	64(%rbx), %rdi
	testq	%rdi, %rdi
	je	.L618
	movq	8(%rdi), %rdx
	leaq	8(%rdi), %rcx
	movabsq	$4294967297, %rax
	cmpq	%rax, %rdx
	je	.L682
	movq	__libc_single_threaded@GOTPCREL(%rip), %rax
	cmpb	$0, (%rax)
	je	.L620
	movl	8(%rdi), %eax
	leal	-1(%rax), %edx
	movl	%edx, 8(%rdi)
.L621:
	cmpl	$1, %eax
	je	.L683
.L618:
	movq	48(%rbx), %rdi
	testq	%rdi, %rdi
	je	.L624
	movq	8(%rdi), %rdx
	leaq	8(%rdi), %rcx
	movabsq	$4294967297, %rax
	cmpq	%rax, %rdx
	je	.L684
	movq	__libc_single_threaded@GOTPCREL(%rip), %rax
	cmpb	$0, (%rax)
	je	.L626
	movl	8(%rdi), %eax
	leal	-1(%rax), %edx
	movl	%edx, 8(%rdi)
.L627:
	cmpl	$1, %eax
	je	.L685
.L624:
	movq	32(%rbx), %rdi
	testq	%rdi, %rdi
	je	.L630
	movq	8(%rdi), %rdx
	leaq	8(%rdi), %rcx
	movabsq	$4294967297, %rax
	cmpq	%rax, %rdx
	je	.L686
	movq	__libc_single_threaded@GOTPCREL(%rip), %rax
	cmpb	$0, (%rax)
	je	.L632
	movl	8(%rdi), %eax
	leal	-1(%rax), %edx
	movl	%edx, 8(%rdi)
.L633:
	cmpl	$1, %eax
	je	.L687
.L630:
	movq	16(%rbx), %rdi
	testq	%rdi, %rdi
	je	.L636
	movq	8(%rdi), %rdx
	leaq	8(%rdi), %rcx
	movabsq	$4294967297, %rax
	cmpq	%rax, %rdx
	je	.L688
	movq	__libc_single_threaded@GOTPCREL(%rip), %rax
	cmpb	$0, (%rax)
	je	.L638
	movl	8(%rdi), %eax
	leal	-1(%rax), %edx
	movl	%edx, 8(%rdi)
.L639:
	cmpl	$1, %eax
	je	.L689
.L636:
	addq	$16, %rsp
	.cfi_remember_state
	.cfi_def_cfa_offset 16
	movq	%rbx, %rdi
	movl	$952, %esi
	popq	%rbx
	.cfi_def_cfa_offset 8
	jmp	_ZdlPvm@PLT
	.p2align 4,,10
	.p2align 3
.L680:
	.cfi_restore_state
	movq	(%rdi), %rax
	movq	%rdi, 8(%rsp)
	movq	$0, 8(%rdi)
	call	*16(%rax)
	movq	8(%rsp), %rdi
	movq	(%rdi), %rax
	call	*24(%rax)
	jmp	.L612
	.p2align 4,,10
	.p2align 3
.L686:
	movq	(%rdi), %rax
	movq	%rdi, 8(%rsp)
	movq	$0, 8(%rdi)
	call	*16(%rax)
	movq	8(%rsp), %rdi
	movq	(%rdi), %rax
	call	*24(%rax)
	jmp	.L630
	.p2align 4,,10
	.p2align 3
.L688:
	movq	(%rdi), %rax
	movq	%rdi, 8(%rsp)
	movq	$0, 8(%rdi)
	call	*16(%rax)
	movq	8(%rsp), %rdi
	movq	(%rdi), %rax
	call	*24(%rax)
	jmp	.L636
	.p2align 4,,10
	.p2align 3
.L682:
	movq	(%rdi), %rax
	movq	%rdi, 8(%rsp)
	movq	$0, 8(%rdi)
	call	*16(%rax)
	movq	8(%rsp), %rdi
	movq	(%rdi), %rax
	call	*24(%rax)
	jmp	.L618
	.p2align 4,,10
	.p2align 3
.L684:
	movq	(%rdi), %rax
	movq	%rdi, 8(%rsp)
	movq	$0, 8(%rdi)
	call	*16(%rax)
	movq	8(%rsp), %rdi
	movq	(%rdi), %rax
	call	*24(%rax)
	jmp	.L624
	.p2align 4,,10
	.p2align 3
.L678:
	movq	(%rdi), %rax
	movq	%rdi, 8(%rsp)
	movq	$0, 8(%rdi)
	call	*16(%rax)
	movq	8(%rsp), %rdi
	movq	(%rdi), %rax
	call	*24(%rax)
	jmp	.L606
	.p2align 4,,10
	.p2align 3
.L620:
	movl	$-1, %eax
	lock xaddl	%eax, (%rcx)
	jmp	.L621
	.p2align 4,,10
	.p2align 3
.L626:
	movl	$-1, %eax
	lock xaddl	%eax, (%rcx)
	jmp	.L627
	.p2align 4,,10
	.p2align 3
.L608:
	movl	$-1, %eax
	lock xaddl	%eax, (%rcx)
	jmp	.L609
	.p2align 4,,10
	.p2align 3
.L614:
	movl	$-1, %eax
	lock xaddl	%eax, (%rcx)
	jmp	.L615
	.p2align 4,,10
	.p2align 3
.L638:
	movl	$-1, %eax
	lock xaddl	%eax, (%rcx)
	jmp	.L639
	.p2align 4,,10
	.p2align 3
.L632:
	movl	$-1, %eax
	lock xaddl	%eax, (%rcx)
	jmp	.L633
	.p2align 4,,10
	.p2align 3
.L679:
	call	_ZNSt16_Sp_counted_baseILN9__gnu_cxx12_Lock_policyE2EE24_M_release_last_use_coldEv@PLT
	jmp	.L606
	.p2align 4,,10
	.p2align 3
.L687:
	call	_ZNSt16_Sp_counted_baseILN9__gnu_cxx12_Lock_policyE2EE24_M_release_last_use_coldEv@PLT
	jmp	.L630
	.p2align 4,,10
	.p2align 3
.L685:
	call	_ZNSt16_Sp_counted_baseILN9__gnu_cxx12_Lock_policyE2EE24_M_release_last_use_coldEv@PLT
	jmp	.L624
	.p2align 4,,10
	.p2align 3
.L683:
	call	_ZNSt16_Sp_counted_baseILN9__gnu_cxx12_Lock_policyE2EE24_M_release_last_use_coldEv@PLT
	jmp	.L618
	.p2align 4,,10
	.p2align 3
.L681:
	call	_ZNSt16_Sp_counted_baseILN9__gnu_cxx12_Lock_policyE2EE24_M_release_last_use_coldEv@PLT
	jmp	.L612
	.p2align 4,,10
	.p2align 3
.L689:
	call	_ZNSt16_Sp_counted_baseILN9__gnu_cxx12_Lock_policyE2EE24_M_release_last_use_coldEv@PLT
	jmp	.L636
	.cfi_endproc
.LFE8443:
	.size	_ZN8opendnp38OContextD0Ev, .-_ZN8opendnp38OContextD0Ev
	.section	.text.unlikely
	.align 2
.LCOLDB32:
	.text
.LHOTB32:
	.align 2
	.p2align 4
	.globl	_ZN8asiodnp315OutstationStack13SetLogFiltersERKN7openpal10LogFiltersE
	.type	_ZN8asiodnp315OutstationStack13SetLogFiltersERKN7openpal10LogFiltersE, @function
_ZN8asiodnp315OutstationStack13SetLogFiltersERKN7openpal10LogFiltersE:
.LFB8483:
	.cfi_startproc
	.cfi_personality 0x9b,DW.ref.__gxx_personality_v0
	.cfi_lsda 0x1b,.LLSDA8483
	pushq	%r15
	.cfi_def_cfa_offset 16
	.cfi_offset 15, -16
	pushq	%r14
	.cfi_def_cfa_offset 24
	.cfi_offset 14, -24
	pushq	%r13
	.cfi_def_cfa_offset 32
	.cfi_offset 13, -32
	pushq	%r12
	.cfi_def_cfa_offset 40
	.cfi_offset 12, -40
	pushq	%rbp
	.cfi_def_cfa_offset 48
	.cfi_offset 6, -48
	pushq	%rbx
	.cfi_def_cfa_offset 56
	.cfi_offset 3, -56
	subq	$88, %rsp
	.cfi_def_cfa_offset 144
	movq	32(%rdi), %rbx
	testq	%rbx, %rbx
	je	.L692
	movl	8(%rbx), %eax
	leaq	8(%rbx), %r12
.L694:
	testl	%eax, %eax
	je	.L692
	leal	1(%rax), %edx
	lock cmpxchgl	%edx, (%r12)
	jne	.L694
	movq	__libc_single_threaded@GOTPCREL(%rip), %rcx
	movq	24(%rdi), %r15
	movl	(%rsi), %eax
	movq	72(%rdi), %rbp
	cmpb	$0, (%rcx)
	je	.L746
	addl	$1, 8(%rbx)
.L695:
	movl	%eax, 64(%rsp)
	movq	40(%rbp), %r13
	data16	leaq	_ZN4asio6detail15keyword_tss_ptrINS0_10call_stackINS0_15task_io_serviceENS0_27task_io_service_thread_infoEE7contextEE6value_E@tlsgd(%rip), %rdi
	.value	0x6666
	rex64
	call	__tls_get_addr@PLT
	movq	(%rax), %rax
	testq	%rax, %rax
	je	.L696
	movq	8(%rax), %rax
	testq	%rax, %rax
	je	.L696
	movq	(%rax), %r14
	testq	%r14, %r14
	je	.L696
	movq	$0, (%rax)
	movzbl	(%r14), %eax
	cmpb	$47, %al
	jbe	.L697
	movb	%al, 48(%r14)
	jmp	.L698
	.p2align 4,,10
	.p2align 3
.L697:
	movq	%r14, %rdi
	call	_ZdlPv@PLT
.L696:
	movl	$49, %edi
.LEHB38:
	call	_Znwm@PLT
.LEHE38:
	movb	$48, 48(%rax)
	movq	%rax, %r14
.L698:
	movq	%rbx, %xmm2
	leaq	_ZN4asio6detail18completion_handlerIZN8asiodnp315OutstationStack13SetLogFiltersERKN7openpal10LogFiltersEEUlvE_E11do_completeEPNS0_15task_io_serviceEPNS0_25task_io_service_operationERKSt10error_codem(%rip), %rax
	movq	%r15, %xmm0
	movq	$0, (%r14)
	movq	%rax, 8(%r14)
	movl	64(%rsp), %eax
	punpcklqdq	%xmm2, %xmm0
	movq	%r14, %xmm1
	movups	%xmm0, 24(%r14)
	punpcklqdq	%xmm1, %xmm1
	movl	%eax, 40(%r14)
	movq	48(%rbp), %rax
	movl	$0, 16(%r14)
	leaq	24(%rax), %rdi
	movaps	%xmm1, (%rsp)
	call	pthread_mutex_lock@PLT
	movq	48(%rbp), %rdi
	cmpb	$0, 64(%rdi)
	je	.L699
	movq	80(%rdi), %rax
	movq	$0, (%r14)
	testq	%rax, %rax
	je	.L700
	movq	%r14, (%rax)
	movq	%r14, 80(%rdi)
.L701:
	addq	$24, %rdi
	call	pthread_mutex_unlock@PLT
.L702:
	movabsq	$4294967297, %rax
	movq	8(%rbx), %rdx
	cmpq	%rax, %rdx
	je	.L747
	movq	__libc_single_threaded@GOTPCREL(%rip), %rax
	cmpb	$0, (%rax)
	je	.L718
	movl	8(%rbx), %eax
	leal	-1(%rax), %edx
	movl	%edx, 8(%rbx)
.L719:
	cmpl	$1, %eax
	je	.L748
	addq	$88, %rsp
	.cfi_remember_state
	.cfi_def_cfa_offset 56
	popq	%rbx
	.cfi_def_cfa_offset 48
	popq	%rbp
	.cfi_def_cfa_offset 40
	popq	%r12
	.cfi_def_cfa_offset 32
	popq	%r13
	.cfi_def_cfa_offset 24
	popq	%r14
	.cfi_def_cfa_offset 16
	popq	%r15
	.cfi_def_cfa_offset 8
	ret
	.p2align 4,,10
	.p2align 3
.L700:
	.cfi_restore_state
	movdqa	(%rsp), %xmm4
	movups	%xmm4, 72(%rdi)
	jmp	.L701
	.p2align 4,,10
	.p2align 3
.L699:
	movb	$1, 64(%rdi)
	addq	$24, %rdi
	call	pthread_mutex_unlock@PLT
	movq	48(%rbp), %rdx
	movq	$0, (%r14)
	movq	%rdx, %xmm3
	movq	96(%rdx), %rax
	punpcklqdq	%xmm3, %xmm3
	movaps	%xmm3, 16(%rsp)
	testq	%rax, %rax
	je	.L703
	movq	%r14, (%rax)
	movq	%r14, 96(%rdx)
.L704:
	movq	40(%r13), %rbp
	cmpb	$0, 40(%rbp)
	je	.L705
	movq	%rdx, (%rsp)
	data16	leaq	_ZN4asio6detail15keyword_tss_ptrINS0_10call_stackINS0_15task_io_serviceENS0_27task_io_service_thread_infoEE7contextEE6value_E@tlsgd(%rip), %rdi
	.value	0x6666
	rex64
	call	__tls_get_addr@PLT
	movq	(%rsp), %rdx
	movq	(%rax), %rax
	testq	%rax, %rax
	jne	.L708
	jmp	.L705
	.p2align 4
	.p2align 4,,10
	.p2align 3
.L706:
	movq	16(%rax), %rax
	testq	%rax, %rax
	je	.L705
.L708:
	cmpq	(%rax), %rbp
	jne	.L706
	movq	8(%rax), %rax
	testq	%rax, %rax
	je	.L705
	movq	16(%rax), %rcx
	addq	$1, 24(%rax)
	movq	$0, (%rdx)
	testq	%rcx, %rcx
	je	.L709
	movq	%rdx, (%rcx)
	movq	%rdx, 16(%rax)
	jmp	.L702
	.p2align 4,,10
	.p2align 3
.L705:
	movq	%rdx, (%rsp)
	lock addq	$1, 184(%rbp)
	leaq	48(%rbp), %r13
	movq	%r13, %rdi
	call	pthread_mutex_lock@PLT
	movq	(%rsp), %rdx
	movq	200(%rbp), %rax
	movq	$0, (%rdx)
	testq	%rax, %rax
	je	.L710
	movq	%rdx, (%rax)
	movq	%rdx, 200(%rbp)
.L711:
	movq	136(%rbp), %rax
	movq	%rax, %rdx
	orq	$1, %rdx
	movq	%rdx, 136(%rbp)
	cmpq	$1, %rax
	jbe	.L712
	movq	%r13, %rdi
	call	pthread_mutex_unlock@PLT
	leaq	88(%rbp), %rdi
	call	pthread_cond_signal@PLT
	jmp	.L702
	.p2align 4,,10
	.p2align 3
.L746:
	lock addl	$1, 8(%rbx)
	jmp	.L695
	.p2align 4,,10
	.p2align 3
.L710:
	movdqa	16(%rsp), %xmm6
	movups	%xmm6, 192(%rbp)
	jmp	.L711
	.p2align 4,,10
	.p2align 3
.L718:
	movl	$-1, %eax
	lock xaddl	%eax, (%r12)
	jmp	.L719
	.p2align 4,,10
	.p2align 3
.L712:
	cmpb	$0, 176(%rbp)
	jne	.L714
	movq	144(%rbp), %rax
	testq	%rax, %rax
	je	.L714
	leaq	88(%rax), %rdx
	movb	$1, 176(%rbp)
	movl	96(%rax), %edi
	leaq	36(%rsp), %rcx
	movq	%rdx, 40(%rsp)
	movl	88(%rax), %edx
	movl	$3, %esi
	movl	$-2147483639, 36(%rsp)
	call	epoll_ctl@PLT
.L714:
	movq	%r13, %rdi
	call	pthread_mutex_unlock@PLT
	jmp	.L702
	.p2align 4,,10
	.p2align 3
.L747:
	movq	(%rbx), %rax
	movq	%rbx, %rdi
	movq	$0, 8(%rbx)
	call	*16(%rax)
	movq	(%rbx), %rax
	movq	%rbx, %rdi
	movq	24(%rax), %rax
	addq	$88, %rsp
	.cfi_remember_state
	.cfi_def_cfa_offset 56
	popq	%rbx
	.cfi_def_cfa_offset 48
	popq	%rbp
	.cfi_def_cfa_offset 40
	popq	%r12
	.cfi_def_cfa_offset 32
	popq	%r13
	.cfi_def_cfa_offset 24
	popq	%r14
	.cfi_def_cfa_offset 16
	popq	%r15
	.cfi_def_cfa_offset 8
.LEHB39:
	jmp	*%rax
	.p2align 4,,10
	.p2align 3
.L703:
	.cfi_restore_state
	movdqa	(%rsp), %xmm5
	movups	%xmm5, 88(%rdx)
	jmp	.L704
	.p2align 4,,10
	.p2align 3
.L748:
	addq	$88, %rsp
	.cfi_remember_state
	.cfi_def_cfa_offset 56
	movq	%rbx, %rdi
	popq	%rbx
	.cfi_def_cfa_offset 48
	popq	%rbp
	.cfi_def_cfa_offset 40
	popq	%r12
	.cfi_def_cfa_offset 32
	popq	%r13
	.cfi_def_cfa_offset 24
	popq	%r14
	.cfi_def_cfa_offset 16
	popq	%r15
	.cfi_def_cfa_offset 8
	jmp	_ZNSt16_Sp_counted_baseILN9__gnu_cxx12_Lock_policyE2EE24_M_release_last_use_coldEv@PLT
.LEHE39:
	.p2align 4,,10
	.p2align 3
.L709:
	.cfi_restore_state
	movdqa	16(%rsp), %xmm7
	movups	%xmm7, 8(%rax)
	jmp	.L702
.L723:
	movq	%rax, %rbp
	jmp	.L717
	.section	.gcc_except_table
.LLSDA8483:
	.byte	0xff
	.byte	0xff
	.byte	0x1
	.uleb128 .LLSDACSE8483-.LLSDACSB8483
.LLSDACSB8483:
	.uleb128 .LEHB38-.LFB8483
	.uleb128 .LEHE38-.LEHB38
	.uleb128 .L723-.LFB8483
	.uleb128 0
	.uleb128 .LEHB39-.LFB8483
	.uleb128 .LEHE39-.LEHB39
	.uleb128 0
	.uleb128 0
.LLSDACSE8483:
	.text
	.cfi_endproc
	.section	.text.unlikely
	.cfi_startproc
	.cfi_personality 0x9b,DW.ref.__gxx_personality_v0
	.cfi_lsda 0x1b,.LLSDAC8483
	.type	_ZN8asiodnp315OutstationStack13SetLogFiltersERKN7openpal10LogFiltersE.cold, @function
_ZN8asiodnp315OutstationStack13SetLogFiltersERKN7openpal10LogFiltersE.cold:
.LFSB8483:
.L692:
	.cfi_def_cfa_offset 144
	.cfi_offset 3, -56
	.cfi_offset 6, -48
	.cfi_offset 12, -40
	.cfi_offset 13, -32
	.cfi_offset 14, -24
	.cfi_offset 15, -16
	movl	$8, %edi
	call	__cxa_allocate_exception@PLT
	movq	_ZTVSt12bad_weak_ptr@GOTPCREL(%rip), %rdx
	movq	_ZTISt12bad_weak_ptr@GOTPCREL(%rip), %rsi
	movq	%rax, %rdi
	addq	$16, %rdx
	movq	%rdx, (%rax)
	movq	_ZNSt12bad_weak_ptrD1Ev@GOTPCREL(%rip), %rdx
.LEHB40:
	call	__cxa_throw@PLT
.L717:
	movq	%rbx, %rdi
	call	_ZNSt16_Sp_counted_baseILN9__gnu_cxx12_Lock_policyE2EE10_M_releaseEv@PLT
	movq	%rbx, %rdi
	call	_ZNSt16_Sp_counted_baseILN9__gnu_cxx12_Lock_policyE2EE10_M_releaseEv@PLT
	movq	%rbp, %rdi
	call	_Unwind_Resume@PLT
.LEHE40:
	.cfi_endproc
.LFE8483:
	.section	.gcc_except_table
.LLSDAC8483:
	.byte	0xff
	.byte	0xff
	.byte	0x1
	.uleb128 .LLSDACSEC8483-.LLSDACSBC8483
.LLSDACSBC8483:
	.uleb128 .LEHB40-.LCOLDB32
	.uleb128 .LEHE40-.LEHB40
	.uleb128 0
	.uleb128 0
.LLSDACSEC8483:
	.section	.text.unlikely
	.text
	.size	_ZN8asiodnp315OutstationStack13SetLogFiltersERKN7openpal10LogFiltersE, .-_ZN8asiodnp315OutstationStack13SetLogFiltersERKN7openpal10LogFiltersE
	.section	.text.unlikely
	.size	_ZN8asiodnp315OutstationStack13SetLogFiltersERKN7openpal10LogFiltersE.cold, .-_ZN8asiodnp315OutstationStack13SetLogFiltersERKN7openpal10LogFiltersE.cold
.LCOLDE32:
	.text
.LHOTE32:
	.section	.text._ZN8opendnp38OContextD2Ev,"axG",@progbits,_ZN8opendnp38OContextD5Ev,comdat
	.align 2
	.p2align 4
	.weak	_ZN8opendnp38OContextD2Ev
	.type	_ZN8opendnp38OContextD2Ev, @function
_ZN8opendnp38OContextD2Ev:
.LFB8441:
	.cfi_startproc
	pushq	%rbx
	.cfi_def_cfa_offset 16
	.cfi_offset 3, -16
	movq	%rdi, %rbx
	subq	$16, %rsp
	.cfi_def_cfa_offset 32
	movq	_ZTVN8opendnp38OContextE@GOTPCREL(%rip), %rax
	addq	$16, %rax
	movq	%rax, (%rdi)
	movq	936(%rdi), %rdi
	testq	%rdi, %rdi
	je	.L750
	call	_ZdaPv@PLT
.L750:
	movq	880(%rbx), %rdi
	testq	%rdi, %rdi
	je	.L751
	call	_ZdaPv@PLT
.L751:
	movq	800(%rbx), %rdi
	testq	%rdi, %rdi
	je	.L752
	call	_ZdaPv@PLT
.L752:
	leaq	728(%rbx), %rdi
	call	_ZN7openpal8TimerRefD1Ev@PLT
	movq	592(%rbx), %rdi
	testq	%rdi, %rdi
	je	.L753
	call	_ZdaPv@PLT
.L753:
	movq	568(%rbx), %rdi
	testq	%rdi, %rdi
	je	.L754
	call	_ZdaPv@PLT
.L754:
	movq	544(%rbx), %rdi
	testq	%rdi, %rdi
	je	.L755
	call	_ZdaPv@PLT
.L755:
	movq	520(%rbx), %rdi
	testq	%rdi, %rdi
	je	.L756
	call	_ZdaPv@PLT
.L756:
	movq	496(%rbx), %rdi
	testq	%rdi, %rdi
	je	.L757
	call	_ZdaPv@PLT
.L757:
	movq	472(%rbx), %rdi
	testq	%rdi, %rdi
	je	.L758
	call	_ZdaPv@PLT
.L758:
	movq	448(%rbx), %rdi
	testq	%rdi, %rdi
	je	.L759
	call	_ZdaPv@PLT
.L759:
	movq	424(%rbx), %rdi
	testq	%rdi, %rdi
	je	.L760
	call	_ZdaPv@PLT
.L760:
	movq	208(%rbx), %rdi
	testq	%rdi, %rdi
	je	.L761
	call	_ZdaPv@PLT
.L761:
	movq	96(%rbx), %rdi
	testq	%rdi, %rdi
	je	.L763
	movq	8(%rdi), %rdx
	leaq	8(%rdi), %rcx
	movabsq	$4294967297, %rax
	cmpq	%rax, %rdx
	je	.L835
	movq	__libc_single_threaded@GOTPCREL(%rip), %rax
	cmpb	$0, (%rax)
	je	.L765
	movl	8(%rdi), %eax
	leal	-1(%rax), %edx
	movl	%edx, 8(%rdi)
.L766:
	cmpl	$1, %eax
	je	.L836
.L763:
	movq	80(%rbx), %rdi
	testq	%rdi, %rdi
	je	.L769
	movq	8(%rdi), %rdx
	leaq	8(%rdi), %rcx
	movabsq	$4294967297, %rax
	cmpq	%rax, %rdx
	je	.L837
	movq	__libc_single_threaded@GOTPCREL(%rip), %rax
	cmpb	$0, (%rax)
	je	.L771
	movl	8(%rdi), %eax
	leal	-1(%rax), %edx
	movl	%edx, 8(%rdi)
.L772:
	cmpl	$1, %eax
	je	.L838
.L769:
	movq	64(%rbx), %rdi
	testq	%rdi, %rdi
	je	.L775
	movq	8(%rdi), %rdx
	leaq	8(%rdi), %rcx
	movabsq	$4294967297, %rax
	cmpq	%rax, %rdx
	je	.L839
	movq	__libc_single_threaded@GOTPCREL(%rip), %rax
	cmpb	$0, (%rax)
	je	.L777
	movl	8(%rdi), %eax
	leal	-1(%rax), %edx
	movl	%edx, 8(%rdi)
.L778:
	cmpl	$1, %eax
	je	.L840
.L775:
	movq	48(%rbx), %rdi
	testq	%rdi, %rdi
	je	.L781
	movq	8(%rdi), %rdx
	leaq	8(%rdi), %rcx
	movabsq	$4294967297, %rax
	cmpq	%rax, %rdx
	je	.L841
	movq	__libc_single_threaded@GOTPCREL(%rip), %rax
	cmpb	$0, (%rax)
	je	.L783
	movl	8(%rdi), %eax
	leal	-1(%rax), %edx
	movl	%edx, 8(%rdi)
.L784:
	cmpl	$1, %eax
	je	.L842
.L781:
	movq	32(%rbx), %rdi
	testq	%rdi, %rdi
	je	.L787
	movq	8(%rdi), %rdx
	leaq	8(%rdi), %rcx
	movabsq	$4294967297, %rax
	cmpq	%rax, %rdx
	je	.L843
	movq	__libc_single_threaded@GOTPCREL(%rip), %rax
	cmpb	$0, (%rax)
	je	.L789
	movl	8(%rdi), %eax
	leal	-1(%rax), %edx
	movl	%edx, 8(%rdi)
.L790:
	cmpl	$1, %eax
	je	.L844
.L787:
	movq	16(%rbx), %rbx
	testq	%rbx, %rbx
	je	.L749
	movq	8(%rbx), %rdx
	leaq	8(%rbx), %rcx
	movabsq	$4294967297, %rax
	cmpq	%rax, %rdx
	je	.L845
	movq	__libc_single_threaded@GOTPCREL(%rip), %rax
	cmpb	$0, (%rax)
	je	.L795
	movl	8(%rbx), %eax
	leal	-1(%rax), %edx
	movl	%edx, 8(%rbx)
.L796:
	cmpl	$1, %eax
	je	.L846
.L749:
	addq	$16, %rsp
	.cfi_remember_state
	.cfi_def_cfa_offset 16
	popq	%rbx
	.cfi_def_cfa_offset 8
	ret
	.p2align 4,,10
	.p2align 3
.L837:
	.cfi_restore_state
	movq	(%rdi), %rax
	movq	%rdi, 8(%rsp)
	movq	$0, 8(%rdi)
	call	*16(%rax)
	movq	8(%rsp), %rdi
	movq	(%rdi), %rax
	call	*24(%rax)
	jmp	.L769
	.p2align 4,,10
	.p2align 3
.L843:
	movq	(%rdi), %rax
	movq	%rdi, 8(%rsp)
	movq	$0, 8(%rdi)
	call	*16(%rax)
	movq	8(%rsp), %rdi
	movq	(%rdi), %rax
	call	*24(%rax)
	jmp	.L787
	.p2align 4,,10
	.p2align 3
.L845:
	movq	(%rbx), %rax
	movq	%rbx, %rdi
	movq	$0, 8(%rbx)
	call	*16(%rax)
	movq	(%rbx), %rax
	movq	%rbx, %rdi
	movq	24(%rax), %rax
	addq	$16, %rsp
	.cfi_remember_state
	.cfi_def_cfa_offset 16
	popq	%rbx
	.cfi_def_cfa_offset 8
	jmp	*%rax
	.p2align 4,,10
	.p2align 3
.L839:
	.cfi_restore_state
	movq	(%rdi), %rax
	movq	%rdi, 8(%rsp)
	movq	$0, 8(%rdi)
	call	*16(%rax)
	movq	8(%rsp), %rdi
	movq	(%rdi), %rax
	call	*24(%rax)
	jmp	.L775
	.p2align 4,,10
	.p2align 3
.L841:
	movq	(%rdi), %rax
	movq	%rdi, 8(%rsp)
	movq	$0, 8(%rdi)
	call	*16(%rax)
	movq	8(%rsp), %rdi
	movq	(%rdi), %rax
	call	*24(%rax)
	jmp	.L781
	.p2align 4,,10
	.p2align 3
.L835:
	movq	(%rdi), %rax
	movq	%rdi, 8(%rsp)
	movq	$0, 8(%rdi)
	call	*16(%rax)
	movq	8(%rsp), %rdi
	movq	(%rdi), %rax
	call	*24(%rax)
	jmp	.L763
	.p2align 4,,10
	.p2align 3
.L777:
	movl	$-1, %eax
	lock xaddl	%eax, (%rcx)
	jmp	.L778
	.p2align 4,,10
	.p2align 3
.L783:
	movl	$-1, %eax
	lock xaddl	%eax, (%rcx)
	jmp	.L784
	.p2align 4,,10
	.p2align 3
.L765:
	movl	$-1, %eax
	lock xaddl	%eax, (%rcx)
	jmp	.L766
	.p2align 4,,10
	.p2align 3
.L771:
	movl	$-1, %eax
	lock xaddl	%eax, (%rcx)
	jmp	.L772
	.p2align 4,,10
	.p2align 3
.L795:
	movl	$-1, %eax
	lock xaddl	%eax, (%rcx)
	jmp	.L796
	.p2align 4,,10
	.p2align 3
.L789:
	movl	$-1, %eax
	lock xaddl	%eax, (%rcx)
	jmp	.L790
	.p2align 4,,10
	.p2align 3
.L836:
	call	_ZNSt16_Sp_counted_baseILN9__gnu_cxx12_Lock_policyE2EE24_M_release_last_use_coldEv@PLT
	jmp	.L763
	.p2align 4,,10
	.p2align 3
.L844:
	call	_ZNSt16_Sp_counted_baseILN9__gnu_cxx12_Lock_policyE2EE24_M_release_last_use_coldEv@PLT
	jmp	.L787
	.p2align 4,,10
	.p2align 3
.L842:
	call	_ZNSt16_Sp_counted_baseILN9__gnu_cxx12_Lock_policyE2EE24_M_release_last_use_coldEv@PLT
	jmp	.L781
	.p2align 4,,10
	.p2align 3
.L840:
	call	_ZNSt16_Sp_counted_baseILN9__gnu_cxx12_Lock_policyE2EE24_M_release_last_use_coldEv@PLT
	jmp	.L775
	.p2align 4,,10
	.p2align 3
.L838:
	call	_ZNSt16_Sp_counted_baseILN9__gnu_cxx12_Lock_policyE2EE24_M_release_last_use_coldEv@PLT
	jmp	.L769
	.p2align 4,,10
	.p2align 3
.L846:
	addq	$16, %rsp
	.cfi_def_cfa_offset 16
	movq	%rbx, %rdi
	popq	%rbx
	.cfi_def_cfa_offset 8
	jmp	_ZNSt16_Sp_counted_baseILN9__gnu_cxx12_Lock_policyE2EE24_M_release_last_use_coldEv@PLT
	.cfi_endproc
.LFE8441:
	.size	_ZN8opendnp38OContextD2Ev, .-_ZN8opendnp38OContextD2Ev
	.weak	_ZN8opendnp38OContextD1Ev
	.set	_ZN8opendnp38OContextD1Ev,_ZN8opendnp38OContextD2Ev
	.section	.text._ZN8asiodnp315OutstationStackD2Ev,"axG",@progbits,_ZN8asiodnp315OutstationStackD5Ev,comdat
	.p2align 4
	.weak	_ZThn8_N8asiodnp315OutstationStackD1Ev
	.type	_ZThn8_N8asiodnp315OutstationStackD1Ev, @function
_ZThn8_N8asiodnp315OutstationStackD1Ev:
.LFB12052:
	.cfi_startproc
	pushq	%rbx
	.cfi_def_cfa_offset 16
	.cfi_offset 3, -16
	movq	%rdi, %rbx
	subq	$16, %rsp
	.cfi_def_cfa_offset 32
	movq	_ZTVN8asiodnp315OutstationStackE@GOTPCREL(%rip), %rax
	leaq	144(%rax), %rdx
	leaq	16(%rax), %rsi
	addq	$208, %rax
	movq	%rax, 8(%rdi)
	movq	_ZTVN8opendnp38OContextE@GOTPCREL(%rip), %rax
	movq	%rsi, %xmm0
	movq	%rdx, %xmm1
	punpcklqdq	%xmm1, %xmm0
	addq	$16, %rax
	movups	%xmm0, -8(%rdi)
	movq	%rax, 144(%rdi)
	movq	1080(%rdi), %rdi
	testq	%rdi, %rdi
	je	.L848
	call	_ZdaPv@PLT
.L848:
	movq	1024(%rbx), %rdi
	testq	%rdi, %rdi
	je	.L849
	call	_ZdaPv@PLT
.L849:
	movq	944(%rbx), %rdi
	testq	%rdi, %rdi
	je	.L850
	call	_ZdaPv@PLT
.L850:
	leaq	872(%rbx), %rdi
	call	_ZN7openpal8TimerRefD1Ev@PLT
	movq	736(%rbx), %rdi
	testq	%rdi, %rdi
	je	.L851
	call	_ZdaPv@PLT
.L851:
	movq	712(%rbx), %rdi
	testq	%rdi, %rdi
	je	.L852
	call	_ZdaPv@PLT
.L852:
	movq	688(%rbx), %rdi
	testq	%rdi, %rdi
	je	.L853
	call	_ZdaPv@PLT
.L853:
	movq	664(%rbx), %rdi
	testq	%rdi, %rdi
	je	.L854
	call	_ZdaPv@PLT
.L854:
	movq	640(%rbx), %rdi
	testq	%rdi, %rdi
	je	.L855
	call	_ZdaPv@PLT
.L855:
	movq	616(%rbx), %rdi
	testq	%rdi, %rdi
	je	.L856
	call	_ZdaPv@PLT
.L856:
	movq	592(%rbx), %rdi
	testq	%rdi, %rdi
	je	.L857
	call	_ZdaPv@PLT
.L857:
	movq	568(%rbx), %rdi
	testq	%rdi, %rdi
	je	.L858
	call	_ZdaPv@PLT
.L858:
	movq	352(%rbx), %rdi
	testq	%rdi, %rdi
	je	.L859
	call	_ZdaPv@PLT
.L859:
	movq	240(%rbx), %rdi
	testq	%rdi, %rdi
	je	.L861
	movq	8(%rdi), %rdx
	leaq	8(%rdi), %rcx
	movabsq	$4294967297, %rax
	cmpq	%rax, %rdx
	je	.L980
	movq	__libc_single_threaded@GOTPCREL(%rip), %rax
	cmpb	$0, (%rax)
	je	.L863
	movl	8(%rdi), %eax
	leal	-1(%rax), %edx
	movl	%edx, 8(%rdi)
.L864:
	cmpl	$1, %eax
	je	.L981
.L861:
	movq	224(%rbx), %rdi
	testq	%rdi, %rdi
	je	.L867
	movq	8(%rdi), %rdx
	leaq	8(%rdi), %rcx
	movabsq	$4294967297, %rax
	cmpq	%rax, %rdx
	je	.L982
	movq	__libc_single_threaded@GOTPCREL(%rip), %rax
	cmpb	$0, (%rax)
	je	.L869
	movl	8(%rdi), %eax
	leal	-1(%rax), %edx
	movl	%edx, 8(%rdi)
.L870:
	cmpl	$1, %eax
	je	.L983
.L867:
	movq	208(%rbx), %rdi
	testq	%rdi, %rdi
	je	.L873
	movq	8(%rdi), %rdx
	leaq	8(%rdi), %rcx
	movabsq	$4294967297, %rax
	cmpq	%rax, %rdx
	je	.L984
	movq	__libc_single_threaded@GOTPCREL(%rip), %rax
	cmpb	$0, (%rax)
	je	.L875
	movl	8(%rdi), %eax
	leal	-1(%rax), %edx
	movl	%edx, 8(%rdi)
.L876:
	cmpl	$1, %eax
	je	.L985
.L873:
	movq	192(%rbx), %rdi
	testq	%rdi, %rdi
	je	.L879
	movq	8(%rdi), %rdx
	leaq	8(%rdi), %rcx
	movabsq	$4294967297, %rax
	cmpq	%rax, %rdx
	je	.L986
	movq	__libc_single_threaded@GOTPCREL(%rip), %rax
	cmpb	$0, (%rax)
	je	.L881
	movl	8(%rdi), %eax
	leal	-1(%rax), %edx
	movl	%edx, 8(%rdi)
.L882:
	cmpl	$1, %eax
	je	.L987
.L879:
	movq	176(%rbx), %rdi
	testq	%rdi, %rdi
	je	.L885
	movq	8(%rdi), %rdx
	leaq	8(%rdi), %rcx
	movabsq	$4294967297, %rax
	cmpq	%rax, %rdx
	je	.L988
	movq	__libc_single_threaded@GOTPCREL(%rip), %rax
	cmpb	$0, (%rax)
	je	.L887
	movl	8(%rdi), %eax
	leal	-1(%rax), %edx
	movl	%edx, 8(%rdi)
.L888:
	cmpl	$1, %eax
	je	.L989
.L885:
	movq	160(%rbx), %rdi
	testq	%rdi, %rdi
	je	.L891
	movq	8(%rdi), %rdx
	leaq	8(%rdi), %rcx
	movabsq	$4294967297, %rax
	cmpq	%rax, %rdx
	je	.L990
	movq	__libc_single_threaded@GOTPCREL(%rip), %rax
	cmpb	$0, (%rax)
	je	.L893
	movl	8(%rdi), %eax
	leal	-1(%rax), %edx
	movl	%edx, 8(%rdi)
.L894:
	cmpl	$1, %eax
	je	.L991
.L891:
	movq	136(%rbx), %rdi
	testq	%rdi, %rdi
	je	.L897
	movq	8(%rdi), %rdx
	leaq	8(%rdi), %rcx
	movabsq	$4294967297, %rax
	cmpq	%rax, %rdx
	je	.L992
	movq	__libc_single_threaded@GOTPCREL(%rip), %rax
	cmpb	$0, (%rax)
	je	.L899
	movl	8(%rdi), %eax
	leal	-1(%rax), %edx
	movl	%edx, 8(%rdi)
.L900:
	cmpl	$1, %eax
	je	.L993
.L897:
	movq	120(%rbx), %rdi
	testq	%rdi, %rdi
	je	.L903
	movq	8(%rdi), %rdx
	leaq	8(%rdi), %rcx
	movabsq	$4294967297, %rax
	cmpq	%rax, %rdx
	je	.L994
	movq	__libc_single_threaded@GOTPCREL(%rip), %rax
	cmpb	$0, (%rax)
	je	.L905
	movl	8(%rdi), %eax
	leal	-1(%rax), %edx
	movl	%edx, 8(%rdi)
.L906:
	cmpl	$1, %eax
	je	.L995
.L903:
	movq	104(%rbx), %rdi
	testq	%rdi, %rdi
	je	.L909
	movq	8(%rdi), %rdx
	leaq	8(%rdi), %rcx
	movabsq	$4294967297, %rax
	cmpq	%rax, %rdx
	je	.L996
	movq	__libc_single_threaded@GOTPCREL(%rip), %rax
	cmpb	$0, (%rax)
	je	.L911
	movl	8(%rdi), %eax
	leal	-1(%rax), %edx
	movl	%edx, 8(%rdi)
.L912:
	cmpl	$1, %eax
	je	.L997
.L909:
	movq	88(%rbx), %rdi
	testq	%rdi, %rdi
	je	.L915
	movq	8(%rdi), %rdx
	leaq	8(%rdi), %rcx
	movabsq	$4294967297, %rax
	cmpq	%rax, %rdx
	je	.L998
	movq	__libc_single_threaded@GOTPCREL(%rip), %rax
	cmpb	$0, (%rax)
	je	.L917
	movl	8(%rdi), %eax
	leal	-1(%rax), %edx
	movl	%edx, 8(%rdi)
.L918:
	cmpl	$1, %eax
	je	.L999
.L915:
	movq	72(%rbx), %rdi
	testq	%rdi, %rdi
	je	.L921
	movq	8(%rdi), %rdx
	leaq	8(%rdi), %rcx
	movabsq	$4294967297, %rax
	cmpq	%rax, %rdx
	je	.L1000
	movq	__libc_single_threaded@GOTPCREL(%rip), %rax
	cmpb	$0, (%rax)
	je	.L923
	movl	8(%rdi), %eax
	leal	-1(%rax), %edx
	movl	%edx, 8(%rdi)
.L924:
	cmpl	$1, %eax
	je	.L1001
.L921:
	movq	56(%rbx), %rdi
	testq	%rdi, %rdi
	je	.L927
	movq	8(%rdi), %rdx
	leaq	8(%rdi), %rcx
	movabsq	$4294967297, %rax
	cmpq	%rax, %rdx
	je	.L1002
	movq	__libc_single_threaded@GOTPCREL(%rip), %rax
	cmpb	$0, (%rax)
	je	.L929
	movl	8(%rdi), %eax
	leal	-1(%rax), %edx
	movl	%edx, 8(%rdi)
.L930:
	cmpl	$1, %eax
	je	.L1003
.L927:
	movq	40(%rbx), %rdi
	testq	%rdi, %rdi
	je	.L933
	movq	8(%rdi), %rdx
	leaq	8(%rdi), %rcx
	movabsq	$4294967297, %rax
	cmpq	%rax, %rdx
	je	.L1004
	movq	__libc_single_threaded@GOTPCREL(%rip), %rax
	cmpb	$0, (%rax)
	je	.L935
	movl	8(%rdi), %eax
	leal	-1(%rax), %edx
	movl	%edx, 8(%rdi)
.L936:
	cmpl	$1, %eax
	je	.L1005
.L933:
	movq	24(%rbx), %rdi
	testq	%rdi, %rdi
	je	.L847
	movq	__libc_single_threaded@GOTPCREL(%rip), %rax
	cmpb	$0, (%rax)
	je	.L940
	movl	12(%rdi), %eax
	leal	-1(%rax), %edx
	movl	%edx, 12(%rdi)
.L941:
	cmpl	$1, %eax
	je	.L1006
.L847:
	addq	$16, %rsp
	.cfi_remember_state
	.cfi_def_cfa_offset 16
	popq	%rbx
	.cfi_def_cfa_offset 8
	ret
	.p2align 4,,10
	.p2align 3
.L1006:
	.cfi_restore_state
	movq	(%rdi), %rax
	movq	24(%rax), %rax
	addq	$16, %rsp
	.cfi_remember_state
	.cfi_def_cfa_offset 16
	popq	%rbx
	.cfi_def_cfa_offset 8
	jmp	*%rax
	.p2align 4,,10
	.p2align 3
.L940:
	.cfi_restore_state
	movl	$-1, %eax
	lock xaddl	%eax, 12(%rdi)
	jmp	.L941
	.p2align 4,,10
	.p2align 3
.L980:
	movq	(%rdi), %rax
	movq	%rdi, 8(%rsp)
	movq	$0, 8(%rdi)
	call	*16(%rax)
	movq	8(%rsp), %rdi
	movq	(%rdi), %rax
	call	*24(%rax)
	jmp	.L861
	.p2align 4,,10
	.p2align 3
.L982:
	movq	(%rdi), %rax
	movq	%rdi, 8(%rsp)
	movq	$0, 8(%rdi)
	call	*16(%rax)
	movq	8(%rsp), %rdi
	movq	(%rdi), %rax
	call	*24(%rax)
	jmp	.L867
	.p2align 4,,10
	.p2align 3
.L984:
	movq	(%rdi), %rax
	movq	%rdi, 8(%rsp)
	movq	$0, 8(%rdi)
	call	*16(%rax)
	movq	8(%rsp), %rdi
	movq	(%rdi), %rax
	call	*24(%rax)
	jmp	.L873
	.p2align 4,,10
	.p2align 3
.L998:
	movq	(%rdi), %rax
	movq	%rdi, 8(%rsp)
	movq	$0, 8(%rdi)
	call	*16(%rax)
	movq	8(%rsp), %rdi
	movq	(%rdi), %rax
	call	*24(%rax)
	jmp	.L915
	.p2align 4,,10
	.p2align 3
.L1000:
	movq	(%rdi), %rax
	movq	%rdi, 8(%rsp)
	movq	$0, 8(%rdi)
	call	*16(%rax)
	movq	8(%rsp), %rdi
	movq	(%rdi), %rax
	call	*24(%rax)
	jmp	.L921
	.p2align 4,,10
	.p2align 3
.L986:
	movq	(%rdi), %rax
	movq	%rdi, 8(%rsp)
	movq	$0, 8(%rdi)
	call	*16(%rax)
	movq	8(%rsp), %rdi
	movq	(%rdi), %rax
	call	*24(%rax)
	jmp	.L879
	.p2align 4,,10
	.p2align 3
.L988:
	movq	(%rdi), %rax
	movq	%rdi, 8(%rsp)
	movq	$0, 8(%rdi)
	call	*16(%rax)
	movq	8(%rsp), %rdi
	movq	(%rdi), %rax
	call	*24(%rax)
	jmp	.L885
	.p2align 4,,10
	.p2align 3
.L994:
	movq	(%rdi), %rax
	movq	%rdi, 8(%rsp)
	movq	$0, 8(%rdi)
	call	*16(%rax)
	movq	8(%rsp), %rdi
	movq	(%rdi), %rax
	call	*24(%rax)
	jmp	.L903
	.p2align 4,,10
	.p2align 3
.L996:
	movq	(%rdi), %rax
	movq	%rdi, 8(%rsp)
	movq	$0, 8(%rdi)
	call	*16(%rax)
	movq	8(%rsp), %rdi
	movq	(%rdi), %rax
	call	*24(%rax)
	jmp	.L909
	.p2align 4,,10
	.p2align 3
.L990:
	movq	(%rdi), %rax
	movq	%rdi, 8(%rsp)
	movq	$0, 8(%rdi)
	call	*16(%rax)
	movq	8(%rsp), %rdi
	movq	(%rdi), %rax
	call	*24(%rax)
	jmp	.L891
	.p2align 4,,10
	.p2align 3
.L992:
	movq	(%rdi), %rax
	movq	%rdi, 8(%rsp)
	movq	$0, 8(%rdi)
	call	*16(%rax)
	movq	8(%rsp), %rdi
	movq	(%rdi), %rax
	call	*24(%rax)
	jmp	.L897
	.p2align 4,,10
	.p2align 3
.L1002:
	movq	(%rdi), %rax
	movq	%rdi, 8(%rsp)
	movq	$0, 8(%rdi)
	call	*16(%rax)
	movq	8(%rsp), %rdi
	movq	(%rdi), %rax
	call	*24(%rax)
	jmp	.L927
	.p2align 4,,10
	.p2align 3
.L1004:
	movq	(%rdi), %rax
	movq	%rdi, 8(%rsp)
	movq	$0, 8(%rdi)
	call	*16(%rax)
	movq	8(%rsp), %rdi
	movq	(%rdi), %rax
	call	*24(%rax)
	jmp	.L933
	.p2align 4,,10
	.p2align 3
.L929:
	movl	$-1, %eax
	lock xaddl	%eax, (%rcx)
	jmp	.L930
	.p2align 4,,10
	.p2align 3
.L905:
	movl	$-1, %eax
	lock xaddl	%eax, (%rcx)
	jmp	.L906
	.p2align 4,,10
	.p2align 3
.L911:
	movl	$-1, %eax
	lock xaddl	%eax, (%rcx)
	jmp	.L912
	.p2align 4,,10
	.p2align 3
.L917:
	movl	$-1, %eax
	lock xaddl	%eax, (%rcx)
	jmp	.L918
	.p2align 4,,10
	.p2align 3
.L923:
	movl	$-1, %eax
	lock xaddl	%eax, (%rcx)
	jmp	.L924
	.p2align 4,,10
	.p2align 3
.L881:
	movl	$-1, %eax
	lock xaddl	%eax, (%rcx)
	jmp	.L882
	.p2align 4,,10
	.p2align 3
.L887:
	movl	$-1, %eax
	lock xaddl	%eax, (%rcx)
	jmp	.L888
	.p2align 4,,10
	.p2align 3
.L893:
	movl	$-1, %eax
	lock xaddl	%eax, (%rcx)
	jmp	.L894
	.p2align 4,,10
	.p2align 3
.L899:
	movl	$-1, %eax
	lock xaddl	%eax, (%rcx)
	jmp	.L900
	.p2align 4,,10
	.p2align 3
.L935:
	movl	$-1, %eax
	lock xaddl	%eax, (%rcx)
	jmp	.L936
	.p2align 4,,10
	.p2align 3
.L863:
	movl	$-1, %eax
	lock xaddl	%eax, (%rcx)
	jmp	.L864
	.p2align 4,,10
	.p2align 3
.L869:
	movl	$-1, %eax
	lock xaddl	%eax, (%rcx)
	jmp	.L870
	.p2align 4,,10
	.p2align 3
.L875:
	movl	$-1, %eax
	lock xaddl	%eax, (%rcx)
	jmp	.L876
	.p2align 4,,10
	.p2align 3
.L1005:
	call	_ZNSt16_Sp_counted_baseILN9__gnu_cxx12_Lock_policyE2EE24_M_release_last_use_coldEv@PLT
	jmp	.L933
	.p2align 4,,10
	.p2align 3
.L1003:
	call	_ZNSt16_Sp_counted_baseILN9__gnu_cxx12_Lock_policyE2EE24_M_release_last_use_coldEv@PLT
	jmp	.L927
	.p2align 4,,10
	.p2align 3
.L1001:
	call	_ZNSt16_Sp_counted_baseILN9__gnu_cxx12_Lock_policyE2EE24_M_release_last_use_coldEv@PLT
	jmp	.L921
	.p2align 4,,10
	.p2align 3
.L999:
	call	_ZNSt16_Sp_counted_baseILN9__gnu_cxx12_Lock_policyE2EE24_M_release_last_use_coldEv@PLT
	jmp	.L915
	.p2align 4,,10
	.p2align 3
.L997:
	call	_ZNSt16_Sp_counted_baseILN9__gnu_cxx12_Lock_policyE2EE24_M_release_last_use_coldEv@PLT
	jmp	.L909
	.p2align 4,,10
	.p2align 3
.L995:
	call	_ZNSt16_Sp_counted_baseILN9__gnu_cxx12_Lock_policyE2EE24_M_release_last_use_coldEv@PLT
	jmp	.L903
	.p2align 4,,10
	.p2align 3
.L993:
	call	_ZNSt16_Sp_counted_baseILN9__gnu_cxx12_Lock_policyE2EE24_M_release_last_use_coldEv@PLT
	jmp	.L897
	.p2align 4,,10
	.p2align 3
.L991:
	call	_ZNSt16_Sp_counted_baseILN9__gnu_cxx12_Lock_policyE2EE24_M_release_last_use_coldEv@PLT
	jmp	.L891
	.p2align 4,,10
	.p2align 3
.L989:
	call	_ZNSt16_Sp_counted_baseILN9__gnu_cxx12_Lock_policyE2EE24_M_release_last_use_coldEv@PLT
	jmp	.L885
	.p2align 4,,10
	.p2align 3
.L987:
	call	_ZNSt16_Sp_counted_baseILN9__gnu_cxx12_Lock_policyE2EE24_M_release_last_use_coldEv@PLT
	jmp	.L879
	.p2align 4,,10
	.p2align 3
.L985:
	call	_ZNSt16_Sp_counted_baseILN9__gnu_cxx12_Lock_policyE2EE24_M_release_last_use_coldEv@PLT
	jmp	.L873
	.p2align 4,,10
	.p2align 3
.L983:
	call	_ZNSt16_Sp_counted_baseILN9__gnu_cxx12_Lock_policyE2EE24_M_release_last_use_coldEv@PLT
	jmp	.L867
	.p2align 4,,10
	.p2align 3
.L981:
	call	_ZNSt16_Sp_counted_baseILN9__gnu_cxx12_Lock_policyE2EE24_M_release_last_use_coldEv@PLT
	jmp	.L861
	.cfi_endproc
.LFE12052:
	.size	_ZThn8_N8asiodnp315OutstationStackD1Ev, .-_ZThn8_N8asiodnp315OutstationStackD1Ev
	.p2align 4
	.weak	_ZThn16_N8asiodnp315OutstationStackD1Ev
	.type	_ZThn16_N8asiodnp315OutstationStackD1Ev, @function
_ZThn16_N8asiodnp315OutstationStackD1Ev:
.LFB12053:
	.cfi_startproc
	pushq	%rbx
	.cfi_def_cfa_offset 16
	.cfi_offset 3, -16
	movq	%rdi, %rbx
	subq	$16, %rsp
	.cfi_def_cfa_offset 32
	movq	_ZTVN8asiodnp315OutstationStackE@GOTPCREL(%rip), %rax
	leaq	144(%rax), %rdx
	leaq	16(%rax), %rsi
	addq	$208, %rax
	movq	%rax, (%rdi)
	movq	_ZTVN8opendnp38OContextE@GOTPCREL(%rip), %rax
	movq	%rsi, %xmm0
	movq	%rdx, %xmm1
	punpcklqdq	%xmm1, %xmm0
	addq	$16, %rax
	movups	%xmm0, -16(%rdi)
	movq	%rax, 136(%rdi)
	movq	1072(%rdi), %rdi
	testq	%rdi, %rdi
	je	.L1008
	call	_ZdaPv@PLT
.L1008:
	movq	1016(%rbx), %rdi
	testq	%rdi, %rdi
	je	.L1009
	call	_ZdaPv@PLT
.L1009:
	movq	936(%rbx), %rdi
	testq	%rdi, %rdi
	je	.L1010
	call	_ZdaPv@PLT
.L1010:
	leaq	864(%rbx), %rdi
	call	_ZN7openpal8TimerRefD1Ev@PLT
	movq	728(%rbx), %rdi
	testq	%rdi, %rdi
	je	.L1011
	call	_ZdaPv@PLT
.L1011:
	movq	704(%rbx), %rdi
	testq	%rdi, %rdi
	je	.L1012
	call	_ZdaPv@PLT
.L1012:
	movq	680(%rbx), %rdi
	testq	%rdi, %rdi
	je	.L1013
	call	_ZdaPv@PLT
.L1013:
	movq	656(%rbx), %rdi
	testq	%rdi, %rdi
	je	.L1014
	call	_ZdaPv@PLT
.L1014:
	movq	632(%rbx), %rdi
	testq	%rdi, %rdi
	je	.L1015
	call	_ZdaPv@PLT
.L1015:
	movq	608(%rbx), %rdi
	testq	%rdi, %rdi
	je	.L1016
	call	_ZdaPv@PLT
.L1016:
	movq	584(%rbx), %rdi
	testq	%rdi, %rdi
	je	.L1017
	call	_ZdaPv@PLT
.L1017:
	movq	560(%rbx), %rdi
	testq	%rdi, %rdi
	je	.L1018
	call	_ZdaPv@PLT
.L1018:
	movq	344(%rbx), %rdi
	testq	%rdi, %rdi
	je	.L1019
	call	_ZdaPv@PLT
.L1019:
	movq	232(%rbx), %rdi
	testq	%rdi, %rdi
	je	.L1021
	movq	8(%rdi), %rdx
	leaq	8(%rdi), %rcx
	movabsq	$4294967297, %rax
	cmpq	%rax, %rdx
	je	.L1140
	movq	__libc_single_threaded@GOTPCREL(%rip), %rax
	cmpb	$0, (%rax)
	je	.L1023
	movl	8(%rdi), %eax
	leal	-1(%rax), %edx
	movl	%edx, 8(%rdi)
.L1024:
	cmpl	$1, %eax
	je	.L1141
.L1021:
	movq	216(%rbx), %rdi
	testq	%rdi, %rdi
	je	.L1027
	movq	8(%rdi), %rdx
	leaq	8(%rdi), %rcx
	movabsq	$4294967297, %rax
	cmpq	%rax, %rdx
	je	.L1142
	movq	__libc_single_threaded@GOTPCREL(%rip), %rax
	cmpb	$0, (%rax)
	je	.L1029
	movl	8(%rdi), %eax
	leal	-1(%rax), %edx
	movl	%edx, 8(%rdi)
.L1030:
	cmpl	$1, %eax
	je	.L1143
.L1027:
	movq	200(%rbx), %rdi
	testq	%rdi, %rdi
	je	.L1033
	movq	8(%rdi), %rdx
	leaq	8(%rdi), %rcx
	movabsq	$4294967297, %rax
	cmpq	%rax, %rdx
	je	.L1144
	movq	__libc_single_threaded@GOTPCREL(%rip), %rax
	cmpb	$0, (%rax)
	je	.L1035
	movl	8(%rdi), %eax
	leal	-1(%rax), %edx
	movl	%edx, 8(%rdi)
.L1036:
	cmpl	$1, %eax
	je	.L1145
.L1033:
	movq	184(%rbx), %rdi
	testq	%rdi, %rdi
	je	.L1039
	movq	8(%rdi), %rdx
	leaq	8(%rdi), %rcx
	movabsq	$4294967297, %rax
	cmpq	%rax, %rdx
	je	.L1146
	movq	__libc_single_threaded@GOTPCREL(%rip), %rax
	cmpb	$0, (%rax)
	je	.L1041
	movl	8(%rdi), %eax
	leal	-1(%rax), %edx
	movl	%edx, 8(%rdi)
.L1042:
	cmpl	$1, %eax
	je	.L1147
.L1039:
	movq	168(%rbx), %rdi
	testq	%rdi, %rdi
	je	.L1045
	movq	8(%rdi), %rdx
	leaq	8(%rdi), %rcx
	movabsq	$4294967297, %rax
	cmpq	%rax, %rdx
	je	.L1148
	movq	__libc_single_threaded@GOTPCREL(%rip), %rax
	cmpb	$0, (%rax)
	je	.L1047
	movl	8(%rdi), %eax
	leal	-1(%rax), %edx
	movl	%edx, 8(%rdi)
.L1048:
	cmpl	$1, %eax
	je	.L1149
.L1045:
	movq	152(%rbx), %rdi
	testq	%rdi, %rdi
	je	.L1051
	movq	8(%rdi), %rdx
	leaq	8(%rdi), %rcx
	movabsq	$4294967297, %rax
	cmpq	%rax, %rdx
	je	.L1150
	movq	__libc_single_threaded@GOTPCREL(%rip), %rax
	cmpb	$0, (%rax)
	je	.L1053
	movl	8(%rdi), %eax
	leal	-1(%rax), %edx
	movl	%edx, 8(%rdi)
.L1054:
	cmpl	$1, %eax
	je	.L1151
.L1051:
	movq	128(%rbx), %rdi
	testq	%rdi, %rdi
	je	.L1057
	movq	8(%rdi), %rdx
	leaq	8(%rdi), %rcx
	movabsq	$4294967297, %rax
	cmpq	%rax, %rdx
	je	.L1152
	movq	__libc_single_threaded@GOTPCREL(%rip), %rax
	cmpb	$0, (%rax)
	je	.L1059
	movl	8(%rdi), %eax
	leal	-1(%rax), %edx
	movl	%edx, 8(%rdi)
.L1060:
	cmpl	$1, %eax
	je	.L1153
.L1057:
	movq	112(%rbx), %rdi
	testq	%rdi, %rdi
	je	.L1063
	movq	8(%rdi), %rdx
	leaq	8(%rdi), %rcx
	movabsq	$4294967297, %rax
	cmpq	%rax, %rdx
	je	.L1154
	movq	__libc_single_threaded@GOTPCREL(%rip), %rax
	cmpb	$0, (%rax)
	je	.L1065
	movl	8(%rdi), %eax
	leal	-1(%rax), %edx
	movl	%edx, 8(%rdi)
.L1066:
	cmpl	$1, %eax
	je	.L1155
.L1063:
	movq	96(%rbx), %rdi
	testq	%rdi, %rdi
	je	.L1069
	movq	8(%rdi), %rdx
	leaq	8(%rdi), %rcx
	movabsq	$4294967297, %rax
	cmpq	%rax, %rdx
	je	.L1156
	movq	__libc_single_threaded@GOTPCREL(%rip), %rax
	cmpb	$0, (%rax)
	je	.L1071
	movl	8(%rdi), %eax
	leal	-1(%rax), %edx
	movl	%edx, 8(%rdi)
.L1072:
	cmpl	$1, %eax
	je	.L1157
.L1069:
	movq	80(%rbx), %rdi
	testq	%rdi, %rdi
	je	.L1075
	movq	8(%rdi), %rdx
	leaq	8(%rdi), %rcx
	movabsq	$4294967297, %rax
	cmpq	%rax, %rdx
	je	.L1158
	movq	__libc_single_threaded@GOTPCREL(%rip), %rax
	cmpb	$0, (%rax)
	je	.L1077
	movl	8(%rdi), %eax
	leal	-1(%rax), %edx
	movl	%edx, 8(%rdi)
.L1078:
	cmpl	$1, %eax
	je	.L1159
.L1075:
	movq	64(%rbx), %rdi
	testq	%rdi, %rdi
	je	.L1081
	movq	8(%rdi), %rdx
	leaq	8(%rdi), %rcx
	movabsq	$4294967297, %rax
	cmpq	%rax, %rdx
	je	.L1160
	movq	__libc_single_threaded@GOTPCREL(%rip), %rax
	cmpb	$0, (%rax)
	je	.L1083
	movl	8(%rdi), %eax
	leal	-1(%rax), %edx
	movl	%edx, 8(%rdi)
.L1084:
	cmpl	$1, %eax
	je	.L1161
.L1081:
	movq	48(%rbx), %rdi
	testq	%rdi, %rdi
	je	.L1087
	movq	8(%rdi), %rdx
	leaq	8(%rdi), %rcx
	movabsq	$4294967297, %rax
	cmpq	%rax, %rdx
	je	.L1162
	movq	__libc_single_threaded@GOTPCREL(%rip), %rax
	cmpb	$0, (%rax)
	je	.L1089
	movl	8(%rdi), %eax
	leal	-1(%rax), %edx
	movl	%edx, 8(%rdi)
.L1090:
	cmpl	$1, %eax
	je	.L1163
.L1087:
	movq	32(%rbx), %rdi
	testq	%rdi, %rdi
	je	.L1093
	movq	8(%rdi), %rdx
	leaq	8(%rdi), %rcx
	movabsq	$4294967297, %rax
	cmpq	%rax, %rdx
	je	.L1164
	movq	__libc_single_threaded@GOTPCREL(%rip), %rax
	cmpb	$0, (%rax)
	je	.L1095
	movl	8(%rdi), %eax
	leal	-1(%rax), %edx
	movl	%edx, 8(%rdi)
.L1096:
	cmpl	$1, %eax
	je	.L1165
.L1093:
	movq	16(%rbx), %rdi
	testq	%rdi, %rdi
	je	.L1007
	movq	__libc_single_threaded@GOTPCREL(%rip), %rax
	cmpb	$0, (%rax)
	je	.L1100
	movl	12(%rdi), %eax
	leal	-1(%rax), %edx
	movl	%edx, 12(%rdi)
.L1101:
	cmpl	$1, %eax
	je	.L1166
.L1007:
	addq	$16, %rsp
	.cfi_remember_state
	.cfi_def_cfa_offset 16
	popq	%rbx
	.cfi_def_cfa_offset 8
	ret
	.p2align 4,,10
	.p2align 3
.L1166:
	.cfi_restore_state
	movq	(%rdi), %rax
	movq	24(%rax), %rax
	addq	$16, %rsp
	.cfi_remember_state
	.cfi_def_cfa_offset 16
	popq	%rbx
	.cfi_def_cfa_offset 8
	jmp	*%rax
	.p2align 4,,10
	.p2align 3
.L1100:
	.cfi_restore_state
	movl	$-1, %eax
	lock xaddl	%eax, 12(%rdi)
	jmp	.L1101
	.p2align 4,,10
	.p2align 3
.L1140:
	movq	(%rdi), %rax
	movq	%rdi, 8(%rsp)
	movq	$0, 8(%rdi)
	call	*16(%rax)
	movq	8(%rsp), %rdi
	movq	(%rdi), %rax
	call	*24(%rax)
	jmp	.L1021
	.p2align 4,,10
	.p2align 3
.L1142:
	movq	(%rdi), %rax
	movq	%rdi, 8(%rsp)
	movq	$0, 8(%rdi)
	call	*16(%rax)
	movq	8(%rsp), %rdi
	movq	(%rdi), %rax
	call	*24(%rax)
	jmp	.L1027
	.p2align 4,,10
	.p2align 3
.L1144:
	movq	(%rdi), %rax
	movq	%rdi, 8(%rsp)
	movq	$0, 8(%rdi)
	call	*16(%rax)
	movq	8(%rsp), %rdi
	movq	(%rdi), %rax
	call	*24(%rax)
	jmp	.L1033
	.p2align 4,,10
	.p2align 3
.L1158:
	movq	(%rdi), %rax
	movq	%rdi, 8(%rsp)
	movq	$0, 8(%rdi)
	call	*16(%rax)
	movq	8(%rsp), %rdi
	movq	(%rdi), %rax
	call	*24(%rax)
	jmp	.L1075
	.p2align 4,,10
	.p2align 3
.L1160:
	movq	(%rdi), %rax
	movq	%rdi, 8(%rsp)
	movq	$0, 8(%rdi)
	call	*16(%rax)
	movq	8(%rsp), %rdi
	movq	(%rdi), %rax
	call	*24(%rax)
	jmp	.L1081
	.p2align 4,,10
	.p2align 3
.L1146:
	movq	(%rdi), %rax
	movq	%rdi, 8(%rsp)
	movq	$0, 8(%rdi)
	call	*16(%rax)
	movq	8(%rsp), %rdi
	movq	(%rdi), %rax
	call	*24(%rax)
	jmp	.L1039
	.p2align 4,,10
	.p2align 3
.L1148:
	movq	(%rdi), %rax
	movq	%rdi, 8(%rsp)
	movq	$0, 8(%rdi)
	call	*16(%rax)
	movq	8(%rsp), %rdi
	movq	(%rdi), %rax
	call	*24(%rax)
	jmp	.L1045
	.p2align 4,,10
	.p2align 3
.L1154:
	movq	(%rdi), %rax
	movq	%rdi, 8(%rsp)
	movq	$0, 8(%rdi)
	call	*16(%rax)
	movq	8(%rsp), %rdi
	movq	(%rdi), %rax
	call	*24(%rax)
	jmp	.L1063
	.p2align 4,,10
	.p2align 3
.L1156:
	movq	(%rdi), %rax
	movq	%rdi, 8(%rsp)
	movq	$0, 8(%rdi)
	call	*16(%rax)
	movq	8(%rsp), %rdi
	movq	(%rdi), %rax
	call	*24(%rax)
	jmp	.L1069
	.p2align 4,,10
	.p2align 3
.L1150:
	movq	(%rdi), %rax
	movq	%rdi, 8(%rsp)
	movq	$0, 8(%rdi)
	call	*16(%rax)
	movq	8(%rsp), %rdi
	movq	(%rdi), %rax
	call	*24(%rax)
	jmp	.L1051
	.p2align 4,,10
	.p2align 3
.L1152:
	movq	(%rdi), %rax
	movq	%rdi, 8(%rsp)
	movq	$0, 8(%rdi)
	call	*16(%rax)
	movq	8(%rsp), %rdi
	movq	(%rdi), %rax
	call	*24(%rax)
	jmp	.L1057
	.p2align 4,,10
	.p2align 3
.L1162:
	movq	(%rdi), %rax
	movq	%rdi, 8(%rsp)
	movq	$0, 8(%rdi)
	call	*16(%rax)
	movq	8(%rsp), %rdi
	movq	(%rdi), %rax
	call	*24(%rax)
	jmp	.L1087
	.p2align 4,,10
	.p2align 3
.L1164:
	movq	(%rdi), %rax
	movq	%rdi, 8(%rsp)
	movq	$0, 8(%rdi)
	call	*16(%rax)
	movq	8(%rsp), %rdi
	movq	(%rdi), %rax
	call	*24(%rax)
	jmp	.L1093
	.p2align 4,,10
	.p2align 3
.L1089:
	movl	$-1, %eax
	lock xaddl	%eax, (%rcx)
	jmp	.L1090
	.p2align 4,,10
	.p2align 3
.L1065:
	movl	$-1, %eax
	lock xaddl	%eax, (%rcx)
	jmp	.L1066
	.p2align 4,,10
	.p2align 3
.L1071:
	movl	$-1, %eax
	lock xaddl	%eax, (%rcx)
	jmp	.L1072
	.p2align 4,,10
	.p2align 3
.L1077:
	movl	$-1, %eax
	lock xaddl	%eax, (%rcx)
	jmp	.L1078
	.p2align 4,,10
	.p2align 3
.L1083:
	movl	$-1, %eax
	lock xaddl	%eax, (%rcx)
	jmp	.L1084
	.p2align 4,,10
	.p2align 3
.L1041:
	movl	$-1, %eax
	lock xaddl	%eax, (%rcx)
	jmp	.L1042
	.p2align 4,,10
	.p2align 3
.L1047:
	movl	$-1, %eax
	lock xaddl	%eax, (%rcx)
	jmp	.L1048
	.p2align 4,,10
	.p2align 3
.L1053:
	movl	$-1, %eax
	lock xaddl	%eax, (%rcx)
	jmp	.L1054
	.p2align 4,,10
	.p2align 3
.L1059:
	movl	$-1, %eax
	lock xaddl	%eax, (%rcx)
	jmp	.L1060
	.p2align 4,,10
	.p2align 3
.L1095:
	movl	$-1, %eax
	lock xaddl	%eax, (%rcx)
	jmp	.L1096
	.p2align 4,,10
	.p2align 3
.L1023:
	movl	$-1, %eax
	lock xaddl	%eax, (%rcx)
	jmp	.L1024
	.p2align 4,,10
	.p2align 3
.L1029:
	movl	$-1, %eax
	lock xaddl	%eax, (%rcx)
	jmp	.L1030
	.p2align 4,,10
	.p2align 3
.L1035:
	movl	$-1, %eax
	lock xaddl	%eax, (%rcx)
	jmp	.L1036
	.p2align 4,,10
	.p2align 3
.L1165:
	call	_ZNSt16_Sp_counted_baseILN9__gnu_cxx12_Lock_policyE2EE24_M_release_last_use_coldEv@PLT
	jmp	.L1093
	.p2align 4,,10
	.p2align 3
.L1163:
	call	_ZNSt16_Sp_counted_baseILN9__gnu_cxx12_Lock_policyE2EE24_M_release_last_use_coldEv@PLT
	jmp	.L1087
	.p2align 4,,10
	.p2align 3
.L1161:
	call	_ZNSt16_Sp_counted_baseILN9__gnu_cxx12_Lock_policyE2EE24_M_release_last_use_coldEv@PLT
	jmp	.L1081
	.p2align 4,,10
	.p2align 3
.L1159:
	call	_ZNSt16_Sp_counted_baseILN9__gnu_cxx12_Lock_policyE2EE24_M_release_last_use_coldEv@PLT
	jmp	.L1075
	.p2align 4,,10
	.p2align 3
.L1157:
	call	_ZNSt16_Sp_counted_baseILN9__gnu_cxx12_Lock_policyE2EE24_M_release_last_use_coldEv@PLT
	jmp	.L1069
	.p2align 4,,10
	.p2align 3
.L1155:
	call	_ZNSt16_Sp_counted_baseILN9__gnu_cxx12_Lock_policyE2EE24_M_release_last_use_coldEv@PLT
	jmp	.L1063
	.p2align 4,,10
	.p2align 3
.L1153:
	call	_ZNSt16_Sp_counted_baseILN9__gnu_cxx12_Lock_policyE2EE24_M_release_last_use_coldEv@PLT
	jmp	.L1057
	.p2align 4,,10
	.p2align 3
.L1151:
	call	_ZNSt16_Sp_counted_baseILN9__gnu_cxx12_Lock_policyE2EE24_M_release_last_use_coldEv@PLT
	jmp	.L1051
	.p2align 4,,10
	.p2align 3
.L1149:
	call	_ZNSt16_Sp_counted_baseILN9__gnu_cxx12_Lock_policyE2EE24_M_release_last_use_coldEv@PLT
	jmp	.L1045
	.p2align 4,,10
	.p2align 3
.L1147:
	call	_ZNSt16_Sp_counted_baseILN9__gnu_cxx12_Lock_policyE2EE24_M_release_last_use_coldEv@PLT
	jmp	.L1039
	.p2align 4,,10
	.p2align 3
.L1145:
	call	_ZNSt16_Sp_counted_baseILN9__gnu_cxx12_Lock_policyE2EE24_M_release_last_use_coldEv@PLT
	jmp	.L1033
	.p2align 4,,10
	.p2align 3
.L1143:
	call	_ZNSt16_Sp_counted_baseILN9__gnu_cxx12_Lock_policyE2EE24_M_release_last_use_coldEv@PLT
	jmp	.L1027
	.p2align 4,,10
	.p2align 3
.L1141:
	call	_ZNSt16_Sp_counted_baseILN9__gnu_cxx12_Lock_policyE2EE24_M_release_last_use_coldEv@PLT
	jmp	.L1021
	.cfi_endproc
.LFE12053:
	.size	_ZThn16_N8asiodnp315OutstationStackD1Ev, .-_ZThn16_N8asiodnp315OutstationStackD1Ev
	.section	.text._ZN8asiodnp315OutstationStackD0Ev,"axG",@progbits,_ZN8asiodnp315OutstationStackD5Ev,comdat
	.p2align 4
	.weak	_ZThn8_N8asiodnp315OutstationStackD0Ev
	.type	_ZThn8_N8asiodnp315OutstationStackD0Ev, @function
_ZThn8_N8asiodnp315OutstationStackD0Ev:
.LFB12050:
	.cfi_startproc
	pushq	%rbp
	.cfi_def_cfa_offset 16
	.cfi_offset 6, -16
	leaq	-8(%rdi), %rbp
	pushq	%rbx
	.cfi_def_cfa_offset 24
	.cfi_offset 3, -24
	movq	%rdi, %rbx
	subq	$24, %rsp
	.cfi_def_cfa_offset 48
	movq	_ZTVN8asiodnp315OutstationStackE@GOTPCREL(%rip), %rax
	leaq	144(%rax), %rdx
	leaq	16(%rax), %rsi
	addq	$208, %rax
	movq	%rax, 8(%rdi)
	movq	_ZTVN8opendnp38OContextE@GOTPCREL(%rip), %rax
	movq	%rsi, %xmm0
	movq	%rdx, %xmm1
	punpcklqdq	%xmm1, %xmm0
	addq	$16, %rax
	movups	%xmm0, -8(%rdi)
	movq	%rax, 144(%rdi)
	movq	1080(%rdi), %rdi
	testq	%rdi, %rdi
	je	.L1168
	call	_ZdaPv@PLT
.L1168:
	movq	1024(%rbx), %rdi
	testq	%rdi, %rdi
	je	.L1169
	call	_ZdaPv@PLT
.L1169:
	movq	944(%rbx), %rdi
	testq	%rdi, %rdi
	je	.L1170
	call	_ZdaPv@PLT
.L1170:
	leaq	872(%rbx), %rdi
	call	_ZN7openpal8TimerRefD1Ev@PLT
	movq	736(%rbx), %rdi
	testq	%rdi, %rdi
	je	.L1171
	call	_ZdaPv@PLT
.L1171:
	movq	712(%rbx), %rdi
	testq	%rdi, %rdi
	je	.L1172
	call	_ZdaPv@PLT
.L1172:
	movq	688(%rbx), %rdi
	testq	%rdi, %rdi
	je	.L1173
	call	_ZdaPv@PLT
.L1173:
	movq	664(%rbx), %rdi
	testq	%rdi, %rdi
	je	.L1174
	call	_ZdaPv@PLT
.L1174:
	movq	640(%rbx), %rdi
	testq	%rdi, %rdi
	je	.L1175
	call	_ZdaPv@PLT
.L1175:
	movq	616(%rbx), %rdi
	testq	%rdi, %rdi
	je	.L1176
	call	_ZdaPv@PLT
.L1176:
	movq	592(%rbx), %rdi
	testq	%rdi, %rdi
	je	.L1177
	call	_ZdaPv@PLT
.L1177:
	movq	568(%rbx), %rdi
	testq	%rdi, %rdi
	je	.L1178
	call	_ZdaPv@PLT
.L1178:
	movq	352(%rbx), %rdi
	testq	%rdi, %rdi
	je	.L1179
	call	_ZdaPv@PLT
.L1179:
	movq	240(%rbx), %rdi
	testq	%rdi, %rdi
	je	.L1181
	movq	8(%rdi), %rdx
	leaq	8(%rdi), %rcx
	movabsq	$4294967297, %rax
	cmpq	%rax, %rdx
	je	.L1300
	movq	__libc_single_threaded@GOTPCREL(%rip), %rax
	cmpb	$0, (%rax)
	je	.L1183
	movl	8(%rdi), %eax
	leal	-1(%rax), %edx
	movl	%edx, 8(%rdi)
.L1184:
	cmpl	$1, %eax
	je	.L1301
.L1181:
	movq	224(%rbx), %rdi
	testq	%rdi, %rdi
	je	.L1187
	movq	8(%rdi), %rdx
	leaq	8(%rdi), %rcx
	movabsq	$4294967297, %rax
	cmpq	%rax, %rdx
	je	.L1302
	movq	__libc_single_threaded@GOTPCREL(%rip), %rax
	cmpb	$0, (%rax)
	je	.L1189
	movl	8(%rdi), %eax
	leal	-1(%rax), %edx
	movl	%edx, 8(%rdi)
.L1190:
	cmpl	$1, %eax
	je	.L1303
.L1187:
	movq	208(%rbx), %rdi
	testq	%rdi, %rdi
	je	.L1193
	movq	8(%rdi), %rdx
	leaq	8(%rdi), %rcx
	movabsq	$4294967297, %rax
	cmpq	%rax, %rdx
	je	.L1304
	movq	__libc_single_threaded@GOTPCREL(%rip), %rax
	cmpb	$0, (%rax)
	je	.L1195
	movl	8(%rdi), %eax
	leal	-1(%rax), %edx
	movl	%edx, 8(%rdi)
.L1196:
	cmpl	$1, %eax
	je	.L1305
.L1193:
	movq	192(%rbx), %rdi
	testq	%rdi, %rdi
	je	.L1199
	movq	8(%rdi), %rdx
	leaq	8(%rdi), %rcx
	movabsq	$4294967297, %rax
	cmpq	%rax, %rdx
	je	.L1306
	movq	__libc_single_threaded@GOTPCREL(%rip), %rax
	cmpb	$0, (%rax)
	je	.L1201
	movl	8(%rdi), %eax
	leal	-1(%rax), %edx
	movl	%edx, 8(%rdi)
.L1202:
	cmpl	$1, %eax
	je	.L1307
.L1199:
	movq	176(%rbx), %rdi
	testq	%rdi, %rdi
	je	.L1205
	movq	8(%rdi), %rdx
	leaq	8(%rdi), %rcx
	movabsq	$4294967297, %rax
	cmpq	%rax, %rdx
	je	.L1308
	movq	__libc_single_threaded@GOTPCREL(%rip), %rax
	cmpb	$0, (%rax)
	je	.L1207
	movl	8(%rdi), %eax
	leal	-1(%rax), %edx
	movl	%edx, 8(%rdi)
.L1208:
	cmpl	$1, %eax
	je	.L1309
.L1205:
	movq	160(%rbx), %rdi
	testq	%rdi, %rdi
	je	.L1211
	movq	8(%rdi), %rdx
	leaq	8(%rdi), %rcx
	movabsq	$4294967297, %rax
	cmpq	%rax, %rdx
	je	.L1310
	movq	__libc_single_threaded@GOTPCREL(%rip), %rax
	cmpb	$0, (%rax)
	je	.L1213
	movl	8(%rdi), %eax
	leal	-1(%rax), %edx
	movl	%edx, 8(%rdi)
.L1214:
	cmpl	$1, %eax
	je	.L1311
.L1211:
	movq	136(%rbx), %rdi
	testq	%rdi, %rdi
	je	.L1217
	movq	8(%rdi), %rdx
	leaq	8(%rdi), %rcx
	movabsq	$4294967297, %rax
	cmpq	%rax, %rdx
	je	.L1312
	movq	__libc_single_threaded@GOTPCREL(%rip), %rax
	cmpb	$0, (%rax)
	je	.L1219
	movl	8(%rdi), %eax
	leal	-1(%rax), %edx
	movl	%edx, 8(%rdi)
.L1220:
	cmpl	$1, %eax
	je	.L1313
.L1217:
	movq	120(%rbx), %rdi
	testq	%rdi, %rdi
	je	.L1223
	movq	8(%rdi), %rdx
	leaq	8(%rdi), %rcx
	movabsq	$4294967297, %rax
	cmpq	%rax, %rdx
	je	.L1314
	movq	__libc_single_threaded@GOTPCREL(%rip), %rax
	cmpb	$0, (%rax)
	je	.L1225
	movl	8(%rdi), %eax
	leal	-1(%rax), %edx
	movl	%edx, 8(%rdi)
.L1226:
	cmpl	$1, %eax
	je	.L1315
.L1223:
	movq	104(%rbx), %rdi
	testq	%rdi, %rdi
	je	.L1229
	movq	8(%rdi), %rdx
	leaq	8(%rdi), %rcx
	movabsq	$4294967297, %rax
	cmpq	%rax, %rdx
	je	.L1316
	movq	__libc_single_threaded@GOTPCREL(%rip), %rax
	cmpb	$0, (%rax)
	je	.L1231
	movl	8(%rdi), %eax
	leal	-1(%rax), %edx
	movl	%edx, 8(%rdi)
.L1232:
	cmpl	$1, %eax
	je	.L1317
.L1229:
	movq	88(%rbx), %rdi
	testq	%rdi, %rdi
	je	.L1235
	movq	8(%rdi), %rdx
	leaq	8(%rdi), %rcx
	movabsq	$4294967297, %rax
	cmpq	%rax, %rdx
	je	.L1318
	movq	__libc_single_threaded@GOTPCREL(%rip), %rax
	cmpb	$0, (%rax)
	je	.L1237
	movl	8(%rdi), %eax
	leal	-1(%rax), %edx
	movl	%edx, 8(%rdi)
.L1238:
	cmpl	$1, %eax
	je	.L1319
.L1235:
	movq	72(%rbx), %rdi
	testq	%rdi, %rdi
	je	.L1241
	movq	8(%rdi), %rdx
	leaq	8(%rdi), %rcx
	movabsq	$4294967297, %rax
	cmpq	%rax, %rdx
	je	.L1320
	movq	__libc_single_threaded@GOTPCREL(%rip), %rax
	cmpb	$0, (%rax)
	je	.L1243
	movl	8(%rdi), %eax
	leal	-1(%rax), %edx
	movl	%edx, 8(%rdi)
.L1244:
	cmpl	$1, %eax
	je	.L1321
.L1241:
	movq	56(%rbx), %rdi
	testq	%rdi, %rdi
	je	.L1247
	movq	8(%rdi), %rdx
	leaq	8(%rdi), %rcx
	movabsq	$4294967297, %rax
	cmpq	%rax, %rdx
	je	.L1322
	movq	__libc_single_threaded@GOTPCREL(%rip), %rax
	cmpb	$0, (%rax)
	je	.L1249
	movl	8(%rdi), %eax
	leal	-1(%rax), %edx
	movl	%edx, 8(%rdi)
.L1250:
	cmpl	$1, %eax
	je	.L1323
.L1247:
	movq	40(%rbx), %rdi
	testq	%rdi, %rdi
	je	.L1253
	movq	8(%rdi), %rdx
	leaq	8(%rdi), %rcx
	movabsq	$4294967297, %rax
	cmpq	%rax, %rdx
	je	.L1324
	movq	__libc_single_threaded@GOTPCREL(%rip), %rax
	cmpb	$0, (%rax)
	je	.L1255
	movl	8(%rdi), %eax
	leal	-1(%rax), %edx
	movl	%edx, 8(%rdi)
.L1256:
	cmpl	$1, %eax
	je	.L1325
.L1253:
	movq	24(%rbx), %rdi
	testq	%rdi, %rdi
	je	.L1259
	movq	__libc_single_threaded@GOTPCREL(%rip), %rax
	cmpb	$0, (%rax)
	je	.L1260
	movl	12(%rdi), %eax
	leal	-1(%rax), %edx
	movl	%edx, 12(%rdi)
.L1261:
	cmpl	$1, %eax
	je	.L1326
.L1259:
	addq	$24, %rsp
	.cfi_remember_state
	.cfi_def_cfa_offset 24
	movq	%rbp, %rdi
	movl	$1104, %esi
	popq	%rbx
	.cfi_def_cfa_offset 16
	popq	%rbp
	.cfi_def_cfa_offset 8
	jmp	_ZdlPvm@PLT
	.p2align 4,,10
	.p2align 3
.L1326:
	.cfi_restore_state
	movq	(%rdi), %rax
	call	*24(%rax)
	jmp	.L1259
	.p2align 4,,10
	.p2align 3
.L1260:
	movl	$-1, %eax
	lock xaddl	%eax, 12(%rdi)
	jmp	.L1261
	.p2align 4,,10
	.p2align 3
.L1300:
	movq	(%rdi), %rax
	movq	%rdi, 8(%rsp)
	movq	$0, 8(%rdi)
	call	*16(%rax)
	movq	8(%rsp), %rdi
	movq	(%rdi), %rax
	call	*24(%rax)
	jmp	.L1181
	.p2align 4,,10
	.p2align 3
.L1302:
	movq	(%rdi), %rax
	movq	%rdi, 8(%rsp)
	movq	$0, 8(%rdi)
	call	*16(%rax)
	movq	8(%rsp), %rdi
	movq	(%rdi), %rax
	call	*24(%rax)
	jmp	.L1187
	.p2align 4,,10
	.p2align 3
.L1304:
	movq	(%rdi), %rax
	movq	%rdi, 8(%rsp)
	movq	$0, 8(%rdi)
	call	*16(%rax)
	movq	8(%rsp), %rdi
	movq	(%rdi), %rax
	call	*24(%rax)
	jmp	.L1193
	.p2align 4,,10
	.p2align 3
.L1318:
	movq	(%rdi), %rax
	movq	%rdi, 8(%rsp)
	movq	$0, 8(%rdi)
	call	*16(%rax)
	movq	8(%rsp), %rdi
	movq	(%rdi), %rax
	call	*24(%rax)
	jmp	.L1235
	.p2align 4,,10
	.p2align 3
.L1320:
	movq	(%rdi), %rax
	movq	%rdi, 8(%rsp)
	movq	$0, 8(%rdi)
	call	*16(%rax)
	movq	8(%rsp), %rdi
	movq	(%rdi), %rax
	call	*24(%rax)
	jmp	.L1241
	.p2align 4,,10
	.p2align 3
.L1306:
	movq	(%rdi), %rax
	movq	%rdi, 8(%rsp)
	movq	$0, 8(%rdi)
	call	*16(%rax)
	movq	8(%rsp), %rdi
	movq	(%rdi), %rax
	call	*24(%rax)
	jmp	.L1199
	.p2align 4,,10
	.p2align 3
.L1308:
	movq	(%rdi), %rax
	movq	%rdi, 8(%rsp)
	movq	$0, 8(%rdi)
	call	*16(%rax)
	movq	8(%rsp), %rdi
	movq	(%rdi), %rax
	call	*24(%rax)
	jmp	.L1205
	.p2align 4,,10
	.p2align 3
.L1314:
	movq	(%rdi), %rax
	movq	%rdi, 8(%rsp)
	movq	$0, 8(%rdi)
	call	*16(%rax)
	movq	8(%rsp), %rdi
	movq	(%rdi), %rax
	call	*24(%rax)
	jmp	.L1223
	.p2align 4,,10
	.p2align 3
.L1316:
	movq	(%rdi), %rax
	movq	%rdi, 8(%rsp)
	movq	$0, 8(%rdi)
	call	*16(%rax)
	movq	8(%rsp), %rdi
	movq	(%rdi), %rax
	call	*24(%rax)
	jmp	.L1229
	.p2align 4,,10
	.p2align 3
.L1310:
	movq	(%rdi), %rax
	movq	%rdi, 8(%rsp)
	movq	$0, 8(%rdi)
	call	*16(%rax)
	movq	8(%rsp), %rdi
	movq	(%rdi), %rax
	call	*24(%rax)
	jmp	.L1211
	.p2align 4,,10
	.p2align 3
.L1312:
	movq	(%rdi), %rax
	movq	%rdi, 8(%rsp)
	movq	$0, 8(%rdi)
	call	*16(%rax)
	movq	8(%rsp), %rdi
	movq	(%rdi), %rax
	call	*24(%rax)
	jmp	.L1217
	.p2align 4,,10
	.p2align 3
.L1322:
	movq	(%rdi), %rax
	movq	%rdi, 8(%rsp)
	movq	$0, 8(%rdi)
	call	*16(%rax)
	movq	8(%rsp), %rdi
	movq	(%rdi), %rax
	call	*24(%rax)
	jmp	.L1247
	.p2align 4,,10
	.p2align 3
.L1324:
	movq	(%rdi), %rax
	movq	%rdi, 8(%rsp)
	movq	$0, 8(%rdi)
	call	*16(%rax)
	movq	8(%rsp), %rdi
	movq	(%rdi), %rax
	call	*24(%rax)
	jmp	.L1253
	.p2align 4,,10
	.p2align 3
.L1249:
	movl	$-1, %eax
	lock xaddl	%eax, (%rcx)
	jmp	.L1250
	.p2align 4,,10
	.p2align 3
.L1225:
	movl	$-1, %eax
	lock xaddl	%eax, (%rcx)
	jmp	.L1226
	.p2align 4,,10
	.p2align 3
.L1231:
	movl	$-1, %eax
	lock xaddl	%eax, (%rcx)
	jmp	.L1232
	.p2align 4,,10
	.p2align 3
.L1237:
	movl	$-1, %eax
	lock xaddl	%eax, (%rcx)
	jmp	.L1238
	.p2align 4,,10
	.p2align 3
.L1243:
	movl	$-1, %eax
	lock xaddl	%eax, (%rcx)
	jmp	.L1244
	.p2align 4,,10
	.p2align 3
.L1201:
	movl	$-1, %eax
	lock xaddl	%eax, (%rcx)
	jmp	.L1202
	.p2align 4,,10
	.p2align 3
.L1207:
	movl	$-1, %eax
	lock xaddl	%eax, (%rcx)
	jmp	.L1208
	.p2align 4,,10
	.p2align 3
.L1213:
	movl	$-1, %eax
	lock xaddl	%eax, (%rcx)
	jmp	.L1214
	.p2align 4,,10
	.p2align 3
.L1219:
	movl	$-1, %eax
	lock xaddl	%eax, (%rcx)
	jmp	.L1220
	.p2align 4,,10
	.p2align 3
.L1255:
	movl	$-1, %eax
	lock xaddl	%eax, (%rcx)
	jmp	.L1256
	.p2align 4,,10
	.p2align 3
.L1183:
	movl	$-1, %eax
	lock xaddl	%eax, (%rcx)
	jmp	.L1184
	.p2align 4,,10
	.p2align 3
.L1189:
	movl	$-1, %eax
	lock xaddl	%eax, (%rcx)
	jmp	.L1190
	.p2align 4,,10
	.p2align 3
.L1195:
	movl	$-1, %eax
	lock xaddl	%eax, (%rcx)
	jmp	.L1196
	.p2align 4,,10
	.p2align 3
.L1325:
	call	_ZNSt16_Sp_counted_baseILN9__gnu_cxx12_Lock_policyE2EE24_M_release_last_use_coldEv@PLT
	jmp	.L1253
	.p2align 4,,10
	.p2align 3
.L1323:
	call	_ZNSt16_Sp_counted_baseILN9__gnu_cxx12_Lock_policyE2EE24_M_release_last_use_coldEv@PLT
	jmp	.L1247
	.p2align 4,,10
	.p2align 3
.L1321:
	call	_ZNSt16_Sp_counted_baseILN9__gnu_cxx12_Lock_policyE2EE24_M_release_last_use_coldEv@PLT
	jmp	.L1241
	.p2align 4,,10
	.p2align 3
.L1319:
	call	_ZNSt16_Sp_counted_baseILN9__gnu_cxx12_Lock_policyE2EE24_M_release_last_use_coldEv@PLT
	jmp	.L1235
	.p2align 4,,10
	.p2align 3
.L1317:
	call	_ZNSt16_Sp_counted_baseILN9__gnu_cxx12_Lock_policyE2EE24_M_release_last_use_coldEv@PLT
	jmp	.L1229
	.p2align 4,,10
	.p2align 3
.L1315:
	call	_ZNSt16_Sp_counted_baseILN9__gnu_cxx12_Lock_policyE2EE24_M_release_last_use_coldEv@PLT
	jmp	.L1223
	.p2align 4,,10
	.p2align 3
.L1313:
	call	_ZNSt16_Sp_counted_baseILN9__gnu_cxx12_Lock_policyE2EE24_M_release_last_use_coldEv@PLT
	jmp	.L1217
	.p2align 4,,10
	.p2align 3
.L1311:
	call	_ZNSt16_Sp_counted_baseILN9__gnu_cxx12_Lock_policyE2EE24_M_release_last_use_coldEv@PLT
	jmp	.L1211
	.p2align 4,,10
	.p2align 3
.L1309:
	call	_ZNSt16_Sp_counted_baseILN9__gnu_cxx12_Lock_policyE2EE24_M_release_last_use_coldEv@PLT
	jmp	.L1205
	.p2align 4,,10
	.p2align 3
.L1307:
	call	_ZNSt16_Sp_counted_baseILN9__gnu_cxx12_Lock_policyE2EE24_M_release_last_use_coldEv@PLT
	jmp	.L1199
	.p2align 4,,10
	.p2align 3
.L1305:
	call	_ZNSt16_Sp_counted_baseILN9__gnu_cxx12_Lock_policyE2EE24_M_release_last_use_coldEv@PLT
	jmp	.L1193
	.p2align 4,,10
	.p2align 3
.L1303:
	call	_ZNSt16_Sp_counted_baseILN9__gnu_cxx12_Lock_policyE2EE24_M_release_last_use_coldEv@PLT
	jmp	.L1187
	.p2align 4,,10
	.p2align 3
.L1301:
	call	_ZNSt16_Sp_counted_baseILN9__gnu_cxx12_Lock_policyE2EE24_M_release_last_use_coldEv@PLT
	jmp	.L1181
	.cfi_endproc
.LFE12050:
	.size	_ZThn8_N8asiodnp315OutstationStackD0Ev, .-_ZThn8_N8asiodnp315OutstationStackD0Ev
	.p2align 4
	.weak	_ZThn16_N8asiodnp315OutstationStackD0Ev
	.type	_ZThn16_N8asiodnp315OutstationStackD0Ev, @function
_ZThn16_N8asiodnp315OutstationStackD0Ev:
.LFB12051:
	.cfi_startproc
	pushq	%rbp
	.cfi_def_cfa_offset 16
	.cfi_offset 6, -16
	leaq	-16(%rdi), %rbp
	pushq	%rbx
	.cfi_def_cfa_offset 24
	.cfi_offset 3, -24
	movq	%rdi, %rbx
	subq	$24, %rsp
	.cfi_def_cfa_offset 48
	movq	_ZTVN8asiodnp315OutstationStackE@GOTPCREL(%rip), %rax
	leaq	144(%rax), %rdx
	leaq	16(%rax), %rsi
	addq	$208, %rax
	movq	%rax, (%rdi)
	movq	_ZTVN8opendnp38OContextE@GOTPCREL(%rip), %rax
	movq	%rsi, %xmm0
	movq	%rdx, %xmm1
	punpcklqdq	%xmm1, %xmm0
	addq	$16, %rax
	movups	%xmm0, -16(%rdi)
	movq	%rax, 136(%rdi)
	movq	1072(%rdi), %rdi
	testq	%rdi, %rdi
	je	.L1328
	call	_ZdaPv@PLT
.L1328:
	movq	1016(%rbx), %rdi
	testq	%rdi, %rdi
	je	.L1329
	call	_ZdaPv@PLT
.L1329:
	movq	936(%rbx), %rdi
	testq	%rdi, %rdi
	je	.L1330
	call	_ZdaPv@PLT
.L1330:
	leaq	864(%rbx), %rdi
	call	_ZN7openpal8TimerRefD1Ev@PLT
	movq	728(%rbx), %rdi
	testq	%rdi, %rdi
	je	.L1331
	call	_ZdaPv@PLT
.L1331:
	movq	704(%rbx), %rdi
	testq	%rdi, %rdi
	je	.L1332
	call	_ZdaPv@PLT
.L1332:
	movq	680(%rbx), %rdi
	testq	%rdi, %rdi
	je	.L1333
	call	_ZdaPv@PLT
.L1333:
	movq	656(%rbx), %rdi
	testq	%rdi, %rdi
	je	.L1334
	call	_ZdaPv@PLT
.L1334:
	movq	632(%rbx), %rdi
	testq	%rdi, %rdi
	je	.L1335
	call	_ZdaPv@PLT
.L1335:
	movq	608(%rbx), %rdi
	testq	%rdi, %rdi
	je	.L1336
	call	_ZdaPv@PLT
.L1336:
	movq	584(%rbx), %rdi
	testq	%rdi, %rdi
	je	.L1337
	call	_ZdaPv@PLT
.L1337:
	movq	560(%rbx), %rdi
	testq	%rdi, %rdi
	je	.L1338
	call	_ZdaPv@PLT
.L1338:
	movq	344(%rbx), %rdi
	testq	%rdi, %rdi
	je	.L1339
	call	_ZdaPv@PLT
.L1339:
	movq	232(%rbx), %rdi
	testq	%rdi, %rdi
	je	.L1341
	movq	8(%rdi), %rdx
	leaq	8(%rdi), %rcx
	movabsq	$4294967297, %rax
	cmpq	%rax, %rdx
	je	.L1460
	movq	__libc_single_threaded@GOTPCREL(%rip), %rax
	cmpb	$0, (%rax)
	je	.L1343
	movl	8(%rdi), %eax
	leal	-1(%rax), %edx
	movl	%edx, 8(%rdi)
.L1344:
	cmpl	$1, %eax
	je	.L1461
.L1341:
	movq	216(%rbx), %rdi
	testq	%rdi, %rdi
	je	.L1347
	movq	8(%rdi), %rdx
	leaq	8(%rdi), %rcx
	movabsq	$4294967297, %rax
	cmpq	%rax, %rdx
	je	.L1462
	movq	__libc_single_threaded@GOTPCREL(%rip), %rax
	cmpb	$0, (%rax)
	je	.L1349
	movl	8(%rdi), %eax
	leal	-1(%rax), %edx
	movl	%edx, 8(%rdi)
.L1350:
	cmpl	$1, %eax
	je	.L1463
.L1347:
	movq	200(%rbx), %rdi
	testq	%rdi, %rdi
	je	.L1353
	movq	8(%rdi), %rdx
	leaq	8(%rdi), %rcx
	movabsq	$4294967297, %rax
	cmpq	%rax, %rdx
	je	.L1464
	movq	__libc_single_threaded@GOTPCREL(%rip), %rax
	cmpb	$0, (%rax)
	je	.L1355
	movl	8(%rdi), %eax
	leal	-1(%rax), %edx
	movl	%edx, 8(%rdi)
.L1356:
	cmpl	$1, %eax
	je	.L1465
.L1353:
	movq	184(%rbx), %rdi
	testq	%rdi, %rdi
	je	.L1359
	movq	8(%rdi), %rdx
	leaq	8(%rdi), %rcx
	movabsq	$4294967297, %rax
	cmpq	%rax, %rdx
	je	.L1466
	movq	__libc_single_threaded@GOTPCREL(%rip), %rax
	cmpb	$0, (%rax)
	je	.L1361
	movl	8(%rdi), %eax
	leal	-1(%rax), %edx
	movl	%edx, 8(%rdi)
.L1362:
	cmpl	$1, %eax
	je	.L1467
.L1359:
	movq	168(%rbx), %rdi
	testq	%rdi, %rdi
	je	.L1365
	movq	8(%rdi), %rdx
	leaq	8(%rdi), %rcx
	movabsq	$4294967297, %rax
	cmpq	%rax, %rdx
	je	.L1468
	movq	__libc_single_threaded@GOTPCREL(%rip), %rax
	cmpb	$0, (%rax)
	je	.L1367
	movl	8(%rdi), %eax
	leal	-1(%rax), %edx
	movl	%edx, 8(%rdi)
.L1368:
	cmpl	$1, %eax
	je	.L1469
.L1365:
	movq	152(%rbx), %rdi
	testq	%rdi, %rdi
	je	.L1371
	movq	8(%rdi), %rdx
	leaq	8(%rdi), %rcx
	movabsq	$4294967297, %rax
	cmpq	%rax, %rdx
	je	.L1470
	movq	__libc_single_threaded@GOTPCREL(%rip), %rax
	cmpb	$0, (%rax)
	je	.L1373
	movl	8(%rdi), %eax
	leal	-1(%rax), %edx
	movl	%edx, 8(%rdi)
.L1374:
	cmpl	$1, %eax
	je	.L1471
.L1371:
	movq	128(%rbx), %rdi
	testq	%rdi, %rdi
	je	.L1377
	movq	8(%rdi), %rdx
	leaq	8(%rdi), %rcx
	movabsq	$4294967297, %rax
	cmpq	%rax, %rdx
	je	.L1472
	movq	__libc_single_threaded@GOTPCREL(%rip), %rax
	cmpb	$0, (%rax)
	je	.L1379
	movl	8(%rdi), %eax
	leal	-1(%rax), %edx
	movl	%edx, 8(%rdi)
.L1380:
	cmpl	$1, %eax
	je	.L1473
.L1377:
	movq	112(%rbx), %rdi
	testq	%rdi, %rdi
	je	.L1383
	movq	8(%rdi), %rdx
	leaq	8(%rdi), %rcx
	movabsq	$4294967297, %rax
	cmpq	%rax, %rdx
	je	.L1474
	movq	__libc_single_threaded@GOTPCREL(%rip), %rax
	cmpb	$0, (%rax)
	je	.L1385
	movl	8(%rdi), %eax
	leal	-1(%rax), %edx
	movl	%edx, 8(%rdi)
.L1386:
	cmpl	$1, %eax
	je	.L1475
.L1383:
	movq	96(%rbx), %rdi
	testq	%rdi, %rdi
	je	.L1389
	movq	8(%rdi), %rdx
	leaq	8(%rdi), %rcx
	movabsq	$4294967297, %rax
	cmpq	%rax, %rdx
	je	.L1476
	movq	__libc_single_threaded@GOTPCREL(%rip), %rax
	cmpb	$0, (%rax)
	je	.L1391
	movl	8(%rdi), %eax
	leal	-1(%rax), %edx
	movl	%edx, 8(%rdi)
.L1392:
	cmpl	$1, %eax
	je	.L1477
.L1389:
	movq	80(%rbx), %rdi
	testq	%rdi, %rdi
	je	.L1395
	movq	8(%rdi), %rdx
	leaq	8(%rdi), %rcx
	movabsq	$4294967297, %rax
	cmpq	%rax, %rdx
	je	.L1478
	movq	__libc_single_threaded@GOTPCREL(%rip), %rax
	cmpb	$0, (%rax)
	je	.L1397
	movl	8(%rdi), %eax
	leal	-1(%rax), %edx
	movl	%edx, 8(%rdi)
.L1398:
	cmpl	$1, %eax
	je	.L1479
.L1395:
	movq	64(%rbx), %rdi
	testq	%rdi, %rdi
	je	.L1401
	movq	8(%rdi), %rdx
	leaq	8(%rdi), %rcx
	movabsq	$4294967297, %rax
	cmpq	%rax, %rdx
	je	.L1480
	movq	__libc_single_threaded@GOTPCREL(%rip), %rax
	cmpb	$0, (%rax)
	je	.L1403
	movl	8(%rdi), %eax
	leal	-1(%rax), %edx
	movl	%edx, 8(%rdi)
.L1404:
	cmpl	$1, %eax
	je	.L1481
.L1401:
	movq	48(%rbx), %rdi
	testq	%rdi, %rdi
	je	.L1407
	movq	8(%rdi), %rdx
	leaq	8(%rdi), %rcx
	movabsq	$4294967297, %rax
	cmpq	%rax, %rdx
	je	.L1482
	movq	__libc_single_threaded@GOTPCREL(%rip), %rax
	cmpb	$0, (%rax)
	je	.L1409
	movl	8(%rdi), %eax
	leal	-1(%rax), %edx
	movl	%edx, 8(%rdi)
.L1410:
	cmpl	$1, %eax
	je	.L1483
.L1407:
	movq	32(%rbx), %rdi
	testq	%rdi, %rdi
	je	.L1413
	movq	8(%rdi), %rdx
	leaq	8(%rdi), %rcx
	movabsq	$4294967297, %rax
	cmpq	%rax, %rdx
	je	.L1484
	movq	__libc_single_threaded@GOTPCREL(%rip), %rax
	cmpb	$0, (%rax)
	je	.L1415
	movl	8(%rdi), %eax
	leal	-1(%rax), %edx
	movl	%edx, 8(%rdi)
.L1416:
	cmpl	$1, %eax
	je	.L1485
.L1413:
	movq	16(%rbx), %rdi
	testq	%rdi, %rdi
	je	.L1419
	movq	__libc_single_threaded@GOTPCREL(%rip), %rax
	cmpb	$0, (%rax)
	je	.L1420
	movl	12(%rdi), %eax
	leal	-1(%rax), %edx
	movl	%edx, 12(%rdi)
.L1421:
	cmpl	$1, %eax
	je	.L1486
.L1419:
	addq	$24, %rsp
	.cfi_remember_state
	.cfi_def_cfa_offset 24
	movq	%rbp, %rdi
	movl	$1104, %esi
	popq	%rbx
	.cfi_def_cfa_offset 16
	popq	%rbp
	.cfi_def_cfa_offset 8
	jmp	_ZdlPvm@PLT
	.p2align 4,,10
	.p2align 3
.L1486:
	.cfi_restore_state
	movq	(%rdi), %rax
	call	*24(%rax)
	jmp	.L1419
	.p2align 4,,10
	.p2align 3
.L1420:
	movl	$-1, %eax
	lock xaddl	%eax, 12(%rdi)
	jmp	.L1421
	.p2align 4,,10
	.p2align 3
.L1460:
	movq	(%rdi), %rax
	movq	%rdi, 8(%rsp)
	movq	$0, 8(%rdi)
	call	*16(%rax)
	movq	8(%rsp), %rdi
	movq	(%rdi), %rax
	call	*24(%rax)
	jmp	.L1341
	.p2align 4,,10
	.p2align 3
.L1462:
	movq	(%rdi), %rax
	movq	%rdi, 8(%rsp)
	movq	$0, 8(%rdi)
	call	*16(%rax)
	movq	8(%rsp), %rdi
	movq	(%rdi), %rax
	call	*24(%rax)
	jmp	.L1347
	.p2align 4,,10
	.p2align 3
.L1464:
	movq	(%rdi), %rax
	movq	%rdi, 8(%rsp)
	movq	$0, 8(%rdi)
	call	*16(%rax)
	movq	8(%rsp), %rdi
	movq	(%rdi), %rax
	call	*24(%rax)
	jmp	.L1353
	.p2align 4,,10
	.p2align 3
.L1478:
	movq	(%rdi), %rax
	movq	%rdi, 8(%rsp)
	movq	$0, 8(%rdi)
	call	*16(%rax)
	movq	8(%rsp), %rdi
	movq	(%rdi), %rax
	call	*24(%rax)
	jmp	.L1395
	.p2align 4,,10
	.p2align 3
.L1480:
	movq	(%rdi), %rax
	movq	%rdi, 8(%rsp)
	movq	$0, 8(%rdi)
	call	*16(%rax)
	movq	8(%rsp), %rdi
	movq	(%rdi), %rax
	call	*24(%rax)
	jmp	.L1401
	.p2align 4,,10
	.p2align 3
.L1466:
	movq	(%rdi), %rax
	movq	%rdi, 8(%rsp)
	movq	$0, 8(%rdi)
	call	*16(%rax)
	movq	8(%rsp), %rdi
	movq	(%rdi), %rax
	call	*24(%rax)
	jmp	.L1359
	.p2align 4,,10
	.p2align 3
.L1468:
	movq	(%rdi), %rax
	movq	%rdi, 8(%rsp)
	movq	$0, 8(%rdi)
	call	*16(%rax)
	movq	8(%rsp), %rdi
	movq	(%rdi), %rax
	call	*24(%rax)
	jmp	.L1365
	.p2align 4,,10
	.p2align 3
.L1474:
	movq	(%rdi), %rax
	movq	%rdi, 8(%rsp)
	movq	$0, 8(%rdi)
	call	*16(%rax)
	movq	8(%rsp), %rdi
	movq	(%rdi), %rax
	call	*24(%rax)
	jmp	.L1383
	.p2align 4,,10
	.p2align 3
.L1476:
	movq	(%rdi), %rax
	movq	%rdi, 8(%rsp)
	movq	$0, 8(%rdi)
	call	*16(%rax)
	movq	8(%rsp), %rdi
	movq	(%rdi), %rax
	call	*24(%rax)
	jmp	.L1389
	.p2align 4,,10
	.p2align 3
.L1470:
	movq	(%rdi), %rax
	movq	%rdi, 8(%rsp)
	movq	$0, 8(%rdi)
	call	*16(%rax)
	movq	8(%rsp), %rdi
	movq	(%rdi), %rax
	call	*24(%rax)
	jmp	.L1371
	.p2align 4,,10
	.p2align 3
.L1472:
	movq	(%rdi), %rax
	movq	%rdi, 8(%rsp)
	movq	$0, 8(%rdi)
	call	*16(%rax)
	movq	8(%rsp), %rdi
	movq	(%rdi), %rax
	call	*24(%rax)
	jmp	.L1377
	.p2align 4,,10
	.p2align 3
.L1482:
	movq	(%rdi), %rax
	movq	%rdi, 8(%rsp)
	movq	$0, 8(%rdi)
	call	*16(%rax)
	movq	8(%rsp), %rdi
	movq	(%rdi), %rax
	call	*24(%rax)
	jmp	.L1407
	.p2align 4,,10
	.p2align 3
.L1484:
	movq	(%rdi), %rax
	movq	%rdi, 8(%rsp)
	movq	$0, 8(%rdi)
	call	*16(%rax)
	movq	8(%rsp), %rdi
	movq	(%rdi), %rax
	call	*24(%rax)
	jmp	.L1413
	.p2align 4,,10
	.p2align 3
.L1409:
	movl	$-1, %eax
	lock xaddl	%eax, (%rcx)
	jmp	.L1410
	.p2align 4,,10
	.p2align 3
.L1385:
	movl	$-1, %eax
	lock xaddl	%eax, (%rcx)
	jmp	.L1386
	.p2align 4,,10
	.p2align 3
.L1391:
	movl	$-1, %eax
	lock xaddl	%eax, (%rcx)
	jmp	.L1392
	.p2align 4,,10
	.p2align 3
.L1397:
	movl	$-1, %eax
	lock xaddl	%eax, (%rcx)
	jmp	.L1398
	.p2align 4,,10
	.p2align 3
.L1403:
	movl	$-1, %eax
	lock xaddl	%eax, (%rcx)
	jmp	.L1404
	.p2align 4,,10
	.p2align 3
.L1361:
	movl	$-1, %eax
	lock xaddl	%eax, (%rcx)
	jmp	.L1362
	.p2align 4,,10
	.p2align 3
.L1367:
	movl	$-1, %eax
	lock xaddl	%eax, (%rcx)
	jmp	.L1368
	.p2align 4,,10
	.p2align 3
.L1373:
	movl	$-1, %eax
	lock xaddl	%eax, (%rcx)
	jmp	.L1374
	.p2align 4,,10
	.p2align 3
.L1379:
	movl	$-1, %eax
	lock xaddl	%eax, (%rcx)
	jmp	.L1380
	.p2align 4,,10
	.p2align 3
.L1415:
	movl	$-1, %eax
	lock xaddl	%eax, (%rcx)
	jmp	.L1416
	.p2align 4,,10
	.p2align 3
.L1343:
	movl	$-1, %eax
	lock xaddl	%eax, (%rcx)
	jmp	.L1344
	.p2align 4,,10
	.p2align 3
.L1349:
	movl	$-1, %eax
	lock xaddl	%eax, (%rcx)
	jmp	.L1350
	.p2align 4,,10
	.p2align 3
.L1355:
	movl	$-1, %eax
	lock xaddl	%eax, (%rcx)
	jmp	.L1356
	.p2align 4,,10
	.p2align 3
.L1485:
	call	_ZNSt16_Sp_counted_baseILN9__gnu_cxx12_Lock_policyE2EE24_M_release_last_use_coldEv@PLT
	jmp	.L1413
	.p2align 4,,10
	.p2align 3
.L1483:
	call	_ZNSt16_Sp_counted_baseILN9__gnu_cxx12_Lock_policyE2EE24_M_release_last_use_coldEv@PLT
	jmp	.L1407
	.p2align 4,,10
	.p2align 3
.L1481:
	call	_ZNSt16_Sp_counted_baseILN9__gnu_cxx12_Lock_policyE2EE24_M_release_last_use_coldEv@PLT
	jmp	.L1401
	.p2align 4,,10
	.p2align 3
.L1479:
	call	_ZNSt16_Sp_counted_baseILN9__gnu_cxx12_Lock_policyE2EE24_M_release_last_use_coldEv@PLT
	jmp	.L1395
	.p2align 4,,10
	.p2align 3
.L1477:
	call	_ZNSt16_Sp_counted_baseILN9__gnu_cxx12_Lock_policyE2EE24_M_release_last_use_coldEv@PLT
	jmp	.L1389
	.p2align 4,,10
	.p2align 3
.L1475:
	call	_ZNSt16_Sp_counted_baseILN9__gnu_cxx12_Lock_policyE2EE24_M_release_last_use_coldEv@PLT
	jmp	.L1383
	.p2align 4,,10
	.p2align 3
.L1473:
	call	_ZNSt16_Sp_counted_baseILN9__gnu_cxx12_Lock_policyE2EE24_M_release_last_use_coldEv@PLT
	jmp	.L1377
	.p2align 4,,10
	.p2align 3
.L1471:
	call	_ZNSt16_Sp_counted_baseILN9__gnu_cxx12_Lock_policyE2EE24_M_release_last_use_coldEv@PLT
	jmp	.L1371
	.p2align 4,,10
	.p2align 3
.L1469:
	call	_ZNSt16_Sp_counted_baseILN9__gnu_cxx12_Lock_policyE2EE24_M_release_last_use_coldEv@PLT
	jmp	.L1365
	.p2align 4,,10
	.p2align 3
.L1467:
	call	_ZNSt16_Sp_counted_baseILN9__gnu_cxx12_Lock_policyE2EE24_M_release_last_use_coldEv@PLT
	jmp	.L1359
	.p2align 4,,10
	.p2align 3
.L1465:
	call	_ZNSt16_Sp_counted_baseILN9__gnu_cxx12_Lock_policyE2EE24_M_release_last_use_coldEv@PLT
	jmp	.L1353
	.p2align 4,,10
	.p2align 3
.L1463:
	call	_ZNSt16_Sp_counted_baseILN9__gnu_cxx12_Lock_policyE2EE24_M_release_last_use_coldEv@PLT
	jmp	.L1347
	.p2align 4,,10
	.p2align 3
.L1461:
	call	_ZNSt16_Sp_counted_baseILN9__gnu_cxx12_Lock_policyE2EE24_M_release_last_use_coldEv@PLT
	jmp	.L1341
	.cfi_endproc
.LFE12051:
	.size	_ZThn16_N8asiodnp315OutstationStackD0Ev, .-_ZThn16_N8asiodnp315OutstationStackD0Ev
	.section	.text._ZNSt17_Function_handlerIFvvEZN8asiodnp39StackBase15PerformShutdownINS1_15OutstationStackEEEvRKSt10shared_ptrIT_EEUlvE_E9_M_invokeERKSt9_Any_data,"axG",@progbits,_ZNSt17_Function_handlerIFvvEZN8asiodnp39StackBase15PerformShutdownINS1_15OutstationStackEEEvRKSt10shared_ptrIT_EEUlvE_E9_M_invokeERKSt9_Any_data,comdat
	.p2align 4
	.weak	_ZNSt17_Function_handlerIFvvEZN8asiodnp39StackBase15PerformShutdownINS1_15OutstationStackEEEvRKSt10shared_ptrIT_EEUlvE_E9_M_invokeERKSt9_Any_data
	.type	_ZNSt17_Function_handlerIFvvEZN8asiodnp39StackBase15PerformShutdownINS1_15OutstationStackEEEvRKSt10shared_ptrIT_EEUlvE_E9_M_invokeERKSt9_Any_data, @function
_ZNSt17_Function_handlerIFvvEZN8asiodnp39StackBase15PerformShutdownINS1_15OutstationStackEEEvRKSt10shared_ptrIT_EEUlvE_E9_M_invokeERKSt9_Any_data:
.LFB10780:
	.cfi_startproc
	.cfi_personality 0x9b,DW.ref.__gxx_personality_v0
	.cfi_lsda 0x1b,.LLSDA10780
	pushq	%r15
	.cfi_def_cfa_offset 16
	.cfi_offset 15, -16
	pushq	%r14
	.cfi_def_cfa_offset 24
	.cfi_offset 14, -24
	pushq	%r13
	.cfi_def_cfa_offset 32
	.cfi_offset 13, -32
	pushq	%r12
	.cfi_def_cfa_offset 40
	.cfi_offset 12, -40
	pushq	%rbp
	.cfi_def_cfa_offset 48
	.cfi_offset 6, -48
	pushq	%rbx
	.cfi_def_cfa_offset 56
	.cfi_offset 3, -56
	subq	$56, %rsp
	.cfi_def_cfa_offset 112
	movq	(%rdi), %rbx
	movq	(%rbx), %rax
	movq	8(%rbx), %rdx
	movq	88(%rax), %rdi
	addq	$8, %rax
	movq	%rdx, %xmm2
	movq	%rax, %xmm0
	punpcklqdq	%xmm2, %xmm0
	movaps	%xmm0, 32(%rsp)
	testq	%rdx, %rdx
	je	.L1488
	movq	__libc_single_threaded@GOTPCREL(%rip), %rax
	cmpb	$0, (%rax)
	je	.L1489
	addl	$1, 8(%rdx)
.L1488:
	leaq	32(%rsp), %rsi
.LEHB41:
	call	_ZN8asiodnp39IOHandler6RemoveERKSt10shared_ptrIN8opendnp312ILinkSessionEE@PLT
.LEHE41:
	movq	40(%rsp), %rbp
	testq	%rbp, %rbp
	je	.L1491
	movq	8(%rbp), %rdx
	leaq	8(%rbp), %rcx
	movabsq	$4294967297, %rax
	cmpq	%rax, %rdx
	je	.L1576
	movq	__libc_single_threaded@GOTPCREL(%rip), %rax
	cmpb	$0, (%rax)
	je	.L1493
	movl	8(%rbp), %eax
	leal	-1(%rax), %edx
	movl	%edx, 8(%rbp)
.L1494:
	cmpl	$1, %eax
	je	.L1577
.L1491:
	movq	8(%rbx), %rbp
	movq	(%rbx), %r15
	testq	%rbp, %rbp
	je	.L1578
	movq	__libc_single_threaded@GOTPCREL(%rip), %rax
	cmpb	$0, (%rax)
	je	.L1498
	movl	8(%rbp), %eax
	movq	72(%r15), %r12
	addl	$1, %eax
.L1499:
	addl	$1, %eax
	movl	%eax, 8(%rbp)
.L1497:
	data16	leaq	_ZN4asio6detail15keyword_tss_ptrINS0_10call_stackINS0_15task_io_serviceENS0_27task_io_service_thread_infoEE7contextEE6value_E@tlsgd(%rip), %rdi
	.value	0x6666
	rex64
	call	__tls_get_addr@PLT
	movq	40(%r12), %r14
	movq	(%rax), %rax
	testq	%rax, %rax
	je	.L1501
	movq	8(%rax), %rax
	testq	%rax, %rax
	je	.L1501
	movq	(%rax), %rbx
	testq	%rbx, %rbx
	je	.L1501
	movq	$0, (%rax)
	movzbl	(%rbx), %eax
	cmpb	$39, %al
	jbe	.L1502
	movb	%al, 40(%rbx)
.L1503:
	movq	%rbx, %xmm1
	movq	%r15, %xmm0
	movq	_ZN4asio6detail18completion_handlerIZZN8asiodnp39StackBase15PerformShutdownINS2_15OutstationStackEEEvRKSt10shared_ptrIT_EENKUlvE_clEvEUlvE_E11do_completeEPNS0_15task_io_serviceEPNS0_25task_io_service_operationERKSt10error_codem@GOTPCREL(%rip), %rax
	movq	%rbp, %xmm3
	punpcklqdq	%xmm1, %xmm1
	punpcklqdq	%xmm3, %xmm0
	movq	$0, (%rbx)
	movq	%rax, 8(%rbx)
	movl	$0, 16(%rbx)
	movaps	%xmm1, (%rsp)
	movups	%xmm0, 24(%rbx)
	testq	%rbp, %rbp
	je	.L1504
	movq	__libc_single_threaded@GOTPCREL(%rip), %rax
	cmpb	$0, (%rax)
	je	.L1505
	addl	$1, 8(%rbp)
.L1504:
	movq	48(%r12), %rax
	leaq	24(%rax), %rdi
	call	pthread_mutex_lock@PLT
	movq	48(%r12), %rdi
	cmpb	$0, 64(%rdi)
	je	.L1506
	movq	80(%rdi), %rax
	movq	$0, (%rbx)
	testq	%rax, %rax
	je	.L1507
	movq	%rbx, (%rax)
	movq	%rbx, 80(%rdi)
.L1508:
	addq	$24, %rdi
	call	pthread_mutex_unlock@PLT
.L1509:
	testq	%rbp, %rbp
	je	.L1487
	movq	8(%rbp), %rdx
	leaq	8(%rbp), %rbx
	movabsq	$4294967297, %rax
	cmpq	%rax, %rdx
	je	.L1579
	movq	__libc_single_threaded@GOTPCREL(%rip), %rax
	cmpb	$0, (%rax)
	je	.L1525
	movl	8(%rbp), %eax
	leal	-1(%rax), %edx
	movl	%edx, 8(%rbp)
	cmpl	$1, %eax
	je	.L1526
.L1524:
	movabsq	$4294967297, %rax
	movq	8(%rbp), %rdx
	cmpq	%rax, %rdx
	je	.L1580
	movq	__libc_single_threaded@GOTPCREL(%rip), %rax
	cmpb	$0, (%rax)
	je	.L1533
	movl	8(%rbp), %eax
	leal	-1(%rax), %edx
	movl	%edx, 8(%rbp)
.L1534:
	cmpl	$1, %eax
	je	.L1581
.L1487:
	addq	$56, %rsp
	.cfi_remember_state
	.cfi_def_cfa_offset 56
	popq	%rbx
	.cfi_def_cfa_offset 48
	popq	%rbp
	.cfi_def_cfa_offset 40
	popq	%r12
	.cfi_def_cfa_offset 32
	popq	%r13
	.cfi_def_cfa_offset 24
	popq	%r14
	.cfi_def_cfa_offset 16
	popq	%r15
	.cfi_def_cfa_offset 8
	ret
	.p2align 4,,10
	.p2align 3
.L1489:
	.cfi_restore_state
	lock addl	$1, 8(%rdx)
	jmp	.L1488
	.p2align 4,,10
	.p2align 3
.L1498:
	lock addl	$1, 8(%rbp)
	movq	(%rbx), %rdx
	movq	72(%rdx), %r12
	cmpb	$0, (%rax)
	jne	.L1582
	lock addl	$1, 8(%rbp)
	jmp	.L1497
	.p2align 4,,10
	.p2align 3
.L1502:
	movq	%rbx, %rdi
	call	_ZdlPv@PLT
.L1501:
	movl	$41, %edi
.LEHB42:
	call	_Znwm@PLT
.LEHE42:
	movb	$40, 40(%rax)
	movq	%rax, %rbx
	jmp	.L1503
	.p2align 4,,10
	.p2align 3
.L1506:
	movb	$1, 64(%rdi)
	addq	$24, %rdi
	call	pthread_mutex_unlock@PLT
	movq	48(%r12), %r12
	movq	$0, (%rbx)
	movq	%r12, %xmm4
	movq	96(%r12), %rax
	punpcklqdq	%xmm4, %xmm4
	movaps	%xmm4, 16(%rsp)
	testq	%rax, %rax
	je	.L1510
	movq	%rbx, (%rax)
	movq	%rbx, 96(%r12)
.L1511:
	movq	40(%r14), %rbx
	cmpb	$0, 40(%rbx)
	je	.L1512
	data16	leaq	_ZN4asio6detail15keyword_tss_ptrINS0_10call_stackINS0_15task_io_serviceENS0_27task_io_service_thread_infoEE7contextEE6value_E@tlsgd(%rip), %rdi
	.value	0x6666
	rex64
	call	__tls_get_addr@PLT
	movq	(%rax), %rax
	testq	%rax, %rax
	jne	.L1515
	jmp	.L1512
	.p2align 4
	.p2align 4,,10
	.p2align 3
.L1513:
	movq	16(%rax), %rax
	testq	%rax, %rax
	je	.L1512
.L1515:
	cmpq	(%rax), %rbx
	jne	.L1513
	movq	8(%rax), %rax
	testq	%rax, %rax
	je	.L1512
	movq	16(%rax), %rdx
	addq	$1, 24(%rax)
	movq	$0, (%r12)
	testq	%rdx, %rdx
	je	.L1516
	movq	%r12, (%rdx)
	movq	%r12, 16(%rax)
	jmp	.L1509
	.p2align 4,,10
	.p2align 3
.L1512:
	lock addq	$1, 184(%rbx)
	leaq	48(%rbx), %r14
	movq	%r14, %rdi
	call	pthread_mutex_lock@PLT
	movq	200(%rbx), %rax
	movq	$0, (%r12)
	testq	%rax, %rax
	je	.L1517
	movq	%r12, (%rax)
	movq	%r12, 200(%rbx)
.L1518:
	movq	136(%rbx), %rax
	movq	%rax, %rdx
	orq	$1, %rdx
	movq	%rdx, 136(%rbx)
	cmpq	$1, %rax
	jbe	.L1519
	movq	%r14, %rdi
	call	pthread_mutex_unlock@PLT
	leaq	88(%rbx), %rdi
	call	pthread_cond_signal@PLT
	jmp	.L1509
	.p2align 4,,10
	.p2align 3
.L1578:
	movq	72(%r15), %r12
	jmp	.L1497
	.p2align 4,,10
	.p2align 3
.L1505:
	lock addl	$1, 8(%rbp)
	jmp	.L1504
	.p2align 4,,10
	.p2align 3
.L1507:
	movdqa	(%rsp), %xmm5
	movups	%xmm5, 72(%rdi)
	jmp	.L1508
	.p2align 4,,10
	.p2align 3
.L1576:
	movq	0(%rbp), %rax
	movq	%rbp, %rdi
	movq	$0, 8(%rbp)
	call	*16(%rax)
	movq	0(%rbp), %rax
	movq	%rbp, %rdi
	call	*24(%rax)
	jmp	.L1491
	.p2align 4,,10
	.p2align 3
.L1517:
	movdqa	16(%rsp), %xmm7
	movups	%xmm7, 192(%rbx)
	jmp	.L1518
	.p2align 4,,10
	.p2align 3
.L1493:
	movl	$-1, %eax
	lock xaddl	%eax, (%rcx)
	jmp	.L1494
	.p2align 4,,10
	.p2align 3
.L1525:
	lock subl	$1, (%rbx)
	jne	.L1524
.L1526:
	movq	%rbp, %rdi
	call	_ZNSt16_Sp_counted_baseILN9__gnu_cxx12_Lock_policyE2EE24_M_release_last_use_coldEv@PLT
	jmp	.L1524
	.p2align 4,,10
	.p2align 3
.L1533:
	movl	$-1, %eax
	lock xaddl	%eax, (%rbx)
	jmp	.L1534
	.p2align 4,,10
	.p2align 3
.L1519:
	cmpb	$0, 176(%rbx)
	jne	.L1521
	movq	144(%rbx), %rax
	testq	%rax, %rax
	je	.L1521
	movb	$1, 176(%rbx)
	leaq	88(%rax), %rdx
	leaq	32(%rsp), %rcx
	movl	$3, %esi
	movq	%rdx, 36(%rsp)
	movl	88(%rax), %edx
	movl	$-2147483639, 32(%rsp)
	movl	96(%rax), %edi
	call	epoll_ctl@PLT
.L1521:
	movq	%r14, %rdi
	call	pthread_mutex_unlock@PLT
	jmp	.L1509
	.p2align 4,,10
	.p2align 3
.L1580:
	movq	0(%rbp), %rax
	movq	%rbp, %rdi
	movq	$0, 8(%rbp)
	call	*16(%rax)
	movq	0(%rbp), %rax
	movq	%rbp, %rdi
	movq	24(%rax), %rax
	addq	$56, %rsp
	.cfi_remember_state
	.cfi_def_cfa_offset 56
	popq	%rbx
	.cfi_def_cfa_offset 48
	popq	%rbp
	.cfi_def_cfa_offset 40
	popq	%r12
	.cfi_def_cfa_offset 32
	popq	%r13
	.cfi_def_cfa_offset 24
	popq	%r14
	.cfi_def_cfa_offset 16
	popq	%r15
	.cfi_def_cfa_offset 8
.LEHB43:
	jmp	*%rax
	.p2align 4,,10
	.p2align 3
.L1579:
	.cfi_restore_state
	movq	0(%rbp), %rax
	movq	%rbp, %rdi
	movq	$0, 8(%rbp)
	call	*16(%rax)
	movq	0(%rbp), %rax
	movq	%rbp, %rdi
	call	*24(%rax)
	jmp	.L1524
	.p2align 4,,10
	.p2align 3
.L1510:
	movdqa	(%rsp), %xmm6
	movups	%xmm6, 88(%r12)
	jmp	.L1511
	.p2align 4,,10
	.p2align 3
.L1577:
	movq	%rbp, %rdi
	call	_ZNSt16_Sp_counted_baseILN9__gnu_cxx12_Lock_policyE2EE24_M_release_last_use_coldEv@PLT
	jmp	.L1491
	.p2align 4,,10
	.p2align 3
.L1581:
	addq	$56, %rsp
	.cfi_remember_state
	.cfi_def_cfa_offset 56
	movq	%rbp, %rdi
	popq	%rbx
	.cfi_def_cfa_offset 48
	popq	%rbp
	.cfi_def_cfa_offset 40
	popq	%r12
	.cfi_def_cfa_offset 32
	popq	%r13
	.cfi_def_cfa_offset 24
	popq	%r14
	.cfi_def_cfa_offset 16
	popq	%r15
	.cfi_def_cfa_offset 8
	jmp	_ZNSt16_Sp_counted_baseILN9__gnu_cxx12_Lock_policyE2EE24_M_release_last_use_coldEv@PLT
	.p2align 4,,10
	.p2align 3
.L1516:
	.cfi_restore_state
	movdqa	16(%rsp), %xmm7
	movups	%xmm7, 8(%rax)
	jmp	.L1509
.L1582:
	movl	8(%rbp), %eax
	jmp	.L1499
.L1538:
	movq	%rax, %rbx
	jmp	.L1528
.L1537:
	movq	%rax, %rbx
	jmp	.L1535
.L1528:
	testq	%rbp, %rbp
	je	.L1531
	movq	%rbp, %rdi
	call	_ZNSt16_Sp_counted_baseILN9__gnu_cxx12_Lock_policyE2EE10_M_releaseEv@PLT
	movq	%rbp, %rdi
	call	_ZNSt16_Sp_counted_baseILN9__gnu_cxx12_Lock_policyE2EE10_M_releaseEv@PLT
.L1531:
	movq	%rbx, %rdi
	call	_Unwind_Resume@PLT
.LEHE43:
.L1535:
	movq	40(%rsp), %rdi
	testq	%rdi, %rdi
	je	.L1531
	call	_ZNSt16_Sp_counted_baseILN9__gnu_cxx12_Lock_policyE2EE10_M_releaseEv@PLT
	jmp	.L1531
	.cfi_endproc
.LFE10780:
	.section	.gcc_except_table
.LLSDA10780:
	.byte	0xff
	.byte	0xff
	.byte	0x1
	.uleb128 .LLSDACSE10780-.LLSDACSB10780
.LLSDACSB10780:
	.uleb128 .LEHB41-.LFB10780
	.uleb128 .LEHE41-.LEHB41
	.uleb128 .L1537-.LFB10780
	.uleb128 0
	.uleb128 .LEHB42-.LFB10780
	.uleb128 .LEHE42-.LEHB42
	.uleb128 .L1538-.LFB10780
	.uleb128 0
	.uleb128 .LEHB43-.LFB10780
	.uleb128 .LEHE43-.LEHB43
	.uleb128 0
	.uleb128 0
.LLSDACSE10780:
	.section	.text._ZNSt17_Function_handlerIFvvEZN8asiodnp39StackBase15PerformShutdownINS1_15OutstationStackEEEvRKSt10shared_ptrIT_EEUlvE_E9_M_invokeERKSt9_Any_data,"axG",@progbits,_ZNSt17_Function_handlerIFvvEZN8asiodnp39StackBase15PerformShutdownINS1_15OutstationStackEEEvRKSt10shared_ptrIT_EEUlvE_E9_M_invokeERKSt9_Any_data,comdat
	.size	_ZNSt17_Function_handlerIFvvEZN8asiodnp39StackBase15PerformShutdownINS1_15OutstationStackEEEvRKSt10shared_ptrIT_EEUlvE_E9_M_invokeERKSt9_Any_data, .-_ZNSt17_Function_handlerIFvvEZN8asiodnp39StackBase15PerformShutdownINS1_15OutstationStackEEEvRKSt10shared_ptrIT_EEUlvE_E9_M_invokeERKSt9_Any_data
	.section	.text.unlikely
	.align 2
.LCOLDB33:
	.text
.LHOTB33:
	.align 2
	.p2align 4
	.globl	_ZN8asiodnp315OutstationStackC2ERKN7openpal6LoggerERKSt10shared_ptrIN7asiopal8ExecutorEERKS5_IN8opendnp315ICommandHandlerEERKS5_INSB_22IOutstationApplicationEERKS5_INS_9IOHandlerEERKS5_INS6_16IResourceManagerEERKNS_21OutstationStackConfigE
	.type	_ZN8asiodnp315OutstationStackC2ERKN7openpal6LoggerERKSt10shared_ptrIN7asiopal8ExecutorEERKS5_IN8opendnp315ICommandHandlerEERKS5_INSB_22IOutstationApplicationEERKS5_INS_9IOHandlerEERKS5_INS6_16IResourceManagerEERKNS_21OutstationStackConfigE, @function
_ZN8asiodnp315OutstationStackC2ERKN7openpal6LoggerERKSt10shared_ptrIN7asiopal8ExecutorEERKS5_IN8opendnp315ICommandHandlerEERKS5_INSB_22IOutstationApplicationEERKS5_INS_9IOHandlerEERKS5_INS6_16IResourceManagerEERKNS_21OutstationStackConfigE:
.LFB8444:
	.cfi_startproc
	.cfi_personality 0x9b,DW.ref.__gxx_personality_v0
	.cfi_lsda 0x1b,.LLSDA8444
	pushq	%rbp
	.cfi_def_cfa_offset 16
	.cfi_offset 6, -16
	movq	%rdx, %r10
	movq	%rsp, %rbp
	.cfi_def_cfa_register 6
	pushq	%r15
	pushq	%r14
	.cfi_offset 15, -24
	.cfi_offset 14, -32
	movq	%r8, %r14
	pushq	%r13
	.cfi_offset 13, -40
	movq	%rsi, %r13
	pushq	%r12
	pushq	%rbx
	.cfi_offset 12, -48
	.cfi_offset 3, -56
	movq	%rdi, %rbx
	subq	$216, %rsp
	movq	_ZTVN8asiodnp315OutstationStackE@GOTPCREL(%rip), %rax
	movq	24(%rbp), %r15
	movq	%rcx, -216(%rbp)
	movq	$0, 32(%rdi)
	leaq	144(%rax), %rdx
	leaq	16(%rax), %rcx
	movq	%rdx, %xmm2
	movq	_ZTVN8opendnp312ILinkSessionE@GOTPCREL(%rip), %rdx
	movq	%rcx, %xmm1
	movq	_ZTVN8asiodnp311IOutstationE@GOTPCREL(%rip), %rcx
	punpcklqdq	%xmm2, %xmm1
	addq	$16, %rdx
	leaq	16(%rcx), %rax
	movaps	%xmm1, -208(%rbp)
	movq	%rdx, %xmm3
	movq	_ZTVN8opendnp37ILinkTxE@GOTPCREL(%rip), %rdx
	movq	%rax, %xmm0
	leaq	40(%rdi), %rax
	punpcklqdq	%xmm3, %xmm0
	movq	%rax, -240(%rbp)
	addq	$16, %rdx
	movups	%xmm0, (%rdi)
	movq	%rdx, %xmm0
	movups	%xmm0, 16(%rdi)
	movdqu	(%r14), %xmm0
	movl	252(%r15), %r8d
	movhlps	%xmm0, %xmm4
	movaps	%xmm0, -192(%rbp)
	movq	%xmm4, %rdx
	testq	%rdx, %rdx
	je	.L1584
	movq	__libc_single_threaded@GOTPCREL(%rip), %rdi
	cmpb	$0, (%rdi)
	je	.L1585
	addl	$1, 8(%rdx)
.L1584:
	movdqu	0(%r13), %xmm0
	movhlps	%xmm0, %xmm5
	movups	%xmm0, 40(%rbx)
	movq	%xmm5, %rdx
	testq	%rdx, %rdx
	je	.L1586
	movq	__libc_single_threaded@GOTPCREL(%rip), %rdi
	cmpb	$0, (%rdi)
	je	.L1587
	addl	$1, 8(%rdx)
.L1586:
	movdqu	16(%r13), %xmm0
	movhlps	%xmm0, %xmm6
	movups	%xmm0, 56(%rbx)
	movq	%xmm6, %rdx
	testq	%rdx, %rdx
	je	.L1588
	movq	__libc_single_threaded@GOTPCREL(%rip), %rdi
	cmpb	$0, (%rdi)
	je	.L1589
	addl	$1, 8(%rdx)
.L1588:
	movdqu	(%r10), %xmm0
	movhlps	%xmm0, %xmm7
	movups	%xmm0, 72(%rbx)
	movq	%xmm7, %rdx
	testq	%rdx, %rdx
	je	.L1590
	movq	__libc_single_threaded@GOTPCREL(%rip), %rdi
	cmpb	$0, (%rdi)
	je	.L1591
	addl	$1, 8(%rdx)
.L1590:
	movdqu	(%r9), %xmm0
	movhlps	%xmm0, %xmm2
	movups	%xmm0, 88(%rbx)
	movq	%xmm2, %rdx
	testq	%rdx, %rdx
	je	.L1592
	movq	__libc_single_threaded@GOTPCREL(%rip), %rdi
	cmpb	$0, (%rdi)
	je	.L1593
	addl	$1, 8(%rdx)
.L1592:
	movq	16(%rbp), %rdx
	movdqu	(%rdx), %xmm0
	movhlps	%xmm0, %xmm3
	movups	%xmm0, 104(%rbx)
	movq	%xmm3, %rdx
	testq	%rdx, %rdx
	je	.L1594
	movq	__libc_single_threaded@GOTPCREL(%rip), %rdi
	cmpb	$0, (%rdi)
	je	.L1595
	addl	$1, 8(%rdx)
.L1594:
	movdqu	(%r10), %xmm0
	leaq	120(%rbx), %rdi
	movhlps	%xmm0, %xmm4
	movaps	%xmm0, -176(%rbp)
	movq	%xmm4, %rdx
	testq	%rdx, %rdx
	je	.L1596
	movq	__libc_single_threaded@GOTPCREL(%rip), %r9
	cmpb	$0, (%r9)
	je	.L1597
	addl	$1, 8(%rdx)
.L1596:
	leaq	-192(%rbp), %rax
	leaq	-176(%rbp), %r12
	movq	%r13, %rsi
	movq	%r10, -232(%rbp)
	leaq	280(%r15), %r9
	movq	%rax, %rcx
	movq	%r12, %rdx
	movq	%rax, -224(%rbp)
.LEHB44:
	call	_ZN8opendnp314TransportStackC1ERKN7openpal6LoggerERKSt10shared_ptrINS1_9IExecutorEERKS5_INS_13ILinkListenerEEjRKNS_10LinkConfigE@PLT
.LEHE44:
	movq	-168(%rbp), %rdi
	movq	-232(%rbp), %r10
	testq	%rdi, %rdi
	je	.L1599
	movq	8(%rdi), %rcx
	leaq	8(%rdi), %r8
	movabsq	$4294967297, %rdx
	cmpq	%rdx, %rcx
	je	.L1744
	movq	__libc_single_threaded@GOTPCREL(%rip), %rdx
	cmpb	$0, (%rdx)
	je	.L1601
	movl	8(%rdi), %edx
	leal	-1(%rdx), %ecx
	movl	%ecx, 8(%rdi)
.L1602:
	cmpl	$1, %edx
	je	.L1745
.L1599:
	movq	-184(%rbp), %rdi
	testq	%rdi, %rdi
	je	.L1605
	movq	8(%rdi), %rcx
	leaq	8(%rdi), %r8
	movabsq	$4294967297, %rdx
	cmpq	%rdx, %rcx
	je	.L1746
	movq	__libc_single_threaded@GOTPCREL(%rip), %rdx
	cmpb	$0, (%rdx)
	je	.L1614
	movl	8(%rdi), %edx
	leal	-1(%rdx), %ecx
	movl	%ecx, 8(%rdi)
.L1615:
	cmpl	$1, %edx
	je	.L1747
.L1605:
	movq	_ZTVN8asiodnp315OutstationStackE@GOTPCREL(%rip), %rax
	movdqa	-208(%rbp), %xmm5
	leaq	208(%rax), %rdx
	leaq	152(%rbx), %rax
	movups	%xmm5, (%rbx)
	movq	%rdx, 16(%rbx)
	movq	120(%rbx), %rdx
	movq	%rax, -208(%rbp)
	leaq	8(%rdx), %rcx
	testq	%rdx, %rdx
	cmovne	%rcx, %rdx
	movq	128(%rbx), %rcx
	movq	%rdx, %xmm0
	movq	%rcx, %xmm6
	punpcklqdq	%xmm6, %xmm0
	movaps	%xmm0, -176(%rbp)
	testq	%rcx, %rcx
	je	.L1618
	movq	__libc_single_threaded@GOTPCREL(%rip), %rdx
	cmpb	$0, (%rdx)
	je	.L1619
	addl	$1, 8(%rcx)
.L1618:
	movdqu	(%r10), %xmm0
	movhlps	%xmm0, %xmm7
	movaps	%xmm0, -192(%rbp)
	movq	%xmm7, %rdx
	testq	%rdx, %rdx
	je	.L1620
	movq	__libc_single_threaded@GOTPCREL(%rip), %rcx
	cmpb	$0, (%rcx)
	je	.L1621
	addl	$1, 8(%rdx)
.L1620:
	pushq	%r14
	movq	-224(%rbp), %r8
	movq	%r12, %r9
	movq	%r13, %rcx
	pushq	-216(%rbp)
	movq	-208(%rbp), %rdi
	movq	%r15, %rdx
	leaq	208(%r15), %rsi
.LEHB45:
	.cfi_escape 0x2e,0x10
	call	_ZN8opendnp38OContextC1ERKNS_16OutstationConfigERKNS_13DatabaseSizesERKN7openpal6LoggerERKSt10shared_ptrINS7_9IExecutorEERKSB_INS_11ILowerLayerEERKSB_INS_15ICommandHandlerEERKSB_INS_22IOutstationApplicationEE@PLT
.LEHE45:
	movq	-184(%rbp), %r13
	popq	%rax
	popq	%rdx
	testq	%r13, %r13
	je	.L1623
	movq	8(%r13), %rdx
	leaq	8(%r13), %rcx
	movabsq	$4294967297, %rax
	cmpq	%rax, %rdx
	je	.L1748
	movq	__libc_single_threaded@GOTPCREL(%rip), %rax
	cmpb	$0, (%rax)
	je	.L1625
	movl	8(%r13), %eax
	leal	-1(%rax), %edx
	movl	%edx, 8(%r13)
.L1626:
	cmpl	$1, %eax
	je	.L1749
.L1623:
	movq	-168(%rbp), %r13
	testq	%r13, %r13
	je	.L1629
	movq	8(%r13), %rdx
	leaq	8(%r13), %rcx
	movabsq	$4294967297, %rax
	cmpq	%rax, %rdx
	je	.L1750
	movq	__libc_single_threaded@GOTPCREL(%rip), %rax
	cmpb	$0, (%rax)
	je	.L1631
	movl	8(%r13), %eax
	leal	-1(%rax), %edx
	movl	%edx, 8(%r13)
.L1632:
	cmpl	$1, %eax
	je	.L1751
.L1629:
	movq	-208(%rbp), %r14
	movq	120(%rbx), %rdi
	movq	%r14, %rsi
.LEHB46:
	.cfi_escape 0x2e,0
	call	_ZN8opendnp314TransportLayer11SetAppLayerERNS_11IUpperLayerE@PLT
	movq	%r14, %rsi
	movq	%r12, %rdi
	call	_ZN8opendnp38OContext13GetConfigViewEv@PLT
.LEHE46:
	movzwl	-160(%rbp), %r14d
	movzwl	-176(%rbp), %r9d
	movzwl	-144(%rbp), %r11d
	movzwl	-128(%rbp), %r10d
	movzwl	-112(%rbp), %r8d
	movzwl	-96(%rbp), %edi
	movl	%r14d, %eax
	movzwl	-80(%rbp), %esi
	movzwl	-64(%rbp), %ecx
	testw	%r9w, %r9w
	je	.L1634
	subl	$1, %r9d
	movq	-168(%rbp), %rbx
	movq	32(%r15), %rdx
	imulq	$112, %r9, %r9
	leaq	24(%rbx), %rax
	leaq	136(%rbx,%r9), %rbx
	.p2align 5
	.p2align 4
	.p2align 3
.L1635:
	movl	(%rdx), %r9d
	addq	$112, %rax
	addq	$6, %rdx
	movl	%r9d, -112(%rax)
	movzbl	-2(%rdx), %r9d
	movb	%r9b, -108(%rax)
	cmpq	%rbx, %rax
	jne	.L1635
	movl	%r14d, %eax
.L1634:
	testw	%ax, %ax
	je	.L1636
	movzwl	%ax, %r14d
	movq	-152(%rbp), %rbx
	movq	56(%r15), %rdx
	leal	-1(%r14), %r9d
	imulq	$112, %r9, %r9
	leaq	24(%rbx), %rax
	leaq	136(%rbx,%r9), %rbx
	.p2align 5
	.p2align 4
	.p2align 3
.L1637:
	movl	(%rdx), %r9d
	addq	$112, %rax
	addq	$6, %rdx
	movl	%r9d, -112(%rax)
	movzbl	-2(%rdx), %r9d
	movb	%r9b, -108(%rax)
	cmpq	%rbx, %rax
	jne	.L1637
.L1636:
	testw	%r11w, %r11w
	je	.L1638
	leal	-1(%r11), %r9d
	movq	-136(%rbp), %rbx
	movq	80(%r15), %rdx
	imulq	$120, %r9, %r9
	leaq	24(%rbx), %rax
	leaq	144(%rbx,%r9), %r9
	.p2align 5
	.p2align 4
	.p2align 3
.L1639:
	movdqu	(%rdx), %xmm0
	addq	$120, %rax
	addq	$16, %rdx
	movups	%xmm0, -120(%rax)
	cmpq	%r9, %rax
	jne	.L1639
.L1638:
	testw	%r10w, %r10w
	je	.L1640
	leal	-1(%r10), %r9d
	movq	-120(%rbp), %r11
	movq	104(%r15), %rdx
	imulq	$120, %r9, %r9
	leaq	24(%r11), %rax
	leaq	144(%r11,%r9), %r10
	.p2align 5
	.p2align 4
	.p2align 3
.L1641:
	movq	(%rdx), %r9
	addq	$120, %rax
	addq	$12, %rdx
	movq	%r9, -120(%rax)
	movl	-4(%rdx), %r9d
	movl	%r9d, -112(%rax)
	cmpq	%r10, %rax
	jne	.L1641
.L1640:
	testw	%r8w, %r8w
	je	.L1642
	subl	$1, %r8d
	movq	-104(%rbp), %r9
	movq	128(%r15), %rdx
	imulq	$120, %r8, %r8
	leaq	24(%r9), %rax
	leaq	144(%r9,%r8), %r9
	.p2align 5
	.p2align 4
	.p2align 3
.L1643:
	movq	(%rdx), %r8
	addq	$120, %rax
	addq	$12, %rdx
	movq	%r8, -120(%rax)
	movl	-4(%rdx), %r8d
	movl	%r8d, -112(%rax)
	cmpq	%r9, %rax
	jne	.L1643
.L1642:
	testw	%di, %di
	je	.L1644
	subl	$1, %edi
	movq	-88(%rbp), %r8
	movq	152(%r15), %rdx
	imulq	$112, %rdi, %rdi
	leaq	24(%r8), %rax
	leaq	136(%r8,%rdi), %r8
	.p2align 5
	.p2align 4
	.p2align 3
.L1645:
	movl	(%rdx), %edi
	addq	$112, %rax
	addq	$6, %rdx
	movl	%edi, -112(%rax)
	movzbl	-2(%rdx), %edi
	movb	%dil, -108(%rax)
	cmpq	%r8, %rax
	jne	.L1645
.L1644:
	testw	%si, %si
	je	.L1646
	subl	$1, %esi
	movq	-72(%rbp), %rdi
	movq	176(%r15), %rdx
	imulq	$120, %rsi, %rsi
	leaq	24(%rdi), %rax
	leaq	144(%rdi,%rsi), %rsi
	.p2align 5
	.p2align 4
	.p2align 3
.L1647:
	movdqu	(%rdx), %xmm0
	addq	$120, %rax
	addq	$16, %rdx
	movups	%xmm0, -120(%rax)
	cmpq	%rax, %rsi
	jne	.L1647
.L1646:
	testw	%cx, %cx
	je	.L1583
	movq	200(%r15), %rax
	movq	-56(%rbp), %rbx
	leaq	(%rax,%rcx,4), %rsi
	leaq	16(%rbx), %rdx
	.p2align 5
	.p2align 4
	.p2align 3
.L1649:
	movzwl	(%rax), %ecx
	addq	$4, %rax
	addq	$56, %rdx
	movw	%cx, -56(%rdx)
	movzbl	-2(%rax), %ecx
	movb	%cl, -54(%rdx)
	cmpq	%rax, %rsi
	jne	.L1649
.L1583:
	leaq	-40(%rbp), %rsp
	popq	%rbx
	popq	%r12
	popq	%r13
	popq	%r14
	popq	%r15
	popq	%rbp
	.cfi_remember_state
	.cfi_def_cfa 7, 8
	ret
	.p2align 4,,10
	.p2align 3
.L1597:
	.cfi_restore_state
	lock addl	$1, 8(%rdx)
	jmp	.L1596
	.p2align 4,,10
	.p2align 3
.L1585:
	lock addl	$1, 8(%rdx)
	jmp	.L1584
	.p2align 4,,10
	.p2align 3
.L1619:
	lock addl	$1, 8(%rcx)
	jmp	.L1618
	.p2align 4,,10
	.p2align 3
.L1595:
	lock addl	$1, 8(%rdx)
	jmp	.L1594
	.p2align 4,,10
	.p2align 3
.L1621:
	lock addl	$1, 8(%rdx)
	jmp	.L1620
	.p2align 4,,10
	.p2align 3
.L1593:
	lock addl	$1, 8(%rdx)
	jmp	.L1592
	.p2align 4,,10
	.p2align 3
.L1591:
	lock addl	$1, 8(%rdx)
	jmp	.L1590
	.p2align 4,,10
	.p2align 3
.L1589:
	lock addl	$1, 8(%rdx)
	jmp	.L1588
	.p2align 4,,10
	.p2align 3
.L1587:
	lock addl	$1, 8(%rdx)
	jmp	.L1586
	.p2align 4,,10
	.p2align 3
.L1750:
	movq	0(%r13), %rax
	movq	%r13, %rdi
	movq	$0, 8(%r13)
	call	*16(%rax)
	movq	0(%r13), %rax
	movq	%r13, %rdi
	call	*24(%rax)
	jmp	.L1629
	.p2align 4,,10
	.p2align 3
.L1744:
	movq	(%rdi), %rdx
	movq	%r10, -248(%rbp)
	movq	$0, 8(%rdi)
	movq	%rdi, -232(%rbp)
	call	*16(%rdx)
	movq	-232(%rbp), %rdi
	movq	(%rdi), %rdx
	call	*24(%rdx)
	movq	-248(%rbp), %r10
	jmp	.L1599
	.p2align 4,,10
	.p2align 3
.L1746:
	movq	(%rdi), %rdx
	movq	%r10, -248(%rbp)
	movq	$0, 8(%rdi)
	movq	%rdi, -232(%rbp)
	call	*16(%rdx)
	movq	-232(%rbp), %rdi
	movq	(%rdi), %rdx
	call	*24(%rdx)
	movq	-248(%rbp), %r10
	jmp	.L1605
	.p2align 4,,10
	.p2align 3
.L1748:
	movq	0(%r13), %rax
	movq	%r13, %rdi
	movq	$0, 8(%r13)
	call	*16(%rax)
	movq	0(%r13), %rax
	movq	%r13, %rdi
	call	*24(%rax)
	jmp	.L1623
	.p2align 4,,10
	.p2align 3
.L1631:
	movl	$-1, %eax
	lock xaddl	%eax, (%rcx)
	jmp	.L1632
	.p2align 4,,10
	.p2align 3
.L1614:
	movl	$-1, %edx
	lock xaddl	%edx, (%r8)
	jmp	.L1615
	.p2align 4,,10
	.p2align 3
.L1625:
	movl	$-1, %eax
	lock xaddl	%eax, (%rcx)
	jmp	.L1626
	.p2align 4,,10
	.p2align 3
.L1601:
	movl	$-1, %edx
	lock xaddl	%edx, (%r8)
	jmp	.L1602
.L1745:
	movq	%r10, -232(%rbp)
	call	_ZNSt16_Sp_counted_baseILN9__gnu_cxx12_Lock_policyE2EE24_M_release_last_use_coldEv@PLT
	movq	-232(%rbp), %r10
	jmp	.L1599
.L1751:
	movq	%r13, %rdi
	call	_ZNSt16_Sp_counted_baseILN9__gnu_cxx12_Lock_policyE2EE24_M_release_last_use_coldEv@PLT
	jmp	.L1629
.L1749:
	movq	%r13, %rdi
	call	_ZNSt16_Sp_counted_baseILN9__gnu_cxx12_Lock_policyE2EE24_M_release_last_use_coldEv@PLT
	jmp	.L1623
.L1747:
	movq	%r10, -232(%rbp)
	call	_ZNSt16_Sp_counted_baseILN9__gnu_cxx12_Lock_policyE2EE24_M_release_last_use_coldEv@PLT
	movq	-232(%rbp), %r10
	jmp	.L1605
.L1661:
	movq	%rax, %r14
	jmp	.L1651
.L1663:
	movq	%rax, %r14
	jmp	.L1606
.L1662:
	jmp	.L1655
	.section	.gcc_except_table
.LLSDA8444:
	.byte	0xff
	.byte	0xff
	.byte	0x1
	.uleb128 .LLSDACSE8444-.LLSDACSB8444
.LLSDACSB8444:
	.uleb128 .LEHB44-.LFB8444
	.uleb128 .LEHE44-.LEHB44
	.uleb128 .L1663-.LFB8444
	.uleb128 0
	.uleb128 .LEHB45-.LFB8444
	.uleb128 .LEHE45-.LEHB45
	.uleb128 .L1661-.LFB8444
	.uleb128 0
	.uleb128 .LEHB46-.LFB8444
	.uleb128 .LEHE46-.LEHB46
	.uleb128 .L1662-.LFB8444
	.uleb128 0
.LLSDACSE8444:
	.text
	.cfi_endproc
	.section	.text.unlikely
	.cfi_startproc
	.cfi_personality 0x9b,DW.ref.__gxx_personality_v0
	.cfi_lsda 0x1b,.LLSDAC8444
	.type	_ZN8asiodnp315OutstationStackC2ERKN7openpal6LoggerERKSt10shared_ptrIN7asiopal8ExecutorEERKS5_IN8opendnp315ICommandHandlerEERKS5_INSB_22IOutstationApplicationEERKS5_INS_9IOHandlerEERKS5_INS6_16IResourceManagerEERKNS_21OutstationStackConfigE.cold, @function
_ZN8asiodnp315OutstationStackC2ERKN7openpal6LoggerERKSt10shared_ptrIN7asiopal8ExecutorEERKS5_IN8opendnp315ICommandHandlerEERKS5_INSB_22IOutstationApplicationEERKS5_INS_9IOHandlerEERKS5_INS6_16IResourceManagerEERKNS_21OutstationStackConfigE.cold:
.LFSB8444:
.L1651:
	.cfi_def_cfa 6, 16
	.cfi_offset 3, -56
	.cfi_offset 6, -16
	.cfi_offset 12, -48
	.cfi_offset 13, -40
	.cfi_offset 14, -32
	.cfi_offset 15, -24
	movq	-184(%rbp), %rdi
	testq	%rdi, %rdi
	je	.L1652
	call	_ZNSt16_Sp_counted_baseILN9__gnu_cxx12_Lock_policyE2EE10_M_releaseEv@PLT
.L1652:
	movq	-168(%rbp), %rdi
	testq	%rdi, %rdi
	je	.L1654
	call	_ZNSt16_Sp_counted_baseILN9__gnu_cxx12_Lock_policyE2EE10_M_releaseEv@PLT
	jmp	.L1654
.L1606:
	movq	-168(%rbp), %rdi
	testq	%rdi, %rdi
	je	.L1607
	call	_ZNSt16_Sp_counted_baseILN9__gnu_cxx12_Lock_policyE2EE10_M_releaseEv@PLT
.L1607:
	movq	112(%rbx), %rdi
	testq	%rdi, %rdi
	je	.L1608
	call	_ZNSt16_Sp_counted_baseILN9__gnu_cxx12_Lock_policyE2EE10_M_releaseEv@PLT
.L1608:
	movq	96(%rbx), %rdi
	testq	%rdi, %rdi
	je	.L1609
	call	_ZNSt16_Sp_counted_baseILN9__gnu_cxx12_Lock_policyE2EE10_M_releaseEv@PLT
.L1609:
	movq	80(%rbx), %rdi
	testq	%rdi, %rdi
	je	.L1610
	call	_ZNSt16_Sp_counted_baseILN9__gnu_cxx12_Lock_policyE2EE10_M_releaseEv@PLT
.L1610:
	movq	-240(%rbp), %rdi
	call	_ZN7openpal6LoggerD1Ev@PLT
	movq	-184(%rbp), %rdi
	testq	%rdi, %rdi
	je	.L1650
	call	_ZNSt16_Sp_counted_baseILN9__gnu_cxx12_Lock_policyE2EE10_M_releaseEv@PLT
	jmp	.L1650
.L1655:
	movq	-208(%rbp), %rdi
	movq	%rax, %r14
	call	_ZN8opendnp38OContextD1Ev@PLT
.L1654:
	movq	-240(%rbp), %rdi
	call	_ZN8asiodnp39StackBaseD2Ev@PLT
.L1650:
	movq	32(%rbx), %rdi
	testq	%rdi, %rdi
	je	.L1657
	movq	__libc_single_threaded@GOTPCREL(%rip), %rax
	cmpb	$0, (%rax)
	je	.L1658
	movl	12(%rdi), %eax
	leal	-1(%rax), %edx
	movl	%edx, 12(%rdi)
.L1659:
	subl	$1, %eax
	je	.L1752
.L1657:
	movq	%r14, %rdi
.LEHB47:
	call	_Unwind_Resume@PLT
.LEHE47:
.L1658:
	movl	$-1, %eax
	lock xaddl	%eax, 12(%rdi)
	jmp	.L1659
.L1752:
	movq	(%rdi), %rax
	call	*24(%rax)
	jmp	.L1657
	.cfi_endproc
.LFE8444:
	.section	.gcc_except_table
.LLSDAC8444:
	.byte	0xff
	.byte	0xff
	.byte	0x1
	.uleb128 .LLSDACSEC8444-.LLSDACSBC8444
.LLSDACSBC8444:
	.uleb128 .LEHB47-.LCOLDB33
	.uleb128 .LEHE47-.LEHB47
	.uleb128 0
	.uleb128 0
.LLSDACSEC8444:
	.section	.text.unlikely
	.text
	.size	_ZN8asiodnp315OutstationStackC2ERKN7openpal6LoggerERKSt10shared_ptrIN7asiopal8ExecutorEERKS5_IN8opendnp315ICommandHandlerEERKS5_INSB_22IOutstationApplicationEERKS5_INS_9IOHandlerEERKS5_INS6_16IResourceManagerEERKNS_21OutstationStackConfigE, .-_ZN8asiodnp315OutstationStackC2ERKN7openpal6LoggerERKSt10shared_ptrIN7asiopal8ExecutorEERKS5_IN8opendnp315ICommandHandlerEERKS5_INSB_22IOutstationApplicationEERKS5_INS_9IOHandlerEERKS5_INS6_16IResourceManagerEERKNS_21OutstationStackConfigE
	.section	.text.unlikely
	.size	_ZN8asiodnp315OutstationStackC2ERKN7openpal6LoggerERKSt10shared_ptrIN7asiopal8ExecutorEERKS5_IN8opendnp315ICommandHandlerEERKS5_INSB_22IOutstationApplicationEERKS5_INS_9IOHandlerEERKS5_INS6_16IResourceManagerEERKNS_21OutstationStackConfigE.cold, .-_ZN8asiodnp315OutstationStackC2ERKN7openpal6LoggerERKSt10shared_ptrIN7asiopal8ExecutorEERKS5_IN8opendnp315ICommandHandlerEERKS5_INSB_22IOutstationApplicationEERKS5_INS_9IOHandlerEERKS5_INS6_16IResourceManagerEERKNS_21OutstationStackConfigE.cold
.LCOLDE33:
	.text
.LHOTE33:
	.globl	_ZN8asiodnp315OutstationStackC1ERKN7openpal6LoggerERKSt10shared_ptrIN7asiopal8ExecutorEERKS5_IN8opendnp315ICommandHandlerEERKS5_INSB_22IOutstationApplicationEERKS5_INS_9IOHandlerEERKS5_INS6_16IResourceManagerEERKNS_21OutstationStackConfigE
	.set	_ZN8asiodnp315OutstationStackC1ERKN7openpal6LoggerERKSt10shared_ptrIN7asiopal8ExecutorEERKS5_IN8opendnp315ICommandHandlerEERKS5_INSB_22IOutstationApplicationEERKS5_INS_9IOHandlerEERKS5_INS6_16IResourceManagerEERKNS_21OutstationStackConfigE,_ZN8asiodnp315OutstationStackC2ERKN7openpal6LoggerERKSt10shared_ptrIN7asiopal8ExecutorEERKS5_IN8opendnp315ICommandHandlerEERKS5_INSB_22IOutstationApplicationEERKS5_INS_9IOHandlerEERKS5_INS6_16IResourceManagerEERKNS_21OutstationStackConfigE
	.section	.text._ZN8asiodnp315OutstationStackD2Ev,"axG",@progbits,_ZN8asiodnp315OutstationStackD5Ev,comdat
	.align 2
	.p2align 4
	.weak	_ZN8asiodnp315OutstationStackD2Ev
	.type	_ZN8asiodnp315OutstationStackD2Ev, @function
_ZN8asiodnp315OutstationStackD2Ev:
.LFB11879:
	.cfi_startproc
	pushq	%rbx
	.cfi_def_cfa_offset 16
	.cfi_offset 3, -16
	movq	%rdi, %rbx
	subq	$16, %rsp
	.cfi_def_cfa_offset 32
	movq	_ZTVN8asiodnp315OutstationStackE@GOTPCREL(%rip), %rax
	leaq	144(%rax), %rdx
	leaq	16(%rax), %rsi
	addq	$208, %rax
	movq	%rax, 16(%rdi)
	movq	_ZTVN8opendnp38OContextE@GOTPCREL(%rip), %rax
	movq	%rsi, %xmm0
	movq	%rdx, %xmm1
	punpcklqdq	%xmm1, %xmm0
	addq	$16, %rax
	movups	%xmm0, (%rdi)
	movq	%rax, 152(%rdi)
	movq	1088(%rdi), %rdi
	testq	%rdi, %rdi
	je	.L1754
	call	_ZdaPv@PLT
.L1754:
	movq	1032(%rbx), %rdi
	testq	%rdi, %rdi
	je	.L1755
	call	_ZdaPv@PLT
.L1755:
	movq	952(%rbx), %rdi
	testq	%rdi, %rdi
	je	.L1756
	call	_ZdaPv@PLT
.L1756:
	leaq	880(%rbx), %rdi
	call	_ZN7openpal8TimerRefD1Ev@PLT
	movq	744(%rbx), %rdi
	testq	%rdi, %rdi
	je	.L1757
	call	_ZdaPv@PLT
.L1757:
	movq	720(%rbx), %rdi
	testq	%rdi, %rdi
	je	.L1758
	call	_ZdaPv@PLT
.L1758:
	movq	696(%rbx), %rdi
	testq	%rdi, %rdi
	je	.L1759
	call	_ZdaPv@PLT
.L1759:
	movq	672(%rbx), %rdi
	testq	%rdi, %rdi
	je	.L1760
	call	_ZdaPv@PLT
.L1760:
	movq	648(%rbx), %rdi
	testq	%rdi, %rdi
	je	.L1761
	call	_ZdaPv@PLT
.L1761:
	movq	624(%rbx), %rdi
	testq	%rdi, %rdi
	je	.L1762
	call	_ZdaPv@PLT
.L1762:
	movq	600(%rbx), %rdi
	testq	%rdi, %rdi
	je	.L1763
	call	_ZdaPv@PLT
.L1763:
	movq	576(%rbx), %rdi
	testq	%rdi, %rdi
	je	.L1764
	call	_ZdaPv@PLT
.L1764:
	movq	360(%rbx), %rdi
	testq	%rdi, %rdi
	je	.L1765
	call	_ZdaPv@PLT
.L1765:
	movq	248(%rbx), %rdi
	testq	%rdi, %rdi
	je	.L1767
	movq	8(%rdi), %rdx
	leaq	8(%rdi), %rcx
	movabsq	$4294967297, %rax
	cmpq	%rax, %rdx
	je	.L1886
	movq	__libc_single_threaded@GOTPCREL(%rip), %rax
	cmpb	$0, (%rax)
	je	.L1769
	movl	8(%rdi), %eax
	leal	-1(%rax), %edx
	movl	%edx, 8(%rdi)
.L1770:
	cmpl	$1, %eax
	je	.L1887
.L1767:
	movq	232(%rbx), %rdi
	testq	%rdi, %rdi
	je	.L1773
	movq	8(%rdi), %rdx
	leaq	8(%rdi), %rcx
	movabsq	$4294967297, %rax
	cmpq	%rax, %rdx
	je	.L1888
	movq	__libc_single_threaded@GOTPCREL(%rip), %rax
	cmpb	$0, (%rax)
	je	.L1775
	movl	8(%rdi), %eax
	leal	-1(%rax), %edx
	movl	%edx, 8(%rdi)
.L1776:
	cmpl	$1, %eax
	je	.L1889
.L1773:
	movq	216(%rbx), %rdi
	testq	%rdi, %rdi
	je	.L1779
	movq	8(%rdi), %rdx
	leaq	8(%rdi), %rcx
	movabsq	$4294967297, %rax
	cmpq	%rax, %rdx
	je	.L1890
	movq	__libc_single_threaded@GOTPCREL(%rip), %rax
	cmpb	$0, (%rax)
	je	.L1781
	movl	8(%rdi), %eax
	leal	-1(%rax), %edx
	movl	%edx, 8(%rdi)
.L1782:
	cmpl	$1, %eax
	je	.L1891
.L1779:
	movq	200(%rbx), %rdi
	testq	%rdi, %rdi
	je	.L1785
	movq	8(%rdi), %rdx
	leaq	8(%rdi), %rcx
	movabsq	$4294967297, %rax
	cmpq	%rax, %rdx
	je	.L1892
	movq	__libc_single_threaded@GOTPCREL(%rip), %rax
	cmpb	$0, (%rax)
	je	.L1787
	movl	8(%rdi), %eax
	leal	-1(%rax), %edx
	movl	%edx, 8(%rdi)
.L1788:
	cmpl	$1, %eax
	je	.L1893
.L1785:
	movq	184(%rbx), %rdi
	testq	%rdi, %rdi
	je	.L1791
	movq	8(%rdi), %rdx
	leaq	8(%rdi), %rcx
	movabsq	$4294967297, %rax
	cmpq	%rax, %rdx
	je	.L1894
	movq	__libc_single_threaded@GOTPCREL(%rip), %rax
	cmpb	$0, (%rax)
	je	.L1793
	movl	8(%rdi), %eax
	leal	-1(%rax), %edx
	movl	%edx, 8(%rdi)
.L1794:
	cmpl	$1, %eax
	je	.L1895
.L1791:
	movq	168(%rbx), %rdi
	testq	%rdi, %rdi
	je	.L1797
	movq	8(%rdi), %rdx
	leaq	8(%rdi), %rcx
	movabsq	$4294967297, %rax
	cmpq	%rax, %rdx
	je	.L1896
	movq	__libc_single_threaded@GOTPCREL(%rip), %rax
	cmpb	$0, (%rax)
	je	.L1799
	movl	8(%rdi), %eax
	leal	-1(%rax), %edx
	movl	%edx, 8(%rdi)
.L1800:
	cmpl	$1, %eax
	je	.L1897
.L1797:
	movq	144(%rbx), %rdi
	testq	%rdi, %rdi
	je	.L1803
	movq	8(%rdi), %rdx
	leaq	8(%rdi), %rcx
	movabsq	$4294967297, %rax
	cmpq	%rax, %rdx
	je	.L1898
	movq	__libc_single_threaded@GOTPCREL(%rip), %rax
	cmpb	$0, (%rax)
	je	.L1805
	movl	8(%rdi), %eax
	leal	-1(%rax), %edx
	movl	%edx, 8(%rdi)
.L1806:
	cmpl	$1, %eax
	je	.L1899
.L1803:
	movq	128(%rbx), %rdi
	testq	%rdi, %rdi
	je	.L1809
	movq	8(%rdi), %rdx
	leaq	8(%rdi), %rcx
	movabsq	$4294967297, %rax
	cmpq	%rax, %rdx
	je	.L1900
	movq	__libc_single_threaded@GOTPCREL(%rip), %rax
	cmpb	$0, (%rax)
	je	.L1811
	movl	8(%rdi), %eax
	leal	-1(%rax), %edx
	movl	%edx, 8(%rdi)
.L1812:
	cmpl	$1, %eax
	je	.L1901
.L1809:
	movq	112(%rbx), %rdi
	testq	%rdi, %rdi
	je	.L1815
	movq	8(%rdi), %rdx
	leaq	8(%rdi), %rcx
	movabsq	$4294967297, %rax
	cmpq	%rax, %rdx
	je	.L1902
	movq	__libc_single_threaded@GOTPCREL(%rip), %rax
	cmpb	$0, (%rax)
	je	.L1817
	movl	8(%rdi), %eax
	leal	-1(%rax), %edx
	movl	%edx, 8(%rdi)
.L1818:
	cmpl	$1, %eax
	je	.L1903
.L1815:
	movq	96(%rbx), %rdi
	testq	%rdi, %rdi
	je	.L1821
	movq	8(%rdi), %rdx
	leaq	8(%rdi), %rcx
	movabsq	$4294967297, %rax
	cmpq	%rax, %rdx
	je	.L1904
	movq	__libc_single_threaded@GOTPCREL(%rip), %rax
	cmpb	$0, (%rax)
	je	.L1823
	movl	8(%rdi), %eax
	leal	-1(%rax), %edx
	movl	%edx, 8(%rdi)
.L1824:
	cmpl	$1, %eax
	je	.L1905
.L1821:
	movq	80(%rbx), %rdi
	testq	%rdi, %rdi
	je	.L1827
	movq	8(%rdi), %rdx
	leaq	8(%rdi), %rcx
	movabsq	$4294967297, %rax
	cmpq	%rax, %rdx
	je	.L1906
	movq	__libc_single_threaded@GOTPCREL(%rip), %rax
	cmpb	$0, (%rax)
	je	.L1829
	movl	8(%rdi), %eax
	leal	-1(%rax), %edx
	movl	%edx, 8(%rdi)
.L1830:
	cmpl	$1, %eax
	je	.L1907
.L1827:
	movq	64(%rbx), %rdi
	testq	%rdi, %rdi
	je	.L1833
	movq	8(%rdi), %rdx
	leaq	8(%rdi), %rcx
	movabsq	$4294967297, %rax
	cmpq	%rax, %rdx
	je	.L1908
	movq	__libc_single_threaded@GOTPCREL(%rip), %rax
	cmpb	$0, (%rax)
	je	.L1835
	movl	8(%rdi), %eax
	leal	-1(%rax), %edx
	movl	%edx, 8(%rdi)
.L1836:
	cmpl	$1, %eax
	je	.L1909
.L1833:
	movq	48(%rbx), %rdi
	testq	%rdi, %rdi
	je	.L1839
	movq	8(%rdi), %rdx
	leaq	8(%rdi), %rcx
	movabsq	$4294967297, %rax
	cmpq	%rax, %rdx
	je	.L1910
	movq	__libc_single_threaded@GOTPCREL(%rip), %rax
	cmpb	$0, (%rax)
	je	.L1841
	movl	8(%rdi), %eax
	leal	-1(%rax), %edx
	movl	%edx, 8(%rdi)
.L1842:
	cmpl	$1, %eax
	je	.L1911
.L1839:
	movq	32(%rbx), %rdi
	testq	%rdi, %rdi
	je	.L1753
	movq	__libc_single_threaded@GOTPCREL(%rip), %rax
	cmpb	$0, (%rax)
	je	.L1846
	movl	12(%rdi), %eax
	leal	-1(%rax), %edx
	movl	%edx, 12(%rdi)
.L1847:
	cmpl	$1, %eax
	je	.L1912
.L1753:
	addq	$16, %rsp
	.cfi_remember_state
	.cfi_def_cfa_offset 16
	popq	%rbx
	.cfi_def_cfa_offset 8
	ret
	.p2align 4,,10
	.p2align 3
.L1912:
	.cfi_restore_state
	movq	(%rdi), %rax
	movq	24(%rax), %rax
	addq	$16, %rsp
	.cfi_remember_state
	.cfi_def_cfa_offset 16
	popq	%rbx
	.cfi_def_cfa_offset 8
	jmp	*%rax
	.p2align 4,,10
	.p2align 3
.L1846:
	.cfi_restore_state
	movl	$-1, %eax
	lock xaddl	%eax, 12(%rdi)
	jmp	.L1847
	.p2align 4,,10
	.p2align 3
.L1886:
	movq	(%rdi), %rax
	movq	%rdi, 8(%rsp)
	movq	$0, 8(%rdi)
	call	*16(%rax)
	movq	8(%rsp), %rdi
	movq	(%rdi), %rax
	call	*24(%rax)
	jmp	.L1767
	.p2align 4,,10
	.p2align 3
.L1888:
	movq	(%rdi), %rax
	movq	%rdi, 8(%rsp)
	movq	$0, 8(%rdi)
	call	*16(%rax)
	movq	8(%rsp), %rdi
	movq	(%rdi), %rax
	call	*24(%rax)
	jmp	.L1773
	.p2align 4,,10
	.p2align 3
.L1890:
	movq	(%rdi), %rax
	movq	%rdi, 8(%rsp)
	movq	$0, 8(%rdi)
	call	*16(%rax)
	movq	8(%rsp), %rdi
	movq	(%rdi), %rax
	call	*24(%rax)
	jmp	.L1779
	.p2align 4,,10
	.p2align 3
.L1904:
	movq	(%rdi), %rax
	movq	%rdi, 8(%rsp)
	movq	$0, 8(%rdi)
	call	*16(%rax)
	movq	8(%rsp), %rdi
	movq	(%rdi), %rax
	call	*24(%rax)
	jmp	.L1821
	.p2align 4,,10
	.p2align 3
.L1906:
	movq	(%rdi), %rax
	movq	%rdi, 8(%rsp)
	movq	$0, 8(%rdi)
	call	*16(%rax)
	movq	8(%rsp), %rdi
	movq	(%rdi), %rax
	call	*24(%rax)
	jmp	.L1827
	.p2align 4,,10
	.p2align 3
.L1892:
	movq	(%rdi), %rax
	movq	%rdi, 8(%rsp)
	movq	$0, 8(%rdi)
	call	*16(%rax)
	movq	8(%rsp), %rdi
	movq	(%rdi), %rax
	call	*24(%rax)
	jmp	.L1785
	.p2align 4,,10
	.p2align 3
.L1894:
	movq	(%rdi), %rax
	movq	%rdi, 8(%rsp)
	movq	$0, 8(%rdi)
	call	*16(%rax)
	movq	8(%rsp), %rdi
	movq	(%rdi), %rax
	call	*24(%rax)
	jmp	.L1791
	.p2align 4,,10
	.p2align 3
.L1900:
	movq	(%rdi), %rax
	movq	%rdi, 8(%rsp)
	movq	$0, 8(%rdi)
	call	*16(%rax)
	movq	8(%rsp), %rdi
	movq	(%rdi), %rax
	call	*24(%rax)
	jmp	.L1809
	.p2align 4,,10
	.p2align 3
.L1902:
	movq	(%rdi), %rax
	movq	%rdi, 8(%rsp)
	movq	$0, 8(%rdi)
	call	*16(%rax)
	movq	8(%rsp), %rdi
	movq	(%rdi), %rax
	call	*24(%rax)
	jmp	.L1815
	.p2align 4,,10
	.p2align 3
.L1896:
	movq	(%rdi), %rax
	movq	%rdi, 8(%rsp)
	movq	$0, 8(%rdi)
	call	*16(%rax)
	movq	8(%rsp), %rdi
	movq	(%rdi), %rax
	call	*24(%rax)
	jmp	.L1797
	.p2align 4,,10
	.p2align 3
.L1898:
	movq	(%rdi), %rax
	movq	%rdi, 8(%rsp)
	movq	$0, 8(%rdi)
	call	*16(%rax)
	movq	8(%rsp), %rdi
	movq	(%rdi), %rax
	call	*24(%rax)
	jmp	.L1803
	.p2align 4,,10
	.p2align 3
.L1908:
	movq	(%rdi), %rax
	movq	%rdi, 8(%rsp)
	movq	$0, 8(%rdi)
	call	*16(%rax)
	movq	8(%rsp), %rdi
	movq	(%rdi), %rax
	call	*24(%rax)
	jmp	.L1833
	.p2align 4,,10
	.p2align 3
.L1910:
	movq	(%rdi), %rax
	movq	%rdi, 8(%rsp)
	movq	$0, 8(%rdi)
	call	*16(%rax)
	movq	8(%rsp), %rdi
	movq	(%rdi), %rax
	call	*24(%rax)
	jmp	.L1839
	.p2align 4,,10
	.p2align 3
.L1835:
	movl	$-1, %eax
	lock xaddl	%eax, (%rcx)
	jmp	.L1836
	.p2align 4,,10
	.p2align 3
.L1811:
	movl	$-1, %eax
	lock xaddl	%eax, (%rcx)
	jmp	.L1812
	.p2align 4,,10
	.p2align 3
.L1817:
	movl	$-1, %eax
	lock xaddl	%eax, (%rcx)
	jmp	.L1818
	.p2align 4,,10
	.p2align 3
.L1823:
	movl	$-1, %eax
	lock xaddl	%eax, (%rcx)
	jmp	.L1824
	.p2align 4,,10
	.p2align 3
.L1829:
	movl	$-1, %eax
	lock xaddl	%eax, (%rcx)
	jmp	.L1830
	.p2align 4,,10
	.p2align 3
.L1787:
	movl	$-1, %eax
	lock xaddl	%eax, (%rcx)
	jmp	.L1788
	.p2align 4,,10
	.p2align 3
.L1793:
	movl	$-1, %eax
	lock xaddl	%eax, (%rcx)
	jmp	.L1794
	.p2align 4,,10
	.p2align 3
.L1799:
	movl	$-1, %eax
	lock xaddl	%eax, (%rcx)
	jmp	.L1800
	.p2align 4,,10
	.p2align 3
.L1805:
	movl	$-1, %eax
	lock xaddl	%eax, (%rcx)
	jmp	.L1806
	.p2align 4,,10
	.p2align 3
.L1841:
	movl	$-1, %eax
	lock xaddl	%eax, (%rcx)
	jmp	.L1842
	.p2align 4,,10
	.p2align 3
.L1769:
	movl	$-1, %eax
	lock xaddl	%eax, (%rcx)
	jmp	.L1770
	.p2align 4,,10
	.p2align 3
.L1775:
	movl	$-1, %eax
	lock xaddl	%eax, (%rcx)
	jmp	.L1776
	.p2align 4,,10
	.p2align 3
.L1781:
	movl	$-1, %eax
	lock xaddl	%eax, (%rcx)
	jmp	.L1782
	.p2align 4,,10
	.p2align 3
.L1911:
	call	_ZNSt16_Sp_counted_baseILN9__gnu_cxx12_Lock_policyE2EE24_M_release_last_use_coldEv@PLT
	jmp	.L1839
	.p2align 4,,10
	.p2align 3
.L1909:
	call	_ZNSt16_Sp_counted_baseILN9__gnu_cxx12_Lock_policyE2EE24_M_release_last_use_coldEv@PLT
	jmp	.L1833
	.p2align 4,,10
	.p2align 3
.L1907:
	call	_ZNSt16_Sp_counted_baseILN9__gnu_cxx12_Lock_policyE2EE24_M_release_last_use_coldEv@PLT
	jmp	.L1827
	.p2align 4,,10
	.p2align 3
.L1905:
	call	_ZNSt16_Sp_counted_baseILN9__gnu_cxx12_Lock_policyE2EE24_M_release_last_use_coldEv@PLT
	jmp	.L1821
	.p2align 4,,10
	.p2align 3
.L1903:
	call	_ZNSt16_Sp_counted_baseILN9__gnu_cxx12_Lock_policyE2EE24_M_release_last_use_coldEv@PLT
	jmp	.L1815
	.p2align 4,,10
	.p2align 3
.L1901:
	call	_ZNSt16_Sp_counted_baseILN9__gnu_cxx12_Lock_policyE2EE24_M_release_last_use_coldEv@PLT
	jmp	.L1809
	.p2align 4,,10
	.p2align 3
.L1899:
	call	_ZNSt16_Sp_counted_baseILN9__gnu_cxx12_Lock_policyE2EE24_M_release_last_use_coldEv@PLT
	jmp	.L1803
	.p2align 4,,10
	.p2align 3
.L1897:
	call	_ZNSt16_Sp_counted_baseILN9__gnu_cxx12_Lock_policyE2EE24_M_release_last_use_coldEv@PLT
	jmp	.L1797
	.p2align 4,,10
	.p2align 3
.L1895:
	call	_ZNSt16_Sp_counted_baseILN9__gnu_cxx12_Lock_policyE2EE24_M_release_last_use_coldEv@PLT
	jmp	.L1791
	.p2align 4,,10
	.p2align 3
.L1893:
	call	_ZNSt16_Sp_counted_baseILN9__gnu_cxx12_Lock_policyE2EE24_M_release_last_use_coldEv@PLT
	jmp	.L1785
	.p2align 4,,10
	.p2align 3
.L1891:
	call	_ZNSt16_Sp_counted_baseILN9__gnu_cxx12_Lock_policyE2EE24_M_release_last_use_coldEv@PLT
	jmp	.L1779
	.p2align 4,,10
	.p2align 3
.L1889:
	call	_ZNSt16_Sp_counted_baseILN9__gnu_cxx12_Lock_policyE2EE24_M_release_last_use_coldEv@PLT
	jmp	.L1773
	.p2align 4,,10
	.p2align 3
.L1887:
	call	_ZNSt16_Sp_counted_baseILN9__gnu_cxx12_Lock_policyE2EE24_M_release_last_use_coldEv@PLT
	jmp	.L1767
	.cfi_endproc
.LFE11879:
	.size	_ZN8asiodnp315OutstationStackD2Ev, .-_ZN8asiodnp315OutstationStackD2Ev
	.weak	_ZN8asiodnp315OutstationStackD1Ev
	.set	_ZN8asiodnp315OutstationStackD1Ev,_ZN8asiodnp315OutstationStackD2Ev
	.section	.text._ZN8asiodnp315OutstationStackD0Ev,"axG",@progbits,_ZN8asiodnp315OutstationStackD5Ev,comdat
	.align 2
	.p2align 4
	.weak	_ZN8asiodnp315OutstationStackD0Ev
	.type	_ZN8asiodnp315OutstationStackD0Ev, @function
_ZN8asiodnp315OutstationStackD0Ev:
.LFB11881:
	.cfi_startproc
	pushq	%rbx
	.cfi_def_cfa_offset 16
	.cfi_offset 3, -16
	movq	%rdi, %rbx
	subq	$16, %rsp
	.cfi_def_cfa_offset 32
	movq	_ZTVN8asiodnp315OutstationStackE@GOTPCREL(%rip), %rax
	leaq	144(%rax), %rdx
	leaq	16(%rax), %rsi
	addq	$208, %rax
	movq	%rax, 16(%rdi)
	movq	_ZTVN8opendnp38OContextE@GOTPCREL(%rip), %rax
	movq	%rsi, %xmm0
	movq	%rdx, %xmm1
	punpcklqdq	%xmm1, %xmm0
	addq	$16, %rax
	movups	%xmm0, (%rdi)
	movq	%rax, 152(%rdi)
	movq	1088(%rdi), %rdi
	testq	%rdi, %rdi
	je	.L1914
	call	_ZdaPv@PLT
.L1914:
	movq	1032(%rbx), %rdi
	testq	%rdi, %rdi
	je	.L1915
	call	_ZdaPv@PLT
.L1915:
	movq	952(%rbx), %rdi
	testq	%rdi, %rdi
	je	.L1916
	call	_ZdaPv@PLT
.L1916:
	leaq	880(%rbx), %rdi
	call	_ZN7openpal8TimerRefD1Ev@PLT
	movq	744(%rbx), %rdi
	testq	%rdi, %rdi
	je	.L1917
	call	_ZdaPv@PLT
.L1917:
	movq	720(%rbx), %rdi
	testq	%rdi, %rdi
	je	.L1918
	call	_ZdaPv@PLT
.L1918:
	movq	696(%rbx), %rdi
	testq	%rdi, %rdi
	je	.L1919
	call	_ZdaPv@PLT
.L1919:
	movq	672(%rbx), %rdi
	testq	%rdi, %rdi
	je	.L1920
	call	_ZdaPv@PLT
.L1920:
	movq	648(%rbx), %rdi
	testq	%rdi, %rdi
	je	.L1921
	call	_ZdaPv@PLT
.L1921:
	movq	624(%rbx), %rdi
	testq	%rdi, %rdi
	je	.L1922
	call	_ZdaPv@PLT
.L1922:
	movq	600(%rbx), %rdi
	testq	%rdi, %rdi
	je	.L1923
	call	_ZdaPv@PLT
.L1923:
	movq	576(%rbx), %rdi
	testq	%rdi, %rdi
	je	.L1924
	call	_ZdaPv@PLT
.L1924:
	movq	360(%rbx), %rdi
	testq	%rdi, %rdi
	je	.L1925
	call	_ZdaPv@PLT
.L1925:
	movq	248(%rbx), %rdi
	testq	%rdi, %rdi
	je	.L1927
	movq	8(%rdi), %rdx
	leaq	8(%rdi), %rcx
	movabsq	$4294967297, %rax
	cmpq	%rax, %rdx
	je	.L2046
	movq	__libc_single_threaded@GOTPCREL(%rip), %rax
	cmpb	$0, (%rax)
	je	.L1929
	movl	8(%rdi), %eax
	leal	-1(%rax), %edx
	movl	%edx, 8(%rdi)
.L1930:
	cmpl	$1, %eax
	je	.L2047
.L1927:
	movq	232(%rbx), %rdi
	testq	%rdi, %rdi
	je	.L1933
	movq	8(%rdi), %rdx
	leaq	8(%rdi), %rcx
	movabsq	$4294967297, %rax
	cmpq	%rax, %rdx
	je	.L2048
	movq	__libc_single_threaded@GOTPCREL(%rip), %rax
	cmpb	$0, (%rax)
	je	.L1935
	movl	8(%rdi), %eax
	leal	-1(%rax), %edx
	movl	%edx, 8(%rdi)
.L1936:
	cmpl	$1, %eax
	je	.L2049
.L1933:
	movq	216(%rbx), %rdi
	testq	%rdi, %rdi
	je	.L1939
	movq	8(%rdi), %rdx
	leaq	8(%rdi), %rcx
	movabsq	$4294967297, %rax
	cmpq	%rax, %rdx
	je	.L2050
	movq	__libc_single_threaded@GOTPCREL(%rip), %rax
	cmpb	$0, (%rax)
	je	.L1941
	movl	8(%rdi), %eax
	leal	-1(%rax), %edx
	movl	%edx, 8(%rdi)
.L1942:
	cmpl	$1, %eax
	je	.L2051
.L1939:
	movq	200(%rbx), %rdi
	testq	%rdi, %rdi
	je	.L1945
	movq	8(%rdi), %rdx
	leaq	8(%rdi), %rcx
	movabsq	$4294967297, %rax
	cmpq	%rax, %rdx
	je	.L2052
	movq	__libc_single_threaded@GOTPCREL(%rip), %rax
	cmpb	$0, (%rax)
	je	.L1947
	movl	8(%rdi), %eax
	leal	-1(%rax), %edx
	movl	%edx, 8(%rdi)
.L1948:
	cmpl	$1, %eax
	je	.L2053
.L1945:
	movq	184(%rbx), %rdi
	testq	%rdi, %rdi
	je	.L1951
	movq	8(%rdi), %rdx
	leaq	8(%rdi), %rcx
	movabsq	$4294967297, %rax
	cmpq	%rax, %rdx
	je	.L2054
	movq	__libc_single_threaded@GOTPCREL(%rip), %rax
	cmpb	$0, (%rax)
	je	.L1953
	movl	8(%rdi), %eax
	leal	-1(%rax), %edx
	movl	%edx, 8(%rdi)
.L1954:
	cmpl	$1, %eax
	je	.L2055
.L1951:
	movq	168(%rbx), %rdi
	testq	%rdi, %rdi
	je	.L1957
	movq	8(%rdi), %rdx
	leaq	8(%rdi), %rcx
	movabsq	$4294967297, %rax
	cmpq	%rax, %rdx
	je	.L2056
	movq	__libc_single_threaded@GOTPCREL(%rip), %rax
	cmpb	$0, (%rax)
	je	.L1959
	movl	8(%rdi), %eax
	leal	-1(%rax), %edx
	movl	%edx, 8(%rdi)
.L1960:
	cmpl	$1, %eax
	je	.L2057
.L1957:
	movq	144(%rbx), %rdi
	testq	%rdi, %rdi
	je	.L1963
	movq	8(%rdi), %rdx
	leaq	8(%rdi), %rcx
	movabsq	$4294967297, %rax
	cmpq	%rax, %rdx
	je	.L2058
	movq	__libc_single_threaded@GOTPCREL(%rip), %rax
	cmpb	$0, (%rax)
	je	.L1965
	movl	8(%rdi), %eax
	leal	-1(%rax), %edx
	movl	%edx, 8(%rdi)
.L1966:
	cmpl	$1, %eax
	je	.L2059
.L1963:
	movq	128(%rbx), %rdi
	testq	%rdi, %rdi
	je	.L1969
	movq	8(%rdi), %rdx
	leaq	8(%rdi), %rcx
	movabsq	$4294967297, %rax
	cmpq	%rax, %rdx
	je	.L2060
	movq	__libc_single_threaded@GOTPCREL(%rip), %rax
	cmpb	$0, (%rax)
	je	.L1971
	movl	8(%rdi), %eax
	leal	-1(%rax), %edx
	movl	%edx, 8(%rdi)
.L1972:
	cmpl	$1, %eax
	je	.L2061
.L1969:
	movq	112(%rbx), %rdi
	testq	%rdi, %rdi
	je	.L1975
	movq	8(%rdi), %rdx
	leaq	8(%rdi), %rcx
	movabsq	$4294967297, %rax
	cmpq	%rax, %rdx
	je	.L2062
	movq	__libc_single_threaded@GOTPCREL(%rip), %rax
	cmpb	$0, (%rax)
	je	.L1977
	movl	8(%rdi), %eax
	leal	-1(%rax), %edx
	movl	%edx, 8(%rdi)
.L1978:
	cmpl	$1, %eax
	je	.L2063
.L1975:
	movq	96(%rbx), %rdi
	testq	%rdi, %rdi
	je	.L1981
	movq	8(%rdi), %rdx
	leaq	8(%rdi), %rcx
	movabsq	$4294967297, %rax
	cmpq	%rax, %rdx
	je	.L2064
	movq	__libc_single_threaded@GOTPCREL(%rip), %rax
	cmpb	$0, (%rax)
	je	.L1983
	movl	8(%rdi), %eax
	leal	-1(%rax), %edx
	movl	%edx, 8(%rdi)
.L1984:
	cmpl	$1, %eax
	je	.L2065
.L1981:
	movq	80(%rbx), %rdi
	testq	%rdi, %rdi
	je	.L1987
	movq	8(%rdi), %rdx
	leaq	8(%rdi), %rcx
	movabsq	$4294967297, %rax
	cmpq	%rax, %rdx
	je	.L2066
	movq	__libc_single_threaded@GOTPCREL(%rip), %rax
	cmpb	$0, (%rax)
	je	.L1989
	movl	8(%rdi), %eax
	leal	-1(%rax), %edx
	movl	%edx, 8(%rdi)
.L1990:
	cmpl	$1, %eax
	je	.L2067
.L1987:
	movq	64(%rbx), %rdi
	testq	%rdi, %rdi
	je	.L1993
	movq	8(%rdi), %rdx
	leaq	8(%rdi), %rcx
	movabsq	$4294967297, %rax
	cmpq	%rax, %rdx
	je	.L2068
	movq	__libc_single_threaded@GOTPCREL(%rip), %rax
	cmpb	$0, (%rax)
	je	.L1995
	movl	8(%rdi), %eax
	leal	-1(%rax), %edx
	movl	%edx, 8(%rdi)
.L1996:
	cmpl	$1, %eax
	je	.L2069
.L1993:
	movq	48(%rbx), %rdi
	testq	%rdi, %rdi
	je	.L1999
	movq	8(%rdi), %rdx
	leaq	8(%rdi), %rcx
	movabsq	$4294967297, %rax
	cmpq	%rax, %rdx
	je	.L2070
	movq	__libc_single_threaded@GOTPCREL(%rip), %rax
	cmpb	$0, (%rax)
	je	.L2001
	movl	8(%rdi), %eax
	leal	-1(%rax), %edx
	movl	%edx, 8(%rdi)
.L2002:
	cmpl	$1, %eax
	je	.L2071
.L1999:
	movq	32(%rbx), %rdi
	testq	%rdi, %rdi
	je	.L2005
	movq	__libc_single_threaded@GOTPCREL(%rip), %rax
	cmpb	$0, (%rax)
	je	.L2006
	movl	12(%rdi), %eax
	leal	-1(%rax), %edx
	movl	%edx, 12(%rdi)
.L2007:
	cmpl	$1, %eax
	je	.L2072
.L2005:
	addq	$16, %rsp
	.cfi_remember_state
	.cfi_def_cfa_offset 16
	movq	%rbx, %rdi
	movl	$1104, %esi
	popq	%rbx
	.cfi_def_cfa_offset 8
	jmp	_ZdlPvm@PLT
	.p2align 4,,10
	.p2align 3
.L2072:
	.cfi_restore_state
	movq	(%rdi), %rax
	call	*24(%rax)
	jmp	.L2005
	.p2align 4,,10
	.p2align 3
.L2006:
	movl	$-1, %eax
	lock xaddl	%eax, 12(%rdi)
	jmp	.L2007
	.p2align 4,,10
	.p2align 3
.L2046:
	movq	(%rdi), %rax
	movq	%rdi, 8(%rsp)
	movq	$0, 8(%rdi)
	call	*16(%rax)
	movq	8(%rsp), %rdi
	movq	(%rdi), %rax
	call	*24(%rax)
	jmp	.L1927
	.p2align 4,,10
	.p2align 3
.L2048:
	movq	(%rdi), %rax
	movq	%rdi, 8(%rsp)
	movq	$0, 8(%rdi)
	call	*16(%rax)
	movq	8(%rsp), %rdi
	movq	(%rdi), %rax
	call	*24(%rax)
	jmp	.L1933
	.p2align 4,,10
	.p2align 3
.L2050:
	movq	(%rdi), %rax
	movq	%rdi, 8(%rsp)
	movq	$0, 8(%rdi)
	call	*16(%rax)
	movq	8(%rsp), %rdi
	movq	(%rdi), %rax
	call	*24(%rax)
	jmp	.L1939
	.p2align 4,,10
	.p2align 3
.L2064:
	movq	(%rdi), %rax
	movq	%rdi, 8(%rsp)
	movq	$0, 8(%rdi)
	call	*16(%rax)
	movq	8(%rsp), %rdi
	movq	(%rdi), %rax
	call	*24(%rax)
	jmp	.L1981
	.p2align 4,,10
	.p2align 3
.L2066:
	movq	(%rdi), %rax
	movq	%rdi, 8(%rsp)
	movq	$0, 8(%rdi)
	call	*16(%rax)
	movq	8(%rsp), %rdi
	movq	(%rdi), %rax
	call	*24(%rax)
	jmp	.L1987
	.p2align 4,,10
	.p2align 3
.L2052:
	movq	(%rdi), %rax
	movq	%rdi, 8(%rsp)
	movq	$0, 8(%rdi)
	call	*16(%rax)
	movq	8(%rsp), %rdi
	movq	(%rdi), %rax
	call	*24(%rax)
	jmp	.L1945
	.p2align 4,,10
	.p2align 3
.L2054:
	movq	(%rdi), %rax
	movq	%rdi, 8(%rsp)
	movq	$0, 8(%rdi)
	call	*16(%rax)
	movq	8(%rsp), %rdi
	movq	(%rdi), %rax
	call	*24(%rax)
	jmp	.L1951
	.p2align 4,,10
	.p2align 3
.L2060:
	movq	(%rdi), %rax
	movq	%rdi, 8(%rsp)
	movq	$0, 8(%rdi)
	call	*16(%rax)
	movq	8(%rsp), %rdi
	movq	(%rdi), %rax
	call	*24(%rax)
	jmp	.L1969
	.p2align 4,,10
	.p2align 3
.L2062:
	movq	(%rdi), %rax
	movq	%rdi, 8(%rsp)
	movq	$0, 8(%rdi)
	call	*16(%rax)
	movq	8(%rsp), %rdi
	movq	(%rdi), %rax
	call	*24(%rax)
	jmp	.L1975
	.p2align 4,,10
	.p2align 3
.L2056:
	movq	(%rdi), %rax
	movq	%rdi, 8(%rsp)
	movq	$0, 8(%rdi)
	call	*16(%rax)
	movq	8(%rsp), %rdi
	movq	(%rdi), %rax
	call	*24(%rax)
	jmp	.L1957
	.p2align 4,,10
	.p2align 3
.L2058:
	movq	(%rdi), %rax
	movq	%rdi, 8(%rsp)
	movq	$0, 8(%rdi)
	call	*16(%rax)
	movq	8(%rsp), %rdi
	movq	(%rdi), %rax
	call	*24(%rax)
	jmp	.L1963
	.p2align 4,,10
	.p2align 3
.L2068:
	movq	(%rdi), %rax
	movq	%rdi, 8(%rsp)
	movq	$0, 8(%rdi)
	call	*16(%rax)
	movq	8(%rsp), %rdi
	movq	(%rdi), %rax
	call	*24(%rax)
	jmp	.L1993
	.p2align 4,,10
	.p2align 3
.L2070:
	movq	(%rdi), %rax
	movq	%rdi, 8(%rsp)
	movq	$0, 8(%rdi)
	call	*16(%rax)
	movq	8(%rsp), %rdi
	movq	(%rdi), %rax
	call	*24(%rax)
	jmp	.L1999
	.p2align 4,,10
	.p2align 3
.L1995:
	movl	$-1, %eax
	lock xaddl	%eax, (%rcx)
	jmp	.L1996
	.p2align 4,,10
	.p2align 3
.L1971:
	movl	$-1, %eax
	lock xaddl	%eax, (%rcx)
	jmp	.L1972
	.p2align 4,,10
	.p2align 3
.L1977:
	movl	$-1, %eax
	lock xaddl	%eax, (%rcx)
	jmp	.L1978
	.p2align 4,,10
	.p2align 3
.L1983:
	movl	$-1, %eax
	lock xaddl	%eax, (%rcx)
	jmp	.L1984
	.p2align 4,,10
	.p2align 3
.L1989:
	movl	$-1, %eax
	lock xaddl	%eax, (%rcx)
	jmp	.L1990
	.p2align 4,,10
	.p2align 3
.L1947:
	movl	$-1, %eax
	lock xaddl	%eax, (%rcx)
	jmp	.L1948
	.p2align 4,,10
	.p2align 3
.L1953:
	movl	$-1, %eax
	lock xaddl	%eax, (%rcx)
	jmp	.L1954
	.p2align 4,,10
	.p2align 3
.L1959:
	movl	$-1, %eax
	lock xaddl	%eax, (%rcx)
	jmp	.L1960
	.p2align 4,,10
	.p2align 3
.L1965:
	movl	$-1, %eax
	lock xaddl	%eax, (%rcx)
	jmp	.L1966
	.p2align 4,,10
	.p2align 3
.L2001:
	movl	$-1, %eax
	lock xaddl	%eax, (%rcx)
	jmp	.L2002
	.p2align 4,,10
	.p2align 3
.L1929:
	movl	$-1, %eax
	lock xaddl	%eax, (%rcx)
	jmp	.L1930
	.p2align 4,,10
	.p2align 3
.L1935:
	movl	$-1, %eax
	lock xaddl	%eax, (%rcx)
	jmp	.L1936
	.p2align 4,,10
	.p2align 3
.L1941:
	movl	$-1, %eax
	lock xaddl	%eax, (%rcx)
	jmp	.L1942
	.p2align 4,,10
	.p2align 3
.L2071:
	call	_ZNSt16_Sp_counted_baseILN9__gnu_cxx12_Lock_policyE2EE24_M_release_last_use_coldEv@PLT
	jmp	.L1999
	.p2align 4,,10
	.p2align 3
.L2069:
	call	_ZNSt16_Sp_counted_baseILN9__gnu_cxx12_Lock_policyE2EE24_M_release_last_use_coldEv@PLT
	jmp	.L1993
	.p2align 4,,10
	.p2align 3
.L2067:
	call	_ZNSt16_Sp_counted_baseILN9__gnu_cxx12_Lock_policyE2EE24_M_release_last_use_coldEv@PLT
	jmp	.L1987
	.p2align 4,,10
	.p2align 3
.L2065:
	call	_ZNSt16_Sp_counted_baseILN9__gnu_cxx12_Lock_policyE2EE24_M_release_last_use_coldEv@PLT
	jmp	.L1981
	.p2align 4,,10
	.p2align 3
.L2063:
	call	_ZNSt16_Sp_counted_baseILN9__gnu_cxx12_Lock_policyE2EE24_M_release_last_use_coldEv@PLT
	jmp	.L1975
	.p2align 4,,10
	.p2align 3
.L2061:
	call	_ZNSt16_Sp_counted_baseILN9__gnu_cxx12_Lock_policyE2EE24_M_release_last_use_coldEv@PLT
	jmp	.L1969
	.p2align 4,,10
	.p2align 3
.L2059:
	call	_ZNSt16_Sp_counted_baseILN9__gnu_cxx12_Lock_policyE2EE24_M_release_last_use_coldEv@PLT
	jmp	.L1963
	.p2align 4,,10
	.p2align 3
.L2057:
	call	_ZNSt16_Sp_counted_baseILN9__gnu_cxx12_Lock_policyE2EE24_M_release_last_use_coldEv@PLT
	jmp	.L1957
	.p2align 4,,10
	.p2align 3
.L2055:
	call	_ZNSt16_Sp_counted_baseILN9__gnu_cxx12_Lock_policyE2EE24_M_release_last_use_coldEv@PLT
	jmp	.L1951
	.p2align 4,,10
	.p2align 3
.L2053:
	call	_ZNSt16_Sp_counted_baseILN9__gnu_cxx12_Lock_policyE2EE24_M_release_last_use_coldEv@PLT
	jmp	.L1945
	.p2align 4,,10
	.p2align 3
.L2051:
	call	_ZNSt16_Sp_counted_baseILN9__gnu_cxx12_Lock_policyE2EE24_M_release_last_use_coldEv@PLT
	jmp	.L1939
	.p2align 4,,10
	.p2align 3
.L2049:
	call	_ZNSt16_Sp_counted_baseILN9__gnu_cxx12_Lock_policyE2EE24_M_release_last_use_coldEv@PLT
	jmp	.L1933
	.p2align 4,,10
	.p2align 3
.L2047:
	call	_ZNSt16_Sp_counted_baseILN9__gnu_cxx12_Lock_policyE2EE24_M_release_last_use_coldEv@PLT
	jmp	.L1927
	.cfi_endproc
.LFE11881:
	.size	_ZN8asiodnp315OutstationStackD0Ev, .-_ZN8asiodnp315OutstationStackD0Ev
	.section	.text.unlikely
.LCOLDB34:
	.text
.LHOTB34:
	.p2align 4
	.type	_ZN4asio6detail18completion_handlerIZN8asiodnp315OutstationStack5ApplyERKNS2_7UpdatesEEUlvE_E11do_completeEPNS0_15task_io_serviceEPNS0_25task_io_service_operationERKSt10error_codem, @function
_ZN4asio6detail18completion_handlerIZN8asiodnp315OutstationStack5ApplyERKNS2_7UpdatesEEUlvE_E11do_completeEPNS0_15task_io_serviceEPNS0_25task_io_service_operationERKSt10error_codem:
.LFB11182:
	.cfi_startproc
	.cfi_personality 0x9b,DW.ref.__gxx_personality_v0
	.cfi_lsda 0x1b,.LLSDA11182
	pushq	%r15
	.cfi_def_cfa_offset 16
	.cfi_offset 15, -16
	pxor	%xmm0, %xmm0
	pushq	%r14
	.cfi_def_cfa_offset 24
	.cfi_offset 14, -24
	pushq	%r13
	.cfi_def_cfa_offset 32
	.cfi_offset 13, -32
	pushq	%r12
	.cfi_def_cfa_offset 40
	.cfi_offset 12, -40
	movq	%rdi, %r12
	pushq	%rbp
	.cfi_def_cfa_offset 48
	.cfi_offset 6, -48
	movq	%rsi, %rbp
	pushq	%rbx
	.cfi_def_cfa_offset 56
	.cfi_offset 3, -56
	subq	$56, %rsp
	.cfi_def_cfa_offset 112
	movq	24(%rsi), %rax
	movq	48(%rsi), %rbx
	movq	32(%rsi), %r13
	movq	40(%rsi), %r14
	movups	%xmm0, 24(%rsi)
	movq	%rax, (%rsp)
	testq	%rbx, %rbx
	je	.L2141
	movq	__libc_single_threaded@GOTPCREL(%rip), %rax
	cmpb	$0, (%rax)
	je	.L2077
	addl	$1, 8(%rbx)
	movq	%rbx, %r15
.L2078:
	movq	8(%r15), %rcx
	leaq	8(%r15), %rsi
	movabsq	$4294967297, %rdx
	cmpq	%rdx, %rcx
	je	.L2142
	cmpb	$0, (%rax)
	je	.L2081
	movl	8(%r15), %edx
	leal	-1(%rdx), %ecx
	movl	%ecx, 8(%r15)
.L2082:
	cmpl	$1, %edx
	je	.L2083
.L2132:
	movq	32(%rbp), %r15
.L2079:
	testq	%r15, %r15
	je	.L2139
	movq	8(%r15), %rcx
	leaq	8(%r15), %rsi
	movabsq	$4294967297, %rdx
	cmpq	%rdx, %rcx
	je	.L2143
	cmpb	$0, (%rax)
	je	.L2089
	movl	8(%r15), %eax
	leal	-1(%rax), %edx
	movl	%edx, 8(%r15)
.L2090:
	cmpl	$1, %eax
	je	.L2144
.L2139:
	data16	leaq	_ZN4asio6detail15keyword_tss_ptrINS0_10call_stackINS0_15task_io_serviceENS0_27task_io_service_thread_infoEE7contextEE6value_E@tlsgd(%rip), %rdi
	.value	0x6666
	rex64
	call	__tls_get_addr@PLT
	movq	(%rax), %rax
	testq	%rax, %rax
	jne	.L2075
.L2134:
	movq	%rbp, %rdi
	call	_ZdlPv@PLT
	testq	%r12, %r12
	jne	.L2085
	jmp	.L2086
	.p2align 4,,10
	.p2align 3
.L2077:
	lock addl	$1, 8(%rbx)
	movq	48(%rsi), %r15
	testq	%r15, %r15
	jne	.L2078
	jmp	.L2132
	.p2align 4,,10
	.p2align 3
.L2141:
	data16	leaq	_ZN4asio6detail15keyword_tss_ptrINS0_10call_stackINS0_15task_io_serviceENS0_27task_io_service_thread_infoEE7contextEE6value_E@tlsgd(%rip), %rdi
	.value	0x6666
	rex64
	call	__tls_get_addr@PLT
	movq	(%rax), %rax
	testq	%rax, %rax
	je	.L2145
.L2075:
	movq	8(%rax), %rax
	testq	%rax, %rax
	je	.L2092
	cmpq	$0, (%rax)
	je	.L2146
.L2092:
	movq	%rbp, %rdi
	call	_ZdlPv@PLT
.L2093:
	testq	%r12, %r12
	je	.L2147
.L2085:
	movq	(%rsp), %rax
	addq	$152, %rax
	movq	%rax, %rdi
	movq	%rax, 8(%rsp)
.LEHB48:
	call	_ZN8opendnp38OContext16GetUpdateHandlerEv@PLT
	movq	%rax, %r12
	testq	%r14, %r14
	je	.L2101
	movq	(%r14), %r15
	movq	8(%r14), %rbp
	cmpq	%rbp, %r15
	je	.L2101
	.p2align 4
	.p2align 3
.L2103:
	cmpq	$0, 16(%r15)
	je	.L2126
	movq	%r12, %rsi
	movq	%r15, %rdi
	call	*24(%r15)
	addq	$32, %r15
	cmpq	%r15, %rbp
	jne	.L2103
.L2101:
	movq	8(%rsp), %rdi
	call	_ZN8opendnp38OContext17CheckForTaskStartEv@PLT
.LEHE48:
	sfence
	testq	%rbx, %rbx
	je	.L2087
.L2086:
	movq	8(%rbx), %rdx
	leaq	8(%rbx), %rcx
	movabsq	$4294967297, %rax
	cmpq	%rax, %rdx
	je	.L2148
	movq	__libc_single_threaded@GOTPCREL(%rip), %rax
	cmpb	$0, (%rax)
	je	.L2105
	movl	8(%rbx), %eax
	leal	-1(%rax), %edx
	movl	%edx, 8(%rbx)
.L2106:
	cmpl	$1, %eax
	je	.L2149
.L2087:
	testq	%r13, %r13
	je	.L2073
	movq	8(%r13), %rdx
	leaq	8(%r13), %rcx
	movabsq	$4294967297, %rax
	cmpq	%rax, %rdx
	je	.L2150
	movq	__libc_single_threaded@GOTPCREL(%rip), %rax
	cmpb	$0, (%rax)
	je	.L2109
	movl	8(%r13), %eax
	leal	-1(%rax), %edx
	movl	%edx, 8(%r13)
.L2110:
	cmpl	$1, %eax
	je	.L2151
.L2073:
	addq	$56, %rsp
	.cfi_remember_state
	.cfi_def_cfa_offset 56
	popq	%rbx
	.cfi_def_cfa_offset 48
	popq	%rbp
	.cfi_def_cfa_offset 40
	popq	%r12
	.cfi_def_cfa_offset 32
	popq	%r13
	.cfi_def_cfa_offset 24
	popq	%r14
	.cfi_def_cfa_offset 16
	popq	%r15
	.cfi_def_cfa_offset 8
	ret
	.p2align 4,,10
	.p2align 3
.L2147:
	.cfi_restore_state
	testq	%rbx, %rbx
	jne	.L2086
	jmp	.L2087
	.p2align 4,,10
	.p2align 3
.L2081:
	movl	$-1, %edx
	lock xaddl	%edx, (%rsi)
	jmp	.L2082
	.p2align 4,,10
	.p2align 3
.L2089:
	movl	$-1, %eax
	lock xaddl	%eax, (%rsi)
	jmp	.L2090
	.p2align 4,,10
	.p2align 3
.L2105:
	movl	$-1, %eax
	lock xaddl	%eax, (%rcx)
	jmp	.L2106
	.p2align 4,,10
	.p2align 3
.L2109:
	movl	$-1, %eax
	lock xaddl	%eax, (%rcx)
	jmp	.L2110
	.p2align 4,,10
	.p2align 3
.L2150:
	movq	0(%r13), %rax
	movq	%r13, %rdi
	movq	$0, 8(%r13)
	call	*16(%rax)
	movq	0(%r13), %rax
	movq	%r13, %rdi
	movq	24(%rax), %rax
	addq	$56, %rsp
	.cfi_remember_state
	.cfi_def_cfa_offset 56
	popq	%rbx
	.cfi_def_cfa_offset 48
	popq	%rbp
	.cfi_def_cfa_offset 40
	popq	%r12
	.cfi_def_cfa_offset 32
	popq	%r13
	.cfi_def_cfa_offset 24
	popq	%r14
	.cfi_def_cfa_offset 16
	popq	%r15
	.cfi_def_cfa_offset 8
.LEHB49:
	jmp	*%rax
	.p2align 4,,10
	.p2align 3
.L2148:
	.cfi_restore_state
	movq	(%rbx), %rax
	movq	%rbx, %rdi
	movq	$0, 8(%rbx)
	call	*16(%rax)
	movq	(%rbx), %rax
	movq	%rbx, %rdi
	call	*24(%rax)
	jmp	.L2087
	.p2align 4,,10
	.p2align 3
.L2146:
	movzbl	56(%rbp), %edx
	movb	%dl, 0(%rbp)
	movq	%rbp, (%rax)
	jmp	.L2093
	.p2align 4,,10
	.p2align 3
.L2143:
	movq	(%r15), %rax
	movq	%r15, %rdi
	movq	$0, 8(%r15)
	call	*16(%rax)
	movq	(%r15), %rax
	movq	%r15, %rdi
	call	*24(%rax)
	data16	leaq	_ZN4asio6detail15keyword_tss_ptrINS0_10call_stackINS0_15task_io_serviceENS0_27task_io_service_thread_infoEE7contextEE6value_E@tlsgd(%rip), %rdi
	.value	0x6666
	rex64
	call	__tls_get_addr@PLT
	movq	(%rax), %rax
	testq	%rax, %rax
	jne	.L2075
	jmp	.L2134
	.p2align 4,,10
	.p2align 3
.L2142:
	movq	(%r15), %rdx
	movq	%r15, %rdi
	movq	$0, 8(%r15)
	call	*16(%rdx)
	movq	(%r15), %rdx
	movq	%r15, %rdi
	call	*24(%rdx)
	movq	32(%rbp), %r15
	movq	__libc_single_threaded@GOTPCREL(%rip), %rax
	jmp	.L2079
.L2083:
	movq	%r15, %rdi
	call	_ZNSt16_Sp_counted_baseILN9__gnu_cxx12_Lock_policyE2EE24_M_release_last_use_coldEv@PLT
	movq	32(%rbp), %r15
	movq	__libc_single_threaded@GOTPCREL(%rip), %rax
	jmp	.L2079
.L2145:
	movq	%rbp, %rdi
	call	_ZdlPv@PLT
	testq	%r12, %r12
	jne	.L2085
	jmp	.L2087
.L2151:
	addq	$56, %rsp
	.cfi_remember_state
	.cfi_def_cfa_offset 56
	movq	%r13, %rdi
	popq	%rbx
	.cfi_def_cfa_offset 48
	popq	%rbp
	.cfi_def_cfa_offset 40
	popq	%r12
	.cfi_def_cfa_offset 32
	popq	%r13
	.cfi_def_cfa_offset 24
	popq	%r14
	.cfi_def_cfa_offset 16
	popq	%r15
	.cfi_def_cfa_offset 8
	jmp	_ZNSt16_Sp_counted_baseILN9__gnu_cxx12_Lock_policyE2EE24_M_release_last_use_coldEv@PLT
.LEHE49:
.L2149:
	.cfi_restore_state
	movq	%rbx, %rdi
	call	_ZNSt16_Sp_counted_baseILN9__gnu_cxx12_Lock_policyE2EE24_M_release_last_use_coldEv@PLT
	jmp	.L2087
.L2144:
	movq	%r15, %rdi
	call	_ZNSt16_Sp_counted_baseILN9__gnu_cxx12_Lock_policyE2EE24_M_release_last_use_coldEv@PLT
	jmp	.L2139
.L2124:
	jmp	.L2125
	.section	.gcc_except_table
.LLSDA11182:
	.byte	0xff
	.byte	0xff
	.byte	0x1
	.uleb128 .LLSDACSE11182-.LLSDACSB11182
.LLSDACSB11182:
	.uleb128 .LEHB48-.LFB11182
	.uleb128 .LEHE48-.LEHB48
	.uleb128 .L2124-.LFB11182
	.uleb128 0
	.uleb128 .LEHB49-.LFB11182
	.uleb128 .LEHE49-.LEHB49
	.uleb128 0
	.uleb128 0
.LLSDACSE11182:
	.text
	.cfi_endproc
	.section	.text.unlikely
	.cfi_startproc
	.cfi_personality 0x9b,DW.ref.__gxx_personality_v0
	.cfi_lsda 0x1b,.LLSDAC11182
	.type	_ZN4asio6detail18completion_handlerIZN8asiodnp315OutstationStack5ApplyERKNS2_7UpdatesEEUlvE_E11do_completeEPNS0_15task_io_serviceEPNS0_25task_io_service_operationERKSt10error_codem.cold, @function
_ZN4asio6detail18completion_handlerIZN8asiodnp315OutstationStack5ApplyERKNS2_7UpdatesEEUlvE_E11do_completeEPNS0_15task_io_serviceEPNS0_25task_io_service_operationERKSt10error_codem.cold:
.LFSB11182:
.L2126:
	.cfi_def_cfa_offset 112
	.cfi_offset 3, -56
	.cfi_offset 6, -48
	.cfi_offset 12, -40
	.cfi_offset 13, -32
	.cfi_offset 14, -24
	.cfi_offset 15, -16
.LEHB50:
	call	_ZSt25__throw_bad_function_callv@PLT
.LEHE50:
.L2113:
.L2125:
	sfence
	movq	%r13, %xmm1
	movq	%rbx, %xmm2
	movq	%rax, %rbp
	movq	(%rsp), %xmm0
	leaq	16(%rsp), %rdi
	punpcklqdq	%xmm1, %xmm0
	movaps	%xmm0, 16(%rsp)
	movq	%r14, %xmm0
	punpcklqdq	%xmm2, %xmm0
	movaps	%xmm0, 32(%rsp)
	call	_ZZN8asiodnp315OutstationStack5ApplyERKNS_7UpdatesEENUlvE_D1Ev
	movq	%rbp, %rdi
.LEHB51:
	call	_Unwind_Resume@PLT
.LEHE51:
	.cfi_endproc
.LFE11182:
	.section	.gcc_except_table
.LLSDAC11182:
	.byte	0xff
	.byte	0xff
	.byte	0x1
	.uleb128 .LLSDACSEC11182-.LLSDACSBC11182
.LLSDACSBC11182:
	.uleb128 .LEHB50-.LCOLDB34
	.uleb128 .LEHE50-.LEHB50
	.uleb128 .L2113-.LCOLDB34
	.uleb128 0
	.uleb128 .LEHB51-.LCOLDB34
	.uleb128 .LEHE51-.LEHB51
	.uleb128 0
	.uleb128 0
.LLSDACSEC11182:
	.section	.text.unlikely
	.text
	.size	_ZN4asio6detail18completion_handlerIZN8asiodnp315OutstationStack5ApplyERKNS2_7UpdatesEEUlvE_E11do_completeEPNS0_15task_io_serviceEPNS0_25task_io_service_operationERKSt10error_codem, .-_ZN4asio6detail18completion_handlerIZN8asiodnp315OutstationStack5ApplyERKNS2_7UpdatesEEUlvE_E11do_completeEPNS0_15task_io_serviceEPNS0_25task_io_service_operationERKSt10error_codem
	.section	.text.unlikely
	.size	_ZN4asio6detail18completion_handlerIZN8asiodnp315OutstationStack5ApplyERKNS2_7UpdatesEEUlvE_E11do_completeEPNS0_15task_io_serviceEPNS0_25task_io_service_operationERKSt10error_codem.cold, .-_ZN4asio6detail18completion_handlerIZN8asiodnp315OutstationStack5ApplyERKNS2_7UpdatesEEUlvE_E11do_completeEPNS0_15task_io_serviceEPNS0_25task_io_service_operationERKSt10error_codem.cold
.LCOLDE34:
	.text
.LHOTE34:
	.section	.text.unlikely
	.align 2
.LCOLDB35:
	.text
.LHOTB35:
	.align 2
	.p2align 4
	.globl	_ZN8asiodnp315OutstationStack5ApplyERKNS_7UpdatesE
	.type	_ZN8asiodnp315OutstationStack5ApplyERKNS_7UpdatesE, @function
_ZN8asiodnp315OutstationStack5ApplyERKNS_7UpdatesE:
.LFB8499:
	.cfi_startproc
	.cfi_personality 0x9b,DW.ref.__gxx_personality_v0
	.cfi_lsda 0x1b,.LLSDA8499
	movq	(%rsi), %rax
	testq	%rax, %rax
	je	.L2236
	movq	(%rax), %rcx
	cmpq	%rcx, 8(%rax)
	je	.L2236
	pushq	%r15
	.cfi_def_cfa_offset 16
	.cfi_offset 15, -16
	pushq	%r14
	.cfi_def_cfa_offset 24
	.cfi_offset 14, -24
	pushq	%r13
	.cfi_def_cfa_offset 32
	.cfi_offset 13, -32
	pushq	%r12
	.cfi_def_cfa_offset 40
	.cfi_offset 12, -40
	pushq	%rbp
	.cfi_def_cfa_offset 48
	.cfi_offset 6, -48
	pushq	%rbx
	.cfi_def_cfa_offset 56
	.cfi_offset 3, -56
	subq	$120, %rsp
	.cfi_def_cfa_offset 176
	movq	32(%rdi), %rbp
	testq	%rbp, %rbp
	je	.L2155
	movl	8(%rbp), %eax
.L2157:
	testl	%eax, %eax
	je	.L2155
	leal	1(%rax), %edx
	leaq	8(%rbp), %rcx
	lock cmpxchgl	%edx, (%rcx)
	jne	.L2157
	movq	24(%rdi), %rax
	movq	__libc_single_threaded@GOTPCREL(%rip), %r12
	movq	8(%rsi), %rbx
	movq	%rax, (%rsp)
	movq	(%rsi), %rax
	movq	%rax, 16(%rsp)
	movzbl	(%r12), %eax
	testq	%rbx, %rbx
	je	.L2239
	testb	%al, %al
	je	.L2160
	addl	$1, 8(%rbx)
	movq	72(%rdi), %r13
.L2161:
	addl	$1, 8(%rbp)
.L2163:
	addl	$1, 8(%rbx)
.L2164:
	movq	40(%r13), %rax
	movq	%rax, 40(%rsp)
	data16	leaq	_ZN4asio6detail15keyword_tss_ptrINS0_10call_stackINS0_15task_io_serviceENS0_27task_io_service_thread_infoEE7contextEE6value_E@tlsgd(%rip), %rdi
	.value	0x6666
	rex64
	call	__tls_get_addr@PLT
	movq	(%rax), %rax
	testq	%rax, %rax
	je	.L2165
	movq	8(%rax), %rax
	testq	%rax, %rax
	je	.L2165
	movq	(%rax), %r14
	testq	%r14, %r14
	je	.L2165
	movq	$0, (%rax)
	movzbl	(%r14), %eax
	cmpb	$55, %al
	jbe	.L2166
	movb	%al, 56(%r14)
	jmp	.L2167
	.p2align 4,,10
	.p2align 3
.L2236:
	.cfi_def_cfa_offset 8
	.cfi_restore 3
	.cfi_restore 6
	.cfi_restore 12
	.cfi_restore 13
	.cfi_restore 14
	.cfi_restore 15
	ret
	.p2align 4,,10
	.p2align 3
.L2166:
	.cfi_def_cfa_offset 176
	.cfi_offset 3, -56
	.cfi_offset 6, -48
	.cfi_offset 12, -40
	.cfi_offset 13, -32
	.cfi_offset 14, -24
	.cfi_offset 15, -16
	movq	%r14, %rdi
	call	_ZdlPv@PLT
.L2165:
	movl	$57, %edi
.LEHB52:
	call	_Znwm@PLT
.LEHE52:
	movb	$56, 56(%rax)
	movq	%rax, %r14
.L2167:
	movq	(%rsp), %xmm0
	movq	%rbp, %xmm3
	movq	%r14, %xmm2
	movq	%rbx, %xmm4
	punpcklqdq	%xmm2, %xmm2
	leaq	_ZN4asio6detail18completion_handlerIZN8asiodnp315OutstationStack5ApplyERKNS2_7UpdatesEEUlvE_E11do_completeEPNS0_15task_io_serviceEPNS0_25task_io_service_operationERKSt10error_codem(%rip), %rax
	movq	$0, (%r14)
	punpcklqdq	%xmm3, %xmm0
	movq	%rax, 8(%r14)
	movups	%xmm0, 24(%r14)
	movq	16(%rsp), %xmm0
	movl	$0, 16(%r14)
	punpcklqdq	%xmm4, %xmm0
	movaps	%xmm2, 48(%rsp)
	movups	%xmm0, 40(%r14)
	testq	%rbx, %rbx
	je	.L2168
	cmpb	$0, (%r12)
	je	.L2169
	addl	$1, 8(%rbx)
.L2168:
	movq	48(%r13), %rax
	leaq	24(%rax), %rdi
	call	pthread_mutex_lock@PLT
	movq	48(%r13), %rdi
	cmpb	$0, 64(%rdi)
	je	.L2170
	movq	80(%rdi), %rax
	movq	$0, (%r14)
	testq	%rax, %rax
	je	.L2171
	movq	%r14, (%rax)
	movq	%r14, 80(%rdi)
.L2172:
	addq	$24, %rdi
	call	pthread_mutex_unlock@PLT
.L2173:
	testq	%rbx, %rbx
	je	.L2192
	movq	8(%rbx), %rdx
	leaq	8(%rbx), %r13
	movabsq	$4294967297, %rax
	cmpq	%rax, %rdx
	je	.L2240
	cmpb	$0, (%r12)
	je	.L2190
	movl	8(%rbx), %eax
	leal	-1(%rax), %edx
	movl	%edx, 8(%rbx)
	cmpl	$1, %eax
	je	.L2191
.L2189:
	movabsq	$4294967297, %rax
	movq	8(%rbx), %rdx
	cmpq	%rax, %rdx
	je	.L2241
	cmpb	$0, (%r12)
	je	.L2195
	movl	8(%rbx), %eax
	leal	-1(%rax), %edx
	movl	%edx, 8(%rbx)
.L2196:
	cmpl	$1, %eax
	je	.L2242
.L2192:
	movabsq	$4294967297, %rax
	movq	8(%rbp), %rdx
	cmpq	%rax, %rdx
	je	.L2243
	cmpb	$0, (%r12)
	je	.L2198
	movl	8(%rbp), %eax
	leal	-1(%rax), %edx
	movl	%edx, 8(%rbp)
.L2199:
	cmpl	$1, %eax
	je	.L2244
	addq	$120, %rsp
	.cfi_remember_state
	.cfi_def_cfa_offset 56
	popq	%rbx
	.cfi_def_cfa_offset 48
	popq	%rbp
	.cfi_def_cfa_offset 40
	popq	%r12
	.cfi_def_cfa_offset 32
	popq	%r13
	.cfi_def_cfa_offset 24
	popq	%r14
	.cfi_def_cfa_offset 16
	popq	%r15
	.cfi_def_cfa_offset 8
	ret
	.p2align 4,,10
	.p2align 3
.L2160:
	.cfi_restore_state
	lock addl	$1, 8(%rbx)
	movq	72(%rdi), %r13
	cmpb	$0, (%r12)
	jne	.L2161
	lock addl	$1, 8(%rbp)
	cmpb	$0, (%r12)
	jne	.L2163
	lock addl	$1, 8(%rbx)
	jmp	.L2164
	.p2align 4,,10
	.p2align 3
.L2198:
	leaq	8(%rbp), %rcx
	movl	$-1, %eax
	lock xaddl	%eax, (%rcx)
	jmp	.L2199
	.p2align 4,,10
	.p2align 3
.L2190:
	lock subl	$1, 0(%r13)
	jne	.L2189
.L2191:
	movq	%rbx, %rdi
	call	_ZNSt16_Sp_counted_baseILN9__gnu_cxx12_Lock_policyE2EE24_M_release_last_use_coldEv@PLT
	jmp	.L2189
	.p2align 4,,10
	.p2align 3
.L2170:
	movb	$1, 64(%rdi)
	addq	$24, %rdi
	call	pthread_mutex_unlock@PLT
	movq	48(%r13), %rdx
	movq	$0, (%r14)
	movq	%rdx, %xmm5
	movq	96(%rdx), %rax
	punpcklqdq	%xmm5, %xmm5
	movaps	%xmm5, 16(%rsp)
	testq	%rax, %rax
	je	.L2174
	movq	%r14, (%rax)
	movq	%r14, 96(%rdx)
.L2175:
	movq	40(%rsp), %rax
	movq	40(%rax), %r13
	cmpb	$0, 40(%r13)
	je	.L2176
	movq	%rdx, (%rsp)
	data16	leaq	_ZN4asio6detail15keyword_tss_ptrINS0_10call_stackINS0_15task_io_serviceENS0_27task_io_service_thread_infoEE7contextEE6value_E@tlsgd(%rip), %rdi
	.value	0x6666
	rex64
	call	__tls_get_addr@PLT
