	.file	"SerialIOHandler.cpp"
	.text
	.section	.rodata._ZNK4asio6detail15system_category4nameEv.str1.1,"aMS",@progbits,1
.LC0:
	.string	"asio.system"
	.section	.text._ZNK4asio6detail15system_category4nameEv,"axG",@progbits,_ZNK4asio6detail15system_category4nameEv,comdat
	.align 2
	.p2align 4
	.weak	_ZNK4asio6detail15system_category4nameEv
	.type	_ZNK4asio6detail15system_category4nameEv, @function
_ZNK4asio6detail15system_category4nameEv:
.LFB2925:
	.cfi_startproc
	leaq	.LC0(%rip), %rax
	ret
	.cfi_endproc
.LFE2925:
	.size	_ZNK4asio6detail15system_category4nameEv, .-_ZNK4asio6detail15system_category4nameEv
	.section	.rodata._ZNK4asio5error6detail14netdb_category4nameEv.str1.1,"aMS",@progbits,1
.LC1:
	.string	"asio.netdb"
	.section	.text._ZNK4asio5error6detail14netdb_category4nameEv,"axG",@progbits,_ZNK4asio5error6detail14netdb_category4nameEv,comdat
	.align 2
	.p2align 4
	.weak	_ZNK4asio5error6detail14netdb_category4nameEv
	.type	_ZNK4asio5error6detail14netdb_category4nameEv, @function
_ZNK4asio5error6detail14netdb_category4nameEv:
.LFB2969:
	.cfi_startproc
	leaq	.LC1(%rip), %rax
	ret
	.cfi_endproc
.LFE2969:
	.size	_ZNK4asio5error6detail14netdb_category4nameEv, .-_ZNK4asio5error6detail14netdb_category4nameEv
	.section	.rodata._ZNK4asio5error6detail17addrinfo_category4nameEv.str1.1,"aMS",@progbits,1
.LC2:
	.string	"asio.addrinfo"
	.section	.text._ZNK4asio5error6detail17addrinfo_category4nameEv,"axG",@progbits,_ZNK4asio5error6detail17addrinfo_category4nameEv,comdat
	.align 2
	.p2align 4
	.weak	_ZNK4asio5error6detail17addrinfo_category4nameEv
	.type	_ZNK4asio5error6detail17addrinfo_category4nameEv, @function
_ZNK4asio5error6detail17addrinfo_category4nameEv:
.LFB2979:
	.cfi_startproc
	leaq	.LC2(%rip), %rax
	ret
	.cfi_endproc
.LFE2979:
	.size	_ZNK4asio5error6detail17addrinfo_category4nameEv, .-_ZNK4asio5error6detail17addrinfo_category4nameEv
	.section	.rodata._ZNK4asio5error6detail13misc_category4nameEv.str1.1,"aMS",@progbits,1
.LC3:
	.string	"asio.misc"
	.section	.text._ZNK4asio5error6detail13misc_category4nameEv,"axG",@progbits,_ZNK4asio5error6detail13misc_category4nameEv,comdat
	.align 2
	.p2align 4
	.weak	_ZNK4asio5error6detail13misc_category4nameEv
	.type	_ZNK4asio5error6detail13misc_category4nameEv, @function
_ZNK4asio5error6detail13misc_category4nameEv:
.LFB2989:
	.cfi_startproc
	leaq	.LC3(%rip), %rax
	ret
	.cfi_endproc
.LFE2989:
	.size	_ZNK4asio5error6detail13misc_category4nameEv, .-_ZNK4asio5error6detail13misc_category4nameEv
	.section	.text._ZN4asio6detail7tss_ptrINS0_10call_stackINS0_14strand_service11strand_implEhE7contextEED2Ev,"axG",@progbits,_ZN4asio6detail7tss_ptrINS0_10call_stackINS0_14strand_service11strand_implEhE7contextEED5Ev,comdat
	.align 2
	.p2align 4
	.weak	_ZN4asio6detail7tss_ptrINS0_10call_stackINS0_14strand_service11strand_implEhE7contextEED2Ev
	.type	_ZN4asio6detail7tss_ptrINS0_10call_stackINS0_14strand_service11strand_implEhE7contextEED2Ev, @function
_ZN4asio6detail7tss_ptrINS0_10call_stackINS0_14strand_service11strand_implEhE7contextEED2Ev:
.LFB10216:
	.cfi_startproc
	ret
	.cfi_endproc
.LFE10216:
	.size	_ZN4asio6detail7tss_ptrINS0_10call_stackINS0_14strand_service11strand_implEhE7contextEED2Ev, .-_ZN4asio6detail7tss_ptrINS0_10call_stackINS0_14strand_service11strand_implEhE7contextEED2Ev
	.weak	_ZN4asio6detail7tss_ptrINS0_10call_stackINS0_14strand_service11strand_implEhE7contextEED1Ev
	.set	_ZN4asio6detail7tss_ptrINS0_10call_stackINS0_14strand_service11strand_implEhE7contextEED1Ev,_ZN4asio6detail7tss_ptrINS0_10call_stackINS0_14strand_service11strand_implEhE7contextEED2Ev
	.section	.text._ZNSt23_Sp_counted_ptr_inplaceIN7asiopal13SerialChannelESaIvELN9__gnu_cxx12_Lock_policyE2EED2Ev,"axG",@progbits,_ZNSt23_Sp_counted_ptr_inplaceIN7asiopal13SerialChannelESaIvELN9__gnu_cxx12_Lock_policyE2EED5Ev,comdat
	.align 2
	.p2align 4
	.weak	_ZNSt23_Sp_counted_ptr_inplaceIN7asiopal13SerialChannelESaIvELN9__gnu_cxx12_Lock_policyE2EED2Ev
	.type	_ZNSt23_Sp_counted_ptr_inplaceIN7asiopal13SerialChannelESaIvELN9__gnu_cxx12_Lock_policyE2EED2Ev, @function
_ZNSt23_Sp_counted_ptr_inplaceIN7asiopal13SerialChannelESaIvELN9__gnu_cxx12_Lock_policyE2EED2Ev:
.LFB10229:
	.cfi_startproc
	ret
	.cfi_endproc
.LFE10229:
	.size	_ZNSt23_Sp_counted_ptr_inplaceIN7asiopal13SerialChannelESaIvELN9__gnu_cxx12_Lock_policyE2EED2Ev, .-_ZNSt23_Sp_counted_ptr_inplaceIN7asiopal13SerialChannelESaIvELN9__gnu_cxx12_Lock_policyE2EED2Ev
	.weak	_ZNSt23_Sp_counted_ptr_inplaceIN7asiopal13SerialChannelESaIvELN9__gnu_cxx12_Lock_policyE2EED1Ev
	.set	_ZNSt23_Sp_counted_ptr_inplaceIN7asiopal13SerialChannelESaIvELN9__gnu_cxx12_Lock_policyE2EED1Ev,_ZNSt23_Sp_counted_ptr_inplaceIN7asiopal13SerialChannelESaIvELN9__gnu_cxx12_Lock_policyE2EED2Ev
	.section	.text._ZNSt23_Sp_counted_ptr_inplaceIN7asiopal13SerialChannelESaIvELN9__gnu_cxx12_Lock_policyE2EED0Ev,"axG",@progbits,_ZNSt23_Sp_counted_ptr_inplaceIN7asiopal13SerialChannelESaIvELN9__gnu_cxx12_Lock_policyE2EED5Ev,comdat
	.align 2
	.p2align 4
	.weak	_ZNSt23_Sp_counted_ptr_inplaceIN7asiopal13SerialChannelESaIvELN9__gnu_cxx12_Lock_policyE2EED0Ev
	.type	_ZNSt23_Sp_counted_ptr_inplaceIN7asiopal13SerialChannelESaIvELN9__gnu_cxx12_Lock_policyE2EED0Ev, @function
_ZNSt23_Sp_counted_ptr_inplaceIN7asiopal13SerialChannelESaIvELN9__gnu_cxx12_Lock_policyE2EED0Ev:
.LFB10231:
	.cfi_startproc
	movl	$104, %esi
	jmp	_ZdlPvm@PLT
	.cfi_endproc
.LFE10231:
	.size	_ZNSt23_Sp_counted_ptr_inplaceIN7asiopal13SerialChannelESaIvELN9__gnu_cxx12_Lock_policyE2EED0Ev, .-_ZNSt23_Sp_counted_ptr_inplaceIN7asiopal13SerialChannelESaIvELN9__gnu_cxx12_Lock_policyE2EED0Ev
	.section	.text._ZNSt23_Sp_counted_ptr_inplaceIN7asiopal13SerialChannelESaIvELN9__gnu_cxx12_Lock_policyE2EE10_M_destroyEv,"axG",@progbits,_ZNSt23_Sp_counted_ptr_inplaceIN7asiopal13SerialChannelESaIvELN9__gnu_cxx12_Lock_policyE2EE10_M_destroyEv,comdat
	.align 2
	.p2align 4
	.weak	_ZNSt23_Sp_counted_ptr_inplaceIN7asiopal13SerialChannelESaIvELN9__gnu_cxx12_Lock_policyE2EE10_M_destroyEv
	.type	_ZNSt23_Sp_counted_ptr_inplaceIN7asiopal13SerialChannelESaIvELN9__gnu_cxx12_Lock_policyE2EE10_M_destroyEv, @function
_ZNSt23_Sp_counted_ptr_inplaceIN7asiopal13SerialChannelESaIvELN9__gnu_cxx12_Lock_policyE2EE10_M_destroyEv:
.LFB10233:
	.cfi_startproc
	movl	$104, %esi
	jmp	_ZdlPvm@PLT
	.cfi_endproc
.LFE10233:
	.size	_ZNSt23_Sp_counted_ptr_inplaceIN7asiopal13SerialChannelESaIvELN9__gnu_cxx12_Lock_policyE2EE10_M_destroyEv, .-_ZNSt23_Sp_counted_ptr_inplaceIN7asiopal13SerialChannelESaIvELN9__gnu_cxx12_Lock_policyE2EE10_M_destroyEv
	.section	.text._ZN4asio6detail15system_categoryD2Ev,"axG",@progbits,_ZN4asio6detail15system_categoryD5Ev,comdat
	.align 2
	.p2align 4
	.weak	_ZN4asio6detail15system_categoryD2Ev
	.type	_ZN4asio6detail15system_categoryD2Ev, @function
_ZN4asio6detail15system_categoryD2Ev:
.LFB2937:
	.cfi_startproc
	movq	_ZTVN4asio6detail15system_categoryE@GOTPCREL(%rip), %rax
	addq	$16, %rax
	movq	%rax, (%rdi)
	jmp	_ZNSt3_V214error_categoryD2Ev@PLT
	.cfi_endproc
.LFE2937:
	.size	_ZN4asio6detail15system_categoryD2Ev, .-_ZN4asio6detail15system_categoryD2Ev
	.weak	_ZN4asio6detail15system_categoryD1Ev
	.set	_ZN4asio6detail15system_categoryD1Ev,_ZN4asio6detail15system_categoryD2Ev
	.section	.text._ZN4asio6detail15system_categoryD0Ev,"axG",@progbits,_ZN4asio6detail15system_categoryD5Ev,comdat
	.align 2
	.p2align 4
	.weak	_ZN4asio6detail15system_categoryD0Ev
	.type	_ZN4asio6detail15system_categoryD0Ev, @function
_ZN4asio6detail15system_categoryD0Ev:
.LFB2939:
	.cfi_startproc
	subq	$24, %rsp
	.cfi_def_cfa_offset 32
	movq	_ZTVN4asio6detail15system_categoryE@GOTPCREL(%rip), %rax
	movq	%rdi, 8(%rsp)
	addq	$16, %rax
	movq	%rax, (%rdi)
	call	_ZNSt3_V214error_categoryD2Ev@PLT
	movq	8(%rsp), %rdi
	movl	$8, %esi
	addq	$24, %rsp
	.cfi_def_cfa_offset 8
	jmp	_ZdlPvm@PLT
	.cfi_endproc
.LFE2939:
	.size	_ZN4asio6detail15system_categoryD0Ev, .-_ZN4asio6detail15system_categoryD0Ev
	.section	.text._ZN4asio5error6detail14netdb_categoryD2Ev,"axG",@progbits,_ZN4asio5error6detail14netdb_categoryD5Ev,comdat
	.align 2
	.p2align 4
	.weak	_ZN4asio5error6detail14netdb_categoryD2Ev
	.type	_ZN4asio5error6detail14netdb_categoryD2Ev, @function
_ZN4asio5error6detail14netdb_categoryD2Ev:
.LFB2976:
	.cfi_startproc
	movq	_ZTVN4asio5error6detail14netdb_categoryE@GOTPCREL(%rip), %rax
	addq	$16, %rax
	movq	%rax, (%rdi)
	jmp	_ZNSt3_V214error_categoryD2Ev@PLT
	.cfi_endproc
.LFE2976:
	.size	_ZN4asio5error6detail14netdb_categoryD2Ev, .-_ZN4asio5error6detail14netdb_categoryD2Ev
	.weak	_ZN4asio5error6detail14netdb_categoryD1Ev
	.set	_ZN4asio5error6detail14netdb_categoryD1Ev,_ZN4asio5error6detail14netdb_categoryD2Ev
	.section	.text._ZN4asio5error6detail14netdb_categoryD0Ev,"axG",@progbits,_ZN4asio5error6detail14netdb_categoryD5Ev,comdat
	.align 2
	.p2align 4
	.weak	_ZN4asio5error6detail14netdb_categoryD0Ev
	.type	_ZN4asio5error6detail14netdb_categoryD0Ev, @function
_ZN4asio5error6detail14netdb_categoryD0Ev:
.LFB2978:
	.cfi_startproc
	subq	$24, %rsp
	.cfi_def_cfa_offset 32
	movq	_ZTVN4asio5error6detail14netdb_categoryE@GOTPCREL(%rip), %rax
	movq	%rdi, 8(%rsp)
	addq	$16, %rax
	movq	%rax, (%rdi)
	call	_ZNSt3_V214error_categoryD2Ev@PLT
	movq	8(%rsp), %rdi
	movl	$8, %esi
	addq	$24, %rsp
	.cfi_def_cfa_offset 8
	jmp	_ZdlPvm@PLT
	.cfi_endproc
.LFE2978:
	.size	_ZN4asio5error6detail14netdb_categoryD0Ev, .-_ZN4asio5error6detail14netdb_categoryD0Ev
	.section	.text._ZN4asio5error6detail17addrinfo_categoryD2Ev,"axG",@progbits,_ZN4asio5error6detail17addrinfo_categoryD5Ev,comdat
	.align 2
	.p2align 4
	.weak	_ZN4asio5error6detail17addrinfo_categoryD2Ev
	.type	_ZN4asio5error6detail17addrinfo_categoryD2Ev, @function
_ZN4asio5error6detail17addrinfo_categoryD2Ev:
.LFB2986:
	.cfi_startproc
	movq	_ZTVN4asio5error6detail17addrinfo_categoryE@GOTPCREL(%rip), %rax
	addq	$16, %rax
	movq	%rax, (%rdi)
	jmp	_ZNSt3_V214error_categoryD2Ev@PLT
	.cfi_endproc
.LFE2986:
	.size	_ZN4asio5error6detail17addrinfo_categoryD2Ev, .-_ZN4asio5error6detail17addrinfo_categoryD2Ev
	.weak	_ZN4asio5error6detail17addrinfo_categoryD1Ev
	.set	_ZN4asio5error6detail17addrinfo_categoryD1Ev,_ZN4asio5error6detail17addrinfo_categoryD2Ev
	.section	.text._ZN4asio5error6detail17addrinfo_categoryD0Ev,"axG",@progbits,_ZN4asio5error6detail17addrinfo_categoryD5Ev,comdat
	.align 2
	.p2align 4
	.weak	_ZN4asio5error6detail17addrinfo_categoryD0Ev
	.type	_ZN4asio5error6detail17addrinfo_categoryD0Ev, @function
_ZN4asio5error6detail17addrinfo_categoryD0Ev:
.LFB2988:
	.cfi_startproc
	subq	$24, %rsp
	.cfi_def_cfa_offset 32
	movq	_ZTVN4asio5error6detail17addrinfo_categoryE@GOTPCREL(%rip), %rax
	movq	%rdi, 8(%rsp)
	addq	$16, %rax
	movq	%rax, (%rdi)
	call	_ZNSt3_V214error_categoryD2Ev@PLT
	movq	8(%rsp), %rdi
	movl	$8, %esi
	addq	$24, %rsp
	.cfi_def_cfa_offset 8
	jmp	_ZdlPvm@PLT
	.cfi_endproc
.LFE2988:
	.size	_ZN4asio5error6detail17addrinfo_categoryD0Ev, .-_ZN4asio5error6detail17addrinfo_categoryD0Ev
	.section	.text._ZN4asio5error6detail13misc_categoryD2Ev,"axG",@progbits,_ZN4asio5error6detail13misc_categoryD5Ev,comdat
	.align 2
	.p2align 4
	.weak	_ZN4asio5error6detail13misc_categoryD2Ev
	.type	_ZN4asio5error6detail13misc_categoryD2Ev, @function
_ZN4asio5error6detail13misc_categoryD2Ev:
.LFB2996:
	.cfi_startproc
	movq	_ZTVN4asio5error6detail13misc_categoryE@GOTPCREL(%rip), %rax
	addq	$16, %rax
	movq	%rax, (%rdi)
	jmp	_ZNSt3_V214error_categoryD2Ev@PLT
	.cfi_endproc
.LFE2996:
	.size	_ZN4asio5error6detail13misc_categoryD2Ev, .-_ZN4asio5error6detail13misc_categoryD2Ev
	.weak	_ZN4asio5error6detail13misc_categoryD1Ev
	.set	_ZN4asio5error6detail13misc_categoryD1Ev,_ZN4asio5error6detail13misc_categoryD2Ev
	.section	.text._ZN4asio5error6detail13misc_categoryD0Ev,"axG",@progbits,_ZN4asio5error6detail13misc_categoryD5Ev,comdat
	.align 2
	.p2align 4
	.weak	_ZN4asio5error6detail13misc_categoryD0Ev
	.type	_ZN4asio5error6detail13misc_categoryD0Ev, @function
_ZN4asio5error6detail13misc_categoryD0Ev:
.LFB2998:
	.cfi_startproc
	subq	$24, %rsp
	.cfi_def_cfa_offset 32
	movq	_ZTVN4asio5error6detail13misc_categoryE@GOTPCREL(%rip), %rax
	movq	%rdi, 8(%rsp)
	addq	$16, %rax
	movq	%rax, (%rdi)
	call	_ZNSt3_V214error_categoryD2Ev@PLT
	movq	8(%rsp), %rdi
	movl	$8, %esi
	addq	$24, %rsp
	.cfi_def_cfa_offset 8
	jmp	_ZdlPvm@PLT
	.cfi_endproc
.LFE2998:
	.size	_ZN4asio5error6detail13misc_categoryD0Ev, .-_ZN4asio5error6detail13misc_categoryD0Ev
	.text
	.align 2
	.p2align 4
	.globl	_ZN8asiodnp315SerialIOHandler20SuspendChannelAcceptEv
	.type	_ZN8asiodnp315SerialIOHandler20SuspendChannelAcceptEv, @function
_ZN8asiodnp315SerialIOHandler20SuspendChannelAcceptEv:
.LFB7735:
	.cfi_startproc
	addq	$896, %rdi
	jmp	_ZN7openpal8TimerRef6CancelEv@PLT
	.cfi_endproc
.LFE7735:
	.size	_ZN8asiodnp315SerialIOHandler20SuspendChannelAcceptEv, .-_ZN8asiodnp315SerialIOHandler20SuspendChannelAcceptEv
	.globl	_ZN8asiodnp315SerialIOHandler10ResetStateEv
	.set	_ZN8asiodnp315SerialIOHandler10ResetStateEv,_ZN8asiodnp315SerialIOHandler20SuspendChannelAcceptEv
	.align 2
	.p2align 4
	.globl	_ZN8asiodnp315SerialIOHandler12ShutdownImplEv
	.type	_ZN8asiodnp315SerialIOHandler12ShutdownImplEv, @function
_ZN8asiodnp315SerialIOHandler12ShutdownImplEv:
.LFB7733:
	.cfi_startproc
	jmp	_ZN8asiodnp315SerialIOHandler10ResetStateEv@PLT
	.cfi_endproc
.LFE7733:
	.size	_ZN8asiodnp315SerialIOHandler12ShutdownImplEv, .-_ZN8asiodnp315SerialIOHandler12ShutdownImplEv
	.p2align 4
	.type	_ZNSt17_Function_handlerIFvvEZN7openpal8TimerRef5StartIZN8asiodnp315SerialIOHandler7TryOpenERKNS1_12TimeDurationEEUlvE_EEbS8_RKT_EUlvE_E10_M_managerERSt9_Any_dataRKSF_St18_Manager_operation, @function
_ZNSt17_Function_handlerIFvvEZN7openpal8TimerRef5StartIZN8asiodnp315SerialIOHandler7TryOpenERKNS1_12TimeDurationEEUlvE_EEbS8_RKT_EUlvE_E10_M_managerERSt9_Any_dataRKSF_St18_Manager_operation:
.LFB9431:
	.cfi_startproc
	testl	%edx, %edx
	je	.L25
	cmpl	$1, %edx
	je	.L26
	subq	$24, %rsp
	.cfi_def_cfa_offset 32
	cmpl	$2, %edx
	je	.L29
	cmpl	$3, %edx
	je	.L30
.L28:
	xorl	%eax, %eax
	addq	$24, %rsp
	.cfi_def_cfa_offset 8
	ret
	.p2align 4,,10
	.p2align 3
.L26:
	movq	(%rsi), %rax
	movq	%rax, (%rdi)
	xorl	%eax, %eax
	ret
	.p2align 4,,10
	.p2align 3
.L25:
	leaq	_ZTIZN7openpal8TimerRef5StartIZN8asiodnp315SerialIOHandler7TryOpenERKNS_12TimeDurationEEUlvE_EEbS6_RKT_EUlvE_(%rip), %rax
	movq	%rax, (%rdi)
	xorl	%eax, %eax
	ret
	.p2align 4,,10
	.p2align 3
.L30:
	.cfi_def_cfa_offset 32
	movq	(%rdi), %rdi
	testq	%rdi, %rdi
	je	.L28
	movl	$24, %esi
	call	_ZdlPvm@PLT
	jmp	.L28
	.p2align 4,,10
	.p2align 3
.L29:
	movq	(%rsi), %rdx
	movq	%rdi, 8(%rsp)
	movl	$24, %edi
	movq	%rdx, (%rsp)
	call	_Znwm@PLT
	movq	(%rsp), %rdx
	movq	8(%rsp), %rcx
	movdqu	(%rdx), %xmm0
	movups	%xmm0, (%rax)
	movq	16(%rdx), %rdx
	movq	%rax, (%rcx)
	movq	%rdx, 16(%rax)
	jmp	.L28
	.cfi_endproc
.LFE9431:
	.size	_ZNSt17_Function_handlerIFvvEZN7openpal8TimerRef5StartIZN8asiodnp315SerialIOHandler7TryOpenERKNS1_12TimeDurationEEUlvE_EEbS8_RKT_EUlvE_E10_M_managerERSt9_Any_dataRKSF_St18_Manager_operation, .-_ZNSt17_Function_handlerIFvvEZN7openpal8TimerRef5StartIZN8asiodnp315SerialIOHandler7TryOpenERKNS1_12TimeDurationEEUlvE_EEbS8_RKT_EUlvE_E10_M_managerERSt9_Any_dataRKSF_St18_Manager_operation
	.section	.text._ZNSt23_Sp_counted_ptr_inplaceIN7asiopal13SerialChannelESaIvELN9__gnu_cxx12_Lock_policyE2EE14_M_get_deleterERKSt9type_info,"axG",@progbits,_ZNSt23_Sp_counted_ptr_inplaceIN7asiopal13SerialChannelESaIvELN9__gnu_cxx12_Lock_policyE2EE14_M_get_deleterERKSt9type_info,comdat
	.align 2
	.p2align 4
	.weak	_ZNSt23_Sp_counted_ptr_inplaceIN7asiopal13SerialChannelESaIvELN9__gnu_cxx12_Lock_policyE2EE14_M_get_deleterERKSt9type_info
	.type	_ZNSt23_Sp_counted_ptr_inplaceIN7asiopal13SerialChannelESaIvELN9__gnu_cxx12_Lock_policyE2EE14_M_get_deleterERKSt9type_info, @function
_ZNSt23_Sp_counted_ptr_inplaceIN7asiopal13SerialChannelESaIvELN9__gnu_cxx12_Lock_policyE2EE14_M_get_deleterERKSt9type_info:
.LFB10234:
	.cfi_startproc
	cmpq	_ZZNSt19_Sp_make_shared_tag5_S_tiEvE5__tag@GOTPCREL(%rip), %rsi
	movq	%rdi, %rcx
	je	.L45
	movq	8(%rsi), %rdi
	movq	_ZTSSt19_Sp_make_shared_tag@GOTPCREL(%rip), %rsi
	cmpq	%rsi, %rdi
	je	.L45
	xorl	%edx, %edx
	cmpb	$42, (%rdi)
	je	.L46
	subq	$24, %rsp
	.cfi_def_cfa_offset 32
	movq	%rdx, (%rsp)
	movq	%rcx, 8(%rsp)
	call	strcmp@PLT
	xorl	%edx, %edx
	movq	8(%rsp), %rcx
	testl	%eax, %eax
	jne	.L39
	leaq	16(%rcx), %rdx
.L39:
	movq	%rdx, %rax
	addq	$24, %rsp
	.cfi_def_cfa_offset 8
	ret
	.p2align 4,,10
	.p2align 3
.L45:
	leaq	16(%rcx), %rdx
.L46:
	movq	%rdx, %rax
	ret
	.cfi_endproc
.LFE10234:
	.size	_ZNSt23_Sp_counted_ptr_inplaceIN7asiopal13SerialChannelESaIvELN9__gnu_cxx12_Lock_policyE2EE14_M_get_deleterERKSt9type_info, .-_ZNSt23_Sp_counted_ptr_inplaceIN7asiopal13SerialChannelESaIvELN9__gnu_cxx12_Lock_policyE2EE14_M_get_deleterERKSt9type_info
	.section	.text._ZNSt8_Rb_treeIPN8opendnp317IScheduleCallbackES2_St9_IdentityIS2_ESt4lessIS2_ESaIS2_EE8_M_eraseEPSt13_Rb_tree_nodeIS2_E.isra.0,"axG",@progbits,_ZN8asiodnp39IOHandlerD5Ev,comdat
	.align 2
	.p2align 4
	.type	_ZNSt8_Rb_treeIPN8opendnp317IScheduleCallbackES2_St9_IdentityIS2_ESt4lessIS2_ESaIS2_EE8_M_eraseEPSt13_Rb_tree_nodeIS2_E.isra.0, @function
_ZNSt8_Rb_treeIPN8opendnp317IScheduleCallbackES2_St9_IdentityIS2_ESt4lessIS2_ESaIS2_EE8_M_eraseEPSt13_Rb_tree_nodeIS2_E.isra.0:
.LFB10346:
	.cfi_startproc
	pushq	%r15
	.cfi_def_cfa_offset 16
	.cfi_offset 15, -16
	pushq	%r14
	.cfi_def_cfa_offset 24
	.cfi_offset 14, -24
	pushq	%r13
	.cfi_def_cfa_offset 32
	.cfi_offset 13, -32
	pushq	%r12
	.cfi_def_cfa_offset 40
	.cfi_offset 12, -40
	pushq	%rbp
	.cfi_def_cfa_offset 48
	.cfi_offset 6, -48
	pushq	%rbx
	.cfi_def_cfa_offset 56
	.cfi_offset 3, -56
	subq	$40, %rsp
	.cfi_def_cfa_offset 96
	movq	%rdi, 16(%rsp)
	testq	%rdi, %rdi
	je	.L49
.L67:
	movq	16(%rsp), %rax
	movq	24(%rax), %rax
	movq	%rax, 8(%rsp)
	testq	%rax, %rax
	je	.L51
.L66:
	movq	8(%rsp), %rax
	movq	24(%rax), %r14
	testq	%r14, %r14
	je	.L52
.L65:
	movq	24(%r14), %r15
	testq	%r15, %r15
	je	.L53
.L64:
	movq	24(%r15), %rbx
	testq	%rbx, %rbx
	je	.L54
.L63:
	movq	24(%rbx), %r12
	testq	%r12, %r12
	je	.L55
.L62:
	movq	24(%r12), %rbp
	testq	%rbp, %rbp
	je	.L56
.L61:
	movq	24(%rbp), %rax
	testq	%rax, %rax
	je	.L57
.L60:
	movq	24(%rax), %r13
	testq	%r13, %r13
	je	.L58
.L59:
	movq	24(%r13), %rdi
	movq	%rax, 24(%rsp)
	call	_ZNSt8_Rb_treeIPN8opendnp317IScheduleCallbackES2_St9_IdentityIS2_ESt4lessIS2_ESaIS2_EE8_M_eraseEPSt13_Rb_tree_nodeIS2_E.isra.0
	movq	%r13, %rdi
	movq	16(%r13), %r13
	movl	$40, %esi
	call	_ZdlPvm@PLT
	movq	24(%rsp), %rax
	testq	%r13, %r13
	jne	.L59
.L58:
	movq	16(%rax), %r13
	movl	$40, %esi
	movq	%rax, %rdi
	call	_ZdlPvm@PLT
	testq	%r13, %r13
	je	.L57
	movq	%r13, %rax
	jmp	.L60
.L55:
	movq	16(%rbx), %rbp
	movl	$40, %esi
	movq	%rbx, %rdi
	call	_ZdlPvm@PLT
	testq	%rbp, %rbp
	je	.L54
	movq	%rbp, %rbx
	jmp	.L63
	.p2align 4,,10
	.p2align 3
.L56:
	movq	16(%r12), %rbp
	movl	$40, %esi
	movq	%r12, %rdi
	call	_ZdlPvm@PLT
	testq	%rbp, %rbp
	je	.L55
	movq	%rbp, %r12
	jmp	.L62
.L54:
	movq	16(%r15), %rbx
	movl	$40, %esi
	movq	%r15, %rdi
	call	_ZdlPvm@PLT
	testq	%rbx, %rbx
	je	.L53
	movq	%rbx, %r15
	jmp	.L64
	.p2align 4,,10
	.p2align 3
.L57:
	movq	16(%rbp), %rax
	movl	$40, %esi
	movq	%rbp, %rdi
	movq	%rax, 24(%rsp)
	call	_ZdlPvm@PLT
	movq	24(%rsp), %rax
	testq	%rax, %rax
	je	.L56
	movq	%rax, %rbp
	jmp	.L61
.L53:
	movq	16(%r14), %rbx
	movl	$40, %esi
	movq	%r14, %rdi
	call	_ZdlPvm@PLT
	testq	%rbx, %rbx
	je	.L52
	movq	%rbx, %r14
	jmp	.L65
.L52:
	movq	8(%rsp), %rdi
	movl	$40, %esi
	movq	16(%rdi), %rbx
	call	_ZdlPvm@PLT
	testq	%rbx, %rbx
	je	.L51
	movq	%rbx, 8(%rsp)
	jmp	.L66
.L51:
	movq	16(%rsp), %rdi
	movl	$40, %esi
	movq	16(%rdi), %rbx
	call	_ZdlPvm@PLT
	testq	%rbx, %rbx
	je	.L49
	movq	%rbx, 16(%rsp)
	jmp	.L67
.L49:
	addq	$40, %rsp
	.cfi_def_cfa_offset 56
	popq	%rbx
	.cfi_def_cfa_offset 48
	popq	%rbp
	.cfi_def_cfa_offset 40
	popq	%r12
	.cfi_def_cfa_offset 32
	popq	%r13
	.cfi_def_cfa_offset 24
	popq	%r14
	.cfi_def_cfa_offset 16
	popq	%r15
	.cfi_def_cfa_offset 8
	ret
	.cfi_endproc
.LFE10346:
	.size	_ZNSt8_Rb_treeIPN8opendnp317IScheduleCallbackES2_St9_IdentityIS2_ESt4lessIS2_ESaIS2_EE8_M_eraseEPSt13_Rb_tree_nodeIS2_E.isra.0, .-_ZNSt8_Rb_treeIPN8opendnp317IScheduleCallbackES2_St9_IdentityIS2_ESt4lessIS2_ESaIS2_EE8_M_eraseEPSt13_Rb_tree_nodeIS2_E.isra.0
	.section	.rodata._ZNK4asio6detail15system_category7messageB5cxx11Ei.str1.8,"aMS",@progbits,1
	.align 8
.LC4:
	.string	"basic_string: construction from null is not valid"
	.section	.text._ZNK4asio6detail15system_category7messageB5cxx11Ei,"axG",@progbits,_ZNK4asio6detail15system_category7messageB5cxx11Ei,comdat
	.align 2
	.p2align 4
	.weak	_ZNK4asio6detail15system_category7messageB5cxx11Ei
	.type	_ZNK4asio6detail15system_category7messageB5cxx11Ei, @function
_ZNK4asio6detail15system_category7messageB5cxx11Ei:
.LFB2926:
	.cfi_startproc
	pushq	%r12
	.cfi_def_cfa_offset 16
	.cfi_offset 12, -16
	pushq	%rbp
	.cfi_def_cfa_offset 24
	.cfi_offset 6, -24
	pushq	%rbx
	.cfi_def_cfa_offset 32
	.cfi_offset 3, -32
	movq	%rdi, %rbx
	subq	$288, %rsp
	.cfi_def_cfa_offset 320
	cmpl	$125, %edx
	je	.L117
	pxor	%xmm0, %xmm0
	leaq	32(%rsp), %rsi
	leaq	16(%rbx), %rbp
	movl	%edx, %edi
	movl	$256, %edx
	movaps	%xmm0, 32(%rsp)
	movaps	%xmm0, 48(%rsp)
	movaps	%xmm0, 64(%rsp)
	movaps	%xmm0, 80(%rsp)
	movaps	%xmm0, 96(%rsp)
	movaps	%xmm0, 112(%rsp)
	movaps	%xmm0, 128(%rsp)
	movaps	%xmm0, 144(%rsp)
	movaps	%xmm0, 160(%rsp)
	movaps	%xmm0, 176(%rsp)
	movaps	%xmm0, 192(%rsp)
	movaps	%xmm0, 208(%rsp)
	movaps	%xmm0, 224(%rsp)
	movaps	%xmm0, 240(%rsp)
	movaps	%xmm0, 256(%rsp)
	movaps	%xmm0, 272(%rsp)
	call	strerror_r@PLT
	movq	%rbp, (%rbx)
	movq	%rax, %r12
	testq	%rax, %rax
	je	.L118
	movq	%rax, %rdi
	call	strlen@PLT
	movq	%rax, 24(%rsp)
	movq	%rax, %rcx
	cmpq	$15, %rax
	ja	.L119
	cmpq	$1, %rax
	jne	.L111
	movzbl	(%r12), %edx
	movb	%dl, 16(%rbx)
.L112:
	movq	%rax, 8(%rbx)
	movb	$0, 0(%rbp,%rax)
	addq	$288, %rsp
	.cfi_remember_state
	.cfi_def_cfa_offset 32
	movq	%rbx, %rax
	popq	%rbx
	.cfi_def_cfa_offset 24
	popq	%rbp
	.cfi_def_cfa_offset 16
	popq	%r12
	.cfi_def_cfa_offset 8
	ret
	.p2align 4,,10
	.p2align 3
.L119:
	.cfi_restore_state
	leaq	24(%rsp), %rsi
	xorl	%edx, %edx
	movq	%rbx, %rdi
	movq	%rax, 8(%rsp)
	call	_ZNSt7__cxx1112basic_stringIcSt11char_traitsIcESaIcEE9_M_createERmm@PLT
	movq	8(%rsp), %rcx
	movq	%rax, (%rbx)
	movq	%rax, %rbp
	movq	24(%rsp), %rax
	movq	%rax, 16(%rbx)
.L110:
	movq	%rbp, %rdi
	movq	%rcx, %rdx
	movq	%r12, %rsi
	call	memcpy@PLT
	movq	24(%rsp), %rax
	movq	(%rbx), %rbp
	jmp	.L112
	.p2align 4,,10
	.p2align 3
.L117:
	leaq	16(%rdi), %rax
	leaq	32(%rsp), %rsi
	xorl	%edx, %edx
	movq	$18, 32(%rsp)
	movq	%rax, (%rdi)
	call	_ZNSt7__cxx1112basic_stringIcSt11char_traitsIcESaIcEE9_M_createERmm@PLT
	movq	32(%rsp), %rdx
	movdqa	.LC5(%rip), %xmm0
	movq	%rax, (%rbx)
	movq	%rdx, 16(%rbx)
	movl	$11876, %edx
	movw	%dx, 16(%rax)
	movups	%xmm0, (%rax)
	movq	32(%rsp), %rax
	movq	(%rbx), %rdx
	movq	%rax, 8(%rbx)
	movb	$0, (%rdx,%rax)
	addq	$288, %rsp
	.cfi_remember_state
	.cfi_def_cfa_offset 32
	movq	%rbx, %rax
	popq	%rbx
	.cfi_def_cfa_offset 24
	popq	%rbp
	.cfi_def_cfa_offset 16
	popq	%r12
	.cfi_def_cfa_offset 8
	ret
	.p2align 4,,10
	.p2align 3
.L111:
	.cfi_restore_state
	testq	%rax, %rax
	je	.L112
	jmp	.L110
.L118:
	leaq	.LC4(%rip), %rdi
	call	_ZSt19__throw_logic_errorPKc@PLT
	.cfi_endproc
.LFE2926:
	.size	_ZNK4asio6detail15system_category7messageB5cxx11Ei, .-_ZNK4asio6detail15system_category7messageB5cxx11Ei
	.section	.text._ZNK4asio5error6detail17addrinfo_category7messageB5cxx11Ei,"axG",@progbits,_ZNK4asio5error6detail17addrinfo_category7messageB5cxx11Ei,comdat
	.align 2
	.p2align 4
	.weak	_ZNK4asio5error6detail17addrinfo_category7messageB5cxx11Ei
	.type	_ZNK4asio5error6detail17addrinfo_category7messageB5cxx11Ei, @function
_ZNK4asio5error6detail17addrinfo_category7messageB5cxx11Ei:
.LFB2980:
	.cfi_startproc
	pushq	%rbx
	.cfi_def_cfa_offset 16
	.cfi_offset 3, -16
	leaq	16(%rdi), %rax
	movq	%rdi, %rbx
	subq	$16, %rsp
	.cfi_def_cfa_offset 32
	movq	%rax, (%rdi)
	cmpl	$-8, %edx
	je	.L125
	cmpl	$-7, %edx
	je	.L126
	movq	$19, 8(%rsp)
	leaq	8(%rsp), %rsi
	xorl	%edx, %edx
	call	_ZNSt7__cxx1112basic_stringIcSt11char_traitsIcESaIcEE9_M_createERmm@PLT
	movq	8(%rsp), %rdx
	movdqa	.LC10(%rip), %xmm0
	movq	%rax, (%rbx)
	movq	%rdx, 16(%rbx)
	movups	%xmm0, (%rax)
	movl	$1919906418, 15(%rax)
	movq	8(%rsp), %rax
	movq	(%rbx), %rdx
	movq	%rax, 8(%rbx)
	movb	$0, (%rdx,%rax)
	addq	$16, %rsp
	.cfi_remember_state
	.cfi_def_cfa_offset 16
	movq	%rbx, %rax
	popq	%rbx
	.cfi_def_cfa_offset 8
	ret
	.p2align 4,,10
	.p2align 3
.L126:
	.cfi_restore_state
	movq	$25, 8(%rsp)
	leaq	8(%rsp), %rsi
	xorl	%edx, %edx
	call	_ZNSt7__cxx1112basic_stringIcSt11char_traitsIcESaIcEE9_M_createERmm@PLT
	movq	8(%rsp), %rdx
	movdqa	.LC8(%rip), %xmm0
	movq	%rax, (%rbx)
	movq	%rdx, 16(%rbx)
	movups	%xmm0, (%rax)
	movdqa	.LC9(%rip), %xmm0
	movups	%xmm0, 9(%rax)
	movq	8(%rsp), %rax
	movq	(%rbx), %rdx
	movq	%rax, 8(%rbx)
	movb	$0, (%rdx,%rax)
	addq	$16, %rsp
	.cfi_remember_state
	.cfi_def_cfa_offset 16
	movq	%rbx, %rax
	popq	%rbx
	.cfi_def_cfa_offset 8
	ret
	.p2align 4,,10
	.p2align 3
.L125:
	.cfi_restore_state
	movq	$17, 8(%rsp)
	leaq	8(%rsp), %rsi
	xorl	%edx, %edx
	call	_ZNSt7__cxx1112basic_stringIcSt11char_traitsIcESaIcEE9_M_createERmm@PLT
	movq	8(%rsp), %rdx
	movdqa	.LC7(%rip), %xmm0
	movq	%rax, (%rbx)
	movq	%rdx, 16(%rbx)
	movb	$100, 16(%rax)
	movups	%xmm0, (%rax)
	movq	8(%rsp), %rax
	movq	(%rbx), %rdx
	movq	%rax, 8(%rbx)
	movb	$0, (%rdx,%rax)
	addq	$16, %rsp
	.cfi_def_cfa_offset 16
	movq	%rbx, %rax
	popq	%rbx
	.cfi_def_cfa_offset 8
	ret
	.cfi_endproc
.LFE2980:
	.size	_ZNK4asio5error6detail17addrinfo_category7messageB5cxx11Ei, .-_ZNK4asio5error6detail17addrinfo_category7messageB5cxx11Ei
	.section	.text._ZNK4asio5error6detail14netdb_category7messageB5cxx11Ei,"axG",@progbits,_ZNK4asio5error6detail14netdb_category7messageB5cxx11Ei,comdat
	.align 2
	.p2align 4
	.weak	_ZNK4asio5error6detail14netdb_category7messageB5cxx11Ei
	.type	_ZNK4asio5error6detail14netdb_category7messageB5cxx11Ei, @function
_ZNK4asio5error6detail14netdb_category7messageB5cxx11Ei:
.LFB2970:
	.cfi_startproc
	pushq	%rbx
	.cfi_def_cfa_offset 16
	.cfi_offset 3, -16
	leaq	16(%rdi), %rax
	movq	%rdi, %rbx
	subq	$16, %rsp
	.cfi_def_cfa_offset 32
	movq	%rax, (%rdi)
	cmpl	$1, %edx
	je	.L134
	cmpl	$2, %edx
	je	.L135
	cmpl	$4, %edx
	je	.L136
	cmpl	$3, %edx
	je	.L137
	movq	$16, 8(%rsp)
	leaq	8(%rsp), %rsi
	xorl	%edx, %edx
	call	_ZNSt7__cxx1112basic_stringIcSt11char_traitsIcESaIcEE9_M_createERmm@PLT
	movq	8(%rsp), %rdx
	movdqa	.LC21(%rip), %xmm0
	movq	%rax, (%rbx)
	movq	%rdx, 16(%rbx)
	movups	%xmm0, (%rax)
	movq	8(%rsp), %rax
	movq	(%rbx), %rdx
	movq	%rax, 8(%rbx)
	movb	$0, (%rdx,%rax)
	addq	$16, %rsp
	.cfi_remember_state
	.cfi_def_cfa_offset 16
	movq	%rbx, %rax
	popq	%rbx
	.cfi_def_cfa_offset 8
	ret
	.p2align 4,,10
	.p2align 3
.L134:
	.cfi_restore_state
	movq	$30, 8(%rsp)
	leaq	8(%rsp), %rsi
	xorl	%edx, %edx
	call	_ZNSt7__cxx1112basic_stringIcSt11char_traitsIcESaIcEE9_M_createERmm@PLT
	movq	8(%rsp), %rdx
	movdqa	.LC11(%rip), %xmm0
	movq	%rax, (%rbx)
	movq	%rdx, 16(%rbx)
	movups	%xmm0, (%rax)
	movdqa	.LC12(%rip), %xmm0
	movups	%xmm0, 14(%rax)
	movq	8(%rsp), %rax
	movq	(%rbx), %rdx
	movq	%rax, 8(%rbx)
	movb	$0, (%rdx,%rax)
	addq	$16, %rsp
	.cfi_remember_state
	.cfi_def_cfa_offset 16
	movq	%rbx, %rax
	popq	%rbx
	.cfi_def_cfa_offset 8
	ret
	.p2align 4,,10
	.p2align 3
.L137:
	.cfi_restore_state
	movq	$55, 8(%rsp)
	leaq	8(%rsp), %rsi
	xorl	%edx, %edx
	call	_ZNSt7__cxx1112basic_stringIcSt11char_traitsIcESaIcEE9_M_createERmm@PLT
	movq	8(%rsp), %rdx
	movdqa	.LC18(%rip), %xmm0
	movabsq	$8103501230877974629, %rcx
	movq	%rax, (%rbx)
	movq	%rdx, 16(%rbx)
	movups	%xmm0, (%rax)
	movdqa	.LC19(%rip), %xmm0
	movups	%xmm0, 16(%rax)
	movdqa	.LC20(%rip), %xmm0
	movups	%xmm0, 32(%rax)
	movq	%rcx, 47(%rax)
	movq	8(%rsp), %rax
	movq	(%rbx), %rdx
	movq	%rax, 8(%rbx)
	movb	$0, (%rdx,%rax)
	addq	$16, %rsp
	.cfi_remember_state
	.cfi_def_cfa_offset 16
	movq	%rbx, %rax
	popq	%rbx
	.cfi_def_cfa_offset 8
	ret
	.p2align 4,,10
	.p2align 3
.L135:
	.cfi_restore_state
	movq	$51, 8(%rsp)
	leaq	8(%rsp), %rsi
	xorl	%edx, %edx
	call	_ZNSt7__cxx1112basic_stringIcSt11char_traitsIcESaIcEE9_M_createERmm@PLT
	movq	8(%rsp), %rdx
	movdqa	.LC11(%rip), %xmm0
	movq	%rax, (%rbx)
	movq	%rdx, 16(%rbx)
	movups	%xmm0, (%rax)
	movdqa	.LC13(%rip), %xmm0
	movups	%xmm0, 16(%rax)
	movdqa	.LC14(%rip), %xmm0
	movups	%xmm0, 32(%rax)
	movl	$1919251553, 47(%rax)
	movq	8(%rsp), %rax
	movq	(%rbx), %rdx
	movq	%rax, 8(%rbx)
	movb	$0, (%rdx,%rax)
	addq	$16, %rsp
	.cfi_remember_state
	.cfi_def_cfa_offset 16
	movq	%rbx, %rax
	popq	%rbx
	.cfi_def_cfa_offset 8
	ret
	.p2align 4,,10
	.p2align 3
.L136:
	.cfi_restore_state
	movq	$56, 8(%rsp)
	leaq	8(%rsp), %rsi
	xorl	%edx, %edx
	call	_ZNSt7__cxx1112basic_stringIcSt11char_traitsIcESaIcEE9_M_createERmm@PLT
	movq	8(%rsp), %rdx
	movdqa	.LC15(%rip), %xmm0
	movabsq	$7022344801645520244, %rcx
	movq	%rax, (%rbx)
	movq	%rdx, 16(%rbx)
	movups	%xmm0, (%rax)
	movdqa	.LC16(%rip), %xmm0
	movq	%rcx, 48(%rax)
	movups	%xmm0, 16(%rax)
	movdqa	.LC17(%rip), %xmm0
	movups	%xmm0, 32(%rax)
	movq	8(%rsp), %rax
	movq	(%rbx), %rdx
	movq	%rax, 8(%rbx)
	movb	$0, (%rdx,%rax)
	addq	$16, %rsp
	.cfi_def_cfa_offset 16
	movq	%rbx, %rax
	popq	%rbx
	.cfi_def_cfa_offset 8
	ret
	.cfi_endproc
.LFE2970:
	.size	_ZNK4asio5error6detail14netdb_category7messageB5cxx11Ei, .-_ZNK4asio5error6detail14netdb_category7messageB5cxx11Ei
	.section	.text._ZNK4asio5error6detail13misc_category7messageB5cxx11Ei,"axG",@progbits,_ZNK4asio5error6detail13misc_category7messageB5cxx11Ei,comdat
	.align 2
	.p2align 4
	.weak	_ZNK4asio5error6detail13misc_category7messageB5cxx11Ei
	.type	_ZNK4asio5error6detail13misc_category7messageB5cxx11Ei, @function
_ZNK4asio5error6detail13misc_category7messageB5cxx11Ei:
.LFB2990:
	.cfi_startproc
	cmpl	$1, %edx
	je	.L147
	cmpl	$2, %edx
	je	.L148
	leaq	16(%rdi), %rax
	subq	$40, %rsp
	.cfi_def_cfa_offset 48
	movq	%rax, (%rdi)
	cmpl	$3, %edx
	je	.L149
	cmpl	$4, %edx
	je	.L150
	movabsq	$8316298233121436513, %rcx
	movq	$15, 8(%rdi)
	movq	%rdi, %rax
	movq	%rcx, 16(%rdi)
	movabsq	$8245935278387127155, %rcx
	movq	%rcx, 23(%rdi)
	movb	$0, 31(%rdi)
	addq	$40, %rsp
	.cfi_def_cfa_offset 8
	ret
	.p2align 4,,10
	.p2align 3
.L147:
	leaq	16(%rdi), %rax
	movl	$1852141679, 24(%rdi)
	movabsq	$2340011850872286273, %rsi
	movq	%rax, (%rdi)
	movq	%rdi, %rax
	movq	%rsi, 16(%rdi)
	movq	$12, 8(%rdi)
	movb	$0, 28(%rdi)
	ret
	.p2align 4,,10
	.p2align 3
.L150:
	.cfi_def_cfa_offset 48
	leaq	24(%rsp), %rsi
	xorl	%edx, %edx
	movq	%rdi, 8(%rsp)
	movq	$57, 24(%rsp)
	call	_ZNSt7__cxx1112basic_stringIcSt11char_traitsIcESaIcEE9_M_createERmm@PLT
	movq	24(%rsp), %rdx
	movq	8(%rsp), %rdi
	movdqa	.LC23(%rip), %xmm0
	movq	%rax, (%rdi)
	movq	%rdx, 16(%rdi)
	movups	%xmm0, (%rax)
	movdqa	.LC24(%rip), %xmm0
	movups	%xmm0, 16(%rax)
	movdqa	.LC25(%rip), %xmm0
	movups	%xmm0, 32(%rax)
	movdqa	.LC26(%rip), %xmm0
	movups	%xmm0, 41(%rax)
	movq	24(%rsp), %rax
	movq	(%rdi), %rdx
	movq	%rax, 8(%rdi)
	movb	$0, (%rdx,%rax)
	movq	%rdi, %rax
	addq	$40, %rsp
	.cfi_def_cfa_offset 8
	ret
	.p2align 4,,10
	.p2align 3
.L148:
	leaq	16(%rdi), %rax
	movq	$11, 8(%rdi)
	movabsq	$7358994418594246213, %rsi
	movq	%rax, (%rdi)
	movq	%rdi, %rax
	movq	%rsi, 16(%rdi)
	movb	$0, 27(%rdi)
	movl	$1701603686, 23(%rdi)
	ret
	.p2align 4,,10
	.p2align 3
.L149:
	.cfi_def_cfa_offset 48
	leaq	24(%rsp), %rsi
	xorl	%edx, %edx
	movq	%rdi, 8(%rsp)
	movq	$17, 24(%rsp)
	call	_ZNSt7__cxx1112basic_stringIcSt11char_traitsIcESaIcEE9_M_createERmm@PLT
	movq	8(%rsp), %rdi
	movq	24(%rsp), %rdx
	movdqa	.LC22(%rip), %xmm0
	movq	%rax, (%rdi)
	movq	%rdx, 16(%rdi)
	movb	$100, 16(%rax)
	movups	%xmm0, (%rax)
	movq	24(%rsp), %rax
	movq	(%rdi), %rdx
	movq	%rax, 8(%rdi)
	movb	$0, (%rdx,%rax)
	movq	%rdi, %rax
	addq	$40, %rsp
	.cfi_def_cfa_offset 8
	ret
	.cfi_endproc
.LFE2990:
	.size	_ZNK4asio5error6detail13misc_category7messageB5cxx11Ei, .-_ZNK4asio5error6detail13misc_category7messageB5cxx11Ei
	.section	.text._ZNSt16_Sp_counted_baseILN9__gnu_cxx12_Lock_policyE2EE24_M_release_last_use_coldEv,"axG",@progbits,_ZNSt16_Sp_counted_baseILN9__gnu_cxx12_Lock_policyE2EE24_M_release_last_use_coldEv,comdat
	.align 2
	.p2align 4
	.weak	_ZNSt16_Sp_counted_baseILN9__gnu_cxx12_Lock_policyE2EE24_M_release_last_use_coldEv
	.type	_ZNSt16_Sp_counted_baseILN9__gnu_cxx12_Lock_policyE2EE24_M_release_last_use_coldEv, @function
_ZNSt16_Sp_counted_baseILN9__gnu_cxx12_Lock_policyE2EE24_M_release_last_use_coldEv:
.LFB7746:
	.cfi_startproc
	pushq	%rbx
	.cfi_def_cfa_offset 16
	.cfi_offset 3, -16
	movq	(%rdi), %rax
	movq	%rdi, %rbx
	call	*16(%rax)
	movq	__libc_single_threaded@GOTPCREL(%rip), %rax
	cmpb	$0, (%rax)
	je	.L152
	movl	12(%rbx), %eax
	leal	-1(%rax), %edx
	movl	%edx, 12(%rbx)
.L153:
	cmpl	$1, %eax
	je	.L156
	popq	%rbx
	.cfi_remember_state
	.cfi_def_cfa_offset 8
	ret
	.p2align 4,,10
	.p2align 3
.L156:
	.cfi_restore_state
	movq	(%rbx), %rax
	movq	%rbx, %rdi
	popq	%rbx
	.cfi_remember_state
	.cfi_def_cfa_offset 8
	movq	24(%rax), %rax
	jmp	*%rax
	.p2align 4,,10
	.p2align 3
.L152:
	.cfi_restore_state
	movl	$-1, %eax
	lock xaddl	%eax, 12(%rbx)
	jmp	.L153
	.cfi_endproc
.LFE7746:
	.size	_ZNSt16_Sp_counted_baseILN9__gnu_cxx12_Lock_policyE2EE24_M_release_last_use_coldEv, .-_ZNSt16_Sp_counted_baseILN9__gnu_cxx12_Lock_policyE2EE24_M_release_last_use_coldEv
	.section	.text._ZNSt16_Sp_counted_baseILN9__gnu_cxx12_Lock_policyE2EE10_M_releaseEv,"axG",@progbits,_ZNSt16_Sp_counted_baseILN9__gnu_cxx12_Lock_policyE2EE10_M_releaseEv,comdat
	.align 2
	.p2align 4
	.weak	_ZNSt16_Sp_counted_baseILN9__gnu_cxx12_Lock_policyE2EE10_M_releaseEv
	.type	_ZNSt16_Sp_counted_baseILN9__gnu_cxx12_Lock_policyE2EE10_M_releaseEv, @function
_ZNSt16_Sp_counted_baseILN9__gnu_cxx12_Lock_policyE2EE10_M_releaseEv:
.LFB1214:
	.cfi_startproc
	movabsq	$4294967297, %rax
	movq	8(%rdi), %rdx
	cmpq	%rax, %rdx
	je	.L165
	movq	__libc_single_threaded@GOTPCREL(%rip), %rax
	cmpb	$0, (%rax)
	je	.L159
	movl	8(%rdi), %eax
	leal	-1(%rax), %edx
	movl	%edx, 8(%rdi)
.L160:
	cmpl	$1, %eax
	je	.L166
	ret
	.p2align 4,,10
	.p2align 3
.L159:
	leaq	8(%rdi), %rcx
	movl	$-1, %eax
	lock xaddl	%eax, (%rcx)
	jmp	.L160
	.p2align 4,,10
	.p2align 3
.L165:
	subq	$24, %rsp
	.cfi_def_cfa_offset 32
	movq	(%rdi), %rax
	movq	$0, 8(%rdi)
	movq	%rdi, 8(%rsp)
	call	*16(%rax)
	movq	8(%rsp), %rdi
	movq	(%rdi), %rax
	movq	24(%rax), %rax
	addq	$24, %rsp
	.cfi_def_cfa_offset 8
	jmp	*%rax
	.p2align 4,,10
	.p2align 3
.L166:
	jmp	_ZNSt16_Sp_counted_baseILN9__gnu_cxx12_Lock_policyE2EE24_M_release_last_use_coldEv@PLT
	.cfi_endproc
.LFE1214:
	.size	_ZNSt16_Sp_counted_baseILN9__gnu_cxx12_Lock_policyE2EE10_M_releaseEv, .-_ZNSt16_Sp_counted_baseILN9__gnu_cxx12_Lock_policyE2EE10_M_releaseEv
	.section	.text._ZNSt23_Sp_counted_ptr_inplaceIN7asiopal13SerialChannelESaIvELN9__gnu_cxx12_Lock_policyE2EE10_M_disposeEv,"axG",@progbits,_ZNSt23_Sp_counted_ptr_inplaceIN7asiopal13SerialChannelESaIvELN9__gnu_cxx12_Lock_policyE2EE10_M_disposeEv,comdat
	.align 2
	.p2align 4
	.weak	_ZNSt23_Sp_counted_ptr_inplaceIN7asiopal13SerialChannelESaIvELN9__gnu_cxx12_Lock_policyE2EE10_M_disposeEv
	.type	_ZNSt23_Sp_counted_ptr_inplaceIN7asiopal13SerialChannelESaIvELN9__gnu_cxx12_Lock_policyE2EE10_M_disposeEv, @function
_ZNSt23_Sp_counted_ptr_inplaceIN7asiopal13SerialChannelESaIvELN9__gnu_cxx12_Lock_policyE2EE10_M_disposeEv:
.LFB10232:
	.cfi_startproc
	.cfi_personality 0x9b,DW.ref.__gxx_personality_v0
	.cfi_lsda 0x1b,.LLSDA10232
	pushq	%r15
	.cfi_def_cfa_offset 16
	.cfi_offset 15, -16
	pushq	%r14
	.cfi_def_cfa_offset 24
	.cfi_offset 14, -24
	movq	%rdi, %r14
	pushq	%r13
	.cfi_def_cfa_offset 32
	.cfi_offset 13, -32
	pushq	%r12
	.cfi_def_cfa_offset 40
	.cfi_offset 12, -40
	pushq	%rbp
	.cfi_def_cfa_offset 48
	.cfi_offset 6, -48
	pushq	%rbx
	.cfi_def_cfa_offset 56
	.cfi_offset 3, -56
	subq	$56, %rsp
	.cfi_def_cfa_offset 112
	movq	_ZTVN7asiopal13SerialChannelE@GOTPCREL(%rip), %rax
	movl	80(%rdi), %ebx
	addq	$16, %rax
	movq	%rax, 16(%rdi)
	cmpl	$-1, %ebx
	jne	.L287
.L169:
	movq	_ZTVN7asiopal13IAsyncChannelE@GOTPCREL(%rip), %rax
	movq	64(%r14), %rbx
	addq	$16, %rax
	movq	%rax, 16(%r14)
	testq	%rbx, %rbx
	je	.L214
	movq	8(%rbx), %rdx
	leaq	8(%rbx), %rcx
	movabsq	$4294967297, %rax
	cmpq	%rax, %rdx
	je	.L288
	movq	__libc_single_threaded@GOTPCREL(%rip), %rax
	cmpb	$0, (%rax)
	je	.L216
	movl	8(%rbx), %eax
	leal	-1(%rax), %edx
	movl	%edx, 8(%rbx)
.L217:
	cmpl	$1, %eax
	je	.L289
.L214:
	movq	48(%r14), %rbx
	testq	%rbx, %rbx
	je	.L220
	movq	8(%rbx), %rdx
	leaq	8(%rbx), %rcx
	movabsq	$4294967297, %rax
	cmpq	%rax, %rdx
	je	.L290
	movq	__libc_single_threaded@GOTPCREL(%rip), %rax
	cmpb	$0, (%rax)
	je	.L222
	movl	8(%rbx), %eax
	leal	-1(%rax), %edx
	movl	%edx, 8(%rbx)
.L223:
	cmpl	$1, %eax
	je	.L291
.L220:
	movq	32(%r14), %rdi
	testq	%rdi, %rdi
	je	.L167
	movq	__libc_single_threaded@GOTPCREL(%rip), %rax
	cmpb	$0, (%rax)
	je	.L227
	movl	12(%rdi), %eax
	leal	-1(%rax), %edx
	movl	%edx, 12(%rdi)
.L228:
	cmpl	$1, %eax
	je	.L292
.L167:
	addq	$56, %rsp
	.cfi_remember_state
	.cfi_def_cfa_offset 56
	popq	%rbx
	.cfi_def_cfa_offset 48
	popq	%rbp
	.cfi_def_cfa_offset 40
	popq	%r12
	.cfi_def_cfa_offset 32
	popq	%r13
	.cfi_def_cfa_offset 24
	popq	%r14
	.cfi_def_cfa_offset 16
	popq	%r15
	.cfi_def_cfa_offset 8
	ret
	.p2align 4,,10
	.p2align 3
.L287:
	.cfi_restore_state
	movq	88(%rdi), %rax
	testq	%rax, %rax
	je	.L170
	movq	96(%rdi), %rdx
	leaq	40(%rax), %r15
	movzbl	84(%rdi), %ebp
	movq	%r15, %rdi
	movq	%r15, 24(%rsp)
	movq	40(%rdx), %rsi
	movq	%rsi, 16(%rsp)
	call	pthread_mutex_lock@PLT
	movq	88(%r14), %r9
	cmpb	$0, 144(%r9)
	jne	.L293
	andl	$4, %ebp
	jne	.L294
.L173:
	movq	$0, 8(%rsp)
	xorl	%r15d, %r15d
	movl	$0, 4(%rsp)
.L174:
	movslq	4(%rsp), %rax
	salq	$4, %rax
	movq	96(%rax,%r9), %rbx
	testq	%rbx, %rbx
	je	.L278
	movq	_ZGVZN4asio15system_categoryEvE8instance@GOTPCREL(%rip), %r13
	movq	_ZZN4asio15system_categoryEvE8instance@GOTPCREL(%rip), %rbp
	movq	%rax, %r12
	jmp	.L186
	.p2align 4,,10
	.p2align 3
.L176:
	movq	88(%r14), %r9
	movl	$125, 24(%rbx)
	movq	%rbp, 32(%rbx)
	leaq	(%r9,%r12), %rdi
	movq	96(%rdi), %rax
	testq	%rax, %rax
	je	.L282
	movq	(%rax), %rdx
	movq	%rdx, 96(%rdi)
	testq	%rdx, %rdx
	je	.L181
	movq	$0, (%rax)
	movq	$0, (%rbx)
	testq	%r15, %r15
	je	.L230
	movq	%rbx, (%r15)
.L182:
	movq	%rbx, %r15
	movq	%rdx, %rbx
.L186:
	movzbl	0(%r13), %eax
	testb	%al, %al
	jne	.L176
	movq	%r13, %rdi
	call	__cxa_guard_acquire@PLT
	testl	%eax, %eax
	je	.L176
	movq	_ZN4asio6detail15system_categoryD1Ev@GOTPCREL(%rip), %rdi
	leaq	__dso_handle(%rip), %rdx
	movq	%rbp, %rsi
	call	__cxa_atexit@PLT
	movq	%r13, %rdi
	call	__cxa_guard_release@PLT
	jmp	.L176
	.p2align 4,,10
	.p2align 3
.L293:
	movq	%r15, %rdi
	call	pthread_mutex_unlock@PLT
.L172:
	movl	80(%r14), %ebx
	cmpl	$-1, %ebx
	je	.L169
.L170:
	call	__errno_location@PLT
	movl	%ebx, %edi
	movl	$0, (%rax)
	movq	%rax, %rbp
	call	close@PLT
	movq	_ZGVZN4asio15system_categoryEvE8instance@GOTPCREL(%rip), %r13
	movl	%eax, %r12d
	movzbl	0(%r13), %eax
	testb	%al, %al
	je	.L295
.L204:
	testl	%r12d, %r12d
	je	.L169
	movl	0(%rbp), %r12d
	movzbl	0(%r13), %eax
	testb	%al, %al
	je	.L296
.L207:
	cmpl	$11, %r12d
	je	.L209
.L286:
	movzbl	0(%r13), %eax
	testb	%al, %al
	jne	.L169
	movq	%r13, %rdi
	call	__cxa_guard_acquire@PLT
	testl	%eax, %eax
	je	.L169
	movq	_ZZN4asio15system_categoryEvE8instance@GOTPCREL(%rip), %rsi
	movq	_ZN4asio6detail15system_categoryD1Ev@GOTPCREL(%rip), %rdi
	leaq	__dso_handle(%rip), %rdx
	call	__cxa_atexit@PLT
	movq	%r13, %rdi
	call	__cxa_guard_release@PLT
	jmp	.L169
	.p2align 4,,10
	.p2align 3
.L292:
	movq	(%rdi), %rax
	movq	24(%rax), %rax
	addq	$56, %rsp
	.cfi_remember_state
	.cfi_def_cfa_offset 56
	popq	%rbx
	.cfi_def_cfa_offset 48
	popq	%rbp
	.cfi_def_cfa_offset 40
	popq	%r12
	.cfi_def_cfa_offset 32
	popq	%r13
	.cfi_def_cfa_offset 24
	popq	%r14
	.cfi_def_cfa_offset 16
	popq	%r15
	.cfi_def_cfa_offset 8
.LEHB0:
	jmp	*%rax
.LEHE0:
	.p2align 4,,10
	.p2align 3
.L227:
	.cfi_restore_state
	movl	$-1, %eax
	lock xaddl	%eax, 12(%rdi)
	jmp	.L228
	.p2align 4,,10
	.p2align 3
.L288:
	movq	(%rbx), %rax
	movq	%rbx, %rdi
	movq	$0, 8(%rbx)
	call	*16(%rax)
	movq	(%rbx), %rax
	movq	%rbx, %rdi
	call	*24(%rax)
	jmp	.L214
	.p2align 4,,10
	.p2align 3
.L290:
	movq	(%rbx), %rax
	movq	%rbx, %rdi
	movq	$0, 8(%rbx)
	call	*16(%rax)
	movq	(%rbx), %rax
	movq	%rbx, %rdi
	call	*24(%rax)
	jmp	.L220
	.p2align 4,,10
	.p2align 3
.L181:
	movq	$0, 104(%rdi)
	movq	$0, (%rax)
.L282:
	movq	$0, (%rbx)
	testq	%r15, %r15
	je	.L297
	movq	%rbx, (%r15)
.L184:
	addl	$1, 4(%rsp)
	cmpl	$3, 4(%rsp)
	je	.L185
.L298:
	movq	%rbx, %r15
	jmp	.L174
	.p2align 4,,10
	.p2align 3
.L230:
	movq	%rbx, 8(%rsp)
	jmp	.L182
	.p2align 4,,10
	.p2align 3
.L297:
	addl	$1, 4(%rsp)
	movq	%rbx, 8(%rsp)
	cmpl	$3, 4(%rsp)
	jne	.L298
.L185:
	movl	$-1, 88(%r9)
	movq	24(%rsp), %rdi
	movb	$1, 144(%r9)
	call	pthread_mutex_unlock@PLT
	movq	16(%rsp), %r12
	movq	88(%r14), %rbp
	leaq	120(%r12), %r15
	movq	%r15, %rdi
	call	pthread_mutex_lock@PLT
	cmpq	160(%r12), %rbp
	je	.L299
.L187:
	movq	32(%rbp), %rax
	testq	%rax, %rax
	je	.L188
	movq	24(%rbp), %rdx
	movq	%rdx, 24(%rax)
.L188:
	movq	24(%rbp), %rax
	testq	%rax, %rax
	je	.L189
	movq	32(%rbp), %rdx
	movq	%rdx, 32(%rax)
.L189:
	movq	16(%rsp), %r12
	movq	%r15, %rdi
	movq	168(%r12), %rax
	movq	$0, 32(%rbp)
	movq	%rax, 24(%rbp)
	movq	%rbp, 168(%r12)
	call	pthread_mutex_unlock@PLT
	movq	$0, 88(%r14)
	cmpq	$0, 8(%rsp)
	je	.L172
	movq	40(%r12), %rbp
	cmpb	$0, 40(%rbp)
	je	.L191
	data16	leaq	_ZN4asio6detail15keyword_tss_ptrINS0_10call_stackINS0_15task_io_serviceENS0_27task_io_service_thread_infoEE7contextEE6value_E@tlsgd(%rip), %rdi
	.value	0x6666
	rex64
	call	__tls_get_addr@PLT
	movq	(%rax), %rax
	testq	%rax, %rax
	jne	.L194
	jmp	.L191
	.p2align 4
	.p2align 4,,10
	.p2align 3
.L192:
	movq	16(%rax), %rax
	testq	%rax, %rax
	je	.L191
.L194:
	cmpq	(%rax), %rbp
	jne	.L192
	movq	8(%rax), %rax
	testq	%rax, %rax
	je	.L191
	movq	16(%rax), %rdx
	movq	8(%rsp), %rsi
	testq	%rdx, %rdx
	je	.L195
	movq	%rsi, (%rdx)
.L196:
	movq	%rbx, 16(%rax)
	jmp	.L172
	.p2align 4,,10
	.p2align 3
.L295:
	movq	%r13, %rdi
	call	__cxa_guard_acquire@PLT
	testl	%eax, %eax
	je	.L204
	movq	_ZZN4asio15system_categoryEvE8instance@GOTPCREL(%rip), %rsi
	movq	_ZN4asio6detail15system_categoryD1Ev@GOTPCREL(%rip), %rdi
	leaq	__dso_handle(%rip), %rdx
	call	__cxa_atexit@PLT
	movq	%r13, %rdi
	call	__cxa_guard_release@PLT
	jmp	.L204
	.p2align 4,,10
	.p2align 3
.L216:
	movl	$-1, %eax
	lock xaddl	%eax, (%rcx)
	jmp	.L217
	.p2align 4,,10
	.p2align 3
.L222:
	movl	$-1, %eax
	lock xaddl	%eax, (%rcx)
	jmp	.L223
	.p2align 4,,10
	.p2align 3
.L191:
	leaq	48(%rbp), %r13
	movq	%r13, %rdi
	call	pthread_mutex_lock@PLT
	movq	200(%rbp), %rax
	testq	%rax, %rax
	je	.L197
	movq	8(%rsp), %rsi
	movq	%rsi, (%rax)
.L198:
	movq	136(%rbp), %rax
	movq	%rbx, 200(%rbp)
	movq	%rax, %rdx
	orq	$1, %rdx
	movq	%rdx, 136(%rbp)
	cmpq	$1, %rax
	ja	.L300
	cmpb	$0, 176(%rbp)
	jne	.L201
	movq	144(%rbp), %rax
	testq	%rax, %rax
	je	.L201
	movb	$1, 176(%rbp)
	leaq	88(%rax), %rdx
	leaq	36(%rsp), %rcx
	movl	$3, %esi
	movq	%rdx, 40(%rsp)
	movl	88(%rax), %edx
	movl	$-2147483639, 36(%rsp)
	movl	96(%rax), %edi
	call	epoll_ctl@PLT
.L201:
	movq	%r13, %rdi
	call	pthread_mutex_unlock@PLT
	jmp	.L172
	.p2align 4,,10
	.p2align 3
.L278:
	movq	%r15, %rbx
	jmp	.L184
	.p2align 4,,10
	.p2align 3
.L294:
	movq	16(%rsp), %rax
	movl	$0, 36(%rsp)
	leaq	36(%rsp), %rcx
	movl	%ebx, %edx
	movq	$0, 40(%rsp)
	movl	$2, %esi
	movl	96(%rax), %edi
	call	epoll_ctl@PLT
	movq	88(%r14), %r9
	jmp	.L173
	.p2align 4,,10
	.p2align 3
.L296:
	movq	%r13, %rdi
	call	__cxa_guard_acquire@PLT
	testl	%eax, %eax
	je	.L207
	movq	_ZZN4asio15system_categoryEvE8instance@GOTPCREL(%rip), %rsi
	movq	_ZN4asio6detail15system_categoryD1Ev@GOTPCREL(%rip), %rdi
	leaq	__dso_handle(%rip), %rdx
	call	__cxa_atexit@PLT
	movq	%r13, %rdi
	call	__cxa_guard_release@PLT
	jmp	.L207
	.p2align 4,,10
	.p2align 3
.L299:
	movq	24(%rbp), %rax
	movq	16(%rsp), %rsi
	movq	%rax, 160(%rsi)
	jmp	.L187
	.p2align 4,,10
	.p2align 3
.L289:
	movq	%rbx, %rdi
	call	_ZNSt16_Sp_counted_baseILN9__gnu_cxx12_Lock_policyE2EE24_M_release_last_use_coldEv@PLT
	jmp	.L214
	.p2align 4,,10
	.p2align 3
.L291:
	movq	%rbx, %rdi
	call	_ZNSt16_Sp_counted_baseILN9__gnu_cxx12_Lock_policyE2EE24_M_release_last_use_coldEv@PLT
	jmp	.L220
.L300:
	movq	%r13, %rdi
	call	pthread_mutex_unlock@PLT
	leaq	88(%rbp), %rdi
	call	pthread_cond_signal@PLT
	jmp	.L172
	.p2align 4,,10
	.p2align 3
.L209:
	movl	%ebx, %edi
	leaq	36(%rsp), %rdx
	movl	$21537, %esi
	xorl	%eax, %eax
	movl	$0, 36(%rsp)
	call	ioctl@PLT
	andb	$-4, 84(%r14)
	movl	%ebx, %edi
	movl	$0, 0(%rbp)
	call	close@PLT
	jmp	.L286
.L197:
	movq	8(%rsp), %rax
	movq	%rax, 192(%rbp)
	jmp	.L198
.L195:
	movq	%rsi, 8(%rax)
	jmp	.L196
	.cfi_endproc
.LFE10232:
	.section	.gcc_except_table._ZNSt23_Sp_counted_ptr_inplaceIN7asiopal13SerialChannelESaIvELN9__gnu_cxx12_Lock_policyE2EE10_M_disposeEv,"aG",@progbits,_ZNSt23_Sp_counted_ptr_inplaceIN7asiopal13SerialChannelESaIvELN9__gnu_cxx12_Lock_policyE2EE10_M_disposeEv,comdat
.LLSDA10232:
	.byte	0xff
	.byte	0xff
	.byte	0x1
	.uleb128 .LLSDACSE10232-.LLSDACSB10232
.LLSDACSB10232:
	.uleb128 .LEHB0-.LFB10232
	.uleb128 .LEHE0-.LEHB0
	.uleb128 0
	.uleb128 0
.LLSDACSE10232:
	.section	.text._ZNSt23_Sp_counted_ptr_inplaceIN7asiopal13SerialChannelESaIvELN9__gnu_cxx12_Lock_policyE2EE10_M_disposeEv,"axG",@progbits,_ZNSt23_Sp_counted_ptr_inplaceIN7asiopal13SerialChannelESaIvELN9__gnu_cxx12_Lock_policyE2EE10_M_disposeEv,comdat
	.size	_ZNSt23_Sp_counted_ptr_inplaceIN7asiopal13SerialChannelESaIvELN9__gnu_cxx12_Lock_policyE2EE10_M_disposeEv, .-_ZNSt23_Sp_counted_ptr_inplaceIN7asiopal13SerialChannelESaIvELN9__gnu_cxx12_Lock_policyE2EE10_M_disposeEv
	.section	.text._ZN8asiodnp39IOHandlerD2Ev,"axG",@progbits,_ZN8asiodnp39IOHandlerD5Ev,comdat
	.align 2
	.p2align 4
	.weak	_ZN8asiodnp39IOHandlerD2Ev
	.type	_ZN8asiodnp39IOHandlerD2Ev, @function
_ZN8asiodnp39IOHandlerD2Ev:
.LFB7653:
	.cfi_startproc
	pushq	%r15
	.cfi_def_cfa_offset 16
	.cfi_offset 15, -16
	pushq	%r14
	.cfi_def_cfa_offset 24
	.cfi_offset 14, -24
	pushq	%r13
	.cfi_def_cfa_offset 32
	.cfi_offset 13, -32
	pushq	%r12
	.cfi_def_cfa_offset 40
	.cfi_offset 12, -40
	pushq	%rbp
	.cfi_def_cfa_offset 48
	.cfi_offset 6, -48
	pushq	%rbx
	.cfi_def_cfa_offset 56
	.cfi_offset 3, -56
	movq	%rdi, %rbx
	subq	$56, %rsp
	.cfi_def_cfa_offset 112
	movq	_ZTVN8asiodnp39IOHandlerE@GOTPCREL(%rip), %rax
	leaq	104(%rax), %rdx
	addq	$16, %rax
	movq	%rax, %xmm0
	movq	%rdx, %xmm1
	punpcklqdq	%xmm1, %xmm0
	movups	%xmm0, (%rdi)
	movq	712(%rdi), %rdi
	testq	%rdi, %rdi
	je	.L302
	movq	784(%rbx), %rax
	movq	752(%rbx), %rbp
	leaq	8(%rax), %r12
	cmpq	%r12, %rbp
	jnb	.L303
	.p2align 4
	.p2align 3
.L304:
	movq	0(%rbp), %rdi
	movl	$512, %esi
	addq	$8, %rbp
	call	_ZdlPvm@PLT
	cmpq	%r12, %rbp
	jb	.L304
	movq	712(%rbx), %rdi
.L303:
	movq	720(%rbx), %rax
	leaq	0(,%rax,8), %rsi
	call	_ZdlPvm@PLT
.L302:
	movq	680(%rbx), %rbp
	testq	%rbp, %rbp
	je	.L308
.L305:
	movq	24(%rbp), %rdi
	call	_ZNSt8_Rb_treeIPN8opendnp317IScheduleCallbackES2_St9_IdentityIS2_ESt4lessIS2_ESaIS2_EE8_M_eraseEPSt13_Rb_tree_nodeIS2_E.isra.0
	movq	%rbp, %rdi
	movq	16(%rbp), %rbp
	movl	$40, %esi
	call	_ZdlPvm@PLT
	testq	%rbp, %rbp
	jne	.L305
.L308:
	movq	640(%rbx), %rbp
	testq	%rbp, %rbp
	je	.L309
	movq	8(%rbp), %rdx
	leaq	8(%rbp), %rcx
	movabsq	$4294967297, %rax
	cmpq	%rax, %rdx
	je	.L417
	movq	__libc_single_threaded@GOTPCREL(%rip), %rax
	cmpb	$0, (%rax)
	je	.L311
	movl	8(%rbp), %eax
	leal	-1(%rax), %edx
	movl	%edx, 8(%rbp)
.L312:
	cmpl	$1, %eax
	je	.L418
.L309:
	movq	240(%rbx), %rbp
	testq	%rbp, %rbp
	je	.L314
	movq	8(%rbp), %rdx
	leaq	8(%rbp), %rcx
	movabsq	$4294967297, %rax
	cmpq	%rax, %rdx
	je	.L419
	movq	__libc_single_threaded@GOTPCREL(%rip), %rax
	cmpb	$0, (%rax)
	je	.L316
	movl	8(%rbp), %eax
	leal	-1(%rax), %edx
	movl	%edx, 8(%rbp)
.L317:
	cmpl	$1, %eax
	je	.L420
.L314:
	movq	224(%rbx), %rbp
	testq	%rbp, %rbp
	je	.L320
	movq	8(%rbp), %rdx
	leaq	8(%rbp), %rcx
	movabsq	$4294967297, %rax
	cmpq	%rax, %rdx
	je	.L421
	movq	__libc_single_threaded@GOTPCREL(%rip), %rax
	cmpb	$0, (%rax)
	je	.L322
	movl	8(%rbp), %eax
	leal	-1(%rax), %edx
	movl	%edx, 8(%rbp)
.L323:
	cmpl	$1, %eax
	je	.L422
.L320:
	movq	168(%rbx), %rcx
	movq	184(%rbx), %rax
	movabsq	$4294967297, %r13
	movq	192(%rbx), %rbp
	movq	152(%rbx), %r14
	movq	%rcx, 32(%rsp)
	movq	176(%rbx), %rcx
	movq	%rax, 24(%rsp)
	movq	208(%rbx), %rax
	leaq	8(%rcx), %r15
	movq	%rcx, 40(%rsp)
	movq	%rax, 16(%rsp)
	cmpq	%rax, %r15
	jnb	.L335
	.p2align 4
	.p2align 3
.L325:
	movq	(%r15), %rax
	leaq	512(%rax), %r12
	jmp	.L334
	.p2align 4,,10
	.p2align 3
.L426:
	movl	8(%rdi), %edx
	leal	-1(%rdx), %r10d
	movl	%r10d, 8(%rdi)
	cmpl	$1, %edx
	je	.L423
.L329:
	addq	$32, %rax
	cmpq	%r12, %rax
	je	.L424
.L334:
	movq	24(%rax), %rdi
	testq	%rdi, %rdi
	je	.L329
	movq	8(%rdi), %rdx
	leaq	8(%rdi), %r10
	cmpq	%r13, %rdx
	je	.L425
	movq	__libc_single_threaded@GOTPCREL(%rip), %rdx
	cmpb	$0, (%rdx)
	jne	.L426
	movl	$-1, %edx
	lock xaddl	%edx, (%r10)
	cmpl	$1, %edx
	jne	.L329
.L423:
	movq	%rax, (%rsp)
	call	_ZNSt16_Sp_counted_baseILN9__gnu_cxx12_Lock_policyE2EE24_M_release_last_use_coldEv@PLT
	movq	(%rsp), %rax
	addq	$32, %rax
	cmpq	%r12, %rax
	jne	.L334
	.p2align 4
	.p2align 3
.L424:
	addq	$8, %r15
	cmpq	16(%rsp), %r15
	jb	.L325
.L335:
	movq	40(%rsp), %rcx
	cmpq	%rcx, 16(%rsp)
	je	.L427
	movabsq	$4294967297, %r15
	cmpq	32(%rsp), %r14
	jne	.L339
	jmp	.L348
	.p2align 4,,10
	.p2align 3
.L430:
	movl	8(%r12), %eax
	leal	-1(%rax), %edx
	movl	%edx, 8(%r12)
	cmpl	$1, %eax
	je	.L428
.L343:
	addq	$32, %r14
	cmpq	%r14, 32(%rsp)
	je	.L348
.L339:
	movq	24(%r14), %r12
	testq	%r12, %r12
	je	.L343
	movq	8(%r12), %rax
	leaq	8(%r12), %rdx
	cmpq	%r15, %rax
	je	.L429
	movq	__libc_single_threaded@GOTPCREL(%rip), %rax
	cmpb	$0, (%rax)
	jne	.L430
	movl	$-1, %eax
	lock xaddl	%eax, (%rdx)
	cmpl	$1, %eax
	jne	.L343
.L428:
	movq	%r12, %rdi
	addq	$32, %r14
	call	_ZNSt16_Sp_counted_baseILN9__gnu_cxx12_Lock_policyE2EE24_M_release_last_use_coldEv@PLT
	cmpq	%r14, 32(%rsp)
	jne	.L339
	.p2align 4
	.p2align 3
.L348:
	movabsq	$4294967297, %r14
	cmpq	%rbp, 24(%rsp)
	jne	.L340
	jmp	.L341
	.p2align 4,,10
	.p2align 3
.L433:
	movl	8(%r12), %eax
	leal	-1(%rax), %edx
	movl	%edx, 8(%r12)
	cmpl	$1, %eax
	je	.L431
.L350:
	addq	$32, %rbp
	cmpq	%rbp, 24(%rsp)
	je	.L341
.L340:
	movq	24(%rbp), %r12
	testq	%r12, %r12
	je	.L350
	movq	8(%r12), %rax
	leaq	8(%r12), %rdx
	cmpq	%r14, %rax
	je	.L432
	movq	__libc_single_threaded@GOTPCREL(%rip), %rax
	cmpb	$0, (%rax)
	jne	.L433
	movl	$-1, %eax
	lock xaddl	%eax, (%rdx)
	cmpl	$1, %eax
	jne	.L350
.L431:
	movq	%r12, %rdi
	addq	$32, %rbp
	call	_ZNSt16_Sp_counted_baseILN9__gnu_cxx12_Lock_policyE2EE24_M_release_last_use_coldEv@PLT
	cmpq	%rbp, 24(%rsp)
	jne	.L340
	.p2align 4
	.p2align 3
.L341:
	movq	136(%rbx), %rdi
	testq	%rdi, %rdi
	je	.L338
	movq	208(%rbx), %rax
	movq	176(%rbx), %rbp
	leaq	8(%rax), %r12
	cmpq	%r12, %rbp
	jnb	.L361
	.p2align 4
	.p2align 3
.L362:
	movq	0(%rbp), %rdi
	movl	$512, %esi
	addq	$8, %rbp
	call	_ZdlPvm@PLT
	cmpq	%r12, %rbp
	jb	.L362
	movq	136(%rbx), %rdi
.L361:
	movq	144(%rbx), %rax
	leaq	0(,%rax,8), %rsi
	call	_ZdlPvm@PLT
.L338:
	movq	120(%rbx), %r13
	movq	112(%rbx), %rbp
	cmpq	%rbp, %r13
	je	.L363
	movabsq	$4294967297, %r14
	jmp	.L370
	.p2align 4,,10
	.p2align 3
.L437:
	movl	8(%r12), %eax
	leal	-1(%rax), %edx
	movl	%edx, 8(%r12)
	cmpl	$1, %eax
	je	.L434
.L365:
	addq	$24, %rbp
	cmpq	%rbp, %r13
	je	.L435
.L370:
	movq	16(%rbp), %r12
	testq	%r12, %r12
	je	.L365
	movq	8(%r12), %rax
	leaq	8(%r12), %rdx
	cmpq	%r14, %rax
	je	.L436
	movq	__libc_single_threaded@GOTPCREL(%rip), %rax
	cmpb	$0, (%rax)
	jne	.L437
	movl	$-1, %eax
	lock xaddl	%eax, (%rdx)
	cmpl	$1, %eax
	jne	.L365
.L434:
	movq	%r12, %rdi
	addq	$24, %rbp
	call	_ZNSt16_Sp_counted_baseILN9__gnu_cxx12_Lock_policyE2EE24_M_release_last_use_coldEv@PLT
	cmpq	%rbp, %r13
	jne	.L370
	.p2align 4
	.p2align 3
.L435:
	movq	112(%rbx), %rbp
.L363:
	testq	%rbp, %rbp
	je	.L371
	movq	128(%rbx), %rsi
	movq	%rbp, %rdi
	subq	%rbp, %rsi
	call	_ZdlPvm@PLT
.L371:
	movq	72(%rbx), %rbp
	testq	%rbp, %rbp
	je	.L373
	movq	8(%rbp), %rdx
	leaq	8(%rbp), %rcx
	movabsq	$4294967297, %rax
	cmpq	%rax, %rdx
	je	.L438
	movq	__libc_single_threaded@GOTPCREL(%rip), %rax
	cmpb	$0, (%rax)
	je	.L375
	movl	8(%rbp), %eax
	leal	-1(%rax), %edx
	movl	%edx, 8(%rbp)
.L376:
	cmpl	$1, %eax
	je	.L439
.L373:
	movq	56(%rbx), %rbp
	testq	%rbp, %rbp
	je	.L379
	movq	8(%rbp), %rdx
	leaq	8(%rbp), %rcx
	movabsq	$4294967297, %rax
	cmpq	%rax, %rdx
	je	.L440
	movq	__libc_single_threaded@GOTPCREL(%rip), %rax
	cmpb	$0, (%rax)
	je	.L381
	movl	8(%rbp), %eax
	leal	-1(%rax), %edx
	movl	%edx, 8(%rbp)
.L382:
	cmpl	$1, %eax
	je	.L441
.L379:
	movq	40(%rbx), %rbp
	testq	%rbp, %rbp
	je	.L385
	movq	8(%rbp), %rdx
	leaq	8(%rbp), %rcx
	movabsq	$4294967297, %rax
	cmpq	%rax, %rdx
	je	.L442
	movq	__libc_single_threaded@GOTPCREL(%rip), %rax
	cmpb	$0, (%rax)
	je	.L387
	movl	8(%rbp), %eax
	leal	-1(%rax), %edx
	movl	%edx, 8(%rbp)
.L388:
	cmpl	$1, %eax
	je	.L443
.L385:
	movq	24(%rbx), %rdi
	testq	%rdi, %rdi
	je	.L301
	movq	__libc_single_threaded@GOTPCREL(%rip), %rax
	cmpb	$0, (%rax)
	je	.L392
	movl	12(%rdi), %eax
	leal	-1(%rax), %edx
	movl	%edx, 12(%rdi)
.L393:
	cmpl	$1, %eax
	je	.L444
.L301:
	addq	$56, %rsp
	.cfi_remember_state
	.cfi_def_cfa_offset 56
	popq	%rbx
	.cfi_def_cfa_offset 48
	popq	%rbp
	.cfi_def_cfa_offset 40
	popq	%r12
	.cfi_def_cfa_offset 32
	popq	%r13
	.cfi_def_cfa_offset 24
	popq	%r14
	.cfi_def_cfa_offset 16
	popq	%r15
	.cfi_def_cfa_offset 8
	ret
	.p2align 4,,10
	.p2align 3
.L425:
	.cfi_restore_state
	movq	(%rdi), %rdx
	movq	%rax, 8(%rsp)
	movq	$0, 8(%rdi)
	movq	%rdi, (%rsp)
	call	*16(%rdx)
	movq	(%rsp), %rdi
	movq	(%rdi), %rdx
	call	*24(%rdx)
	movq	8(%rsp), %rax
	jmp	.L329
	.p2align 4,,10
	.p2align 3
.L436:
	movq	$0, 8(%r12)
	movq	(%r12), %rax
	movq	%r12, %rdi
	call	*16(%rax)
	movq	(%r12), %rax
	movq	%r12, %rdi
	call	*24(%rax)
	jmp	.L365
.L432:
	movq	$0, 8(%r12)
	movq	(%r12), %rax
	movq	%r12, %rdi
	call	*16(%rax)
	movq	(%r12), %rax
	movq	%r12, %rdi
	call	*24(%rax)
	jmp	.L350
.L429:
	movq	$0, 8(%r12)
	movq	(%r12), %rax
	movq	%r12, %rdi
	call	*16(%rax)
	movq	(%r12), %rax
	movq	%r12, %rdi
	call	*24(%rax)
	jmp	.L343
.L427:
	movabsq	$4294967297, %r12
	cmpq	%r14, 24(%rsp)
	jne	.L336
	jmp	.L341
	.p2align 4,,10
	.p2align 3
.L447:
	movl	8(%rbp), %eax
	leal	-1(%rax), %edx
	movl	%edx, 8(%rbp)
	cmpl	$1, %eax
	je	.L445
.L356:
	addq	$32, %r14
	cmpq	%r14, 24(%rsp)
	je	.L341
.L336:
	movq	24(%r14), %rbp
	testq	%rbp, %rbp
	je	.L356
	movq	8(%rbp), %rax
	leaq	8(%rbp), %rdx
	cmpq	%r12, %rax
	je	.L446
	movq	__libc_single_threaded@GOTPCREL(%rip), %rax
	cmpb	$0, (%rax)
	jne	.L447
	movl	$-1, %eax
	lock xaddl	%eax, (%rdx)
	cmpl	$1, %eax
	jne	.L356
.L445:
	movq	%rbp, %rdi
	call	_ZNSt16_Sp_counted_baseILN9__gnu_cxx12_Lock_policyE2EE24_M_release_last_use_coldEv@PLT
	jmp	.L356
.L446:
	movq	0(%rbp), %rax
	movq	%rbp, %rdi
	movq	$0, 8(%rbp)
	call	*16(%rax)
	movq	0(%rbp), %rax
	movq	%rbp, %rdi
	call	*24(%rax)
	jmp	.L356
.L444:
	movq	(%rdi), %rax
	movq	24(%rax), %rax
	addq	$56, %rsp
	.cfi_remember_state
	.cfi_def_cfa_offset 56
	popq	%rbx
	.cfi_def_cfa_offset 48
	popq	%rbp
	.cfi_def_cfa_offset 40
	popq	%r12
	.cfi_def_cfa_offset 32
	popq	%r13
	.cfi_def_cfa_offset 24
	popq	%r14
	.cfi_def_cfa_offset 16
	popq	%r15
	.cfi_def_cfa_offset 8
	jmp	*%rax
.L392:
	.cfi_restore_state
	movl	$-1, %eax
	lock xaddl	%eax, 12(%rdi)
	jmp	.L393
.L419:
	movq	0(%rbp), %rax
	movq	%rbp, %rdi
	movq	$0, 8(%rbp)
	call	*16(%rax)
	movq	0(%rbp), %rax
	movq	%rbp, %rdi
	call	*24(%rax)
	jmp	.L314
.L442:
	movq	0(%rbp), %rax
	movq	%rbp, %rdi
	movq	$0, 8(%rbp)
	call	*16(%rax)
	movq	0(%rbp), %rax
	movq	%rbp, %rdi
	call	*24(%rax)
	jmp	.L385
.L417:
	movq	0(%rbp), %rax
	movq	%rbp, %rdi
	movq	$0, 8(%rbp)
	call	*16(%rax)
	movq	0(%rbp), %rax
	movq	%rbp, %rdi
	call	*24(%rax)
	jmp	.L309
.L421:
	movq	0(%rbp), %rax
	movq	%rbp, %rdi
	movq	$0, 8(%rbp)
	call	*16(%rax)
	movq	0(%rbp), %rax
	movq	%rbp, %rdi
	call	*24(%rax)
	jmp	.L320
.L438:
	movq	0(%rbp), %rax
	movq	%rbp, %rdi
	movq	$0, 8(%rbp)
	call	*16(%rax)
	movq	0(%rbp), %rax
	movq	%rbp, %rdi
	call	*24(%rax)
	jmp	.L373
.L440:
	movq	0(%rbp), %rax
	movq	%rbp, %rdi
	movq	$0, 8(%rbp)
	call	*16(%rax)
	movq	0(%rbp), %rax
	movq	%rbp, %rdi
	call	*24(%rax)
	jmp	.L379
.L387:
	movl	$-1, %eax
	lock xaddl	%eax, (%rcx)
	jmp	.L388
.L375:
	movl	$-1, %eax
	lock xaddl	%eax, (%rcx)
	jmp	.L376
.L381:
	movl	$-1, %eax
	lock xaddl	%eax, (%rcx)
	jmp	.L382
.L311:
	movl	$-1, %eax
	lock xaddl	%eax, (%rcx)
	jmp	.L312
.L316:
	movl	$-1, %eax
	lock xaddl	%eax, (%rcx)
	jmp	.L317
.L322:
	movl	$-1, %eax
	lock xaddl	%eax, (%rcx)
	jmp	.L323
.L418:
	movq	%rbp, %rdi
	call	_ZNSt16_Sp_counted_baseILN9__gnu_cxx12_Lock_policyE2EE24_M_release_last_use_coldEv@PLT
	jmp	.L309
.L443:
	movq	%rbp, %rdi
	call	_ZNSt16_Sp_counted_baseILN9__gnu_cxx12_Lock_policyE2EE24_M_release_last_use_coldEv@PLT
	jmp	.L385
.L441:
	movq	%rbp, %rdi
	call	_ZNSt16_Sp_counted_baseILN9__gnu_cxx12_Lock_policyE2EE24_M_release_last_use_coldEv@PLT
	jmp	.L379
.L439:
	movq	%rbp, %rdi
	call	_ZNSt16_Sp_counted_baseILN9__gnu_cxx12_Lock_policyE2EE24_M_release_last_use_coldEv@PLT
	jmp	.L373
.L422:
	movq	%rbp, %rdi
	call	_ZNSt16_Sp_counted_baseILN9__gnu_cxx12_Lock_policyE2EE24_M_release_last_use_coldEv@PLT
	jmp	.L320
.L420:
	movq	%rbp, %rdi
	call	_ZNSt16_Sp_counted_baseILN9__gnu_cxx12_Lock_policyE2EE24_M_release_last_use_coldEv@PLT
	jmp	.L314
	.cfi_endproc
.LFE7653:
	.size	_ZN8asiodnp39IOHandlerD2Ev, .-_ZN8asiodnp39IOHandlerD2Ev
	.set	.LTHUNK0,_ZN8asiodnp39IOHandlerD2Ev
	.p2align 4
	.weak	_ZThn8_N8asiodnp39IOHandlerD1Ev
	.type	_ZThn8_N8asiodnp39IOHandlerD1Ev, @function
_ZThn8_N8asiodnp39IOHandlerD1Ev:
.LFB10354:
	.cfi_startproc
	subq	$8, %rdi
	jmp	.LTHUNK0
	.cfi_endproc
.LFE10354:
	.size	_ZThn8_N8asiodnp39IOHandlerD1Ev, .-_ZThn8_N8asiodnp39IOHandlerD1Ev
	.weak	_ZN8asiodnp39IOHandlerD1Ev
	.set	_ZN8asiodnp39IOHandlerD1Ev,_ZN8asiodnp39IOHandlerD2Ev
	.section	.text._ZN8asiodnp39IOHandlerD0Ev,"axG",@progbits,_ZN8asiodnp39IOHandlerD5Ev,comdat
	.align 2
	.p2align 4
	.weak	_ZN8asiodnp39IOHandlerD0Ev
	.type	_ZN8asiodnp39IOHandlerD0Ev, @function
_ZN8asiodnp39IOHandlerD0Ev:
.LFB7655:
	.cfi_startproc
	subq	$24, %rsp
	.cfi_def_cfa_offset 32
	movq	%rdi, 8(%rsp)
	call	_ZN8asiodnp39IOHandlerD1Ev@PLT
	movq	8(%rsp), %rdi
	movl	$800, %esi
	addq	$24, %rsp
	.cfi_def_cfa_offset 8
	jmp	_ZdlPvm@PLT
	.cfi_endproc
.LFE7655:
	.size	_ZN8asiodnp39IOHandlerD0Ev, .-_ZN8asiodnp39IOHandlerD0Ev
	.p2align 4
	.weak	_ZThn8_N8asiodnp39IOHandlerD0Ev
	.type	_ZThn8_N8asiodnp39IOHandlerD0Ev, @function
_ZThn8_N8asiodnp39IOHandlerD0Ev:
.LFB10342:
	.cfi_startproc
	pushq	%rbx
	.cfi_def_cfa_offset 16
	.cfi_offset 3, -16
	leaq	-8(%rdi), %rbx
	movq	%rbx, %rdi
	call	_ZN8asiodnp39IOHandlerD1Ev@PLT
	movq	%rbx, %rdi
	movl	$800, %esi
	popq	%rbx
	.cfi_def_cfa_offset 8
	jmp	_ZdlPvm@PLT
	.cfi_endproc
.LFE10342:
	.size	_ZThn8_N8asiodnp39IOHandlerD0Ev, .-_ZThn8_N8asiodnp39IOHandlerD0Ev
	.section	.text.unlikely,"ax",@progbits
	.align 2
.LCOLDB27:
	.text
.LHOTB27:
	.align 2
	.p2align 4
	.globl	_ZN8asiodnp315SerialIOHandlerC2ERKN7openpal6LoggerERKSt10shared_ptrINS_16IChannelListenerEERKS5_IN7asiopal8ExecutorEERKNSA_12ChannelRetryERKNSA_14SerialSettingsE
	.type	_ZN8asiodnp315SerialIOHandlerC2ERKN7openpal6LoggerERKSt10shared_ptrINS_16IChannelListenerEERKS5_IN7asiopal8ExecutorEERKNSA_12ChannelRetryERKNSA_14SerialSettingsE, @function
_ZN8asiodnp315SerialIOHandlerC2ERKN7openpal6LoggerERKSt10shared_ptrINS_16IChannelListenerEERKS5_IN7asiopal8ExecutorEERKNSA_12ChannelRetryERKNSA_14SerialSettingsE:
.LFB7731:
	.cfi_startproc
	.cfi_personality 0x9b,DW.ref.__gxx_personality_v0
	.cfi_lsda 0x1b,.LLSDA7731
	pushq	%r13
	.cfi_def_cfa_offset 16
	.cfi_offset 13, -16
	movq	%rcx, %r13
	pushq	%r12
	.cfi_def_cfa_offset 24
	.cfi_offset 12, -24
	movq	%r8, %r12
	pushq	%rbp
	.cfi_def_cfa_offset 32
	.cfi_offset 6, -32
	movq	%r9, %rbp
	pushq	%rbx
	.cfi_def_cfa_offset 40
	.cfi_offset 3, -40
	movq	%rdi, %rbx
	subq	$40, %rsp
	.cfi_def_cfa_offset 80
	movq	_ZTVN8asiodnp315SerialIOHandlerE@GOTPCREL(%rip), %rax
	leaq	104(%rax), %rcx
	addq	$16, %rax
	movq	%rax, %xmm0
	movq	%rcx, %xmm1
	punpcklqdq	%xmm1, %xmm0
	movaps	%xmm0, (%rsp)
.LEHB1:
	call	_ZN8asiodnp39IOHandlerC2ERKN7openpal6LoggerERKSt10shared_ptrINS_16IChannelListenerEE@PLT
.LEHE1:
	movdqa	(%rsp), %xmm0
	movups	%xmm0, (%rbx)
	movdqu	0(%r13), %xmm0
	movhlps	%xmm0, %xmm2
	movups	%xmm0, 800(%rbx)
	movq	%xmm2, %rax
	testq	%rax, %rax
	je	.L455
	movq	__libc_single_threaded@GOTPCREL(%rip), %rdx
	cmpb	$0, (%rdx)
	je	.L454
	addl	$1, 8(%rax)
.L455:
	movdqu	(%r12), %xmm0
	movq	16(%r12), %rax
	leaq	856(%rbx), %rdi
	leaq	840(%rbx), %r12
	movq	%rdi, 840(%rbx)
	movq	0(%rbp), %rcx
	movq	%rax, 832(%rbx)
	movups	%xmm0, 816(%rbx)
	movq	8(%rbp), %rdx
	movq	%rdx, 24(%rsp)
	cmpq	$15, %rdx
	ja	.L456
	leaq	1(%rdx), %rsi
	testq	%rdx, %rdx
	je	.L457
.L458:
	movq	%rsi, %rdx
	movq	%rcx, %rsi
	call	memcpy@PLT
	movq	24(%rsp), %rax
.L460:
	movq	%rax, 848(%rbx)
	movq	32(%rbp), %rax
	leaq	896(%rbx), %rdi
	movq	%rax, 872(%rbx)
	movzwl	40(%rbp), %eax
	movw	%ax, 880(%rbx)
	movzbl	42(%rbp), %eax
	movq	0(%r13), %rsi
	movb	%al, 882(%rbx)
	movq	48(%rbp), %rax
	movq	%rax, 888(%rbx)
.LEHB2:
	call	_ZN7openpal8TimerRefC1ERNS_9IExecutorE@PLT
.LEHE2:
	addq	$40, %rsp
	.cfi_remember_state
	.cfi_def_cfa_offset 40
	popq	%rbx
	.cfi_def_cfa_offset 32
	popq	%rbp
	.cfi_def_cfa_offset 24
	popq	%r12
	.cfi_def_cfa_offset 16
	popq	%r13
	.cfi_def_cfa_offset 8
	ret
	.p2align 4,,10
	.p2align 3
.L454:
	.cfi_restore_state
	lock addl	$1, 8(%rax)
	jmp	.L455
	.p2align 4,,10
	.p2align 3
.L457:
	movzbl	(%rcx), %eax
	movb	%al, (%rdi)
	movq	24(%rsp), %rax
	jmp	.L460
	.p2align 4,,10
	.p2align 3
.L456:
	leaq	24(%rsp), %rsi
	xorl	%edx, %edx
	movq	%r12, %rdi
	movq	%rcx, (%rsp)
.LEHB3:
	call	_ZNSt7__cxx1112basic_stringIcSt11char_traitsIcESaIcEE9_M_createERmm@PLT
.LEHE3:
	movq	%rax, 840(%rbx)
	movq	%rax, %rdi
	movq	24(%rsp), %rax
	movq	(%rsp), %rcx
	testq	%rax, %rax
	movq	%rax, 856(%rbx)
	leaq	1(%rax), %rsi
	je	.L457
	movq	$-1, %rax
	testq	%rsi, %rsi
	je	.L460
	jmp	.L458
.L467:
	movq	%rax, %rbp
	jmp	.L461
.L466:
	movq	%rax, %rbp
	jmp	.L462
	.section	.gcc_except_table,"a",@progbits
.LLSDA7731:
	.byte	0xff
	.byte	0xff
	.byte	0x1
	.uleb128 .LLSDACSE7731-.LLSDACSB7731
.LLSDACSB7731:
	.uleb128 .LEHB1-.LFB7731
	.uleb128 .LEHE1-.LEHB1
	.uleb128 0
	.uleb128 0
	.uleb128 .LEHB2-.LFB7731
	.uleb128 .LEHE2-.LEHB2
	.uleb128 .L467-.LFB7731
	.uleb128 0
	.uleb128 .LEHB3-.LFB7731
	.uleb128 .LEHE3-.LEHB3
	.uleb128 .L466-.LFB7731
	.uleb128 0
.LLSDACSE7731:
	.text
	.cfi_endproc
	.section	.text.unlikely
	.cfi_startproc
	.cfi_personality 0x9b,DW.ref.__gxx_personality_v0
	.cfi_lsda 0x1b,.LLSDAC7731
	.type	_ZN8asiodnp315SerialIOHandlerC2ERKN7openpal6LoggerERKSt10shared_ptrINS_16IChannelListenerEERKS5_IN7asiopal8ExecutorEERKNSA_12ChannelRetryERKNSA_14SerialSettingsE.cold, @function
_ZN8asiodnp315SerialIOHandlerC2ERKN7openpal6LoggerERKSt10shared_ptrINS_16IChannelListenerEERKS5_IN7asiopal8ExecutorEERKNSA_12ChannelRetryERKNSA_14SerialSettingsE.cold:
.LFSB7731:
.L461:
	.cfi_def_cfa_offset 80
	.cfi_offset 3, -40
	.cfi_offset 6, -32
	.cfi_offset 12, -24
	.cfi_offset 13, -16
	movq	%r12, %rdi
	call	_ZNSt7__cxx1112basic_stringIcSt11char_traitsIcESaIcEE10_M_disposeEv@PLT
.L462:
	movq	808(%rbx), %rdi
	testq	%rdi, %rdi
	je	.L463
	call	_ZNSt16_Sp_counted_baseILN9__gnu_cxx12_Lock_policyE2EE10_M_releaseEv@PLT
.L463:
	movq	%rbx, %rdi
	call	_ZN8asiodnp39IOHandlerD2Ev@PLT
	movq	%rbp, %rdi
.LEHB4:
	call	_Unwind_Resume@PLT
.LEHE4:
	.cfi_endproc
.LFE7731:
	.section	.gcc_except_table
.LLSDAC7731:
	.byte	0xff
	.byte	0xff
	.byte	0x1
	.uleb128 .LLSDACSEC7731-.LLSDACSBC7731
.LLSDACSBC7731:
	.uleb128 .LEHB4-.LCOLDB27
	.uleb128 .LEHE4-.LEHB4
	.uleb128 0
	.uleb128 0
.LLSDACSEC7731:
	.section	.text.unlikely
	.text
	.size	_ZN8asiodnp315SerialIOHandlerC2ERKN7openpal6LoggerERKSt10shared_ptrINS_16IChannelListenerEERKS5_IN7asiopal8ExecutorEERKNSA_12ChannelRetryERKNSA_14SerialSettingsE, .-_ZN8asiodnp315SerialIOHandlerC2ERKN7openpal6LoggerERKSt10shared_ptrINS_16IChannelListenerEERKS5_IN7asiopal8ExecutorEERKNSA_12ChannelRetryERKNSA_14SerialSettingsE
	.section	.text.unlikely
	.size	_ZN8asiodnp315SerialIOHandlerC2ERKN7openpal6LoggerERKSt10shared_ptrINS_16IChannelListenerEERKS5_IN7asiopal8ExecutorEERKNSA_12ChannelRetryERKNSA_14SerialSettingsE.cold, .-_ZN8asiodnp315SerialIOHandlerC2ERKN7openpal6LoggerERKSt10shared_ptrINS_16IChannelListenerEERKS5_IN7asiopal8ExecutorEERKNSA_12ChannelRetryERKNSA_14SerialSettingsE.cold
.LCOLDE27:
	.text
.LHOTE27:
	.globl	_ZN8asiodnp315SerialIOHandlerC1ERKN7openpal6LoggerERKSt10shared_ptrINS_16IChannelListenerEERKS5_IN7asiopal8ExecutorEERKNSA_12ChannelRetryERKNSA_14SerialSettingsE
	.set	_ZN8asiodnp315SerialIOHandlerC1ERKN7openpal6LoggerERKSt10shared_ptrINS_16IChannelListenerEERKS5_IN7asiopal8ExecutorEERKNSA_12ChannelRetryERKNSA_14SerialSettingsE,_ZN8asiodnp315SerialIOHandlerC2ERKN7openpal6LoggerERKSt10shared_ptrINS_16IChannelListenerEERKS5_IN7asiopal8ExecutorEERKNSA_12ChannelRetryERKNSA_14SerialSettingsE
	.section	.text._ZN8asiodnp315SerialIOHandlerD2Ev,"axG",@progbits,_ZN8asiodnp315SerialIOHandlerD5Ev,comdat
	.align 2
	.p2align 4
	.weak	_ZN8asiodnp315SerialIOHandlerD2Ev
	.type	_ZN8asiodnp315SerialIOHandlerD2Ev, @function
_ZN8asiodnp315SerialIOHandlerD2Ev:
.LFB10178:
	.cfi_startproc
	pushq	%rbx
	.cfi_def_cfa_offset 16
	.cfi_offset 3, -16
	movq	%rdi, %rbx
	addq	$896, %rdi
	subq	$16, %rsp
	.cfi_def_cfa_offset 32
	movq	_ZTVN8asiodnp315SerialIOHandlerE@GOTPCREL(%rip), %rax
	leaq	104(%rax), %rdx
	addq	$16, %rax
	movq	%rax, %xmm0
	movq	%rdx, %xmm1
	punpcklqdq	%xmm1, %xmm0
	movups	%xmm0, -896(%rdi)
	call	_ZN7openpal8TimerRefD1Ev@PLT
	movq	840(%rbx), %rdi
	leaq	856(%rbx), %rax
	cmpq	%rax, %rdi
	je	.L478
	movq	856(%rbx), %rax
	leaq	1(%rax), %rsi
	call	_ZdlPvm@PLT
.L478:
	movq	808(%rbx), %rdi
	testq	%rdi, %rdi
	je	.L480
	movq	8(%rdi), %rdx
	leaq	8(%rdi), %rcx
	movabsq	$4294967297, %rax
	cmpq	%rax, %rdx
	je	.L486
	movq	__libc_single_threaded@GOTPCREL(%rip), %rax
	cmpb	$0, (%rax)
	je	.L482
	movl	8(%rdi), %eax
	leal	-1(%rax), %edx
	movl	%edx, 8(%rdi)
.L483:
	cmpl	$1, %eax
	je	.L487
.L480:
	addq	$16, %rsp
	.cfi_remember_state
	.cfi_def_cfa_offset 16
	movq	%rbx, %rdi
	popq	%rbx
	.cfi_def_cfa_offset 8
	jmp	_ZN8asiodnp39IOHandlerD2Ev@PLT
	.p2align 4,,10
	.p2align 3
.L486:
	.cfi_restore_state
	movq	(%rdi), %rax
	movq	%rdi, 8(%rsp)
	movq	$0, 8(%rdi)
	call	*16(%rax)
	movq	8(%rsp), %rdi
	movq	(%rdi), %rax
	call	*24(%rax)
	addq	$16, %rsp
	.cfi_remember_state
	.cfi_def_cfa_offset 16
	movq	%rbx, %rdi
	popq	%rbx
	.cfi_def_cfa_offset 8
	jmp	_ZN8asiodnp39IOHandlerD2Ev@PLT
	.p2align 4,,10
	.p2align 3
.L482:
	.cfi_restore_state
	movl	$-1, %eax
	lock xaddl	%eax, (%rcx)
	jmp	.L483
	.p2align 4,,10
	.p2align 3
.L487:
	call	_ZNSt16_Sp_counted_baseILN9__gnu_cxx12_Lock_policyE2EE24_M_release_last_use_coldEv@PLT
	jmp	.L480
	.cfi_endproc
.LFE10178:
	.size	_ZN8asiodnp315SerialIOHandlerD2Ev, .-_ZN8asiodnp315SerialIOHandlerD2Ev
	.weak	_ZN8asiodnp315SerialIOHandlerD1Ev
	.set	_ZN8asiodnp315SerialIOHandlerD1Ev,_ZN8asiodnp315SerialIOHandlerD2Ev
	.section	.text._ZN8asiodnp315SerialIOHandlerD0Ev,"axG",@progbits,_ZN8asiodnp315SerialIOHandlerD5Ev,comdat
	.align 2
	.p2align 4
	.weak	_ZN8asiodnp315SerialIOHandlerD0Ev
	.type	_ZN8asiodnp315SerialIOHandlerD0Ev, @function
_ZN8asiodnp315SerialIOHandlerD0Ev:
.LFB10180:
	.cfi_startproc
	pushq	%rbx
	.cfi_def_cfa_offset 16
	.cfi_offset 3, -16
	movq	%rdi, %rbx
	addq	$896, %rdi
	subq	$16, %rsp
	.cfi_def_cfa_offset 32
	movq	_ZTVN8asiodnp315SerialIOHandlerE@GOTPCREL(%rip), %rax
	leaq	104(%rax), %rdx
	addq	$16, %rax
	movq	%rax, %xmm0
	movq	%rdx, %xmm1
	punpcklqdq	%xmm1, %xmm0
	movups	%xmm0, -896(%rdi)
	call	_ZN7openpal8TimerRefD1Ev@PLT
	movq	840(%rbx), %rdi
	leaq	856(%rbx), %rax
	cmpq	%rax, %rdi
	je	.L489
	movq	856(%rbx), %rax
	leaq	1(%rax), %rsi
	call	_ZdlPvm@PLT
.L489:
	movq	808(%rbx), %rdi
	testq	%rdi, %rdi
	je	.L491
	movq	8(%rdi), %rdx
	leaq	8(%rdi), %rcx
	movabsq	$4294967297, %rax
	cmpq	%rax, %rdx
	je	.L497
	movq	__libc_single_threaded@GOTPCREL(%rip), %rax
	cmpb	$0, (%rax)
	je	.L493
	movl	8(%rdi), %eax
	leal	-1(%rax), %edx
	movl	%edx, 8(%rdi)
.L494:
	cmpl	$1, %eax
	je	.L498
.L491:
	movq	%rbx, %rdi
	call	_ZN8asiodnp39IOHandlerD2Ev@PLT
	addq	$16, %rsp
	.cfi_remember_state
	.cfi_def_cfa_offset 16
	movq	%rbx, %rdi
	movl	$912, %esi
	popq	%rbx
	.cfi_def_cfa_offset 8
	jmp	_ZdlPvm@PLT
	.p2align 4,,10
	.p2align 3
.L497:
	.cfi_restore_state
	movq	(%rdi), %rax
	movq	%rdi, 8(%rsp)
	movq	$0, 8(%rdi)
	call	*16(%rax)
	movq	8(%rsp), %rdi
	movq	(%rdi), %rax
	call	*24(%rax)
	jmp	.L491
	.p2align 4,,10
	.p2align 3
.L493:
	movl	$-1, %eax
	lock xaddl	%eax, (%rcx)
	jmp	.L494
	.p2align 4,,10
	.p2align 3
.L498:
	call	_ZNSt16_Sp_counted_baseILN9__gnu_cxx12_Lock_policyE2EE24_M_release_last_use_coldEv@PLT
	jmp	.L491
	.cfi_endproc
.LFE10180:
	.size	_ZN8asiodnp315SerialIOHandlerD0Ev, .-_ZN8asiodnp315SerialIOHandlerD0Ev
	.p2align 4
	.weak	_ZThn8_N8asiodnp315SerialIOHandlerD0Ev
	.type	_ZThn8_N8asiodnp315SerialIOHandlerD0Ev, @function
_ZThn8_N8asiodnp315SerialIOHandlerD0Ev:
.LFB10341:
	.cfi_startproc
	pushq	%rbp
	.cfi_def_cfa_offset 16
	.cfi_offset 6, -16
	leaq	-8(%rdi), %rbp
	pushq	%rbx
	.cfi_def_cfa_offset 24
	.cfi_offset 3, -24
	movq	%rdi, %rbx
	addq	$888, %rdi
	subq	$8, %rsp
	.cfi_def_cfa_offset 32
	movq	_ZTVN8asiodnp315SerialIOHandlerE@GOTPCREL(%rip), %rax
	leaq	104(%rax), %rdx
	addq	$16, %rax
	movq	%rax, %xmm0
	movq	%rdx, %xmm1
	punpcklqdq	%xmm1, %xmm0
	movups	%xmm0, -896(%rdi)
	call	_ZN7openpal8TimerRefD1Ev@PLT
	movq	832(%rbx), %rdi
	leaq	848(%rbx), %rax
	cmpq	%rax, %rdi
	je	.L500
	movq	848(%rbx), %rax
	leaq	1(%rax), %rsi
	call	_ZdlPvm@PLT
.L500:
	movq	800(%rbx), %rbx
	testq	%rbx, %rbx
	je	.L502
	movq	8(%rbx), %rdx
	leaq	8(%rbx), %rcx
	movabsq	$4294967297, %rax
	cmpq	%rax, %rdx
	je	.L508
	movq	__libc_single_threaded@GOTPCREL(%rip), %rax
	cmpb	$0, (%rax)
	je	.L504
	movl	8(%rbx), %eax
	leal	-1(%rax), %edx
	movl	%edx, 8(%rbx)
.L505:
	cmpl	$1, %eax
	je	.L509
.L502:
	movq	%rbp, %rdi
	call	_ZN8asiodnp39IOHandlerD2Ev@PLT
	addq	$8, %rsp
	.cfi_remember_state
	.cfi_def_cfa_offset 24
	movq	%rbp, %rdi
	movl	$912, %esi
	popq	%rbx
	.cfi_def_cfa_offset 16
	popq	%rbp
	.cfi_def_cfa_offset 8
	jmp	_ZdlPvm@PLT
	.p2align 4,,10
	.p2align 3
.L508:
	.cfi_restore_state
	movq	(%rbx), %rax
	movq	%rbx, %rdi
	movq	$0, 8(%rbx)
	call	*16(%rax)
	movq	(%rbx), %rax
	movq	%rbx, %rdi
	call	*24(%rax)
	jmp	.L502
	.p2align 4,,10
	.p2align 3
.L504:
	movl	$-1, %eax
	lock xaddl	%eax, (%rcx)
	jmp	.L505
	.p2align 4,,10
	.p2align 3
.L509:
	movq	%rbx, %rdi
	call	_ZNSt16_Sp_counted_baseILN9__gnu_cxx12_Lock_policyE2EE24_M_release_last_use_coldEv@PLT
	jmp	.L502
	.cfi_endproc
.LFE10341:
	.size	_ZThn8_N8asiodnp315SerialIOHandlerD0Ev, .-_ZThn8_N8asiodnp315SerialIOHandlerD0Ev
	.section	.text._ZN8asiodnp315SerialIOHandlerD2Ev,"axG",@progbits,_ZN8asiodnp315SerialIOHandlerD5Ev,comdat
	.p2align 4
	.weak	_ZThn8_N8asiodnp315SerialIOHandlerD1Ev
	.type	_ZThn8_N8asiodnp315SerialIOHandlerD1Ev, @function
_ZThn8_N8asiodnp315SerialIOHandlerD1Ev:
.LFB10343:
	.cfi_startproc
	pushq	%rbp
	.cfi_def_cfa_offset 16
	.cfi_offset 6, -16
	leaq	-8(%rdi), %rbp
	pushq	%rbx
	.cfi_def_cfa_offset 24
	.cfi_offset 3, -24
	movq	%rdi, %rbx
	addq	$888, %rdi
	subq	$8, %rsp
	.cfi_def_cfa_offset 32
	movq	_ZTVN8asiodnp315SerialIOHandlerE@GOTPCREL(%rip), %rax
	leaq	104(%rax), %rdx
	addq	$16, %rax
	movq	%rax, %xmm0
	movq	%rdx, %xmm1
	punpcklqdq	%xmm1, %xmm0
	movups	%xmm0, -896(%rdi)
	call	_ZN7openpal8TimerRefD1Ev@PLT
	movq	832(%rbx), %rdi
	leaq	848(%rbx), %rax
	cmpq	%rax, %rdi
	je	.L511
	movq	848(%rbx), %rax
	leaq	1(%rax), %rsi
	call	_ZdlPvm@PLT
.L511:
	movq	800(%rbx), %rbx
	testq	%rbx, %rbx
	je	.L513
	movq	8(%rbx), %rdx
	leaq	8(%rbx), %rcx
	movabsq	$4294967297, %rax
	cmpq	%rax, %rdx
	je	.L519
	movq	__libc_single_threaded@GOTPCREL(%rip), %rax
	cmpb	$0, (%rax)
	je	.L515
	movl	8(%rbx), %eax
	leal	-1(%rax), %edx
	movl	%edx, 8(%rbx)
.L516:
	cmpl	$1, %eax
	je	.L520
.L513:
	addq	$8, %rsp
	.cfi_remember_state
	.cfi_def_cfa_offset 24
	movq	%rbp, %rdi
	popq	%rbx
	.cfi_def_cfa_offset 16
	popq	%rbp
	.cfi_def_cfa_offset 8
	jmp	_ZN8asiodnp39IOHandlerD2Ev@PLT
	.p2align 4,,10
	.p2align 3
.L519:
	.cfi_restore_state
	movq	(%rbx), %rax
	movq	%rbx, %rdi
	movq	$0, 8(%rbx)
	call	*16(%rax)
	movq	(%rbx), %rax
	movq	%rbx, %rdi
	call	*24(%rax)
	addq	$8, %rsp
	.cfi_remember_state
	.cfi_def_cfa_offset 24
	movq	%rbp, %rdi
	popq	%rbx
	.cfi_def_cfa_offset 16
	popq	%rbp
	.cfi_def_cfa_offset 8
	jmp	_ZN8asiodnp39IOHandlerD2Ev@PLT
	.p2align 4,,10
	.p2align 3
.L515:
	.cfi_restore_state
	movl	$-1, %eax
	lock xaddl	%eax, (%rcx)
	jmp	.L516
	.p2align 4,,10
	.p2align 3
.L520:
	movq	%rbx, %rdi
	call	_ZNSt16_Sp_counted_baseILN9__gnu_cxx12_Lock_policyE2EE24_M_release_last_use_coldEv@PLT
	jmp	.L513
	.cfi_endproc
.LFE10343:
	.size	_ZThn8_N8asiodnp315SerialIOHandlerD1Ev, .-_ZThn8_N8asiodnp315SerialIOHandlerD1Ev
	.section	.rodata.str1.1,"aMS",@progbits,1
.LC29:
	.string	"Error Connecting: %s"
	.section	.rodata.str1.8,"aMS",@progbits,1
	.align 8
.LC30:
	.string	"/opt/PLC/OpenPLC_v3/utils/dnp3_src/cpp/libs/src/asiodnp3/SerialIOHandler.cpp(73)"
	.section	.text.unlikely
	.align 2
.LCOLDB34:
	.text
.LHOTB34:
	.align 2
	.p2align 4
	.globl	_ZN8asiodnp315SerialIOHandler7TryOpenERKN7openpal12TimeDurationE
	.type	_ZN8asiodnp315SerialIOHandler7TryOpenERKN7openpal12TimeDurationE, @function
_ZN8asiodnp315SerialIOHandler7TryOpenERKN7openpal12TimeDurationE:
.LFB7737:
	.cfi_startproc
	.cfi_personality 0x9b,DW.ref.__gxx_personality_v0
	.cfi_lsda 0x1b,.LLSDA7737
	pushq	%r15
	.cfi_def_cfa_offset 16
	.cfi_offset 15, -16
	pushq	%r14
	.cfi_def_cfa_offset 24
	.cfi_offset 14, -24
	pushq	%r13
	.cfi_def_cfa_offset 32
	.cfi_offset 13, -32
	movq	%rsi, %r13
	pushq	%r12
	.cfi_def_cfa_offset 40
	.cfi_offset 12, -40
	pushq	%rbp
	.cfi_def_cfa_offset 48
	.cfi_offset 6, -48
	movq	%rdi, %rbp
	movl	$104, %edi
	pushq	%rbx
	.cfi_def_cfa_offset 56
	.cfi_offset 3, -56
	subq	$200, %rsp
	.cfi_def_cfa_offset 256
.LEHB5:
	call	_Znwm@PLT
.LEHE5:
	movdqu	800(%rbp), %xmm0
	movq	%rax, %rbx
	movq	.LC28(%rip), %rax
	movhlps	%xmm0, %xmm1
	leaq	16(%rbx), %r14
	movaps	%xmm0, 64(%rsp)
	movq	%rax, 8(%rbx)
	movq	_ZTVSt23_Sp_counted_ptr_inplaceIN7asiopal13SerialChannelESaIvELN9__gnu_cxx12_Lock_policyE2EE@GOTPCREL(%rip), %rax
	addq	$16, %rax
	movq	%rax, (%rbx)
	movq	%xmm1, %rax
	testq	%rax, %rax
	je	.L522
	movq	__libc_single_threaded@GOTPCREL(%rip), %rdx
	cmpb	$0, (%rdx)
	je	.L523
	addl	$1, 8(%rax)
.L522:
	leaq	64(%rsp), %rsi
	movq	%r14, %rdi
.LEHB6:
	call	_ZN7asiopal13SerialChannelC1ESt10shared_ptrINS_8ExecutorEE@PLT
.LEHE6:
	movq	72(%rsp), %rdi
	testq	%rdi, %rdi
	je	.L525
	movq	8(%rdi), %rdx
	leaq	8(%rdi), %rcx
	movabsq	$4294967297, %rax
	cmpq	%rax, %rdx
	je	.L591
	movq	__libc_single_threaded@GOTPCREL(%rip), %rax
	cmpb	$0, (%rax)
	je	.L527
	movl	8(%rdi), %eax
	leal	-1(%rax), %edx
	movl	%edx, 8(%rdi)
.L528:
	cmpl	$1, %eax
	je	.L592
.L525:
	movq	32(%rbx), %rdi
	testq	%rdi, %rdi
	je	.L532
.L596:
	movl	8(%rdi), %eax
	testl	%eax, %eax
	je	.L532
.L533:
	movl	$0, 16(%rsp)
	call	_ZNSt3_V215system_categoryEv@PLT
	leaq	16(%rsp), %rdx
	leaq	840(%rbp), %rsi
	movq	%r14, %rdi
	movq	%rax, 24(%rsp)
.LEHB7:
	call	_ZN7asiopal13SerialChannel4OpenERKNS_14SerialSettingsERSt10error_code@PLT
	movl	16(%rsp), %eax
	testl	%eax, %eax
	je	.L540
	leaq	32(%rbp), %r14
	leaq	64(%rsp), %rsi
	movl	$4, 64(%rsp)
	movq	%r14, %rdi
	call	_ZNK7openpal6Logger9IsEnabledERKNS_10LogFiltersE@PLT
	testb	%al, %al
	je	.L541
	movq	24(%rsp), %rsi
	leaq	32(%rsp), %rdi
	movl	16(%rsp), %edx
	movq	%rdi, 8(%rsp)
	movq	(%rsi), %rax
	call	*32(%rax)
	movq	32(%rsp), %rcx
	leaq	64(%rsp), %rdi
	leaq	.LC29(%rip), %rdx
	xorl	%eax, %eax
	movl	$120, %esi
	call	snprintf@PLT
	movq	32(%rsp), %rdi
	leaq	48(%rsp), %rax
	cmpq	%rax, %rdi
	je	.L542
	movq	48(%rsp), %rax
	leaq	1(%rax), %rsi
	call	_ZdlPvm@PLT
.L542:
	movq	8(%rsp), %rsi
	leaq	64(%rsp), %rcx
	movq	%r14, %rdi
	leaq	.LC30(%rip), %rdx
	movl	$4, 32(%rsp)
	call	_ZN7openpal6Logger3LogERKNS_10LogFiltersEPKcS5_@PLT
.L541:
	addl	$1, 84(%rbp)
	movq	0(%r13), %rdx
	pxor	%xmm0, %xmm0
	movl	$24, %edi
	movq	$0, 80(%rsp)
	leaq	896(%rbp), %r14
	movq	%rdx, 8(%rsp)
	movaps	%xmm0, 64(%rsp)
	call	_Znwm@PLT
.LEHE7:
	movq	8(%rsp), %rdx
	movq	%r14, (%rax)
	movq	%r13, %rsi
	movq	%r14, %rdi
	movq	.LC33(%rip), %xmm0
	movq	%rbp, 8(%rax)
	movq	%rdx, 16(%rax)
	leaq	64(%rsp), %rdx
	movq	%rax, 64(%rsp)
	leaq	_ZNSt17_Function_handlerIFvvEZN7openpal8TimerRef5StartIZN8asiodnp315SerialIOHandler7TryOpenERKNS1_12TimeDurationEEUlvE_EEbS8_RKT_EUlvE_E9_M_invokeERKSt9_Any_data(%rip), %rax
	movq	%rax, %xmm2
	punpcklqdq	%xmm2, %xmm0
	movaps	%xmm0, 80(%rsp)
.LEHB8:
	call	_ZN7openpal8TimerRef11StartActionERKNS_12TimeDurationERKSt8functionIFvvEE@PLT
.LEHE8:
	movq	80(%rsp), %rax
	testq	%rax, %rax
	je	.L544
	movl	$3, %edx
	leaq	64(%rsp), %rsi
	leaq	64(%rsp), %rdi
	call	*%rax
.L544:
	movabsq	$4294967297, %rax
	movq	8(%rbx), %rdx
	cmpq	%rax, %rdx
	je	.L593
	movq	__libc_single_threaded@GOTPCREL(%rip), %rax
	cmpb	$0, (%rax)
	je	.L558
	movl	8(%rbx), %eax
	leal	-1(%rax), %edx
	movl	%edx, 8(%rbx)
.L559:
	cmpl	$1, %eax
	je	.L594
.L521:
	addq	$200, %rsp
	.cfi_remember_state
	.cfi_def_cfa_offset 56
	popq	%rbx
	.cfi_def_cfa_offset 48
	popq	%rbp
	.cfi_def_cfa_offset 40
	popq	%r12
	.cfi_def_cfa_offset 32
	popq	%r13
	.cfi_def_cfa_offset 24
	popq	%r14
	.cfi_def_cfa_offset 16
	popq	%r15
	.cfi_def_cfa_offset 8
	ret
	.p2align 4,,10
	.p2align 3
.L532:
	.cfi_restore_state
	movq	__libc_single_threaded@GOTPCREL(%rip), %rax
	movq	%r14, 24(%rbx)
	cmpb	$0, (%rax)
	je	.L534
	addl	$1, 12(%rbx)
	testq	%rdi, %rdi
	je	.L536
.L535:
	movl	12(%rdi), %eax
	leal	-1(%rax), %edx
	movl	%edx, 12(%rdi)
.L539:
	cmpl	$1, %eax
	jne	.L536
	movq	(%rdi), %rax
	call	*24(%rax)
	.p2align 4
	.p2align 3
.L536:
	movq	%rbx, 32(%rbx)
	jmp	.L533
	.p2align 4,,10
	.p2align 3
.L523:
	lock addl	$1, 8(%rax)
	jmp	.L522
	.p2align 4,,10
	.p2align 3
.L534:
	lock addl	$1, 12(%rbx)
	movq	32(%rbx), %rdi
	testq	%rdi, %rdi
	je	.L536
	cmpb	$0, (%rax)
	jne	.L535
	movl	$-1, %eax
	lock xaddl	%eax, 12(%rdi)
	jmp	.L539
	.p2align 4,,10
	.p2align 3
.L540:
	movq	__libc_single_threaded@GOTPCREL(%rip), %r13
	movq	%r14, 64(%rsp)
	movq	%rbx, 72(%rsp)
	cmpb	$0, 0(%r13)
	je	.L548
	addl	$1, 8(%rbx)
.L549:
	leaq	64(%rsp), %rsi
	movq	%rbp, %rdi
.LEHB9:
	call	_ZN8asiodnp39IOHandler12OnNewChannelERKSt10shared_ptrIN7asiopal13IAsyncChannelEE@PLT
.LEHE9:
	movq	72(%rsp), %rbp
	testq	%rbp, %rbp
	je	.L544
	movq	8(%rbp), %rdx
	leaq	8(%rbp), %rcx
	movabsq	$4294967297, %rax
	cmpq	%rax, %rdx
	je	.L595
	cmpb	$0, 0(%r13)
	je	.L553
	movl	8(%rbp), %eax
	leal	-1(%rax), %edx
	movl	%edx, 8(%rbp)
.L554:
	cmpl	$1, %eax
	jne	.L544
	movq	%rbp, %rdi
	call	_ZNSt16_Sp_counted_baseILN9__gnu_cxx12_Lock_policyE2EE24_M_release_last_use_coldEv@PLT
	jmp	.L544
	.p2align 4,,10
	.p2align 3
.L591:
	movq	(%rdi), %rax
	movq	$0, 8(%rdi)
	movq	%rdi, 8(%rsp)
	call	*16(%rax)
	movq	8(%rsp), %rdi
	movq	(%rdi), %rax
	call	*24(%rax)
	movq	32(%rbx), %rdi
	testq	%rdi, %rdi
	jne	.L596
	jmp	.L532
	.p2align 4,,10
	.p2align 3
.L553:
	movl	$-1, %eax
	lock xaddl	%eax, (%rcx)
	jmp	.L554
	.p2align 4,,10
	.p2align 3
.L527:
	movl	$-1, %eax
	lock xaddl	%eax, (%rcx)
	jmp	.L528
	.p2align 4,,10
	.p2align 3
.L558:
	leaq	8(%rbx), %rcx
	movl	$-1, %eax
	lock xaddl	%eax, (%rcx)
	jmp	.L559
	.p2align 4,,10
	.p2align 3
.L548:
	lock addl	$1, 8(%rbx)
	jmp	.L549
	.p2align 4,,10
	.p2align 3
.L593:
	movq	(%rbx), %rax
	movq	%rbx, %rdi
	movq	$0, 8(%rbx)
	call	*16(%rax)
	movq	(%rbx), %rax
	movq	%rbx, %rdi
	call	*24(%rax)
	jmp	.L521
	.p2align 4,,10
	.p2align 3
.L595:
	movq	0(%rbp), %rax
	movq	%rbp, %rdi
	movq	$0, 8(%rbp)
	call	*16(%rax)
	movq	0(%rbp), %rax
	movq	%rbp, %rdi
	call	*24(%rax)
	jmp	.L544
	.p2align 4,,10
	.p2align 3
.L592:
	call	_ZNSt16_Sp_counted_baseILN9__gnu_cxx12_Lock_policyE2EE24_M_release_last_use_coldEv@PLT
	jmp	.L525
	.p2align 4,,10
	.p2align 3
.L594:
	movq	%rbx, %rdi
	call	_ZNSt16_Sp_counted_baseILN9__gnu_cxx12_Lock_policyE2EE24_M_release_last_use_coldEv@PLT
	jmp	.L521
.L562:
	movq	%rax, %rbp
	jmp	.L547
.L563:
	movq	%rax, %rbp
	jmp	.L560
.L565:
	movq	%rax, %rbp
	jmp	.L545
.L564:
	movq	%rax, %rbp
	jmp	.L530
	.section	.gcc_except_table
.LLSDA7737:
	.byte	0xff
	.byte	0xff
	.byte	0x1
	.uleb128 .LLSDACSE7737-.LLSDACSB7737
.LLSDACSB7737:
	.uleb128 .LEHB5-.LFB7737
	.uleb128 .LEHE5-.LEHB5
	.uleb128 0
	.uleb128 0
	.uleb128 .LEHB6-.LFB7737
	.uleb128 .LEHE6-.LEHB6
	.uleb128 .L564-.LFB7737
	.uleb128 0
	.uleb128 .LEHB7-.LFB7737
	.uleb128 .LEHE7-.LEHB7
	.uleb128 .L562-.LFB7737
	.uleb128 0
	.uleb128 .LEHB8-.LFB7737
	.uleb128 .LEHE8-.LEHB8
	.uleb128 .L565-.LFB7737
	.uleb128 0
	.uleb128 .LEHB9-.LFB7737
	.uleb128 .LEHE9-.LEHB9
	.uleb128 .L563-.LFB7737
	.uleb128 0
.LLSDACSE7737:
	.text
	.cfi_endproc
	.section	.text.unlikely
	.cfi_startproc
	.cfi_personality 0x9b,DW.ref.__gxx_personality_v0
	.cfi_lsda 0x1b,.LLSDAC7737
	.type	_ZN8asiodnp315SerialIOHandler7TryOpenERKN7openpal12TimeDurationE.cold, @function
_ZN8asiodnp315SerialIOHandler7TryOpenERKN7openpal12TimeDurationE.cold:
.LFSB7737:
.L545:
	.cfi_def_cfa_offset 256
	.cfi_offset 3, -56
	.cfi_offset 6, -48
	.cfi_offset 12, -40
	.cfi_offset 13, -32
	.cfi_offset 14, -24
	.cfi_offset 15, -16
	movq	80(%rsp), %rax
	testq	%rax, %rax
	je	.L547
	movl	$3, %edx
	leaq	64(%rsp), %rsi
	leaq	64(%rsp), %rdi
	call	*%rax
.L547:
	movq	%rbx, %rdi
	call	_ZNSt16_Sp_counted_baseILN9__gnu_cxx12_Lock_policyE2EE10_M_releaseEv@PLT
	movq	%rbp, %rdi
.LEHB10:
	call	_Unwind_Resume@PLT
.L560:
	movq	72(%rsp), %rdi
	testq	%rdi, %rdi
	je	.L547
	call	_ZNSt16_Sp_counted_baseILN9__gnu_cxx12_Lock_policyE2EE10_M_releaseEv@PLT
	jmp	.L547
.L530:
	movq	72(%rsp), %rdi
	testq	%rdi, %rdi
	je	.L531
	call	_ZNSt16_Sp_counted_baseILN9__gnu_cxx12_Lock_policyE2EE10_M_releaseEv@PLT
.L531:
	movq	%rbx, %rdi
	movl	$104, %esi
	call	_ZdlPvm@PLT
	movq	%rbp, %rdi
	call	_Unwind_Resume@PLT
.LEHE10:
	.cfi_endproc
.LFE7737:
	.section	.gcc_except_table
.LLSDAC7737:
	.byte	0xff
	.byte	0xff
	.byte	0x1
	.uleb128 .LLSDACSEC7737-.LLSDACSBC7737
.LLSDACSBC7737:
	.uleb128 .LEHB10-.LCOLDB34
	.uleb128 .LEHE10-.LEHB10
	.uleb128 0
	.uleb128 0
.LLSDACSEC7737:
	.section	.text.unlikely
	.text
	.size	_ZN8asiodnp315SerialIOHandler7TryOpenERKN7openpal12TimeDurationE, .-_ZN8asiodnp315SerialIOHandler7TryOpenERKN7openpal12TimeDurationE
	.section	.text.unlikely
	.size	_ZN8asiodnp315SerialIOHandler7TryOpenERKN7openpal12TimeDurationE.cold, .-_ZN8asiodnp315SerialIOHandler7TryOpenERKN7openpal12TimeDurationE.cold
.LCOLDE34:
	.text
.LHOTE34:
	.align 2
	.p2align 4
	.globl	_ZN8asiodnp315SerialIOHandler18BeginChannelAcceptEv
	.type	_ZN8asiodnp315SerialIOHandler18BeginChannelAcceptEv, @function
_ZN8asiodnp315SerialIOHandler18BeginChannelAcceptEv:
.LFB7734:
	.cfi_startproc
	leaq	816(%rdi), %rsi
	jmp	_ZN8asiodnp315SerialIOHandler7TryOpenERKN7openpal12TimeDurationE@PLT
	.cfi_endproc
.LFE7734:
	.size	_ZN8asiodnp315SerialIOHandler18BeginChannelAcceptEv, .-_ZN8asiodnp315SerialIOHandler18BeginChannelAcceptEv
	.align 2
	.p2align 4
	.globl	_ZN8asiodnp315SerialIOHandler17OnChannelShutdownEv
	.type	_ZN8asiodnp315SerialIOHandler17OnChannelShutdownEv, @function
_ZN8asiodnp315SerialIOHandler17OnChannelShutdownEv:
.LFB7736:
	.cfi_startproc
	jmp	_ZN8asiodnp315SerialIOHandler18BeginChannelAcceptEv@PLT
	.cfi_endproc
.LFE7736:
	.size	_ZN8asiodnp315SerialIOHandler17OnChannelShutdownEv, .-_ZN8asiodnp315SerialIOHandler17OnChannelShutdownEv
	.p2align 4
	.type	_ZNSt17_Function_handlerIFvvEZN7openpal8TimerRef5StartIZN8asiodnp315SerialIOHandler7TryOpenERKNS1_12TimeDurationEEUlvE_EEbS8_RKT_EUlvE_E9_M_invokeERKSt9_Any_data, @function
_ZNSt17_Function_handlerIFvvEZN7openpal8TimerRef5StartIZN8asiodnp315SerialIOHandler7TryOpenERKNS1_12TimeDurationEEUlvE_EEbS8_RKT_EUlvE_E9_M_invokeERKSt9_Any_data:
.LFB9430:
	.cfi_startproc
	pushq	%rbx
	.cfi_def_cfa_offset 16
	.cfi_offset 3, -16
	subq	$16, %rsp
	.cfi_def_cfa_offset 32
	movq	(%rdi), %rsi
	movq	8(%rsi), %rbx
	movq	(%rsi), %rax
	addq	$16, %rsi
	movq	832(%rbx), %rdi
	movq	$0, 8(%rax)
	leaq	824(%rbx), %rdx
	movq	(%rdi), %rax
	call	*16(%rax)
	leaq	8(%rsp), %rsi
	movq	%rbx, %rdi
	movq	%rax, 8(%rsp)
	call	_ZN8asiodnp315SerialIOHandler7TryOpenERKN7openpal12TimeDurationE@PLT
	addq	$16, %rsp
	.cfi_def_cfa_offset 16
	popq	%rbx
	.cfi_def_cfa_offset 8
	ret
	.cfi_endproc
.LFE9430:
	.size	_ZNSt17_Function_handlerIFvvEZN7openpal8TimerRef5StartIZN8asiodnp315SerialIOHandler7TryOpenERKNS1_12TimeDurationEEUlvE_EEbS8_RKT_EUlvE_E9_M_invokeERKSt9_Any_data, .-_ZNSt17_Function_handlerIFvvEZN7openpal8TimerRef5StartIZN8asiodnp315SerialIOHandler7TryOpenERKNS1_12TimeDurationEEUlvE_EEbS8_RKT_EUlvE_E9_M_invokeERKSt9_Any_data
	.section	.text.startup,"ax",@progbits
	.p2align 4
	.type	_GLOBAL__sub_I_SerialIOHandler.cpp, @function
_GLOBAL__sub_I_SerialIOHandler.cpp:
.LFB10330:
	.cfi_startproc
	subq	$8, %rsp
	.cfi_def_cfa_offset 16
	movq	_ZGVZN4asio15system_categoryEvE8instance@GOTPCREL(%rip), %rax
	movzbl	(%rax), %eax
	testb	%al, %al
	je	.L632
.L603:
	movq	_ZGVZN4asio5error18get_netdb_categoryEvE8instance@GOTPCREL(%rip), %rax
	movzbl	(%rax), %eax
	testb	%al, %al
	je	.L633
.L606:
	movq	_ZGVZN4asio5error21get_addrinfo_categoryEvE8instance@GOTPCREL(%rip), %rax
	movzbl	(%rax), %eax
	testb	%al, %al
	je	.L634
.L609:
	movq	_ZGVZN4asio5error17get_misc_categoryEvE8instance@GOTPCREL(%rip), %rax
	movzbl	(%rax), %eax
	testb	%al, %al
	je	.L635
.L612:
	movq	_ZGVN4asio6detail10call_stackINS0_15task_io_serviceENS0_27task_io_service_thread_infoEE4top_E@GOTPCREL(%rip), %rax
	cmpb	$0, (%rax)
	jne	.L614
	movb	$1, (%rax)
.L614:
	movq	_ZGVN4asio6detail12service_baseINS0_13epoll_reactorEE2idE@GOTPCREL(%rip), %rax
	cmpb	$0, (%rax)
	jne	.L615
	movb	$1, (%rax)
.L615:
	movq	_ZGVN4asio6detail12service_baseINS0_15task_io_serviceEE2idE@GOTPCREL(%rip), %rax
	cmpb	$0, (%rax)
	jne	.L616
	movb	$1, (%rax)
.L616:
	movq	_ZGVN4asio6detail10call_stackINS0_14strand_service11strand_implEhE4top_E@GOTPCREL(%rip), %rax
	cmpb	$0, (%rax)
	je	.L636
.L617:
	movq	_ZGVN4asio6detail12service_baseINS0_14strand_serviceEE2idE@GOTPCREL(%rip), %rax
	cmpb	$0, (%rax)
	jne	.L601
	movb	$1, (%rax)
.L601:
	addq	$8, %rsp
	.cfi_remember_state
	.cfi_def_cfa_offset 8
	ret
.L632:
	.cfi_restore_state
	movq	_ZGVZN4asio15system_categoryEvE8instance@GOTPCREL(%rip), %rdi
	call	__cxa_guard_acquire@PLT
	testl	%eax, %eax
	je	.L603
	movq	_ZZN4asio15system_categoryEvE8instance@GOTPCREL(%rip), %rsi
	movq	_ZN4asio6detail15system_categoryD1Ev@GOTPCREL(%rip), %rdi
	leaq	__dso_handle(%rip), %rdx
	call	__cxa_atexit@PLT
	movq	_ZGVZN4asio15system_categoryEvE8instance@GOTPCREL(%rip), %rdi
	call	__cxa_guard_release@PLT
	jmp	.L603
.L636:
	movb	$1, (%rax)
	jmp	.L617
.L635:
	movq	_ZGVZN4asio5error17get_misc_categoryEvE8instance@GOTPCREL(%rip), %rdi
	call	__cxa_guard_acquire@PLT
	testl	%eax, %eax
	je	.L612
	movq	_ZZN4asio5error17get_misc_categoryEvE8instance@GOTPCREL(%rip), %rsi
	movq	_ZN4asio5error6detail13misc_categoryD1Ev@GOTPCREL(%rip), %rdi
	leaq	__dso_handle(%rip), %rdx
	call	__cxa_atexit@PLT
	movq	_ZGVZN4asio5error17get_misc_categoryEvE8instance@GOTPCREL(%rip), %rdi
	call	__cxa_guard_release@PLT
	jmp	.L612
.L634:
	movq	_ZGVZN4asio5error21get_addrinfo_categoryEvE8instance@GOTPCREL(%rip), %rdi
	call	__cxa_guard_acquire@PLT
	testl	%eax, %eax
	je	.L609
	movq	_ZZN4asio5error21get_addrinfo_categoryEvE8instance@GOTPCREL(%rip), %rsi
	movq	_ZN4asio5error6detail17addrinfo_categoryD1Ev@GOTPCREL(%rip), %rdi
	leaq	__dso_handle(%rip), %rdx
	call	__cxa_atexit@PLT
	movq	_ZGVZN4asio5error21get_addrinfo_categoryEvE8instance@GOTPCREL(%rip), %rdi
	call	__cxa_guard_release@PLT
	jmp	.L609
.L633:
	movq	_ZGVZN4asio5error18get_netdb_categoryEvE8instance@GOTPCREL(%rip), %rdi
	call	__cxa_guard_acquire@PLT
	testl	%eax, %eax
	je	.L606
	movq	_ZZN4asio5error18get_netdb_categoryEvE8instance@GOTPCREL(%rip), %rsi
	movq	_ZN4asio5error6detail14netdb_categoryD1Ev@GOTPCREL(%rip), %rdi
	leaq	__dso_handle(%rip), %rdx
	call	__cxa_atexit@PLT
	movq	_ZGVZN4asio5error18get_netdb_categoryEvE8instance@GOTPCREL(%rip), %rdi
	call	__cxa_guard_release@PLT
	jmp	.L606
	.cfi_endproc
.LFE10330:
	.size	_GLOBAL__sub_I_SerialIOHandler.cpp, .-_GLOBAL__sub_I_SerialIOHandler.cpp
	.section	.init_array,"aw"
	.align 8
	.quad	_GLOBAL__sub_I_SerialIOHandler.cpp
	.weak	_ZTSSt11_Mutex_baseILN9__gnu_cxx12_Lock_policyE2EE
	.section	.rodata._ZTSSt11_Mutex_baseILN9__gnu_cxx12_Lock_policyE2EE,"aG",@progbits,_ZTSSt11_Mutex_baseILN9__gnu_cxx12_Lock_policyE2EE,comdat
	.align 32
	.type	_ZTSSt11_Mutex_baseILN9__gnu_cxx12_Lock_policyE2EE, @object
	.size	_ZTSSt11_Mutex_baseILN9__gnu_cxx12_Lock_policyE2EE, 47
_ZTSSt11_Mutex_baseILN9__gnu_cxx12_Lock_policyE2EE:
	.string	"St11_Mutex_baseILN9__gnu_cxx12_Lock_policyE2EE"
	.weak	_ZTISt11_Mutex_baseILN9__gnu_cxx12_Lock_policyE2EE
	.section	.data.rel.ro._ZTISt11_Mutex_baseILN9__gnu_cxx12_Lock_policyE2EE,"awG",@progbits,_ZTISt11_Mutex_baseILN9__gnu_cxx12_Lock_policyE2EE,comdat
	.align 8
	.type	_ZTISt11_Mutex_baseILN9__gnu_cxx12_Lock_policyE2EE, @object
	.size	_ZTISt11_Mutex_baseILN9__gnu_cxx12_Lock_policyE2EE, 16
_ZTISt11_Mutex_baseILN9__gnu_cxx12_Lock_policyE2EE:
	.quad	_ZTVN10__cxxabiv117__class_type_infoE+16
	.quad	_ZTSSt11_Mutex_baseILN9__gnu_cxx12_Lock_policyE2EE
	.weak	_ZTSN7openpal10UncopyableE
	.section	.rodata._ZTSN7openpal10UncopyableE,"aG",@progbits,_ZTSN7openpal10UncopyableE,comdat
	.align 16
	.type	_ZTSN7openpal10UncopyableE, @object
	.size	_ZTSN7openpal10UncopyableE, 23
_ZTSN7openpal10UncopyableE:
	.string	"N7openpal10UncopyableE"
	.weak	_ZTIN7openpal10UncopyableE
	.section	.data.rel.ro._ZTIN7openpal10UncopyableE,"awG",@progbits,_ZTIN7openpal10UncopyableE,comdat
	.align 8
	.type	_ZTIN7openpal10UncopyableE, @object
	.size	_ZTIN7openpal10UncopyableE, 16
_ZTIN7openpal10UncopyableE:
	.quad	_ZTVN10__cxxabiv117__class_type_infoE+16
	.quad	_ZTSN7openpal10UncopyableE
	.weak	_ZTSSt23enable_shared_from_thisIN7asiopal13IAsyncChannelEE
	.section	.rodata._ZTSSt23enable_shared_from_thisIN7asiopal13IAsyncChannelEE,"aG",@progbits,_ZTSSt23enable_shared_from_thisIN7asiopal13IAsyncChannelEE,comdat
	.align 32
	.type	_ZTSSt23enable_shared_from_thisIN7asiopal13IAsyncChannelEE, @object
	.size	_ZTSSt23enable_shared_from_thisIN7asiopal13IAsyncChannelEE, 55
_ZTSSt23enable_shared_from_thisIN7asiopal13IAsyncChannelEE:
	.string	"St23enable_shared_from_thisIN7asiopal13IAsyncChannelEE"
	.weak	_ZTISt23enable_shared_from_thisIN7asiopal13IAsyncChannelEE
	.section	.data.rel.ro._ZTISt23enable_shared_from_thisIN7asiopal13IAsyncChannelEE,"awG",@progbits,_ZTISt23enable_shared_from_thisIN7asiopal13IAsyncChannelEE,comdat
	.align 8
	.type	_ZTISt23enable_shared_from_thisIN7asiopal13IAsyncChannelEE, @object
	.size	_ZTISt23enable_shared_from_thisIN7asiopal13IAsyncChannelEE, 16
_ZTISt23enable_shared_from_thisIN7asiopal13IAsyncChannelEE:
	.quad	_ZTVN10__cxxabiv117__class_type_infoE+16
	.quad	_ZTSSt23enable_shared_from_thisIN7asiopal13IAsyncChannelEE
	.weak	_ZTSSt19_Sp_make_shared_tag
	.section	.rodata._ZTSSt19_Sp_make_shared_tag,"aG",@progbits,_ZTSSt19_Sp_make_shared_tag,comdat
	.align 16
	.type	_ZTSSt19_Sp_make_shared_tag, @object
	.size	_ZTSSt19_Sp_make_shared_tag, 24
_ZTSSt19_Sp_make_shared_tag:
	.string	"St19_Sp_make_shared_tag"
	.weak	_ZGVN4asio6detail12service_baseINS0_14strand_serviceEE2idE
	.section	.bss._ZGVN4asio6detail12service_baseINS0_14strand_serviceEE2idE,"awG",@nobits,_ZGVN4asio6detail12service_baseINS0_14strand_serviceEE2idE,comdat
	.align 8
	.type	_ZGVN4asio6detail12service_baseINS0_14strand_serviceEE2idE, @gnu_unique_object
	.size	_ZGVN4asio6detail12service_baseINS0_14strand_serviceEE2idE, 8
_ZGVN4asio6detail12service_baseINS0_14strand_serviceEE2idE:
	.zero	8
	.weak	_ZGVN4asio6detail10call_stackINS0_14strand_service11strand_implEhE4top_E
	.section	.bss._ZGVN4asio6detail10call_stackINS0_14strand_service11strand_implEhE4top_E,"awG",@nobits,_ZGVN4asio6detail10call_stackINS0_14strand_service11strand_implEhE4top_E,comdat
	.align 8
	.type	_ZGVN4asio6detail10call_stackINS0_14strand_service11strand_implEhE4top_E, @gnu_unique_object
	.size	_ZGVN4asio6detail10call_stackINS0_14strand_service11strand_implEhE4top_E, 8
_ZGVN4asio6detail10call_stackINS0_14strand_service11strand_implEhE4top_E:
	.zero	8
	.weak	_ZGVN4asio6detail12service_baseINS0_15task_io_serviceEE2idE
	.section	.bss._ZGVN4asio6detail12service_baseINS0_15task_io_serviceEE2idE,"awG",@nobits,_ZGVN4asio6detail12service_baseINS0_15task_io_serviceEE2idE,comdat
	.align 8
	.type	_ZGVN4asio6detail12service_baseINS0_15task_io_serviceEE2idE, @gnu_unique_object
	.size	_ZGVN4asio6detail12service_baseINS0_15task_io_serviceEE2idE, 8
_ZGVN4asio6detail12service_baseINS0_15task_io_serviceEE2idE:
	.zero	8
	.weak	_ZGVN4asio6detail12service_baseINS0_13epoll_reactorEE2idE
	.section	.bss._ZGVN4asio6detail12service_baseINS0_13epoll_reactorEE2idE,"awG",@nobits,_ZGVN4asio6detail12service_baseINS0_13epoll_reactorEE2idE,comdat
	.align 8
	.type	_ZGVN4asio6detail12service_baseINS0_13epoll_reactorEE2idE, @gnu_unique_object
	.size	_ZGVN4asio6detail12service_baseINS0_13epoll_reactorEE2idE, 8
_ZGVN4asio6detail12service_baseINS0_13epoll_reactorEE2idE:
	.zero	8
	.weak	_ZGVN4asio6detail10call_stackINS0_15task_io_serviceENS0_27task_io_service_thread_infoEE4top_E
	.section	.bss._ZGVN4asio6detail10call_stackINS0_15task_io_serviceENS0_27task_io_service_thread_infoEE4top_E,"awG",@nobits,_ZGVN4asio6detail10call_stackINS0_15task_io_serviceENS0_27task_io_service_thread_infoEE4top_E,comdat
	.align 8
	.type	_ZGVN4asio6detail10call_stackINS0_15task_io_serviceENS0_27task_io_service_thread_infoEE4top_E, @gnu_unique_object
	.size	_ZGVN4asio6detail10call_stackINS0_15task_io_serviceENS0_27task_io_service_thread_infoEE4top_E, 8
_ZGVN4asio6detail10call_stackINS0_15task_io_serviceENS0_27task_io_service_thread_infoEE4top_E:
	.zero	8
	.weak	_ZTSSt16_Sp_counted_baseILN9__gnu_cxx12_Lock_policyE2EE
	.section	.rodata._ZTSSt16_Sp_counted_baseILN9__gnu_cxx12_Lock_policyE2EE,"aG",@progbits,_ZTSSt16_Sp_counted_baseILN9__gnu_cxx12_Lock_policyE2EE,comdat
	.align 32
	.type	_ZTSSt16_Sp_counted_baseILN9__gnu_cxx12_Lock_policyE2EE, @object
	.size	_ZTSSt16_Sp_counted_baseILN9__gnu_cxx12_Lock_policyE2EE, 52
_ZTSSt16_Sp_counted_baseILN9__gnu_cxx12_Lock_policyE2EE:
	.string	"St16_Sp_counted_baseILN9__gnu_cxx12_Lock_policyE2EE"
	.weak	_ZTISt16_Sp_counted_baseILN9__gnu_cxx12_Lock_policyE2EE
	.section	.data.rel.ro._ZTISt16_Sp_counted_baseILN9__gnu_cxx12_Lock_policyE2EE,"awG",@progbits,_ZTISt16_Sp_counted_baseILN9__gnu_cxx12_Lock_policyE2EE,comdat
	.align 8
	.type	_ZTISt16_Sp_counted_baseILN9__gnu_cxx12_Lock_policyE2EE, @object
	.size	_ZTISt16_Sp_counted_baseILN9__gnu_cxx12_Lock_policyE2EE, 24
_ZTISt16_Sp_counted_baseILN9__gnu_cxx12_Lock_policyE2EE:
	.quad	_ZTVN10__cxxabiv120__si_class_type_infoE+16
	.quad	_ZTSSt16_Sp_counted_baseILN9__gnu_cxx12_Lock_policyE2EE
	.quad	_ZTISt11_Mutex_baseILN9__gnu_cxx12_Lock_policyE2EE
	.weak	_ZTSN4asio6detail15system_categoryE
	.section	.rodata._ZTSN4asio6detail15system_categoryE,"aG",@progbits,_ZTSN4asio6detail15system_categoryE,comdat
	.align 32
	.type	_ZTSN4asio6detail15system_categoryE, @object
	.size	_ZTSN4asio6detail15system_categoryE, 32
_ZTSN4asio6detail15system_categoryE:
	.string	"N4asio6detail15system_categoryE"
	.weak	_ZTIN4asio6detail15system_categoryE
	.section	.data.rel.ro._ZTIN4asio6detail15system_categoryE,"awG",@progbits,_ZTIN4asio6detail15system_categoryE,comdat
	.align 8
	.type	_ZTIN4asio6detail15system_categoryE, @object
	.size	_ZTIN4asio6detail15system_categoryE, 24
_ZTIN4asio6detail15system_categoryE:
	.quad	_ZTVN10__cxxabiv120__si_class_type_infoE+16
	.quad	_ZTSN4asio6detail15system_categoryE
	.quad	_ZTINSt3_V214error_categoryE
	.weak	_ZTSN4asio5error6detail14netdb_categoryE
	.section	.rodata._ZTSN4asio5error6detail14netdb_categoryE,"aG",@progbits,_ZTSN4asio5error6detail14netdb_categoryE,comdat
	.align 32
	.type	_ZTSN4asio5error6detail14netdb_categoryE, @object
	.size	_ZTSN4asio5error6detail14netdb_categoryE, 37
_ZTSN4asio5error6detail14netdb_categoryE:
	.string	"N4asio5error6detail14netdb_categoryE"
	.weak	_ZTIN4asio5error6detail14netdb_categoryE
	.section	.data.rel.ro._ZTIN4asio5error6detail14netdb_categoryE,"awG",@progbits,_ZTIN4asio5error6detail14netdb_categoryE,comdat
	.align 8
	.type	_ZTIN4asio5error6detail14netdb_categoryE, @object
	.size	_ZTIN4asio5error6detail14netdb_categoryE, 24
_ZTIN4asio5error6detail14netdb_categoryE:
	.quad	_ZTVN10__cxxabiv120__si_class_type_infoE+16
	.quad	_ZTSN4asio5error6detail14netdb_categoryE
	.quad	_ZTINSt3_V214error_categoryE
	.weak	_ZTSN4asio5error6detail17addrinfo_categoryE
	.section	.rodata._ZTSN4asio5error6detail17addrinfo_categoryE,"aG",@progbits,_ZTSN4asio5error6detail17addrinfo_categoryE,comdat
	.align 32
	.type	_ZTSN4asio5error6detail17addrinfo_categoryE, @object
	.size	_ZTSN4asio5error6detail17addrinfo_categoryE, 40
_ZTSN4asio5error6detail17addrinfo_categoryE:
	.string	"N4asio5error6detail17addrinfo_categoryE"
	.weak	_ZTIN4asio5error6detail17addrinfo_categoryE
	.section	.data.rel.ro._ZTIN4asio5error6detail17addrinfo_categoryE,"awG",@progbits,_ZTIN4asio5error6detail17addrinfo_categoryE,comdat
	.align 8
	.type	_ZTIN4asio5error6detail17addrinfo_categoryE, @object
	.size	_ZTIN4asio5error6detail17addrinfo_categoryE, 24
_ZTIN4asio5error6detail17addrinfo_categoryE:
	.quad	_ZTVN10__cxxabiv120__si_class_type_infoE+16
	.quad	_ZTSN4asio5error6detail17addrinfo_categoryE
	.quad	_ZTINSt3_V214error_categoryE
	.weak	_ZTSN4asio5error6detail13misc_categoryE
	.section	.rodata._ZTSN4asio5error6detail13misc_categoryE,"aG",@progbits,_ZTSN4asio5error6detail13misc_categoryE,comdat
	.align 32
	.type	_ZTSN4asio5error6detail13misc_categoryE, @object
	.size	_ZTSN4asio5error6detail13misc_categoryE, 36
_ZTSN4asio5error6detail13misc_categoryE:
	.string	"N4asio5error6detail13misc_categoryE"
	.weak	_ZTIN4asio5error6detail13misc_categoryE
	.section	.data.rel.ro._ZTIN4asio5error6detail13misc_categoryE,"awG",@progbits,_ZTIN4asio5error6detail13misc_categoryE,comdat
	.align 8
	.type	_ZTIN4asio5error6detail13misc_categoryE, @object
	.size	_ZTIN4asio5error6detail13misc_categoryE, 24
_ZTIN4asio5error6detail13misc_categoryE:
	.quad	_ZTVN10__cxxabiv120__si_class_type_infoE+16
	.quad	_ZTSN4asio5error6detail13misc_categoryE
	.quad	_ZTINSt3_V214error_categoryE
	.weak	_ZTSN7asiopal13IAsyncChannelE
	.section	.rodata._ZTSN7asiopal13IAsyncChannelE,"aG",@progbits,_ZTSN7asiopal13IAsyncChannelE,comdat
	.align 16
	.type	_ZTSN7asiopal13IAsyncChannelE, @object
	.size	_ZTSN7asiopal13IAsyncChannelE, 26
_ZTSN7asiopal13IAsyncChannelE:
	.string	"N7asiopal13IAsyncChannelE"
	.weak	_ZTIN7asiopal13IAsyncChannelE
	.section	.data.rel.ro._ZTIN7asiopal13IAsyncChannelE,"awG",@progbits,_ZTIN7asiopal13IAsyncChannelE,comdat
	.align 8
	.type	_ZTIN7asiopal13IAsyncChannelE, @object
	.size	_ZTIN7asiopal13IAsyncChannelE, 56
_ZTIN7asiopal13IAsyncChannelE:
	.quad	_ZTVN10__cxxabiv121__vmi_class_type_infoE+16
	.quad	_ZTSN7asiopal13IAsyncChannelE
	.long	0
	.long	2
	.quad	_ZTISt23enable_shared_from_thisIN7asiopal13IAsyncChannelEE
	.quad	2050
	.quad	_ZTIN7openpal10UncopyableE
	.quad	0
	.weak	_ZTSN8asiodnp315SerialIOHandlerE
	.section	.rodata._ZTSN8asiodnp315SerialIOHandlerE,"aG",@progbits,_ZTSN8asiodnp315SerialIOHandlerE,comdat
	.align 16
	.type	_ZTSN8asiodnp315SerialIOHandlerE, @object
	.size	_ZTSN8asiodnp315SerialIOHandlerE, 29
_ZTSN8asiodnp315SerialIOHandlerE:
	.string	"N8asiodnp315SerialIOHandlerE"
	.weak	_ZTIN8asiodnp315SerialIOHandlerE
	.section	.data.rel.ro._ZTIN8asiodnp315SerialIOHandlerE,"awG",@progbits,_ZTIN8asiodnp315SerialIOHandlerE,comdat
	.align 8
	.type	_ZTIN8asiodnp315SerialIOHandlerE, @object
	.size	_ZTIN8asiodnp315SerialIOHandlerE, 24
_ZTIN8asiodnp315SerialIOHandlerE:
	.quad	_ZTVN10__cxxabiv120__si_class_type_infoE+16
	.quad	_ZTSN8asiodnp315SerialIOHandlerE
	.quad	_ZTIN8asiodnp39IOHandlerE
	.section	.data.rel.ro,"aw"
	.align 8
	.type	_ZTIZN7openpal8TimerRef5StartIZN8asiodnp315SerialIOHandler7TryOpenERKNS_12TimeDurationEEUlvE_EEbS6_RKT_EUlvE_, @object
	.size	_ZTIZN7openpal8TimerRef5StartIZN8asiodnp315SerialIOHandler7TryOpenERKNS_12TimeDurationEEUlvE_EEbS6_RKT_EUlvE_, 16
_ZTIZN7openpal8TimerRef5StartIZN8asiodnp315SerialIOHandler7TryOpenERKNS_12TimeDurationEEUlvE_EEbS6_RKT_EUlvE_:
	.quad	_ZTVN10__cxxabiv117__class_type_infoE+16
	.quad	_ZTSZN7openpal8TimerRef5StartIZN8asiodnp315SerialIOHandler7TryOpenERKNS_12TimeDurationEEUlvE_EEbS6_RKT_EUlvE_
	.section	.rodata
	.align 32
	.type	_ZTSZN7openpal8TimerRef5StartIZN8asiodnp315SerialIOHandler7TryOpenERKNS_12TimeDurationEEUlvE_EEbS6_RKT_EUlvE_, @object
	.size	_ZTSZN7openpal8TimerRef5StartIZN8asiodnp315SerialIOHandler7TryOpenERKNS_12TimeDurationEEUlvE_EEbS6_RKT_EUlvE_, 107
_ZTSZN7openpal8TimerRef5StartIZN8asiodnp315SerialIOHandler7TryOpenERKNS_12TimeDurationEEUlvE_EEbS6_RKT_EUlvE_:
	.string	"*ZN7openpal8TimerRef5StartIZN8asiodnp315SerialIOHandler7TryOpenERKNS_12TimeDurationEEUlvE_EEbS6_RKT_EUlvE_"
	.weak	_ZTSSt23_Sp_counted_ptr_inplaceIN7asiopal13SerialChannelESaIvELN9__gnu_cxx12_Lock_policyE2EE
	.section	.rodata._ZTSSt23_Sp_counted_ptr_inplaceIN7asiopal13SerialChannelESaIvELN9__gnu_cxx12_Lock_policyE2EE,"aG",@progbits,_ZTSSt23_Sp_counted_ptr_inplaceIN7asiopal13SerialChannelESaIvELN9__gnu_cxx12_Lock_policyE2EE,comdat
	.align 32
	.type	_ZTSSt23_Sp_counted_ptr_inplaceIN7asiopal13SerialChannelESaIvELN9__gnu_cxx12_Lock_policyE2EE, @object
	.size	_ZTSSt23_Sp_counted_ptr_inplaceIN7asiopal13SerialChannelESaIvELN9__gnu_cxx12_Lock_policyE2EE, 89
_ZTSSt23_Sp_counted_ptr_inplaceIN7asiopal13SerialChannelESaIvELN9__gnu_cxx12_Lock_policyE2EE:
	.string	"St23_Sp_counted_ptr_inplaceIN7asiopal13SerialChannelESaIvELN9__gnu_cxx12_Lock_policyE2EE"
	.weak	_ZTISt23_Sp_counted_ptr_inplaceIN7asiopal13SerialChannelESaIvELN9__gnu_cxx12_Lock_policyE2EE
	.section	.data.rel.ro._ZTISt23_Sp_counted_ptr_inplaceIN7asiopal13SerialChannelESaIvELN9__gnu_cxx12_Lock_policyE2EE,"awG",@progbits,_ZTISt23_Sp_counted_ptr_inplaceIN7asiopal13SerialChannelESaIvELN9__gnu_cxx12_Lock_policyE2EE,comdat
	.align 8
	.type	_ZTISt23_Sp_counted_ptr_inplaceIN7asiopal13SerialChannelESaIvELN9__gnu_cxx12_Lock_policyE2EE, @object
	.size	_ZTISt23_Sp_counted_ptr_inplaceIN7asiopal13SerialChannelESaIvELN9__gnu_cxx12_Lock_policyE2EE, 24
_ZTISt23_Sp_counted_ptr_inplaceIN7asiopal13SerialChannelESaIvELN9__gnu_cxx12_Lock_policyE2EE:
	.quad	_ZTVN10__cxxabiv120__si_class_type_infoE+16
	.quad	_ZTSSt23_Sp_counted_ptr_inplaceIN7asiopal13SerialChannelESaIvELN9__gnu_cxx12_Lock_policyE2EE
	.quad	_ZTISt16_Sp_counted_baseILN9__gnu_cxx12_Lock_policyE2EE
	.weak	_ZTVN4asio6detail15system_categoryE
	.section	.data.rel.ro._ZTVN4asio6detail15system_categoryE,"awG",@progbits,_ZTVN4asio6detail15system_categoryE,comdat
	.align 8
	.type	_ZTVN4asio6detail15system_categoryE, @object
	.size	_ZTVN4asio6detail15system_categoryE, 80
_ZTVN4asio6detail15system_categoryE:
	.quad	0
	.quad	_ZTIN4asio6detail15system_categoryE
	.quad	_ZN4asio6detail15system_categoryD1Ev
	.quad	_ZN4asio6detail15system_categoryD0Ev
	.quad	_ZNK4asio6detail15system_category4nameEv
	.quad	_ZNKSt3_V214error_category10_M_messageB5cxx11Ei
	.quad	_ZNK4asio6detail15system_category7messageB5cxx11Ei
	.quad	_ZNKSt3_V214error_category23default_error_conditionEi
	.quad	_ZNKSt3_V214error_category10equivalentEiRKSt15error_condition
	.quad	_ZNKSt3_V214error_category10equivalentERKSt10error_codei
	.weak	_ZTVN4asio5error6detail14netdb_categoryE
	.section	.data.rel.ro._ZTVN4asio5error6detail14netdb_categoryE,"awG",@progbits,_ZTVN4asio5error6detail14netdb_categoryE,comdat
	.align 8
	.type	_ZTVN4asio5error6detail14netdb_categoryE, @object
	.size	_ZTVN4asio5error6detail14netdb_categoryE, 80
_ZTVN4asio5error6detail14netdb_categoryE:
	.quad	0
	.quad	_ZTIN4asio5error6detail14netdb_categoryE
	.quad	_ZN4asio5error6detail14netdb_categoryD1Ev
	.quad	_ZN4asio5error6detail14netdb_categoryD0Ev
	.quad	_ZNK4asio5error6detail14netdb_category4nameEv
	.quad	_ZNKSt3_V214error_category10_M_messageB5cxx11Ei
	.quad	_ZNK4asio5error6detail14netdb_category7messageB5cxx11Ei
	.quad	_ZNKSt3_V214error_category23default_error_conditionEi
	.quad	_ZNKSt3_V214error_category10equivalentEiRKSt15error_condition
	.quad	_ZNKSt3_V214error_category10equivalentERKSt10error_codei
	.weak	_ZTVN4asio5error6detail17addrinfo_categoryE
	.section	.data.rel.ro._ZTVN4asio5error6detail17addrinfo_categoryE,"awG",@progbits,_ZTVN4asio5error6detail17addrinfo_categoryE,comdat
	.align 8
	.type	_ZTVN4asio5error6detail17addrinfo_categoryE, @object
	.size	_ZTVN4asio5error6detail17addrinfo_categoryE, 80
_ZTVN4asio5error6detail17addrinfo_categoryE:
	.quad	0
	.quad	_ZTIN4asio5error6detail17addrinfo_categoryE
	.quad	_ZN4asio5error6detail17addrinfo_categoryD1Ev
	.quad	_ZN4asio5error6detail17addrinfo_categoryD0Ev
	.quad	_ZNK4asio5error6detail17addrinfo_category4nameEv
	.quad	_ZNKSt3_V214error_category10_M_messageB5cxx11Ei
	.quad	_ZNK4asio5error6detail17addrinfo_category7messageB5cxx11Ei
	.quad	_ZNKSt3_V214error_category23default_error_conditionEi
	.quad	_ZNKSt3_V214error_category10equivalentEiRKSt15error_condition
	.quad	_ZNKSt3_V214error_category10equivalentERKSt10error_codei
	.weak	_ZTVN4asio5error6detail13misc_categoryE
	.section	.data.rel.ro._ZTVN4asio5error6detail13misc_categoryE,"awG",@progbits,_ZTVN4asio5error6detail13misc_categoryE,comdat
	.align 8
	.type	_ZTVN4asio5error6detail13misc_categoryE, @object
	.size	_ZTVN4asio5error6detail13misc_categoryE, 80
_ZTVN4asio5error6detail13misc_categoryE:
	.quad	0
	.quad	_ZTIN4asio5error6detail13misc_categoryE
	.quad	_ZN4asio5error6detail13misc_categoryD1Ev
	.quad	_ZN4asio5error6detail13misc_categoryD0Ev
	.quad	_ZNK4asio5error6detail13misc_category4nameEv
	.quad	_ZNKSt3_V214error_category10_M_messageB5cxx11Ei
	.quad	_ZNK4asio5error6detail13misc_category7messageB5cxx11Ei
	.quad	_ZNKSt3_V214error_category23default_error_conditionEi
	.quad	_ZNKSt3_V214error_category10equivalentEiRKSt15error_condition
	.quad	_ZNKSt3_V214error_category10equivalentERKSt10error_codei
	.weak	_ZTVN7asiopal13IAsyncChannelE
	.section	.data.rel.ro._ZTVN7asiopal13IAsyncChannelE,"awG",@progbits,_ZTVN7asiopal13IAsyncChannelE,comdat
	.align 8
	.type	_ZTVN7asiopal13IAsyncChannelE, @object
	.size	_ZTVN7asiopal13IAsyncChannelE, 56
_ZTVN7asiopal13IAsyncChannelE:
	.quad	0
	.quad	_ZTIN7asiopal13IAsyncChannelE
	.quad	0
	.quad	0
	.quad	__cxa_pure_virtual
	.quad	__cxa_pure_virtual
	.quad	__cxa_pure_virtual
	.weak	_ZTVN8asiodnp315SerialIOHandlerE
	.section	.data.rel.ro._ZTVN8asiodnp315SerialIOHandlerE,"awG",@progbits,_ZTVN8asiodnp315SerialIOHandlerE,comdat
	.align 8
	.type	_ZTVN8asiodnp315SerialIOHandlerE, @object
	.size	_ZTVN8asiodnp315SerialIOHandlerE, 136
_ZTVN8asiodnp315SerialIOHandlerE:
	.quad	0
	.quad	_ZTIN8asiodnp315SerialIOHandlerE
	.quad	_ZN8asiodnp315SerialIOHandlerD1Ev
	.quad	_ZN8asiodnp315SerialIOHandlerD0Ev
	.quad	_ZN8asiodnp39IOHandler7OnFrameERKN8opendnp316LinkHeaderFieldsERKN7openpal6RSliceE
	.quad	_ZN8asiodnp39IOHandler14OnReadCompleteERKSt10error_codem
	.quad	_ZN8asiodnp39IOHandler15OnWriteCompleteERKSt10error_codem
	.quad	_ZN8asiodnp315SerialIOHandler18BeginChannelAcceptEv
	.quad	_ZN8asiodnp315SerialIOHandler20SuspendChannelAcceptEv
	.quad	_ZN8asiodnp315SerialIOHandler12ShutdownImplEv
	.quad	_ZN8asiodnp315SerialIOHandler17OnChannelShutdownEv
	.quad	-8
	.quad	_ZTIN8asiodnp315SerialIOHandlerE
	.quad	_ZThn8_N8asiodnp315SerialIOHandlerD1Ev
	.quad	_ZThn8_N8asiodnp315SerialIOHandlerD0Ev
	.quad	_ZThn8_N8asiodnp39IOHandler14OnReadCompleteERKSt10error_codem
	.quad	_ZThn8_N8asiodnp39IOHandler15OnWriteCompleteERKSt10error_codem
	.weak	_ZTVSt23_Sp_counted_ptr_inplaceIN7asiopal13SerialChannelESaIvELN9__gnu_cxx12_Lock_policyE2EE
	.section	.data.rel.ro._ZTVSt23_Sp_counted_ptr_inplaceIN7asiopal13SerialChannelESaIvELN9__gnu_cxx12_Lock_policyE2EE,"awG",@progbits,_ZTVSt23_Sp_counted_ptr_inplaceIN7asiopal13SerialChannelESaIvELN9__gnu_cxx12_Lock_policyE2EE,comdat
	.align 8
	.type	_ZTVSt23_Sp_counted_ptr_inplaceIN7asiopal13SerialChannelESaIvELN9__gnu_cxx12_Lock_policyE2EE, @object
	.size	_ZTVSt23_Sp_counted_ptr_inplaceIN7asiopal13SerialChannelESaIvELN9__gnu_cxx12_Lock_policyE2EE, 56
_ZTVSt23_Sp_counted_ptr_inplaceIN7asiopal13SerialChannelESaIvELN9__gnu_cxx12_Lock_policyE2EE:
	.quad	0
	.quad	_ZTISt23_Sp_counted_ptr_inplaceIN7asiopal13SerialChannelESaIvELN9__gnu_cxx12_Lock_policyE2EE
	.quad	_ZNSt23_Sp_counted_ptr_inplaceIN7asiopal13SerialChannelESaIvELN9__gnu_cxx12_Lock_policyE2EED1Ev
	.quad	_ZNSt23_Sp_counted_ptr_inplaceIN7asiopal13SerialChannelESaIvELN9__gnu_cxx12_Lock_policyE2EED0Ev
	.quad	_ZNSt23_Sp_counted_ptr_inplaceIN7asiopal13SerialChannelESaIvELN9__gnu_cxx12_Lock_policyE2EE10_M_disposeEv
	.quad	_ZNSt23_Sp_counted_ptr_inplaceIN7asiopal13SerialChannelESaIvELN9__gnu_cxx12_Lock_policyE2EE10_M_destroyEv
	.quad	_ZNSt23_Sp_counted_ptr_inplaceIN7asiopal13SerialChannelESaIvELN9__gnu_cxx12_Lock_policyE2EE14_M_get_deleterERKSt9type_info
	.weak	_ZGVZN4asio5error17get_misc_categoryEvE8instance
	.section	.bss._ZGVZN4asio5error17get_misc_categoryEvE8instance,"awG",@nobits,_ZGVZN4asio5error17get_misc_categoryEvE8instance,comdat
	.align 8
	.type	_ZGVZN4asio5error17get_misc_categoryEvE8instance, @gnu_unique_object
	.size	_ZGVZN4asio5error17get_misc_categoryEvE8instance, 8
_ZGVZN4asio5error17get_misc_categoryEvE8instance:
	.zero	8
	.weak	_ZZN4asio5error17get_misc_categoryEvE8instance
	.section	.data.rel._ZZN4asio5error17get_misc_categoryEvE8instance,"awG",@progbits,_ZZN4asio5error17get_misc_categoryEvE8instance,comdat
	.align 8
	.type	_ZZN4asio5error17get_misc_categoryEvE8instance, @gnu_unique_object
	.size	_ZZN4asio5error17get_misc_categoryEvE8instance, 8
_ZZN4asio5error17get_misc_categoryEvE8instance:
	.quad	_ZTVN4asio5error6detail13misc_categoryE+16
	.weak	_ZGVZN4asio5error21get_addrinfo_categoryEvE8instance
	.section	.bss._ZGVZN4asio5error21get_addrinfo_categoryEvE8instance,"awG",@nobits,_ZGVZN4asio5error21get_addrinfo_categoryEvE8instance,comdat
	.align 8
	.type	_ZGVZN4asio5error21get_addrinfo_categoryEvE8instance, @gnu_unique_object
	.size	_ZGVZN4asio5error21get_addrinfo_categoryEvE8instance, 8
_ZGVZN4asio5error21get_addrinfo_categoryEvE8instance:
	.zero	8
	.weak	_ZZN4asio5error21get_addrinfo_categoryEvE8instance
	.section	.data.rel._ZZN4asio5error21get_addrinfo_categoryEvE8instance,"awG",@progbits,_ZZN4asio5error21get_addrinfo_categoryEvE8instance,comdat
	.align 8
	.type	_ZZN4asio5error21get_addrinfo_categoryEvE8instance, @gnu_unique_object
	.size	_ZZN4asio5error21get_addrinfo_categoryEvE8instance, 8
_ZZN4asio5error21get_addrinfo_categoryEvE8instance:
	.quad	_ZTVN4asio5error6detail17addrinfo_categoryE+16
	.weak	_ZGVZN4asio5error18get_netdb_categoryEvE8instance
	.section	.bss._ZGVZN4asio5error18get_netdb_categoryEvE8instance,"awG",@nobits,_ZGVZN4asio5error18get_netdb_categoryEvE8instance,comdat
	.align 8
	.type	_ZGVZN4asio5error18get_netdb_categoryEvE8instance, @gnu_unique_object
	.size	_ZGVZN4asio5error18get_netdb_categoryEvE8instance, 8
_ZGVZN4asio5error18get_netdb_categoryEvE8instance:
	.zero	8
	.weak	_ZZN4asio5error18get_netdb_categoryEvE8instance
	.section	.data.rel._ZZN4asio5error18get_netdb_categoryEvE8instance,"awG",@progbits,_ZZN4asio5error18get_netdb_categoryEvE8instance,comdat
	.align 8
	.type	_ZZN4asio5error18get_netdb_categoryEvE8instance, @gnu_unique_object
	.size	_ZZN4asio5error18get_netdb_categoryEvE8instance, 8
_ZZN4asio5error18get_netdb_categoryEvE8instance:
	.quad	_ZTVN4asio5error6detail14netdb_categoryE+16
	.weak	_ZGVZN4asio15system_categoryEvE8instance
	.section	.bss._ZGVZN4asio15system_categoryEvE8instance,"awG",@nobits,_ZGVZN4asio15system_categoryEvE8instance,comdat
	.align 8
	.type	_ZGVZN4asio15system_categoryEvE8instance, @gnu_unique_object
	.size	_ZGVZN4asio15system_categoryEvE8instance, 8
_ZGVZN4asio15system_categoryEvE8instance:
	.zero	8
	.weak	_ZZN4asio15system_categoryEvE8instance
	.section	.data.rel._ZZN4asio15system_categoryEvE8instance,"awG",@progbits,_ZZN4asio15system_categoryEvE8instance,comdat
	.align 8
	.type	_ZZN4asio15system_categoryEvE8instance, @gnu_unique_object
	.size	_ZZN4asio15system_categoryEvE8instance, 8
_ZZN4asio15system_categoryEvE8instance:
	.quad	_ZTVN4asio6detail15system_categoryE+16
	.weak	_ZN4asio6detail15keyword_tss_ptrINS0_10call_stackINS0_15task_io_serviceENS0_27task_io_service_thread_infoEE7contextEE6value_E
	.section	.tbss._ZN4asio6detail15keyword_tss_ptrINS0_10call_stackINS0_15task_io_serviceENS0_27task_io_service_thread_infoEE7contextEE6value_E,"awTG",@nobits,_ZN4asio6detail15keyword_tss_ptrINS0_10call_stackINS0_15task_io_serviceENS0_27task_io_service_thread_infoEE7contextEE6value_E,comdat
	.align 8
	.type	_ZN4asio6detail15keyword_tss_ptrINS0_10call_stackINS0_15task_io_serviceENS0_27task_io_service_thread_infoEE7contextEE6value_E, @gnu_unique_object
	.size	_ZN4asio6detail15keyword_tss_ptrINS0_10call_stackINS0_15task_io_serviceENS0_27task_io_service_thread_infoEE7contextEE6value_E, 8
_ZN4asio6detail15keyword_tss_ptrINS0_10call_stackINS0_15task_io_serviceENS0_27task_io_service_thread_infoEE7contextEE6value_E:
	.zero	8
	.weak	_ZZNSt19_Sp_make_shared_tag5_S_tiEvE5__tag
	.section	.rodata._ZZNSt19_Sp_make_shared_tag5_S_tiEvE5__tag,"aG",@progbits,_ZZNSt19_Sp_make_shared_tag5_S_tiEvE5__tag,comdat
	.align 8
	.type	_ZZNSt19_Sp_make_shared_tag5_S_tiEvE5__tag, @gnu_unique_object
	.size	_ZZNSt19_Sp_make_shared_tag5_S_tiEvE5__tag, 16
_ZZNSt19_Sp_make_shared_tag5_S_tiEvE5__tag:
	.zero	16
	.section	.rodata.cst16,"aM",@progbits,16
	.align 16
.LC5:
	.quad	8028075772644520015
	.quad	7310593917846626414
	.align 16
.LC7:
	.quad	2334381286471394643
	.quad	7959390400869068654
	.align 16
.LC8:
	.quad	8367816086596579155
	.quad	2338616625292734585
	.align 16
.LC9:
	.quad	8295758535554262384
	.quad	7234316411285303413
	.align 16
.LC10:
	.quad	7234013753529430881
	.quad	8243030355803531634
	.align 16
.LC11:
	.quad	8390045716486254408
	.quad	2891421386351273504
	.align 16
.LC12:
	.quad	8245924292133464096
	.quad	2982920523499009129
	.align 16
.LC13:
	.quad	7526769937477431150
	.quad	8532478930943832687
	.align 16
.LC14:
	.quad	2340027324477221221
	.quad	7020021577750243169
	.align 16
.LC15:
	.quad	8243123821706831956
	.quad	7809653110584451193
	.align 16
.LC16:
	.quad	2338623170819155049
	.quad	2338324160631043177
	.align 16
.LC17:
	.quad	7311138144931573614
	.quad	7019250824563089696
	.align 16
.LC18:
	.quad	7309955097514876993
	.quad	7809911847770287971
	.align 16
.LC19:
	.quad	2338053693894893669
	.quad	7234314212361855855
	.align 16
.LC20:
	.quad	2334956330985808928
	.quad	7310293695322153316
	.align 16
.LC21:
	.quad	8387231026764149601
	.quad	8245935278387126884
	.align 16
.LC22:
	.quad	2338615488418245701
	.quad	7959390400869068654
	.align 16
.LC23:
	.quad	7166182912791242836
	.quad	7214892426067994994
	.align 16
.LC24:
	.quad	2338616625293649263
	.quad	8031165433303558502
	.align 16
.LC25:
	.quad	7810775711721485344
	.quad	7812726531955123045
	.align 16
.LC26:
	.quad	2840764630494639203
	.quad	8387236734590918771
	.section	.rodata.cst8,"aM",@progbits,8
	.align 8
.LC28:
	.long	1
	.long	1
	.section	.data.rel.ro.local,"aw"
	.align 8
.LC33:
	.quad	_ZNSt17_Function_handlerIFvvEZN7openpal8TimerRef5StartIZN8asiodnp315SerialIOHandler7TryOpenERKNS1_12TimeDurationEEUlvE_EEbS8_RKT_EUlvE_E10_M_managerERSt9_Any_dataRKSF_St18_Manager_operation
	.weak	__cxa_pure_virtual
	.hidden	DW.ref.__gxx_personality_v0
	.weak	DW.ref.__gxx_personality_v0
	.section	.data.rel.local.DW.ref.__gxx_personality_v0,"awG",@progbits,DW.ref.__gxx_personality_v0,comdat
	.align 8
	.type	DW.ref.__gxx_personality_v0, @object
	.size	DW.ref.__gxx_personality_v0, 8
DW.ref.__gxx_personality_v0:
	.quad	__gxx_personality_v0
	.hidden	__dso_handle
	.globl	__gxx_personality_v0
	.ident	"GCC: (Debian 15.2.0-4) 15.2.0"
	.section	.note.GNU-stack,"",@progbits
