	.file	"UpdateBuilder.cpp"
	.text
	.p2align 4
	.type	_ZNSt17_Function_handlerIFvRN8opendnp314IUpdateHandlerEEZN8asiodnp313UpdateBuilder6UpdateERKNS0_15TimeAndIntervalEtEUlS2_E_E9_M_invokeERKSt9_Any_dataS2_, @function
_ZNSt17_Function_handlerIFvRN8opendnp314IUpdateHandlerEEZN8asiodnp313UpdateBuilder6UpdateERKNS0_15TimeAndIntervalEtEUlS2_E_E9_M_invokeERKSt9_Any_dataS2_:
.LFB2190:
	.cfi_startproc
	movq	%rdi, %rax
	movq	%rsi, %rdi
	movq	(%rax), %rsi
	movq	(%rdi), %rax
	movzwl	16(%rsi), %edx
	jmp	*72(%rax)
	.cfi_endproc
.LFE2190:
	.size	_ZNSt17_Function_handlerIFvRN8opendnp314IUpdateHandlerEEZN8asiodnp313UpdateBuilder6UpdateERKNS0_15TimeAndIntervalEtEUlS2_E_E9_M_invokeERKSt9_Any_dataS2_, .-_ZNSt17_Function_handlerIFvRN8opendnp314IUpdateHandlerEEZN8asiodnp313UpdateBuilder6UpdateERKNS0_15TimeAndIntervalEtEUlS2_E_E9_M_invokeERKSt9_Any_dataS2_
	.p2align 4
	.type	_ZNSt17_Function_handlerIFvRN8opendnp314IUpdateHandlerEEZN8asiodnp313UpdateBuilder6ModifyENS0_9FlagsTypeEtthEUlS2_E_E9_M_invokeERKSt9_Any_dataS2_, @function
_ZNSt17_Function_handlerIFvRN8opendnp314IUpdateHandlerEEZN8asiodnp313UpdateBuilder6ModifyENS0_9FlagsTypeEtthEUlS2_E_E9_M_invokeERKSt9_Any_dataS2_:
.LFB2195:
	.cfi_startproc
	movq	%rsi, %rax
	movzwl	4(%rdi), %ecx
	movzwl	2(%rdi), %edx
	movq	(%rax), %r8
	movzbl	(%rdi), %esi
	movq	80(%r8), %r9
	movzbl	6(%rdi), %r8d
	movq	%rax, %rdi
	jmp	*%r9
	.cfi_endproc
.LFE2195:
	.size	_ZNSt17_Function_handlerIFvRN8opendnp314IUpdateHandlerEEZN8asiodnp313UpdateBuilder6ModifyENS0_9FlagsTypeEtthEUlS2_E_E9_M_invokeERKSt9_Any_dataS2_, .-_ZNSt17_Function_handlerIFvRN8opendnp314IUpdateHandlerEEZN8asiodnp313UpdateBuilder6ModifyENS0_9FlagsTypeEtthEUlS2_E_E9_M_invokeERKSt9_Any_dataS2_
	.section	.text._ZNSt17_Function_handlerIFvRN8opendnp314IUpdateHandlerEEZN8asiodnp313UpdateBuilder7AddMeasINS0_6BinaryEEERS5_RKT_tNS0_9EventModeEEUlS2_E_E9_M_invokeERKSt9_Any_dataS2_,"axG",@progbits,_ZNSt17_Function_handlerIFvRN8opendnp314IUpdateHandlerEEZN8asiodnp313UpdateBuilder7AddMeasINS0_6BinaryEEERS5_RKT_tNS0_9EventModeEEUlS2_E_E9_M_invokeERKSt9_Any_dataS2_,comdat
	.p2align 4
	.weak	_ZNSt17_Function_handlerIFvRN8opendnp314IUpdateHandlerEEZN8asiodnp313UpdateBuilder7AddMeasINS0_6BinaryEEERS5_RKT_tNS0_9EventModeEEUlS2_E_E9_M_invokeERKSt9_Any_dataS2_
	.type	_ZNSt17_Function_handlerIFvRN8opendnp314IUpdateHandlerEEZN8asiodnp313UpdateBuilder7AddMeasINS0_6BinaryEEERS5_RKT_tNS0_9EventModeEEUlS2_E_E9_M_invokeERKSt9_Any_dataS2_, @function
_ZNSt17_Function_handlerIFvRN8opendnp314IUpdateHandlerEEZN8asiodnp313UpdateBuilder7AddMeasINS0_6BinaryEEERS5_RKT_tNS0_9EventModeEEUlS2_E_E9_M_invokeERKSt9_Any_dataS2_:
.LFB2228:
	.cfi_startproc
	movq	%rdi, %rax
	movq	%rsi, %rdi
	movq	(%rax), %rsi
	movq	(%rdi), %rax
	movzbl	26(%rsi), %ecx
	movzwl	24(%rsi), %edx
	jmp	*16(%rax)
	.cfi_endproc
.LFE2228:
	.size	_ZNSt17_Function_handlerIFvRN8opendnp314IUpdateHandlerEEZN8asiodnp313UpdateBuilder7AddMeasINS0_6BinaryEEERS5_RKT_tNS0_9EventModeEEUlS2_E_E9_M_invokeERKSt9_Any_dataS2_, .-_ZNSt17_Function_handlerIFvRN8opendnp314IUpdateHandlerEEZN8asiodnp313UpdateBuilder7AddMeasINS0_6BinaryEEERS5_RKT_tNS0_9EventModeEEUlS2_E_E9_M_invokeERKSt9_Any_dataS2_
	.section	.text._ZNSt17_Function_handlerIFvRN8opendnp314IUpdateHandlerEEZN8asiodnp313UpdateBuilder7AddMeasINS0_15DoubleBitBinaryEEERS5_RKT_tNS0_9EventModeEEUlS2_E_E9_M_invokeERKSt9_Any_dataS2_,"axG",@progbits,_ZNSt17_Function_handlerIFvRN8opendnp314IUpdateHandlerEEZN8asiodnp313UpdateBuilder7AddMeasINS0_15DoubleBitBinaryEEERS5_RKT_tNS0_9EventModeEEUlS2_E_E9_M_invokeERKSt9_Any_dataS2_,comdat
	.p2align 4
	.weak	_ZNSt17_Function_handlerIFvRN8opendnp314IUpdateHandlerEEZN8asiodnp313UpdateBuilder7AddMeasINS0_15DoubleBitBinaryEEERS5_RKT_tNS0_9EventModeEEUlS2_E_E9_M_invokeERKSt9_Any_dataS2_
	.type	_ZNSt17_Function_handlerIFvRN8opendnp314IUpdateHandlerEEZN8asiodnp313UpdateBuilder7AddMeasINS0_15DoubleBitBinaryEEERS5_RKT_tNS0_9EventModeEEUlS2_E_E9_M_invokeERKSt9_Any_dataS2_, @function
_ZNSt17_Function_handlerIFvRN8opendnp314IUpdateHandlerEEZN8asiodnp313UpdateBuilder7AddMeasINS0_15DoubleBitBinaryEEERS5_RKT_tNS0_9EventModeEEUlS2_E_E9_M_invokeERKSt9_Any_dataS2_:
.LFB2233:
	.cfi_startproc
	movq	%rdi, %rax
	movq	%rsi, %rdi
	movq	(%rax), %rsi
	movq	(%rdi), %rax
	movzbl	26(%rsi), %ecx
	movzwl	24(%rsi), %edx
	jmp	*24(%rax)
	.cfi_endproc
.LFE2233:
	.size	_ZNSt17_Function_handlerIFvRN8opendnp314IUpdateHandlerEEZN8asiodnp313UpdateBuilder7AddMeasINS0_15DoubleBitBinaryEEERS5_RKT_tNS0_9EventModeEEUlS2_E_E9_M_invokeERKSt9_Any_dataS2_, .-_ZNSt17_Function_handlerIFvRN8opendnp314IUpdateHandlerEEZN8asiodnp313UpdateBuilder7AddMeasINS0_15DoubleBitBinaryEEERS5_RKT_tNS0_9EventModeEEUlS2_E_E9_M_invokeERKSt9_Any_dataS2_
	.section	.text._ZNSt17_Function_handlerIFvRN8opendnp314IUpdateHandlerEEZN8asiodnp313UpdateBuilder7AddMeasINS0_6AnalogEEERS5_RKT_tNS0_9EventModeEEUlS2_E_E9_M_invokeERKSt9_Any_dataS2_,"axG",@progbits,_ZNSt17_Function_handlerIFvRN8opendnp314IUpdateHandlerEEZN8asiodnp313UpdateBuilder7AddMeasINS0_6AnalogEEERS5_RKT_tNS0_9EventModeEEUlS2_E_E9_M_invokeERKSt9_Any_dataS2_,comdat
	.p2align 4
	.weak	_ZNSt17_Function_handlerIFvRN8opendnp314IUpdateHandlerEEZN8asiodnp313UpdateBuilder7AddMeasINS0_6AnalogEEERS5_RKT_tNS0_9EventModeEEUlS2_E_E9_M_invokeERKSt9_Any_dataS2_
	.type	_ZNSt17_Function_handlerIFvRN8opendnp314IUpdateHandlerEEZN8asiodnp313UpdateBuilder7AddMeasINS0_6AnalogEEERS5_RKT_tNS0_9EventModeEEUlS2_E_E9_M_invokeERKSt9_Any_dataS2_, @function
_ZNSt17_Function_handlerIFvRN8opendnp314IUpdateHandlerEEZN8asiodnp313UpdateBuilder7AddMeasINS0_6AnalogEEERS5_RKT_tNS0_9EventModeEEUlS2_E_E9_M_invokeERKSt9_Any_dataS2_:
.LFB2238:
	.cfi_startproc
	movq	%rdi, %rax
	movq	%rsi, %rdi
	movq	(%rax), %rsi
	movq	(%rdi), %rax
	movzbl	26(%rsi), %ecx
	movzwl	24(%rsi), %edx
	jmp	*32(%rax)
	.cfi_endproc
.LFE2238:
	.size	_ZNSt17_Function_handlerIFvRN8opendnp314IUpdateHandlerEEZN8asiodnp313UpdateBuilder7AddMeasINS0_6AnalogEEERS5_RKT_tNS0_9EventModeEEUlS2_E_E9_M_invokeERKSt9_Any_dataS2_, .-_ZNSt17_Function_handlerIFvRN8opendnp314IUpdateHandlerEEZN8asiodnp313UpdateBuilder7AddMeasINS0_6AnalogEEERS5_RKT_tNS0_9EventModeEEUlS2_E_E9_M_invokeERKSt9_Any_dataS2_
	.section	.text._ZNSt17_Function_handlerIFvRN8opendnp314IUpdateHandlerEEZN8asiodnp313UpdateBuilder7AddMeasINS0_7CounterEEERS5_RKT_tNS0_9EventModeEEUlS2_E_E9_M_invokeERKSt9_Any_dataS2_,"axG",@progbits,_ZNSt17_Function_handlerIFvRN8opendnp314IUpdateHandlerEEZN8asiodnp313UpdateBuilder7AddMeasINS0_7CounterEEERS5_RKT_tNS0_9EventModeEEUlS2_E_E9_M_invokeERKSt9_Any_dataS2_,comdat
	.p2align 4
	.weak	_ZNSt17_Function_handlerIFvRN8opendnp314IUpdateHandlerEEZN8asiodnp313UpdateBuilder7AddMeasINS0_7CounterEEERS5_RKT_tNS0_9EventModeEEUlS2_E_E9_M_invokeERKSt9_Any_dataS2_
	.type	_ZNSt17_Function_handlerIFvRN8opendnp314IUpdateHandlerEEZN8asiodnp313UpdateBuilder7AddMeasINS0_7CounterEEERS5_RKT_tNS0_9EventModeEEUlS2_E_E9_M_invokeERKSt9_Any_dataS2_, @function
_ZNSt17_Function_handlerIFvRN8opendnp314IUpdateHandlerEEZN8asiodnp313UpdateBuilder7AddMeasINS0_7CounterEEERS5_RKT_tNS0_9EventModeEEUlS2_E_E9_M_invokeERKSt9_Any_dataS2_:
.LFB2243:
	.cfi_startproc
	movq	%rdi, %rax
	movq	%rsi, %rdi
	movq	(%rax), %rsi
	movq	(%rdi), %rax
	movzbl	26(%rsi), %ecx
	movzwl	24(%rsi), %edx
	jmp	*40(%rax)
	.cfi_endproc
.LFE2243:
	.size	_ZNSt17_Function_handlerIFvRN8opendnp314IUpdateHandlerEEZN8asiodnp313UpdateBuilder7AddMeasINS0_7CounterEEERS5_RKT_tNS0_9EventModeEEUlS2_E_E9_M_invokeERKSt9_Any_dataS2_, .-_ZNSt17_Function_handlerIFvRN8opendnp314IUpdateHandlerEEZN8asiodnp313UpdateBuilder7AddMeasINS0_7CounterEEERS5_RKT_tNS0_9EventModeEEUlS2_E_E9_M_invokeERKSt9_Any_dataS2_
	.section	.text._ZNSt17_Function_handlerIFvRN8opendnp314IUpdateHandlerEEZN8asiodnp313UpdateBuilder7AddMeasINS0_13FrozenCounterEEERS5_RKT_tNS0_9EventModeEEUlS2_E_E9_M_invokeERKSt9_Any_dataS2_,"axG",@progbits,_ZNSt17_Function_handlerIFvRN8opendnp314IUpdateHandlerEEZN8asiodnp313UpdateBuilder7AddMeasINS0_13FrozenCounterEEERS5_RKT_tNS0_9EventModeEEUlS2_E_E9_M_invokeERKSt9_Any_dataS2_,comdat
	.p2align 4
	.weak	_ZNSt17_Function_handlerIFvRN8opendnp314IUpdateHandlerEEZN8asiodnp313UpdateBuilder7AddMeasINS0_13FrozenCounterEEERS5_RKT_tNS0_9EventModeEEUlS2_E_E9_M_invokeERKSt9_Any_dataS2_
	.type	_ZNSt17_Function_handlerIFvRN8opendnp314IUpdateHandlerEEZN8asiodnp313UpdateBuilder7AddMeasINS0_13FrozenCounterEEERS5_RKT_tNS0_9EventModeEEUlS2_E_E9_M_invokeERKSt9_Any_dataS2_, @function
_ZNSt17_Function_handlerIFvRN8opendnp314IUpdateHandlerEEZN8asiodnp313UpdateBuilder7AddMeasINS0_13FrozenCounterEEERS5_RKT_tNS0_9EventModeEEUlS2_E_E9_M_invokeERKSt9_Any_dataS2_:
.LFB2248:
	.cfi_startproc
	movq	%rdi, %rax
	movq	%rsi, %rdi
	movq	(%rax), %rsi
	movq	(%rdi), %rax
	movzbl	26(%rsi), %ecx
	movzwl	24(%rsi), %edx
	jmp	*48(%rax)
	.cfi_endproc
.LFE2248:
	.size	_ZNSt17_Function_handlerIFvRN8opendnp314IUpdateHandlerEEZN8asiodnp313UpdateBuilder7AddMeasINS0_13FrozenCounterEEERS5_RKT_tNS0_9EventModeEEUlS2_E_E9_M_invokeERKSt9_Any_dataS2_, .-_ZNSt17_Function_handlerIFvRN8opendnp314IUpdateHandlerEEZN8asiodnp313UpdateBuilder7AddMeasINS0_13FrozenCounterEEERS5_RKT_tNS0_9EventModeEEUlS2_E_E9_M_invokeERKSt9_Any_dataS2_
	.section	.text._ZNSt17_Function_handlerIFvRN8opendnp314IUpdateHandlerEEZN8asiodnp313UpdateBuilder7AddMeasINS0_18BinaryOutputStatusEEERS5_RKT_tNS0_9EventModeEEUlS2_E_E9_M_invokeERKSt9_Any_dataS2_,"axG",@progbits,_ZNSt17_Function_handlerIFvRN8opendnp314IUpdateHandlerEEZN8asiodnp313UpdateBuilder7AddMeasINS0_18BinaryOutputStatusEEERS5_RKT_tNS0_9EventModeEEUlS2_E_E9_M_invokeERKSt9_Any_dataS2_,comdat
	.p2align 4
	.weak	_ZNSt17_Function_handlerIFvRN8opendnp314IUpdateHandlerEEZN8asiodnp313UpdateBuilder7AddMeasINS0_18BinaryOutputStatusEEERS5_RKT_tNS0_9EventModeEEUlS2_E_E9_M_invokeERKSt9_Any_dataS2_
	.type	_ZNSt17_Function_handlerIFvRN8opendnp314IUpdateHandlerEEZN8asiodnp313UpdateBuilder7AddMeasINS0_18BinaryOutputStatusEEERS5_RKT_tNS0_9EventModeEEUlS2_E_E9_M_invokeERKSt9_Any_dataS2_, @function
_ZNSt17_Function_handlerIFvRN8opendnp314IUpdateHandlerEEZN8asiodnp313UpdateBuilder7AddMeasINS0_18BinaryOutputStatusEEERS5_RKT_tNS0_9EventModeEEUlS2_E_E9_M_invokeERKSt9_Any_dataS2_:
.LFB2253:
	.cfi_startproc
	movq	%rdi, %rax
	movq	%rsi, %rdi
	movq	(%rax), %rsi
	movq	(%rdi), %rax
	movzbl	26(%rsi), %ecx
	movzwl	24(%rsi), %edx
	jmp	*56(%rax)
	.cfi_endproc
.LFE2253:
	.size	_ZNSt17_Function_handlerIFvRN8opendnp314IUpdateHandlerEEZN8asiodnp313UpdateBuilder7AddMeasINS0_18BinaryOutputStatusEEERS5_RKT_tNS0_9EventModeEEUlS2_E_E9_M_invokeERKSt9_Any_dataS2_, .-_ZNSt17_Function_handlerIFvRN8opendnp314IUpdateHandlerEEZN8asiodnp313UpdateBuilder7AddMeasINS0_18BinaryOutputStatusEEERS5_RKT_tNS0_9EventModeEEUlS2_E_E9_M_invokeERKSt9_Any_dataS2_
	.section	.text._ZNSt17_Function_handlerIFvRN8opendnp314IUpdateHandlerEEZN8asiodnp313UpdateBuilder7AddMeasINS0_18AnalogOutputStatusEEERS5_RKT_tNS0_9EventModeEEUlS2_E_E9_M_invokeERKSt9_Any_dataS2_,"axG",@progbits,_ZNSt17_Function_handlerIFvRN8opendnp314IUpdateHandlerEEZN8asiodnp313UpdateBuilder7AddMeasINS0_18AnalogOutputStatusEEERS5_RKT_tNS0_9EventModeEEUlS2_E_E9_M_invokeERKSt9_Any_dataS2_,comdat
	.p2align 4
	.weak	_ZNSt17_Function_handlerIFvRN8opendnp314IUpdateHandlerEEZN8asiodnp313UpdateBuilder7AddMeasINS0_18AnalogOutputStatusEEERS5_RKT_tNS0_9EventModeEEUlS2_E_E9_M_invokeERKSt9_Any_dataS2_
	.type	_ZNSt17_Function_handlerIFvRN8opendnp314IUpdateHandlerEEZN8asiodnp313UpdateBuilder7AddMeasINS0_18AnalogOutputStatusEEERS5_RKT_tNS0_9EventModeEEUlS2_E_E9_M_invokeERKSt9_Any_dataS2_, @function
_ZNSt17_Function_handlerIFvRN8opendnp314IUpdateHandlerEEZN8asiodnp313UpdateBuilder7AddMeasINS0_18AnalogOutputStatusEEERS5_RKT_tNS0_9EventModeEEUlS2_E_E9_M_invokeERKSt9_Any_dataS2_:
.LFB2258:
	.cfi_startproc
	movq	%rdi, %rax
	movq	%rsi, %rdi
	movq	(%rax), %rsi
	movq	(%rdi), %rax
	movzbl	26(%rsi), %ecx
	movzwl	24(%rsi), %edx
	jmp	*64(%rax)
	.cfi_endproc
.LFE2258:
	.size	_ZNSt17_Function_handlerIFvRN8opendnp314IUpdateHandlerEEZN8asiodnp313UpdateBuilder7AddMeasINS0_18AnalogOutputStatusEEERS5_RKT_tNS0_9EventModeEEUlS2_E_E9_M_invokeERKSt9_Any_dataS2_, .-_ZNSt17_Function_handlerIFvRN8opendnp314IUpdateHandlerEEZN8asiodnp313UpdateBuilder7AddMeasINS0_18AnalogOutputStatusEEERS5_RKT_tNS0_9EventModeEEUlS2_E_E9_M_invokeERKSt9_Any_dataS2_
	.section	.text._ZNSt23_Sp_counted_ptr_inplaceISt6vectorISt8functionIFvRN8opendnp314IUpdateHandlerEEESaIS6_EESaIvELN9__gnu_cxx12_Lock_policyE2EED2Ev,"axG",@progbits,_ZNSt23_Sp_counted_ptr_inplaceISt6vectorISt8functionIFvRN8opendnp314IUpdateHandlerEEESaIS6_EESaIvELN9__gnu_cxx12_Lock_policyE2EED5Ev,comdat
	.align 2
	.p2align 4
	.weak	_ZNSt23_Sp_counted_ptr_inplaceISt6vectorISt8functionIFvRN8opendnp314IUpdateHandlerEEESaIS6_EESaIvELN9__gnu_cxx12_Lock_policyE2EED2Ev
	.type	_ZNSt23_Sp_counted_ptr_inplaceISt6vectorISt8functionIFvRN8opendnp314IUpdateHandlerEEESaIS6_EESaIvELN9__gnu_cxx12_Lock_policyE2EED2Ev, @function
_ZNSt23_Sp_counted_ptr_inplaceISt6vectorISt8functionIFvRN8opendnp314IUpdateHandlerEEESaIS6_EESaIvELN9__gnu_cxx12_Lock_policyE2EED2Ev:
.LFB2560:
	.cfi_startproc
	ret
	.cfi_endproc
.LFE2560:
	.size	_ZNSt23_Sp_counted_ptr_inplaceISt6vectorISt8functionIFvRN8opendnp314IUpdateHandlerEEESaIS6_EESaIvELN9__gnu_cxx12_Lock_policyE2EED2Ev, .-_ZNSt23_Sp_counted_ptr_inplaceISt6vectorISt8functionIFvRN8opendnp314IUpdateHandlerEEESaIS6_EESaIvELN9__gnu_cxx12_Lock_policyE2EED2Ev
	.weak	_ZNSt23_Sp_counted_ptr_inplaceISt6vectorISt8functionIFvRN8opendnp314IUpdateHandlerEEESaIS6_EESaIvELN9__gnu_cxx12_Lock_policyE2EED1Ev
	.set	_ZNSt23_Sp_counted_ptr_inplaceISt6vectorISt8functionIFvRN8opendnp314IUpdateHandlerEEESaIS6_EESaIvELN9__gnu_cxx12_Lock_policyE2EED1Ev,_ZNSt23_Sp_counted_ptr_inplaceISt6vectorISt8functionIFvRN8opendnp314IUpdateHandlerEEESaIS6_EESaIvELN9__gnu_cxx12_Lock_policyE2EED2Ev
	.section	.text._ZNSt23_Sp_counted_ptr_inplaceISt6vectorISt8functionIFvRN8opendnp314IUpdateHandlerEEESaIS6_EESaIvELN9__gnu_cxx12_Lock_policyE2EED0Ev,"axG",@progbits,_ZNSt23_Sp_counted_ptr_inplaceISt6vectorISt8functionIFvRN8opendnp314IUpdateHandlerEEESaIS6_EESaIvELN9__gnu_cxx12_Lock_policyE2EED5Ev,comdat
	.align 2
	.p2align 4
	.weak	_ZNSt23_Sp_counted_ptr_inplaceISt6vectorISt8functionIFvRN8opendnp314IUpdateHandlerEEESaIS6_EESaIvELN9__gnu_cxx12_Lock_policyE2EED0Ev
	.type	_ZNSt23_Sp_counted_ptr_inplaceISt6vectorISt8functionIFvRN8opendnp314IUpdateHandlerEEESaIS6_EESaIvELN9__gnu_cxx12_Lock_policyE2EED0Ev, @function
_ZNSt23_Sp_counted_ptr_inplaceISt6vectorISt8functionIFvRN8opendnp314IUpdateHandlerEEESaIS6_EESaIvELN9__gnu_cxx12_Lock_policyE2EED0Ev:
.LFB2562:
	.cfi_startproc
	movl	$40, %esi
	jmp	_ZdlPvm@PLT
	.cfi_endproc
.LFE2562:
	.size	_ZNSt23_Sp_counted_ptr_inplaceISt6vectorISt8functionIFvRN8opendnp314IUpdateHandlerEEESaIS6_EESaIvELN9__gnu_cxx12_Lock_policyE2EED0Ev, .-_ZNSt23_Sp_counted_ptr_inplaceISt6vectorISt8functionIFvRN8opendnp314IUpdateHandlerEEESaIS6_EESaIvELN9__gnu_cxx12_Lock_policyE2EED0Ev
	.section	.text._ZNSt23_Sp_counted_ptr_inplaceISt6vectorISt8functionIFvRN8opendnp314IUpdateHandlerEEESaIS6_EESaIvELN9__gnu_cxx12_Lock_policyE2EE10_M_destroyEv,"axG",@progbits,_ZNSt23_Sp_counted_ptr_inplaceISt6vectorISt8functionIFvRN8opendnp314IUpdateHandlerEEESaIS6_EESaIvELN9__gnu_cxx12_Lock_policyE2EE10_M_destroyEv,comdat
	.align 2
	.p2align 4
	.weak	_ZNSt23_Sp_counted_ptr_inplaceISt6vectorISt8functionIFvRN8opendnp314IUpdateHandlerEEESaIS6_EESaIvELN9__gnu_cxx12_Lock_policyE2EE10_M_destroyEv
	.type	_ZNSt23_Sp_counted_ptr_inplaceISt6vectorISt8functionIFvRN8opendnp314IUpdateHandlerEEESaIS6_EESaIvELN9__gnu_cxx12_Lock_policyE2EE10_M_destroyEv, @function
_ZNSt23_Sp_counted_ptr_inplaceISt6vectorISt8functionIFvRN8opendnp314IUpdateHandlerEEESaIS6_EESaIvELN9__gnu_cxx12_Lock_policyE2EE10_M_destroyEv:
.LFB2564:
	.cfi_startproc
	movl	$40, %esi
	jmp	_ZdlPvm@PLT
	.cfi_endproc
.LFE2564:
	.size	_ZNSt23_Sp_counted_ptr_inplaceISt6vectorISt8functionIFvRN8opendnp314IUpdateHandlerEEESaIS6_EESaIvELN9__gnu_cxx12_Lock_policyE2EE10_M_destroyEv, .-_ZNSt23_Sp_counted_ptr_inplaceISt6vectorISt8functionIFvRN8opendnp314IUpdateHandlerEEESaIS6_EESaIvELN9__gnu_cxx12_Lock_policyE2EE10_M_destroyEv
	.section	.text._ZNSt23_Sp_counted_ptr_inplaceISt6vectorISt8functionIFvRN8opendnp314IUpdateHandlerEEESaIS6_EESaIvELN9__gnu_cxx12_Lock_policyE2EE10_M_disposeEv,"axG",@progbits,_ZNSt23_Sp_counted_ptr_inplaceISt6vectorISt8functionIFvRN8opendnp314IUpdateHandlerEEESaIS6_EESaIvELN9__gnu_cxx12_Lock_policyE2EE10_M_disposeEv,comdat
	.align 2
	.p2align 4
	.weak	_ZNSt23_Sp_counted_ptr_inplaceISt6vectorISt8functionIFvRN8opendnp314IUpdateHandlerEEESaIS6_EESaIvELN9__gnu_cxx12_Lock_policyE2EE10_M_disposeEv
	.type	_ZNSt23_Sp_counted_ptr_inplaceISt6vectorISt8functionIFvRN8opendnp314IUpdateHandlerEEESaIS6_EESaIvELN9__gnu_cxx12_Lock_policyE2EE10_M_disposeEv, @function
_ZNSt23_Sp_counted_ptr_inplaceISt6vectorISt8functionIFvRN8opendnp314IUpdateHandlerEEESaIS6_EESaIvELN9__gnu_cxx12_Lock_policyE2EE10_M_disposeEv:
.LFB2563:
	.cfi_startproc
	.cfi_personality 0x9b,DW.ref.__gxx_personality_v0
	.cfi_lsda 0x1b,.LLSDA2563
	pushq	%r12
	.cfi_def_cfa_offset 16
	.cfi_offset 12, -16
	movq	%rdi, %r12
	pushq	%rbp
	.cfi_def_cfa_offset 24
	.cfi_offset 6, -24
	pushq	%rbx
	.cfi_def_cfa_offset 32
	.cfi_offset 3, -32
	movq	24(%rdi), %rbp
	movq	16(%rdi), %rbx
	cmpq	%rbx, %rbp
	je	.L15
	.p2align 4
	.p2align 3
.L19:
	movq	16(%rbx), %rax
	testq	%rax, %rax
	je	.L16
	movq	%rbx, %rsi
	movq	%rbx, %rdi
	addq	$32, %rbx
	movl	$3, %edx
	call	*%rax
	cmpq	%rbp, %rbx
	jne	.L19
.L18:
	movq	16(%r12), %rbx
.L15:
	testq	%rbx, %rbx
	je	.L14
	movq	32(%r12), %rsi
	movq	%rbx, %rdi
	subq	%rbx, %rsi
	popq	%rbx
	.cfi_remember_state
	.cfi_def_cfa_offset 24
	popq	%rbp
	.cfi_def_cfa_offset 16
	popq	%r12
	.cfi_def_cfa_offset 8
.LEHB0:
	jmp	_ZdlPvm@PLT
.LEHE0:
	.p2align 4,,10
	.p2align 3
.L16:
	.cfi_restore_state
	addq	$32, %rbx
	cmpq	%rbx, %rbp
	jne	.L19
	jmp	.L18
	.p2align 4,,10
	.p2align 3
.L14:
	popq	%rbx
	.cfi_def_cfa_offset 24
	popq	%rbp
	.cfi_def_cfa_offset 16
	popq	%r12
	.cfi_def_cfa_offset 8
	ret
	.cfi_endproc
.LFE2563:
	.section	.gcc_except_table._ZNSt23_Sp_counted_ptr_inplaceISt6vectorISt8functionIFvRN8opendnp314IUpdateHandlerEEESaIS6_EESaIvELN9__gnu_cxx12_Lock_policyE2EE10_M_disposeEv,"aG",@progbits,_ZNSt23_Sp_counted_ptr_inplaceISt6vectorISt8functionIFvRN8opendnp314IUpdateHandlerEEESaIS6_EESaIvELN9__gnu_cxx12_Lock_policyE2EE10_M_disposeEv,comdat
.LLSDA2563:
	.byte	0xff
	.byte	0xff
	.byte	0x1
	.uleb128 .LLSDACSE2563-.LLSDACSB2563
.LLSDACSB2563:
	.uleb128 .LEHB0-.LFB2563
	.uleb128 .LEHE0-.LEHB0
	.uleb128 0
	.uleb128 0
.LLSDACSE2563:
	.section	.text._ZNSt23_Sp_counted_ptr_inplaceISt6vectorISt8functionIFvRN8opendnp314IUpdateHandlerEEESaIS6_EESaIvELN9__gnu_cxx12_Lock_policyE2EE10_M_disposeEv,"axG",@progbits,_ZNSt23_Sp_counted_ptr_inplaceISt6vectorISt8functionIFvRN8opendnp314IUpdateHandlerEEESaIS6_EESaIvELN9__gnu_cxx12_Lock_policyE2EE10_M_disposeEv,comdat
	.size	_ZNSt23_Sp_counted_ptr_inplaceISt6vectorISt8functionIFvRN8opendnp314IUpdateHandlerEEESaIS6_EESaIvELN9__gnu_cxx12_Lock_policyE2EE10_M_disposeEv, .-_ZNSt23_Sp_counted_ptr_inplaceISt6vectorISt8functionIFvRN8opendnp314IUpdateHandlerEEESaIS6_EESaIvELN9__gnu_cxx12_Lock_policyE2EE10_M_disposeEv
	.text
	.p2align 4
	.type	_ZNSt17_Function_handlerIFvRN8opendnp314IUpdateHandlerEEZN8asiodnp313UpdateBuilder6ModifyENS0_9FlagsTypeEtthEUlS2_E_E10_M_managerERSt9_Any_dataRKS9_St18_Manager_operation, @function
_ZNSt17_Function_handlerIFvRN8opendnp314IUpdateHandlerEEZN8asiodnp313UpdateBuilder6ModifyENS0_9FlagsTypeEtthEUlS2_E_E10_M_managerERSt9_Any_dataRKS9_St18_Manager_operation:
.LFB2196:
	.cfi_startproc
	testl	%edx, %edx
	je	.L23
	cmpl	$1, %edx
	jne	.L28
	movq	%rsi, (%rdi)
.L26:
	xorl	%eax, %eax
	ret
	.p2align 4,,10
	.p2align 3
.L28:
	cmpl	$2, %edx
	jne	.L26
	movq	(%rsi), %rax
	movq	%rax, (%rdi)
	jmp	.L26
	.p2align 4,,10
	.p2align 3
.L23:
	leaq	_ZTIZN8asiodnp313UpdateBuilder6ModifyEN8opendnp39FlagsTypeEtthEUlRNS1_14IUpdateHandlerEE_(%rip), %rax
	movq	%rax, (%rdi)
	xorl	%eax, %eax
	ret
	.cfi_endproc
.LFE2196:
	.size	_ZNSt17_Function_handlerIFvRN8opendnp314IUpdateHandlerEEZN8asiodnp313UpdateBuilder6ModifyENS0_9FlagsTypeEtthEUlS2_E_E10_M_managerERSt9_Any_dataRKS9_St18_Manager_operation, .-_ZNSt17_Function_handlerIFvRN8opendnp314IUpdateHandlerEEZN8asiodnp313UpdateBuilder6ModifyENS0_9FlagsTypeEtthEUlS2_E_E10_M_managerERSt9_Any_dataRKS9_St18_Manager_operation
	.section	.text._ZNSt17_Function_handlerIFvRN8opendnp314IUpdateHandlerEEZN8asiodnp313UpdateBuilder7AddMeasINS0_18AnalogOutputStatusEEERS5_RKT_tNS0_9EventModeEEUlS2_E_E10_M_managerERSt9_Any_dataRKSF_St18_Manager_operation,"axG",@progbits,_ZNSt17_Function_handlerIFvRN8opendnp314IUpdateHandlerEEZN8asiodnp313UpdateBuilder7AddMeasINS0_18AnalogOutputStatusEEERS5_RKT_tNS0_9EventModeEEUlS2_E_E10_M_managerERSt9_Any_dataRKSF_St18_Manager_operation,comdat
	.p2align 4
	.weak	_ZNSt17_Function_handlerIFvRN8opendnp314IUpdateHandlerEEZN8asiodnp313UpdateBuilder7AddMeasINS0_18AnalogOutputStatusEEERS5_RKT_tNS0_9EventModeEEUlS2_E_E10_M_managerERSt9_Any_dataRKSF_St18_Manager_operation
	.type	_ZNSt17_Function_handlerIFvRN8opendnp314IUpdateHandlerEEZN8asiodnp313UpdateBuilder7AddMeasINS0_18AnalogOutputStatusEEERS5_RKT_tNS0_9EventModeEEUlS2_E_E10_M_managerERSt9_Any_dataRKSF_St18_Manager_operation, @function
_ZNSt17_Function_handlerIFvRN8opendnp314IUpdateHandlerEEZN8asiodnp313UpdateBuilder7AddMeasINS0_18AnalogOutputStatusEEERS5_RKT_tNS0_9EventModeEEUlS2_E_E10_M_managerERSt9_Any_dataRKSF_St18_Manager_operation:
.LFB2259:
	.cfi_startproc
	testl	%edx, %edx
	je	.L30
	cmpl	$1, %edx
	je	.L31
	subq	$24, %rsp
	.cfi_def_cfa_offset 32
	cmpl	$2, %edx
	je	.L34
	cmpl	$3, %edx
	je	.L35
.L33:
	xorl	%eax, %eax
	addq	$24, %rsp
	.cfi_def_cfa_offset 8
	ret
	.p2align 4,,10
	.p2align 3
.L31:
	movq	(%rsi), %rax
	movq	%rax, (%rdi)
	xorl	%eax, %eax
	ret
	.p2align 4,,10
	.p2align 3
.L30:
	movq	_ZTIZN8asiodnp313UpdateBuilder7AddMeasIN8opendnp318AnalogOutputStatusEEERS0_RKT_tNS2_9EventModeEEUlRNS2_14IUpdateHandlerEE_@GOTPCREL(%rip), %rax
	movq	%rax, (%rdi)
	xorl	%eax, %eax
	ret
	.p2align 4,,10
	.p2align 3
.L35:
	.cfi_def_cfa_offset 32
	movq	(%rdi), %rdi
	testq	%rdi, %rdi
	je	.L33
	movl	$32, %esi
	call	_ZdlPvm@PLT
	jmp	.L33
	.p2align 4,,10
	.p2align 3
.L34:
	movq	(%rsi), %rdx
	movq	%rdi, 8(%rsp)
	movl	$32, %edi
	movq	%rdx, (%rsp)
	call	_Znwm@PLT
	movq	(%rsp), %rdx
	movq	8(%rsp), %rcx
	movdqu	(%rdx), %xmm0
	movups	%xmm0, (%rax)
	movdqu	16(%rdx), %xmm0
	movq	%rax, (%rcx)
	movups	%xmm0, 16(%rax)
	jmp	.L33
	.cfi_endproc
.LFE2259:
	.size	_ZNSt17_Function_handlerIFvRN8opendnp314IUpdateHandlerEEZN8asiodnp313UpdateBuilder7AddMeasINS0_18AnalogOutputStatusEEERS5_RKT_tNS0_9EventModeEEUlS2_E_E10_M_managerERSt9_Any_dataRKSF_St18_Manager_operation, .-_ZNSt17_Function_handlerIFvRN8opendnp314IUpdateHandlerEEZN8asiodnp313UpdateBuilder7AddMeasINS0_18AnalogOutputStatusEEERS5_RKT_tNS0_9EventModeEEUlS2_E_E10_M_managerERSt9_Any_dataRKSF_St18_Manager_operation
	.section	.text._ZNSt17_Function_handlerIFvRN8opendnp314IUpdateHandlerEEZN8asiodnp313UpdateBuilder7AddMeasINS0_18BinaryOutputStatusEEERS5_RKT_tNS0_9EventModeEEUlS2_E_E10_M_managerERSt9_Any_dataRKSF_St18_Manager_operation,"axG",@progbits,_ZNSt17_Function_handlerIFvRN8opendnp314IUpdateHandlerEEZN8asiodnp313UpdateBuilder7AddMeasINS0_18BinaryOutputStatusEEERS5_RKT_tNS0_9EventModeEEUlS2_E_E10_M_managerERSt9_Any_dataRKSF_St18_Manager_operation,comdat
	.p2align 4
	.weak	_ZNSt17_Function_handlerIFvRN8opendnp314IUpdateHandlerEEZN8asiodnp313UpdateBuilder7AddMeasINS0_18BinaryOutputStatusEEERS5_RKT_tNS0_9EventModeEEUlS2_E_E10_M_managerERSt9_Any_dataRKSF_St18_Manager_operation
	.type	_ZNSt17_Function_handlerIFvRN8opendnp314IUpdateHandlerEEZN8asiodnp313UpdateBuilder7AddMeasINS0_18BinaryOutputStatusEEERS5_RKT_tNS0_9EventModeEEUlS2_E_E10_M_managerERSt9_Any_dataRKSF_St18_Manager_operation, @function
_ZNSt17_Function_handlerIFvRN8opendnp314IUpdateHandlerEEZN8asiodnp313UpdateBuilder7AddMeasINS0_18BinaryOutputStatusEEERS5_RKT_tNS0_9EventModeEEUlS2_E_E10_M_managerERSt9_Any_dataRKSF_St18_Manager_operation:
.LFB2254:
	.cfi_startproc
	testl	%edx, %edx
	je	.L45
	cmpl	$1, %edx
	je	.L46
	subq	$24, %rsp
	.cfi_def_cfa_offset 32
	cmpl	$2, %edx
	je	.L49
	cmpl	$3, %edx
	je	.L50
.L48:
	xorl	%eax, %eax
	addq	$24, %rsp
	.cfi_def_cfa_offset 8
	ret
	.p2align 4,,10
	.p2align 3
.L46:
	movq	(%rsi), %rax
	movq	%rax, (%rdi)
	xorl	%eax, %eax
	ret
	.p2align 4,,10
	.p2align 3
.L45:
	movq	_ZTIZN8asiodnp313UpdateBuilder7AddMeasIN8opendnp318BinaryOutputStatusEEERS0_RKT_tNS2_9EventModeEEUlRNS2_14IUpdateHandlerEE_@GOTPCREL(%rip), %rax
	movq	%rax, (%rdi)
	xorl	%eax, %eax
	ret
	.p2align 4,,10
	.p2align 3
.L50:
	.cfi_def_cfa_offset 32
	movq	(%rdi), %rdi
	testq	%rdi, %rdi
	je	.L48
	movl	$32, %esi
	call	_ZdlPvm@PLT
	jmp	.L48
	.p2align 4,,10
	.p2align 3
.L49:
	movq	(%rsi), %rdx
	movq	%rdi, 8(%rsp)
	movl	$32, %edi
	movq	%rdx, (%rsp)
	call	_Znwm@PLT
	movq	(%rsp), %rdx
	movq	8(%rsp), %rcx
	movdqu	(%rdx), %xmm0
	movups	%xmm0, (%rax)
	movdqu	16(%rdx), %xmm0
	movq	%rax, (%rcx)
	movups	%xmm0, 16(%rax)
	jmp	.L48
	.cfi_endproc
.LFE2254:
	.size	_ZNSt17_Function_handlerIFvRN8opendnp314IUpdateHandlerEEZN8asiodnp313UpdateBuilder7AddMeasINS0_18BinaryOutputStatusEEERS5_RKT_tNS0_9EventModeEEUlS2_E_E10_M_managerERSt9_Any_dataRKSF_St18_Manager_operation, .-_ZNSt17_Function_handlerIFvRN8opendnp314IUpdateHandlerEEZN8asiodnp313UpdateBuilder7AddMeasINS0_18BinaryOutputStatusEEERS5_RKT_tNS0_9EventModeEEUlS2_E_E10_M_managerERSt9_Any_dataRKSF_St18_Manager_operation
	.section	.text._ZNSt17_Function_handlerIFvRN8opendnp314IUpdateHandlerEEZN8asiodnp313UpdateBuilder7AddMeasINS0_13FrozenCounterEEERS5_RKT_tNS0_9EventModeEEUlS2_E_E10_M_managerERSt9_Any_dataRKSF_St18_Manager_operation,"axG",@progbits,_ZNSt17_Function_handlerIFvRN8opendnp314IUpdateHandlerEEZN8asiodnp313UpdateBuilder7AddMeasINS0_13FrozenCounterEEERS5_RKT_tNS0_9EventModeEEUlS2_E_E10_M_managerERSt9_Any_dataRKSF_St18_Manager_operation,comdat
	.p2align 4
	.weak	_ZNSt17_Function_handlerIFvRN8opendnp314IUpdateHandlerEEZN8asiodnp313UpdateBuilder7AddMeasINS0_13FrozenCounterEEERS5_RKT_tNS0_9EventModeEEUlS2_E_E10_M_managerERSt9_Any_dataRKSF_St18_Manager_operation
	.type	_ZNSt17_Function_handlerIFvRN8opendnp314IUpdateHandlerEEZN8asiodnp313UpdateBuilder7AddMeasINS0_13FrozenCounterEEERS5_RKT_tNS0_9EventModeEEUlS2_E_E10_M_managerERSt9_Any_dataRKSF_St18_Manager_operation, @function
_ZNSt17_Function_handlerIFvRN8opendnp314IUpdateHandlerEEZN8asiodnp313UpdateBuilder7AddMeasINS0_13FrozenCounterEEERS5_RKT_tNS0_9EventModeEEUlS2_E_E10_M_managerERSt9_Any_dataRKSF_St18_Manager_operation:
.LFB2249:
	.cfi_startproc
	testl	%edx, %edx
	je	.L60
	cmpl	$1, %edx
	je	.L61
	subq	$24, %rsp
	.cfi_def_cfa_offset 32
	cmpl	$2, %edx
	je	.L64
	cmpl	$3, %edx
	je	.L65
.L63:
	xorl	%eax, %eax
	addq	$24, %rsp
	.cfi_def_cfa_offset 8
	ret
	.p2align 4,,10
	.p2align 3
.L61:
	movq	(%rsi), %rax
	movq	%rax, (%rdi)
	xorl	%eax, %eax
	ret
	.p2align 4,,10
	.p2align 3
.L60:
	movq	_ZTIZN8asiodnp313UpdateBuilder7AddMeasIN8opendnp313FrozenCounterEEERS0_RKT_tNS2_9EventModeEEUlRNS2_14IUpdateHandlerEE_@GOTPCREL(%rip), %rax
	movq	%rax, (%rdi)
	xorl	%eax, %eax
	ret
	.p2align 4,,10
	.p2align 3
.L65:
	.cfi_def_cfa_offset 32
	movq	(%rdi), %rdi
	testq	%rdi, %rdi
	je	.L63
	movl	$32, %esi
	call	_ZdlPvm@PLT
	jmp	.L63
	.p2align 4,,10
	.p2align 3
.L64:
	movq	(%rsi), %rdx
	movq	%rdi, 8(%rsp)
	movl	$32, %edi
	movq	%rdx, (%rsp)
	call	_Znwm@PLT
	movq	(%rsp), %rdx
	movq	8(%rsp), %rcx
	movdqu	(%rdx), %xmm0
	movups	%xmm0, (%rax)
	movdqu	16(%rdx), %xmm0
	movq	%rax, (%rcx)
	movups	%xmm0, 16(%rax)
	jmp	.L63
	.cfi_endproc
.LFE2249:
	.size	_ZNSt17_Function_handlerIFvRN8opendnp314IUpdateHandlerEEZN8asiodnp313UpdateBuilder7AddMeasINS0_13FrozenCounterEEERS5_RKT_tNS0_9EventModeEEUlS2_E_E10_M_managerERSt9_Any_dataRKSF_St18_Manager_operation, .-_ZNSt17_Function_handlerIFvRN8opendnp314IUpdateHandlerEEZN8asiodnp313UpdateBuilder7AddMeasINS0_13FrozenCounterEEERS5_RKT_tNS0_9EventModeEEUlS2_E_E10_M_managerERSt9_Any_dataRKSF_St18_Manager_operation
	.section	.text._ZNSt17_Function_handlerIFvRN8opendnp314IUpdateHandlerEEZN8asiodnp313UpdateBuilder7AddMeasINS0_7CounterEEERS5_RKT_tNS0_9EventModeEEUlS2_E_E10_M_managerERSt9_Any_dataRKSF_St18_Manager_operation,"axG",@progbits,_ZNSt17_Function_handlerIFvRN8opendnp314IUpdateHandlerEEZN8asiodnp313UpdateBuilder7AddMeasINS0_7CounterEEERS5_RKT_tNS0_9EventModeEEUlS2_E_E10_M_managerERSt9_Any_dataRKSF_St18_Manager_operation,comdat
	.p2align 4
	.weak	_ZNSt17_Function_handlerIFvRN8opendnp314IUpdateHandlerEEZN8asiodnp313UpdateBuilder7AddMeasINS0_7CounterEEERS5_RKT_tNS0_9EventModeEEUlS2_E_E10_M_managerERSt9_Any_dataRKSF_St18_Manager_operation
	.type	_ZNSt17_Function_handlerIFvRN8opendnp314IUpdateHandlerEEZN8asiodnp313UpdateBuilder7AddMeasINS0_7CounterEEERS5_RKT_tNS0_9EventModeEEUlS2_E_E10_M_managerERSt9_Any_dataRKSF_St18_Manager_operation, @function
_ZNSt17_Function_handlerIFvRN8opendnp314IUpdateHandlerEEZN8asiodnp313UpdateBuilder7AddMeasINS0_7CounterEEERS5_RKT_tNS0_9EventModeEEUlS2_E_E10_M_managerERSt9_Any_dataRKSF_St18_Manager_operation:
.LFB2244:
	.cfi_startproc
	testl	%edx, %edx
	je	.L75
	cmpl	$1, %edx
	je	.L76
	subq	$24, %rsp
	.cfi_def_cfa_offset 32
	cmpl	$2, %edx
	je	.L79
	cmpl	$3, %edx
	je	.L80
.L78:
	xorl	%eax, %eax
	addq	$24, %rsp
	.cfi_def_cfa_offset 8
	ret
	.p2align 4,,10
	.p2align 3
.L76:
	movq	(%rsi), %rax
	movq	%rax, (%rdi)
	xorl	%eax, %eax
	ret
	.p2align 4,,10
	.p2align 3
.L75:
	movq	_ZTIZN8asiodnp313UpdateBuilder7AddMeasIN8opendnp37CounterEEERS0_RKT_tNS2_9EventModeEEUlRNS2_14IUpdateHandlerEE_@GOTPCREL(%rip), %rax
	movq	%rax, (%rdi)
	xorl	%eax, %eax
	ret
	.p2align 4,,10
	.p2align 3
.L80:
	.cfi_def_cfa_offset 32
	movq	(%rdi), %rdi
	testq	%rdi, %rdi
	je	.L78
	movl	$32, %esi
	call	_ZdlPvm@PLT
	jmp	.L78
	.p2align 4,,10
	.p2align 3
.L79:
	movq	(%rsi), %rdx
	movq	%rdi, 8(%rsp)
	movl	$32, %edi
	movq	%rdx, (%rsp)
	call	_Znwm@PLT
	movq	(%rsp), %rdx
	movq	8(%rsp), %rcx
	movdqu	(%rdx), %xmm0
	movups	%xmm0, (%rax)
	movdqu	16(%rdx), %xmm0
	movq	%rax, (%rcx)
	movups	%xmm0, 16(%rax)
	jmp	.L78
	.cfi_endproc
.LFE2244:
	.size	_ZNSt17_Function_handlerIFvRN8opendnp314IUpdateHandlerEEZN8asiodnp313UpdateBuilder7AddMeasINS0_7CounterEEERS5_RKT_tNS0_9EventModeEEUlS2_E_E10_M_managerERSt9_Any_dataRKSF_St18_Manager_operation, .-_ZNSt17_Function_handlerIFvRN8opendnp314IUpdateHandlerEEZN8asiodnp313UpdateBuilder7AddMeasINS0_7CounterEEERS5_RKT_tNS0_9EventModeEEUlS2_E_E10_M_managerERSt9_Any_dataRKSF_St18_Manager_operation
	.section	.text._ZNSt17_Function_handlerIFvRN8opendnp314IUpdateHandlerEEZN8asiodnp313UpdateBuilder7AddMeasINS0_6AnalogEEERS5_RKT_tNS0_9EventModeEEUlS2_E_E10_M_managerERSt9_Any_dataRKSF_St18_Manager_operation,"axG",@progbits,_ZNSt17_Function_handlerIFvRN8opendnp314IUpdateHandlerEEZN8asiodnp313UpdateBuilder7AddMeasINS0_6AnalogEEERS5_RKT_tNS0_9EventModeEEUlS2_E_E10_M_managerERSt9_Any_dataRKSF_St18_Manager_operation,comdat
	.p2align 4
	.weak	_ZNSt17_Function_handlerIFvRN8opendnp314IUpdateHandlerEEZN8asiodnp313UpdateBuilder7AddMeasINS0_6AnalogEEERS5_RKT_tNS0_9EventModeEEUlS2_E_E10_M_managerERSt9_Any_dataRKSF_St18_Manager_operation
	.type	_ZNSt17_Function_handlerIFvRN8opendnp314IUpdateHandlerEEZN8asiodnp313UpdateBuilder7AddMeasINS0_6AnalogEEERS5_RKT_tNS0_9EventModeEEUlS2_E_E10_M_managerERSt9_Any_dataRKSF_St18_Manager_operation, @function
_ZNSt17_Function_handlerIFvRN8opendnp314IUpdateHandlerEEZN8asiodnp313UpdateBuilder7AddMeasINS0_6AnalogEEERS5_RKT_tNS0_9EventModeEEUlS2_E_E10_M_managerERSt9_Any_dataRKSF_St18_Manager_operation:
.LFB2239:
	.cfi_startproc
	testl	%edx, %edx
	je	.L90
	cmpl	$1, %edx
	je	.L91
	subq	$24, %rsp
	.cfi_def_cfa_offset 32
	cmpl	$2, %edx
	je	.L94
	cmpl	$3, %edx
	je	.L95
.L93:
	xorl	%eax, %eax
	addq	$24, %rsp
	.cfi_def_cfa_offset 8
	ret
	.p2align 4,,10
	.p2align 3
.L91:
	movq	(%rsi), %rax
	movq	%rax, (%rdi)
	xorl	%eax, %eax
	ret
	.p2align 4,,10
	.p2align 3
.L90:
	movq	_ZTIZN8asiodnp313UpdateBuilder7AddMeasIN8opendnp36AnalogEEERS0_RKT_tNS2_9EventModeEEUlRNS2_14IUpdateHandlerEE_@GOTPCREL(%rip), %rax
	movq	%rax, (%rdi)
	xorl	%eax, %eax
	ret
	.p2align 4,,10
	.p2align 3
.L95:
	.cfi_def_cfa_offset 32
	movq	(%rdi), %rdi
	testq	%rdi, %rdi
	je	.L93
	movl	$32, %esi
	call	_ZdlPvm@PLT
	jmp	.L93
	.p2align 4,,10
	.p2align 3
.L94:
	movq	(%rsi), %rdx
	movq	%rdi, 8(%rsp)
	movl	$32, %edi
	movq	%rdx, (%rsp)
	call	_Znwm@PLT
	movq	(%rsp), %rdx
	movq	8(%rsp), %rcx
	movdqu	(%rdx), %xmm0
	movups	%xmm0, (%rax)
	movdqu	16(%rdx), %xmm0
	movq	%rax, (%rcx)
	movups	%xmm0, 16(%rax)
	jmp	.L93
	.cfi_endproc
.LFE2239:
	.size	_ZNSt17_Function_handlerIFvRN8opendnp314IUpdateHandlerEEZN8asiodnp313UpdateBuilder7AddMeasINS0_6AnalogEEERS5_RKT_tNS0_9EventModeEEUlS2_E_E10_M_managerERSt9_Any_dataRKSF_St18_Manager_operation, .-_ZNSt17_Function_handlerIFvRN8opendnp314IUpdateHandlerEEZN8asiodnp313UpdateBuilder7AddMeasINS0_6AnalogEEERS5_RKT_tNS0_9EventModeEEUlS2_E_E10_M_managerERSt9_Any_dataRKSF_St18_Manager_operation
	.section	.text._ZNSt17_Function_handlerIFvRN8opendnp314IUpdateHandlerEEZN8asiodnp313UpdateBuilder7AddMeasINS0_15DoubleBitBinaryEEERS5_RKT_tNS0_9EventModeEEUlS2_E_E10_M_managerERSt9_Any_dataRKSF_St18_Manager_operation,"axG",@progbits,_ZNSt17_Function_handlerIFvRN8opendnp314IUpdateHandlerEEZN8asiodnp313UpdateBuilder7AddMeasINS0_15DoubleBitBinaryEEERS5_RKT_tNS0_9EventModeEEUlS2_E_E10_M_managerERSt9_Any_dataRKSF_St18_Manager_operation,comdat
	.p2align 4
	.weak	_ZNSt17_Function_handlerIFvRN8opendnp314IUpdateHandlerEEZN8asiodnp313UpdateBuilder7AddMeasINS0_15DoubleBitBinaryEEERS5_RKT_tNS0_9EventModeEEUlS2_E_E10_M_managerERSt9_Any_dataRKSF_St18_Manager_operation
	.type	_ZNSt17_Function_handlerIFvRN8opendnp314IUpdateHandlerEEZN8asiodnp313UpdateBuilder7AddMeasINS0_15DoubleBitBinaryEEERS5_RKT_tNS0_9EventModeEEUlS2_E_E10_M_managerERSt9_Any_dataRKSF_St18_Manager_operation, @function
_ZNSt17_Function_handlerIFvRN8opendnp314IUpdateHandlerEEZN8asiodnp313UpdateBuilder7AddMeasINS0_15DoubleBitBinaryEEERS5_RKT_tNS0_9EventModeEEUlS2_E_E10_M_managerERSt9_Any_dataRKSF_St18_Manager_operation:
.LFB2234:
	.cfi_startproc
	testl	%edx, %edx
	je	.L105
	cmpl	$1, %edx
	je	.L106
	subq	$24, %rsp
	.cfi_def_cfa_offset 32
	cmpl	$2, %edx
	je	.L109
	cmpl	$3, %edx
	je	.L110
.L108:
	xorl	%eax, %eax
	addq	$24, %rsp
	.cfi_def_cfa_offset 8
	ret
	.p2align 4,,10
	.p2align 3
.L106:
	movq	(%rsi), %rax
	movq	%rax, (%rdi)
	xorl	%eax, %eax
	ret
	.p2align 4,,10
	.p2align 3
.L105:
	movq	_ZTIZN8asiodnp313UpdateBuilder7AddMeasIN8opendnp315DoubleBitBinaryEEERS0_RKT_tNS2_9EventModeEEUlRNS2_14IUpdateHandlerEE_@GOTPCREL(%rip), %rax
	movq	%rax, (%rdi)
	xorl	%eax, %eax
	ret
	.p2align 4,,10
	.p2align 3
.L110:
	.cfi_def_cfa_offset 32
	movq	(%rdi), %rdi
	testq	%rdi, %rdi
	je	.L108
	movl	$32, %esi
	call	_ZdlPvm@PLT
	jmp	.L108
	.p2align 4,,10
	.p2align 3
.L109:
	movq	(%rsi), %rdx
	movq	%rdi, 8(%rsp)
	movl	$32, %edi
	movq	%rdx, (%rsp)
	call	_Znwm@PLT
	movq	(%rsp), %rdx
	movq	8(%rsp), %rcx
	movdqu	(%rdx), %xmm0
	movups	%xmm0, (%rax)
	movdqu	16(%rdx), %xmm0
	movq	%rax, (%rcx)
	movups	%xmm0, 16(%rax)
	jmp	.L108
	.cfi_endproc
.LFE2234:
	.size	_ZNSt17_Function_handlerIFvRN8opendnp314IUpdateHandlerEEZN8asiodnp313UpdateBuilder7AddMeasINS0_15DoubleBitBinaryEEERS5_RKT_tNS0_9EventModeEEUlS2_E_E10_M_managerERSt9_Any_dataRKSF_St18_Manager_operation, .-_ZNSt17_Function_handlerIFvRN8opendnp314IUpdateHandlerEEZN8asiodnp313UpdateBuilder7AddMeasINS0_15DoubleBitBinaryEEERS5_RKT_tNS0_9EventModeEEUlS2_E_E10_M_managerERSt9_Any_dataRKSF_St18_Manager_operation
	.section	.text._ZNSt17_Function_handlerIFvRN8opendnp314IUpdateHandlerEEZN8asiodnp313UpdateBuilder7AddMeasINS0_6BinaryEEERS5_RKT_tNS0_9EventModeEEUlS2_E_E10_M_managerERSt9_Any_dataRKSF_St18_Manager_operation,"axG",@progbits,_ZNSt17_Function_handlerIFvRN8opendnp314IUpdateHandlerEEZN8asiodnp313UpdateBuilder7AddMeasINS0_6BinaryEEERS5_RKT_tNS0_9EventModeEEUlS2_E_E10_M_managerERSt9_Any_dataRKSF_St18_Manager_operation,comdat
	.p2align 4
	.weak	_ZNSt17_Function_handlerIFvRN8opendnp314IUpdateHandlerEEZN8asiodnp313UpdateBuilder7AddMeasINS0_6BinaryEEERS5_RKT_tNS0_9EventModeEEUlS2_E_E10_M_managerERSt9_Any_dataRKSF_St18_Manager_operation
	.type	_ZNSt17_Function_handlerIFvRN8opendnp314IUpdateHandlerEEZN8asiodnp313UpdateBuilder7AddMeasINS0_6BinaryEEERS5_RKT_tNS0_9EventModeEEUlS2_E_E10_M_managerERSt9_Any_dataRKSF_St18_Manager_operation, @function
_ZNSt17_Function_handlerIFvRN8opendnp314IUpdateHandlerEEZN8asiodnp313UpdateBuilder7AddMeasINS0_6BinaryEEERS5_RKT_tNS0_9EventModeEEUlS2_E_E10_M_managerERSt9_Any_dataRKSF_St18_Manager_operation:
.LFB2229:
	.cfi_startproc
	testl	%edx, %edx
	je	.L120
	cmpl	$1, %edx
	je	.L121
	subq	$24, %rsp
	.cfi_def_cfa_offset 32
	cmpl	$2, %edx
	je	.L124
	cmpl	$3, %edx
	je	.L125
.L123:
	xorl	%eax, %eax
	addq	$24, %rsp
	.cfi_def_cfa_offset 8
	ret
	.p2align 4,,10
	.p2align 3
.L121:
	movq	(%rsi), %rax
	movq	%rax, (%rdi)
	xorl	%eax, %eax
	ret
	.p2align 4,,10
	.p2align 3
.L120:
	movq	_ZTIZN8asiodnp313UpdateBuilder7AddMeasIN8opendnp36BinaryEEERS0_RKT_tNS2_9EventModeEEUlRNS2_14IUpdateHandlerEE_@GOTPCREL(%rip), %rax
	movq	%rax, (%rdi)
	xorl	%eax, %eax
	ret
	.p2align 4,,10
	.p2align 3
.L125:
	.cfi_def_cfa_offset 32
	movq	(%rdi), %rdi
	testq	%rdi, %rdi
	je	.L123
	movl	$32, %esi
	call	_ZdlPvm@PLT
	jmp	.L123
	.p2align 4,,10
	.p2align 3
.L124:
	movq	(%rsi), %rdx
	movq	%rdi, 8(%rsp)
	movl	$32, %edi
	movq	%rdx, (%rsp)
	call	_Znwm@PLT
	movq	(%rsp), %rdx
	movq	8(%rsp), %rcx
	movdqu	(%rdx), %xmm0
	movups	%xmm0, (%rax)
	movdqu	16(%rdx), %xmm0
	movq	%rax, (%rcx)
	movups	%xmm0, 16(%rax)
	jmp	.L123
	.cfi_endproc
.LFE2229:
	.size	_ZNSt17_Function_handlerIFvRN8opendnp314IUpdateHandlerEEZN8asiodnp313UpdateBuilder7AddMeasINS0_6BinaryEEERS5_RKT_tNS0_9EventModeEEUlS2_E_E10_M_managerERSt9_Any_dataRKSF_St18_Manager_operation, .-_ZNSt17_Function_handlerIFvRN8opendnp314IUpdateHandlerEEZN8asiodnp313UpdateBuilder7AddMeasINS0_6BinaryEEERS5_RKT_tNS0_9EventModeEEUlS2_E_E10_M_managerERSt9_Any_dataRKSF_St18_Manager_operation
	.text
	.p2align 4
	.type	_ZNSt17_Function_handlerIFvRN8opendnp314IUpdateHandlerEEZN8asiodnp313UpdateBuilder6UpdateERKNS0_15TimeAndIntervalEtEUlS2_E_E10_M_managerERSt9_Any_dataRKSB_St18_Manager_operation, @function
_ZNSt17_Function_handlerIFvRN8opendnp314IUpdateHandlerEEZN8asiodnp313UpdateBuilder6UpdateERKNS0_15TimeAndIntervalEtEUlS2_E_E10_M_managerERSt9_Any_dataRKSB_St18_Manager_operation:
.LFB2191:
	.cfi_startproc
	testl	%edx, %edx
	je	.L135
	cmpl	$1, %edx
	je	.L136
	subq	$24, %rsp
	.cfi_def_cfa_offset 32
	cmpl	$2, %edx
	je	.L139
	cmpl	$3, %edx
	je	.L140
.L138:
	xorl	%eax, %eax
	addq	$24, %rsp
	.cfi_def_cfa_offset 8
	ret
	.p2align 4,,10
	.p2align 3
.L136:
	movq	(%rsi), %rax
	movq	%rax, (%rdi)
	xorl	%eax, %eax
	ret
	.p2align 4,,10
	.p2align 3
.L135:
	leaq	_ZTIZN8asiodnp313UpdateBuilder6UpdateERKN8opendnp315TimeAndIntervalEtEUlRNS1_14IUpdateHandlerEE_(%rip), %rax
	movq	%rax, (%rdi)
	xorl	%eax, %eax
	ret
	.p2align 4,,10
	.p2align 3
.L140:
	.cfi_def_cfa_offset 32
	movq	(%rdi), %rdi
	testq	%rdi, %rdi
	je	.L138
	movl	$24, %esi
	call	_ZdlPvm@PLT
	jmp	.L138
	.p2align 4,,10
	.p2align 3
.L139:
	movq	(%rsi), %rdx
	movq	%rdi, 8(%rsp)
	movl	$24, %edi
	movq	%rdx, (%rsp)
	call	_Znwm@PLT
	movq	(%rsp), %rdx
	movq	8(%rsp), %rcx
	movdqu	(%rdx), %xmm0
	movups	%xmm0, (%rax)
	movq	16(%rdx), %rdx
	movq	%rax, (%rcx)
	movq	%rdx, 16(%rax)
	jmp	.L138
	.cfi_endproc
.LFE2191:
	.size	_ZNSt17_Function_handlerIFvRN8opendnp314IUpdateHandlerEEZN8asiodnp313UpdateBuilder6UpdateERKNS0_15TimeAndIntervalEtEUlS2_E_E10_M_managerERSt9_Any_dataRKSB_St18_Manager_operation, .-_ZNSt17_Function_handlerIFvRN8opendnp314IUpdateHandlerEEZN8asiodnp313UpdateBuilder6UpdateERKNS0_15TimeAndIntervalEtEUlS2_E_E10_M_managerERSt9_Any_dataRKSB_St18_Manager_operation
	.section	.text._ZNSt23_Sp_counted_ptr_inplaceISt6vectorISt8functionIFvRN8opendnp314IUpdateHandlerEEESaIS6_EESaIvELN9__gnu_cxx12_Lock_policyE2EE14_M_get_deleterERKSt9type_info,"axG",@progbits,_ZNSt23_Sp_counted_ptr_inplaceISt6vectorISt8functionIFvRN8opendnp314IUpdateHandlerEEESaIS6_EESaIvELN9__gnu_cxx12_Lock_policyE2EE14_M_get_deleterERKSt9type_info,comdat
	.align 2
	.p2align 4
	.weak	_ZNSt23_Sp_counted_ptr_inplaceISt6vectorISt8functionIFvRN8opendnp314IUpdateHandlerEEESaIS6_EESaIvELN9__gnu_cxx12_Lock_policyE2EE14_M_get_deleterERKSt9type_info
	.type	_ZNSt23_Sp_counted_ptr_inplaceISt6vectorISt8functionIFvRN8opendnp314IUpdateHandlerEEESaIS6_EESaIvELN9__gnu_cxx12_Lock_policyE2EE14_M_get_deleterERKSt9type_info, @function
_ZNSt23_Sp_counted_ptr_inplaceISt6vectorISt8functionIFvRN8opendnp314IUpdateHandlerEEESaIS6_EESaIvELN9__gnu_cxx12_Lock_policyE2EE14_M_get_deleterERKSt9type_info:
.LFB2565:
	.cfi_startproc
	cmpq	_ZZNSt19_Sp_make_shared_tag5_S_tiEvE5__tag@GOTPCREL(%rip), %rsi
	movq	%rdi, %rcx
	je	.L155
	movq	8(%rsi), %rdi
	movq	_ZTSSt19_Sp_make_shared_tag@GOTPCREL(%rip), %rsi
	cmpq	%rsi, %rdi
	je	.L155
	xorl	%edx, %edx
	cmpb	$42, (%rdi)
	je	.L156
	subq	$24, %rsp
	.cfi_def_cfa_offset 32
	movq	%rdx, (%rsp)
	movq	%rcx, 8(%rsp)
	call	strcmp@PLT
	xorl	%edx, %edx
	movq	8(%rsp), %rcx
	testl	%eax, %eax
	jne	.L149
	leaq	16(%rcx), %rdx
.L149:
	movq	%rdx, %rax
	addq	$24, %rsp
	.cfi_def_cfa_offset 8
	ret
	.p2align 4,,10
	.p2align 3
.L155:
	leaq	16(%rcx), %rdx
.L156:
	movq	%rdx, %rax
	ret
	.cfi_endproc
.LFE2565:
	.size	_ZNSt23_Sp_counted_ptr_inplaceISt6vectorISt8functionIFvRN8opendnp314IUpdateHandlerEEESaIS6_EESaIvELN9__gnu_cxx12_Lock_policyE2EE14_M_get_deleterERKSt9type_info, .-_ZNSt23_Sp_counted_ptr_inplaceISt6vectorISt8functionIFvRN8opendnp314IUpdateHandlerEEESaIS6_EESaIvELN9__gnu_cxx12_Lock_policyE2EE14_M_get_deleterERKSt9type_info
	.text
	.align 2
	.p2align 4
	.globl	_ZNK8asiodnp313UpdateBuilder5BuildEv
	.type	_ZNK8asiodnp313UpdateBuilder5BuildEv, @function
_ZNK8asiodnp313UpdateBuilder5BuildEv:
.LFB2043:
	.cfi_startproc
	movdqu	(%rsi), %xmm0
	movhlps	%xmm0, %xmm1
	movups	%xmm0, (%rdi)
	movq	%xmm1, %rax
	testq	%rax, %rax
	je	.L159
	movq	__libc_single_threaded@GOTPCREL(%rip), %rdx
	cmpb	$0, (%rdx)
	je	.L161
	addl	$1, 8(%rax)
.L159:
	movq	%rdi, %rax
	ret
	.p2align 4,,10
	.p2align 3
.L161:
	lock addl	$1, 8(%rax)
	movq	%rdi, %rax
	ret
	.cfi_endproc
.LFE2043:
	.size	_ZNK8asiodnp313UpdateBuilder5BuildEv, .-_ZNK8asiodnp313UpdateBuilder5BuildEv
	.section	.text._ZNSt16_Sp_counted_baseILN9__gnu_cxx12_Lock_policyE2EE24_M_release_last_use_coldEv,"axG",@progbits,_ZNSt16_Sp_counted_baseILN9__gnu_cxx12_Lock_policyE2EE24_M_release_last_use_coldEv,comdat
	.align 2
	.p2align 4
	.weak	_ZNSt16_Sp_counted_baseILN9__gnu_cxx12_Lock_policyE2EE24_M_release_last_use_coldEv
	.type	_ZNSt16_Sp_counted_baseILN9__gnu_cxx12_Lock_policyE2EE24_M_release_last_use_coldEv, @function
_ZNSt16_Sp_counted_baseILN9__gnu_cxx12_Lock_policyE2EE24_M_release_last_use_coldEv:
.LFB2078:
	.cfi_startproc
	pushq	%rbx
	.cfi_def_cfa_offset 16
	.cfi_offset 3, -16
	movq	(%rdi), %rax
	movq	%rdi, %rbx
	call	*16(%rax)
	movq	__libc_single_threaded@GOTPCREL(%rip), %rax
	cmpb	$0, (%rax)
	je	.L166
	movl	12(%rbx), %eax
	leal	-1(%rax), %edx
	movl	%edx, 12(%rbx)
.L167:
	cmpl	$1, %eax
	je	.L170
	popq	%rbx
	.cfi_remember_state
	.cfi_def_cfa_offset 8
	ret
	.p2align 4,,10
	.p2align 3
.L170:
	.cfi_restore_state
	movq	(%rbx), %rax
	movq	%rbx, %rdi
	popq	%rbx
	.cfi_remember_state
	.cfi_def_cfa_offset 8
	movq	24(%rax), %rax
	jmp	*%rax
	.p2align 4,,10
	.p2align 3
.L166:
	.cfi_restore_state
	movl	$-1, %eax
	lock xaddl	%eax, 12(%rbx)
	jmp	.L167
	.cfi_endproc
.LFE2078:
	.size	_ZNSt16_Sp_counted_baseILN9__gnu_cxx12_Lock_policyE2EE24_M_release_last_use_coldEv, .-_ZNSt16_Sp_counted_baseILN9__gnu_cxx12_Lock_policyE2EE24_M_release_last_use_coldEv
	.section	.rodata._ZNSt6vectorISt8functionIFvRN8opendnp314IUpdateHandlerEEESaIS5_EE17_M_realloc_appendIJRKS5_EEEvDpOT_.str1.1,"aMS",@progbits,1
.LC0:
	.string	"vector::_M_realloc_append"
	.section	.text._ZNSt6vectorISt8functionIFvRN8opendnp314IUpdateHandlerEEESaIS5_EE17_M_realloc_appendIJRKS5_EEEvDpOT_,"axG",@progbits,_ZNSt6vectorISt8functionIFvRN8opendnp314IUpdateHandlerEEESaIS5_EE17_M_realloc_appendIJRKS5_EEEvDpOT_,comdat
	.align 2
	.p2align 4
	.weak	_ZNSt6vectorISt8functionIFvRN8opendnp314IUpdateHandlerEEESaIS5_EE17_M_realloc_appendIJRKS5_EEEvDpOT_
	.type	_ZNSt6vectorISt8functionIFvRN8opendnp314IUpdateHandlerEEESaIS5_EE17_M_realloc_appendIJRKS5_EEEvDpOT_, @function
_ZNSt6vectorISt8functionIFvRN8opendnp314IUpdateHandlerEEESaIS5_EE17_M_realloc_appendIJRKS5_EEEvDpOT_:
.LFB2206:
	.cfi_startproc
	.cfi_personality 0x9b,DW.ref.__gxx_personality_v0
	.cfi_lsda 0x1b,.LLSDA2206
	movabsq	$288230376151711743, %rdx
	pushq	%r15
	.cfi_def_cfa_offset 16
	.cfi_offset 15, -16
	pushq	%r14
	.cfi_def_cfa_offset 24
	.cfi_offset 14, -24
	pushq	%r13
	.cfi_def_cfa_offset 32
	.cfi_offset 13, -32
	pushq	%r12
	.cfi_def_cfa_offset 40
	.cfi_offset 12, -40
	pushq	%rbp
	.cfi_def_cfa_offset 48
	.cfi_offset 6, -48
	pushq	%rbx
	.cfi_def_cfa_offset 56
	.cfi_offset 3, -56
	subq	$24, %rsp
	.cfi_def_cfa_offset 80
	movq	8(%rdi), %rbx
	movq	(%rdi), %r13
	movq	%rbx, %r15
	subq	%r13, %r15
	movq	%r15, %rax
	sarq	$5, %rax
	cmpq	%rdx, %rax
	je	.L197
	testq	%rax, %rax
	movl	$1, %ebp
	movq	%rdi, %r14
	movq	%rsi, 8(%rsp)
	cmovne	%rax, %rbp
	addq	%rax, %rbp
	movabsq	$288230376151711743, %rax
	cmpq	%rax, %rbp
	cmova	%rax, %rbp
	salq	$5, %rbp
	movq	%rbp, %rdi
.LEHB1:
	call	_Znwm@PLT
.LEHE1:
	movq	8(%rsp), %rsi
	pxor	%xmm0, %xmm0
	addq	%rax, %r15
	movq	%rax, %r12
	movq	16(%rsi), %rax
	movq	$0, 16(%r15)
	movq	$0, 24(%r15)
	movups	%xmm0, (%r15)
	testq	%rax, %rax
	je	.L173
	movl	$2, %edx
	movq	%r15, %rdi
.LEHB2:
	call	*%rax
.LEHE2:
	movq	8(%rsp), %rsi
	movdqu	16(%rsi), %xmm0
	movups	%xmm0, 16(%r15)
.L173:
	movq	%r13, %rdx
	movq	%r12, %rax
	pxor	%xmm1, %xmm1
	cmpq	%r13, %rbx
	jne	.L174
	jmp	.L198
	.p2align 6
	.p2align 4,,10
	.p2align 3
.L199:
	movdqu	(%rdx), %xmm0
	addq	$32, %rdx
	movq	%rcx, 16(%rax)
	movups	%xmm0, (%rax)
	cmpq	%rdx, %rbx
	je	.L179
.L196:
	addq	$32, %rax
.L174:
	movq	24(%rdx), %rcx
	movq	$0, 16(%rax)
	movups	%xmm1, (%rax)
	movq	%rcx, 24(%rax)
	movq	16(%rdx), %rcx
	testq	%rcx, %rcx
	jne	.L199
	addq	$32, %rdx
	cmpq	%rdx, %rbx
	jne	.L196
.L179:
	subq	%r13, %rbx
	addq	%r12, %rbx
.L175:
	addq	$32, %rbx
	testq	%r13, %r13
	je	.L181
	movq	16(%r14), %rsi
	movq	%r13, %rdi
	subq	%r13, %rsi
	call	_ZdlPvm@PLT
.L181:
	movq	%r12, (%r14)
	addq	%rbp, %r12
	movq	%rbx, 8(%r14)
	movq	%r12, 16(%r14)
	addq	$24, %rsp
	.cfi_remember_state
	.cfi_def_cfa_offset 56
	popq	%rbx
	.cfi_def_cfa_offset 48
	popq	%rbp
	.cfi_def_cfa_offset 40
	popq	%r12
	.cfi_def_cfa_offset 32
	popq	%r13
	.cfi_def_cfa_offset 24
	popq	%r14
	.cfi_def_cfa_offset 16
	popq	%r15
	.cfi_def_cfa_offset 8
	ret
	.p2align 4,,10
	.p2align 3
.L198:
	.cfi_restore_state
	movq	%r12, %rbx
	jmp	.L175
.L197:
	leaq	.LC0(%rip), %rdi
.LEHB3:
	call	_ZSt20__throw_length_errorPKc@PLT
.LEHE3:
.L183:
	movq	%rax, %rbx
.L176:
	movq	16(%r15), %rax
	testq	%rax, %rax
	je	.L177
	movl	$3, %edx
	movq	%r15, %rsi
	movq	%r15, %rdi
	call	*%rax
.L177:
	movq	%r12, %rdi
	movq	%rbp, %rsi
	call	_ZdlPvm@PLT
	movq	%rbx, %rdi
.LEHB4:
	call	_Unwind_Resume@PLT
.LEHE4:
	.cfi_endproc
.LFE2206:
	.section	.gcc_except_table._ZNSt6vectorISt8functionIFvRN8opendnp314IUpdateHandlerEEESaIS5_EE17_M_realloc_appendIJRKS5_EEEvDpOT_,"aG",@progbits,_ZNSt6vectorISt8functionIFvRN8opendnp314IUpdateHandlerEEESaIS5_EE17_M_realloc_appendIJRKS5_EEEvDpOT_,comdat
.LLSDA2206:
	.byte	0xff
	.byte	0xff
	.byte	0x1
	.uleb128 .LLSDACSE2206-.LLSDACSB2206
.LLSDACSB2206:
	.uleb128 .LEHB1-.LFB2206
	.uleb128 .LEHE1-.LEHB1
	.uleb128 0
	.uleb128 0
	.uleb128 .LEHB2-.LFB2206
	.uleb128 .LEHE2-.LEHB2
	.uleb128 .L183-.LFB2206
	.uleb128 0
	.uleb128 .LEHB3-.LFB2206
	.uleb128 .LEHE3-.LEHB3
	.uleb128 0
	.uleb128 0
	.uleb128 .LEHB4-.LFB2206
	.uleb128 .LEHE4-.LEHB4
	.uleb128 0
	.uleb128 0
.LLSDACSE2206:
	.section	.text._ZNSt6vectorISt8functionIFvRN8opendnp314IUpdateHandlerEEESaIS5_EE17_M_realloc_appendIJRKS5_EEEvDpOT_,"axG",@progbits,_ZNSt6vectorISt8functionIFvRN8opendnp314IUpdateHandlerEEESaIS5_EE17_M_realloc_appendIJRKS5_EEEvDpOT_,comdat
	.size	_ZNSt6vectorISt8functionIFvRN8opendnp314IUpdateHandlerEEESaIS5_EE17_M_realloc_appendIJRKS5_EEEvDpOT_, .-_ZNSt6vectorISt8functionIFvRN8opendnp314IUpdateHandlerEEESaIS5_EE17_M_realloc_appendIJRKS5_EEEvDpOT_
	.section	.text.unlikely,"ax",@progbits
	.align 2
.LCOLDB5:
	.text
.LHOTB5:
	.align 2
	.p2align 4
	.globl	_ZN8asiodnp313UpdateBuilder3AddERKSt8functionIFvRN8opendnp314IUpdateHandlerEEE
	.type	_ZN8asiodnp313UpdateBuilder3AddERKSt8functionIFvRN8opendnp314IUpdateHandlerEEE, @function
_ZN8asiodnp313UpdateBuilder3AddERKSt8functionIFvRN8opendnp314IUpdateHandlerEEE:
.LFB2071:
	.cfi_startproc
	.cfi_personality 0x9b,DW.ref.__gxx_personality_v0
	.cfi_lsda 0x1b,.LLSDA2071
	pushq	%r14
	.cfi_def_cfa_offset 16
	.cfi_offset 14, -16
	pushq	%rbx
	.cfi_def_cfa_offset 24
	.cfi_offset 3, -24
	subq	$24, %rsp
	.cfi_def_cfa_offset 48
	movq	(%rdi), %rcx
	testq	%rcx, %rcx
	je	.L201
.L224:
	movq	8(%rcx), %rbx
	movq	16(%rcx), %rax
.L202:
	cmpq	%rax, %rbx
	je	.L203
	movq	16(%rsi), %rax
	pxor	%xmm0, %xmm0
	movq	$0, 16(%rbx)
	movq	$0, 24(%rbx)
	movups	%xmm0, (%rbx)
	testq	%rax, %rax
	je	.L208
	movq	%rcx, 8(%rsp)
	movl	$2, %edx
	movq	%rbx, %rdi
	movq	%rsi, (%rsp)
.LEHB5:
	call	*%rax
.LEHE5:
	movq	(%rsp), %rsi
	movq	8(%rsp), %rcx
	movdqu	16(%rsi), %xmm0
	movups	%xmm0, 16(%rbx)
.L208:
	addq	$32, 8(%rcx)
	addq	$24, %rsp
	.cfi_remember_state
	.cfi_def_cfa_offset 24
	popq	%rbx
	.cfi_def_cfa_offset 16
	popq	%r14
	.cfi_def_cfa_offset 8
	ret
	.p2align 4,,10
	.p2align 3
.L203:
	.cfi_restore_state
	addq	$24, %rsp
	.cfi_remember_state
	.cfi_def_cfa_offset 24
	movq	%rcx, %rdi
	popq	%rbx
	.cfi_def_cfa_offset 16
	popq	%r14
	.cfi_def_cfa_offset 8
.LEHB6:
	jmp	_ZNSt6vectorISt8functionIFvRN8opendnp314IUpdateHandlerEEESaIS5_EE17_M_realloc_appendIJRKS5_EEEvDpOT_@PLT
	.p2align 4,,10
	.p2align 3
.L201:
	.cfi_restore_state
	movq	%rdi, %rbx
	movl	$40, %edi
	movq	%rsi, (%rsp)
	call	_Znwm@PLT
.LEHE6:
	movq	.LC1(%rip), %rdx
	movq	8(%rbx), %rdi
	pxor	%xmm0, %xmm0
	leaq	16(%rax), %rcx
	movq	$0, 32(%rax)
	movq	(%rsp), %rsi
	movq	%rdx, 8(%rax)
	movq	_ZTVSt23_Sp_counted_ptr_inplaceISt6vectorISt8functionIFvRN8opendnp314IUpdateHandlerEEESaIS6_EESaIvELN9__gnu_cxx12_Lock_policyE2EE@GOTPCREL(%rip), %rdx
	movq	%rcx, (%rbx)
	addq	$16, %rdx
	testq	%rdi, %rdi
	movq	%rax, 8(%rbx)
	movq	%rdx, (%rax)
	movups	%xmm0, 16(%rax)
	je	.L203
	movq	8(%rdi), %rdx
	leaq	8(%rdi), %rcx
	movabsq	$4294967297, %rax
	cmpq	%rax, %rdx
	je	.L225
	movq	__libc_single_threaded@GOTPCREL(%rip), %rax
	cmpb	$0, (%rax)
	je	.L205
	movl	8(%rdi), %eax
	leal	-1(%rax), %edx
	movl	%edx, 8(%rdi)
.L206:
	cmpl	$1, %eax
	je	.L207
	movq	(%rbx), %rcx
	jmp	.L224
	.p2align 4,,10
	.p2align 3
.L205:
	movl	$-1, %eax
	lock xaddl	%eax, (%rcx)
	jmp	.L206
	.p2align 4,,10
	.p2align 3
.L225:
	movq	(%rdi), %rax
	movq	%rsi, 8(%rsp)
	movq	$0, 8(%rdi)
	movq	%rdi, (%rsp)
	call	*16(%rax)
	movq	(%rsp), %rdi
	movq	(%rdi), %rax
	call	*24(%rax)
	movq	(%rbx), %rcx
	movq	8(%rsp), %rsi
	movq	8(%rcx), %rbx
	movq	16(%rcx), %rax
	jmp	.L202
.L207:
	movq	%rsi, (%rsp)
	call	_ZNSt16_Sp_counted_baseILN9__gnu_cxx12_Lock_policyE2EE24_M_release_last_use_coldEv@PLT
	movq	(%rbx), %rcx
	movq	(%rsp), %rsi
	movq	8(%rcx), %rbx
	movq	16(%rcx), %rax
	jmp	.L202
.L212:
	movq	%rax, %r14
	jmp	.L210
	.section	.gcc_except_table,"a",@progbits
.LLSDA2071:
	.byte	0xff
	.byte	0xff
	.byte	0x1
	.uleb128 .LLSDACSE2071-.LLSDACSB2071
.LLSDACSB2071:
	.uleb128 .LEHB5-.LFB2071
	.uleb128 .LEHE5-.LEHB5
	.uleb128 .L212-.LFB2071
	.uleb128 0
	.uleb128 .LEHB6-.LFB2071
	.uleb128 .LEHE6-.LEHB6
	.uleb128 0
	.uleb128 0
.LLSDACSE2071:
	.text
	.cfi_endproc
	.section	.text.unlikely
	.cfi_startproc
	.cfi_personality 0x9b,DW.ref.__gxx_personality_v0
	.cfi_lsda 0x1b,.LLSDAC2071
	.type	_ZN8asiodnp313UpdateBuilder3AddERKSt8functionIFvRN8opendnp314IUpdateHandlerEEE.cold, @function
_ZN8asiodnp313UpdateBuilder3AddERKSt8functionIFvRN8opendnp314IUpdateHandlerEEE.cold:
.LFSB2071:
.L210:
	.cfi_def_cfa_offset 48
	.cfi_offset 3, -24
	.cfi_offset 14, -16
	movq	16(%rbx), %rax
	testq	%rax, %rax
	je	.L211
	movl	$3, %edx
	movq	%rbx, %rsi
	movq	%rbx, %rdi
	call	*%rax
.L211:
	movq	%r14, %rdi
.LEHB7:
	call	_Unwind_Resume@PLT
.LEHE7:
	.cfi_endproc
.LFE2071:
	.section	.gcc_except_table
.LLSDAC2071:
	.byte	0xff
	.byte	0xff
	.byte	0x1
	.uleb128 .LLSDACSEC2071-.LLSDACSBC2071
.LLSDACSBC2071:
	.uleb128 .LEHB7-.LCOLDB5
	.uleb128 .LEHE7-.LEHB7
	.uleb128 0
	.uleb128 0
.LLSDACSEC2071:
	.section	.text.unlikely
	.text
	.size	_ZN8asiodnp313UpdateBuilder3AddERKSt8functionIFvRN8opendnp314IUpdateHandlerEEE, .-_ZN8asiodnp313UpdateBuilder3AddERKSt8functionIFvRN8opendnp314IUpdateHandlerEEE
	.section	.text.unlikely
	.size	_ZN8asiodnp313UpdateBuilder3AddERKSt8functionIFvRN8opendnp314IUpdateHandlerEEE.cold, .-_ZN8asiodnp313UpdateBuilder3AddERKSt8functionIFvRN8opendnp314IUpdateHandlerEEE.cold
.LCOLDE5:
	.text
.LHOTE5:
	.section	.text.unlikely
	.align 2
.LCOLDB6:
	.text
.LHOTB6:
	.align 2
	.p2align 4
	.globl	_ZN8asiodnp313UpdateBuilder6UpdateERKN8opendnp36BinaryEtNS1_9EventModeE
	.type	_ZN8asiodnp313UpdateBuilder6UpdateERKN8opendnp36BinaryEtNS1_9EventModeE, @function
_ZN8asiodnp313UpdateBuilder6UpdateERKN8opendnp36BinaryEtNS1_9EventModeE:
.LFB2051:
	.cfi_startproc
	.cfi_personality 0x9b,DW.ref.__gxx_personality_v0
	.cfi_lsda 0x1b,.LLSDA2051
	pushq	%r15
	.cfi_def_cfa_offset 16
	.cfi_offset 15, -16
	pushq	%r14
	.cfi_def_cfa_offset 24
	.cfi_offset 14, -24
	pushq	%r13
	.cfi_def_cfa_offset 32
	.cfi_offset 13, -32
	pushq	%r12
	.cfi_def_cfa_offset 40
	.cfi_offset 12, -40
	movl	%edx, %r12d
	pushq	%rbp
	.cfi_def_cfa_offset 48
	.cfi_offset 6, -48
	movq	%rdi, %rbp
	movl	$32, %edi
	pushq	%rbx
	.cfi_def_cfa_offset 56
	.cfi_offset 3, -56
	movl	%ecx, %ebx
	subq	$56, %rsp
	.cfi_def_cfa_offset 112
	movzbl	(%rsi), %r15d
	movq	8(%rsi), %r14
	movq	_ZNSt17_Function_handlerIFvRN8opendnp314IUpdateHandlerEEZN8asiodnp313UpdateBuilder7AddMeasINS0_6BinaryEEERS5_RKT_tNS0_9EventModeEEUlS2_E_E10_M_managerERSt9_Any_dataRKSF_St18_Manager_operation@GOTPCREL(%rip), %xmm0
	movzbl	16(%rsi), %r13d
	movhps	_ZNSt17_Function_handlerIFvRN8opendnp314IUpdateHandlerEEZN8asiodnp313UpdateBuilder7AddMeasINS0_6BinaryEEERS5_RKT_tNS0_9EventModeEEUlS2_E_E9_M_invokeERKSt9_Any_dataS2_@GOTPCREL(%rip), %xmm0
	movq	$0, 24(%rsp)
	movaps	%xmm0, (%rsp)
.LEHB8:
	call	_Znwm@PLT
.LEHE8:
	movdqa	(%rsp), %xmm0
	leaq	16(%rsp), %rsi
	movq	%rbp, %rdi
	movb	%r15b, (%rax)
	movq	%r14, 8(%rax)
	movb	%r13b, 16(%rax)
	movw	%r12w, 24(%rax)
	movb	%bl, 26(%rax)
	movq	%rax, 16(%rsp)
	movaps	%xmm0, 32(%rsp)
.LEHB9:
	call	_ZN8asiodnp313UpdateBuilder3AddERKSt8functionIFvRN8opendnp314IUpdateHandlerEEE@PLT
.LEHE9:
	movq	32(%rsp), %rax
	testq	%rax, %rax
	je	.L233
	movl	$3, %edx
	leaq	16(%rsp), %rsi
	leaq	16(%rsp), %rdi
	call	*%rax
.L233:
	addq	$56, %rsp
	.cfi_remember_state
	.cfi_def_cfa_offset 56
	movq	%rbp, %rax
	popq	%rbx
	.cfi_def_cfa_offset 48
	popq	%rbp
	.cfi_def_cfa_offset 40
	popq	%r12
	.cfi_def_cfa_offset 32
	popq	%r13
	.cfi_def_cfa_offset 24
	popq	%r14
	.cfi_def_cfa_offset 16
	popq	%r15
	.cfi_def_cfa_offset 8
	ret
.L230:
	.cfi_restore_state
	movq	%rax, %rbp
	jmp	.L228
	.section	.gcc_except_table
.LLSDA2051:
	.byte	0xff
	.byte	0xff
	.byte	0x1
	.uleb128 .LLSDACSE2051-.LLSDACSB2051
.LLSDACSB2051:
	.uleb128 .LEHB8-.LFB2051
	.uleb128 .LEHE8-.LEHB8
	.uleb128 0
	.uleb128 0
	.uleb128 .LEHB9-.LFB2051
	.uleb128 .LEHE9-.LEHB9
	.uleb128 .L230-.LFB2051
	.uleb128 0
.LLSDACSE2051:
	.text
	.cfi_endproc
	.section	.text.unlikely
	.cfi_startproc
	.cfi_personality 0x9b,DW.ref.__gxx_personality_v0
	.cfi_lsda 0x1b,.LLSDAC2051
	.type	_ZN8asiodnp313UpdateBuilder6UpdateERKN8opendnp36BinaryEtNS1_9EventModeE.cold, @function
_ZN8asiodnp313UpdateBuilder6UpdateERKN8opendnp36BinaryEtNS1_9EventModeE.cold:
.LFSB2051:
.L228:
	.cfi_def_cfa_offset 112
	.cfi_offset 3, -56
	.cfi_offset 6, -48
	.cfi_offset 12, -40
	.cfi_offset 13, -32
	.cfi_offset 14, -24
	.cfi_offset 15, -16
	movq	32(%rsp), %rax
	testq	%rax, %rax
	je	.L229
	movl	$3, %edx
	leaq	16(%rsp), %rsi
	leaq	16(%rsp), %rdi
	call	*%rax
.L229:
	movq	%rbp, %rdi
.LEHB10:
	call	_Unwind_Resume@PLT
.LEHE10:
	.cfi_endproc
.LFE2051:
	.section	.gcc_except_table
.LLSDAC2051:
	.byte	0xff
	.byte	0xff
	.byte	0x1
	.uleb128 .LLSDACSEC2051-.LLSDACSBC2051
.LLSDACSBC2051:
	.uleb128 .LEHB10-.LCOLDB6
	.uleb128 .LEHE10-.LEHB10
	.uleb128 0
	.uleb128 0
.LLSDACSEC2051:
	.section	.text.unlikely
	.text
	.size	_ZN8asiodnp313UpdateBuilder6UpdateERKN8opendnp36BinaryEtNS1_9EventModeE, .-_ZN8asiodnp313UpdateBuilder6UpdateERKN8opendnp36BinaryEtNS1_9EventModeE
	.section	.text.unlikely
	.size	_ZN8asiodnp313UpdateBuilder6UpdateERKN8opendnp36BinaryEtNS1_9EventModeE.cold, .-_ZN8asiodnp313UpdateBuilder6UpdateERKN8opendnp36BinaryEtNS1_9EventModeE.cold
.LCOLDE6:
	.text
.LHOTE6:
	.section	.text.unlikely
	.align 2
.LCOLDB7:
	.text
.LHOTB7:
	.align 2
	.p2align 4
	.globl	_ZN8asiodnp313UpdateBuilder6UpdateERKN8opendnp315DoubleBitBinaryEtNS1_9EventModeE
	.type	_ZN8asiodnp313UpdateBuilder6UpdateERKN8opendnp315DoubleBitBinaryEtNS1_9EventModeE, @function
_ZN8asiodnp313UpdateBuilder6UpdateERKN8opendnp315DoubleBitBinaryEtNS1_9EventModeE:
.LFB2052:
	.cfi_startproc
	.cfi_personality 0x9b,DW.ref.__gxx_personality_v0
	.cfi_lsda 0x1b,.LLSDA2052
	pushq	%r15
	.cfi_def_cfa_offset 16
	.cfi_offset 15, -16
	pushq	%r14
	.cfi_def_cfa_offset 24
	.cfi_offset 14, -24
	pushq	%r13
	.cfi_def_cfa_offset 32
	.cfi_offset 13, -32
	pushq	%r12
	.cfi_def_cfa_offset 40
	.cfi_offset 12, -40
	movl	%edx, %r12d
	pushq	%rbp
	.cfi_def_cfa_offset 48
	.cfi_offset 6, -48
	movq	%rdi, %rbp
	movl	$32, %edi
	pushq	%rbx
	.cfi_def_cfa_offset 56
	.cfi_offset 3, -56
	movl	%ecx, %ebx
	subq	$56, %rsp
	.cfi_def_cfa_offset 112
	movzbl	(%rsi), %r15d
	movq	8(%rsi), %r14
	movq	_ZNSt17_Function_handlerIFvRN8opendnp314IUpdateHandlerEEZN8asiodnp313UpdateBuilder7AddMeasINS0_15DoubleBitBinaryEEERS5_RKT_tNS0_9EventModeEEUlS2_E_E10_M_managerERSt9_Any_dataRKSF_St18_Manager_operation@GOTPCREL(%rip), %xmm0
	movzbl	16(%rsi), %r13d
	movhps	_ZNSt17_Function_handlerIFvRN8opendnp314IUpdateHandlerEEZN8asiodnp313UpdateBuilder7AddMeasINS0_15DoubleBitBinaryEEERS5_RKT_tNS0_9EventModeEEUlS2_E_E9_M_invokeERKSt9_Any_dataS2_@GOTPCREL(%rip), %xmm0
	movq	$0, 24(%rsp)
	movaps	%xmm0, (%rsp)
.LEHB11:
	call	_Znwm@PLT
.LEHE11:
	movdqa	(%rsp), %xmm0
	leaq	16(%rsp), %rsi
	movq	%rbp, %rdi
	movb	%r15b, (%rax)
	movq	%r14, 8(%rax)
	movb	%r13b, 16(%rax)
	movw	%r12w, 24(%rax)
	movb	%bl, 26(%rax)
	movq	%rax, 16(%rsp)
	movaps	%xmm0, 32(%rsp)
.LEHB12:
	call	_ZN8asiodnp313UpdateBuilder3AddERKSt8functionIFvRN8opendnp314IUpdateHandlerEEE@PLT
.LEHE12:
	movq	32(%rsp), %rax
	testq	%rax, %rax
	je	.L246
	movl	$3, %edx
	leaq	16(%rsp), %rsi
	leaq	16(%rsp), %rdi
	call	*%rax
.L246:
	addq	$56, %rsp
	.cfi_remember_state
	.cfi_def_cfa_offset 56
	movq	%rbp, %rax
	popq	%rbx
	.cfi_def_cfa_offset 48
	popq	%rbp
	.cfi_def_cfa_offset 40
	popq	%r12
	.cfi_def_cfa_offset 32
	popq	%r13
	.cfi_def_cfa_offset 24
	popq	%r14
	.cfi_def_cfa_offset 16
	popq	%r15
	.cfi_def_cfa_offset 8
	ret
.L243:
	.cfi_restore_state
	movq	%rax, %rbp
	jmp	.L241
	.section	.gcc_except_table
.LLSDA2052:
	.byte	0xff
	.byte	0xff
	.byte	0x1
	.uleb128 .LLSDACSE2052-.LLSDACSB2052
.LLSDACSB2052:
	.uleb128 .LEHB11-.LFB2052
	.uleb128 .LEHE11-.LEHB11
	.uleb128 0
	.uleb128 0
	.uleb128 .LEHB12-.LFB2052
	.uleb128 .LEHE12-.LEHB12
	.uleb128 .L243-.LFB2052
	.uleb128 0
.LLSDACSE2052:
	.text
	.cfi_endproc
	.section	.text.unlikely
	.cfi_startproc
	.cfi_personality 0x9b,DW.ref.__gxx_personality_v0
	.cfi_lsda 0x1b,.LLSDAC2052
	.type	_ZN8asiodnp313UpdateBuilder6UpdateERKN8opendnp315DoubleBitBinaryEtNS1_9EventModeE.cold, @function
_ZN8asiodnp313UpdateBuilder6UpdateERKN8opendnp315DoubleBitBinaryEtNS1_9EventModeE.cold:
.LFSB2052:
.L241:
	.cfi_def_cfa_offset 112
	.cfi_offset 3, -56
	.cfi_offset 6, -48
	.cfi_offset 12, -40
	.cfi_offset 13, -32
	.cfi_offset 14, -24
	.cfi_offset 15, -16
	movq	32(%rsp), %rax
	testq	%rax, %rax
	je	.L242
	movl	$3, %edx
	leaq	16(%rsp), %rsi
	leaq	16(%rsp), %rdi
	call	*%rax
.L242:
	movq	%rbp, %rdi
.LEHB13:
	call	_Unwind_Resume@PLT
.LEHE13:
	.cfi_endproc
.LFE2052:
	.section	.gcc_except_table
.LLSDAC2052:
	.byte	0xff
	.byte	0xff
	.byte	0x1
	.uleb128 .LLSDACSEC2052-.LLSDACSBC2052
.LLSDACSBC2052:
	.uleb128 .LEHB13-.LCOLDB7
	.uleb128 .LEHE13-.LEHB13
	.uleb128 0
	.uleb128 0
.LLSDACSEC2052:
	.section	.text.unlikely
	.text
	.size	_ZN8asiodnp313UpdateBuilder6UpdateERKN8opendnp315DoubleBitBinaryEtNS1_9EventModeE, .-_ZN8asiodnp313UpdateBuilder6UpdateERKN8opendnp315DoubleBitBinaryEtNS1_9EventModeE
	.section	.text.unlikely
	.size	_ZN8asiodnp313UpdateBuilder6UpdateERKN8opendnp315DoubleBitBinaryEtNS1_9EventModeE.cold, .-_ZN8asiodnp313UpdateBuilder6UpdateERKN8opendnp315DoubleBitBinaryEtNS1_9EventModeE.cold
.LCOLDE7:
	.text
.LHOTE7:
	.section	.text.unlikely
	.align 2
.LCOLDB8:
	.text
.LHOTB8:
	.align 2
	.p2align 4
	.globl	_ZN8asiodnp313UpdateBuilder6UpdateERKN8opendnp36AnalogEtNS1_9EventModeE
	.type	_ZN8asiodnp313UpdateBuilder6UpdateERKN8opendnp36AnalogEtNS1_9EventModeE, @function
_ZN8asiodnp313UpdateBuilder6UpdateERKN8opendnp36AnalogEtNS1_9EventModeE:
.LFB2053:
	.cfi_startproc
	.cfi_personality 0x9b,DW.ref.__gxx_personality_v0
	.cfi_lsda 0x1b,.LLSDA2053
	pushq	%r14
	.cfi_def_cfa_offset 16
	.cfi_offset 14, -16
	pushq	%r13
	.cfi_def_cfa_offset 24
	.cfi_offset 13, -24
	pushq	%r12
	.cfi_def_cfa_offset 32
	.cfi_offset 12, -32
	movl	%edx, %r12d
	pushq	%rbp
	.cfi_def_cfa_offset 40
	.cfi_offset 6, -40
	movq	%rdi, %rbp
	movl	$32, %edi
	pushq	%rbx
	.cfi_def_cfa_offset 48
	.cfi_offset 3, -48
	movl	%ecx, %ebx
	subq	$64, %rsp
	.cfi_def_cfa_offset 112
	movsd	16(%rsi), %xmm1
	movzbl	(%rsi), %r14d
	movq	_ZNSt17_Function_handlerIFvRN8opendnp314IUpdateHandlerEEZN8asiodnp313UpdateBuilder7AddMeasINS0_6AnalogEEERS5_RKT_tNS0_9EventModeEEUlS2_E_E10_M_managerERSt9_Any_dataRKSF_St18_Manager_operation@GOTPCREL(%rip), %xmm0
	movq	8(%rsi), %r13
	movhps	_ZNSt17_Function_handlerIFvRN8opendnp314IUpdateHandlerEEZN8asiodnp313UpdateBuilder7AddMeasINS0_6AnalogEEERS5_RKT_tNS0_9EventModeEEUlS2_E_E9_M_invokeERKSt9_Any_dataS2_@GOTPCREL(%rip), %xmm0
	movq	$0, 40(%rsp)
	movaps	%xmm0, 16(%rsp)
	movsd	%xmm1, 8(%rsp)
.LEHB14:
	call	_Znwm@PLT
.LEHE14:
	movsd	8(%rsp), %xmm1
	leaq	32(%rsp), %rsi
	movq	%rbp, %rdi
	movb	%r14b, (%rax)
	movdqa	16(%rsp), %xmm0
	movq	%r13, 8(%rax)
	movw	%r12w, 24(%rax)
	movb	%bl, 26(%rax)
	movsd	%xmm1, 16(%rax)
	movq	%rax, 32(%rsp)
	movaps	%xmm0, 48(%rsp)
.LEHB15:
	call	_ZN8asiodnp313UpdateBuilder3AddERKSt8functionIFvRN8opendnp314IUpdateHandlerEEE@PLT
.LEHE15:
	movq	48(%rsp), %rax
	testq	%rax, %rax
	je	.L259
	movl	$3, %edx
	leaq	32(%rsp), %rsi
	leaq	32(%rsp), %rdi
	call	*%rax
.L259:
	addq	$64, %rsp
	.cfi_remember_state
	.cfi_def_cfa_offset 48
	movq	%rbp, %rax
	popq	%rbx
	.cfi_def_cfa_offset 40
	popq	%rbp
	.cfi_def_cfa_offset 32
	popq	%r12
	.cfi_def_cfa_offset 24
	popq	%r13
	.cfi_def_cfa_offset 16
	popq	%r14
	.cfi_def_cfa_offset 8
	ret
.L256:
	.cfi_restore_state
	movq	%rax, %rbp
	jmp	.L254
	.section	.gcc_except_table
.LLSDA2053:
	.byte	0xff
	.byte	0xff
	.byte	0x1
	.uleb128 .LLSDACSE2053-.LLSDACSB2053
.LLSDACSB2053:
	.uleb128 .LEHB14-.LFB2053
	.uleb128 .LEHE14-.LEHB14
	.uleb128 0
	.uleb128 0
	.uleb128 .LEHB15-.LFB2053
	.uleb128 .LEHE15-.LEHB15
	.uleb128 .L256-.LFB2053
	.uleb128 0
.LLSDACSE2053:
	.text
	.cfi_endproc
	.section	.text.unlikely
	.cfi_startproc
	.cfi_personality 0x9b,DW.ref.__gxx_personality_v0
	.cfi_lsda 0x1b,.LLSDAC2053
	.type	_ZN8asiodnp313UpdateBuilder6UpdateERKN8opendnp36AnalogEtNS1_9EventModeE.cold, @function
_ZN8asiodnp313UpdateBuilder6UpdateERKN8opendnp36AnalogEtNS1_9EventModeE.cold:
.LFSB2053:
.L254:
	.cfi_def_cfa_offset 112
	.cfi_offset 3, -48
	.cfi_offset 6, -40
	.cfi_offset 12, -32
	.cfi_offset 13, -24
	.cfi_offset 14, -16
	movq	48(%rsp), %rax
	testq	%rax, %rax
	je	.L255
	movl	$3, %edx
	leaq	32(%rsp), %rsi
	leaq	32(%rsp), %rdi
	call	*%rax
.L255:
	movq	%rbp, %rdi
.LEHB16:
	call	_Unwind_Resume@PLT
.LEHE16:
	.cfi_endproc
.LFE2053:
	.section	.gcc_except_table
.LLSDAC2053:
	.byte	0xff
	.byte	0xff
	.byte	0x1
	.uleb128 .LLSDACSEC2053-.LLSDACSBC2053
.LLSDACSBC2053:
	.uleb128 .LEHB16-.LCOLDB8
	.uleb128 .LEHE16-.LEHB16
	.uleb128 0
	.uleb128 0
.LLSDACSEC2053:
	.section	.text.unlikely
	.text
	.size	_ZN8asiodnp313UpdateBuilder6UpdateERKN8opendnp36AnalogEtNS1_9EventModeE, .-_ZN8asiodnp313UpdateBuilder6UpdateERKN8opendnp36AnalogEtNS1_9EventModeE
	.section	.text.unlikely
	.size	_ZN8asiodnp313UpdateBuilder6UpdateERKN8opendnp36AnalogEtNS1_9EventModeE.cold, .-_ZN8asiodnp313UpdateBuilder6UpdateERKN8opendnp36AnalogEtNS1_9EventModeE.cold
.LCOLDE8:
	.text
.LHOTE8:
	.section	.text.unlikely
	.align 2
.LCOLDB9:
	.text
.LHOTB9:
	.align 2
	.p2align 4
	.globl	_ZN8asiodnp313UpdateBuilder6UpdateERKN8opendnp37CounterEtNS1_9EventModeE
	.type	_ZN8asiodnp313UpdateBuilder6UpdateERKN8opendnp37CounterEtNS1_9EventModeE, @function
_ZN8asiodnp313UpdateBuilder6UpdateERKN8opendnp37CounterEtNS1_9EventModeE:
.LFB2054:
	.cfi_startproc
	.cfi_personality 0x9b,DW.ref.__gxx_personality_v0
	.cfi_lsda 0x1b,.LLSDA2054
	pushq	%r15
	.cfi_def_cfa_offset 16
	.cfi_offset 15, -16
	pushq	%r14
	.cfi_def_cfa_offset 24
	.cfi_offset 14, -24
	pushq	%r13
	.cfi_def_cfa_offset 32
	.cfi_offset 13, -32
	pushq	%r12
	.cfi_def_cfa_offset 40
	.cfi_offset 12, -40
	movl	%edx, %r12d
	pushq	%rbp
	.cfi_def_cfa_offset 48
	.cfi_offset 6, -48
	movq	%rdi, %rbp
	movl	$32, %edi
	pushq	%rbx
	.cfi_def_cfa_offset 56
	.cfi_offset 3, -56
	movl	%ecx, %ebx
	subq	$56, %rsp
	.cfi_def_cfa_offset 112
	movzbl	(%rsi), %r15d
	movq	8(%rsi), %r14
	movq	_ZNSt17_Function_handlerIFvRN8opendnp314IUpdateHandlerEEZN8asiodnp313UpdateBuilder7AddMeasINS0_7CounterEEERS5_RKT_tNS0_9EventModeEEUlS2_E_E10_M_managerERSt9_Any_dataRKSF_St18_Manager_operation@GOTPCREL(%rip), %xmm0
	movl	16(%rsi), %r13d
	movhps	_ZNSt17_Function_handlerIFvRN8opendnp314IUpdateHandlerEEZN8asiodnp313UpdateBuilder7AddMeasINS0_7CounterEEERS5_RKT_tNS0_9EventModeEEUlS2_E_E9_M_invokeERKSt9_Any_dataS2_@GOTPCREL(%rip), %xmm0
	movq	$0, 24(%rsp)
	movaps	%xmm0, (%rsp)
.LEHB17:
	call	_Znwm@PLT
.LEHE17:
	movdqa	(%rsp), %xmm0
	leaq	16(%rsp), %rsi
	movq	%rbp, %rdi
	movb	%r15b, (%rax)
	movq	%r14, 8(%rax)
	movl	%r13d, 16(%rax)
	movw	%r12w, 24(%rax)
	movb	%bl, 26(%rax)
	movq	%rax, 16(%rsp)
	movaps	%xmm0, 32(%rsp)
.LEHB18:
	call	_ZN8asiodnp313UpdateBuilder3AddERKSt8functionIFvRN8opendnp314IUpdateHandlerEEE@PLT
.LEHE18:
	movq	32(%rsp), %rax
	testq	%rax, %rax
	je	.L272
	movl	$3, %edx
	leaq	16(%rsp), %rsi
	leaq	16(%rsp), %rdi
	call	*%rax
.L272:
	addq	$56, %rsp
	.cfi_remember_state
	.cfi_def_cfa_offset 56
	movq	%rbp, %rax
	popq	%rbx
	.cfi_def_cfa_offset 48
	popq	%rbp
	.cfi_def_cfa_offset 40
	popq	%r12
	.cfi_def_cfa_offset 32
	popq	%r13
	.cfi_def_cfa_offset 24
	popq	%r14
	.cfi_def_cfa_offset 16
	popq	%r15
	.cfi_def_cfa_offset 8
	ret
.L269:
	.cfi_restore_state
	movq	%rax, %rbp
	jmp	.L267
	.section	.gcc_except_table
.LLSDA2054:
	.byte	0xff
	.byte	0xff
	.byte	0x1
	.uleb128 .LLSDACSE2054-.LLSDACSB2054
.LLSDACSB2054:
	.uleb128 .LEHB17-.LFB2054
	.uleb128 .LEHE17-.LEHB17
	.uleb128 0
	.uleb128 0
	.uleb128 .LEHB18-.LFB2054
	.uleb128 .LEHE18-.LEHB18
	.uleb128 .L269-.LFB2054
	.uleb128 0
.LLSDACSE2054:
	.text
	.cfi_endproc
	.section	.text.unlikely
	.cfi_startproc
	.cfi_personality 0x9b,DW.ref.__gxx_personality_v0
	.cfi_lsda 0x1b,.LLSDAC2054
	.type	_ZN8asiodnp313UpdateBuilder6UpdateERKN8opendnp37CounterEtNS1_9EventModeE.cold, @function
_ZN8asiodnp313UpdateBuilder6UpdateERKN8opendnp37CounterEtNS1_9EventModeE.cold:
.LFSB2054:
.L267:
	.cfi_def_cfa_offset 112
	.cfi_offset 3, -56
	.cfi_offset 6, -48
	.cfi_offset 12, -40
	.cfi_offset 13, -32
	.cfi_offset 14, -24
	.cfi_offset 15, -16
	movq	32(%rsp), %rax
	testq	%rax, %rax
	je	.L268
	movl	$3, %edx
	leaq	16(%rsp), %rsi
	leaq	16(%rsp), %rdi
	call	*%rax
.L268:
	movq	%rbp, %rdi
.LEHB19:
	call	_Unwind_Resume@PLT
.LEHE19:
	.cfi_endproc
.LFE2054:
	.section	.gcc_except_table
.LLSDAC2054:
	.byte	0xff
	.byte	0xff
	.byte	0x1
	.uleb128 .LLSDACSEC2054-.LLSDACSBC2054
.LLSDACSBC2054:
	.uleb128 .LEHB19-.LCOLDB9
	.uleb128 .LEHE19-.LEHB19
	.uleb128 0
	.uleb128 0
.LLSDACSEC2054:
	.section	.text.unlikely
	.text
	.size	_ZN8asiodnp313UpdateBuilder6UpdateERKN8opendnp37CounterEtNS1_9EventModeE, .-_ZN8asiodnp313UpdateBuilder6UpdateERKN8opendnp37CounterEtNS1_9EventModeE
	.section	.text.unlikely
	.size	_ZN8asiodnp313UpdateBuilder6UpdateERKN8opendnp37CounterEtNS1_9EventModeE.cold, .-_ZN8asiodnp313UpdateBuilder6UpdateERKN8opendnp37CounterEtNS1_9EventModeE.cold
.LCOLDE9:
	.text
.LHOTE9:
	.section	.text.unlikely
	.align 2
.LCOLDB10:
	.text
.LHOTB10:
	.align 2
	.p2align 4
	.globl	_ZN8asiodnp313UpdateBuilder6UpdateERKN8opendnp313FrozenCounterEtNS1_9EventModeE
	.type	_ZN8asiodnp313UpdateBuilder6UpdateERKN8opendnp313FrozenCounterEtNS1_9EventModeE, @function
_ZN8asiodnp313UpdateBuilder6UpdateERKN8opendnp313FrozenCounterEtNS1_9EventModeE:
.LFB2055:
	.cfi_startproc
	.cfi_personality 0x9b,DW.ref.__gxx_personality_v0
	.cfi_lsda 0x1b,.LLSDA2055
	pushq	%r15
	.cfi_def_cfa_offset 16
	.cfi_offset 15, -16
	pushq	%r14
	.cfi_def_cfa_offset 24
	.cfi_offset 14, -24
	pushq	%r13
	.cfi_def_cfa_offset 32
	.cfi_offset 13, -32
	pushq	%r12
	.cfi_def_cfa_offset 40
	.cfi_offset 12, -40
	movl	%edx, %r12d
	pushq	%rbp
	.cfi_def_cfa_offset 48
	.cfi_offset 6, -48
	movq	%rdi, %rbp
	movl	$32, %edi
	pushq	%rbx
	.cfi_def_cfa_offset 56
	.cfi_offset 3, -56
	movl	%ecx, %ebx
	subq	$56, %rsp
	.cfi_def_cfa_offset 112
	movzbl	(%rsi), %r15d
	movq	8(%rsi), %r14
	movq	_ZNSt17_Function_handlerIFvRN8opendnp314IUpdateHandlerEEZN8asiodnp313UpdateBuilder7AddMeasINS0_13FrozenCounterEEERS5_RKT_tNS0_9EventModeEEUlS2_E_E10_M_managerERSt9_Any_dataRKSF_St18_Manager_operation@GOTPCREL(%rip), %xmm0
	movl	16(%rsi), %r13d
	movhps	_ZNSt17_Function_handlerIFvRN8opendnp314IUpdateHandlerEEZN8asiodnp313UpdateBuilder7AddMeasINS0_13FrozenCounterEEERS5_RKT_tNS0_9EventModeEEUlS2_E_E9_M_invokeERKSt9_Any_dataS2_@GOTPCREL(%rip), %xmm0
	movq	$0, 24(%rsp)
	movaps	%xmm0, (%rsp)
.LEHB20:
	call	_Znwm@PLT
.LEHE20:
	movdqa	(%rsp), %xmm0
	leaq	16(%rsp), %rsi
	movq	%rbp, %rdi
	movb	%r15b, (%rax)
	movq	%r14, 8(%rax)
	movl	%r13d, 16(%rax)
	movw	%r12w, 24(%rax)
	movb	%bl, 26(%rax)
	movq	%rax, 16(%rsp)
	movaps	%xmm0, 32(%rsp)
.LEHB21:
	call	_ZN8asiodnp313UpdateBuilder3AddERKSt8functionIFvRN8opendnp314IUpdateHandlerEEE@PLT
.LEHE21:
	movq	32(%rsp), %rax
	testq	%rax, %rax
	je	.L285
	movl	$3, %edx
	leaq	16(%rsp), %rsi
	leaq	16(%rsp), %rdi
	call	*%rax
.L285:
	addq	$56, %rsp
	.cfi_remember_state
	.cfi_def_cfa_offset 56
	movq	%rbp, %rax
	popq	%rbx
	.cfi_def_cfa_offset 48
	popq	%rbp
	.cfi_def_cfa_offset 40
	popq	%r12
	.cfi_def_cfa_offset 32
	popq	%r13
	.cfi_def_cfa_offset 24
	popq	%r14
	.cfi_def_cfa_offset 16
	popq	%r15
	.cfi_def_cfa_offset 8
	ret
.L282:
	.cfi_restore_state
	movq	%rax, %rbp
	jmp	.L280
	.section	.gcc_except_table
.LLSDA2055:
	.byte	0xff
	.byte	0xff
	.byte	0x1
	.uleb128 .LLSDACSE2055-.LLSDACSB2055
.LLSDACSB2055:
	.uleb128 .LEHB20-.LFB2055
	.uleb128 .LEHE20-.LEHB20
	.uleb128 0
	.uleb128 0
	.uleb128 .LEHB21-.LFB2055
	.uleb128 .LEHE21-.LEHB21
	.uleb128 .L282-.LFB2055
	.uleb128 0
.LLSDACSE2055:
	.text
	.cfi_endproc
	.section	.text.unlikely
	.cfi_startproc
	.cfi_personality 0x9b,DW.ref.__gxx_personality_v0
	.cfi_lsda 0x1b,.LLSDAC2055
	.type	_ZN8asiodnp313UpdateBuilder6UpdateERKN8opendnp313FrozenCounterEtNS1_9EventModeE.cold, @function
_ZN8asiodnp313UpdateBuilder6UpdateERKN8opendnp313FrozenCounterEtNS1_9EventModeE.cold:
.LFSB2055:
.L280:
	.cfi_def_cfa_offset 112
	.cfi_offset 3, -56
	.cfi_offset 6, -48
	.cfi_offset 12, -40
	.cfi_offset 13, -32
	.cfi_offset 14, -24
	.cfi_offset 15, -16
	movq	32(%rsp), %rax
	testq	%rax, %rax
	je	.L281
	movl	$3, %edx
	leaq	16(%rsp), %rsi
	leaq	16(%rsp), %rdi
	call	*%rax
.L281:
	movq	%rbp, %rdi
.LEHB22:
	call	_Unwind_Resume@PLT
.LEHE22:
	.cfi_endproc
.LFE2055:
	.section	.gcc_except_table
.LLSDAC2055:
	.byte	0xff
	.byte	0xff
	.byte	0x1
	.uleb128 .LLSDACSEC2055-.LLSDACSBC2055
.LLSDACSBC2055:
	.uleb128 .LEHB22-.LCOLDB10
	.uleb128 .LEHE22-.LEHB22
	.uleb128 0
	.uleb128 0
.LLSDACSEC2055:
	.section	.text.unlikely
	.text
	.size	_ZN8asiodnp313UpdateBuilder6UpdateERKN8opendnp313FrozenCounterEtNS1_9EventModeE, .-_ZN8asiodnp313UpdateBuilder6UpdateERKN8opendnp313FrozenCounterEtNS1_9EventModeE
	.section	.text.unlikely
	.size	_ZN8asiodnp313UpdateBuilder6UpdateERKN8opendnp313FrozenCounterEtNS1_9EventModeE.cold, .-_ZN8asiodnp313UpdateBuilder6UpdateERKN8opendnp313FrozenCounterEtNS1_9EventModeE.cold
.LCOLDE10:
	.text
.LHOTE10:
	.section	.text.unlikely
	.align 2
.LCOLDB11:
	.text
.LHOTB11:
	.align 2
	.p2align 4
	.globl	_ZN8asiodnp313UpdateBuilder6UpdateERKN8opendnp318BinaryOutputStatusEtNS1_9EventModeE
	.type	_ZN8asiodnp313UpdateBuilder6UpdateERKN8opendnp318BinaryOutputStatusEtNS1_9EventModeE, @function
_ZN8asiodnp313UpdateBuilder6UpdateERKN8opendnp318BinaryOutputStatusEtNS1_9EventModeE:
.LFB2056:
	.cfi_startproc
	.cfi_personality 0x9b,DW.ref.__gxx_personality_v0
	.cfi_lsda 0x1b,.LLSDA2056
	pushq	%r15
	.cfi_def_cfa_offset 16
	.cfi_offset 15, -16
	pushq	%r14
	.cfi_def_cfa_offset 24
	.cfi_offset 14, -24
	pushq	%r13
	.cfi_def_cfa_offset 32
	.cfi_offset 13, -32
	pushq	%r12
	.cfi_def_cfa_offset 40
	.cfi_offset 12, -40
	movl	%edx, %r12d
	pushq	%rbp
	.cfi_def_cfa_offset 48
	.cfi_offset 6, -48
	movq	%rdi, %rbp
	movl	$32, %edi
	pushq	%rbx
	.cfi_def_cfa_offset 56
	.cfi_offset 3, -56
	movl	%ecx, %ebx
	subq	$56, %rsp
	.cfi_def_cfa_offset 112
	movzbl	(%rsi), %r15d
	movq	8(%rsi), %r14
	movq	_ZNSt17_Function_handlerIFvRN8opendnp314IUpdateHandlerEEZN8asiodnp313UpdateBuilder7AddMeasINS0_18BinaryOutputStatusEEERS5_RKT_tNS0_9EventModeEEUlS2_E_E10_M_managerERSt9_Any_dataRKSF_St18_Manager_operation@GOTPCREL(%rip), %xmm0
	movzbl	16(%rsi), %r13d
	movhps	_ZNSt17_Function_handlerIFvRN8opendnp314IUpdateHandlerEEZN8asiodnp313UpdateBuilder7AddMeasINS0_18BinaryOutputStatusEEERS5_RKT_tNS0_9EventModeEEUlS2_E_E9_M_invokeERKSt9_Any_dataS2_@GOTPCREL(%rip), %xmm0
	movq	$0, 24(%rsp)
	movaps	%xmm0, (%rsp)
.LEHB23:
	call	_Znwm@PLT
.LEHE23:
	movdqa	(%rsp), %xmm0
	leaq	16(%rsp), %rsi
	movq	%rbp, %rdi
	movb	%r15b, (%rax)
	movq	%r14, 8(%rax)
	movb	%r13b, 16(%rax)
	movw	%r12w, 24(%rax)
	movb	%bl, 26(%rax)
	movq	%rax, 16(%rsp)
	movaps	%xmm0, 32(%rsp)
.LEHB24:
	call	_ZN8asiodnp313UpdateBuilder3AddERKSt8functionIFvRN8opendnp314IUpdateHandlerEEE@PLT
.LEHE24:
	movq	32(%rsp), %rax
	testq	%rax, %rax
	je	.L298
	movl	$3, %edx
	leaq	16(%rsp), %rsi
	leaq	16(%rsp), %rdi
	call	*%rax
.L298:
	addq	$56, %rsp
	.cfi_remember_state
	.cfi_def_cfa_offset 56
	movq	%rbp, %rax
	popq	%rbx
	.cfi_def_cfa_offset 48
	popq	%rbp
	.cfi_def_cfa_offset 40
	popq	%r12
	.cfi_def_cfa_offset 32
	popq	%r13
	.cfi_def_cfa_offset 24
	popq	%r14
	.cfi_def_cfa_offset 16
	popq	%r15
	.cfi_def_cfa_offset 8
	ret
.L295:
	.cfi_restore_state
	movq	%rax, %rbp
	jmp	.L293
	.section	.gcc_except_table
.LLSDA2056:
	.byte	0xff
	.byte	0xff
	.byte	0x1
	.uleb128 .LLSDACSE2056-.LLSDACSB2056
.LLSDACSB2056:
	.uleb128 .LEHB23-.LFB2056
	.uleb128 .LEHE23-.LEHB23
	.uleb128 0
	.uleb128 0
	.uleb128 .LEHB24-.LFB2056
	.uleb128 .LEHE24-.LEHB24
	.uleb128 .L295-.LFB2056
	.uleb128 0
.LLSDACSE2056:
	.text
	.cfi_endproc
	.section	.text.unlikely
	.cfi_startproc
	.cfi_personality 0x9b,DW.ref.__gxx_personality_v0
	.cfi_lsda 0x1b,.LLSDAC2056
	.type	_ZN8asiodnp313UpdateBuilder6UpdateERKN8opendnp318BinaryOutputStatusEtNS1_9EventModeE.cold, @function
_ZN8asiodnp313UpdateBuilder6UpdateERKN8opendnp318BinaryOutputStatusEtNS1_9EventModeE.cold:
.LFSB2056:
.L293:
	.cfi_def_cfa_offset 112
	.cfi_offset 3, -56
	.cfi_offset 6, -48
	.cfi_offset 12, -40
	.cfi_offset 13, -32
	.cfi_offset 14, -24
	.cfi_offset 15, -16
	movq	32(%rsp), %rax
	testq	%rax, %rax
	je	.L294
	movl	$3, %edx
	leaq	16(%rsp), %rsi
	leaq	16(%rsp), %rdi
	call	*%rax
.L294:
	movq	%rbp, %rdi
.LEHB25:
	call	_Unwind_Resume@PLT
.LEHE25:
	.cfi_endproc
.LFE2056:
	.section	.gcc_except_table
.LLSDAC2056:
	.byte	0xff
	.byte	0xff
	.byte	0x1
	.uleb128 .LLSDACSEC2056-.LLSDACSBC2056
.LLSDACSBC2056:
	.uleb128 .LEHB25-.LCOLDB11
	.uleb128 .LEHE25-.LEHB25
	.uleb128 0
	.uleb128 0
.LLSDACSEC2056:
	.section	.text.unlikely
	.text
	.size	_ZN8asiodnp313UpdateBuilder6UpdateERKN8opendnp318BinaryOutputStatusEtNS1_9EventModeE, .-_ZN8asiodnp313UpdateBuilder6UpdateERKN8opendnp318BinaryOutputStatusEtNS1_9EventModeE
	.section	.text.unlikely
	.size	_ZN8asiodnp313UpdateBuilder6UpdateERKN8opendnp318BinaryOutputStatusEtNS1_9EventModeE.cold, .-_ZN8asiodnp313UpdateBuilder6UpdateERKN8opendnp318BinaryOutputStatusEtNS1_9EventModeE.cold
.LCOLDE11:
	.text
.LHOTE11:
	.section	.text.unlikely
	.align 2
.LCOLDB12:
	.text
.LHOTB12:
	.align 2
	.p2align 4
	.globl	_ZN8asiodnp313UpdateBuilder6UpdateERKN8opendnp318AnalogOutputStatusEtNS1_9EventModeE
	.type	_ZN8asiodnp313UpdateBuilder6UpdateERKN8opendnp318AnalogOutputStatusEtNS1_9EventModeE, @function
_ZN8asiodnp313UpdateBuilder6UpdateERKN8opendnp318AnalogOutputStatusEtNS1_9EventModeE:
.LFB2057:
	.cfi_startproc
	.cfi_personality 0x9b,DW.ref.__gxx_personality_v0
	.cfi_lsda 0x1b,.LLSDA2057
	pushq	%r14
	.cfi_def_cfa_offset 16
	.cfi_offset 14, -16
	pushq	%r13
	.cfi_def_cfa_offset 24
	.cfi_offset 13, -24
	pushq	%r12
	.cfi_def_cfa_offset 32
	.cfi_offset 12, -32
	movl	%edx, %r12d
	pushq	%rbp
	.cfi_def_cfa_offset 40
	.cfi_offset 6, -40
	movq	%rdi, %rbp
	movl	$32, %edi
	pushq	%rbx
	.cfi_def_cfa_offset 48
	.cfi_offset 3, -48
	movl	%ecx, %ebx
	subq	$64, %rsp
	.cfi_def_cfa_offset 112
	movsd	16(%rsi), %xmm1
	movzbl	(%rsi), %r14d
	movq	_ZNSt17_Function_handlerIFvRN8opendnp314IUpdateHandlerEEZN8asiodnp313UpdateBuilder7AddMeasINS0_18AnalogOutputStatusEEERS5_RKT_tNS0_9EventModeEEUlS2_E_E10_M_managerERSt9_Any_dataRKSF_St18_Manager_operation@GOTPCREL(%rip), %xmm0
	movq	8(%rsi), %r13
	movhps	_ZNSt17_Function_handlerIFvRN8opendnp314IUpdateHandlerEEZN8asiodnp313UpdateBuilder7AddMeasINS0_18AnalogOutputStatusEEERS5_RKT_tNS0_9EventModeEEUlS2_E_E9_M_invokeERKSt9_Any_dataS2_@GOTPCREL(%rip), %xmm0
	movq	$0, 40(%rsp)
	movaps	%xmm0, 16(%rsp)
	movsd	%xmm1, 8(%rsp)
.LEHB26:
	call	_Znwm@PLT
.LEHE26:
	movsd	8(%rsp), %xmm1
	leaq	32(%rsp), %rsi
	movq	%rbp, %rdi
	movb	%r14b, (%rax)
	movdqa	16(%rsp), %xmm0
	movq	%r13, 8(%rax)
	movw	%r12w, 24(%rax)
	movb	%bl, 26(%rax)
	movsd	%xmm1, 16(%rax)
	movq	%rax, 32(%rsp)
	movaps	%xmm0, 48(%rsp)
.LEHB27:
	call	_ZN8asiodnp313UpdateBuilder3AddERKSt8functionIFvRN8opendnp314IUpdateHandlerEEE@PLT
.LEHE27:
	movq	48(%rsp), %rax
	testq	%rax, %rax
	je	.L311
	movl	$3, %edx
	leaq	32(%rsp), %rsi
	leaq	32(%rsp), %rdi
	call	*%rax
.L311:
	addq	$64, %rsp
	.cfi_remember_state
	.cfi_def_cfa_offset 48
	movq	%rbp, %rax
	popq	%rbx
	.cfi_def_cfa_offset 40
	popq	%rbp
	.cfi_def_cfa_offset 32
	popq	%r12
	.cfi_def_cfa_offset 24
	popq	%r13
	.cfi_def_cfa_offset 16
	popq	%r14
	.cfi_def_cfa_offset 8
	ret
.L308:
	.cfi_restore_state
	movq	%rax, %rbp
	jmp	.L306
	.section	.gcc_except_table
.LLSDA2057:
	.byte	0xff
	.byte	0xff
	.byte	0x1
	.uleb128 .LLSDACSE2057-.LLSDACSB2057
.LLSDACSB2057:
	.uleb128 .LEHB26-.LFB2057
	.uleb128 .LEHE26-.LEHB26
	.uleb128 0
	.uleb128 0
	.uleb128 .LEHB27-.LFB2057
	.uleb128 .LEHE27-.LEHB27
	.uleb128 .L308-.LFB2057
	.uleb128 0
.LLSDACSE2057:
	.text
	.cfi_endproc
	.section	.text.unlikely
	.cfi_startproc
	.cfi_personality 0x9b,DW.ref.__gxx_personality_v0
	.cfi_lsda 0x1b,.LLSDAC2057
	.type	_ZN8asiodnp313UpdateBuilder6UpdateERKN8opendnp318AnalogOutputStatusEtNS1_9EventModeE.cold, @function
_ZN8asiodnp313UpdateBuilder6UpdateERKN8opendnp318AnalogOutputStatusEtNS1_9EventModeE.cold:
.LFSB2057:
.L306:
	.cfi_def_cfa_offset 112
	.cfi_offset 3, -48
	.cfi_offset 6, -40
	.cfi_offset 12, -32
	.cfi_offset 13, -24
	.cfi_offset 14, -16
	movq	48(%rsp), %rax
	testq	%rax, %rax
	je	.L307
	movl	$3, %edx
	leaq	32(%rsp), %rsi
	leaq	32(%rsp), %rdi
	call	*%rax
.L307:
	movq	%rbp, %rdi
.LEHB28:
	call	_Unwind_Resume@PLT
.LEHE28:
	.cfi_endproc
.LFE2057:
	.section	.gcc_except_table
.LLSDAC2057:
	.byte	0xff
	.byte	0xff
	.byte	0x1
	.uleb128 .LLSDACSEC2057-.LLSDACSBC2057
.LLSDACSBC2057:
	.uleb128 .LEHB28-.LCOLDB12
	.uleb128 .LEHE28-.LEHB28
	.uleb128 0
	.uleb128 0
.LLSDACSEC2057:
	.section	.text.unlikely
	.text
	.size	_ZN8asiodnp313UpdateBuilder6UpdateERKN8opendnp318AnalogOutputStatusEtNS1_9EventModeE, .-_ZN8asiodnp313UpdateBuilder6UpdateERKN8opendnp318AnalogOutputStatusEtNS1_9EventModeE
	.section	.text.unlikely
	.size	_ZN8asiodnp313UpdateBuilder6UpdateERKN8opendnp318AnalogOutputStatusEtNS1_9EventModeE.cold, .-_ZN8asiodnp313UpdateBuilder6UpdateERKN8opendnp318AnalogOutputStatusEtNS1_9EventModeE.cold
.LCOLDE12:
	.text
.LHOTE12:
	.section	.text.unlikely
	.align 2
.LCOLDB14:
	.text
.LHOTB14:
	.align 2
	.p2align 4
	.globl	_ZN8asiodnp313UpdateBuilder6UpdateERKN8opendnp315TimeAndIntervalEt
	.type	_ZN8asiodnp313UpdateBuilder6UpdateERKN8opendnp315TimeAndIntervalEt, @function
_ZN8asiodnp313UpdateBuilder6UpdateERKN8opendnp315TimeAndIntervalEt:
.LFB2058:
	.cfi_startproc
	.cfi_personality 0x9b,DW.ref.__gxx_personality_v0
	.cfi_lsda 0x1b,.LLSDA2058
	pushq	%r14
	.cfi_def_cfa_offset 16
	.cfi_offset 14, -16
	pushq	%r13
	.cfi_def_cfa_offset 24
	.cfi_offset 13, -24
	pushq	%r12
	.cfi_def_cfa_offset 32
	.cfi_offset 12, -32
	pushq	%rbp
	.cfi_def_cfa_offset 40
	.cfi_offset 6, -40
	movq	%rdi, %rbp
	movl	$24, %edi
	pushq	%rbx
	.cfi_def_cfa_offset 48
	.cfi_offset 3, -48
	movl	%edx, %ebx
	subq	$32, %rsp
	.cfi_def_cfa_offset 80
	movq	(%rsi), %r14
	movl	8(%rsi), %r13d
	movq	$0, 8(%rsp)
	movzbl	12(%rsi), %r12d
.LEHB29:
	call	_Znwm@PLT
.LEHE29:
	movq	%rsp, %rsi
	movq	%rbp, %rdi
	movq	.LC13(%rip), %xmm0
	movq	%r14, (%rax)
	movl	%r13d, 8(%rax)
	movb	%r12b, 12(%rax)
	movw	%bx, 16(%rax)
	movq	%rax, (%rsp)
	leaq	_ZNSt17_Function_handlerIFvRN8opendnp314IUpdateHandlerEEZN8asiodnp313UpdateBuilder6UpdateERKNS0_15TimeAndIntervalEtEUlS2_E_E9_M_invokeERKSt9_Any_dataS2_(%rip), %rax
	movq	%rax, %xmm1
	punpcklqdq	%xmm1, %xmm0
	movaps	%xmm0, 16(%rsp)
.LEHB30:
	call	_ZN8asiodnp313UpdateBuilder3AddERKSt8functionIFvRN8opendnp314IUpdateHandlerEEE@PLT
.LEHE30:
	movq	16(%rsp), %rax
	testq	%rax, %rax
	je	.L324
	movl	$3, %edx
	movq	%rsp, %rsi
	movq	%rsp, %rdi
	call	*%rax
.L324:
	addq	$32, %rsp
	.cfi_remember_state
	.cfi_def_cfa_offset 48
	movq	%rbp, %rax
	popq	%rbx
	.cfi_def_cfa_offset 40
	popq	%rbp
	.cfi_def_cfa_offset 32
	popq	%r12
	.cfi_def_cfa_offset 24
	popq	%r13
	.cfi_def_cfa_offset 16
	popq	%r14
	.cfi_def_cfa_offset 8
	ret
.L321:
	.cfi_restore_state
	movq	%rax, %rbp
	jmp	.L319
	.section	.gcc_except_table
.LLSDA2058:
	.byte	0xff
	.byte	0xff
	.byte	0x1
	.uleb128 .LLSDACSE2058-.LLSDACSB2058
.LLSDACSB2058:
	.uleb128 .LEHB29-.LFB2058
	.uleb128 .LEHE29-.LEHB29
	.uleb128 0
	.uleb128 0
	.uleb128 .LEHB30-.LFB2058
	.uleb128 .LEHE30-.LEHB30
	.uleb128 .L321-.LFB2058
	.uleb128 0
.LLSDACSE2058:
	.text
	.cfi_endproc
	.section	.text.unlikely
	.cfi_startproc
	.cfi_personality 0x9b,DW.ref.__gxx_personality_v0
	.cfi_lsda 0x1b,.LLSDAC2058
	.type	_ZN8asiodnp313UpdateBuilder6UpdateERKN8opendnp315TimeAndIntervalEt.cold, @function
_ZN8asiodnp313UpdateBuilder6UpdateERKN8opendnp315TimeAndIntervalEt.cold:
.LFSB2058:
.L319:
	.cfi_def_cfa_offset 80
	.cfi_offset 3, -48
	.cfi_offset 6, -40
	.cfi_offset 12, -32
	.cfi_offset 13, -24
	.cfi_offset 14, -16
	movq	16(%rsp), %rax
	testq	%rax, %rax
	je	.L320
	movl	$3, %edx
	movq	%rsp, %rsi
	movq	%rsp, %rdi
	call	*%rax
.L320:
	movq	%rbp, %rdi
.LEHB31:
	call	_Unwind_Resume@PLT
.LEHE31:
	.cfi_endproc
.LFE2058:
	.section	.gcc_except_table
.LLSDAC2058:
	.byte	0xff
	.byte	0xff
	.byte	0x1
	.uleb128 .LLSDACSEC2058-.LLSDACSBC2058
.LLSDACSBC2058:
	.uleb128 .LEHB31-.LCOLDB14
	.uleb128 .LEHE31-.LEHB31
	.uleb128 0
	.uleb128 0
.LLSDACSEC2058:
	.section	.text.unlikely
	.text
	.size	_ZN8asiodnp313UpdateBuilder6UpdateERKN8opendnp315TimeAndIntervalEt, .-_ZN8asiodnp313UpdateBuilder6UpdateERKN8opendnp315TimeAndIntervalEt
	.section	.text.unlikely
	.size	_ZN8asiodnp313UpdateBuilder6UpdateERKN8opendnp315TimeAndIntervalEt.cold, .-_ZN8asiodnp313UpdateBuilder6UpdateERKN8opendnp315TimeAndIntervalEt.cold
.LCOLDE14:
	.text
.LHOTE14:
	.section	.text.unlikely
	.align 2
.LCOLDB16:
	.text
.LHOTB16:
	.align 2
	.p2align 4
	.globl	_ZN8asiodnp313UpdateBuilder6ModifyEN8opendnp39FlagsTypeEtth
	.type	_ZN8asiodnp313UpdateBuilder6ModifyEN8opendnp39FlagsTypeEtth, @function
_ZN8asiodnp313UpdateBuilder6ModifyEN8opendnp39FlagsTypeEtth:
.LFB2065:
	.cfi_startproc
	.cfi_personality 0x9b,DW.ref.__gxx_personality_v0
	.cfi_lsda 0x1b,.LLSDA2065
	pushq	%rbp
	.cfi_def_cfa_offset 16
	.cfi_offset 6, -16
	pxor	%xmm0, %xmm0
	leaq	_ZNSt17_Function_handlerIFvRN8opendnp314IUpdateHandlerEEZN8asiodnp313UpdateBuilder6ModifyENS0_9FlagsTypeEtthEUlS2_E_E9_M_invokeERKSt9_Any_dataS2_(%rip), %rax
	movq	%rdi, %rbp
	pushq	%rbx
	.cfi_def_cfa_offset 24
	.cfi_offset 3, -24
	movq	%rax, %xmm1
	subq	$40, %rsp
	.cfi_def_cfa_offset 64
	movaps	%xmm0, (%rsp)
	movq	.LC15(%rip), %xmm0
	movb	%sil, (%rsp)
	movq	%rsp, %rsi
	punpcklqdq	%xmm1, %xmm0
	movw	%dx, 2(%rsp)
	movw	%cx, 4(%rsp)
	movb	%r8b, 6(%rsp)
	movaps	%xmm0, 16(%rsp)
.LEHB32:
	call	_ZN8asiodnp313UpdateBuilder3AddERKSt8functionIFvRN8opendnp314IUpdateHandlerEEE@PLT
.LEHE32:
	movq	16(%rsp), %rax
	testq	%rax, %rax
	je	.L337
	movl	$3, %edx
	movq	%rsp, %rsi
	movq	%rsp, %rdi
	call	*%rax
.L337:
	addq	$40, %rsp
	.cfi_remember_state
	.cfi_def_cfa_offset 24
	movq	%rbp, %rax
	popq	%rbx
	.cfi_def_cfa_offset 16
	popq	%rbp
	.cfi_def_cfa_offset 8
	ret
.L334:
	.cfi_restore_state
	movq	%rax, %rbp
	jmp	.L332
	.section	.gcc_except_table
.LLSDA2065:
	.byte	0xff
	.byte	0xff
	.byte	0x1
	.uleb128 .LLSDACSE2065-.LLSDACSB2065
.LLSDACSB2065:
	.uleb128 .LEHB32-.LFB2065
	.uleb128 .LEHE32-.LEHB32
	.uleb128 .L334-.LFB2065
	.uleb128 0
.LLSDACSE2065:
	.text
	.cfi_endproc
	.section	.text.unlikely
	.cfi_startproc
	.cfi_personality 0x9b,DW.ref.__gxx_personality_v0
	.cfi_lsda 0x1b,.LLSDAC2065
	.type	_ZN8asiodnp313UpdateBuilder6ModifyEN8opendnp39FlagsTypeEtth.cold, @function
_ZN8asiodnp313UpdateBuilder6ModifyEN8opendnp39FlagsTypeEtth.cold:
.LFSB2065:
.L332:
	.cfi_def_cfa_offset 64
	.cfi_offset 3, -24
	.cfi_offset 6, -16
	movq	16(%rsp), %rax
	testq	%rax, %rax
	je	.L333
	movl	$3, %edx
	movq	%rsp, %rsi
	movq	%rsp, %rdi
	call	*%rax
.L333:
	movq	%rbp, %rdi
.LEHB33:
	call	_Unwind_Resume@PLT
.LEHE33:
	.cfi_endproc
.LFE2065:
	.section	.gcc_except_table
.LLSDAC2065:
	.byte	0xff
	.byte	0xff
	.byte	0x1
	.uleb128 .LLSDACSEC2065-.LLSDACSBC2065
.LLSDACSBC2065:
	.uleb128 .LEHB33-.LCOLDB16
	.uleb128 .LEHE33-.LEHB33
	.uleb128 0
	.uleb128 0
.LLSDACSEC2065:
	.section	.text.unlikely
	.text
	.size	_ZN8asiodnp313UpdateBuilder6ModifyEN8opendnp39FlagsTypeEtth, .-_ZN8asiodnp313UpdateBuilder6ModifyEN8opendnp39FlagsTypeEtth
	.section	.text.unlikely
	.size	_ZN8asiodnp313UpdateBuilder6ModifyEN8opendnp39FlagsTypeEtth.cold, .-_ZN8asiodnp313UpdateBuilder6ModifyEN8opendnp39FlagsTypeEtth.cold
.LCOLDE16:
	.text
.LHOTE16:
	.weak	_ZTSSt11_Mutex_baseILN9__gnu_cxx12_Lock_policyE2EE
	.section	.rodata._ZTSSt11_Mutex_baseILN9__gnu_cxx12_Lock_policyE2EE,"aG",@progbits,_ZTSSt11_Mutex_baseILN9__gnu_cxx12_Lock_policyE2EE,comdat
	.align 32
	.type	_ZTSSt11_Mutex_baseILN9__gnu_cxx12_Lock_policyE2EE, @object
	.size	_ZTSSt11_Mutex_baseILN9__gnu_cxx12_Lock_policyE2EE, 47
_ZTSSt11_Mutex_baseILN9__gnu_cxx12_Lock_policyE2EE:
	.string	"St11_Mutex_baseILN9__gnu_cxx12_Lock_policyE2EE"
	.weak	_ZTISt11_Mutex_baseILN9__gnu_cxx12_Lock_policyE2EE
	.section	.data.rel.ro._ZTISt11_Mutex_baseILN9__gnu_cxx12_Lock_policyE2EE,"awG",@progbits,_ZTISt11_Mutex_baseILN9__gnu_cxx12_Lock_policyE2EE,comdat
	.align 8
	.type	_ZTISt11_Mutex_baseILN9__gnu_cxx12_Lock_policyE2EE, @object
	.size	_ZTISt11_Mutex_baseILN9__gnu_cxx12_Lock_policyE2EE, 16
_ZTISt11_Mutex_baseILN9__gnu_cxx12_Lock_policyE2EE:
	.quad	_ZTVN10__cxxabiv117__class_type_infoE+16
	.quad	_ZTSSt11_Mutex_baseILN9__gnu_cxx12_Lock_policyE2EE
	.weak	_ZTSSt19_Sp_make_shared_tag
	.section	.rodata._ZTSSt19_Sp_make_shared_tag,"aG",@progbits,_ZTSSt19_Sp_make_shared_tag,comdat
	.align 16
	.type	_ZTSSt19_Sp_make_shared_tag, @object
	.size	_ZTSSt19_Sp_make_shared_tag, 24
_ZTSSt19_Sp_make_shared_tag:
	.string	"St19_Sp_make_shared_tag"
	.weak	_ZTSSt16_Sp_counted_baseILN9__gnu_cxx12_Lock_policyE2EE
	.section	.rodata._ZTSSt16_Sp_counted_baseILN9__gnu_cxx12_Lock_policyE2EE,"aG",@progbits,_ZTSSt16_Sp_counted_baseILN9__gnu_cxx12_Lock_policyE2EE,comdat
	.align 32
	.type	_ZTSSt16_Sp_counted_baseILN9__gnu_cxx12_Lock_policyE2EE, @object
	.size	_ZTSSt16_Sp_counted_baseILN9__gnu_cxx12_Lock_policyE2EE, 52
_ZTSSt16_Sp_counted_baseILN9__gnu_cxx12_Lock_policyE2EE:
	.string	"St16_Sp_counted_baseILN9__gnu_cxx12_Lock_policyE2EE"
	.weak	_ZTISt16_Sp_counted_baseILN9__gnu_cxx12_Lock_policyE2EE
	.section	.data.rel.ro._ZTISt16_Sp_counted_baseILN9__gnu_cxx12_Lock_policyE2EE,"awG",@progbits,_ZTISt16_Sp_counted_baseILN9__gnu_cxx12_Lock_policyE2EE,comdat
	.align 8
	.type	_ZTISt16_Sp_counted_baseILN9__gnu_cxx12_Lock_policyE2EE, @object
	.size	_ZTISt16_Sp_counted_baseILN9__gnu_cxx12_Lock_policyE2EE, 24
_ZTISt16_Sp_counted_baseILN9__gnu_cxx12_Lock_policyE2EE:
	.quad	_ZTVN10__cxxabiv120__si_class_type_infoE+16
	.quad	_ZTSSt16_Sp_counted_baseILN9__gnu_cxx12_Lock_policyE2EE
	.quad	_ZTISt11_Mutex_baseILN9__gnu_cxx12_Lock_policyE2EE
	.section	.data.rel.ro,"aw"
	.align 8
	.type	_ZTIZN8asiodnp313UpdateBuilder6UpdateERKN8opendnp315TimeAndIntervalEtEUlRNS1_14IUpdateHandlerEE_, @object
	.size	_ZTIZN8asiodnp313UpdateBuilder6UpdateERKN8opendnp315TimeAndIntervalEtEUlRNS1_14IUpdateHandlerEE_, 16
_ZTIZN8asiodnp313UpdateBuilder6UpdateERKN8opendnp315TimeAndIntervalEtEUlRNS1_14IUpdateHandlerEE_:
	.quad	_ZTVN10__cxxabiv117__class_type_infoE+16
	.quad	_ZTSZN8asiodnp313UpdateBuilder6UpdateERKN8opendnp315TimeAndIntervalEtEUlRNS1_14IUpdateHandlerEE_
	.section	.rodata
	.align 32
	.type	_ZTSZN8asiodnp313UpdateBuilder6UpdateERKN8opendnp315TimeAndIntervalEtEUlRNS1_14IUpdateHandlerEE_, @object
	.size	_ZTSZN8asiodnp313UpdateBuilder6UpdateERKN8opendnp315TimeAndIntervalEtEUlRNS1_14IUpdateHandlerEE_, 94
_ZTSZN8asiodnp313UpdateBuilder6UpdateERKN8opendnp315TimeAndIntervalEtEUlRNS1_14IUpdateHandlerEE_:
	.string	"*ZN8asiodnp313UpdateBuilder6UpdateERKN8opendnp315TimeAndIntervalEtEUlRNS1_14IUpdateHandlerEE_"
	.section	.data.rel.ro
	.align 8
	.type	_ZTIZN8asiodnp313UpdateBuilder6ModifyEN8opendnp39FlagsTypeEtthEUlRNS1_14IUpdateHandlerEE_, @object
	.size	_ZTIZN8asiodnp313UpdateBuilder6ModifyEN8opendnp39FlagsTypeEtthEUlRNS1_14IUpdateHandlerEE_, 16
_ZTIZN8asiodnp313UpdateBuilder6ModifyEN8opendnp39FlagsTypeEtthEUlRNS1_14IUpdateHandlerEE_:
	.quad	_ZTVN10__cxxabiv117__class_type_infoE+16
	.quad	_ZTSZN8asiodnp313UpdateBuilder6ModifyEN8opendnp39FlagsTypeEtthEUlRNS1_14IUpdateHandlerEE_
	.section	.rodata
	.align 32
	.type	_ZTSZN8asiodnp313UpdateBuilder6ModifyEN8opendnp39FlagsTypeEtthEUlRNS1_14IUpdateHandlerEE_, @object
	.size	_ZTSZN8asiodnp313UpdateBuilder6ModifyEN8opendnp39FlagsTypeEtthEUlRNS1_14IUpdateHandlerEE_, 87
_ZTSZN8asiodnp313UpdateBuilder6ModifyEN8opendnp39FlagsTypeEtthEUlRNS1_14IUpdateHandlerEE_:
	.string	"*ZN8asiodnp313UpdateBuilder6ModifyEN8opendnp39FlagsTypeEtthEUlRNS1_14IUpdateHandlerEE_"
	.weak	_ZTSZN8asiodnp313UpdateBuilder7AddMeasIN8opendnp36BinaryEEERS0_RKT_tNS2_9EventModeEEUlRNS2_14IUpdateHandlerEE_
	.section	.rodata._ZTSZN8asiodnp313UpdateBuilder7AddMeasIN8opendnp36BinaryEEERS0_RKT_tNS2_9EventModeEEUlRNS2_14IUpdateHandlerEE_,"aG",@progbits,_ZTSZN8asiodnp313UpdateBuilder7AddMeasIN8opendnp36BinaryEEERS0_RKT_tNS2_9EventModeEEUlRNS2_14IUpdateHandlerEE_,comdat
	.align 32
	.type	_ZTSZN8asiodnp313UpdateBuilder7AddMeasIN8opendnp36BinaryEEERS0_RKT_tNS2_9EventModeEEUlRNS2_14IUpdateHandlerEE_, @object
	.size	_ZTSZN8asiodnp313UpdateBuilder7AddMeasIN8opendnp36BinaryEEERS0_RKT_tNS2_9EventModeEEUlRNS2_14IUpdateHandlerEE_, 107
_ZTSZN8asiodnp313UpdateBuilder7AddMeasIN8opendnp36BinaryEEERS0_RKT_tNS2_9EventModeEEUlRNS2_14IUpdateHandlerEE_:
	.string	"ZN8asiodnp313UpdateBuilder7AddMeasIN8opendnp36BinaryEEERS0_RKT_tNS2_9EventModeEEUlRNS2_14IUpdateHandlerEE_"
	.weak	_ZTIZN8asiodnp313UpdateBuilder7AddMeasIN8opendnp36BinaryEEERS0_RKT_tNS2_9EventModeEEUlRNS2_14IUpdateHandlerEE_
	.section	.data.rel.ro._ZTIZN8asiodnp313UpdateBuilder7AddMeasIN8opendnp36BinaryEEERS0_RKT_tNS2_9EventModeEEUlRNS2_14IUpdateHandlerEE_,"awG",@progbits,_ZTIZN8asiodnp313UpdateBuilder7AddMeasIN8opendnp36BinaryEEERS0_RKT_tNS2_9EventModeEEUlRNS2_14IUpdateHandlerEE_,comdat
	.align 8
	.type	_ZTIZN8asiodnp313UpdateBuilder7AddMeasIN8opendnp36BinaryEEERS0_RKT_tNS2_9EventModeEEUlRNS2_14IUpdateHandlerEE_, @object
	.size	_ZTIZN8asiodnp313UpdateBuilder7AddMeasIN8opendnp36BinaryEEERS0_RKT_tNS2_9EventModeEEUlRNS2_14IUpdateHandlerEE_, 16
_ZTIZN8asiodnp313UpdateBuilder7AddMeasIN8opendnp36BinaryEEERS0_RKT_tNS2_9EventModeEEUlRNS2_14IUpdateHandlerEE_:
	.quad	_ZTVN10__cxxabiv117__class_type_infoE+16
	.quad	_ZTSZN8asiodnp313UpdateBuilder7AddMeasIN8opendnp36BinaryEEERS0_RKT_tNS2_9EventModeEEUlRNS2_14IUpdateHandlerEE_
	.weak	_ZTSZN8asiodnp313UpdateBuilder7AddMeasIN8opendnp315DoubleBitBinaryEEERS0_RKT_tNS2_9EventModeEEUlRNS2_14IUpdateHandlerEE_
	.section	.rodata._ZTSZN8asiodnp313UpdateBuilder7AddMeasIN8opendnp315DoubleBitBinaryEEERS0_RKT_tNS2_9EventModeEEUlRNS2_14IUpdateHandlerEE_,"aG",@progbits,_ZTSZN8asiodnp313UpdateBuilder7AddMeasIN8opendnp315DoubleBitBinaryEEERS0_RKT_tNS2_9EventModeEEUlRNS2_14IUpdateHandlerEE_,comdat
	.align 32
	.type	_ZTSZN8asiodnp313UpdateBuilder7AddMeasIN8opendnp315DoubleBitBinaryEEERS0_RKT_tNS2_9EventModeEEUlRNS2_14IUpdateHandlerEE_, @object
	.size	_ZTSZN8asiodnp313UpdateBuilder7AddMeasIN8opendnp315DoubleBitBinaryEEERS0_RKT_tNS2_9EventModeEEUlRNS2_14IUpdateHandlerEE_, 117
_ZTSZN8asiodnp313UpdateBuilder7AddMeasIN8opendnp315DoubleBitBinaryEEERS0_RKT_tNS2_9EventModeEEUlRNS2_14IUpdateHandlerEE_:
	.string	"ZN8asiodnp313UpdateBuilder7AddMeasIN8opendnp315DoubleBitBinaryEEERS0_RKT_tNS2_9EventModeEEUlRNS2_14IUpdateHandlerEE_"
	.weak	_ZTIZN8asiodnp313UpdateBuilder7AddMeasIN8opendnp315DoubleBitBinaryEEERS0_RKT_tNS2_9EventModeEEUlRNS2_14IUpdateHandlerEE_
	.section	.data.rel.ro._ZTIZN8asiodnp313UpdateBuilder7AddMeasIN8opendnp315DoubleBitBinaryEEERS0_RKT_tNS2_9EventModeEEUlRNS2_14IUpdateHandlerEE_,"awG",@progbits,_ZTIZN8asiodnp313UpdateBuilder7AddMeasIN8opendnp315DoubleBitBinaryEEERS0_RKT_tNS2_9EventModeEEUlRNS2_14IUpdateHandlerEE_,comdat
	.align 8
	.type	_ZTIZN8asiodnp313UpdateBuilder7AddMeasIN8opendnp315DoubleBitBinaryEEERS0_RKT_tNS2_9EventModeEEUlRNS2_14IUpdateHandlerEE_, @object
	.size	_ZTIZN8asiodnp313UpdateBuilder7AddMeasIN8opendnp315DoubleBitBinaryEEERS0_RKT_tNS2_9EventModeEEUlRNS2_14IUpdateHandlerEE_, 16
_ZTIZN8asiodnp313UpdateBuilder7AddMeasIN8opendnp315DoubleBitBinaryEEERS0_RKT_tNS2_9EventModeEEUlRNS2_14IUpdateHandlerEE_:
	.quad	_ZTVN10__cxxabiv117__class_type_infoE+16
	.quad	_ZTSZN8asiodnp313UpdateBuilder7AddMeasIN8opendnp315DoubleBitBinaryEEERS0_RKT_tNS2_9EventModeEEUlRNS2_14IUpdateHandlerEE_
	.weak	_ZTSZN8asiodnp313UpdateBuilder7AddMeasIN8opendnp36AnalogEEERS0_RKT_tNS2_9EventModeEEUlRNS2_14IUpdateHandlerEE_
	.section	.rodata._ZTSZN8asiodnp313UpdateBuilder7AddMeasIN8opendnp36AnalogEEERS0_RKT_tNS2_9EventModeEEUlRNS2_14IUpdateHandlerEE_,"aG",@progbits,_ZTSZN8asiodnp313UpdateBuilder7AddMeasIN8opendnp36AnalogEEERS0_RKT_tNS2_9EventModeEEUlRNS2_14IUpdateHandlerEE_,comdat
	.align 32
	.type	_ZTSZN8asiodnp313UpdateBuilder7AddMeasIN8opendnp36AnalogEEERS0_RKT_tNS2_9EventModeEEUlRNS2_14IUpdateHandlerEE_, @object
	.size	_ZTSZN8asiodnp313UpdateBuilder7AddMeasIN8opendnp36AnalogEEERS0_RKT_tNS2_9EventModeEEUlRNS2_14IUpdateHandlerEE_, 107
_ZTSZN8asiodnp313UpdateBuilder7AddMeasIN8opendnp36AnalogEEERS0_RKT_tNS2_9EventModeEEUlRNS2_14IUpdateHandlerEE_:
	.string	"ZN8asiodnp313UpdateBuilder7AddMeasIN8opendnp36AnalogEEERS0_RKT_tNS2_9EventModeEEUlRNS2_14IUpdateHandlerEE_"
	.weak	_ZTIZN8asiodnp313UpdateBuilder7AddMeasIN8opendnp36AnalogEEERS0_RKT_tNS2_9EventModeEEUlRNS2_14IUpdateHandlerEE_
	.section	.data.rel.ro._ZTIZN8asiodnp313UpdateBuilder7AddMeasIN8opendnp36AnalogEEERS0_RKT_tNS2_9EventModeEEUlRNS2_14IUpdateHandlerEE_,"awG",@progbits,_ZTIZN8asiodnp313UpdateBuilder7AddMeasIN8opendnp36AnalogEEERS0_RKT_tNS2_9EventModeEEUlRNS2_14IUpdateHandlerEE_,comdat
	.align 8
	.type	_ZTIZN8asiodnp313UpdateBuilder7AddMeasIN8opendnp36AnalogEEERS0_RKT_tNS2_9EventModeEEUlRNS2_14IUpdateHandlerEE_, @object
	.size	_ZTIZN8asiodnp313UpdateBuilder7AddMeasIN8opendnp36AnalogEEERS0_RKT_tNS2_9EventModeEEUlRNS2_14IUpdateHandlerEE_, 16
_ZTIZN8asiodnp313UpdateBuilder7AddMeasIN8opendnp36AnalogEEERS0_RKT_tNS2_9EventModeEEUlRNS2_14IUpdateHandlerEE_:
	.quad	_ZTVN10__cxxabiv117__class_type_infoE+16
	.quad	_ZTSZN8asiodnp313UpdateBuilder7AddMeasIN8opendnp36AnalogEEERS0_RKT_tNS2_9EventModeEEUlRNS2_14IUpdateHandlerEE_
	.weak	_ZTSZN8asiodnp313UpdateBuilder7AddMeasIN8opendnp37CounterEEERS0_RKT_tNS2_9EventModeEEUlRNS2_14IUpdateHandlerEE_
	.section	.rodata._ZTSZN8asiodnp313UpdateBuilder7AddMeasIN8opendnp37CounterEEERS0_RKT_tNS2_9EventModeEEUlRNS2_14IUpdateHandlerEE_,"aG",@progbits,_ZTSZN8asiodnp313UpdateBuilder7AddMeasIN8opendnp37CounterEEERS0_RKT_tNS2_9EventModeEEUlRNS2_14IUpdateHandlerEE_,comdat
	.align 32
	.type	_ZTSZN8asiodnp313UpdateBuilder7AddMeasIN8opendnp37CounterEEERS0_RKT_tNS2_9EventModeEEUlRNS2_14IUpdateHandlerEE_, @object
	.size	_ZTSZN8asiodnp313UpdateBuilder7AddMeasIN8opendnp37CounterEEERS0_RKT_tNS2_9EventModeEEUlRNS2_14IUpdateHandlerEE_, 108
_ZTSZN8asiodnp313UpdateBuilder7AddMeasIN8opendnp37CounterEEERS0_RKT_tNS2_9EventModeEEUlRNS2_14IUpdateHandlerEE_:
	.string	"ZN8asiodnp313UpdateBuilder7AddMeasIN8opendnp37CounterEEERS0_RKT_tNS2_9EventModeEEUlRNS2_14IUpdateHandlerEE_"
	.weak	_ZTIZN8asiodnp313UpdateBuilder7AddMeasIN8opendnp37CounterEEERS0_RKT_tNS2_9EventModeEEUlRNS2_14IUpdateHandlerEE_
	.section	.data.rel.ro._ZTIZN8asiodnp313UpdateBuilder7AddMeasIN8opendnp37CounterEEERS0_RKT_tNS2_9EventModeEEUlRNS2_14IUpdateHandlerEE_,"awG",@progbits,_ZTIZN8asiodnp313UpdateBuilder7AddMeasIN8opendnp37CounterEEERS0_RKT_tNS2_9EventModeEEUlRNS2_14IUpdateHandlerEE_,comdat
	.align 8
	.type	_ZTIZN8asiodnp313UpdateBuilder7AddMeasIN8opendnp37CounterEEERS0_RKT_tNS2_9EventModeEEUlRNS2_14IUpdateHandlerEE_, @object
	.size	_ZTIZN8asiodnp313UpdateBuilder7AddMeasIN8opendnp37CounterEEERS0_RKT_tNS2_9EventModeEEUlRNS2_14IUpdateHandlerEE_, 16
_ZTIZN8asiodnp313UpdateBuilder7AddMeasIN8opendnp37CounterEEERS0_RKT_tNS2_9EventModeEEUlRNS2_14IUpdateHandlerEE_:
	.quad	_ZTVN10__cxxabiv117__class_type_infoE+16
	.quad	_ZTSZN8asiodnp313UpdateBuilder7AddMeasIN8opendnp37CounterEEERS0_RKT_tNS2_9EventModeEEUlRNS2_14IUpdateHandlerEE_
	.weak	_ZTSZN8asiodnp313UpdateBuilder7AddMeasIN8opendnp313FrozenCounterEEERS0_RKT_tNS2_9EventModeEEUlRNS2_14IUpdateHandlerEE_
	.section	.rodata._ZTSZN8asiodnp313UpdateBuilder7AddMeasIN8opendnp313FrozenCounterEEERS0_RKT_tNS2_9EventModeEEUlRNS2_14IUpdateHandlerEE_,"aG",@progbits,_ZTSZN8asiodnp313UpdateBuilder7AddMeasIN8opendnp313FrozenCounterEEERS0_RKT_tNS2_9EventModeEEUlRNS2_14IUpdateHandlerEE_,comdat
	.align 32
	.type	_ZTSZN8asiodnp313UpdateBuilder7AddMeasIN8opendnp313FrozenCounterEEERS0_RKT_tNS2_9EventModeEEUlRNS2_14IUpdateHandlerEE_, @object
	.size	_ZTSZN8asiodnp313UpdateBuilder7AddMeasIN8opendnp313FrozenCounterEEERS0_RKT_tNS2_9EventModeEEUlRNS2_14IUpdateHandlerEE_, 115
_ZTSZN8asiodnp313UpdateBuilder7AddMeasIN8opendnp313FrozenCounterEEERS0_RKT_tNS2_9EventModeEEUlRNS2_14IUpdateHandlerEE_:
	.string	"ZN8asiodnp313UpdateBuilder7AddMeasIN8opendnp313FrozenCounterEEERS0_RKT_tNS2_9EventModeEEUlRNS2_14IUpdateHandlerEE_"
	.weak	_ZTIZN8asiodnp313UpdateBuilder7AddMeasIN8opendnp313FrozenCounterEEERS0_RKT_tNS2_9EventModeEEUlRNS2_14IUpdateHandlerEE_
	.section	.data.rel.ro._ZTIZN8asiodnp313UpdateBuilder7AddMeasIN8opendnp313FrozenCounterEEERS0_RKT_tNS2_9EventModeEEUlRNS2_14IUpdateHandlerEE_,"awG",@progbits,_ZTIZN8asiodnp313UpdateBuilder7AddMeasIN8opendnp313FrozenCounterEEERS0_RKT_tNS2_9EventModeEEUlRNS2_14IUpdateHandlerEE_,comdat
	.align 8
	.type	_ZTIZN8asiodnp313UpdateBuilder7AddMeasIN8opendnp313FrozenCounterEEERS0_RKT_tNS2_9EventModeEEUlRNS2_14IUpdateHandlerEE_, @object
	.size	_ZTIZN8asiodnp313UpdateBuilder7AddMeasIN8opendnp313FrozenCounterEEERS0_RKT_tNS2_9EventModeEEUlRNS2_14IUpdateHandlerEE_, 16
_ZTIZN8asiodnp313UpdateBuilder7AddMeasIN8opendnp313FrozenCounterEEERS0_RKT_tNS2_9EventModeEEUlRNS2_14IUpdateHandlerEE_:
	.quad	_ZTVN10__cxxabiv117__class_type_infoE+16
	.quad	_ZTSZN8asiodnp313UpdateBuilder7AddMeasIN8opendnp313FrozenCounterEEERS0_RKT_tNS2_9EventModeEEUlRNS2_14IUpdateHandlerEE_
	.weak	_ZTSZN8asiodnp313UpdateBuilder7AddMeasIN8opendnp318BinaryOutputStatusEEERS0_RKT_tNS2_9EventModeEEUlRNS2_14IUpdateHandlerEE_
	.section	.rodata._ZTSZN8asiodnp313UpdateBuilder7AddMeasIN8opendnp318BinaryOutputStatusEEERS0_RKT_tNS2_9EventModeEEUlRNS2_14IUpdateHandlerEE_,"aG",@progbits,_ZTSZN8asiodnp313UpdateBuilder7AddMeasIN8opendnp318BinaryOutputStatusEEERS0_RKT_tNS2_9EventModeEEUlRNS2_14IUpdateHandlerEE_,comdat
	.align 32
	.type	_ZTSZN8asiodnp313UpdateBuilder7AddMeasIN8opendnp318BinaryOutputStatusEEERS0_RKT_tNS2_9EventModeEEUlRNS2_14IUpdateHandlerEE_, @object
	.size	_ZTSZN8asiodnp313UpdateBuilder7AddMeasIN8opendnp318BinaryOutputStatusEEERS0_RKT_tNS2_9EventModeEEUlRNS2_14IUpdateHandlerEE_, 120
_ZTSZN8asiodnp313UpdateBuilder7AddMeasIN8opendnp318BinaryOutputStatusEEERS0_RKT_tNS2_9EventModeEEUlRNS2_14IUpdateHandlerEE_:
	.string	"ZN8asiodnp313UpdateBuilder7AddMeasIN8opendnp318BinaryOutputStatusEEERS0_RKT_tNS2_9EventModeEEUlRNS2_14IUpdateHandlerEE_"
	.weak	_ZTIZN8asiodnp313UpdateBuilder7AddMeasIN8opendnp318BinaryOutputStatusEEERS0_RKT_tNS2_9EventModeEEUlRNS2_14IUpdateHandlerEE_
	.section	.data.rel.ro._ZTIZN8asiodnp313UpdateBuilder7AddMeasIN8opendnp318BinaryOutputStatusEEERS0_RKT_tNS2_9EventModeEEUlRNS2_14IUpdateHandlerEE_,"awG",@progbits,_ZTIZN8asiodnp313UpdateBuilder7AddMeasIN8opendnp318BinaryOutputStatusEEERS0_RKT_tNS2_9EventModeEEUlRNS2_14IUpdateHandlerEE_,comdat
	.align 8
	.type	_ZTIZN8asiodnp313UpdateBuilder7AddMeasIN8opendnp318BinaryOutputStatusEEERS0_RKT_tNS2_9EventModeEEUlRNS2_14IUpdateHandlerEE_, @object
	.size	_ZTIZN8asiodnp313UpdateBuilder7AddMeasIN8opendnp318BinaryOutputStatusEEERS0_RKT_tNS2_9EventModeEEUlRNS2_14IUpdateHandlerEE_, 16
_ZTIZN8asiodnp313UpdateBuilder7AddMeasIN8opendnp318BinaryOutputStatusEEERS0_RKT_tNS2_9EventModeEEUlRNS2_14IUpdateHandlerEE_:
	.quad	_ZTVN10__cxxabiv117__class_type_infoE+16
	.quad	_ZTSZN8asiodnp313UpdateBuilder7AddMeasIN8opendnp318BinaryOutputStatusEEERS0_RKT_tNS2_9EventModeEEUlRNS2_14IUpdateHandlerEE_
	.weak	_ZTSZN8asiodnp313UpdateBuilder7AddMeasIN8opendnp318AnalogOutputStatusEEERS0_RKT_tNS2_9EventModeEEUlRNS2_14IUpdateHandlerEE_
	.section	.rodata._ZTSZN8asiodnp313UpdateBuilder7AddMeasIN8opendnp318AnalogOutputStatusEEERS0_RKT_tNS2_9EventModeEEUlRNS2_14IUpdateHandlerEE_,"aG",@progbits,_ZTSZN8asiodnp313UpdateBuilder7AddMeasIN8opendnp318AnalogOutputStatusEEERS0_RKT_tNS2_9EventModeEEUlRNS2_14IUpdateHandlerEE_,comdat
	.align 32
	.type	_ZTSZN8asiodnp313UpdateBuilder7AddMeasIN8opendnp318AnalogOutputStatusEEERS0_RKT_tNS2_9EventModeEEUlRNS2_14IUpdateHandlerEE_, @object
	.size	_ZTSZN8asiodnp313UpdateBuilder7AddMeasIN8opendnp318AnalogOutputStatusEEERS0_RKT_tNS2_9EventModeEEUlRNS2_14IUpdateHandlerEE_, 120
_ZTSZN8asiodnp313UpdateBuilder7AddMeasIN8opendnp318AnalogOutputStatusEEERS0_RKT_tNS2_9EventModeEEUlRNS2_14IUpdateHandlerEE_:
	.string	"ZN8asiodnp313UpdateBuilder7AddMeasIN8opendnp318AnalogOutputStatusEEERS0_RKT_tNS2_9EventModeEEUlRNS2_14IUpdateHandlerEE_"
	.weak	_ZTIZN8asiodnp313UpdateBuilder7AddMeasIN8opendnp318AnalogOutputStatusEEERS0_RKT_tNS2_9EventModeEEUlRNS2_14IUpdateHandlerEE_
	.section	.data.rel.ro._ZTIZN8asiodnp313UpdateBuilder7AddMeasIN8opendnp318AnalogOutputStatusEEERS0_RKT_tNS2_9EventModeEEUlRNS2_14IUpdateHandlerEE_,"awG",@progbits,_ZTIZN8asiodnp313UpdateBuilder7AddMeasIN8opendnp318AnalogOutputStatusEEERS0_RKT_tNS2_9EventModeEEUlRNS2_14IUpdateHandlerEE_,comdat
	.align 8
	.type	_ZTIZN8asiodnp313UpdateBuilder7AddMeasIN8opendnp318AnalogOutputStatusEEERS0_RKT_tNS2_9EventModeEEUlRNS2_14IUpdateHandlerEE_, @object
	.size	_ZTIZN8asiodnp313UpdateBuilder7AddMeasIN8opendnp318AnalogOutputStatusEEERS0_RKT_tNS2_9EventModeEEUlRNS2_14IUpdateHandlerEE_, 16
_ZTIZN8asiodnp313UpdateBuilder7AddMeasIN8opendnp318AnalogOutputStatusEEERS0_RKT_tNS2_9EventModeEEUlRNS2_14IUpdateHandlerEE_:
	.quad	_ZTVN10__cxxabiv117__class_type_infoE+16
	.quad	_ZTSZN8asiodnp313UpdateBuilder7AddMeasIN8opendnp318AnalogOutputStatusEEERS0_RKT_tNS2_9EventModeEEUlRNS2_14IUpdateHandlerEE_
	.weak	_ZTSSt23_Sp_counted_ptr_inplaceISt6vectorISt8functionIFvRN8opendnp314IUpdateHandlerEEESaIS6_EESaIvELN9__gnu_cxx12_Lock_policyE2EE
	.section	.rodata._ZTSSt23_Sp_counted_ptr_inplaceISt6vectorISt8functionIFvRN8opendnp314IUpdateHandlerEEESaIS6_EESaIvELN9__gnu_cxx12_Lock_policyE2EE,"aG",@progbits,_ZTSSt23_Sp_counted_ptr_inplaceISt6vectorISt8functionIFvRN8opendnp314IUpdateHandlerEEESaIS6_EESaIvELN9__gnu_cxx12_Lock_policyE2EE,comdat
	.align 32
	.type	_ZTSSt23_Sp_counted_ptr_inplaceISt6vectorISt8functionIFvRN8opendnp314IUpdateHandlerEEESaIS6_EESaIvELN9__gnu_cxx12_Lock_policyE2EE, @object
	.size	_ZTSSt23_Sp_counted_ptr_inplaceISt6vectorISt8functionIFvRN8opendnp314IUpdateHandlerEEESaIS6_EESaIvELN9__gnu_cxx12_Lock_policyE2EE, 126
_ZTSSt23_Sp_counted_ptr_inplaceISt6vectorISt8functionIFvRN8opendnp314IUpdateHandlerEEESaIS6_EESaIvELN9__gnu_cxx12_Lock_policyE2EE:
	.string	"St23_Sp_counted_ptr_inplaceISt6vectorISt8functionIFvRN8opendnp314IUpdateHandlerEEESaIS6_EESaIvELN9__gnu_cxx12_Lock_policyE2EE"
	.weak	_ZTISt23_Sp_counted_ptr_inplaceISt6vectorISt8functionIFvRN8opendnp314IUpdateHandlerEEESaIS6_EESaIvELN9__gnu_cxx12_Lock_policyE2EE
	.section	.data.rel.ro._ZTISt23_Sp_counted_ptr_inplaceISt6vectorISt8functionIFvRN8opendnp314IUpdateHandlerEEESaIS6_EESaIvELN9__gnu_cxx12_Lock_policyE2EE,"awG",@progbits,_ZTISt23_Sp_counted_ptr_inplaceISt6vectorISt8functionIFvRN8opendnp314IUpdateHandlerEEESaIS6_EESaIvELN9__gnu_cxx12_Lock_policyE2EE,comdat
	.align 8
	.type	_ZTISt23_Sp_counted_ptr_inplaceISt6vectorISt8functionIFvRN8opendnp314IUpdateHandlerEEESaIS6_EESaIvELN9__gnu_cxx12_Lock_policyE2EE, @object
	.size	_ZTISt23_Sp_counted_ptr_inplaceISt6vectorISt8functionIFvRN8opendnp314IUpdateHandlerEEESaIS6_EESaIvELN9__gnu_cxx12_Lock_policyE2EE, 24
_ZTISt23_Sp_counted_ptr_inplaceISt6vectorISt8functionIFvRN8opendnp314IUpdateHandlerEEESaIS6_EESaIvELN9__gnu_cxx12_Lock_policyE2EE:
	.quad	_ZTVN10__cxxabiv120__si_class_type_infoE+16
	.quad	_ZTSSt23_Sp_counted_ptr_inplaceISt6vectorISt8functionIFvRN8opendnp314IUpdateHandlerEEESaIS6_EESaIvELN9__gnu_cxx12_Lock_policyE2EE
	.quad	_ZTISt16_Sp_counted_baseILN9__gnu_cxx12_Lock_policyE2EE
	.weak	_ZTVSt23_Sp_counted_ptr_inplaceISt6vectorISt8functionIFvRN8opendnp314IUpdateHandlerEEESaIS6_EESaIvELN9__gnu_cxx12_Lock_policyE2EE
	.section	.data.rel.ro._ZTVSt23_Sp_counted_ptr_inplaceISt6vectorISt8functionIFvRN8opendnp314IUpdateHandlerEEESaIS6_EESaIvELN9__gnu_cxx12_Lock_policyE2EE,"awG",@progbits,_ZTVSt23_Sp_counted_ptr_inplaceISt6vectorISt8functionIFvRN8opendnp314IUpdateHandlerEEESaIS6_EESaIvELN9__gnu_cxx12_Lock_policyE2EE,comdat
	.align 8
	.type	_ZTVSt23_Sp_counted_ptr_inplaceISt6vectorISt8functionIFvRN8opendnp314IUpdateHandlerEEESaIS6_EESaIvELN9__gnu_cxx12_Lock_policyE2EE, @object
	.size	_ZTVSt23_Sp_counted_ptr_inplaceISt6vectorISt8functionIFvRN8opendnp314IUpdateHandlerEEESaIS6_EESaIvELN9__gnu_cxx12_Lock_policyE2EE, 56
_ZTVSt23_Sp_counted_ptr_inplaceISt6vectorISt8functionIFvRN8opendnp314IUpdateHandlerEEESaIS6_EESaIvELN9__gnu_cxx12_Lock_policyE2EE:
	.quad	0
	.quad	_ZTISt23_Sp_counted_ptr_inplaceISt6vectorISt8functionIFvRN8opendnp314IUpdateHandlerEEESaIS6_EESaIvELN9__gnu_cxx12_Lock_policyE2EE
	.quad	_ZNSt23_Sp_counted_ptr_inplaceISt6vectorISt8functionIFvRN8opendnp314IUpdateHandlerEEESaIS6_EESaIvELN9__gnu_cxx12_Lock_policyE2EED1Ev
	.quad	_ZNSt23_Sp_counted_ptr_inplaceISt6vectorISt8functionIFvRN8opendnp314IUpdateHandlerEEESaIS6_EESaIvELN9__gnu_cxx12_Lock_policyE2EED0Ev
	.quad	_ZNSt23_Sp_counted_ptr_inplaceISt6vectorISt8functionIFvRN8opendnp314IUpdateHandlerEEESaIS6_EESaIvELN9__gnu_cxx12_Lock_policyE2EE10_M_disposeEv
	.quad	_ZNSt23_Sp_counted_ptr_inplaceISt6vectorISt8functionIFvRN8opendnp314IUpdateHandlerEEESaIS6_EESaIvELN9__gnu_cxx12_Lock_policyE2EE10_M_destroyEv
	.quad	_ZNSt23_Sp_counted_ptr_inplaceISt6vectorISt8functionIFvRN8opendnp314IUpdateHandlerEEESaIS6_EESaIvELN9__gnu_cxx12_Lock_policyE2EE14_M_get_deleterERKSt9type_info
	.weak	_ZZNSt19_Sp_make_shared_tag5_S_tiEvE5__tag
	.section	.rodata._ZZNSt19_Sp_make_shared_tag5_S_tiEvE5__tag,"aG",@progbits,_ZZNSt19_Sp_make_shared_tag5_S_tiEvE5__tag,comdat
	.align 8
	.type	_ZZNSt19_Sp_make_shared_tag5_S_tiEvE5__tag, @gnu_unique_object
	.size	_ZZNSt19_Sp_make_shared_tag5_S_tiEvE5__tag, 16
_ZZNSt19_Sp_make_shared_tag5_S_tiEvE5__tag:
	.zero	16
	.section	.rodata.cst8,"aM",@progbits,8
	.align 8
.LC1:
	.long	1
	.long	1
	.section	.data.rel.ro.local,"aw"
	.align 8
.LC13:
	.quad	_ZNSt17_Function_handlerIFvRN8opendnp314IUpdateHandlerEEZN8asiodnp313UpdateBuilder6UpdateERKNS0_15TimeAndIntervalEtEUlS2_E_E10_M_managerERSt9_Any_dataRKSB_St18_Manager_operation
	.align 8
.LC15:
	.quad	_ZNSt17_Function_handlerIFvRN8opendnp314IUpdateHandlerEEZN8asiodnp313UpdateBuilder6ModifyENS0_9FlagsTypeEtthEUlS2_E_E10_M_managerERSt9_Any_dataRKS9_St18_Manager_operation
	.hidden	DW.ref.__gxx_personality_v0
	.weak	DW.ref.__gxx_personality_v0
	.section	.data.rel.local.DW.ref.__gxx_personality_v0,"awG",@progbits,DW.ref.__gxx_personality_v0,comdat
	.align 8
	.type	DW.ref.__gxx_personality_v0, @object
	.size	DW.ref.__gxx_personality_v0, 8
DW.ref.__gxx_personality_v0:
	.quad	__gxx_personality_v0
	.globl	__gxx_personality_v0
	.ident	"GCC: (Debian 15.2.0-4) 15.2.0"
	.section	.note.GNU-stack,"",@progbits
