	.file	"Limits.cpp"
	.text
	.p2align 4
	.globl	_ZN7openpal8MinValueIhEET_v
	.type	_ZN7openpal8MinValueIhEET_v, @function
_ZN7openpal8MinValueIhEET_v:
.LFB3:
	.cfi_startproc
	xorl	%eax, %eax
	ret
	.cfi_endproc
.LFE3:
	.size	_ZN7openpal8MinValueIhEET_v, .-_ZN7openpal8MinValueIhEET_v
	.p2align 4
	.globl	_ZN7openpal8MaxValueIhEET_v
	.type	_ZN7openpal8MaxValueIhEET_v, @function
_ZN7openpal8MaxValueIhEET_v:
.LFB4:
	.cfi_startproc
	movl	$-1, %eax
	ret
	.cfi_endproc
.LFE4:
	.size	_ZN7openpal8MaxValueIhEET_v, .-_ZN7openpal8MaxValueIhEET_v
	.p2align 4
	.globl	_ZN7openpal8MinValueItEET_v
	.type	_ZN7openpal8MinValueItEET_v, @function
_ZN7openpal8MinValueItEET_v:
.LFB5:
	.cfi_startproc
	xorl	%eax, %eax
	ret
	.cfi_endproc
.LFE5:
	.size	_ZN7openpal8MinValueItEET_v, .-_ZN7openpal8MinValueItEET_v
	.p2align 4
	.globl	_ZN7openpal8MaxValueItEET_v
	.type	_ZN7openpal8MaxValueItEET_v, @function
_ZN7openpal8MaxValueItEET_v:
.LFB6:
	.cfi_startproc
	movl	$-1, %eax
	ret
	.cfi_endproc
.LFE6:
	.size	_ZN7openpal8MaxValueItEET_v, .-_ZN7openpal8MaxValueItEET_v
	.p2align 4
	.globl	_ZN7openpal8MinValueIfEET_v
	.type	_ZN7openpal8MinValueIfEET_v, @function
_ZN7openpal8MinValueIfEET_v:
.LFB7:
	.cfi_startproc
	movss	.LC0(%rip), %xmm0
	ret
	.cfi_endproc
.LFE7:
	.size	_ZN7openpal8MinValueIfEET_v, .-_ZN7openpal8MinValueIfEET_v
	.p2align 4
	.globl	_ZN7openpal8MaxValueIfEET_v
	.type	_ZN7openpal8MaxValueIfEET_v, @function
_ZN7openpal8MaxValueIfEET_v:
.LFB8:
	.cfi_startproc
	movss	.LC1(%rip), %xmm0
	ret
	.cfi_endproc
.LFE8:
	.size	_ZN7openpal8MaxValueIfEET_v, .-_ZN7openpal8MaxValueIfEET_v
	.p2align 4
	.globl	_ZN7openpal8MinValueIdEET_v
	.type	_ZN7openpal8MinValueIdEET_v, @function
_ZN7openpal8MinValueIdEET_v:
.LFB9:
	.cfi_startproc
	movsd	.LC2(%rip), %xmm0
	ret
	.cfi_endproc
.LFE9:
	.size	_ZN7openpal8MinValueIdEET_v, .-_ZN7openpal8MinValueIdEET_v
	.p2align 4
	.globl	_ZN7openpal8MaxValueIdEET_v
	.type	_ZN7openpal8MaxValueIdEET_v, @function
_ZN7openpal8MaxValueIdEET_v:
.LFB10:
	.cfi_startproc
	movsd	.LC3(%rip), %xmm0
	ret
	.cfi_endproc
.LFE10:
	.size	_ZN7openpal8MaxValueIdEET_v, .-_ZN7openpal8MaxValueIdEET_v
	.p2align 4
	.globl	_ZN7openpal8MinValueIsEET_v
	.type	_ZN7openpal8MinValueIsEET_v, @function
_ZN7openpal8MinValueIsEET_v:
.LFB11:
	.cfi_startproc
	movl	$-32768, %eax
	ret
	.cfi_endproc
.LFE11:
	.size	_ZN7openpal8MinValueIsEET_v, .-_ZN7openpal8MinValueIsEET_v
	.p2align 4
	.globl	_ZN7openpal8MaxValueIsEET_v
	.type	_ZN7openpal8MaxValueIsEET_v, @function
_ZN7openpal8MaxValueIsEET_v:
.LFB12:
	.cfi_startproc
	movl	$32767, %eax
	ret
	.cfi_endproc
.LFE12:
	.size	_ZN7openpal8MaxValueIsEET_v, .-_ZN7openpal8MaxValueIsEET_v
	.p2align 4
	.globl	_ZN7openpal8MinValueIiEET_v
	.type	_ZN7openpal8MinValueIiEET_v, @function
_ZN7openpal8MinValueIiEET_v:
.LFB13:
	.cfi_startproc
	movl	$-2147483648, %eax
	ret
	.cfi_endproc
.LFE13:
	.size	_ZN7openpal8MinValueIiEET_v, .-_ZN7openpal8MinValueIiEET_v
	.p2align 4
	.globl	_ZN7openpal8MaxValueIiEET_v
	.type	_ZN7openpal8MaxValueIiEET_v, @function
_ZN7openpal8MaxValueIiEET_v:
.LFB14:
	.cfi_startproc
	movl	$2147483647, %eax
	ret
	.cfi_endproc
.LFE14:
	.size	_ZN7openpal8MaxValueIiEET_v, .-_ZN7openpal8MaxValueIiEET_v
	.p2align 4
	.globl	_ZN7openpal8MinValueIjEET_v
	.type	_ZN7openpal8MinValueIjEET_v, @function
_ZN7openpal8MinValueIjEET_v:
.LFB15:
	.cfi_startproc
	xorl	%eax, %eax
	ret
	.cfi_endproc
.LFE15:
	.size	_ZN7openpal8MinValueIjEET_v, .-_ZN7openpal8MinValueIjEET_v
	.p2align 4
	.globl	_ZN7openpal8MaxValueIjEET_v
	.type	_ZN7openpal8MaxValueIjEET_v, @function
_ZN7openpal8MaxValueIjEET_v:
.LFB16:
	.cfi_startproc
	movl	$-1, %eax
	ret
	.cfi_endproc
.LFE16:
	.size	_ZN7openpal8MaxValueIjEET_v, .-_ZN7openpal8MaxValueIjEET_v
	.p2align 4
	.globl	_ZN7openpal8MinValueIlEET_v
	.type	_ZN7openpal8MinValueIlEET_v, @function
_ZN7openpal8MinValueIlEET_v:
.LFB17:
	.cfi_startproc
	movabsq	$-9223372036854775808, %rax
	ret
	.cfi_endproc
.LFE17:
	.size	_ZN7openpal8MinValueIlEET_v, .-_ZN7openpal8MinValueIlEET_v
	.p2align 4
	.globl	_ZN7openpal8MaxValueIlEET_v
	.type	_ZN7openpal8MaxValueIlEET_v, @function
_ZN7openpal8MaxValueIlEET_v:
.LFB18:
	.cfi_startproc
	movabsq	$9223372036854775807, %rax
	ret
	.cfi_endproc
.LFE18:
	.size	_ZN7openpal8MaxValueIlEET_v, .-_ZN7openpal8MaxValueIlEET_v
	.section	.rodata.cst4,"aM",@progbits,4
	.align 4
.LC0:
	.long	-8388609
	.align 4
.LC1:
	.long	2139095039
	.section	.rodata.cst8,"aM",@progbits,8
	.align 8
.LC2:
	.long	-1
	.long	-1048577
	.align 8
.LC3:
	.long	-1
	.long	2146435071
	.ident	"GCC: (Debian 15.2.0-4) 15.2.0"
	.section	.note.GNU-stack,"",@progbits
