	.file	"Executor.cpp"
	.text
	.section	.rodata._ZNK4asio6detail15system_category4nameEv.str1.1,"aMS",@progbits,1
.LC0:
	.string	"asio.system"
	.section	.text._ZNK4asio6detail15system_category4nameEv,"axG",@progbits,_ZNK4asio6detail15system_category4nameEv,comdat
	.align 2
	.p2align 4
	.weak	_ZNK4asio6detail15system_category4nameEv
	.type	_ZNK4asio6detail15system_category4nameEv, @function
_ZNK4asio6detail15system_category4nameEv:
.LFB2278:
	.cfi_startproc
	leaq	.LC0(%rip), %rax
	ret
	.cfi_endproc
.LFE2278:
	.size	_ZNK4asio6detail15system_category4nameEv, .-_ZNK4asio6detail15system_category4nameEv
	.section	.rodata._ZNK4asio5error6detail14netdb_category4nameEv.str1.1,"aMS",@progbits,1
.LC1:
	.string	"asio.netdb"
	.section	.text._ZNK4asio5error6detail14netdb_category4nameEv,"axG",@progbits,_ZNK4asio5error6detail14netdb_category4nameEv,comdat
	.align 2
	.p2align 4
	.weak	_ZNK4asio5error6detail14netdb_category4nameEv
	.type	_ZNK4asio5error6detail14netdb_category4nameEv, @function
_ZNK4asio5error6detail14netdb_category4nameEv:
.LFB2322:
	.cfi_startproc
	leaq	.LC1(%rip), %rax
	ret
	.cfi_endproc
.LFE2322:
	.size	_ZNK4asio5error6detail14netdb_category4nameEv, .-_ZNK4asio5error6detail14netdb_category4nameEv
	.section	.rodata._ZNK4asio5error6detail17addrinfo_category4nameEv.str1.1,"aMS",@progbits,1
.LC2:
	.string	"asio.addrinfo"
	.section	.text._ZNK4asio5error6detail17addrinfo_category4nameEv,"axG",@progbits,_ZNK4asio5error6detail17addrinfo_category4nameEv,comdat
	.align 2
	.p2align 4
	.weak	_ZNK4asio5error6detail17addrinfo_category4nameEv
	.type	_ZNK4asio5error6detail17addrinfo_category4nameEv, @function
_ZNK4asio5error6detail17addrinfo_category4nameEv:
.LFB2332:
	.cfi_startproc
	leaq	.LC2(%rip), %rax
	ret
	.cfi_endproc
.LFE2332:
	.size	_ZNK4asio5error6detail17addrinfo_category4nameEv, .-_ZNK4asio5error6detail17addrinfo_category4nameEv
	.section	.rodata._ZNK4asio5error6detail13misc_category4nameEv.str1.1,"aMS",@progbits,1
.LC3:
	.string	"asio.misc"
	.section	.text._ZNK4asio5error6detail13misc_category4nameEv,"axG",@progbits,_ZNK4asio5error6detail13misc_category4nameEv,comdat
	.align 2
	.p2align 4
	.weak	_ZNK4asio5error6detail13misc_category4nameEv
	.type	_ZNK4asio5error6detail13misc_category4nameEv, @function
_ZNK4asio5error6detail13misc_category4nameEv:
.LFB2342:
	.cfi_startproc
	leaq	.LC3(%rip), %rax
	ret
	.cfi_endproc
.LFE2342:
	.size	_ZNK4asio5error6detail13misc_category4nameEv, .-_ZNK4asio5error6detail13misc_category4nameEv
	.section	.text._ZN4asio10io_service7service12fork_serviceENS0_10fork_eventE,"axG",@progbits,_ZN4asio10io_service7service12fork_serviceENS0_10fork_eventE,comdat
	.align 2
	.p2align 4
	.weak	_ZN4asio10io_service7service12fork_serviceENS0_10fork_eventE
	.type	_ZN4asio10io_service7service12fork_serviceENS0_10fork_eventE, @function
_ZN4asio10io_service7service12fork_serviceENS0_10fork_eventE:
.LFB3347:
	.cfi_startproc
	ret
	.cfi_endproc
.LFE3347:
	.size	_ZN4asio10io_service7service12fork_serviceENS0_10fork_eventE, .-_ZN4asio10io_service7service12fork_serviceENS0_10fork_eventE
	.section	.text._ZNSt13__future_base13_State_baseV217_M_complete_asyncEv,"axG",@progbits,_ZNSt13__future_base13_State_baseV217_M_complete_asyncEv,comdat
	.align 2
	.p2align 4
	.weak	_ZNSt13__future_base13_State_baseV217_M_complete_asyncEv
	.type	_ZNSt13__future_base13_State_baseV217_M_complete_asyncEv, @function
_ZNSt13__future_base13_State_baseV217_M_complete_asyncEv:
.LFB6716:
	.cfi_startproc
	ret
	.cfi_endproc
.LFE6716:
	.size	_ZNSt13__future_base13_State_baseV217_M_complete_asyncEv, .-_ZNSt13__future_base13_State_baseV217_M_complete_asyncEv
	.section	.text._ZNKSt13__future_base13_State_baseV221_M_is_deferred_futureEv,"axG",@progbits,_ZNKSt13__future_base13_State_baseV221_M_is_deferred_futureEv,comdat
	.align 2
	.p2align 4
	.weak	_ZNKSt13__future_base13_State_baseV221_M_is_deferred_futureEv
	.type	_ZNKSt13__future_base13_State_baseV221_M_is_deferred_futureEv, @function
_ZNKSt13__future_base13_State_baseV221_M_is_deferred_futureEv:
.LFB6717:
	.cfi_startproc
	xorl	%eax, %eax
	ret
	.cfi_endproc
.LFE6717:
	.size	_ZNKSt13__future_base13_State_baseV221_M_is_deferred_futureEv, .-_ZNKSt13__future_base13_State_baseV221_M_is_deferred_futureEv
	.section	.text._ZZNSt9once_flag18_Prepare_executionC4IZSt9call_onceIMNSt13__future_base13_State_baseV2EFvPSt8functionIFSt10unique_ptrINS3_12_Result_baseENS7_8_DeleterEEvEEPbEJPS4_SC_SD_EEvRS_OT_DpOT0_EUlvE_EERSI_ENUlvE_4_FUNEv,"axG",@progbits,_ZZNSt9once_flag18_Prepare_executionC4IZSt9call_onceIMNSt13__future_base13_State_baseV2EFvPSt8functionIFSt10unique_ptrINS3_12_Result_baseENS7_8_DeleterEEvEEPbEJPS4_SC_SD_EEvRS_OT_DpOT0_EUlvE_EERSI_ENUlvE_4_FUNEv,comdat
	.p2align 4
	.weak	_ZZNSt9once_flag18_Prepare_executionC4IZSt9call_onceIMNSt13__future_base13_State_baseV2EFvPSt8functionIFSt10unique_ptrINS3_12_Result_baseENS7_8_DeleterEEvEEPbEJPS4_SC_SD_EEvRS_OT_DpOT0_EUlvE_EERSI_ENUlvE_4_FUNEv
	.type	_ZZNSt9once_flag18_Prepare_executionC4IZSt9call_onceIMNSt13__future_base13_State_baseV2EFvPSt8functionIFSt10unique_ptrINS3_12_Result_baseENS7_8_DeleterEEvEEPbEJPS4_SC_SD_EEvRS_OT_DpOT0_EUlvE_EERSI_ENUlvE_4_FUNEv, @function
_ZZNSt9once_flag18_Prepare_executionC4IZSt9call_onceIMNSt13__future_base13_State_baseV2EFvPSt8functionIFSt10unique_ptrINS3_12_Result_baseENS7_8_DeleterEEvEEPbEJPS4_SC_SD_EEvRS_OT_DpOT0_EUlvE_EERSI_ENUlvE_4_FUNEv:
.LFB8197:
	.cfi_startproc
	subq	$8, %rsp
	.cfi_def_cfa_offset 16
	data16	leaq	_ZSt15__once_callable@tlsgd(%rip), %rdi
	.value	0x6666
	rex64
	call	__tls_get_addr@PLT
	movq	(%rax), %rax
	movq	(%rax), %rdx
	movq	24(%rax), %r8
	movq	16(%rax), %rsi
	movq	8(%rax), %rax
	movq	(%rdx), %rcx
	movq	8(%rdx), %rdi
	addq	(%rax), %rdi
	testb	$1, %cl
	je	.L10
	movq	(%rdi), %rax
	movq	-1(%rax,%rcx), %rcx
.L10:
	movq	(%r8), %rdx
	movq	(%rsi), %rsi
	addq	$8, %rsp
	.cfi_def_cfa_offset 8
	jmp	*%rcx
	.cfi_endproc
.LFE8197:
	.size	_ZZNSt9once_flag18_Prepare_executionC4IZSt9call_onceIMNSt13__future_base13_State_baseV2EFvPSt8functionIFSt10unique_ptrINS3_12_Result_baseENS7_8_DeleterEEvEEPbEJPS4_SC_SD_EEvRS_OT_DpOT0_EUlvE_EERSI_ENUlvE_4_FUNEv, .-_ZZNSt9once_flag18_Prepare_executionC4IZSt9call_onceIMNSt13__future_base13_State_baseV2EFvPSt8functionIFSt10unique_ptrINS3_12_Result_baseENS7_8_DeleterEEvEEPbEJPS4_SC_SD_EEvRS_OT_DpOT0_EUlvE_EERSI_ENUlvE_4_FUNEv
	.section	.text._ZNSt15__exception_ptr12__dest_thunkISt12future_errorEEvPv,"axG",@progbits,_ZNSt15__exception_ptr12__dest_thunkISt12future_errorEEvPv,comdat
	.p2align 4
	.weak	_ZNSt15__exception_ptr12__dest_thunkISt12future_errorEEvPv
	.type	_ZNSt15__exception_ptr12__dest_thunkISt12future_errorEEvPv, @function
_ZNSt15__exception_ptr12__dest_thunkISt12future_errorEEvPv:
.LFB8221:
	.cfi_startproc
	movq	(%rdi), %rax
	jmp	*(%rax)
	.cfi_endproc
.LFE8221:
	.size	_ZNSt15__exception_ptr12__dest_thunkISt12future_errorEEvPv, .-_ZNSt15__exception_ptr12__dest_thunkISt12future_errorEEvPv
	.text
	.p2align 4
	.type	_ZNSt17_Function_handlerIFvvEZN7asiopal8Executor18BlockUntilAndFlushERKSt8functionIS0_EEUlvE_E9_M_invokeERKSt9_Any_data, @function
_ZNSt17_Function_handlerIFvvEZN7asiopal8Executor18BlockUntilAndFlushERKSt8functionIS0_EEUlvE_E9_M_invokeERKSt9_Any_data:
.LFB8375:
	.cfi_startproc
	ret
	.cfi_endproc
.LFE8375:
	.size	_ZNSt17_Function_handlerIFvvEZN7asiopal8Executor18BlockUntilAndFlushERKSt8functionIS0_EEUlvE_E9_M_invokeERKSt9_Any_data, .-_ZNSt17_Function_handlerIFvvEZN7asiopal8Executor18BlockUntilAndFlushERKSt8functionIS0_EEUlvE_E9_M_invokeERKSt9_Any_data
	.p2align 4
	.type	_ZNSt17_Function_handlerIFvvEZN7asiopal8Executor18BlockUntilAndFlushERKSt8functionIS0_EEUlvE_E10_M_managerERSt9_Any_dataRKS9_St18_Manager_operation, @function
_ZNSt17_Function_handlerIFvvEZN7asiopal8Executor18BlockUntilAndFlushERKSt8functionIS0_EEUlvE_E10_M_managerERSt9_Any_dataRKS9_St18_Manager_operation:
.LFB8376:
	.cfi_startproc
	testl	%edx, %edx
	je	.L18
	cmpl	$1, %edx
	je	.L19
	xorl	%eax, %eax
	ret
	.p2align 4,,10
	.p2align 3
.L19:
	movq	%rsi, (%rdi)
	xorl	%eax, %eax
	ret
	.p2align 4,,10
	.p2align 3
.L18:
	leaq	_ZTIZN7asiopal8Executor18BlockUntilAndFlushERKSt8functionIFvvEEEUlvE_(%rip), %rax
	movq	%rax, (%rdi)
	xorl	%eax, %eax
	ret
	.cfi_endproc
.LFE8376:
	.size	_ZNSt17_Function_handlerIFvvEZN7asiopal8Executor18BlockUntilAndFlushERKSt8functionIS0_EEUlvE_E10_M_managerERSt9_Any_dataRKS9_St18_Manager_operation, .-_ZNSt17_Function_handlerIFvvEZN7asiopal8Executor18BlockUntilAndFlushERKSt8functionIS0_EEUlvE_E10_M_managerERSt9_Any_dataRKS9_St18_Manager_operation
	.section	.text._ZNSt17_Function_handlerIFSt10unique_ptrINSt13__future_base12_Result_baseENS2_8_DeleterEEvENS1_13_State_baseV27_SetterIbObEEE9_M_invokeERKSt9_Any_data,"axG",@progbits,_ZNSt17_Function_handlerIFSt10unique_ptrINSt13__future_base12_Result_baseENS2_8_DeleterEEvENS1_13_State_baseV27_SetterIbObEEE9_M_invokeERKSt9_Any_data,comdat
	.p2align 4
	.weak	_ZNSt17_Function_handlerIFSt10unique_ptrINSt13__future_base12_Result_baseENS2_8_DeleterEEvENS1_13_State_baseV27_SetterIbObEEE9_M_invokeERKSt9_Any_data
	.type	_ZNSt17_Function_handlerIFSt10unique_ptrINSt13__future_base12_Result_baseENS2_8_DeleterEEvENS1_13_State_baseV27_SetterIbObEEE9_M_invokeERKSt9_Any_data, @function
_ZNSt17_Function_handlerIFSt10unique_ptrINSt13__future_base12_Result_baseENS2_8_DeleterEEvENS1_13_State_baseV27_SetterIbObEEE9_M_invokeERKSt9_Any_data:
.LFB8598:
	.cfi_startproc
	movq	(%rsi), %rdx
	movq	8(%rsi), %rcx
	movq	16(%rdx), %rax
	movzbl	(%rcx), %ecx
	movb	$1, 17(%rax)
	movb	%cl, 16(%rax)
	movq	$0, 16(%rdx)
	movq	%rax, (%rdi)
	movq	%rdi, %rax
	ret
	.cfi_endproc
.LFE8598:
	.size	_ZNSt17_Function_handlerIFSt10unique_ptrINSt13__future_base12_Result_baseENS2_8_DeleterEEvENS1_13_State_baseV27_SetterIbObEEE9_M_invokeERKSt9_Any_data, .-_ZNSt17_Function_handlerIFSt10unique_ptrINSt13__future_base12_Result_baseENS2_8_DeleterEEvENS1_13_State_baseV27_SetterIbObEEE9_M_invokeERKSt9_Any_data
	.section	.text._ZNSt13__future_base13_State_baseV2D2Ev,"axG",@progbits,_ZNSt13__future_base13_State_baseV2D5Ev,comdat
	.align 2
	.p2align 4
	.weak	_ZNSt13__future_base13_State_baseV2D2Ev
	.type	_ZNSt13__future_base13_State_baseV2D2Ev, @function
_ZNSt13__future_base13_State_baseV2D2Ev:
.LFB9459:
	.cfi_startproc
	.cfi_personality 0x9b,DW.ref.__gxx_personality_v0
	.cfi_lsda 0x1b,.LLSDA9459
	movq	_ZTVNSt13__future_base13_State_baseV2E@GOTPCREL(%rip), %rax
	addq	$16, %rax
	movq	%rax, (%rdi)
	movq	8(%rdi), %rdi
	testq	%rdi, %rdi
	je	.L28
	subq	$8, %rsp
	.cfi_def_cfa_offset 16
	movq	(%rdi), %rax
	call	*(%rax)
	addq	$8, %rsp
	.cfi_def_cfa_offset 8
	ret
	.p2align 4,,10
	.p2align 3
.L28:
	ret
	.cfi_endproc
.LFE9459:
	.section	.gcc_except_table._ZNSt13__future_base13_State_baseV2D2Ev,"aG",@progbits,_ZNSt13__future_base13_State_baseV2D5Ev,comdat
.LLSDA9459:
	.byte	0xff
	.byte	0xff
	.byte	0x1
	.uleb128 .LLSDACSE9459-.LLSDACSB9459
.LLSDACSB9459:
.LLSDACSE9459:
	.section	.text._ZNSt13__future_base13_State_baseV2D2Ev,"axG",@progbits,_ZNSt13__future_base13_State_baseV2D5Ev,comdat
	.size	_ZNSt13__future_base13_State_baseV2D2Ev, .-_ZNSt13__future_base13_State_baseV2D2Ev
	.weak	_ZNSt13__future_base13_State_baseV2D1Ev
	.set	_ZNSt13__future_base13_State_baseV2D1Ev,_ZNSt13__future_base13_State_baseV2D2Ev
	.section	.text._ZN4asio6detail7tss_ptrINS0_10call_stackINS0_14strand_service11strand_implEhE7contextEED2Ev,"axG",@progbits,_ZN4asio6detail7tss_ptrINS0_10call_stackINS0_14strand_service11strand_implEhE7contextEED5Ev,comdat
	.align 2
	.p2align 4
	.weak	_ZN4asio6detail7tss_ptrINS0_10call_stackINS0_14strand_service11strand_implEhE7contextEED2Ev
	.type	_ZN4asio6detail7tss_ptrINS0_10call_stackINS0_14strand_service11strand_implEhE7contextEED2Ev, @function
_ZN4asio6detail7tss_ptrINS0_10call_stackINS0_14strand_service11strand_implEhE7contextEED2Ev:
.LFB9493:
	.cfi_startproc
	ret
	.cfi_endproc
.LFE9493:
	.size	_ZN4asio6detail7tss_ptrINS0_10call_stackINS0_14strand_service11strand_implEhE7contextEED2Ev, .-_ZN4asio6detail7tss_ptrINS0_10call_stackINS0_14strand_service11strand_implEhE7contextEED2Ev
	.weak	_ZN4asio6detail7tss_ptrINS0_10call_stackINS0_14strand_service11strand_implEhE7contextEED1Ev
	.set	_ZN4asio6detail7tss_ptrINS0_10call_stackINS0_14strand_service11strand_implEhE7contextEED1Ev,_ZN4asio6detail7tss_ptrINS0_10call_stackINS0_14strand_service11strand_implEhE7contextEED2Ev
	.section	.text._ZNSt23_Sp_counted_ptr_inplaceIN7asiopal5TimerESaIvELN9__gnu_cxx12_Lock_policyE2EED2Ev,"axG",@progbits,_ZNSt23_Sp_counted_ptr_inplaceIN7asiopal5TimerESaIvELN9__gnu_cxx12_Lock_policyE2EED5Ev,comdat
	.align 2
	.p2align 4
	.weak	_ZNSt23_Sp_counted_ptr_inplaceIN7asiopal5TimerESaIvELN9__gnu_cxx12_Lock_policyE2EED2Ev
	.type	_ZNSt23_Sp_counted_ptr_inplaceIN7asiopal5TimerESaIvELN9__gnu_cxx12_Lock_policyE2EED2Ev, @function
_ZNSt23_Sp_counted_ptr_inplaceIN7asiopal5TimerESaIvELN9__gnu_cxx12_Lock_policyE2EED2Ev:
.LFB9499:
	.cfi_startproc
	ret
	.cfi_endproc
.LFE9499:
	.size	_ZNSt23_Sp_counted_ptr_inplaceIN7asiopal5TimerESaIvELN9__gnu_cxx12_Lock_policyE2EED2Ev, .-_ZNSt23_Sp_counted_ptr_inplaceIN7asiopal5TimerESaIvELN9__gnu_cxx12_Lock_policyE2EED2Ev
	.weak	_ZNSt23_Sp_counted_ptr_inplaceIN7asiopal5TimerESaIvELN9__gnu_cxx12_Lock_policyE2EED1Ev
	.set	_ZNSt23_Sp_counted_ptr_inplaceIN7asiopal5TimerESaIvELN9__gnu_cxx12_Lock_policyE2EED1Ev,_ZNSt23_Sp_counted_ptr_inplaceIN7asiopal5TimerESaIvELN9__gnu_cxx12_Lock_policyE2EED2Ev
	.section	.text._ZNSt23_Sp_counted_ptr_inplaceINSt13__future_base13_State_baseV2ESaIvELN9__gnu_cxx12_Lock_policyE2EED2Ev,"axG",@progbits,_ZNSt23_Sp_counted_ptr_inplaceINSt13__future_base13_State_baseV2ESaIvELN9__gnu_cxx12_Lock_policyE2EED5Ev,comdat
	.align 2
	.p2align 4
	.weak	_ZNSt23_Sp_counted_ptr_inplaceINSt13__future_base13_State_baseV2ESaIvELN9__gnu_cxx12_Lock_policyE2EED2Ev
	.type	_ZNSt23_Sp_counted_ptr_inplaceINSt13__future_base13_State_baseV2ESaIvELN9__gnu_cxx12_Lock_policyE2EED2Ev, @function
_ZNSt23_Sp_counted_ptr_inplaceINSt13__future_base13_State_baseV2ESaIvELN9__gnu_cxx12_Lock_policyE2EED2Ev:
.LFB9513:
	.cfi_startproc
	ret
	.cfi_endproc
.LFE9513:
	.size	_ZNSt23_Sp_counted_ptr_inplaceINSt13__future_base13_State_baseV2ESaIvELN9__gnu_cxx12_Lock_policyE2EED2Ev, .-_ZNSt23_Sp_counted_ptr_inplaceINSt13__future_base13_State_baseV2ESaIvELN9__gnu_cxx12_Lock_policyE2EED2Ev
	.weak	_ZNSt23_Sp_counted_ptr_inplaceINSt13__future_base13_State_baseV2ESaIvELN9__gnu_cxx12_Lock_policyE2EED1Ev
	.set	_ZNSt23_Sp_counted_ptr_inplaceINSt13__future_base13_State_baseV2ESaIvELN9__gnu_cxx12_Lock_policyE2EED1Ev,_ZNSt23_Sp_counted_ptr_inplaceINSt13__future_base13_State_baseV2ESaIvELN9__gnu_cxx12_Lock_policyE2EED2Ev
	.section	.text._ZNSt23_Sp_counted_ptr_inplaceINSt13__future_base13_State_baseV2ESaIvELN9__gnu_cxx12_Lock_policyE2EE10_M_disposeEv,"axG",@progbits,_ZNSt23_Sp_counted_ptr_inplaceINSt13__future_base13_State_baseV2ESaIvELN9__gnu_cxx12_Lock_policyE2EE10_M_disposeEv,comdat
	.align 2
	.p2align 4
	.weak	_ZNSt23_Sp_counted_ptr_inplaceINSt13__future_base13_State_baseV2ESaIvELN9__gnu_cxx12_Lock_policyE2EE10_M_disposeEv
	.type	_ZNSt23_Sp_counted_ptr_inplaceINSt13__future_base13_State_baseV2ESaIvELN9__gnu_cxx12_Lock_policyE2EE10_M_disposeEv, @function
_ZNSt23_Sp_counted_ptr_inplaceINSt13__future_base13_State_baseV2ESaIvELN9__gnu_cxx12_Lock_policyE2EE10_M_disposeEv:
.LFB9516:
	.cfi_startproc
	movq	16(%rdi), %rax
	addq	$16, %rdi
	movq	(%rax), %rax
	jmp	*%rax
	.cfi_endproc
.LFE9516:
	.size	_ZNSt23_Sp_counted_ptr_inplaceINSt13__future_base13_State_baseV2ESaIvELN9__gnu_cxx12_Lock_policyE2EE10_M_disposeEv, .-_ZNSt23_Sp_counted_ptr_inplaceINSt13__future_base13_State_baseV2ESaIvELN9__gnu_cxx12_Lock_policyE2EE10_M_disposeEv
	.section	.text._ZNSt23_Sp_counted_ptr_inplaceIN7asiopal5TimerESaIvELN9__gnu_cxx12_Lock_policyE2EED0Ev,"axG",@progbits,_ZNSt23_Sp_counted_ptr_inplaceIN7asiopal5TimerESaIvELN9__gnu_cxx12_Lock_policyE2EED5Ev,comdat
	.align 2
	.p2align 4
	.weak	_ZNSt23_Sp_counted_ptr_inplaceIN7asiopal5TimerESaIvELN9__gnu_cxx12_Lock_policyE2EED0Ev
	.type	_ZNSt23_Sp_counted_ptr_inplaceIN7asiopal5TimerESaIvELN9__gnu_cxx12_Lock_policyE2EED0Ev, @function
_ZNSt23_Sp_counted_ptr_inplaceIN7asiopal5TimerESaIvELN9__gnu_cxx12_Lock_policyE2EED0Ev:
.LFB9501:
	.cfi_startproc
	movl	$88, %esi
	jmp	_ZdlPvm@PLT
	.cfi_endproc
.LFE9501:
	.size	_ZNSt23_Sp_counted_ptr_inplaceIN7asiopal5TimerESaIvELN9__gnu_cxx12_Lock_policyE2EED0Ev, .-_ZNSt23_Sp_counted_ptr_inplaceIN7asiopal5TimerESaIvELN9__gnu_cxx12_Lock_policyE2EED0Ev
	.section	.text._ZNSt23_Sp_counted_ptr_inplaceINSt13__future_base13_State_baseV2ESaIvELN9__gnu_cxx12_Lock_policyE2EED0Ev,"axG",@progbits,_ZNSt23_Sp_counted_ptr_inplaceINSt13__future_base13_State_baseV2ESaIvELN9__gnu_cxx12_Lock_policyE2EED5Ev,comdat
	.align 2
	.p2align 4
	.weak	_ZNSt23_Sp_counted_ptr_inplaceINSt13__future_base13_State_baseV2ESaIvELN9__gnu_cxx12_Lock_policyE2EED0Ev
	.type	_ZNSt23_Sp_counted_ptr_inplaceINSt13__future_base13_State_baseV2ESaIvELN9__gnu_cxx12_Lock_policyE2EED0Ev, @function
_ZNSt23_Sp_counted_ptr_inplaceINSt13__future_base13_State_baseV2ESaIvELN9__gnu_cxx12_Lock_policyE2EED0Ev:
.LFB9515:
	.cfi_startproc
	movl	$48, %esi
	jmp	_ZdlPvm@PLT
	.cfi_endproc
.LFE9515:
	.size	_ZNSt23_Sp_counted_ptr_inplaceINSt13__future_base13_State_baseV2ESaIvELN9__gnu_cxx12_Lock_policyE2EED0Ev, .-_ZNSt23_Sp_counted_ptr_inplaceINSt13__future_base13_State_baseV2ESaIvELN9__gnu_cxx12_Lock_policyE2EED0Ev
	.section	.text._ZNSt13__future_base13_State_baseV2D0Ev,"axG",@progbits,_ZNSt13__future_base13_State_baseV2D5Ev,comdat
	.align 2
	.p2align 4
	.weak	_ZNSt13__future_base13_State_baseV2D0Ev
	.type	_ZNSt13__future_base13_State_baseV2D0Ev, @function
_ZNSt13__future_base13_State_baseV2D0Ev:
.LFB9461:
	.cfi_startproc
	.cfi_personality 0x9b,DW.ref.__gxx_personality_v0
	.cfi_lsda 0x1b,.LLSDA9461
	movq	_ZTVNSt13__future_base13_State_baseV2E@GOTPCREL(%rip), %rax
	pushq	%rbx
	.cfi_def_cfa_offset 16
	.cfi_offset 3, -16
	movq	%rdi, %rbx
	addq	$16, %rax
	movq	%rax, (%rdi)
	movq	8(%rdi), %rdi
	testq	%rdi, %rdi
	je	.L38
	movq	(%rdi), %rax
	call	*(%rax)
.L38:
	movq	%rbx, %rdi
	movl	$32, %esi
	popq	%rbx
	.cfi_def_cfa_offset 8
.LEHB0:
	jmp	_ZdlPvm@PLT
.LEHE0:
	.cfi_endproc
.LFE9461:
	.section	.gcc_except_table._ZNSt13__future_base13_State_baseV2D0Ev,"aG",@progbits,_ZNSt13__future_base13_State_baseV2D5Ev,comdat
.LLSDA9461:
	.byte	0xff
	.byte	0xff
	.byte	0x1
	.uleb128 .LLSDACSE9461-.LLSDACSB9461
.LLSDACSB9461:
	.uleb128 .LEHB0-.LFB9461
	.uleb128 .LEHE0-.LEHB0
	.uleb128 0
	.uleb128 0
.LLSDACSE9461:
	.section	.text._ZNSt13__future_base13_State_baseV2D0Ev,"axG",@progbits,_ZNSt13__future_base13_State_baseV2D5Ev,comdat
	.size	_ZNSt13__future_base13_State_baseV2D0Ev, .-_ZNSt13__future_base13_State_baseV2D0Ev
	.section	.text._ZNSt23_Sp_counted_ptr_inplaceIN7asiopal5TimerESaIvELN9__gnu_cxx12_Lock_policyE2EE10_M_destroyEv,"axG",@progbits,_ZNSt23_Sp_counted_ptr_inplaceIN7asiopal5TimerESaIvELN9__gnu_cxx12_Lock_policyE2EE10_M_destroyEv,comdat
	.align 2
	.p2align 4
	.weak	_ZNSt23_Sp_counted_ptr_inplaceIN7asiopal5TimerESaIvELN9__gnu_cxx12_Lock_policyE2EE10_M_destroyEv
	.type	_ZNSt23_Sp_counted_ptr_inplaceIN7asiopal5TimerESaIvELN9__gnu_cxx12_Lock_policyE2EE10_M_destroyEv, @function
_ZNSt23_Sp_counted_ptr_inplaceIN7asiopal5TimerESaIvELN9__gnu_cxx12_Lock_policyE2EE10_M_destroyEv:
.LFB9503:
	.cfi_startproc
	movl	$88, %esi
	jmp	_ZdlPvm@PLT
	.cfi_endproc
.LFE9503:
	.size	_ZNSt23_Sp_counted_ptr_inplaceIN7asiopal5TimerESaIvELN9__gnu_cxx12_Lock_policyE2EE10_M_destroyEv, .-_ZNSt23_Sp_counted_ptr_inplaceIN7asiopal5TimerESaIvELN9__gnu_cxx12_Lock_policyE2EE10_M_destroyEv
	.section	.text._ZNSt23_Sp_counted_ptr_inplaceINSt13__future_base13_State_baseV2ESaIvELN9__gnu_cxx12_Lock_policyE2EE10_M_destroyEv,"axG",@progbits,_ZNSt23_Sp_counted_ptr_inplaceINSt13__future_base13_State_baseV2ESaIvELN9__gnu_cxx12_Lock_policyE2EE10_M_destroyEv,comdat
	.align 2
	.p2align 4
	.weak	_ZNSt23_Sp_counted_ptr_inplaceINSt13__future_base13_State_baseV2ESaIvELN9__gnu_cxx12_Lock_policyE2EE10_M_destroyEv
	.type	_ZNSt23_Sp_counted_ptr_inplaceINSt13__future_base13_State_baseV2ESaIvELN9__gnu_cxx12_Lock_policyE2EE10_M_destroyEv, @function
_ZNSt23_Sp_counted_ptr_inplaceINSt13__future_base13_State_baseV2ESaIvELN9__gnu_cxx12_Lock_policyE2EE10_M_destroyEv:
.LFB9517:
	.cfi_startproc
	movl	$48, %esi
	jmp	_ZdlPvm@PLT
	.cfi_endproc
.LFE9517:
	.size	_ZNSt23_Sp_counted_ptr_inplaceINSt13__future_base13_State_baseV2ESaIvELN9__gnu_cxx12_Lock_policyE2EE10_M_destroyEv, .-_ZNSt23_Sp_counted_ptr_inplaceINSt13__future_base13_State_baseV2ESaIvELN9__gnu_cxx12_Lock_policyE2EE10_M_destroyEv
	.section	.text._ZN4asio6detail15system_categoryD2Ev,"axG",@progbits,_ZN4asio6detail15system_categoryD5Ev,comdat
	.align 2
	.p2align 4
	.weak	_ZN4asio6detail15system_categoryD2Ev
	.type	_ZN4asio6detail15system_categoryD2Ev, @function
_ZN4asio6detail15system_categoryD2Ev:
.LFB2290:
	.cfi_startproc
	movq	_ZTVN4asio6detail15system_categoryE@GOTPCREL(%rip), %rax
	addq	$16, %rax
	movq	%rax, (%rdi)
	jmp	_ZNSt3_V214error_categoryD2Ev@PLT
	.cfi_endproc
.LFE2290:
	.size	_ZN4asio6detail15system_categoryD2Ev, .-_ZN4asio6detail15system_categoryD2Ev
	.weak	_ZN4asio6detail15system_categoryD1Ev
	.set	_ZN4asio6detail15system_categoryD1Ev,_ZN4asio6detail15system_categoryD2Ev
	.section	.text._ZN4asio6detail15system_categoryD0Ev,"axG",@progbits,_ZN4asio6detail15system_categoryD5Ev,comdat
	.align 2
	.p2align 4
	.weak	_ZN4asio6detail15system_categoryD0Ev
	.type	_ZN4asio6detail15system_categoryD0Ev, @function
_ZN4asio6detail15system_categoryD0Ev:
.LFB2292:
	.cfi_startproc
	subq	$24, %rsp
	.cfi_def_cfa_offset 32
	movq	_ZTVN4asio6detail15system_categoryE@GOTPCREL(%rip), %rax
	movq	%rdi, 8(%rsp)
	addq	$16, %rax
	movq	%rax, (%rdi)
	call	_ZNSt3_V214error_categoryD2Ev@PLT
	movq	8(%rsp), %rdi
	movl	$8, %esi
	addq	$24, %rsp
	.cfi_def_cfa_offset 8
	jmp	_ZdlPvm@PLT
	.cfi_endproc
.LFE2292:
	.size	_ZN4asio6detail15system_categoryD0Ev, .-_ZN4asio6detail15system_categoryD0Ev
	.section	.text._ZN4asio5error6detail14netdb_categoryD2Ev,"axG",@progbits,_ZN4asio5error6detail14netdb_categoryD5Ev,comdat
	.align 2
	.p2align 4
	.weak	_ZN4asio5error6detail14netdb_categoryD2Ev
	.type	_ZN4asio5error6detail14netdb_categoryD2Ev, @function
_ZN4asio5error6detail14netdb_categoryD2Ev:
.LFB2329:
	.cfi_startproc
	movq	_ZTVN4asio5error6detail14netdb_categoryE@GOTPCREL(%rip), %rax
	addq	$16, %rax
	movq	%rax, (%rdi)
	jmp	_ZNSt3_V214error_categoryD2Ev@PLT
	.cfi_endproc
.LFE2329:
	.size	_ZN4asio5error6detail14netdb_categoryD2Ev, .-_ZN4asio5error6detail14netdb_categoryD2Ev
	.weak	_ZN4asio5error6detail14netdb_categoryD1Ev
	.set	_ZN4asio5error6detail14netdb_categoryD1Ev,_ZN4asio5error6detail14netdb_categoryD2Ev
	.section	.text._ZN4asio5error6detail14netdb_categoryD0Ev,"axG",@progbits,_ZN4asio5error6detail14netdb_categoryD5Ev,comdat
	.align 2
	.p2align 4
	.weak	_ZN4asio5error6detail14netdb_categoryD0Ev
	.type	_ZN4asio5error6detail14netdb_categoryD0Ev, @function
_ZN4asio5error6detail14netdb_categoryD0Ev:
.LFB2331:
	.cfi_startproc
	subq	$24, %rsp
	.cfi_def_cfa_offset 32
	movq	_ZTVN4asio5error6detail14netdb_categoryE@GOTPCREL(%rip), %rax
	movq	%rdi, 8(%rsp)
	addq	$16, %rax
	movq	%rax, (%rdi)
	call	_ZNSt3_V214error_categoryD2Ev@PLT
	movq	8(%rsp), %rdi
	movl	$8, %esi
	addq	$24, %rsp
	.cfi_def_cfa_offset 8
	jmp	_ZdlPvm@PLT
	.cfi_endproc
.LFE2331:
	.size	_ZN4asio5error6detail14netdb_categoryD0Ev, .-_ZN4asio5error6detail14netdb_categoryD0Ev
	.section	.text._ZN4asio5error6detail17addrinfo_categoryD2Ev,"axG",@progbits,_ZN4asio5error6detail17addrinfo_categoryD5Ev,comdat
	.align 2
	.p2align 4
	.weak	_ZN4asio5error6detail17addrinfo_categoryD2Ev
	.type	_ZN4asio5error6detail17addrinfo_categoryD2Ev, @function
_ZN4asio5error6detail17addrinfo_categoryD2Ev:
.LFB2339:
	.cfi_startproc
	movq	_ZTVN4asio5error6detail17addrinfo_categoryE@GOTPCREL(%rip), %rax
	addq	$16, %rax
	movq	%rax, (%rdi)
	jmp	_ZNSt3_V214error_categoryD2Ev@PLT
	.cfi_endproc
.LFE2339:
	.size	_ZN4asio5error6detail17addrinfo_categoryD2Ev, .-_ZN4asio5error6detail17addrinfo_categoryD2Ev
	.weak	_ZN4asio5error6detail17addrinfo_categoryD1Ev
	.set	_ZN4asio5error6detail17addrinfo_categoryD1Ev,_ZN4asio5error6detail17addrinfo_categoryD2Ev
	.section	.text._ZN4asio5error6detail17addrinfo_categoryD0Ev,"axG",@progbits,_ZN4asio5error6detail17addrinfo_categoryD5Ev,comdat
	.align 2
	.p2align 4
	.weak	_ZN4asio5error6detail17addrinfo_categoryD0Ev
	.type	_ZN4asio5error6detail17addrinfo_categoryD0Ev, @function
_ZN4asio5error6detail17addrinfo_categoryD0Ev:
.LFB2341:
	.cfi_startproc
	subq	$24, %rsp
	.cfi_def_cfa_offset 32
	movq	_ZTVN4asio5error6detail17addrinfo_categoryE@GOTPCREL(%rip), %rax
	movq	%rdi, 8(%rsp)
	addq	$16, %rax
	movq	%rax, (%rdi)
	call	_ZNSt3_V214error_categoryD2Ev@PLT
	movq	8(%rsp), %rdi
	movl	$8, %esi
	addq	$24, %rsp
	.cfi_def_cfa_offset 8
	jmp	_ZdlPvm@PLT
	.cfi_endproc
.LFE2341:
	.size	_ZN4asio5error6detail17addrinfo_categoryD0Ev, .-_ZN4asio5error6detail17addrinfo_categoryD0Ev
	.section	.text._ZN4asio5error6detail13misc_categoryD2Ev,"axG",@progbits,_ZN4asio5error6detail13misc_categoryD5Ev,comdat
	.align 2
	.p2align 4
	.weak	_ZN4asio5error6detail13misc_categoryD2Ev
	.type	_ZN4asio5error6detail13misc_categoryD2Ev, @function
_ZN4asio5error6detail13misc_categoryD2Ev:
.LFB2349:
	.cfi_startproc
	movq	_ZTVN4asio5error6detail13misc_categoryE@GOTPCREL(%rip), %rax
	addq	$16, %rax
	movq	%rax, (%rdi)
	jmp	_ZNSt3_V214error_categoryD2Ev@PLT
	.cfi_endproc
.LFE2349:
	.size	_ZN4asio5error6detail13misc_categoryD2Ev, .-_ZN4asio5error6detail13misc_categoryD2Ev
	.weak	_ZN4asio5error6detail13misc_categoryD1Ev
	.set	_ZN4asio5error6detail13misc_categoryD1Ev,_ZN4asio5error6detail13misc_categoryD2Ev
	.section	.text._ZN4asio5error6detail13misc_categoryD0Ev,"axG",@progbits,_ZN4asio5error6detail13misc_categoryD5Ev,comdat
	.align 2
	.p2align 4
	.weak	_ZN4asio5error6detail13misc_categoryD0Ev
	.type	_ZN4asio5error6detail13misc_categoryD0Ev, @function
_ZN4asio5error6detail13misc_categoryD0Ev:
.LFB2351:
	.cfi_startproc
	subq	$24, %rsp
	.cfi_def_cfa_offset 32
	movq	_ZTVN4asio5error6detail13misc_categoryE@GOTPCREL(%rip), %rax
	movq	%rdi, 8(%rsp)
	addq	$16, %rax
	movq	%rax, (%rdi)
	call	_ZNSt3_V214error_categoryD2Ev@PLT
	movq	8(%rsp), %rdi
	movl	$8, %esi
	addq	$24, %rsp
	.cfi_def_cfa_offset 8
	jmp	_ZdlPvm@PLT
	.cfi_endproc
.LFE2351:
	.size	_ZN4asio5error6detail13misc_categoryD0Ev, .-_ZN4asio5error6detail13misc_categoryD0Ev
	.section	.text._ZNSt13__future_base7_ResultIbED2Ev,"axG",@progbits,_ZNSt13__future_base7_ResultIbED5Ev,comdat
	.align 2
	.p2align 4
	.weak	_ZNSt13__future_base7_ResultIbED2Ev
	.type	_ZNSt13__future_base7_ResultIbED2Ev, @function
_ZNSt13__future_base7_ResultIbED2Ev:
.LFB9535:
	.cfi_startproc
	movq	_ZTVNSt13__future_base7_ResultIbEE@GOTPCREL(%rip), %rax
	addq	$16, %rax
	movq	%rax, (%rdi)
	jmp	_ZNSt13__future_base12_Result_baseD2Ev@PLT
	.cfi_endproc
.LFE9535:
	.size	_ZNSt13__future_base7_ResultIbED2Ev, .-_ZNSt13__future_base7_ResultIbED2Ev
	.weak	_ZNSt13__future_base7_ResultIbED1Ev
	.set	_ZNSt13__future_base7_ResultIbED1Ev,_ZNSt13__future_base7_ResultIbED2Ev
	.section	.text._ZNSt13__future_base7_ResultIbED0Ev,"axG",@progbits,_ZNSt13__future_base7_ResultIbED5Ev,comdat
	.align 2
	.p2align 4
	.weak	_ZNSt13__future_base7_ResultIbED0Ev
	.type	_ZNSt13__future_base7_ResultIbED0Ev, @function
_ZNSt13__future_base7_ResultIbED0Ev:
.LFB9537:
	.cfi_startproc
	subq	$24, %rsp
	.cfi_def_cfa_offset 32
	movq	_ZTVNSt13__future_base7_ResultIbEE@GOTPCREL(%rip), %rax
	movq	%rdi, 8(%rsp)
	addq	$16, %rax
	movq	%rax, (%rdi)
	call	_ZNSt13__future_base12_Result_baseD2Ev@PLT
	movq	8(%rsp), %rdi
	movl	$24, %esi
	addq	$24, %rsp
	.cfi_def_cfa_offset 8
	jmp	_ZdlPvm@PLT
	.cfi_endproc
.LFE9537:
	.size	_ZNSt13__future_base7_ResultIbED0Ev, .-_ZNSt13__future_base7_ResultIbED0Ev
	.text
	.align 2
	.p2align 4
	.globl	_ZN7asiopal8Executor7GetTimeEv
	.type	_ZN7asiopal8Executor7GetTimeEv, @function
_ZN7asiopal8Executor7GetTimeEv:
.LFB6960:
	.cfi_startproc
	subq	$24, %rsp
	.cfi_def_cfa_offset 32
	call	_ZNSt6chrono3_V212steady_clock3nowEv@PLT
	leaq	8(%rsp), %rdi
	movq	%rax, 8(%rsp)
	call	_ZN7asiopal15TimeConversions7ConvertERKNSt6chrono10time_pointINS1_3_V212steady_clockENS1_8durationIlSt5ratioILl1ELl1000000000EEEEEE@PLT
	addq	$24, %rsp
	.cfi_def_cfa_offset 8
	ret
	.cfi_endproc
.LFE6960:
	.size	_ZN7asiopal8Executor7GetTimeEv, .-_ZN7asiopal8Executor7GetTimeEv
	.section	.text._ZNSt13__future_base13_State_baseV29_M_do_setEPSt8functionIFSt10unique_ptrINS_12_Result_baseENS3_8_DeleterEEvEEPb,"axG",@progbits,_ZNSt13__future_base13_State_baseV29_M_do_setEPSt8functionIFSt10unique_ptrINS_12_Result_baseENS3_8_DeleterEEvEEPb,comdat
	.align 2
	.p2align 4
	.weak	_ZNSt13__future_base13_State_baseV29_M_do_setEPSt8functionIFSt10unique_ptrINS_12_Result_baseENS3_8_DeleterEEvEEPb
	.type	_ZNSt13__future_base13_State_baseV29_M_do_setEPSt8functionIFSt10unique_ptrINS_12_Result_baseENS3_8_DeleterEEvEEPb, @function
_ZNSt13__future_base13_State_baseV29_M_do_setEPSt8functionIFSt10unique_ptrINS_12_Result_baseENS3_8_DeleterEEvEEPb:
.LFB6709:
	.cfi_startproc
	.cfi_personality 0x9b,DW.ref.__gxx_personality_v0
	.cfi_lsda 0x1b,.LLSDA6709
	pushq	%rbp
	.cfi_def_cfa_offset 16
	.cfi_offset 6, -16
	pushq	%rbx
	.cfi_def_cfa_offset 24
	.cfi_offset 3, -24
	subq	$24, %rsp
	.cfi_def_cfa_offset 48
	cmpq	$0, 16(%rsi)
	je	.L69
	movq	%rdi, %rbx
	movq	%rdx, %rbp
	leaq	8(%rsp), %rdi
.LEHB1:
	call	*24(%rsi)
.LEHE1:
	movq	8(%rbx), %rdi
	movq	8(%rsp), %rax
	movb	$1, 0(%rbp)
	movq	%rdi, 8(%rsp)
	movq	%rax, 8(%rbx)
	testq	%rdi, %rdi
	je	.L62
	movq	(%rdi), %rax
	call	*(%rax)
.L62:
	addq	$24, %rsp
	.cfi_remember_state
	.cfi_def_cfa_offset 24
	popq	%rbx
	.cfi_def_cfa_offset 16
	popq	%rbp
	.cfi_def_cfa_offset 8
	ret
.L69:
	.cfi_restore_state
.LEHB2:
	call	_ZSt25__throw_bad_function_callv@PLT
.LEHE2:
	.cfi_endproc
.LFE6709:
	.section	.gcc_except_table._ZNSt13__future_base13_State_baseV29_M_do_setEPSt8functionIFSt10unique_ptrINS_12_Result_baseENS3_8_DeleterEEvEEPb,"aG",@progbits,_ZNSt13__future_base13_State_baseV29_M_do_setEPSt8functionIFSt10unique_ptrINS_12_Result_baseENS3_8_DeleterEEvEEPb,comdat
.LLSDA6709:
	.byte	0xff
	.byte	0xff
	.byte	0x1
	.uleb128 .LLSDACSE6709-.LLSDACSB6709
.LLSDACSB6709:
	.uleb128 .LEHB1-.LFB6709
	.uleb128 .LEHE1-.LEHB1
	.uleb128 0
	.uleb128 0
	.uleb128 .LEHB2-.LFB6709
	.uleb128 .LEHE2-.LEHB2
	.uleb128 0
	.uleb128 0
.LLSDACSE6709:
	.section	.text._ZNSt13__future_base13_State_baseV29_M_do_setEPSt8functionIFSt10unique_ptrINS_12_Result_baseENS3_8_DeleterEEvEEPb,"axG",@progbits,_ZNSt13__future_base13_State_baseV29_M_do_setEPSt8functionIFSt10unique_ptrINS_12_Result_baseENS3_8_DeleterEEvEEPb,comdat
	.size	_ZNSt13__future_base13_State_baseV29_M_do_setEPSt8functionIFSt10unique_ptrINS_12_Result_baseENS3_8_DeleterEEvEEPb, .-_ZNSt13__future_base13_State_baseV29_M_do_setEPSt8functionIFSt10unique_ptrINS_12_Result_baseENS3_8_DeleterEEvEEPb
	.section	.text._ZNSt17_Function_handlerIFSt10unique_ptrINSt13__future_base12_Result_baseENS2_8_DeleterEEvENS1_13_State_baseV27_SetterIbObEEE10_M_managerERSt9_Any_dataRKSB_St18_Manager_operation,"axG",@progbits,_ZNSt17_Function_handlerIFSt10unique_ptrINSt13__future_base12_Result_baseENS2_8_DeleterEEvENS1_13_State_baseV27_SetterIbObEEE10_M_managerERSt9_Any_dataRKSB_St18_Manager_operation,comdat
	.p2align 4
	.weak	_ZNSt17_Function_handlerIFSt10unique_ptrINSt13__future_base12_Result_baseENS2_8_DeleterEEvENS1_13_State_baseV27_SetterIbObEEE10_M_managerERSt9_Any_dataRKSB_St18_Manager_operation
	.type	_ZNSt17_Function_handlerIFSt10unique_ptrINSt13__future_base12_Result_baseENS2_8_DeleterEEvENS1_13_State_baseV27_SetterIbObEEE10_M_managerERSt9_Any_dataRKSB_St18_Manager_operation, @function
_ZNSt17_Function_handlerIFSt10unique_ptrINSt13__future_base12_Result_baseENS2_8_DeleterEEvENS1_13_State_baseV27_SetterIbObEEE10_M_managerERSt9_Any_dataRKSB_St18_Manager_operation:
.LFB8599:
	.cfi_startproc
	testl	%edx, %edx
	je	.L71
	cmpl	$1, %edx
	jne	.L76
	movq	%rsi, (%rdi)
.L74:
	xorl	%eax, %eax
	ret
	.p2align 4,,10
	.p2align 3
.L76:
	cmpl	$2, %edx
	jne	.L74
	movdqu	(%rsi), %xmm0
	movups	%xmm0, (%rdi)
	jmp	.L74
	.p2align 4,,10
	.p2align 3
.L71:
	movq	_ZTINSt13__future_base13_State_baseV27_SetterIbObEE@GOTPCREL(%rip), %rax
	movq	%rax, (%rdi)
	xorl	%eax, %eax
	ret
	.cfi_endproc
.LFE8599:
	.size	_ZNSt17_Function_handlerIFSt10unique_ptrINSt13__future_base12_Result_baseENS2_8_DeleterEEvENS1_13_State_baseV27_SetterIbObEEE10_M_managerERSt9_Any_dataRKSB_St18_Manager_operation, .-_ZNSt17_Function_handlerIFSt10unique_ptrINSt13__future_base12_Result_baseENS2_8_DeleterEEvENS1_13_State_baseV27_SetterIbObEEE10_M_managerERSt9_Any_dataRKSB_St18_Manager_operation
	.section	.text._ZNSt13__future_base7_ResultIbE10_M_destroyEv,"axG",@progbits,_ZNSt13__future_base7_ResultIbE10_M_destroyEv,comdat
	.align 2
	.p2align 4
	.weak	_ZNSt13__future_base7_ResultIbE10_M_destroyEv
	.type	_ZNSt13__future_base7_ResultIbE10_M_destroyEv, @function
_ZNSt13__future_base7_ResultIbE10_M_destroyEv:
.LFB9533:
	.cfi_startproc
	movq	(%rdi), %rax
	movq	16(%rax), %rax
	cmpq	_ZNSt13__future_base7_ResultIbED0Ev@GOTPCREL(%rip), %rax
	jne	.L78
	subq	$24, %rsp
	.cfi_def_cfa_offset 32
	movq	_ZTVNSt13__future_base7_ResultIbEE@GOTPCREL(%rip), %rax
	movq	%rdi, 8(%rsp)
	addq	$16, %rax
	movq	%rax, (%rdi)
	call	_ZNSt13__future_base12_Result_baseD2Ev@PLT
	movq	8(%rsp), %rdi
	movl	$24, %esi
	addq	$24, %rsp
	.cfi_def_cfa_offset 8
	jmp	_ZdlPvm@PLT
	.p2align 4,,10
	.p2align 3
.L78:
	jmp	*%rax
	.cfi_endproc
.LFE9533:
	.size	_ZNSt13__future_base7_ResultIbE10_M_destroyEv, .-_ZNSt13__future_base7_ResultIbE10_M_destroyEv
	.section	.text._ZN4asio6detail14strand_serviceD2Ev,"axG",@progbits,_ZN4asio6detail14strand_serviceD5Ev,comdat
	.align 2
	.p2align 4
	.weak	_ZN4asio6detail14strand_serviceD2Ev
	.type	_ZN4asio6detail14strand_serviceD2Ev, @function
_ZN4asio6detail14strand_serviceD2Ev:
.LFB9463:
	.cfi_startproc
	.cfi_personality 0x9b,DW.ref.__gxx_personality_v0
	.cfi_lsda 0x1b,.LLSDA9463
	pushq	%r15
	.cfi_def_cfa_offset 16
	.cfi_offset 15, -16
	pushq	%r14
	.cfi_def_cfa_offset 24
	.cfi_offset 14, -24
	pushq	%r13
	.cfi_def_cfa_offset 32
	.cfi_offset 13, -32
	movq	%rdi, %r13
	pushq	%r12
	.cfi_def_cfa_offset 40
	.cfi_offset 12, -40
	leaq	80(%rdi), %r12
	pushq	%rbp
	.cfi_def_cfa_offset 48
	.cfi_offset 6, -48
	leaq	1624(%rdi), %rbp
	pushq	%rbx
	.cfi_def_cfa_offset 56
	.cfi_offset 3, -56
	subq	$40, %rsp
	.cfi_def_cfa_offset 96
	movq	_ZTVN4asio6detail14strand_serviceE@GOTPCREL(%rip), %rax
	addq	$16, %rax
	movq	%rax, (%rdi)
	.p2align 4
	.p2align 3
.L92:
	movq	0(%rbp), %r15
	testq	%r15, %r15
	je	.L83
	movq	88(%r15), %rsi
	testq	%rsi, %rsi
	je	.L84
	movq	%rsi, 8(%rsp)
	call	_ZNSt3_V215system_categoryEv@PLT
	movq	8(%rsp), %rsi
	movq	%rax, %r14
	jmp	.L87
	.p2align 4,,10
	.p2align 3
.L85:
	movq	$0, (%rsi)
	movq	8(%rsi), %rax
	xorl	%ecx, %ecx
	xorl	%edi, %edi
	movl	$0, 16(%rsp)
	leaq	16(%rsp), %rdx
	movq	%r14, 24(%rsp)
	call	*%rax
	movq	88(%r15), %rsi
	testq	%rsi, %rsi
	je	.L84
.L87:
	movq	(%rsi), %rax
	movq	%rax, 88(%r15)
	testq	%rax, %rax
	jne	.L85
	movq	$0, 96(%r15)
	jmp	.L85
	.p2align 4,,10
	.p2align 3
.L88:
	leaq	24(%r15), %rdi
	call	pthread_mutex_destroy@PLT
	movl	$104, %esi
	movq	%r15, %rdi
	call	_ZdlPvm@PLT
.L83:
	subq	$8, %rbp
	cmpq	%rbp, %r12
	jne	.L92
	addq	$40, %rsp
	.cfi_remember_state
	.cfi_def_cfa_offset 56
	leaq	48(%r13), %rdi
	popq	%rbx
	.cfi_def_cfa_offset 48
	popq	%rbp
	.cfi_def_cfa_offset 40
	popq	%r12
	.cfi_def_cfa_offset 32
	popq	%r13
	.cfi_def_cfa_offset 24
	popq	%r14
	.cfi_def_cfa_offset 16
	popq	%r15
	.cfi_def_cfa_offset 8
.LEHB3:
	jmp	pthread_mutex_destroy@PLT
.LEHE3:
	.p2align 4,,10
	.p2align 3
.L84:
	.cfi_restore_state
	movq	72(%r15), %rsi
	testq	%rsi, %rsi
	je	.L88
	movq	%rsi, 8(%rsp)
	call	_ZNSt3_V215system_categoryEv@PLT
	movq	8(%rsp), %rsi
	movq	%rax, %r14
	jmp	.L91
	.p2align 4,,10
	.p2align 3
.L89:
	movq	$0, (%rsi)
	movq	8(%rsi), %rax
	xorl	%ecx, %ecx
	xorl	%edi, %edi
	movl	$0, 16(%rsp)
	leaq	16(%rsp), %rdx
	movq	%r14, 24(%rsp)
	call	*%rax
	movq	72(%r15), %rsi
	testq	%rsi, %rsi
	je	.L88
.L91:
	movq	(%rsi), %rax
	movq	%rax, 72(%r15)
	testq	%rax, %rax
	jne	.L89
	movq	$0, 80(%r15)
	jmp	.L89
	.cfi_endproc
.LFE9463:
	.section	.gcc_except_table._ZN4asio6detail14strand_serviceD2Ev,"aG",@progbits,_ZN4asio6detail14strand_serviceD5Ev,comdat
.LLSDA9463:
	.byte	0xff
	.byte	0xff
	.byte	0x1
	.uleb128 .LLSDACSE9463-.LLSDACSB9463
.LLSDACSB9463:
	.uleb128 .LEHB3-.LFB9463
	.uleb128 .LEHE3-.LEHB3
	.uleb128 0
	.uleb128 0
.LLSDACSE9463:
	.section	.text._ZN4asio6detail14strand_serviceD2Ev,"axG",@progbits,_ZN4asio6detail14strand_serviceD5Ev,comdat
	.size	_ZN4asio6detail14strand_serviceD2Ev, .-_ZN4asio6detail14strand_serviceD2Ev
	.weak	_ZN4asio6detail14strand_serviceD1Ev
	.set	_ZN4asio6detail14strand_serviceD1Ev,_ZN4asio6detail14strand_serviceD2Ev
	.section	.text._ZNSt23_Sp_counted_ptr_inplaceINSt13__future_base13_State_baseV2ESaIvELN9__gnu_cxx12_Lock_policyE2EE14_M_get_deleterERKSt9type_info,"axG",@progbits,_ZNSt23_Sp_counted_ptr_inplaceINSt13__future_base13_State_baseV2ESaIvELN9__gnu_cxx12_Lock_policyE2EE14_M_get_deleterERKSt9type_info,comdat
	.align 2
	.p2align 4
	.weak	_ZNSt23_Sp_counted_ptr_inplaceINSt13__future_base13_State_baseV2ESaIvELN9__gnu_cxx12_Lock_policyE2EE14_M_get_deleterERKSt9type_info
	.type	_ZNSt23_Sp_counted_ptr_inplaceINSt13__future_base13_State_baseV2ESaIvELN9__gnu_cxx12_Lock_policyE2EE14_M_get_deleterERKSt9type_info, @function
_ZNSt23_Sp_counted_ptr_inplaceINSt13__future_base13_State_baseV2ESaIvELN9__gnu_cxx12_Lock_policyE2EE14_M_get_deleterERKSt9type_info:
.LFB9518:
	.cfi_startproc
	cmpq	_ZZNSt19_Sp_make_shared_tag5_S_tiEvE5__tag@GOTPCREL(%rip), %rsi
	movq	%rdi, %rcx
	je	.L116
	movq	8(%rsi), %rdi
	movq	_ZTSSt19_Sp_make_shared_tag@GOTPCREL(%rip), %rsi
	cmpq	%rsi, %rdi
	je	.L116
	xorl	%edx, %edx
	cmpb	$42, (%rdi)
	je	.L117
	subq	$24, %rsp
	.cfi_def_cfa_offset 32
	movq	%rdx, (%rsp)
	movq	%rcx, 8(%rsp)
	call	strcmp@PLT
	xorl	%edx, %edx
	movq	8(%rsp), %rcx
	testl	%eax, %eax
	jne	.L110
	leaq	16(%rcx), %rdx
.L110:
	movq	%rdx, %rax
	addq	$24, %rsp
	.cfi_def_cfa_offset 8
	ret
	.p2align 4,,10
	.p2align 3
.L116:
	leaq	16(%rcx), %rdx
.L117:
	movq	%rdx, %rax
	ret
	.cfi_endproc
.LFE9518:
	.size	_ZNSt23_Sp_counted_ptr_inplaceINSt13__future_base13_State_baseV2ESaIvELN9__gnu_cxx12_Lock_policyE2EE14_M_get_deleterERKSt9type_info, .-_ZNSt23_Sp_counted_ptr_inplaceINSt13__future_base13_State_baseV2ESaIvELN9__gnu_cxx12_Lock_policyE2EE14_M_get_deleterERKSt9type_info
	.section	.text._ZNSt23_Sp_counted_ptr_inplaceIN7asiopal5TimerESaIvELN9__gnu_cxx12_Lock_policyE2EE14_M_get_deleterERKSt9type_info,"axG",@progbits,_ZNSt23_Sp_counted_ptr_inplaceIN7asiopal5TimerESaIvELN9__gnu_cxx12_Lock_policyE2EE14_M_get_deleterERKSt9type_info,comdat
	.align 2
	.p2align 4
	.weak	_ZNSt23_Sp_counted_ptr_inplaceIN7asiopal5TimerESaIvELN9__gnu_cxx12_Lock_policyE2EE14_M_get_deleterERKSt9type_info
	.type	_ZNSt23_Sp_counted_ptr_inplaceIN7asiopal5TimerESaIvELN9__gnu_cxx12_Lock_policyE2EE14_M_get_deleterERKSt9type_info, @function
_ZNSt23_Sp_counted_ptr_inplaceIN7asiopal5TimerESaIvELN9__gnu_cxx12_Lock_policyE2EE14_M_get_deleterERKSt9type_info:
.LFB9504:
	.cfi_startproc
	cmpq	_ZZNSt19_Sp_make_shared_tag5_S_tiEvE5__tag@GOTPCREL(%rip), %rsi
	movq	%rdi, %rcx
	je	.L126
	movq	8(%rsi), %rdi
	movq	_ZTSSt19_Sp_make_shared_tag@GOTPCREL(%rip), %rsi
	cmpq	%rsi, %rdi
	je	.L126
	xorl	%edx, %edx
	cmpb	$42, (%rdi)
	je	.L127
	subq	$24, %rsp
	.cfi_def_cfa_offset 32
	movq	%rdx, (%rsp)
	movq	%rcx, 8(%rsp)
	call	strcmp@PLT
	xorl	%edx, %edx
	movq	8(%rsp), %rcx
	testl	%eax, %eax
	jne	.L120
	leaq	16(%rcx), %rdx
.L120:
	movq	%rdx, %rax
	addq	$24, %rsp
	.cfi_def_cfa_offset 8
	ret
	.p2align 4,,10
	.p2align 3
.L126:
	leaq	16(%rcx), %rdx
.L127:
	movq	%rdx, %rax
	ret
	.cfi_endproc
.LFE9504:
	.size	_ZNSt23_Sp_counted_ptr_inplaceIN7asiopal5TimerESaIvELN9__gnu_cxx12_Lock_policyE2EE14_M_get_deleterERKSt9type_info, .-_ZNSt23_Sp_counted_ptr_inplaceIN7asiopal5TimerESaIvELN9__gnu_cxx12_Lock_policyE2EE14_M_get_deleterERKSt9type_info
	.section	.text._ZN4asio6detail14strand_service16shutdown_serviceEv,"axG",@progbits,_ZN4asio6detail14strand_service16shutdown_serviceEv,comdat
	.align 2
	.p2align 4
	.weak	_ZN4asio6detail14strand_service16shutdown_serviceEv
	.type	_ZN4asio6detail14strand_service16shutdown_serviceEv, @function
_ZN4asio6detail14strand_service16shutdown_serviceEv:
.LFB6404:
	.cfi_startproc
	.cfi_personality 0x9b,DW.ref.__gxx_personality_v0
	.cfi_lsda 0x1b,.LLSDA6404
	pushq	%r12
	.cfi_def_cfa_offset 16
	.cfi_offset 12, -16
	pushq	%rbp
	.cfi_def_cfa_offset 24
	.cfi_offset 6, -24
	leaq	48(%rdi), %rbp
	pushq	%rbx
	.cfi_def_cfa_offset 32
	.cfi_offset 3, -32
	movq	%rdi, %rbx
	movq	%rbp, %rdi
	subq	$16, %rsp
	.cfi_def_cfa_offset 48
	call	pthread_mutex_lock@PLT
	leaq	88(%rbx), %rdx
	xorl	%ecx, %ecx
	pxor	%xmm0, %xmm0
	leaq	1632(%rbx), %rdi
	xorl	%ebx, %ebx
	jmp	.L135
	.p2align 4,,10
	.p2align 3
.L156:
	movq	%rsi, (%rcx)
.L133:
	movq	80(%rax), %rcx
	movups	%xmm0, 72(%rax)
.L132:
	movq	88(%rax), %rsi
	testq	%rsi, %rsi
	je	.L131
	testq	%rcx, %rcx
	je	.L139
	movq	%rsi, (%rcx)
.L134:
	movq	96(%rax), %rcx
	movups	%xmm0, 88(%rax)
.L131:
	addq	$8, %rdx
	cmpq	%rdx, %rdi
	je	.L155
.L135:
	movq	(%rdx), %rax
	testq	%rax, %rax
	je	.L131
	movq	72(%rax), %rsi
	testq	%rsi, %rsi
	je	.L132
	testq	%rcx, %rcx
	jne	.L156
	movq	%rsi, %rbx
	jmp	.L133
	.p2align 4,,10
	.p2align 3
.L139:
	movq	%rsi, %rbx
	jmp	.L134
.L155:
	movq	%rbp, %rdi
	call	pthread_mutex_unlock@PLT
	testq	%rbx, %rbx
	je	.L130
	call	_ZNSt3_V215system_categoryEv@PLT
	movq	%rsp, %rbp
	movq	%rax, %r12
	.p2align 4
	.p2align 3
.L137:
	movq	%rbx, %rsi
	movq	(%rbx), %rbx
	xorl	%ecx, %ecx
	xorl	%edi, %edi
	movq	$0, (%rsi)
	movq	8(%rsi), %rax
	movq	%rbp, %rdx
	movl	$0, (%rsp)
	movq	%r12, 8(%rsp)
	call	*%rax
	testq	%rbx, %rbx
	jne	.L137
.L130:
	addq	$16, %rsp
	.cfi_def_cfa_offset 32
	popq	%rbx
	.cfi_def_cfa_offset 24
	popq	%rbp
	.cfi_def_cfa_offset 16
	popq	%r12
	.cfi_def_cfa_offset 8
	ret
	.cfi_endproc
.LFE6404:
	.section	.gcc_except_table._ZN4asio6detail14strand_service16shutdown_serviceEv,"aG",@progbits,_ZN4asio6detail14strand_service16shutdown_serviceEv,comdat
.LLSDA6404:
	.byte	0xff
	.byte	0xff
	.byte	0x1
	.uleb128 .LLSDACSE6404-.LLSDACSB6404
.LLSDACSB6404:
.LLSDACSE6404:
	.section	.text._ZN4asio6detail14strand_service16shutdown_serviceEv,"axG",@progbits,_ZN4asio6detail14strand_service16shutdown_serviceEv,comdat
	.size	_ZN4asio6detail14strand_service16shutdown_serviceEv, .-_ZN4asio6detail14strand_service16shutdown_serviceEv
	.section	.text.unlikely,"ax",@progbits
.LCOLDB4:
	.text
.LHOTB4:
	.p2align 4
	.type	_ZN4asio6detail18completion_handlerIZN7asiopal8Executor10BlockUntilERKSt8functionIFvvEEEUlvE_E11do_completeEPNS0_15task_io_serviceEPNS0_25task_io_service_operationERKSt10error_codem, @function
_ZN4asio6detail18completion_handlerIZN7asiopal8Executor10BlockUntilERKSt8functionIFvvEEEUlvE_E11do_completeEPNS0_15task_io_serviceEPNS0_25task_io_service_operationERKSt10error_codem:
.LFB8794:
	.cfi_startproc
	.cfi_personality 0x9b,DW.ref.__gxx_personality_v0
	.cfi_lsda 0x1b,.LLSDA8794
	pushq	%r13
	.cfi_def_cfa_offset 16
	.cfi_offset 13, -16
	movq	%rdi, %r13
	pushq	%r12
	.cfi_def_cfa_offset 24
	.cfi_offset 12, -24
	pushq	%rbp
	.cfi_def_cfa_offset 32
	.cfi_offset 6, -32
	pushq	%rbx
	.cfi_def_cfa_offset 40
	.cfi_offset 3, -40
	movq	%rsi, %rbx
	subq	$168, %rsp
	.cfi_def_cfa_offset 208
	movq	24(%rsi), %rbp
	movq	32(%rsi), %r12
	data16	leaq	_ZN4asio6detail15keyword_tss_ptrINS0_10call_stackINS0_15task_io_serviceENS0_27task_io_service_thread_infoEE7contextEE6value_E@tlsgd(%rip), %rdi
	.value	0x6666
	rex64
	call	__tls_get_addr@PLT
	movq	(%rax), %rax
	testq	%rax, %rax
	je	.L202
	movq	8(%rax), %rax
	testq	%rax, %rax
	je	.L202
	cmpq	$0, (%rax)
	je	.L203
.L202:
	movq	%rbx, %rdi
	call	_ZdlPv@PLT
.L201:
	testq	%r13, %r13
	je	.L157
	movq	_ZNSt17_Function_handlerIFSt10unique_ptrINSt13__future_base12_Result_baseENS2_8_DeleterEEvENS1_13_State_baseV27_SetterIbObEEE10_M_managerERSt9_Any_dataRKSB_St18_Manager_operation@GOTPCREL(%rip), %xmm2
	leaq	80(%rsp), %rax
	movhps	_ZNSt17_Function_handlerIFSt10unique_ptrINSt13__future_base12_Result_baseENS2_8_DeleterEEvENS1_13_State_baseV27_SetterIbObEEE9_M_invokeERKSt9_Any_data@GOTPCREL(%rip), %xmm2
	movq	%rax, %xmm1
	leaq	56(%rsp), %rax
	movq	%rax, %xmm3
	leaq	64(%rsp), %rax
	movq	%rax, %xmm0
	leaq	72(%rsp), %rax
	punpcklqdq	%xmm3, %xmm1
	movq	%rax, %xmm4
	punpcklqdq	%xmm4, %xmm0
	cmpq	$0, 16(%rbp)
	je	.L204
	movaps	%xmm2, 32(%rsp)
	movq	%rbp, %rdi
	movaps	%xmm0, 16(%rsp)
	movaps	%xmm1, (%rsp)
.LEHB4:
	call	*24(%rbp)
.LEHE4:
	movq	(%r12), %rbx
	movb	$1, 54(%rsp)
	testq	%rbx, %rbx
	je	.L195
	leaq	54(%rsp), %rax
	movdqa	(%rsp), %xmm1
	leaq	96(%rsp), %rbp
	movdqa	16(%rsp), %xmm0
	movq	%rax, 104(%rsp)
	leaq	55(%rsp), %rax
	movdqa	32(%rsp), %xmm2
	movq	%rax, 72(%rsp)
	movq	_ZNSt13__future_base13_State_baseV29_M_do_setEPSt8functionIFSt10unique_ptrINS_12_Result_baseENS3_8_DeleterEEvEEPb@GOTPCREL(%rip), %rax
	movaps	%xmm2, 112(%rsp)
	movaps	%xmm1, 128(%rsp)
	movaps	%xmm0, 144(%rsp)
	movq	%r12, 96(%rsp)
	movb	$0, 55(%rsp)
	movq	%rbp, 64(%rsp)
	movq	%rbx, 56(%rsp)
	movq	%rax, 80(%rsp)
	movq	$0, 88(%rsp)
	data16	leaq	_ZSt15__once_callable@tlsgd(%rip), %rdi
	.value	0x6666
	rex64
	call	__tls_get_addr@PLT
	leaq	128(%rsp), %rdx
	movq	%rdx, (%rax)
	data16	leaq	_ZSt11__once_call@tlsgd(%rip), %rdi
	.value	0x6666
	rex64
	call	__tls_get_addr@PLT
	movq	_ZZNSt9once_flag18_Prepare_executionC4IZSt9call_onceIMNSt13__future_base13_State_baseV2EFvPSt8functionIFSt10unique_ptrINS3_12_Result_baseENS7_8_DeleterEEvEEPbEJPS4_SC_SD_EEvRS_OT_DpOT0_EUlvE_EERSI_ENUlvE_4_FUNEv@GOTPCREL(%rip), %rdx
	movq	__once_proxy@GOTPCREL(%rip), %rsi
	leaq	24(%rbx), %rdi
	movq	%rdx, (%rax)
.LEHB5:
	call	pthread_once@PLT
.LEHE5:
	testl	%eax, %eax
	jne	.L196
	data16	leaq	_ZSt15__once_callable@tlsgd(%rip), %rdi
	.value	0x6666
	rex64
	call	__tls_get_addr@PLT
	movq	$0, (%rax)
	data16	leaq	_ZSt11__once_call@tlsgd(%rip), %rdi
	.value	0x6666
	rex64
	call	__tls_get_addr@PLT
	movq	$0, (%rax)
	cmpb	$0, 55(%rsp)
	je	.L205
	leaq	16(%rbx), %rdi
	movl	$1, %eax
	xchgl	(%rdi), %eax
	testl	%eax, %eax
	js	.L171
.L174:
	movq	112(%rsp), %rax
	testq	%rax, %rax
	je	.L173
	movl	$3, %edx
	movq	%rbp, %rsi
	movq	%rbp, %rdi
	call	*%rax
.L173:
	sfence
.L157:
	addq	$168, %rsp
	.cfi_remember_state
	.cfi_def_cfa_offset 40
	popq	%rbx
	.cfi_def_cfa_offset 32
	popq	%rbp
	.cfi_def_cfa_offset 24
	popq	%r12
	.cfi_def_cfa_offset 16
	popq	%r13
	.cfi_def_cfa_offset 8
	ret
	.p2align 4,,10
	.p2align 3
.L203:
	.cfi_restore_state
	movzbl	40(%rbx), %edx
	movb	%dl, (%rbx)
	movq	%rbx, (%rax)
	jmp	.L201
	.p2align 4,,10
	.p2align 3
.L171:
.LEHB6:
	call	_ZNSt28__atomic_futex_unsigned_base19_M_futex_notify_allEPj@PLT
.LEHE6:
	jmp	.L174
.L191:
	jmp	.L192
.L189:
	jmp	.L190
.L204:
	jmp	.L161
.L193:
	jmp	.L194
.L205:
	jmp	.L197
	.section	.gcc_except_table,"a",@progbits
.LLSDA8794:
	.byte	0xff
	.byte	0xff
	.byte	0x1
	.uleb128 .LLSDACSE8794-.LLSDACSB8794
.LLSDACSB8794:
	.uleb128 .LEHB4-.LFB8794
	.uleb128 .LEHE4-.LEHB4
	.uleb128 .L189-.LFB8794
	.uleb128 0
	.uleb128 .LEHB5-.LFB8794
	.uleb128 .LEHE5-.LEHB5
	.uleb128 .L193-.LFB8794
	.uleb128 0
	.uleb128 .LEHB6-.LFB8794
	.uleb128 .LEHE6-.LEHB6
	.uleb128 .L191-.LFB8794
	.uleb128 0
.LLSDACSE8794:
	.text
	.cfi_endproc
	.section	.text.unlikely
	.cfi_startproc
	.cfi_personality 0x9b,DW.ref.__gxx_personality_v0
	.cfi_lsda 0x1b,.LLSDAC8794
	.type	_ZN4asio6detail18completion_handlerIZN7asiopal8Executor10BlockUntilERKSt8functionIFvvEEEUlvE_E11do_completeEPNS0_15task_io_serviceEPNS0_25task_io_service_operationERKSt10error_codem.cold, @function
_ZN4asio6detail18completion_handlerIZN7asiopal8Executor10BlockUntilERKSt8functionIFvvEEEUlvE_E11do_completeEPNS0_15task_io_serviceEPNS0_25task_io_service_operationERKSt10error_codem.cold:
.LFSB8794:
	nop
.L178:
	.cfi_def_cfa_offset 208
	.cfi_offset 3, -40
	.cfi_offset 6, -32
	.cfi_offset 12, -24
	.cfi_offset 13, -16
.L192:
	movq	%rax, %rbx
.L170:
	movq	112(%rsp), %rax
	testq	%rax, %rax
	je	.L175
	movl	$3, %edx
	movq	%rbp, %rsi
	movq	%rbp, %rdi
	call	*%rax
.L175:
	movq	%rbx, %rdi
.L176:
	sfence
.LEHB7:
	call	_Unwind_Resume@PLT
.LEHE7:
.L177:
.L190:
	movq	%rax, %rdi
	jmp	.L176
.L161:
.LEHB8:
	call	_ZSt25__throw_bad_function_callv@PLT
.L195:
	movl	$3, %edi
	call	_ZSt20__throw_future_errori@PLT
.LEHE8:
.L196:
	movl	%eax, %edi
.LEHB9:
	call	_ZSt20__throw_system_errori@PLT
.LEHE9:
.L179:
.L194:
	movq	%rax, %rbx
	data16	leaq	_ZSt15__once_callable@tlsgd(%rip), %rdi
	.value	0x6666
	rex64
	call	__tls_get_addr@PLT
	xorl	%edx, %edx
	movq	%rdx, (%rax)
	data16	leaq	_ZSt11__once_call@tlsgd(%rip), %rdi
	.value	0x6666
	rex64
	call	__tls_get_addr@PLT
	xorl	%ecx, %ecx
	movq	%rcx, (%rax)
	jmp	.L170
.L197:
	movl	$2, %edi
.LEHB10:
	call	_ZSt20__throw_future_errori@PLT
.LEHE10:
	.cfi_endproc
.LFE8794:
	.section	.gcc_except_table
.LLSDAC8794:
	.byte	0xff
	.byte	0xff
	.byte	0x1
	.uleb128 .LLSDACSEC8794-.LLSDACSBC8794
.LLSDACSBC8794:
	.uleb128 .LEHB7-.LCOLDB4
	.uleb128 .LEHE7-.LEHB7
	.uleb128 0
	.uleb128 0
	.uleb128 .LEHB8-.LCOLDB4
	.uleb128 .LEHE8-.LEHB8
	.uleb128 .L177-.LCOLDB4
	.uleb128 0
	.uleb128 .LEHB9-.LCOLDB4
	.uleb128 .LEHE9-.LEHB9
	.uleb128 .L179-.LCOLDB4
	.uleb128 0
	.uleb128 .LEHB10-.LCOLDB4
	.uleb128 .LEHE10-.LEHB10
	.uleb128 .L178-.LCOLDB4
	.uleb128 0
.LLSDACSEC8794:
	.section	.text.unlikely
	.text
	.size	_ZN4asio6detail18completion_handlerIZN7asiopal8Executor10BlockUntilERKSt8functionIFvvEEEUlvE_E11do_completeEPNS0_15task_io_serviceEPNS0_25task_io_service_operationERKSt10error_codem, .-_ZN4asio6detail18completion_handlerIZN7asiopal8Executor10BlockUntilERKSt8functionIFvvEEEUlvE_E11do_completeEPNS0_15task_io_serviceEPNS0_25task_io_service_operationERKSt10error_codem
	.section	.text.unlikely
	.size	_ZN4asio6detail18completion_handlerIZN7asiopal8Executor10BlockUntilERKSt8functionIFvvEEEUlvE_E11do_completeEPNS0_15task_io_serviceEPNS0_25task_io_service_operationERKSt10error_codem.cold, .-_ZN4asio6detail18completion_handlerIZN7asiopal8Executor10BlockUntilERKSt8functionIFvvEEEUlvE_E11do_completeEPNS0_15task_io_serviceEPNS0_25task_io_service_operationERKSt10error_codem.cold
.LCOLDE4:
	.text
.LHOTE4:
	.section	.text._ZN4asio6detail14strand_serviceD0Ev,"axG",@progbits,_ZN4asio6detail14strand_serviceD5Ev,comdat
	.align 2
	.p2align 4
	.weak	_ZN4asio6detail14strand_serviceD0Ev
	.type	_ZN4asio6detail14strand_serviceD0Ev, @function
_ZN4asio6detail14strand_serviceD0Ev:
.LFB9465:
	.cfi_startproc
	.cfi_personality 0x9b,DW.ref.__gxx_personality_v0
	.cfi_lsda 0x1b,.LLSDA9465
	pushq	%r15
	.cfi_def_cfa_offset 16
	.cfi_offset 15, -16
	pushq	%r14
	.cfi_def_cfa_offset 24
	.cfi_offset 14, -24
	pushq	%r13
	.cfi_def_cfa_offset 32
	.cfi_offset 13, -32
	leaq	80(%rdi), %r13
	pushq	%r12
	.cfi_def_cfa_offset 40
	.cfi_offset 12, -40
	pushq	%rbp
	.cfi_def_cfa_offset 48
	.cfi_offset 6, -48
	leaq	1624(%rdi), %rbp
	pushq	%rbx
	.cfi_def_cfa_offset 56
	.cfi_offset 3, -56
	subq	$40, %rsp
	.cfi_def_cfa_offset 96
	movq	_ZTVN4asio6detail14strand_serviceE@GOTPCREL(%rip), %rax
	movq	%rdi, 8(%rsp)
	addq	$16, %rax
	movq	%rax, (%rdi)
	.p2align 4
	.p2align 3
.L216:
	movq	0(%rbp), %rbx
	testq	%rbx, %rbx
	je	.L207
	movq	88(%rbx), %r12
	testq	%r12, %r12
	je	.L208
	call	_ZNSt3_V215system_categoryEv@PLT
	movq	%rax, %r15
	jmp	.L211
	.p2align 4,,10
	.p2align 3
.L209:
	movq	$0, (%r12)
	movq	%r12, %rsi
	xorl	%ecx, %ecx
	xorl	%edi, %edi
	movq	8(%r12), %r8
	leaq	16(%rsp), %rdx
	movq	%r15, 24(%rsp)
	movl	$0, 16(%rsp)
	call	*%r8
	movq	88(%rbx), %r12
	testq	%r12, %r12
	je	.L208
.L211:
	movq	(%r12), %rdx
	movq	%rdx, 88(%rbx)
	testq	%rdx, %rdx
	jne	.L209
	movq	$0, 96(%rbx)
	jmp	.L209
	.p2align 4,,10
	.p2align 3
.L212:
	leaq	24(%rbx), %rdi
	call	pthread_mutex_destroy@PLT
	movl	$104, %esi
	movq	%rbx, %rdi
	call	_ZdlPvm@PLT
.L207:
	subq	$8, %rbp
	cmpq	%rbp, %r13
	jne	.L216
	movq	8(%rsp), %rbx
	leaq	48(%rbx), %rdi
	call	pthread_mutex_destroy@PLT
	addq	$40, %rsp
	.cfi_remember_state
	.cfi_def_cfa_offset 56
	movq	%rbx, %rdi
	movl	$1640, %esi
	popq	%rbx
	.cfi_def_cfa_offset 48
	popq	%rbp
	.cfi_def_cfa_offset 40
	popq	%r12
	.cfi_def_cfa_offset 32
	popq	%r13
	.cfi_def_cfa_offset 24
	popq	%r14
	.cfi_def_cfa_offset 16
	popq	%r15
	.cfi_def_cfa_offset 8
.LEHB11:
	jmp	_ZdlPvm@PLT
.LEHE11:
	.p2align 4,,10
	.p2align 3
.L208:
	.cfi_restore_state
	movq	72(%rbx), %r12
	testq	%r12, %r12
	je	.L212
	call	_ZNSt3_V215system_categoryEv@PLT
	movq	%rax, %r15
	jmp	.L215
	.p2align 4,,10
	.p2align 3
.L213:
	movq	$0, (%r12)
	movq	%r12, %rsi
	xorl	%ecx, %ecx
	xorl	%edi, %edi
	movq	8(%r12), %r8
	leaq	16(%rsp), %rdx
	movq	%r15, 24(%rsp)
	movl	$0, 16(%rsp)
	call	*%r8
	movq	72(%rbx), %r12
	testq	%r12, %r12
	je	.L212
.L215:
	movq	(%r12), %rdx
	movq	%rdx, 72(%rbx)
	testq	%rdx, %rdx
	jne	.L213
	movq	$0, 80(%rbx)
	jmp	.L213
	.cfi_endproc
.LFE9465:
	.section	.gcc_except_table
.LLSDA9465:
	.byte	0xff
	.byte	0xff
	.byte	0x1
	.uleb128 .LLSDACSE9465-.LLSDACSB9465
.LLSDACSB9465:
	.uleb128 .LEHB11-.LFB9465
	.uleb128 .LEHE11-.LEHB11
	.uleb128 0
	.uleb128 0
.LLSDACSE9465:
	.section	.text._ZN4asio6detail14strand_serviceD0Ev,"axG",@progbits,_ZN4asio6detail14strand_serviceD5Ev,comdat
	.size	_ZN4asio6detail14strand_serviceD0Ev, .-_ZN4asio6detail14strand_serviceD0Ev
	.text
	.align 2
	.p2align 4
	.type	_ZN4asio6detail13epoll_reactor12cancel_timerINS0_18chrono_time_traitsINSt6chrono3_V212steady_clockENS_11wait_traitsIS6_EEEEEEmRNS0_11timer_queueIT_EERNSC_14per_timer_dataEm.constprop.0.isra.0, @function
_ZN4asio6detail13epoll_reactor12cancel_timerINS0_18chrono_time_traitsINSt6chrono3_V212steady_clockENS_11wait_traitsIS6_EEEEEEmRNS0_11timer_queueIT_EERNSC_14per_timer_dataEm.constprop.0.isra.0:
.LFB9607:
	.cfi_startproc
	pushq	%r15
	.cfi_def_cfa_offset 16
	.cfi_offset 15, -16
	leaq	48(%rdi), %rax
	pushq	%r14
	.cfi_def_cfa_offset 24
	.cfi_offset 14, -24
	movq	%rsi, %r14
	pushq	%r13
	.cfi_def_cfa_offset 32
	.cfi_offset 13, -32
	pushq	%r12
	.cfi_def_cfa_offset 40
	.cfi_offset 12, -40
	pushq	%rbp
	.cfi_def_cfa_offset 48
	.cfi_offset 6, -48
	pushq	%rbx
	.cfi_def_cfa_offset 56
	.cfi_offset 3, -56
	movq	%rdx, %rbx
	subq	$56, %rsp
	.cfi_def_cfa_offset 112
	movq	%rdi, 16(%rsp)
	movq	%rax, %rdi
	movq	%rax, (%rsp)
	call	pthread_mutex_lock@PLT
	movq	32(%rbx), %r12
	testq	%r12, %r12
	je	.L314
	movq	%r14, 8(%rsp)
	movq	$-1, %r13
	xorl	%r15d, %r15d
	xorl	%r12d, %r12d
	jmp	.L243
	.p2align 4,,10
	.p2align 3
.L317:
	movq	_ZZN4asio15system_categoryEvE8instance@GOTPCREL(%rip), %rsi
.L238:
	movq	(%rbx), %rax
	movl	$125, 24(%r15)
	movq	%rsi, 32(%r15)
	testq	%rax, %rax
	je	.L240
	movq	(%rax), %rdx
	movq	%rdx, (%rbx)
	testq	%rdx, %rdx
	je	.L315
.L241:
	movq	$0, (%rax)
.L240:
	movq	$0, (%r15)
	testq	%r14, %r14
	je	.L270
	movq	%r15, (%r14)
	subq	$1, %r13
	je	.L316
.L243:
	movq	%r15, %r14
	movq	(%rbx), %r15
	testq	%r15, %r15
	je	.L308
	movq	_ZGVZN4asio15system_categoryEvE8instance@GOTPCREL(%rip), %rbp
	movzbl	0(%rbp), %eax
	testb	%al, %al
	jne	.L317
	movq	%rbp, %rdi
	call	__cxa_guard_acquire@PLT
	movq	_ZZN4asio15system_categoryEvE8instance@GOTPCREL(%rip), %rsi
	testl	%eax, %eax
	je	.L238
	movq	_ZN4asio6detail15system_categoryD1Ev@GOTPCREL(%rip), %rdi
	leaq	__dso_handle(%rip), %rdx
	movq	%rsi, 24(%rsp)
	call	__cxa_atexit@PLT
	movq	%rbp, %rdi
	call	__cxa_guard_release@PLT
	movq	24(%rsp), %rsi
	jmp	.L238
	.p2align 4,,10
	.p2align 3
.L270:
	movq	%r15, %r12
	subq	$1, %r13
	jne	.L243
.L316:
	movq	8(%rsp), %r14
	cmpq	$0, (%rbx)
	je	.L318
.L244:
	movq	(%rsp), %rdi
	call	pthread_mutex_unlock@PLT
	testq	%r12, %r12
	je	.L234
	movq	16(%rsp), %rax
	movq	40(%rax), %rbx
	cmpb	$0, 40(%rbx)
	je	.L256
	data16	leaq	_ZN4asio6detail15keyword_tss_ptrINS0_10call_stackINS0_15task_io_serviceENS0_27task_io_service_thread_infoEE7contextEE6value_E@tlsgd(%rip), %rdi
	.value	0x6666
	rex64
	call	__tls_get_addr@PLT
	movq	(%rax), %rax
	testq	%rax, %rax
	jne	.L259
	jmp	.L256
	.p2align 4
	.p2align 4,,10
	.p2align 3
.L257:
	movq	16(%rax), %rax
	testq	%rax, %rax
	je	.L256
.L259:
	cmpq	(%rax), %rbx
	jne	.L257
	movq	8(%rax), %rax
	testq	%rax, %rax
	je	.L256
	movq	16(%rax), %rdx
	testq	%rdx, %rdx
	je	.L260
	movq	%r12, (%rdx)
.L261:
	movq	%r15, 16(%rax)
.L234:
	addq	$56, %rsp
	.cfi_remember_state
	.cfi_def_cfa_offset 56
	popq	%rbx
	.cfi_def_cfa_offset 48
	popq	%rbp
	.cfi_def_cfa_offset 40
	popq	%r12
	.cfi_def_cfa_offset 32
	popq	%r13
	.cfi_def_cfa_offset 24
	popq	%r14
	.cfi_def_cfa_offset 16
	popq	%r15
	.cfi_def_cfa_offset 8
	ret
	.p2align 4,,10
	.p2align 3
.L315:
	.cfi_restore_state
	movq	$0, 8(%rbx)
	jmp	.L241
	.p2align 4,,10
	.p2align 3
.L256:
	leaq	48(%rbx), %rbp
	movq	%rbp, %rdi
	call	pthread_mutex_lock@PLT
	movq	200(%rbx), %rax
	testq	%rax, %rax
	je	.L263
	movq	%r12, (%rax)
.L264:
	movq	136(%rbx), %rax
	movq	%r15, 200(%rbx)
	movq	%rax, %rdx
	orq	$1, %rdx
	movq	%rdx, 136(%rbx)
	cmpq	$1, %rax
	jbe	.L265
	movq	%rbp, %rdi
	call	pthread_mutex_unlock@PLT
	addq	$56, %rsp
	.cfi_remember_state
	.cfi_def_cfa_offset 56
	leaq	88(%rbx), %rdi
	popq	%rbx
	.cfi_def_cfa_offset 48
	popq	%rbp
	.cfi_def_cfa_offset 40
	popq	%r12
	.cfi_def_cfa_offset 32
	popq	%r13
	.cfi_def_cfa_offset 24
	popq	%r14
	.cfi_def_cfa_offset 16
	popq	%r15
	.cfi_def_cfa_offset 8
	jmp	pthread_cond_signal@PLT
	.p2align 4,,10
	.p2align 3
.L308:
	.cfi_restore_state
	movq	%r14, %rbp
	movq	8(%rsp), %r14
.L236:
	movq	32(%r14), %rsi
	movq	24(%r14), %rdx
	cmpq	%rdx, %rsi
	je	.L247
	movq	%rsi, %r8
	movq	16(%rbx), %rax
	subq	%rdx, %r8
	movq	%r8, %rdi
	sarq	$4, %rdi
	cmpq	%rdi, %rax
	jnb	.L247
	subq	$1, %rdi
	subq	$16, %rsi
	cmpq	%rdi, %rax
	je	.L319
	movq	%rax, %r10
	movdqu	-16(%rdx,%r8), %xmm0
	salq	$4, %r10
	addq	%rdx, %r10
	movq	(%r10), %r11
	movq	8(%r10), %r9
	movups	%xmm0, (%r10)
	movq	%r11, -16(%rdx,%r8)
	movq	%r9, -8(%rdx,%r8)
	movq	8(%r10), %r8
	movq	%rax, 16(%r8)
	movq	%rdi, 16(%r9)
	movq	%rsi, 32(%r14)
	testq	%rax, %rax
	je	.L248
	leaq	-1(%rax), %rdi
	movq	(%r10), %r9
	movq	%rdi, %r11
	shrq	%r11
	salq	$4, %r11
	cmpq	%r9, (%rdx,%r11)
	jg	.L249
.L248:
	subq	%rdx, %rsi
	leaq	1(%rax,%rax), %r8
	sarq	$4, %rsi
	movq	%rsi, %r9
	cmpq	%rsi, %r8
	jnb	.L247
	movq	(%r10), %rcx
	jmp	.L251
	.p2align 4,,10
	.p2align 3
.L320:
	leaq	16(%rdx,%r11), %r11
	movq	(%r11), %r13
	cmpq	%rsi, %r13
	jg	.L271
	movq	%r13, %rsi
	movq	%r11, %r10
.L250:
	cmpq	%rsi, %rcx
	jl	.L247
	movq	%rax, %rsi
	movdqu	(%r10), %xmm0
	salq	$4, %rsi
	addq	%rdx, %rsi
	movq	8(%rsi), %r8
	movups	%xmm0, (%rsi)
	movq	%rcx, (%r10)
	movq	%r8, 8(%r10)
	movq	8(%rsi), %rsi
	movq	%rax, 16(%rsi)
	movq	%rdi, 16(%r8)
	leaq	1(%rdi,%rdi), %r8
	cmpq	%r9, %r8
	jnb	.L247
	movq	%rdi, %rax
.L251:
	movq	%r8, %r11
	leaq	1(%r8), %rdi
	salq	$4, %r11
	leaq	(%rdx,%r11), %r10
	movq	(%r10), %rsi
	cmpq	%r9, %rdi
	jne	.L320
.L271:
	movq	%r8, %rdi
	jmp	.L250
	.p2align 4,,10
	.p2align 3
.L314:
	movq	(%rsp), %rdi
	cmpq	16(%r14), %rbx
	je	.L321
.L313:
	addq	$56, %rsp
	.cfi_remember_state
	.cfi_def_cfa_offset 56
	popq	%rbx
	.cfi_def_cfa_offset 48
	popq	%rbp
	.cfi_def_cfa_offset 40
	popq	%r12
	.cfi_def_cfa_offset 32
	popq	%r13
	.cfi_def_cfa_offset 24
	popq	%r14
	.cfi_def_cfa_offset 16
	popq	%r15
	.cfi_def_cfa_offset 8
	jmp	pthread_mutex_unlock@PLT
	.p2align 4,,10
	.p2align 3
.L265:
	.cfi_restore_state
	cmpb	$0, 176(%rbx)
	jne	.L267
	movq	144(%rbx), %rax
	testq	%rax, %rax
	je	.L267
	leaq	88(%rax), %rdx
	movb	$1, 176(%rbx)
	movl	96(%rax), %edi
	leaq	36(%rsp), %rcx
	movq	%rdx, 40(%rsp)
	movl	88(%rax), %edx
	movl	$3, %esi
	movl	$-2147483639, 36(%rsp)
	call	epoll_ctl@PLT
.L267:
	movq	%rbp, %rdi
	jmp	.L313
	.p2align 4,,10
	.p2align 3
.L260:
	movq	%r12, 8(%rax)
	jmp	.L261
.L319:
	movq	%rsi, 32(%r14)
	.p2align 4
	.p2align 3
.L247:
	movq	24(%rbx), %rax
	cmpq	16(%r14), %rbx
	je	.L322
.L252:
	movq	32(%rbx), %rdx
	testq	%rdx, %rdx
	je	.L253
	movq	%rax, 24(%rdx)
	movq	24(%rbx), %rax
.L253:
	testq	%rax, %rax
	je	.L254
	movq	%rdx, 32(%rax)
.L254:
	pxor	%xmm0, %xmm0
	movq	%rbp, %r15
	movups	%xmm0, 24(%rbx)
	jmp	.L244
	.p2align 4,,10
	.p2align 3
.L263:
	movq	%r12, 192(%rbx)
	jmp	.L264
	.p2align 4,,10
	.p2align 3
.L321:
	movq	%r14, 8(%rsp)
	xorl	%r15d, %r15d
	movq	$-1, %r13
	jmp	.L243
.L323:
	leaq	-1(%rax), %rdi
	movq	%rdi, %rcx
	shrq	%rcx
	salq	$4, %rcx
	cmpq	(%rdx,%rcx), %r9
	jge	.L247
.L249:
	movq	%rax, %r10
	movq	%rdi, %rax
	shrq	%rax
	movq	%r10, %rsi
	movq	%rax, %rcx
	salq	$4, %rsi
	salq	$4, %rcx
	movdqu	(%rdx,%rcx), %xmm0
	movups	%xmm0, (%rdx,%rsi)
	movq	%r9, (%rdx,%rcx)
	movq	%r8, 8(%rdx,%rcx)
	movq	8(%rdx,%rsi), %rcx
	movq	%r10, 16(%rcx)
	movq	%rax, 16(%r8)
	testq	%rax, %rax
	jne	.L323
	jmp	.L247
	.p2align 4,,10
	.p2align 3
.L322:
	movq	%rax, 16(%r14)
	jmp	.L252
.L318:
	movq	%r15, %rbp
	jmp	.L236
	.cfi_endproc
.LFE9607:
	.size	_ZN4asio6detail13epoll_reactor12cancel_timerINS0_18chrono_time_traitsINSt6chrono3_V212steady_clockENS_11wait_traitsIS6_EEEEEEmRNS0_11timer_queueIT_EERNSC_14per_timer_dataEm.constprop.0.isra.0, .-_ZN4asio6detail13epoll_reactor12cancel_timerINS0_18chrono_time_traitsINSt6chrono3_V212steady_clockENS_11wait_traitsIS6_EEEEEEmRNS0_11timer_queueIT_EERNSC_14per_timer_dataEm.constprop.0.isra.0
	.section	.text._ZNSt23_Sp_counted_ptr_inplaceIN7asiopal5TimerESaIvELN9__gnu_cxx12_Lock_policyE2EE10_M_disposeEv,"axG",@progbits,_ZNSt23_Sp_counted_ptr_inplaceIN7asiopal5TimerESaIvELN9__gnu_cxx12_Lock_policyE2EE10_M_disposeEv,comdat
	.align 2
	.p2align 4
	.weak	_ZNSt23_Sp_counted_ptr_inplaceIN7asiopal5TimerESaIvELN9__gnu_cxx12_Lock_policyE2EE10_M_disposeEv
	.type	_ZNSt23_Sp_counted_ptr_inplaceIN7asiopal5TimerESaIvELN9__gnu_cxx12_Lock_policyE2EE10_M_disposeEv, @function
_ZNSt23_Sp_counted_ptr_inplaceIN7asiopal5TimerESaIvELN9__gnu_cxx12_Lock_policyE2EE10_M_disposeEv:
.LFB9502:
	.cfi_startproc
	.cfi_personality 0x9b,DW.ref.__gxx_personality_v0
	.cfi_lsda 0x1b,.LLSDA9502
	pushq	%r12
	.cfi_def_cfa_offset 16
	.cfi_offset 12, -16
	pushq	%rbp
	.cfi_def_cfa_offset 24
	.cfi_offset 6, -24
	pushq	%rbx
	.cfi_def_cfa_offset 32
	.cfi_offset 3, -32
	movq	%rdi, %rbx
	subq	$32, %rsp
	.cfi_def_cfa_offset 64
	movq	_ZTVN7asiopal5TimerE@GOTPCREL(%rip), %rax
	addq	$16, %rax
	movq	%rax, 16(%rdi)
	cmpb	$0, 40(%rdi)
	je	.L325
	movq	24(%rdi), %rax
	leaq	48(%rdi), %rdx
	movq	88(%rax), %rdi
	leaq	40(%rax), %rsi
	call	_ZN4asio6detail13epoll_reactor12cancel_timerINS0_18chrono_time_traitsINSt6chrono3_V212steady_clockENS_11wait_traitsIS6_EEEEEEmRNS0_11timer_queueIT_EERNSC_14per_timer_dataEm.constprop.0.isra.0
	movb	$0, 40(%rbx)
.L325:
	movq	48(%rbx), %rsi
	testq	%rsi, %rsi
	je	.L324
	movq	%rsi, 8(%rsp)
	leaq	16(%rsp), %rbp
	call	_ZNSt3_V215system_categoryEv@PLT
	movq	8(%rsp), %rsi
	movq	%rax, %r12
	jmp	.L329
	.p2align 4,,10
	.p2align 3
.L327:
	movq	$0, (%rsi)
	movq	8(%rsi), %rax
	xorl	%ecx, %ecx
	movq	%rbp, %rdx
	movl	$0, 16(%rsp)
	xorl	%edi, %edi
	movq	%r12, 24(%rsp)
	call	*%rax
	movq	48(%rbx), %rsi
	testq	%rsi, %rsi
	je	.L324
.L329:
	movq	(%rsi), %rax
	movq	%rax, 48(%rbx)
	testq	%rax, %rax
	jne	.L327
	movq	$0, 56(%rbx)
	jmp	.L327
	.p2align 4,,10
	.p2align 3
.L324:
	addq	$32, %rsp
	.cfi_def_cfa_offset 32
	popq	%rbx
	.cfi_def_cfa_offset 24
	popq	%rbp
	.cfi_def_cfa_offset 16
	popq	%r12
	.cfi_def_cfa_offset 8
	ret
	.cfi_endproc
.LFE9502:
	.section	.gcc_except_table
.LLSDA9502:
	.byte	0xff
	.byte	0xff
	.byte	0x1
	.uleb128 .LLSDACSE9502-.LLSDACSB9502
.LLSDACSB9502:
.LLSDACSE9502:
	.section	.text._ZNSt23_Sp_counted_ptr_inplaceIN7asiopal5TimerESaIvELN9__gnu_cxx12_Lock_policyE2EE10_M_disposeEv,"axG",@progbits,_ZNSt23_Sp_counted_ptr_inplaceIN7asiopal5TimerESaIvELN9__gnu_cxx12_Lock_policyE2EE10_M_disposeEv,comdat
	.size	_ZNSt23_Sp_counted_ptr_inplaceIN7asiopal5TimerESaIvELN9__gnu_cxx12_Lock_policyE2EE10_M_disposeEv, .-_ZNSt23_Sp_counted_ptr_inplaceIN7asiopal5TimerESaIvELN9__gnu_cxx12_Lock_policyE2EE10_M_disposeEv
	.section	.rodata._ZNK4asio6detail15system_category7messageB5cxx11Ei.str1.8,"aMS",@progbits,1
	.align 8
.LC5:
	.string	"basic_string: construction from null is not valid"
	.section	.text._ZNK4asio6detail15system_category7messageB5cxx11Ei,"axG",@progbits,_ZNK4asio6detail15system_category7messageB5cxx11Ei,comdat
	.align 2
	.p2align 4
	.weak	_ZNK4asio6detail15system_category7messageB5cxx11Ei
	.type	_ZNK4asio6detail15system_category7messageB5cxx11Ei, @function
_ZNK4asio6detail15system_category7messageB5cxx11Ei:
.LFB2279:
	.cfi_startproc
	pushq	%r12
	.cfi_def_cfa_offset 16
	.cfi_offset 12, -16
	pushq	%rbp
	.cfi_def_cfa_offset 24
	.cfi_offset 6, -24
	pushq	%rbx
	.cfi_def_cfa_offset 32
	.cfi_offset 3, -32
	movq	%rdi, %rbx
	subq	$288, %rsp
	.cfi_def_cfa_offset 320
	cmpl	$125, %edx
	je	.L349
	pxor	%xmm0, %xmm0
	leaq	32(%rsp), %rsi
	leaq	16(%rbx), %rbp
	movl	%edx, %edi
	movl	$256, %edx
	movaps	%xmm0, 32(%rsp)
	movaps	%xmm0, 48(%rsp)
	movaps	%xmm0, 64(%rsp)
	movaps	%xmm0, 80(%rsp)
	movaps	%xmm0, 96(%rsp)
	movaps	%xmm0, 112(%rsp)
	movaps	%xmm0, 128(%rsp)
	movaps	%xmm0, 144(%rsp)
	movaps	%xmm0, 160(%rsp)
	movaps	%xmm0, 176(%rsp)
	movaps	%xmm0, 192(%rsp)
	movaps	%xmm0, 208(%rsp)
	movaps	%xmm0, 224(%rsp)
	movaps	%xmm0, 240(%rsp)
	movaps	%xmm0, 256(%rsp)
	movaps	%xmm0, 272(%rsp)
	call	strerror_r@PLT
	movq	%rbp, (%rbx)
	movq	%rax, %r12
	testq	%rax, %rax
	je	.L350
	movq	%rax, %rdi
	call	strlen@PLT
	movq	%rax, 24(%rsp)
	movq	%rax, %rcx
	cmpq	$15, %rax
	ja	.L351
	cmpq	$1, %rax
	jne	.L343
	movzbl	(%r12), %edx
	movb	%dl, 16(%rbx)
.L344:
	movq	%rax, 8(%rbx)
	movb	$0, 0(%rbp,%rax)
	addq	$288, %rsp
	.cfi_remember_state
	.cfi_def_cfa_offset 32
	movq	%rbx, %rax
	popq	%rbx
	.cfi_def_cfa_offset 24
	popq	%rbp
	.cfi_def_cfa_offset 16
	popq	%r12
	.cfi_def_cfa_offset 8
	ret
	.p2align 4,,10
	.p2align 3
.L351:
	.cfi_restore_state
	leaq	24(%rsp), %rsi
	xorl	%edx, %edx
	movq	%rbx, %rdi
	movq	%rax, 8(%rsp)
	call	_ZNSt7__cxx1112basic_stringIcSt11char_traitsIcESaIcEE9_M_createERmm@PLT
	movq	8(%rsp), %rcx
	movq	%rax, (%rbx)
	movq	%rax, %rbp
	movq	24(%rsp), %rax
	movq	%rax, 16(%rbx)
.L342:
	movq	%rbp, %rdi
	movq	%rcx, %rdx
	movq	%r12, %rsi
	call	memcpy@PLT
	movq	24(%rsp), %rax
	movq	(%rbx), %rbp
	jmp	.L344
	.p2align 4,,10
	.p2align 3
.L349:
	leaq	16(%rdi), %rax
	leaq	32(%rsp), %rsi
	xorl	%edx, %edx
	movq	$18, 32(%rsp)
	movq	%rax, (%rdi)
	call	_ZNSt7__cxx1112basic_stringIcSt11char_traitsIcESaIcEE9_M_createERmm@PLT
	movq	32(%rsp), %rdx
	movdqa	.LC6(%rip), %xmm0
	movq	%rax, (%rbx)
	movq	%rdx, 16(%rbx)
	movl	$11876, %edx
	movw	%dx, 16(%rax)
	movups	%xmm0, (%rax)
	movq	32(%rsp), %rax
	movq	(%rbx), %rdx
	movq	%rax, 8(%rbx)
	movb	$0, (%rdx,%rax)
	addq	$288, %rsp
	.cfi_remember_state
	.cfi_def_cfa_offset 32
	movq	%rbx, %rax
	popq	%rbx
	.cfi_def_cfa_offset 24
	popq	%rbp
	.cfi_def_cfa_offset 16
	popq	%r12
	.cfi_def_cfa_offset 8
	ret
	.p2align 4,,10
	.p2align 3
.L343:
	.cfi_restore_state
	testq	%rax, %rax
	je	.L344
	jmp	.L342
.L350:
	leaq	.LC5(%rip), %rdi
	call	_ZSt19__throw_logic_errorPKc@PLT
	.cfi_endproc
.LFE2279:
	.size	_ZNK4asio6detail15system_category7messageB5cxx11Ei, .-_ZNK4asio6detail15system_category7messageB5cxx11Ei
	.section	.text._ZNK4asio5error6detail17addrinfo_category7messageB5cxx11Ei,"axG",@progbits,_ZNK4asio5error6detail17addrinfo_category7messageB5cxx11Ei,comdat
	.align 2
	.p2align 4
	.weak	_ZNK4asio5error6detail17addrinfo_category7messageB5cxx11Ei
	.type	_ZNK4asio5error6detail17addrinfo_category7messageB5cxx11Ei, @function
_ZNK4asio5error6detail17addrinfo_category7messageB5cxx11Ei:
.LFB2333:
	.cfi_startproc
	pushq	%rbx
	.cfi_def_cfa_offset 16
	.cfi_offset 3, -16
	leaq	16(%rdi), %rax
	movq	%rdi, %rbx
	subq	$16, %rsp
	.cfi_def_cfa_offset 32
	movq	%rax, (%rdi)
	cmpl	$-8, %edx
	je	.L357
	cmpl	$-7, %edx
	je	.L358
	movq	$19, 8(%rsp)
	leaq	8(%rsp), %rsi
	xorl	%edx, %edx
	call	_ZNSt7__cxx1112basic_stringIcSt11char_traitsIcESaIcEE9_M_createERmm@PLT
	movq	8(%rsp), %rdx
	movdqa	.LC11(%rip), %xmm0
	movq	%rax, (%rbx)
	movq	%rdx, 16(%rbx)
	movups	%xmm0, (%rax)
	movl	$1919906418, 15(%rax)
	movq	8(%rsp), %rax
	movq	(%rbx), %rdx
	movq	%rax, 8(%rbx)
	movb	$0, (%rdx,%rax)
	addq	$16, %rsp
	.cfi_remember_state
	.cfi_def_cfa_offset 16
	movq	%rbx, %rax
	popq	%rbx
	.cfi_def_cfa_offset 8
	ret
	.p2align 4,,10
	.p2align 3
.L358:
	.cfi_restore_state
	movq	$25, 8(%rsp)
	leaq	8(%rsp), %rsi
	xorl	%edx, %edx
	call	_ZNSt7__cxx1112basic_stringIcSt11char_traitsIcESaIcEE9_M_createERmm@PLT
	movq	8(%rsp), %rdx
	movdqa	.LC9(%rip), %xmm0
	movq	%rax, (%rbx)
	movq	%rdx, 16(%rbx)
	movups	%xmm0, (%rax)
	movdqa	.LC10(%rip), %xmm0
	movups	%xmm0, 9(%rax)
	movq	8(%rsp), %rax
	movq	(%rbx), %rdx
	movq	%rax, 8(%rbx)
	movb	$0, (%rdx,%rax)
	addq	$16, %rsp
	.cfi_remember_state
	.cfi_def_cfa_offset 16
	movq	%rbx, %rax
	popq	%rbx
	.cfi_def_cfa_offset 8
	ret
	.p2align 4,,10
	.p2align 3
.L357:
	.cfi_restore_state
	movq	$17, 8(%rsp)
	leaq	8(%rsp), %rsi
	xorl	%edx, %edx
	call	_ZNSt7__cxx1112basic_stringIcSt11char_traitsIcESaIcEE9_M_createERmm@PLT
	movq	8(%rsp), %rdx
	movdqa	.LC8(%rip), %xmm0
	movq	%rax, (%rbx)
	movq	%rdx, 16(%rbx)
	movb	$100, 16(%rax)
	movups	%xmm0, (%rax)
	movq	8(%rsp), %rax
	movq	(%rbx), %rdx
	movq	%rax, 8(%rbx)
	movb	$0, (%rdx,%rax)
	addq	$16, %rsp
	.cfi_def_cfa_offset 16
	movq	%rbx, %rax
	popq	%rbx
	.cfi_def_cfa_offset 8
	ret
	.cfi_endproc
.LFE2333:
	.size	_ZNK4asio5error6detail17addrinfo_category7messageB5cxx11Ei, .-_ZNK4asio5error6detail17addrinfo_category7messageB5cxx11Ei
	.section	.text._ZNK4asio5error6detail14netdb_category7messageB5cxx11Ei,"axG",@progbits,_ZNK4asio5error6detail14netdb_category7messageB5cxx11Ei,comdat
	.align 2
	.p2align 4
	.weak	_ZNK4asio5error6detail14netdb_category7messageB5cxx11Ei
	.type	_ZNK4asio5error6detail14netdb_category7messageB5cxx11Ei, @function
_ZNK4asio5error6detail14netdb_category7messageB5cxx11Ei:
.LFB2323:
	.cfi_startproc
	pushq	%rbx
	.cfi_def_cfa_offset 16
	.cfi_offset 3, -16
	leaq	16(%rdi), %rax
	movq	%rdi, %rbx
	subq	$16, %rsp
	.cfi_def_cfa_offset 32
	movq	%rax, (%rdi)
	cmpl	$1, %edx
	je	.L366
	cmpl	$2, %edx
	je	.L367
	cmpl	$4, %edx
	je	.L368
	cmpl	$3, %edx
	je	.L369
	movq	$16, 8(%rsp)
	leaq	8(%rsp), %rsi
	xorl	%edx, %edx
	call	_ZNSt7__cxx1112basic_stringIcSt11char_traitsIcESaIcEE9_M_createERmm@PLT
	movq	8(%rsp), %rdx
	movdqa	.LC22(%rip), %xmm0
	movq	%rax, (%rbx)
	movq	%rdx, 16(%rbx)
	movups	%xmm0, (%rax)
	movq	8(%rsp), %rax
	movq	(%rbx), %rdx
	movq	%rax, 8(%rbx)
	movb	$0, (%rdx,%rax)
	addq	$16, %rsp
	.cfi_remember_state
	.cfi_def_cfa_offset 16
	movq	%rbx, %rax
	popq	%rbx
	.cfi_def_cfa_offset 8
	ret
	.p2align 4,,10
	.p2align 3
.L366:
	.cfi_restore_state
	movq	$30, 8(%rsp)
	leaq	8(%rsp), %rsi
	xorl	%edx, %edx
	call	_ZNSt7__cxx1112basic_stringIcSt11char_traitsIcESaIcEE9_M_createERmm@PLT
	movq	8(%rsp), %rdx
	movdqa	.LC12(%rip), %xmm0
	movq	%rax, (%rbx)
	movq	%rdx, 16(%rbx)
	movups	%xmm0, (%rax)
	movdqa	.LC13(%rip), %xmm0
	movups	%xmm0, 14(%rax)
	movq	8(%rsp), %rax
	movq	(%rbx), %rdx
	movq	%rax, 8(%rbx)
	movb	$0, (%rdx,%rax)
	addq	$16, %rsp
	.cfi_remember_state
	.cfi_def_cfa_offset 16
	movq	%rbx, %rax
	popq	%rbx
	.cfi_def_cfa_offset 8
	ret
	.p2align 4,,10
	.p2align 3
.L369:
	.cfi_restore_state
	movq	$55, 8(%rsp)
	leaq	8(%rsp), %rsi
	xorl	%edx, %edx
	call	_ZNSt7__cxx1112basic_stringIcSt11char_traitsIcESaIcEE9_M_createERmm@PLT
	movq	8(%rsp), %rdx
	movdqa	.LC19(%rip), %xmm0
	movabsq	$8103501230877974629, %rcx
	movq	%rax, (%rbx)
	movq	%rdx, 16(%rbx)
	movups	%xmm0, (%rax)
	movdqa	.LC20(%rip), %xmm0
	movups	%xmm0, 16(%rax)
	movdqa	.LC21(%rip), %xmm0
	movups	%xmm0, 32(%rax)
	movq	%rcx, 47(%rax)
	movq	8(%rsp), %rax
	movq	(%rbx), %rdx
	movq	%rax, 8(%rbx)
	movb	$0, (%rdx,%rax)
	addq	$16, %rsp
	.cfi_remember_state
	.cfi_def_cfa_offset 16
	movq	%rbx, %rax
	popq	%rbx
	.cfi_def_cfa_offset 8
	ret
	.p2align 4,,10
	.p2align 3
.L367:
	.cfi_restore_state
	movq	$51, 8(%rsp)
	leaq	8(%rsp), %rsi
	xorl	%edx, %edx
	call	_ZNSt7__cxx1112basic_stringIcSt11char_traitsIcESaIcEE9_M_createERmm@PLT
	movq	8(%rsp), %rdx
	movdqa	.LC12(%rip), %xmm0
	movq	%rax, (%rbx)
	movq	%rdx, 16(%rbx)
	movups	%xmm0, (%rax)
	movdqa	.LC14(%rip), %xmm0
	movups	%xmm0, 16(%rax)
	movdqa	.LC15(%rip), %xmm0
	movups	%xmm0, 32(%rax)
	movl	$1919251553, 47(%rax)
	movq	8(%rsp), %rax
	movq	(%rbx), %rdx
	movq	%rax, 8(%rbx)
	movb	$0, (%rdx,%rax)
	addq	$16, %rsp
	.cfi_remember_state
	.cfi_def_cfa_offset 16
	movq	%rbx, %rax
	popq	%rbx
	.cfi_def_cfa_offset 8
	ret
	.p2align 4,,10
	.p2align 3
.L368:
	.cfi_restore_state
	movq	$56, 8(%rsp)
	leaq	8(%rsp), %rsi
	xorl	%edx, %edx
	call	_ZNSt7__cxx1112basic_stringIcSt11char_traitsIcESaIcEE9_M_createERmm@PLT
	movq	8(%rsp), %rdx
	movdqa	.LC16(%rip), %xmm0
	movabsq	$7022344801645520244, %rcx
	movq	%rax, (%rbx)
	movq	%rdx, 16(%rbx)
	movups	%xmm0, (%rax)
	movdqa	.LC17(%rip), %xmm0
	movq	%rcx, 48(%rax)
	movups	%xmm0, 16(%rax)
	movdqa	.LC18(%rip), %xmm0
	movups	%xmm0, 32(%rax)
	movq	8(%rsp), %rax
	movq	(%rbx), %rdx
	movq	%rax, 8(%rbx)
	movb	$0, (%rdx,%rax)
	addq	$16, %rsp
	.cfi_def_cfa_offset 16
	movq	%rbx, %rax
	popq	%rbx
	.cfi_def_cfa_offset 8
	ret
	.cfi_endproc
.LFE2323:
	.size	_ZNK4asio5error6detail14netdb_category7messageB5cxx11Ei, .-_ZNK4asio5error6detail14netdb_category7messageB5cxx11Ei
	.section	.text._ZNK4asio5error6detail13misc_category7messageB5cxx11Ei,"axG",@progbits,_ZNK4asio5error6detail13misc_category7messageB5cxx11Ei,comdat
	.align 2
	.p2align 4
	.weak	_ZNK4asio5error6detail13misc_category7messageB5cxx11Ei
	.type	_ZNK4asio5error6detail13misc_category7messageB5cxx11Ei, @function
_ZNK4asio5error6detail13misc_category7messageB5cxx11Ei:
.LFB2343:
	.cfi_startproc
	cmpl	$1, %edx
	je	.L379
	cmpl	$2, %edx
	je	.L380
	leaq	16(%rdi), %rax
	subq	$40, %rsp
	.cfi_def_cfa_offset 48
	movq	%rax, (%rdi)
	cmpl	$3, %edx
	je	.L381
	cmpl	$4, %edx
	je	.L382
	movabsq	$8316298233121436513, %rcx
	movq	$15, 8(%rdi)
	movq	%rdi, %rax
	movq	%rcx, 16(%rdi)
	movabsq	$8245935278387127155, %rcx
	movq	%rcx, 23(%rdi)
	movb	$0, 31(%rdi)
	addq	$40, %rsp
	.cfi_def_cfa_offset 8
	ret
	.p2align 4,,10
	.p2align 3
.L379:
	leaq	16(%rdi), %rax
	movl	$1852141679, 24(%rdi)
	movabsq	$2340011850872286273, %rsi
	movq	%rax, (%rdi)
	movq	%rdi, %rax
	movq	%rsi, 16(%rdi)
	movq	$12, 8(%rdi)
	movb	$0, 28(%rdi)
	ret
	.p2align 4,,10
	.p2align 3
.L382:
	.cfi_def_cfa_offset 48
	leaq	24(%rsp), %rsi
	xorl	%edx, %edx
	movq	%rdi, 8(%rsp)
	movq	$57, 24(%rsp)
	call	_ZNSt7__cxx1112basic_stringIcSt11char_traitsIcESaIcEE9_M_createERmm@PLT
	movq	24(%rsp), %rdx
	movq	8(%rsp), %rdi
	movdqa	.LC24(%rip), %xmm0
	movq	%rax, (%rdi)
	movq	%rdx, 16(%rdi)
	movups	%xmm0, (%rax)
	movdqa	.LC25(%rip), %xmm0
	movups	%xmm0, 16(%rax)
	movdqa	.LC26(%rip), %xmm0
	movups	%xmm0, 32(%rax)
	movdqa	.LC27(%rip), %xmm0
	movups	%xmm0, 41(%rax)
	movq	24(%rsp), %rax
	movq	(%rdi), %rdx
	movq	%rax, 8(%rdi)
	movb	$0, (%rdx,%rax)
	movq	%rdi, %rax
	addq	$40, %rsp
	.cfi_def_cfa_offset 8
	ret
	.p2align 4,,10
	.p2align 3
.L380:
	leaq	16(%rdi), %rax
	movq	$11, 8(%rdi)
	movabsq	$7358994418594246213, %rsi
	movq	%rax, (%rdi)
	movq	%rdi, %rax
	movq	%rsi, 16(%rdi)
	movb	$0, 27(%rdi)
	movl	$1701603686, 23(%rdi)
	ret
	.p2align 4,,10
	.p2align 3
.L381:
	.cfi_def_cfa_offset 48
	leaq	24(%rsp), %rsi
	xorl	%edx, %edx
	movq	%rdi, 8(%rsp)
	movq	$17, 24(%rsp)
	call	_ZNSt7__cxx1112basic_stringIcSt11char_traitsIcESaIcEE9_M_createERmm@PLT
	movq	8(%rsp), %rdi
	movq	24(%rsp), %rdx
	movdqa	.LC23(%rip), %xmm0
	movq	%rax, (%rdi)
	movq	%rdx, 16(%rdi)
	movb	$100, 16(%rax)
	movups	%xmm0, (%rax)
	movq	24(%rsp), %rax
	movq	(%rdi), %rdx
	movq	%rax, 8(%rdi)
	movb	$0, (%rdx,%rax)
	movq	%rdi, %rax
	addq	$40, %rsp
	.cfi_def_cfa_offset 8
	ret
	.cfi_endproc
.LFE2343:
	.size	_ZNK4asio5error6detail13misc_category7messageB5cxx11Ei, .-_ZNK4asio5error6detail13misc_category7messageB5cxx11Ei
	.section	.text.unlikely._ZSt20__throw_bad_weak_ptrv,"axG",@progbits,_ZSt20__throw_bad_weak_ptrv,comdat
	.weak	_ZSt20__throw_bad_weak_ptrv
	.type	_ZSt20__throw_bad_weak_ptrv, @function
_ZSt20__throw_bad_weak_ptrv:
.LFB1668:
	.cfi_startproc
	pushq	%rax
	.cfi_def_cfa_offset 16
	movl	$8, %edi
	call	__cxa_allocate_exception@PLT
	movq	_ZTVSt12bad_weak_ptr@GOTPCREL(%rip), %rdx
	movq	_ZTISt12bad_weak_ptr@GOTPCREL(%rip), %rsi
	movq	%rax, %rdi
	addq	$16, %rdx
	movq	%rdx, (%rax)
	movq	_ZNSt12bad_weak_ptrD1Ev@GOTPCREL(%rip), %rdx
	call	__cxa_throw@PLT
	.cfi_endproc
.LFE1668:
	.size	_ZSt20__throw_bad_weak_ptrv, .-_ZSt20__throw_bad_weak_ptrv
	.section	.rodata._ZN4asio6detail14do_throw_errorERKSt10error_codePKc.str1.1,"aMS",@progbits,1
.LC28:
	.string	": "
	.section	.text._ZN4asio6detail14do_throw_errorERKSt10error_codePKc,"axG",@progbits,_ZN4asio6detail14do_throw_errorERKSt10error_codePKc,comdat
	.p2align 4
	.weak	_ZN4asio6detail14do_throw_errorERKSt10error_codePKc
	.type	_ZN4asio6detail14do_throw_errorERKSt10error_codePKc, @function
_ZN4asio6detail14do_throw_errorERKSt10error_codePKc:
.LFB2316:
	.cfi_startproc
	.cfi_personality 0x9b,DW.ref.__gxx_personality_v0
	.cfi_lsda 0x1b,.LLSDA2316
	pushq	%r15
	.cfi_def_cfa_offset 16
	.cfi_offset 15, -16
	pushq	%r14
	.cfi_def_cfa_offset 24
	.cfi_offset 14, -24
	pushq	%r13
	.cfi_def_cfa_offset 32
	.cfi_offset 13, -32
	movq	%rsi, %r13
	pushq	%r12
	.cfi_def_cfa_offset 40
	.cfi_offset 12, -40
	pushq	%rbp
	.cfi_def_cfa_offset 48
	.cfi_offset 6, -48
	pushq	%rbx
	.cfi_def_cfa_offset 56
	.cfi_offset 3, -56
	subq	$152, %rsp
	.cfi_def_cfa_offset 208
	movq	8(%rdi), %r12
	movl	(%rdi), %r15d
	leaq	48(%rsp), %rbp
	movq	(%r12), %rax
	movl	%r15d, %edx
	movq	%r12, %rsi
	movq	%rbp, %rdi
.LEHB12:
	call	*32(%rax)
.LEHE12:
	movl	$2, %r8d
	xorl	%edx, %edx
	xorl	%esi, %esi
	leaq	.LC28(%rip), %rcx
	movq	%rbp, %rdi
.LEHB13:
	call	_ZNSt7__cxx1112basic_stringIcSt11char_traitsIcESaIcEE10_M_replaceEmmPKcm@PLT
.LEHE13:
	leaq	96(%rsp), %rbx
	leaq	16(%rax), %rdx
	movq	%rbx, 80(%rsp)
	movq	(%rax), %rcx
	cmpq	%rdx, %rcx
	je	.L402
	movq	%rcx, 80(%rsp)
	movq	16(%rax), %rcx
	movq	%rcx, 96(%rsp)
.L387:
	movq	8(%rax), %rcx
	movq	%rdx, (%rax)
	movq	%r13, %rdi
	movq	$0, 8(%rax)
	movb	$0, 16(%rax)
	movq	%rcx, 88(%rsp)
	call	strlen@PLT
	movq	%r13, %rcx
	xorl	%edx, %edx
	xorl	%esi, %esi
	movq	%rax, %r8
	leaq	80(%rsp), %rax
	movq	%rax, %rdi
	movq	%rax, 8(%rsp)
.LEHB14:
	call	_ZNSt7__cxx1112basic_stringIcSt11char_traitsIcESaIcEE10_M_replaceEmmPKcm@PLT
.LEHE14:
	leaq	128(%rsp), %r14
	leaq	16(%rax), %r8
	movq	%r14, 112(%rsp)
	movq	(%rax), %rcx
	cmpq	%r8, %rcx
	je	.L403
	movq	%rcx, 112(%rsp)
	movq	16(%rax), %rcx
	movq	%rcx, 128(%rsp)
.L389:
	movq	8(%rax), %rcx
	movq	%r8, (%rax)
	leaq	16(%rsp), %r13
	movq	$0, 8(%rax)
	movq	%r13, %rdi
	movb	$0, 16(%rax)
	leaq	112(%rsp), %rax
	movq	%rax, %rsi
	movq	%rcx, 120(%rsp)
	movq	%rax, (%rsp)
.LEHB15:
	call	_ZNSt13runtime_errorC2ERKNSt7__cxx1112basic_stringIcSt11char_traitsIcESaIcEEE@PLT
.LEHE15:
	movq	112(%rsp), %rdi
	cmpq	%r14, %rdi
	je	.L390
	movq	128(%rsp), %rax
	leaq	1(%rax), %rsi
	call	_ZdlPvm@PLT
.L390:
	movq	80(%rsp), %rdi
	cmpq	%rbx, %rdi
	je	.L391
	movq	96(%rsp), %rax
	leaq	1(%rax), %rsi
	call	_ZdlPvm@PLT
.L391:
	movq	48(%rsp), %rdi
	leaq	64(%rsp), %rax
	cmpq	%rax, %rdi
	je	.L392
	movq	64(%rsp), %rax
	leaq	1(%rax), %rsi
	call	_ZdlPvm@PLT
.L392:
	movq	_ZTVSt12system_error@GOTPCREL(%rip), %rax
	movl	$32, %edi
	movl	%r15d, 32(%rsp)
	movq	%r12, 40(%rsp)
	leaq	16(%rax), %rbp
	movq	%rbp, 16(%rsp)
	call	__cxa_allocate_exception@PLT
	movq	%r13, %rsi
	movq	%rax, %rbx
	movq	%rax, %rdi
	call	_ZNSt13runtime_errorC2ERKS_@PLT
	movdqa	32(%rsp), %xmm0
	movq	%rbp, (%rbx)
	movq	%rbx, %rdi
	movq	_ZNSt12system_errorD1Ev@GOTPCREL(%rip), %rdx
	movq	_ZTISt12system_error@GOTPCREL(%rip), %rsi
	movups	%xmm0, 16(%rbx)
.LEHB16:
	call	__cxa_throw@PLT
.LEHE16:
.L403:
	movq	8(%rax), %rcx
	movq	%r14, %rdi
	movq	%r8, %rsi
	addl	$1, %ecx
	rep movsb
	jmp	.L389
.L402:
	movq	8(%rax), %rcx
	movq	%rbx, %rdi
	movq	%rdx, %rsi
	addl	$1, %ecx
	rep movsb
	jmp	.L387
.L397:
	movq	%rax, %rbx
	jmp	.L396
.L398:
	movq	%rax, %rbx
	jmp	.L395
.L396:
	movq	%r13, %rdi
	call	_ZNSt12system_errorD1Ev@PLT
	movq	%rbx, %rdi
.LEHB17:
	call	_Unwind_Resume@PLT
.L393:
	movq	(%rsp), %rdi
	call	_ZNSt7__cxx1112basic_stringIcSt11char_traitsIcESaIcEE10_M_disposeEv@PLT
.L394:
	movq	8(%rsp), %rdi
	call	_ZNSt7__cxx1112basic_stringIcSt11char_traitsIcESaIcEE10_M_disposeEv@PLT
.L395:
	movq	%rbp, %rdi
	call	_ZNSt7__cxx1112basic_stringIcSt11char_traitsIcESaIcEE10_M_disposeEv@PLT
	movq	%rbx, %rdi
	call	_Unwind_Resume@PLT
.LEHE17:
.L399:
	movq	%rax, %rbx
	jmp	.L394
.L400:
	movq	%rax, %rbx
	jmp	.L393
	.cfi_endproc
.LFE2316:
	.section	.gcc_except_table
.LLSDA2316:
	.byte	0xff
	.byte	0xff
	.byte	0x1
	.uleb128 .LLSDACSE2316-.LLSDACSB2316
.LLSDACSB2316:
	.uleb128 .LEHB12-.LFB2316
	.uleb128 .LEHE12-.LEHB12
	.uleb128 0
	.uleb128 0
	.uleb128 .LEHB13-.LFB2316
	.uleb128 .LEHE13-.LEHB13
	.uleb128 .L398-.LFB2316
	.uleb128 0
	.uleb128 .LEHB14-.LFB2316
	.uleb128 .LEHE14-.LEHB14
	.uleb128 .L399-.LFB2316
	.uleb128 0
	.uleb128 .LEHB15-.LFB2316
	.uleb128 .LEHE15-.LEHB15
	.uleb128 .L400-.LFB2316
	.uleb128 0
	.uleb128 .LEHB16-.LFB2316
	.uleb128 .LEHE16-.LEHB16
	.uleb128 .L397-.LFB2316
	.uleb128 0
	.uleb128 .LEHB17-.LFB2316
	.uleb128 .LEHE17-.LEHB17
	.uleb128 0
	.uleb128 0
.LLSDACSE2316:
	.section	.text._ZN4asio6detail14do_throw_errorERKSt10error_codePKc,"axG",@progbits,_ZN4asio6detail14do_throw_errorERKSt10error_codePKc,comdat
	.size	_ZN4asio6detail14do_throw_errorERKSt10error_codePKc, .-_ZN4asio6detail14do_throw_errorERKSt10error_codePKc
	.section	.text._ZN4asio6detail14strand_service16on_dispatch_exitD2Ev,"axG",@progbits,_ZN4asio6detail14strand_service16on_dispatch_exitD5Ev,comdat
	.align 2
	.p2align 4
	.weak	_ZN4asio6detail14strand_service16on_dispatch_exitD2Ev
	.type	_ZN4asio6detail14strand_service16on_dispatch_exitD2Ev, @function
_ZN4asio6detail14strand_service16on_dispatch_exitD2Ev:
.LFB6390:
	.cfi_startproc
	pushq	%rbp
	.cfi_def_cfa_offset 16
	.cfi_offset 6, -16
	movq	%rdi, %rbp
	pushq	%rbx
	.cfi_def_cfa_offset 24
	.cfi_offset 3, -24
	subq	$56, %rsp
	.cfi_def_cfa_offset 80
	movq	8(%rdi), %rax
	leaq	24(%rax), %rdi
	call	pthread_mutex_lock@PLT
	movq	8(%rbp), %rdi
	movq	72(%rdi), %rbx
	testq	%rbx, %rbx
	je	.L430
	movq	96(%rdi), %rax
	testq	%rax, %rax
	je	.L407
	movq	%rbx, (%rax)
	movq	88(%rdi), %rbx
.L408:
	movq	80(%rdi), %rax
	pxor	%xmm0, %xmm0
	movups	%xmm0, 72(%rdi)
	movq	%rax, 96(%rdi)
.L406:
	testq	%rbx, %rbx
	setne	64(%rdi)
	addq	$24, %rdi
	call	pthread_mutex_unlock@PLT
	testq	%rbx, %rbx
	je	.L404
	movdqu	0(%rbp), %xmm0
	movq	0(%rbp), %rbx
	movdqa	%xmm0, %xmm1
	movhlps	%xmm0, %xmm2
	punpckhqdq	%xmm0, %xmm1
	movq	%xmm2, %rbp
	movaps	%xmm1, 16(%rsp)
	cmpb	$0, 40(%rbx)
	je	.L410
	data16	leaq	_ZN4asio6detail15keyword_tss_ptrINS0_10call_stackINS0_15task_io_serviceENS0_27task_io_service_thread_infoEE7contextEE6value_E@tlsgd(%rip), %rdi
	.value	0x6666
	rex64
	call	__tls_get_addr@PLT
	movq	(%rax), %rax
	testq	%rax, %rax
	jne	.L413
	jmp	.L410
	.p2align 4
	.p2align 4,,10
	.p2align 3
.L411:
	movq	16(%rax), %rax
	testq	%rax, %rax
	je	.L410
.L413:
	cmpq	(%rax), %rbx
	jne	.L411
	movq	8(%rax), %rax
	testq	%rax, %rax
	je	.L410
	movq	16(%rax), %rdx
	addq	$1, 24(%rax)
	movq	$0, 0(%rbp)
	testq	%rdx, %rdx
	je	.L414
	movq	%rbp, (%rdx)
	movq	%rbp, 16(%rax)
.L404:
	addq	$56, %rsp
	.cfi_remember_state
	.cfi_def_cfa_offset 24
	popq	%rbx
	.cfi_def_cfa_offset 16
	popq	%rbp
	.cfi_def_cfa_offset 8
	ret
	.p2align 4,,10
	.p2align 3
.L407:
	.cfi_restore_state
	movq	%rbx, 88(%rdi)
	jmp	.L408
	.p2align 4,,10
	.p2align 3
.L410:
	lock addq	$1, 184(%rbx)
	leaq	48(%rbx), %r8
	movq	%r8, %rdi
	movq	%r8, 8(%rsp)
	call	pthread_mutex_lock@PLT
	movq	200(%rbx), %rax
	movq	8(%rsp), %r8
	movq	$0, 0(%rbp)
	testq	%rax, %rax
	je	.L415
	movq	%rbp, (%rax)
	movq	%rbp, 200(%rbx)
.L416:
	movq	136(%rbx), %rax
	movq	%rax, %rdx
	orq	$1, %rdx
	movq	%rdx, 136(%rbx)
	cmpq	$1, %rax
	ja	.L431
	cmpb	$0, 176(%rbx)
	jne	.L418
	movq	144(%rbx), %rax
	testq	%rax, %rax
	je	.L418
	leaq	88(%rax), %rdx
	movb	$1, 176(%rbx)
	movl	96(%rax), %edi
	leaq	36(%rsp), %rcx
	movq	%rdx, 40(%rsp)
	movl	88(%rax), %edx
	movl	$3, %esi
	movq	%r8, 8(%rsp)
	movl	$-2147483639, 36(%rsp)
	call	epoll_ctl@PLT
	movq	8(%rsp), %r8
.L418:
	addq	$56, %rsp
	.cfi_remember_state
	.cfi_def_cfa_offset 24
	movq	%r8, %rdi
	popq	%rbx
	.cfi_def_cfa_offset 16
	popq	%rbp
	.cfi_def_cfa_offset 8
	jmp	pthread_mutex_unlock@PLT
	.p2align 4,,10
	.p2align 3
.L430:
	.cfi_restore_state
	movq	88(%rdi), %rbx
	jmp	.L406
	.p2align 4,,10
	.p2align 3
.L431:
	movq	%r8, %rdi
	call	pthread_mutex_unlock@PLT
	addq	$56, %rsp
	.cfi_remember_state
	.cfi_def_cfa_offset 24
	leaq	88(%rbx), %rdi
	popq	%rbx
	.cfi_def_cfa_offset 16
	popq	%rbp
	.cfi_def_cfa_offset 8
	jmp	pthread_cond_signal@PLT
	.p2align 4,,10
	.p2align 3
.L415:
	.cfi_restore_state
	movdqa	16(%rsp), %xmm3
	movups	%xmm3, 192(%rbx)
	jmp	.L416
	.p2align 4,,10
	.p2align 3
.L414:
	movdqa	16(%rsp), %xmm4
	movups	%xmm4, 8(%rax)
	jmp	.L404
	.cfi_endproc
.LFE6390:
	.size	_ZN4asio6detail14strand_service16on_dispatch_exitD2Ev, .-_ZN4asio6detail14strand_service16on_dispatch_exitD2Ev
	.weak	_ZN4asio6detail14strand_service16on_dispatch_exitD1Ev
	.set	_ZN4asio6detail14strand_service16on_dispatch_exitD1Ev,_ZN4asio6detail14strand_service16on_dispatch_exitD2Ev
	.section	.text._ZN4asio6detail14strand_service19on_do_complete_exitD2Ev,"axG",@progbits,_ZN4asio6detail14strand_service19on_do_complete_exitD5Ev,comdat
	.align 2
	.p2align 4
	.weak	_ZN4asio6detail14strand_service19on_do_complete_exitD2Ev
	.type	_ZN4asio6detail14strand_service19on_do_complete_exitD2Ev, @function
_ZN4asio6detail14strand_service19on_do_complete_exitD2Ev:
.LFB6395:
	.cfi_startproc
	pushq	%rbp
	.cfi_def_cfa_offset 16
	.cfi_offset 6, -16
	movq	%rdi, %rbp
	pushq	%rbx
	.cfi_def_cfa_offset 24
	.cfi_offset 3, -24
	subq	$56, %rsp
	.cfi_def_cfa_offset 80
	movq	8(%rdi), %rax
	leaq	24(%rax), %rdi
	call	pthread_mutex_lock@PLT
	movq	8(%rbp), %rdi
	movq	72(%rdi), %rbx
	testq	%rbx, %rbx
	je	.L458
	movq	96(%rdi), %rax
	testq	%rax, %rax
	je	.L435
	movq	%rbx, (%rax)
	movq	88(%rdi), %rbx
.L436:
	movq	80(%rdi), %rax
	pxor	%xmm0, %xmm0
	movups	%xmm0, 72(%rdi)
	movq	%rax, 96(%rdi)
.L434:
	testq	%rbx, %rbx
	setne	64(%rdi)
	addq	$24, %rdi
	call	pthread_mutex_unlock@PLT
	testq	%rbx, %rbx
	je	.L432
	movdqu	0(%rbp), %xmm0
	movq	0(%rbp), %rbx
	movdqa	%xmm0, %xmm1
	movhlps	%xmm0, %xmm2
	punpckhqdq	%xmm0, %xmm1
	movq	%xmm2, %rbp
	movaps	%xmm1, (%rsp)
	data16	leaq	_ZN4asio6detail15keyword_tss_ptrINS0_10call_stackINS0_15task_io_serviceENS0_27task_io_service_thread_infoEE7contextEE6value_E@tlsgd(%rip), %rdi
	.value	0x6666
	rex64
	call	__tls_get_addr@PLT
	movq	(%rax), %rax
	testq	%rax, %rax
	jne	.L441
	jmp	.L438
	.p2align 4
	.p2align 4,,10
	.p2align 3
.L439:
	movq	16(%rax), %rax
	testq	%rax, %rax
	je	.L438
.L441:
	cmpq	(%rax), %rbx
	jne	.L439
	movq	8(%rax), %rax
	testq	%rax, %rax
	je	.L438
	movq	16(%rax), %rdx
	addq	$1, 24(%rax)
	movq	$0, 0(%rbp)
	testq	%rdx, %rdx
	je	.L442
	movq	%rbp, (%rdx)
	movq	%rbp, 16(%rax)
.L432:
	addq	$56, %rsp
	.cfi_remember_state
	.cfi_def_cfa_offset 24
	popq	%rbx
	.cfi_def_cfa_offset 16
	popq	%rbp
	.cfi_def_cfa_offset 8
	ret
	.p2align 4,,10
	.p2align 3
.L435:
	.cfi_restore_state
	movq	%rbx, 88(%rdi)
	jmp	.L436
	.p2align 4,,10
	.p2align 3
.L458:
	movq	88(%rdi), %rbx
	jmp	.L434
	.p2align 4,,10
	.p2align 3
.L438:
	lock addq	$1, 184(%rbx)
	leaq	48(%rbx), %r8
	movq	%r8, %rdi
	movq	%r8, 24(%rsp)
	call	pthread_mutex_lock@PLT
	movq	200(%rbx), %rax
	movq	24(%rsp), %r8
	movq	$0, 0(%rbp)
	testq	%rax, %rax
	je	.L443
	movq	%rbp, (%rax)
	movq	%rbp, 200(%rbx)
.L444:
	movq	136(%rbx), %rax
	movq	%rax, %rdx
	orq	$1, %rdx
	movq	%rdx, 136(%rbx)
	cmpq	$1, %rax
	jbe	.L445
	movq	%r8, %rdi
	call	pthread_mutex_unlock@PLT
	addq	$56, %rsp
	.cfi_remember_state
	.cfi_def_cfa_offset 24
	leaq	88(%rbx), %rdi
	popq	%rbx
	.cfi_def_cfa_offset 16
	popq	%rbp
	.cfi_def_cfa_offset 8
	jmp	pthread_cond_signal@PLT
	.p2align 4,,10
	.p2align 3
.L443:
	.cfi_restore_state
	movdqa	(%rsp), %xmm4
	movups	%xmm4, 192(%rbx)
	jmp	.L444
	.p2align 4,,10
	.p2align 3
.L445:
	cmpb	$0, 176(%rbx)
	jne	.L446
	movq	144(%rbx), %rax
	testq	%rax, %rax
	je	.L446
	leaq	88(%rax), %rdx
	movl	96(%rax), %edi
	leaq	36(%rsp), %rcx
	movq	%r8, (%rsp)
	movb	$1, 176(%rbx)
	movl	$3, %esi
	movq	%rdx, 40(%rsp)
	movl	88(%rax), %edx
	movl	$-2147483639, 36(%rsp)
	call	epoll_ctl@PLT
	movq	(%rsp), %r8
.L446:
	addq	$56, %rsp
	.cfi_remember_state
	.cfi_def_cfa_offset 24
	movq	%r8, %rdi
	popq	%rbx
	.cfi_def_cfa_offset 16
	popq	%rbp
	.cfi_def_cfa_offset 8
	jmp	pthread_mutex_unlock@PLT
	.p2align 4,,10
	.p2align 3
.L442:
	.cfi_restore_state
	movdqa	(%rsp), %xmm3
	movups	%xmm3, 8(%rax)
	jmp	.L432
	.cfi_endproc
.LFE6395:
	.size	_ZN4asio6detail14strand_service19on_do_complete_exitD2Ev, .-_ZN4asio6detail14strand_service19on_do_complete_exitD2Ev
	.weak	_ZN4asio6detail14strand_service19on_do_complete_exitD1Ev
	.set	_ZN4asio6detail14strand_service19on_do_complete_exitD1Ev,_ZN4asio6detail14strand_service19on_do_complete_exitD2Ev
	.section	.text._ZN4asio6detail14strand_service11do_completeEPNS0_15task_io_serviceEPNS0_25task_io_service_operationERKSt10error_codem,"axG",@progbits,_ZN4asio6detail14strand_service11do_completeEPNS0_15task_io_serviceEPNS0_25task_io_service_operationERKSt10error_codem,comdat
	.align 2
	.p2align 4
	.weak	_ZN4asio6detail14strand_service11do_completeEPNS0_15task_io_serviceEPNS0_25task_io_service_operationERKSt10error_codem
	.type	_ZN4asio6detail14strand_service11do_completeEPNS0_15task_io_serviceEPNS0_25task_io_service_operationERKSt10error_codem, @function
_ZN4asio6detail14strand_service11do_completeEPNS0_15task_io_serviceEPNS0_25task_io_service_operationERKSt10error_codem:
.LFB6409:
	.cfi_startproc
	.cfi_personality 0x9b,DW.ref.__gxx_personality_v0
	.cfi_lsda 0x1b,.LLSDA6409
	testq	%rdi, %rdi
	je	.L495
	pushq	%r12
	.cfi_def_cfa_offset 16
	.cfi_offset 12, -16
	movq	%rdx, %r12
	pushq	%rbp
	.cfi_def_cfa_offset 24
	.cfi_offset 6, -24
	movq	%rdi, %rbp
	pushq	%rbx
	.cfi_def_cfa_offset 32
	.cfi_offset 3, -32
	movq	%rsi, %rbx
	subq	$80, %rsp
	.cfi_def_cfa_offset 112
	data16	leaq	_ZN4asio6detail15keyword_tss_ptrINS0_10call_stackINS0_14strand_service11strand_implEhE7contextEE6value_E@tlsgd(%rip), %rdi
	.value	0x6666
	rex64
	call	__tls_get_addr@PLT
	movq	%rbx, %xmm0
	movq	%rbp, 32(%rsp)
	movq	%rbx, 40(%rsp)
	movq	(%rax), %rdx
	movq	%rdx, 64(%rsp)
	leaq	48(%rsp), %rdx
	movq	%rdx, %xmm2
	movq	%rdx, (%rax)
	punpcklqdq	%xmm2, %xmm0
	movaps	%xmm0, 48(%rsp)
	jmp	.L463
	.p2align 4,,10
	.p2align 3
.L462:
	movq	$0, (%rax)
	xorl	%ecx, %ecx
	movq	%r12, %rdx
	movq	%rax, %rsi
	movq	%rbp, %rdi
.LEHB18:
	call	*8(%rax)
.LEHE18:
.L463:
	movq	88(%rbx), %rax
	testq	%rax, %rax
	je	.L461
	movq	(%rax), %rdx
	movq	%rdx, 88(%rbx)
	testq	%rdx, %rdx
	jne	.L462
	movq	$0, 96(%rbx)
	jmp	.L462
	.p2align 4,,10
	.p2align 3
.L461:
	leaq	24(%rbx), %rdi
	movq	%rdi, (%rsp)
	call	pthread_mutex_lock@PLT
	movq	72(%rbx), %r12
	movq	(%rsp), %rdi
	testq	%r12, %r12
	je	.L498
	movq	96(%rbx), %rax
	testq	%rax, %rax
	je	.L466
	movq	%r12, (%rax)
	movq	88(%rbx), %r12
.L467:
	movq	80(%rbx), %rax
	pxor	%xmm0, %xmm0
	movups	%xmm0, 72(%rbx)
	movq	%rax, 96(%rbx)
.L465:
	testq	%r12, %r12
	setne	64(%rbx)
	call	pthread_mutex_unlock@PLT
	testq	%r12, %r12
	je	.L468
	movq	%rbx, %xmm1
	punpcklqdq	%xmm1, %xmm1
	movaps	%xmm1, (%rsp)
	data16	leaq	_ZN4asio6detail15keyword_tss_ptrINS0_10call_stackINS0_15task_io_serviceENS0_27task_io_service_thread_infoEE7contextEE6value_E@tlsgd(%rip), %rdi
	.value	0x6666
	rex64
	call	__tls_get_addr@PLT
	movq	(%rax), %rax
	testq	%rax, %rax
	jne	.L472
	jmp	.L469
	.p2align 4
	.p2align 4,,10
	.p2align 3
.L470:
	movq	16(%rax), %rax
	testq	%rax, %rax
	je	.L469
.L472:
	cmpq	(%rax), %rbp
	jne	.L470
	movq	8(%rax), %rax
	testq	%rax, %rax
	je	.L469
	movq	16(%rax), %rdx
	addq	$1, 24(%rax)
	movq	$0, (%rbx)
	testq	%rdx, %rdx
	je	.L473
	movq	%rbx, (%rdx)
	movq	%rbx, 16(%rax)
.L468:
	data16	leaq	_ZN4asio6detail15keyword_tss_ptrINS0_10call_stackINS0_14strand_service11strand_implEhE7contextEE6value_E@tlsgd(%rip), %rdi
	.value	0x6666
	rex64
	call	__tls_get_addr@PLT
	movq	64(%rsp), %rdx
	movq	%rdx, (%rax)
	addq	$80, %rsp
	.cfi_remember_state
	.cfi_def_cfa_offset 32
	popq	%rbx
	.cfi_def_cfa_offset 24
	popq	%rbp
	.cfi_def_cfa_offset 16
	popq	%r12
	.cfi_def_cfa_offset 8
	ret
	.p2align 4,,10
	.p2align 3
.L498:
	.cfi_restore_state
	movq	88(%rbx), %r12
	jmp	.L465
	.p2align 4,,10
	.p2align 3
.L495:
	.cfi_def_cfa_offset 8
	.cfi_restore 3
	.cfi_restore 6
	.cfi_restore 12
	ret
.L473:
	.cfi_def_cfa_offset 112
	.cfi_offset 3, -32
	.cfi_offset 6, -24
	.cfi_offset 12, -16
	movdqa	(%rsp), %xmm3
	movups	%xmm3, 8(%rax)
	jmp	.L468
	.p2align 4,,10
	.p2align 3
.L469:
	lock addq	$1, 184(%rbp)
	leaq	48(%rbp), %r12
	movq	%r12, %rdi
	call	pthread_mutex_lock@PLT
	movq	200(%rbp), %rax
	movq	$0, (%rbx)
	testq	%rax, %rax
	je	.L474
	movq	%rbx, (%rax)
	movq	%rbx, 200(%rbp)
.L475:
	movq	136(%rbp), %rax
	movq	%rax, %rdx
	orq	$1, %rdx
	movq	%rdx, 136(%rbp)
	cmpq	$1, %rax
	jbe	.L476
	movq	%r12, %rdi
	call	pthread_mutex_unlock@PLT
	leaq	88(%rbp), %rdi
	call	pthread_cond_signal@PLT
	jmp	.L468
	.p2align 4,,10
	.p2align 3
.L466:
	movq	%r12, 88(%rbx)
	jmp	.L467
	.p2align 4,,10
	.p2align 3
.L476:
	cmpb	$0, 176(%rbp)
	jne	.L478
	movq	144(%rbp), %rax
	testq	%rax, %rax
	je	.L478
	leaq	88(%rax), %rdx
	movb	$1, 176(%rbp)
	movl	96(%rax), %edi
	leaq	20(%rsp), %rcx
	movq	%rdx, 24(%rsp)
	movl	88(%rax), %edx
	movl	$3, %esi
	movl	$-2147483639, 20(%rsp)
	call	epoll_ctl@PLT
.L478:
	movq	%r12, %rdi
	call	pthread_mutex_unlock@PLT
	jmp	.L468
.L474:
	movdqa	(%rsp), %xmm4
	movups	%xmm4, 192(%rbp)
	jmp	.L475
.L480:
	movq	%rax, %rbx
.L479:
	leaq	32(%rsp), %rdi
	call	_ZN4asio6detail14strand_service19on_do_complete_exitD1Ev@PLT
	data16	leaq	_ZN4asio6detail15keyword_tss_ptrINS0_10call_stackINS0_14strand_service11strand_implEhE7contextEE6value_E@tlsgd(%rip), %rdi
	.value	0x6666
	rex64
	call	__tls_get_addr@PLT
	movq	64(%rsp), %rdx
	movq	%rbx, %rdi
	movq	%rdx, (%rax)
.LEHB19:
	call	_Unwind_Resume@PLT
.LEHE19:
	.cfi_endproc
.LFE6409:
	.section	.gcc_except_table
.LLSDA6409:
	.byte	0xff
	.byte	0xff
	.byte	0x1
	.uleb128 .LLSDACSE6409-.LLSDACSB6409
.LLSDACSB6409:
	.uleb128 .LEHB18-.LFB6409
	.uleb128 .LEHE18-.LEHB18
	.uleb128 .L480-.LFB6409
	.uleb128 0
	.uleb128 .LEHB19-.LFB6409
	.uleb128 .LEHE19-.LEHB19
	.uleb128 0
	.uleb128 0
.LLSDACSE6409:
	.section	.text._ZN4asio6detail14strand_service11do_completeEPNS0_15task_io_serviceEPNS0_25task_io_service_operationERKSt10error_codem,"axG",@progbits,_ZN4asio6detail14strand_service11do_completeEPNS0_15task_io_serviceEPNS0_25task_io_service_operationERKSt10error_codem,comdat
	.size	_ZN4asio6detail14strand_service11do_completeEPNS0_15task_io_serviceEPNS0_25task_io_service_operationERKSt10error_codem, .-_ZN4asio6detail14strand_service11do_completeEPNS0_15task_io_serviceEPNS0_25task_io_service_operationERKSt10error_codem
	.section	.text._ZNSt16_Sp_counted_baseILN9__gnu_cxx12_Lock_policyE2EE24_M_release_last_use_coldEv,"axG",@progbits,_ZNSt16_Sp_counted_baseILN9__gnu_cxx12_Lock_policyE2EE24_M_release_last_use_coldEv,comdat
	.align 2
	.p2align 4
	.weak	_ZNSt16_Sp_counted_baseILN9__gnu_cxx12_Lock_policyE2EE24_M_release_last_use_coldEv
	.type	_ZNSt16_Sp_counted_baseILN9__gnu_cxx12_Lock_policyE2EE24_M_release_last_use_coldEv, @function
_ZNSt16_Sp_counted_baseILN9__gnu_cxx12_Lock_policyE2EE24_M_release_last_use_coldEv:
.LFB7295:
	.cfi_startproc
	pushq	%rbx
	.cfi_def_cfa_offset 16
	.cfi_offset 3, -16
	movq	(%rdi), %rax
	movq	%rdi, %rbx
	call	*16(%rax)
	movq	__libc_single_threaded@GOTPCREL(%rip), %rax
	cmpb	$0, (%rax)
	je	.L500
	movl	12(%rbx), %eax
	leal	-1(%rax), %edx
	movl	%edx, 12(%rbx)
.L501:
	cmpl	$1, %eax
	je	.L504
	popq	%rbx
	.cfi_remember_state
	.cfi_def_cfa_offset 8
	ret
	.p2align 4,,10
	.p2align 3
.L504:
	.cfi_restore_state
	movq	(%rbx), %rax
	movq	%rbx, %rdi
	popq	%rbx
	.cfi_remember_state
	.cfi_def_cfa_offset 8
	movq	24(%rax), %rax
	jmp	*%rax
	.p2align 4,,10
	.p2align 3
.L500:
	.cfi_restore_state
	movl	$-1, %eax
	lock xaddl	%eax, 12(%rbx)
	jmp	.L501
	.cfi_endproc
.LFE7295:
	.size	_ZNSt16_Sp_counted_baseILN9__gnu_cxx12_Lock_policyE2EE24_M_release_last_use_coldEv, .-_ZNSt16_Sp_counted_baseILN9__gnu_cxx12_Lock_policyE2EE24_M_release_last_use_coldEv
	.section	.text._ZNSt16_Sp_counted_baseILN9__gnu_cxx12_Lock_policyE2EE10_M_releaseEv,"axG",@progbits,_ZNSt16_Sp_counted_baseILN9__gnu_cxx12_Lock_policyE2EE10_M_releaseEv,comdat
	.align 2
	.p2align 4
	.weak	_ZNSt16_Sp_counted_baseILN9__gnu_cxx12_Lock_policyE2EE10_M_releaseEv
	.type	_ZNSt16_Sp_counted_baseILN9__gnu_cxx12_Lock_policyE2EE10_M_releaseEv, @function
_ZNSt16_Sp_counted_baseILN9__gnu_cxx12_Lock_policyE2EE10_M_releaseEv:
.LFB1694:
	.cfi_startproc
	movabsq	$4294967297, %rax
	movq	8(%rdi), %rdx
	cmpq	%rax, %rdx
	je	.L513
	movq	__libc_single_threaded@GOTPCREL(%rip), %rax
	cmpb	$0, (%rax)
	je	.L507
	movl	8(%rdi), %eax
	leal	-1(%rax), %edx
	movl	%edx, 8(%rdi)
.L508:
	cmpl	$1, %eax
	je	.L514
	ret
	.p2align 4,,10
	.p2align 3
.L507:
	leaq	8(%rdi), %rcx
	movl	$-1, %eax
	lock xaddl	%eax, (%rcx)
	jmp	.L508
	.p2align 4,,10
	.p2align 3
.L513:
	subq	$24, %rsp
	.cfi_def_cfa_offset 32
	movq	(%rdi), %rax
	movq	$0, 8(%rdi)
	movq	%rdi, 8(%rsp)
	call	*16(%rax)
	movq	8(%rsp), %rdi
	movq	(%rdi), %rax
	movq	24(%rax), %rax
	addq	$24, %rsp
	.cfi_def_cfa_offset 8
	jmp	*%rax
	.p2align 4,,10
	.p2align 3
.L514:
	jmp	_ZNSt16_Sp_counted_baseILN9__gnu_cxx12_Lock_policyE2EE24_M_release_last_use_coldEv@PLT
	.cfi_endproc
.LFE1694:
	.size	_ZNSt16_Sp_counted_baseILN9__gnu_cxx12_Lock_policyE2EE10_M_releaseEv, .-_ZNSt16_Sp_counted_baseILN9__gnu_cxx12_Lock_policyE2EE10_M_releaseEv
	.section	.rodata.str1.1,"aMS",@progbits,1
.LC29:
	.string	"mutex"
	.section	.text.unlikely
	.align 2
.LCOLDB30:
	.text
.LHOTB30:
	.align 2
	.p2align 4
	.globl	_ZN7asiopal8ExecutorC2ERKSt10shared_ptrINS_2IOEE
	.type	_ZN7asiopal8ExecutorC2ERKSt10shared_ptrINS_2IOEE, @function
_ZN7asiopal8ExecutorC2ERKSt10shared_ptrINS_2IOEE:
.LFB6958:
	.cfi_startproc
	.cfi_personality 0x9b,DW.ref.__gxx_personality_v0
	.cfi_lsda 0x1b,.LLSDA6958
	pushq	%r15
	.cfi_def_cfa_offset 16
	.cfi_offset 15, -16
	pushq	%r14
	.cfi_def_cfa_offset 24
	.cfi_offset 14, -24
	pushq	%r13
	.cfi_def_cfa_offset 32
	.cfi_offset 13, -32
	pushq	%r12
	.cfi_def_cfa_offset 40
	.cfi_offset 12, -40
	pushq	%rbp
	.cfi_def_cfa_offset 48
	.cfi_offset 6, -48
	movq	%rdi, %rbp
	pushq	%rbx
	.cfi_def_cfa_offset 56
	.cfi_offset 3, -56
	subq	$40, %rsp
	.cfi_def_cfa_offset 96
	movq	_ZTVN7asiopal8ExecutorE@GOTPCREL(%rip), %rax
	movq	$0, 16(%rdi)
	addq	$16, %rax
	movq	%rax, %xmm0
	movups	%xmm0, (%rdi)
	movq	(%rsi), %rax
	movq	%rax, 24(%rdi)
	movq	8(%rsi), %rax
	movq	%rax, 32(%rdi)
	testq	%rax, %rax
	je	.L516
	movq	__libc_single_threaded@GOTPCREL(%rip), %rdx
	cmpb	$0, (%rdx)
	je	.L517
	addl	$1, 8(%rax)
.L516:
	movq	(%rsi), %rax
	movq	8(%rax), %r12
	leaq	8(%r12), %r13
	movq	%r13, %rdi
	call	pthread_mutex_lock@PLT
	movq	56(%r12), %rbx
	testq	%rbx, %rbx
	je	.L518
	.p2align 4
	.p2align 3
.L521:
	movq	8(%rbx), %rax
	testq	%rax, %rax
	je	.L519
	movq	8(%rax), %rdi
	movq	_ZTSN4asio6detail14typeid_wrapperINS0_14strand_serviceEEE@GOTPCREL(%rip), %rsi
	cmpq	%rsi, %rdi
	je	.L520
	cmpb	$42, (%rdi)
	je	.L519
	call	strcmp@PLT
	testl	%eax, %eax
	jne	.L519
.L520:
	movq	%r13, %rdi
	leaq	48(%rbx), %r12
	call	pthread_mutex_unlock@PLT
	movq	%rbx, 40(%rbp)
	movq	%r12, %rdi
	call	pthread_mutex_lock@PLT
	movq	1632(%rbx), %rcx
	leaq	48(%rbp), %rdx
	shrq	$3, %rdx
	leaq	1(%rcx), %rax
	movq	%rax, 1632(%rbx)
	leaq	48(%rbp,%rdx), %rax
	movq	%rax, %rdx
	movq	%rax, %rsi
	shrq	$2, %rsi
	salq	$6, %rdx
	addq	%rsi, %rdx
	movl	$2654435769, %esi
	addq	%rsi, %rdx
	addq	%rcx, %rdx
	xorq	%rdx, %rax
	movabsq	$1529263757405973191, %rdx
	movq	%rax, %rcx
	mulq	%rdx
	movq	%rcx, %rax
	shrq	$4, %rdx
	imulq	$193, %rdx, %rdx
	subq	%rdx, %rax
	leaq	(%rbx,%rax,8), %r14
	movq	88(%r14), %rbx
	testq	%rbx, %rbx
	je	.L600
.L532:
	movq	%rbx, 48(%rbp)
	addq	$40, %rsp
	.cfi_remember_state
	.cfi_def_cfa_offset 56
	movq	%r12, %rdi
	popq	%rbx
	.cfi_def_cfa_offset 48
	popq	%rbp
	.cfi_def_cfa_offset 40
	popq	%r12
	.cfi_def_cfa_offset 32
	popq	%r13
	.cfi_def_cfa_offset 24
	popq	%r14
	.cfi_def_cfa_offset 16
	popq	%r15
	.cfi_def_cfa_offset 8
.LEHB20:
	jmp	pthread_mutex_unlock@PLT
.LEHE20:
	.p2align 4,,10
	.p2align 3
.L519:
	.cfi_restore_state
	movq	32(%rbx), %rbx
	testq	%rbx, %rbx
	jne	.L521
.L518:
	movq	%r13, %rdi
	call	pthread_mutex_unlock@PLT
	movl	$1640, %edi
	movq	48(%r12), %rbx
.LEHB21:
	call	_Znwm@PLT
.LEHE21:
	movq	$0, 32(%rax)
	movq	%rax, %r14
	movq	_ZTVN4asio6detail14strand_serviceE@GOTPCREL(%rip), %rax
	xorl	%esi, %esi
	movq	%rbx, %xmm1
	leaq	48(%r14), %rdi
	addq	$16, %rax
	movq	%rax, %xmm0
	movq	8(%rbx), %rax
	movups	%xmm0, (%r14)
	pxor	%xmm0, %xmm0
	movq	%rax, 40(%r14)
	punpcklqdq	%xmm1, %xmm0
	movups	%xmm0, 16(%r14)
	call	pthread_mutex_init@PLT
	movl	%eax, %ebx
	movq	_ZGVZN4asio15system_categoryEvE8instance@GOTPCREL(%rip), %rax
	movzbl	(%rax), %eax
	testb	%al, %al
	je	.L522
	movq	_ZZN4asio15system_categoryEvE8instance@GOTPCREL(%rip), %r15
.L523:
	movl	%ebx, 16(%rsp)
	movq	%r15, 24(%rsp)
	testl	%ebx, %ebx
	jne	.L601
	leaq	96(%r14), %rdi
	movl	%r14d, %eax
	movq	$0, 88(%r14)
	movq	_ZTIN4asio6detail14typeid_wrapperINS0_14strand_serviceEEE@GOTPCREL(%rip), %xmm0
	movq	$0, 1624(%r14)
	andq	$-8, %rdi
	subl	%edi, %eax
	leal	1632(%rax), %ecx
	xorl	%eax, %eax
	shrl	$3, %ecx
	rep stosq
	movups	%xmm0, 8(%r14)
	movq	%r13, %rdi
	movq	$0, 1632(%r14)
	call	pthread_mutex_lock@PLT
	movq	56(%r12), %r15
	movq	%r15, %rbx
	testq	%r15, %r15
	je	.L527
	.p2align 4
	.p2align 3
.L526:
	movq	8(%rbx), %rax
	testq	%rax, %rax
	je	.L530
	movq	8(%rax), %rdi
	movq	_ZTSN4asio6detail14typeid_wrapperINS0_14strand_serviceEEE@GOTPCREL(%rip), %rsi
	cmpq	%rsi, %rdi
	je	.L531
	cmpb	$42, (%rdi)
	je	.L530
	call	strcmp@PLT
	testl	%eax, %eax
	jne	.L530
.L531:
	movq	(%r14), %rax
	movq	%r14, %rdi
	call	*8(%rax)
	jmp	.L520
.L517:
	lock addl	$1, 8(%rax)
	jmp	.L516
	.p2align 4,,10
	.p2align 3
.L530:
	movq	32(%rbx), %rbx
	testq	%rbx, %rbx
	jne	.L526
.L527:
	movq	%r15, 32(%r14)
	movq	%r14, %rbx
	movq	%r14, 56(%r12)
	jmp	.L520
.L600:
	movl	$104, %edi
.LEHB22:
	call	_Znwm@PLT
.LEHE22:
	movq	$0, (%rax)
	movq	%rax, %rbx
	xorl	%esi, %esi
	movq	_ZN4asio6detail14strand_service11do_completeEPNS0_15task_io_serviceEPNS0_25task_io_service_operationERKSt10error_codem@GOTPCREL(%rip), %rax
	movl	$0, 16(%rbx)
	leaq	24(%rbx), %rdi
	movq	%rax, 8(%rbx)
	call	pthread_mutex_init@PLT
	movl	%eax, %r13d
	movq	_ZGVZN4asio15system_categoryEvE8instance@GOTPCREL(%rip), %rax
	movzbl	(%rax), %eax
	testb	%al, %al
	je	.L533
	movq	_ZZN4asio15system_categoryEvE8instance@GOTPCREL(%rip), %r15
.L534:
	movl	%r13d, 16(%rsp)
	movq	%r15, 24(%rsp)
	testl	%r13d, %r13d
	jne	.L602
	movq	88(%r14), %r13
	pxor	%xmm0, %xmm0
	movb	$0, 64(%rbx)
	movups	%xmm0, 72(%rbx)
	movups	%xmm0, 88(%rbx)
	testq	%r13, %r13
	je	.L537
	movq	88(%r13), %rsi
	testq	%rsi, %rsi
	je	.L543
	movq	%rsi, 8(%rsp)
	call	_ZNSt3_V215system_categoryEv@PLT
	movq	8(%rsp), %rsi
	movq	%rax, %r15
	leaq	16(%rsp), %rax
	movq	%rax, (%rsp)
	jmp	.L544
	.p2align 4,,10
	.p2align 3
.L541:
	movq	$0, (%rsi)
	movq	8(%rsi), %rax
	xorl	%ecx, %ecx
	xorl	%edi, %edi
	movl	$0, 16(%rsp)
	movq	(%rsp), %rdx
	movq	%r15, 24(%rsp)
	call	*%rax
	movq	88(%r13), %rsi
	testq	%rsi, %rsi
	je	.L543
.L544:
	movq	(%rsi), %rax
	movq	%rax, 88(%r13)
	testq	%rax, %rax
	jne	.L541
	movq	$0, 96(%r13)
	jmp	.L541
.L540:
	leaq	24(%r13), %rdi
	call	pthread_mutex_destroy@PLT
	movl	$104, %esi
	movq	%r13, %rdi
	call	_ZdlPvm@PLT
.L537:
	movq	%rbx, 88(%r14)
	jmp	.L532
.L522:
	movq	_ZGVZN4asio15system_categoryEvE8instance@GOTPCREL(%rip), %rdi
	call	__cxa_guard_acquire@PLT
	movq	_ZZN4asio15system_categoryEvE8instance@GOTPCREL(%rip), %r15
	testl	%eax, %eax
	je	.L523
	movq	_ZN4asio6detail15system_categoryD1Ev@GOTPCREL(%rip), %rdi
	leaq	__dso_handle(%rip), %rdx
	movq	%r15, %rsi
	call	__cxa_atexit@PLT
	movq	_ZGVZN4asio15system_categoryEvE8instance@GOTPCREL(%rip), %rdi
	call	__cxa_guard_release@PLT
	jmp	.L523
.L543:
	movq	72(%r13), %rsi
	testq	%rsi, %rsi
	je	.L540
	movq	%rsi, 8(%rsp)
	call	_ZNSt3_V215system_categoryEv@PLT
	movq	8(%rsp), %rsi
	movq	%rax, %r15
	leaq	16(%rsp), %rax
	movq	%rax, (%rsp)
	jmp	.L547
	.p2align 4,,10
	.p2align 3
.L545:
	movq	$0, (%rsi)
	movq	8(%rsi), %rax
	xorl	%ecx, %ecx
	xorl	%edi, %edi
	movl	$0, 16(%rsp)
	movq	(%rsp), %rdx
	movq	%r15, 24(%rsp)
	call	*%rax
	movq	72(%r13), %rsi
	testq	%rsi, %rsi
	je	.L540
.L547:
	movq	(%rsi), %rax
	movq	%rax, 72(%r13)
	testq	%rax, %rax
	jne	.L545
	movq	$0, 80(%r13)
	jmp	.L545
.L533:
	movq	_ZGVZN4asio15system_categoryEvE8instance@GOTPCREL(%rip), %rdi
	call	__cxa_guard_acquire@PLT
	movq	_ZZN4asio15system_categoryEvE8instance@GOTPCREL(%rip), %r15
	testl	%eax, %eax
	je	.L534
	movq	_ZN4asio6detail15system_categoryD1Ev@GOTPCREL(%rip), %rdi
	leaq	__dso_handle(%rip), %rdx
	movq	%r15, %rsi
	call	__cxa_atexit@PLT
	movq	_ZGVZN4asio15system_categoryEvE8instance@GOTPCREL(%rip), %rdi
	call	__cxa_guard_release@PLT
	jmp	.L534
.L601:
	leaq	16(%rsp), %rdi
	leaq	.LC29(%rip), %rsi
.LEHB23:
	call	_ZN4asio6detail14do_throw_errorERKSt10error_codePKc@PLT
.LEHE23:
.L602:
	leaq	16(%rsp), %rdi
	leaq	.LC29(%rip), %rsi
.LEHB24:
	call	_ZN4asio6detail14do_throw_errorERKSt10error_codePKc@PLT
.LEHE24:
.L558:
	movq	%rax, %rbx
	jmp	.L528
.L560:
	jmp	.L548
.L557:
	movq	%rax, %rbx
	jmp	.L529
.L559:
	movq	%rax, %rbx
	jmp	.L549
	.section	.gcc_except_table
.LLSDA6958:
	.byte	0xff
	.byte	0xff
	.byte	0x1
	.uleb128 .LLSDACSE6958-.LLSDACSB6958
.LLSDACSB6958:
	.uleb128 .LEHB20-.LFB6958
	.uleb128 .LEHE20-.LEHB20
	.uleb128 0
	.uleb128 0
	.uleb128 .LEHB21-.LFB6958
	.uleb128 .LEHE21-.LEHB21
	.uleb128 .L557-.LFB6958
	.uleb128 0
	.uleb128 .LEHB22-.LFB6958
	.uleb128 .LEHE22-.LEHB22
	.uleb128 .L559-.LFB6958
	.uleb128 0
	.uleb128 .LEHB23-.LFB6958
	.uleb128 .LEHE23-.LEHB23
	.uleb128 .L558-.LFB6958
	.uleb128 0
	.uleb128 .LEHB24-.LFB6958
	.uleb128 .LEHE24-.LEHB24
	.uleb128 .L560-.LFB6958
	.uleb128 0
.LLSDACSE6958:
	.text
	.cfi_endproc
	.section	.text.unlikely
	.cfi_startproc
	.cfi_personality 0x9b,DW.ref.__gxx_personality_v0
	.cfi_lsda 0x1b,.LLSDAC6958
	.type	_ZN7asiopal8ExecutorC2ERKSt10shared_ptrINS_2IOEE.cold, @function
_ZN7asiopal8ExecutorC2ERKSt10shared_ptrINS_2IOEE.cold:
.LFSB6958:
.L528:
	.cfi_def_cfa_offset 96
	.cfi_offset 3, -56
	.cfi_offset 6, -48
	.cfi_offset 12, -40
	.cfi_offset 13, -32
	.cfi_offset 14, -24
	.cfi_offset 15, -16
	movl	$1640, %esi
	movq	%r14, %rdi
	call	_ZdlPvm@PLT
.L529:
	movq	32(%rbp), %rdi
	testq	%rdi, %rdi
	je	.L550
	call	_ZNSt16_Sp_counted_baseILN9__gnu_cxx12_Lock_policyE2EE10_M_releaseEv@PLT
.L550:
	movq	16(%rbp), %rdi
	testq	%rdi, %rdi
	je	.L552
	movq	__libc_single_threaded@GOTPCREL(%rip), %rax
	cmpb	$0, (%rax)
	je	.L553
	movl	12(%rdi), %eax
	leal	-1(%rax), %edx
	movl	%edx, 12(%rdi)
.L554:
	subl	$1, %eax
	je	.L603
.L552:
	movq	%rbx, %rdi
.LEHB25:
	call	_Unwind_Resume@PLT
.LEHE25:
.L548:
	movq	%rbx, %rdi
	movl	$104, %esi
	movq	%rax, %rbx
	call	_ZdlPvm@PLT
.L549:
	movq	%r12, %rdi
	call	pthread_mutex_unlock@PLT
	jmp	.L529
.L553:
	movl	$-1, %eax
	lock xaddl	%eax, 12(%rdi)
	jmp	.L554
.L603:
	movq	(%rdi), %rax
	call	*24(%rax)
	jmp	.L552
	.cfi_endproc
.LFE6958:
	.section	.gcc_except_table
.LLSDAC6958:
	.byte	0xff
	.byte	0xff
	.byte	0x1
	.uleb128 .LLSDACSEC6958-.LLSDACSBC6958
.LLSDACSBC6958:
	.uleb128 .LEHB25-.LCOLDB30
	.uleb128 .LEHE25-.LEHB25
	.uleb128 0
	.uleb128 0
.LLSDACSEC6958:
	.section	.text.unlikely
	.text
	.size	_ZN7asiopal8ExecutorC2ERKSt10shared_ptrINS_2IOEE, .-_ZN7asiopal8ExecutorC2ERKSt10shared_ptrINS_2IOEE
	.section	.text.unlikely
	.size	_ZN7asiopal8ExecutorC2ERKSt10shared_ptrINS_2IOEE.cold, .-_ZN7asiopal8ExecutorC2ERKSt10shared_ptrINS_2IOEE.cold
.LCOLDE30:
	.text
.LHOTE30:
	.globl	_ZN7asiopal8ExecutorC1ERKSt10shared_ptrINS_2IOEE
	.set	_ZN7asiopal8ExecutorC1ERKSt10shared_ptrINS_2IOEE,_ZN7asiopal8ExecutorC2ERKSt10shared_ptrINS_2IOEE
	.section	.text.unlikely
	.align 2
	.type	_ZZN7asiopal8Executor4PostERKSt8functionIFvvEEENUlvE_D2Ev, @function
_ZZN7asiopal8Executor4PostERKSt8functionIFvvEEENUlvE_D2Ev:
.LFB7008:
	.cfi_startproc
	.cfi_personality 0x9b,DW.ref.__gxx_personality_v0
	.cfi_lsda 0x1b,.LLSDA7008
	pushq	%rbp
	.cfi_def_cfa_offset 16
	.cfi_offset 6, -16
	movq	%rdi, %rbp
	pushq	%rbx
	.cfi_def_cfa_offset 24
	.cfi_offset 3, -24
	pushq	%rcx
	.cfi_def_cfa_offset 32
	movq	40(%rdi), %rbx
	testq	%rbx, %rbx
	je	.L606
	movq	8(%rbx), %rcx
	leaq	8(%rbx), %rdx
	movabsq	$4294967297, %rax
	cmpq	%rax, %rcx
	jne	.L607
	movq	(%rbx), %rax
	xorl	%edx, %edx
	movq	%rbx, %rdi
	movq	%rdx, 8(%rbx)
	call	*16(%rax)
	movq	(%rbx), %rax
	movq	%rbx, %rdi
	call	*24(%rax)
	jmp	.L606
.L607:
	movq	__libc_single_threaded@GOTPCREL(%rip), %rax
	cmpb	$0, (%rax)
	je	.L608
	movl	8(%rbx), %eax
	leal	-1(%rax), %edx
	movl	%edx, 8(%rbx)
	jmp	.L609
.L608:
	movl	$-1, %eax
	lock xaddl	%eax, (%rdx)
.L609:
	decl	%eax
	jne	.L606
	movq	%rbx, %rdi
	call	_ZNSt16_Sp_counted_baseILN9__gnu_cxx12_Lock_policyE2EE24_M_release_last_use_coldEv@PLT
.L606:
	movq	16(%rbp), %rax
	testq	%rax, %rax
	je	.L604
	movl	$3, %edx
	movq	%rbp, %rsi
	movq	%rbp, %rdi
	call	*%rax
.L604:
	popq	%rax
	.cfi_def_cfa_offset 24
	popq	%rbx
	.cfi_def_cfa_offset 16
	popq	%rbp
	.cfi_def_cfa_offset 8
	ret
	.cfi_endproc
.LFE7008:
	.section	.gcc_except_table
.LLSDA7008:
	.byte	0xff
	.byte	0xff
	.byte	0x1
	.uleb128 .LLSDACSE7008-.LLSDACSB7008
.LLSDACSB7008:
.LLSDACSE7008:
	.section	.text.unlikely
	.size	_ZZN7asiopal8Executor4PostERKSt8functionIFvvEEENUlvE_D2Ev, .-_ZZN7asiopal8Executor4PostERKSt8functionIFvvEEENUlvE_D2Ev
	.set	_ZZN7asiopal8Executor4PostERKSt8functionIFvvEEENUlvE_D1Ev,_ZZN7asiopal8Executor4PostERKSt8functionIFvvEEENUlvE_D2Ev
	.section	.text._ZN7asiopal8ExecutorD2Ev,"axG",@progbits,_ZN7asiopal8ExecutorD5Ev,comdat
	.align 2
	.p2align 4
	.weak	_ZN7asiopal8ExecutorD2Ev
	.type	_ZN7asiopal8ExecutorD2Ev, @function
_ZN7asiopal8ExecutorD2Ev:
.LFB9455:
	.cfi_startproc
	subq	$24, %rsp
	.cfi_def_cfa_offset 32
	movq	_ZTVN7asiopal8ExecutorE@GOTPCREL(%rip), %rdx
	movq	%rdi, %rax
	addq	$16, %rdx
	movq	%rdx, (%rdi)
	movq	32(%rdi), %rdi
	testq	%rdi, %rdi
	je	.L618
	movq	8(%rdi), %rcx
	leaq	8(%rdi), %rsi
	movabsq	$4294967297, %rdx
	cmpq	%rdx, %rcx
	je	.L629
	movq	__libc_single_threaded@GOTPCREL(%rip), %rdx
	cmpb	$0, (%rdx)
	je	.L620
	movl	8(%rdi), %edx
	leal	-1(%rdx), %ecx
	movl	%ecx, 8(%rdi)
.L621:
	cmpl	$1, %edx
	je	.L630
.L618:
	movq	16(%rax), %rdi
	testq	%rdi, %rdi
	je	.L616
	movq	__libc_single_threaded@GOTPCREL(%rip), %rax
	cmpb	$0, (%rax)
	je	.L625
	movl	12(%rdi), %eax
	leal	-1(%rax), %edx
	movl	%edx, 12(%rdi)
.L626:
	cmpl	$1, %eax
	je	.L631
.L616:
	addq	$24, %rsp
	.cfi_remember_state
	.cfi_def_cfa_offset 8
	ret
	.p2align 4,,10
	.p2align 3
.L631:
	.cfi_restore_state
	movq	(%rdi), %rax
	movq	24(%rax), %rax
	addq	$24, %rsp
	.cfi_remember_state
	.cfi_def_cfa_offset 8
	jmp	*%rax
	.p2align 4,,10
	.p2align 3
.L625:
	.cfi_restore_state
	movl	$-1, %eax
	lock xaddl	%eax, 12(%rdi)
	jmp	.L626
	.p2align 4,,10
	.p2align 3
.L629:
	movq	(%rdi), %rdx
	movq	%rax, 8(%rsp)
	movq	$0, 8(%rdi)
	movq	%rdi, (%rsp)
	call	*16(%rdx)
	movq	(%rsp), %rdi
	movq	(%rdi), %rdx
	call	*24(%rdx)
	movq	8(%rsp), %rax
	jmp	.L618
	.p2align 4,,10
	.p2align 3
.L620:
	movl	$-1, %edx
	lock xaddl	%edx, (%rsi)
	jmp	.L621
	.p2align 4,,10
	.p2align 3
.L630:
	movq	%rax, (%rsp)
	call	_ZNSt16_Sp_counted_baseILN9__gnu_cxx12_Lock_policyE2EE24_M_release_last_use_coldEv@PLT
	movq	(%rsp), %rax
	jmp	.L618
	.cfi_endproc
.LFE9455:
	.size	_ZN7asiopal8ExecutorD2Ev, .-_ZN7asiopal8ExecutorD2Ev
	.weak	_ZN7asiopal8ExecutorD1Ev
	.set	_ZN7asiopal8ExecutorD1Ev,_ZN7asiopal8ExecutorD2Ev
	.section	.text._ZN7asiopal8ExecutorD0Ev,"axG",@progbits,_ZN7asiopal8ExecutorD5Ev,comdat
	.align 2
	.p2align 4
	.weak	_ZN7asiopal8ExecutorD0Ev
	.type	_ZN7asiopal8ExecutorD0Ev, @function
_ZN7asiopal8ExecutorD0Ev:
.LFB9457:
	.cfi_startproc
	subq	$24, %rsp
	.cfi_def_cfa_offset 32
	movq	_ZTVN7asiopal8ExecutorE@GOTPCREL(%rip), %rdx
	movq	%rdi, %rax
	addq	$16, %rdx
	movq	%rdx, (%rdi)
	movq	32(%rdi), %rdi
	testq	%rdi, %rdi
	je	.L634
	movq	8(%rdi), %rcx
	leaq	8(%rdi), %rsi
	movabsq	$4294967297, %rdx
	cmpq	%rdx, %rcx
	je	.L645
	movq	__libc_single_threaded@GOTPCREL(%rip), %rdx
	cmpb	$0, (%rdx)
	je	.L636
	movl	8(%rdi), %edx
	leal	-1(%rdx), %ecx
	movl	%ecx, 8(%rdi)
.L637:
	cmpl	$1, %edx
	je	.L646
.L634:
	movq	16(%rax), %rdi
	testq	%rdi, %rdi
	je	.L640
	movq	__libc_single_threaded@GOTPCREL(%rip), %rdx
	cmpb	$0, (%rdx)
	je	.L641
	movl	12(%rdi), %edx
	leal	-1(%rdx), %ecx
	movl	%ecx, 12(%rdi)
.L642:
	cmpl	$1, %edx
	je	.L647
.L640:
	movl	$56, %esi
	movq	%rax, %rdi
	addq	$24, %rsp
	.cfi_remember_state
	.cfi_def_cfa_offset 8
	jmp	_ZdlPvm@PLT
	.p2align 4,,10
	.p2align 3
.L647:
	.cfi_restore_state
	movq	(%rdi), %rdx
	movq	%rax, (%rsp)
	call	*24(%rdx)
	movq	(%rsp), %rax
	jmp	.L640
	.p2align 4,,10
	.p2align 3
.L641:
	movl	$-1, %edx
	lock xaddl	%edx, 12(%rdi)
	jmp	.L642
	.p2align 4,,10
	.p2align 3
.L645:
	movq	(%rdi), %rdx
	movq	%rax, 8(%rsp)
	movq	$0, 8(%rdi)
	movq	%rdi, (%rsp)
	call	*16(%rdx)
	movq	(%rsp), %rdi
	movq	(%rdi), %rdx
	call	*24(%rdx)
	movq	8(%rsp), %rax
	jmp	.L634
	.p2align 4,,10
	.p2align 3
.L636:
	movl	$-1, %edx
	lock xaddl	%edx, (%rsi)
	jmp	.L637
	.p2align 4,,10
	.p2align 3
.L646:
	movq	%rax, (%rsp)
	call	_ZNSt16_Sp_counted_baseILN9__gnu_cxx12_Lock_policyE2EE24_M_release_last_use_coldEv@PLT
	movq	(%rsp), %rax
	jmp	.L634
	.cfi_endproc
.LFE9457:
	.size	_ZN7asiopal8ExecutorD0Ev, .-_ZN7asiopal8ExecutorD0Ev
	.section	.text.unlikely
	.align 2
	.type	_ZZN7asiopal8Executor5StartERKNSt6chrono10time_pointINS1_3_V212steady_clockENS1_8durationIlSt5ratioILl1ELl1000000000EEEEEERKSt8functionIFvvEEENUlRKSt10error_codeE_D2Ev, @function
_ZZN7asiopal8Executor5StartERKNSt6chrono10time_pointINS1_3_V212steady_clockENS1_8durationIlSt5ratioILl1ELl1000000000EEEEEERKSt8functionIFvvEEENUlRKSt10error_codeE_D2Ev:
.LFB6988:
	.cfi_startproc
	.cfi_personality 0x9b,DW.ref.__gxx_personality_v0
	.cfi_lsda 0x1b,.LLSDA6988
	pushq	%rbp
	.cfi_def_cfa_offset 16
	.cfi_offset 6, -16
	movq	%rdi, %rbp
	pushq	%rbx
	.cfi_def_cfa_offset 24
	.cfi_offset 3, -24
	pushq	%r8
	.cfi_def_cfa_offset 32
	movq	56(%rdi), %rbx
	testq	%rbx, %rbx
	je	.L650
	movq	8(%rbx), %rcx
	leaq	8(%rbx), %rdx
	movabsq	$4294967297, %rax
	cmpq	%rax, %rcx
	jne	.L651
	movq	(%rbx), %rax
	xorl	%edi, %edi
	movq	%rdi, 8(%rbx)
	movq	%rbx, %rdi
	call	*16(%rax)
	movq	(%rbx), %rax
	movq	%rbx, %rdi
	call	*24(%rax)
	jmp	.L650
.L651:
	movq	__libc_single_threaded@GOTPCREL(%rip), %rax
	cmpb	$0, (%rax)
	je	.L652
	movl	8(%rbx), %eax
	leal	-1(%rax), %edx
	movl	%edx, 8(%rbx)
	jmp	.L653
.L652:
	movl	$-1, %eax
	lock xaddl	%eax, (%rdx)
.L653:
	decl	%eax
	jne	.L650
	movq	%rbx, %rdi
	call	_ZNSt16_Sp_counted_baseILN9__gnu_cxx12_Lock_policyE2EE24_M_release_last_use_coldEv@PLT
.L650:
	movq	32(%rbp), %rax
	testq	%rax, %rax
	je	.L655
	leaq	16(%rbp), %rdi
	movl	$3, %edx
	movq	%rdi, %rsi
	call	*%rax
.L655:
	movq	8(%rbp), %rbx
	testq	%rbx, %rbx
	je	.L648
	movq	8(%rbx), %rcx
	leaq	8(%rbx), %rdx
	movabsq	$4294967297, %rax
	cmpq	%rax, %rcx
	jne	.L658
	movq	(%rbx), %rax
	xorl	%ecx, %ecx
	movq	%rbx, %rdi
	movq	%rcx, 8(%rbx)
	call	*16(%rax)
	movq	(%rbx), %rax
	movq	%rbx, %rdi
	movq	24(%rax), %rax
	popq	%rsi
	.cfi_remember_state
	.cfi_def_cfa_offset 24
	popq	%rbx
	.cfi_def_cfa_offset 16
	popq	%rbp
	.cfi_def_cfa_offset 8
.LEHB26:
	jmp	*%rax
.L658:
	.cfi_restore_state
	movq	__libc_single_threaded@GOTPCREL(%rip), %rax
	cmpb	$0, (%rax)
	je	.L659
	movl	8(%rbx), %eax
	leal	-1(%rax), %edx
	movl	%edx, 8(%rbx)
	jmp	.L660
.L659:
	movl	$-1, %eax
	lock xaddl	%eax, (%rdx)
.L660:
	decl	%eax
	jne	.L648
	popq	%rdx
	.cfi_remember_state
	.cfi_def_cfa_offset 24
	movq	%rbx, %rdi
	popq	%rbx
	.cfi_def_cfa_offset 16
	popq	%rbp
	.cfi_def_cfa_offset 8
	jmp	_ZNSt16_Sp_counted_baseILN9__gnu_cxx12_Lock_policyE2EE24_M_release_last_use_coldEv@PLT
.LEHE26:
.L648:
	.cfi_restore_state
	popq	%rax
	.cfi_def_cfa_offset 24
	popq	%rbx
	.cfi_def_cfa_offset 16
	popq	%rbp
	.cfi_def_cfa_offset 8
	ret
	.cfi_endproc
.LFE6988:
	.section	.gcc_except_table
.LLSDA6988:
	.byte	0xff
	.byte	0xff
	.byte	0x1
	.uleb128 .LLSDACSE6988-.LLSDACSB6988
.LLSDACSB6988:
	.uleb128 .LEHB26-.LFB6988
	.uleb128 .LEHE26-.LEHB26
	.uleb128 0
	.uleb128 0
.LLSDACSE6988:
	.section	.text.unlikely
	.size	_ZZN7asiopal8Executor5StartERKNSt6chrono10time_pointINS1_3_V212steady_clockENS1_8durationIlSt5ratioILl1ELl1000000000EEEEEERKSt8functionIFvvEEENUlRKSt10error_codeE_D2Ev, .-_ZZN7asiopal8Executor5StartERKNSt6chrono10time_pointINS1_3_V212steady_clockENS1_8durationIlSt5ratioILl1ELl1000000000EEEEEERKSt8functionIFvvEEENUlRKSt10error_codeE_D2Ev
	.set	_ZZN7asiopal8Executor5StartERKNSt6chrono10time_pointINS1_3_V212steady_clockENS1_8durationIlSt5ratioILl1ELl1000000000EEEEEERKSt8functionIFvvEEENUlRKSt10error_codeE_D1Ev,_ZZN7asiopal8Executor5StartERKNSt6chrono10time_pointINS1_3_V212steady_clockENS1_8durationIlSt5ratioILl1ELl1000000000EEEEEERKSt8functionIFvvEEENUlRKSt10error_codeE_D2Ev
	.align 2
	.type	_ZN4asio6detail18completion_handlerIZN7asiopal8Executor4PostERKSt8functionIFvvEEEUlvE_E3ptr5resetEv, @function
_ZN4asio6detail18completion_handlerIZN7asiopal8Executor4PostERKSt8functionIFvvEEEUlvE_E3ptr5resetEv:
.LFB8773:
	.cfi_startproc
	.cfi_personality 0x9b,DW.ref.__gxx_personality_v0
	.cfi_lsda 0x1b,.LLSDA8773
	pushq	%r12
	.cfi_def_cfa_offset 16
	.cfi_offset 12, -16
	movq	%rdi, %r12
	pushq	%rbp
	.cfi_def_cfa_offset 24
	.cfi_offset 6, -24
	pushq	%rbx
	.cfi_def_cfa_offset 32
	.cfi_offset 3, -32
	movq	16(%rdi), %rbp
	testq	%rbp, %rbp
	je	.L667
	movq	64(%rbp), %rbx
	testq	%rbx, %rbx
	je	.L669
	movq	8(%rbx), %rcx
	leaq	8(%rbx), %rdx
	movabsq	$4294967297, %rax
	cmpq	%rax, %rcx
	jne	.L670
	movq	(%rbx), %rax
	xorl	%ecx, %ecx
	movq	%rbx, %rdi
	movq	%rcx, 8(%rbx)
	call	*16(%rax)
	movq	(%rbx), %rax
	movq	%rbx, %rdi
	call	*24(%rax)
	jmp	.L669
.L670:
	movq	__libc_single_threaded@GOTPCREL(%rip), %rax
	cmpb	$0, (%rax)
	je	.L671
	movl	8(%rbx), %eax
	leal	-1(%rax), %edx
	movl	%edx, 8(%rbx)
	jmp	.L672
.L671:
	movl	$-1, %eax
	lock xaddl	%eax, (%rdx)
.L672:
	decl	%eax
	jne	.L669
	movq	%rbx, %rdi
	call	_ZNSt16_Sp_counted_baseILN9__gnu_cxx12_Lock_policyE2EE24_M_release_last_use_coldEv@PLT
.L669:
	movq	40(%rbp), %rax
	testq	%rax, %rax
	je	.L674
	leaq	24(%rbp), %rdi
	movl	$3, %edx
	movq	%rdi, %rsi
	call	*%rax
.L674:
	xorl	%edx, %edx
	movq	%rdx, 16(%r12)
.L667:
	movq	8(%r12), %rbx
	testq	%rbx, %rbx
	je	.L666
	data16	leaq	_ZN4asio6detail15keyword_tss_ptrINS0_10call_stackINS0_15task_io_serviceENS0_27task_io_service_thread_infoEE7contextEE6value_E@tlsgd(%rip), %rdi
	.value	0x6666
	rex64
	call	__tls_get_addr@PLT
	movq	(%rax), %rax
	testq	%rax, %rax
	je	.L676
	movq	8(%rax), %rax
	testq	%rax, %rax
	je	.L676
	cmpq	$0, (%rax)
	jne	.L676
	movb	72(%rbx), %dl
	movb	%dl, (%rbx)
	movq	%rbx, (%rax)
	jmp	.L677
.L676:
	movq	%rbx, %rdi
	call	_ZdlPv@PLT
.L677:
	xorl	%eax, %eax
	movq	%rax, 8(%r12)
.L666:
	popq	%rbx
	.cfi_def_cfa_offset 24
	popq	%rbp
	.cfi_def_cfa_offset 16
	popq	%r12
	.cfi_def_cfa_offset 8
	ret
	.cfi_endproc
.LFE8773:
	.section	.gcc_except_table
.LLSDA8773:
	.byte	0xff
	.byte	0xff
	.byte	0x1
	.uleb128 .LLSDACSE8773-.LLSDACSB8773
.LLSDACSB8773:
.LLSDACSE8773:
	.section	.text.unlikely
	.size	_ZN4asio6detail18completion_handlerIZN7asiopal8Executor4PostERKSt8functionIFvvEEEUlvE_E3ptr5resetEv, .-_ZN4asio6detail18completion_handlerIZN7asiopal8Executor4PostERKSt8functionIFvvEEEUlvE_E3ptr5resetEv
	.align 2
	.type	_ZN4asio6detail18completion_handlerINS0_7binder1IZN7asiopal8Executor5StartERKNSt6chrono10time_pointINS5_3_V212steady_clockENS5_8durationIlSt5ratioILl1ELl1000000000EEEEEERKSt8functionIFvvEEEUlRKSt10error_codeE_SL_EEE3ptr5resetEv, @function
_ZN4asio6detail18completion_handlerINS0_7binder1IZN7asiopal8Executor5StartERKNSt6chrono10time_pointINS5_3_V212steady_clockENS5_8durationIlSt5ratioILl1ELl1000000000EEEEEERKSt8functionIFvvEEEUlRKSt10error_codeE_SL_EEE3ptr5resetEv:
.LFB9441:
	.cfi_startproc
	.cfi_personality 0x9b,DW.ref.__gxx_personality_v0
	.cfi_lsda 0x1b,.LLSDA9441
	pushq	%r12
	.cfi_def_cfa_offset 16
	.cfi_offset 12, -16
	pushq	%rbp
	.cfi_def_cfa_offset 24
	.cfi_offset 6, -24
	movq	%rdi, %rbp
	pushq	%rbx
	.cfi_def_cfa_offset 32
	.cfi_offset 3, -32
	movq	16(%rdi), %r12
	testq	%r12, %r12
	je	.L695
	movq	80(%r12), %rbx
	testq	%rbx, %rbx
	je	.L697
	movq	8(%rbx), %rcx
	leaq	8(%rbx), %rdx
	movabsq	$4294967297, %rax
	cmpq	%rax, %rcx
	jne	.L698
	movq	(%rbx), %rax
	xorl	%esi, %esi
	movq	%rbx, %rdi
	movq	%rsi, 8(%rbx)
	call	*16(%rax)
	movq	(%rbx), %rax
	movq	%rbx, %rdi
	call	*24(%rax)
	jmp	.L697
.L698:
	movq	__libc_single_threaded@GOTPCREL(%rip), %rax
	cmpb	$0, (%rax)
	je	.L699
	movl	8(%rbx), %eax
	leal	-1(%rax), %edx
	movl	%edx, 8(%rbx)
	jmp	.L700
.L699:
	movl	$-1, %eax
	lock xaddl	%eax, (%rdx)
.L700:
	decl	%eax
	jne	.L697
	movq	%rbx, %rdi
	call	_ZNSt16_Sp_counted_baseILN9__gnu_cxx12_Lock_policyE2EE24_M_release_last_use_coldEv@PLT
.L697:
	movq	56(%r12), %rax
	testq	%rax, %rax
	je	.L702
	leaq	40(%r12), %rdi
	movl	$3, %edx
	movq	%rdi, %rsi
	call	*%rax
.L702:
	movq	32(%r12), %rbx
	testq	%rbx, %rbx
	je	.L704
	movq	8(%rbx), %rcx
	leaq	8(%rbx), %rdx
	movabsq	$4294967297, %rax
	cmpq	%rax, %rcx
	jne	.L705
	movq	(%rbx), %rax
	xorl	%ecx, %ecx
	movq	%rbx, %rdi
	movq	%rcx, 8(%rbx)
	call	*16(%rax)
	movq	(%rbx), %rax
	movq	%rbx, %rdi
	call	*24(%rax)
	jmp	.L704
.L705:
	movq	__libc_single_threaded@GOTPCREL(%rip), %rax
	cmpb	$0, (%rax)
	je	.L706
	movl	8(%rbx), %eax
	leal	-1(%rax), %edx
	movl	%edx, 8(%rbx)
	jmp	.L707
.L706:
	movl	$-1, %eax
	lock xaddl	%eax, (%rdx)
.L707:
	decl	%eax
	jne	.L704
	movq	%rbx, %rdi
	call	_ZNSt16_Sp_counted_baseILN9__gnu_cxx12_Lock_policyE2EE24_M_release_last_use_coldEv@PLT
.L704:
	xorl	%edx, %edx
	movq	%rdx, 16(%rbp)
.L695:
	movq	8(%rbp), %rbx
	testq	%rbx, %rbx
	je	.L694
	data16	leaq	_ZN4asio6detail15keyword_tss_ptrINS0_10call_stackINS0_15task_io_serviceENS0_27task_io_service_thread_infoEE7contextEE6value_E@tlsgd(%rip), %rdi
	.value	0x6666
	rex64
	call	__tls_get_addr@PLT
	movq	(%rax), %rax
	testq	%rax, %rax
	je	.L710
	movq	8(%rax), %rax
	testq	%rax, %rax
	je	.L710
	cmpq	$0, (%rax)
	jne	.L710
	movb	104(%rbx), %dl
	movb	%dl, (%rbx)
	movq	%rbx, (%rax)
	jmp	.L711
.L710:
	movq	%rbx, %rdi
	call	_ZdlPv@PLT
.L711:
	xorl	%eax, %eax
	movq	%rax, 8(%rbp)
.L694:
	popq	%rbx
	.cfi_def_cfa_offset 24
	popq	%rbp
	.cfi_def_cfa_offset 16
	popq	%r12
	.cfi_def_cfa_offset 8
	ret
	.cfi_endproc
.LFE9441:
	.section	.gcc_except_table
.LLSDA9441:
	.byte	0xff
	.byte	0xff
	.byte	0x1
	.uleb128 .LLSDACSE9441-.LLSDACSB9441
.LLSDACSB9441:
.LLSDACSE9441:
	.section	.text.unlikely
	.size	_ZN4asio6detail18completion_handlerINS0_7binder1IZN7asiopal8Executor5StartERKNSt6chrono10time_pointINS5_3_V212steady_clockENS5_8durationIlSt5ratioILl1ELl1000000000EEEEEERKSt8functionIFvvEEEUlRKSt10error_codeE_SL_EEE3ptr5resetEv, .-_ZN4asio6detail18completion_handlerINS0_7binder1IZN7asiopal8Executor5StartERKNSt6chrono10time_pointINS5_3_V212steady_clockENS5_8durationIlSt5ratioILl1ELl1000000000EEEEEERKSt8functionIFvvEEEUlRKSt10error_codeE_SL_EEE3ptr5resetEv
	.align 2
	.type	_ZN4asio6detail12wait_handlerINS0_15wrapped_handlerINS_10io_service6strandEZN7asiopal8Executor5StartERKNSt6chrono10time_pointINS7_3_V212steady_clockENS7_8durationIlSt5ratioILl1ELl1000000000EEEEEERKSt8functionIFvvEEEUlRKSt10error_codeE_NS0_26is_continuation_if_runningEEEE3ptr5resetEv, @function
_ZN4asio6detail12wait_handlerINS0_15wrapped_handlerINS_10io_service6strandEZN7asiopal8Executor5StartERKNSt6chrono10time_pointINS7_3_V212steady_clockENS7_8durationIlSt5ratioILl1ELl1000000000EEEEEERKSt8functionIFvvEEEUlRKSt10error_codeE_NS0_26is_continuation_if_runningEEEE3ptr5resetEv:
.LFB8977:
	.cfi_startproc
	.cfi_personality 0x9b,DW.ref.__gxx_personality_v0
	.cfi_lsda 0x1b,.LLSDA8977
	pushq	%r12
	.cfi_def_cfa_offset 16
	.cfi_offset 12, -16
	pushq	%rbp
	.cfi_def_cfa_offset 24
	.cfi_offset 6, -24
	movq	%rdi, %rbp
	pushq	%rbx
	.cfi_def_cfa_offset 32
	.cfi_offset 3, -32
	movq	16(%rdi), %r12
	testq	%r12, %r12
	je	.L729
	movq	112(%r12), %rbx
	testq	%rbx, %rbx
	je	.L731
	movq	8(%rbx), %rcx
	leaq	8(%rbx), %rdx
	movabsq	$4294967297, %rax
	cmpq	%rax, %rcx
	jne	.L732
	movq	(%rbx), %rax
	xorl	%esi, %esi
	movq	%rbx, %rdi
	movq	%rsi, 8(%rbx)
	call	*16(%rax)
	movq	(%rbx), %rax
	movq	%rbx, %rdi
	call	*24(%rax)
	jmp	.L731
.L732:
	movq	__libc_single_threaded@GOTPCREL(%rip), %rax
	cmpb	$0, (%rax)
	je	.L733
	movl	8(%rbx), %eax
	leal	-1(%rax), %edx
	movl	%edx, 8(%rbx)
	jmp	.L734
.L733:
	movl	$-1, %eax
	lock xaddl	%eax, (%rdx)
.L734:
	decl	%eax
	jne	.L731
	movq	%rbx, %rdi
	call	_ZNSt16_Sp_counted_baseILN9__gnu_cxx12_Lock_policyE2EE24_M_release_last_use_coldEv@PLT
.L731:
	movq	88(%r12), %rax
	testq	%rax, %rax
	je	.L736
	leaq	72(%r12), %rdi
	movl	$3, %edx
	movq	%rdi, %rsi
	call	*%rax
.L736:
	movq	64(%r12), %rbx
	testq	%rbx, %rbx
	je	.L738
	movq	8(%rbx), %rcx
	leaq	8(%rbx), %rdx
	movabsq	$4294967297, %rax
	cmpq	%rax, %rcx
	jne	.L739
	movq	(%rbx), %rax
	xorl	%ecx, %ecx
	movq	%rbx, %rdi
	movq	%rcx, 8(%rbx)
	call	*16(%rax)
	movq	(%rbx), %rax
	movq	%rbx, %rdi
	call	*24(%rax)
	jmp	.L738
.L739:
	movq	__libc_single_threaded@GOTPCREL(%rip), %rax
	cmpb	$0, (%rax)
	je	.L740
	movl	8(%rbx), %eax
	leal	-1(%rax), %edx
	movl	%edx, 8(%rbx)
	jmp	.L741
.L740:
	movl	$-1, %eax
	lock xaddl	%eax, (%rdx)
.L741:
	decl	%eax
	jne	.L738
	movq	%rbx, %rdi
	call	_ZNSt16_Sp_counted_baseILN9__gnu_cxx12_Lock_policyE2EE24_M_release_last_use_coldEv@PLT
.L738:
	xorl	%edx, %edx
	movq	%rdx, 16(%rbp)
.L729:
	movq	8(%rbp), %rbx
	testq	%rbx, %rbx
	je	.L728
	data16	leaq	_ZN4asio6detail15keyword_tss_ptrINS0_10call_stackINS0_15task_io_serviceENS0_27task_io_service_thread_infoEE7contextEE6value_E@tlsgd(%rip), %rdi
	.value	0x6666
	rex64
	call	__tls_get_addr@PLT
	movq	(%rax), %rax
	testq	%rax, %rax
	je	.L744
	movq	8(%rax), %rax
	testq	%rax, %rax
	je	.L744
	cmpq	$0, (%rax)
	jne	.L744
	movb	120(%rbx), %dl
	movb	%dl, (%rbx)
	movq	%rbx, (%rax)
	jmp	.L745
.L744:
	movq	%rbx, %rdi
	call	_ZdlPv@PLT
.L745:
	xorl	%eax, %eax
	movq	%rax, 8(%rbp)
.L728:
	popq	%rbx
	.cfi_def_cfa_offset 24
	popq	%rbp
	.cfi_def_cfa_offset 16
	popq	%r12
	.cfi_def_cfa_offset 8
	ret
	.cfi_endproc
.LFE8977:
	.section	.gcc_except_table
.LLSDA8977:
	.byte	0xff
	.byte	0xff
	.byte	0x1
	.uleb128 .LLSDACSE8977-.LLSDACSB8977
.LLSDACSB8977:
.LLSDACSE8977:
	.section	.text.unlikely
	.size	_ZN4asio6detail12wait_handlerINS0_15wrapped_handlerINS_10io_service6strandEZN7asiopal8Executor5StartERKNSt6chrono10time_pointINS7_3_V212steady_clockENS7_8durationIlSt5ratioILl1ELl1000000000EEEEEERKSt8functionIFvvEEEUlRKSt10error_codeE_NS0_26is_continuation_if_runningEEEE3ptr5resetEv, .-_ZN4asio6detail12wait_handlerINS0_15wrapped_handlerINS_10io_service6strandEZN7asiopal8Executor5StartERKNSt6chrono10time_pointINS7_3_V212steady_clockENS7_8durationIlSt5ratioILl1ELl1000000000EEEEEERKSt8functionIFvvEEEUlRKSt10error_codeE_NS0_26is_continuation_if_runningEEEE3ptr5resetEv
	.align 2
	.type	_ZN4asio6detail18completion_handlerINS0_17rewrapped_handlerINS0_7binder1INS0_15wrapped_handlerINS_10io_service6strandEZN7asiopal8Executor5StartERKNSt6chrono10time_pointINS9_3_V212steady_clockENS9_8durationIlSt5ratioILl1ELl1000000000EEEEEERKSt8functionIFvvEEEUlRKSt10error_codeE_NS0_26is_continuation_if_runningEEESP_EESS_EEE3ptr5resetEv, @function
_ZN4asio6detail18completion_handlerINS0_17rewrapped_handlerINS0_7binder1INS0_15wrapped_handlerINS_10io_service6strandEZN7asiopal8Executor5StartERKNSt6chrono10time_pointINS9_3_V212steady_clockENS9_8durationIlSt5ratioILl1ELl1000000000EEEEEERKSt8functionIFvvEEEUlRKSt10error_codeE_NS0_26is_continuation_if_runningEEESP_EESS_EEE3ptr5resetEv:
.LFB9364:
	.cfi_startproc
	.cfi_personality 0x9b,DW.ref.__gxx_personality_v0
	.cfi_lsda 0x1b,.LLSDA9364
	pushq	%r12
	.cfi_def_cfa_offset 16
	.cfi_offset 12, -16
	movq	%rdi, %r12
	pushq	%rbp
	.cfi_def_cfa_offset 24
	.cfi_offset 6, -24
	pushq	%rbx
	.cfi_def_cfa_offset 32
	.cfi_offset 3, -32
	movq	16(%rdi), %rbp
	testq	%rbp, %rbp
	je	.L763
	movq	160(%rbp), %rbx
	testq	%rbx, %rbx
	je	.L765
	movq	8(%rbx), %rcx
	leaq	8(%rbx), %rdx
	movabsq	$4294967297, %rax
	cmpq	%rax, %rcx
	jne	.L766
	movq	(%rbx), %rax
	xorl	%r8d, %r8d
	movq	%rbx, %rdi
	movq	%r8, 8(%rbx)
	call	*16(%rax)
	movq	(%rbx), %rax
	movq	%rbx, %rdi
	call	*24(%rax)
	jmp	.L765
.L766:
	movq	__libc_single_threaded@GOTPCREL(%rip), %rax
	cmpb	$0, (%rax)
	je	.L767
	movl	8(%rbx), %eax
	leal	-1(%rax), %edx
	movl	%edx, 8(%rbx)
	jmp	.L768
.L767:
	movl	$-1, %eax
	lock xaddl	%eax, (%rdx)
.L768:
	decl	%eax
	jne	.L765
	movq	%rbx, %rdi
	call	_ZNSt16_Sp_counted_baseILN9__gnu_cxx12_Lock_policyE2EE24_M_release_last_use_coldEv@PLT
.L765:
	movq	136(%rbp), %rax
	testq	%rax, %rax
	je	.L770
	leaq	120(%rbp), %rdi
	movl	$3, %edx
	movq	%rdi, %rsi
	call	*%rax
.L770:
	movq	112(%rbp), %rbx
	testq	%rbx, %rbx
	je	.L772
	movq	8(%rbx), %rcx
	leaq	8(%rbx), %rdx
	movabsq	$4294967297, %rax
	cmpq	%rax, %rcx
	jne	.L773
	movq	(%rbx), %rax
	xorl	%edi, %edi
	movq	%rdi, 8(%rbx)
	movq	%rbx, %rdi
	call	*16(%rax)
	movq	(%rbx), %rax
	movq	%rbx, %rdi
	call	*24(%rax)
	jmp	.L772
.L773:
	movq	__libc_single_threaded@GOTPCREL(%rip), %rax
	cmpb	$0, (%rax)
	je	.L774
	movl	8(%rbx), %eax
	leal	-1(%rax), %edx
	movl	%edx, 8(%rbx)
	jmp	.L775
.L774:
	movl	$-1, %eax
	lock xaddl	%eax, (%rdx)
.L775:
	decl	%eax
	jne	.L772
	movq	%rbx, %rdi
	call	_ZNSt16_Sp_counted_baseILN9__gnu_cxx12_Lock_policyE2EE24_M_release_last_use_coldEv@PLT
.L772:
	movq	80(%rbp), %rbx
	testq	%rbx, %rbx
	je	.L778
	movq	8(%rbx), %rcx
	leaq	8(%rbx), %rdx
	movabsq	$4294967297, %rax
	cmpq	%rax, %rcx
	jne	.L779
	movq	(%rbx), %rax
	xorl	%esi, %esi
	movq	%rbx, %rdi
	movq	%rsi, 8(%rbx)
	call	*16(%rax)
	movq	(%rbx), %rax
	movq	%rbx, %rdi
	call	*24(%rax)
	jmp	.L778
.L779:
	movq	__libc_single_threaded@GOTPCREL(%rip), %rax
	cmpb	$0, (%rax)
	je	.L780
	movl	8(%rbx), %eax
	leal	-1(%rax), %edx
	movl	%edx, 8(%rbx)
	jmp	.L781
.L780:
	movl	$-1, %eax
	lock xaddl	%eax, (%rdx)
.L781:
	decl	%eax
	jne	.L778
	movq	%rbx, %rdi
	call	_ZNSt16_Sp_counted_baseILN9__gnu_cxx12_Lock_policyE2EE24_M_release_last_use_coldEv@PLT
.L778:
	movq	56(%rbp), %rax
	testq	%rax, %rax
	je	.L783
	leaq	40(%rbp), %rdi
	movl	$3, %edx
	movq	%rdi, %rsi
	call	*%rax
.L783:
	movq	32(%rbp), %rbx
	testq	%rbx, %rbx
	je	.L785
	movq	8(%rbx), %rcx
	leaq	8(%rbx), %rdx
	movabsq	$4294967297, %rax
	cmpq	%rax, %rcx
	jne	.L786
	movq	(%rbx), %rax
	xorl	%ecx, %ecx
	movq	%rbx, %rdi
	movq	%rcx, 8(%rbx)
	call	*16(%rax)
	movq	(%rbx), %rax
	movq	%rbx, %rdi
	call	*24(%rax)
	jmp	.L785
.L786:
	movq	__libc_single_threaded@GOTPCREL(%rip), %rax
	cmpb	$0, (%rax)
	je	.L787
	movl	8(%rbx), %eax
	leal	-1(%rax), %edx
	movl	%edx, 8(%rbx)
	jmp	.L788
.L787:
	movl	$-1, %eax
	lock xaddl	%eax, (%rdx)
.L788:
	decl	%eax
	jne	.L785
	movq	%rbx, %rdi
	call	_ZNSt16_Sp_counted_baseILN9__gnu_cxx12_Lock_policyE2EE24_M_release_last_use_coldEv@PLT
.L785:
	xorl	%edx, %edx
	movq	%rdx, 16(%r12)
.L763:
	movq	8(%r12), %rbx
	testq	%rbx, %rbx
	je	.L762
	data16	leaq	_ZN4asio6detail15keyword_tss_ptrINS0_10call_stackINS0_15task_io_serviceENS0_27task_io_service_thread_infoEE7contextEE6value_E@tlsgd(%rip), %rdi
	.value	0x6666
	rex64
	call	__tls_get_addr@PLT
	movq	(%rax), %rax
	testq	%rax, %rax
	je	.L791
	movq	8(%rax), %rax
	testq	%rax, %rax
	je	.L791
	cmpq	$0, (%rax)
	jne	.L791
	movb	184(%rbx), %dl
	movb	%dl, (%rbx)
	movq	%rbx, (%rax)
	jmp	.L792
.L791:
	movq	%rbx, %rdi
	call	_ZdlPv@PLT
.L792:
	xorl	%eax, %eax
	movq	%rax, 8(%r12)
.L762:
	popq	%rbx
	.cfi_def_cfa_offset 24
	popq	%rbp
	.cfi_def_cfa_offset 16
	popq	%r12
	.cfi_def_cfa_offset 8
	ret
	.cfi_endproc
.LFE9364:
	.section	.gcc_except_table
.LLSDA9364:
	.byte	0xff
	.byte	0xff
	.byte	0x1
	.uleb128 .LLSDACSE9364-.LLSDACSB9364
.LLSDACSB9364:
.LLSDACSE9364:
	.section	.text.unlikely
	.size	_ZN4asio6detail18completion_handlerINS0_17rewrapped_handlerINS0_7binder1INS0_15wrapped_handlerINS_10io_service6strandEZN7asiopal8Executor5StartERKNSt6chrono10time_pointINS9_3_V212steady_clockENS9_8durationIlSt5ratioILl1ELl1000000000EEEEEERKSt8functionIFvvEEEUlRKSt10error_codeE_NS0_26is_continuation_if_runningEEESP_EESS_EEE3ptr5resetEv, .-_ZN4asio6detail18completion_handlerINS0_17rewrapped_handlerINS0_7binder1INS0_15wrapped_handlerINS_10io_service6strandEZN7asiopal8Executor5StartERKNSt6chrono10time_pointINS9_3_V212steady_clockENS9_8durationIlSt5ratioILl1ELl1000000000EEEEEERKSt8functionIFvvEEEUlRKSt10error_codeE_NS0_26is_continuation_if_runningEEESP_EESS_EEE3ptr5resetEv
	.align 2
.LCOLDB31:
	.text
.LHOTB31:
	.align 2
	.p2align 4
	.globl	_ZN7asiopal8Executor4PostERKSt8functionIFvvEE
	.type	_ZN7asiopal8Executor4PostERKSt8functionIFvvEE, @function
_ZN7asiopal8Executor4PostERKSt8functionIFvvEE:
.LFB7005:
	.cfi_startproc
	.cfi_personality 0x9b,DW.ref.__gxx_personality_v0
	.cfi_lsda 0x1b,.LLSDA7005
	pushq	%r14
	.cfi_def_cfa_offset 16
	.cfi_offset 14, -16
	pxor	%xmm0, %xmm0
	pushq	%r13
	.cfi_def_cfa_offset 24
	.cfi_offset 13, -24
	pushq	%r12
	.cfi_def_cfa_offset 32
	.cfi_offset 12, -32
	pushq	%rbp
	.cfi_def_cfa_offset 40
	.cfi_offset 6, -40
	movq	%rdi, %rbp
	pushq	%rbx
	.cfi_def_cfa_offset 48
	.cfi_offset 3, -48
	subq	$192, %rsp
	.cfi_def_cfa_offset 240
	movq	16(%rsi), %rax
	movq	$0, 96(%rsp)
	movq	$0, 104(%rsp)
	movaps	%xmm0, 80(%rsp)
	testq	%rax, %rax
	je	.L813
	movq	%rsi, %rbx
	movl	$2, %edx
	leaq	80(%rsp), %rdi
.LEHB27:
	call	*%rax
.LEHE27:
	movdqu	16(%rbx), %xmm0
	movaps	%xmm0, 96(%rsp)
.L813:
	movq	16(%rbp), %rax
	movq	%rax, 120(%rsp)
	testq	%rax, %rax
	je	.L817
	leaq	8(%rax), %rdx
	movl	8(%rax), %eax
.L819:
	testl	%eax, %eax
	je	.L817
	leal	1(%rax), %ecx
	lock cmpxchgl	%ecx, (%rdx)
	jne	.L819
	movq	8(%rbp), %xmm0
	pxor	%xmm1, %xmm1
	movq	96(%rsp), %rax
	movq	$0, 144(%rsp)
	movaps	%xmm1, 128(%rsp)
	leaq	128(%rsp), %r12
	movq	$0, 152(%rsp)
	movq	%xmm0, 112(%rsp)
	testq	%rax, %rax
	je	.L867
	leaq	80(%rsp), %r13
	leaq	128(%rsp), %r12
	movl	$2, %edx
	movq	%r13, %rsi
	movq	%r12, %rdi
.LEHB28:
	call	*%rax
.LEHE28:
	movdqa	96(%rsp), %xmm0
	movaps	%xmm0, 144(%rsp)
	movq	112(%rsp), %xmm0
.L867:
	movq	120(%rsp), %rax
	movq	%rax, %xmm3
	punpcklqdq	%xmm3, %xmm0
	movaps	%xmm0, 160(%rsp)
	testq	%rax, %rax
	je	.L821
	movq	__libc_single_threaded@GOTPCREL(%rip), %rdx
	cmpb	$0, (%rdx)
	je	.L825
	addl	$1, 8(%rax)
.L821:
	pxor	%xmm0, %xmm0
	movq	%r12, 48(%rsp)
	movq	40(%rbp), %r13
	movups	%xmm0, 56(%rsp)
	data16	leaq	_ZN4asio6detail15keyword_tss_ptrINS0_10call_stackINS0_15task_io_serviceENS0_27task_io_service_thread_infoEE7contextEE6value_E@tlsgd(%rip), %rdi
	.value	0x6666
	rex64
	call	__tls_get_addr@PLT
	movq	(%rax), %rax
	testq	%rax, %rax
	je	.L826
	movq	8(%rax), %rax
	testq	%rax, %rax
	je	.L826
	movq	(%rax), %rbx
	testq	%rbx, %rbx
	je	.L826
	movq	$0, (%rax)
	movzbl	(%rbx), %eax
	cmpb	$71, %al
	jbe	.L827
	movb	%al, 72(%rbx)
	jmp	.L828
	.p2align 4,,10
	.p2align 3
.L827:
	movq	%rbx, %rdi
	call	_ZdlPv@PLT
.L826:
	movl	$73, %edi
.LEHB29:
	call	_Znwm@PLT
.LEHE29:
	movb	$72, 72(%rax)
	movq	%rax, %rbx
.L828:
	leaq	_ZN4asio6detail18completion_handlerIZN7asiopal8Executor4PostERKSt8functionIFvvEEEUlvE_E11do_completeEPNS0_15task_io_serviceEPNS0_25task_io_service_operationERKSt10error_codem(%rip), %rax
	pxor	%xmm0, %xmm0
	movq	%rbx, 56(%rsp)
	movq	%rax, 8(%rbx)
	movq	144(%rsp), %rax
	movq	$0, (%rbx)
	movl	$0, 16(%rbx)
	movq	$0, 40(%rbx)
	movq	$0, 48(%rbx)
	movups	%xmm0, 24(%rbx)
	testq	%rax, %rax
	je	.L829
	leaq	24(%rbx), %r14
	movl	$2, %edx
	movq	%r12, %rsi
	movq	%r14, %rdi
.LEHB30:
	call	*%rax
.LEHE30:
	movdqa	144(%rsp), %xmm0
	movups	%xmm0, 40(%rbx)
.L829:
	movdqa	160(%rsp), %xmm0
	movq	%rbx, %xmm2
	punpcklqdq	%xmm2, %xmm2
	movups	%xmm0, 56(%rbx)
	movq	48(%rbp), %rax
	pxor	%xmm0, %xmm0
	movaps	%xmm2, (%rsp)
	leaq	24(%rax), %rdi
	movaps	%xmm0, 160(%rsp)
	call	pthread_mutex_lock@PLT
	movq	48(%rbp), %rdi
	cmpb	$0, 64(%rdi)
	je	.L918
	movq	80(%rdi), %rax
	movq	$0, (%rbx)
	testq	%rax, %rax
	je	.L835
	movq	%rbx, (%rax)
	movq	%rbx, 80(%rdi)
.L836:
	addq	$24, %rdi
	call	pthread_mutex_unlock@PLT
.L837:
	movq	168(%rsp), %rbx
	testq	%rbx, %rbx
	je	.L851
	movq	8(%rbx), %rdx
	leaq	8(%rbx), %rcx
	movabsq	$4294967297, %rax
	cmpq	%rax, %rdx
	je	.L919
	movq	__libc_single_threaded@GOTPCREL(%rip), %rax
	cmpb	$0, (%rax)
	je	.L853
	movl	8(%rbx), %eax
	leal	-1(%rax), %edx
	movl	%edx, 8(%rbx)
.L854:
	cmpl	$1, %eax
	je	.L920
.L851:
	movq	144(%rsp), %rax
	testq	%rax, %rax
	je	.L856
	movl	$3, %edx
	movq	%r12, %rsi
	movq	%r12, %rdi
	call	*%rax
.L856:
	movq	120(%rsp), %rbx
	testq	%rbx, %rbx
	je	.L858
	movq	8(%rbx), %rdx
	leaq	8(%rbx), %rcx
	movabsq	$4294967297, %rax
	cmpq	%rax, %rdx
	je	.L921
	movq	__libc_single_threaded@GOTPCREL(%rip), %rax
	cmpb	$0, (%rax)
	je	.L860
	movl	8(%rbx), %eax
	leal	-1(%rax), %edx
	movl	%edx, 8(%rbx)
.L861:
	cmpl	$1, %eax
	je	.L922
.L858:
	movq	96(%rsp), %rax
	testq	%rax, %rax
	je	.L812
	leaq	80(%rsp), %rdi
	movl	$3, %edx
	movq	%rdi, %rsi
	call	*%rax
.L812:
	addq	$192, %rsp
	.cfi_remember_state
	.cfi_def_cfa_offset 48
	popq	%rbx
	.cfi_def_cfa_offset 40
	popq	%rbp
	.cfi_def_cfa_offset 32
	popq	%r12
	.cfi_def_cfa_offset 24
	popq	%r13
	.cfi_def_cfa_offset 16
	popq	%r14
	.cfi_def_cfa_offset 8
	ret
	.p2align 4,,10
	.p2align 3
.L825:
	.cfi_restore_state
	lock addl	$1, 8(%rax)
	jmp	.L821
	.p2align 4,,10
	.p2align 3
.L835:
	movdqa	(%rsp), %xmm5
	movups	%xmm5, 72(%rdi)
	jmp	.L836
	.p2align 4,,10
	.p2align 3
.L918:
	movb	$1, 64(%rdi)
	addq	$24, %rdi
	call	pthread_mutex_unlock@PLT
	movq	48(%rbp), %rbp
	movq	$0, (%rbx)
	movq	%rbp, %xmm4
	movq	96(%rbp), %rax
	punpcklqdq	%xmm4, %xmm4
	movaps	%xmm4, 16(%rsp)
	testq	%rax, %rax
	je	.L838
	movq	%rbx, (%rax)
	movq	%rbx, 96(%rbp)
.L839:
	movq	40(%r13), %rbx
	cmpb	$0, 40(%rbx)
	je	.L840
	data16	leaq	_ZN4asio6detail15keyword_tss_ptrINS0_10call_stackINS0_15task_io_serviceENS0_27task_io_service_thread_infoEE7contextEE6value_E@tlsgd(%rip), %rdi
	.value	0x6666
	rex64
	call	__tls_get_addr@PLT
	movq	(%rax), %rax
	testq	%rax, %rax
	jne	.L843
	jmp	.L840
	.p2align 4
	.p2align 4,,10
	.p2align 3
.L841:
	movq	16(%rax), %rax
	testq	%rax, %rax
	je	.L840
.L843:
	cmpq	(%rax), %rbx
	jne	.L841
	movq	8(%rax), %rax
	testq	%rax, %rax
	je	.L840
	movq	16(%rax), %rdx
	addq	$1, 24(%rax)
	movq	$0, 0(%rbp)
	testq	%rdx, %rdx
	je	.L844
	movq	%rbp, (%rdx)
	movq	%rbp, 16(%rax)
	jmp	.L837
	.p2align 4,,10
	.p2align 3
.L840:
	lock addq	$1, 184(%rbx)
	leaq	48(%rbx), %r13
	movq	%r13, %rdi
	call	pthread_mutex_lock@PLT
	movq	200(%rbx), %rax
	movq	$0, 0(%rbp)
	testq	%rax, %rax
	je	.L845
	movq	%rbp, (%rax)
	movq	%rbp, 200(%rbx)
.L846:
	movq	136(%rbx), %rax
	movq	%rax, %rdx
	orq	$1, %rdx
	movq	%rdx, 136(%rbx)
	cmpq	$1, %rax
	jbe	.L847
	movq	%r13, %rdi
	call	pthread_mutex_unlock@PLT
	leaq	88(%rbx), %rdi
	call	pthread_cond_signal@PLT
	jmp	.L837
	.p2align 4,,10
	.p2align 3
.L845:
	movdqa	16(%rsp), %xmm7
	movups	%xmm7, 192(%rbx)
	jmp	.L846
	.p2align 4,,10
	.p2align 3
.L860:
	movl	$-1, %eax
	lock xaddl	%eax, (%rcx)
	jmp	.L861
	.p2align 4,,10
	.p2align 3
.L853:
	movl	$-1, %eax
	lock xaddl	%eax, (%rcx)
	jmp	.L854
	.p2align 4,,10
	.p2align 3
.L847:
	cmpb	$0, 176(%rbx)
	jne	.L849
	movq	144(%rbx), %rax
	testq	%rax, %rax
	je	.L849
	leaq	88(%rax), %rdx
	movb	$1, 176(%rbx)
	movl	96(%rax), %edi
	leaq	36(%rsp), %rcx
	movq	%rdx, 40(%rsp)
	movl	88(%rax), %edx
	movl	$3, %esi
	movl	$-2147483639, 36(%rsp)
	call	epoll_ctl@PLT
.L849:
	movq	%r13, %rdi
	call	pthread_mutex_unlock@PLT
	jmp	.L837
	.p2align 4,,10
	.p2align 3
.L919:
	movq	(%rbx), %rax
	movq	%rbx, %rdi
	movq	$0, 8(%rbx)
	call	*16(%rax)
	movq	(%rbx), %rax
	movq	%rbx, %rdi
	call	*24(%rax)
	jmp	.L851
	.p2align 4,,10
	.p2align 3
.L921:
	movq	(%rbx), %rax
	movq	%rbx, %rdi
	movq	$0, 8(%rbx)
	call	*16(%rax)
	movq	(%rbx), %rax
	movq	%rbx, %rdi
	call	*24(%rax)
	jmp	.L858
	.p2align 4,,10
	.p2align 3
.L838:
	movdqa	(%rsp), %xmm6
	movups	%xmm6, 88(%rbp)
	jmp	.L839
	.p2align 4,,10
	.p2align 3
.L922:
	movq	%rbx, %rdi
	call	_ZNSt16_Sp_counted_baseILN9__gnu_cxx12_Lock_policyE2EE24_M_release_last_use_coldEv@PLT
	jmp	.L858
	.p2align 4,,10
	.p2align 3
.L920:
	movq	%rbx, %rdi
	call	_ZNSt16_Sp_counted_baseILN9__gnu_cxx12_Lock_policyE2EE24_M_release_last_use_coldEv@PLT
	jmp	.L851
	.p2align 4,,10
	.p2align 3
.L844:
	movdqa	16(%rsp), %xmm7
	movups	%xmm7, 8(%rax)
	jmp	.L837
.L872:
	movq	%rax, %rbp
	jmp	.L832
.L870:
	movq	%rax, %rbx
	jmp	.L834
.L869:
	movq	%rax, %rbx
	jmp	.L815
.L871:
	movq	%rax, %rbx
	jmp	.L822
	.section	.gcc_except_table
.LLSDA7005:
	.byte	0xff
	.byte	0xff
	.byte	0x1
	.uleb128 .LLSDACSE7005-.LLSDACSB7005
.LLSDACSB7005:
	.uleb128 .LEHB27-.LFB7005
	.uleb128 .LEHE27-.LEHB27
	.uleb128 .L869-.LFB7005
	.uleb128 0
	.uleb128 .LEHB28-.LFB7005
	.uleb128 .LEHE28-.LEHB28
	.uleb128 .L871-.LFB7005
	.uleb128 0
	.uleb128 .LEHB29-.LFB7005
	.uleb128 .LEHE29-.LEHB29
	.uleb128 .L870-.LFB7005
	.uleb128 0
	.uleb128 .LEHB30-.LFB7005
	.uleb128 .LEHE30-.LEHB30
	.uleb128 .L872-.LFB7005
	.uleb128 0
.LLSDACSE7005:
	.text
	.cfi_endproc
	.section	.text.unlikely
	.cfi_startproc
	.cfi_personality 0x9b,DW.ref.__gxx_personality_v0
	.cfi_lsda 0x1b,.LLSDAC7005
	.type	_ZN7asiopal8Executor4PostERKSt8functionIFvvEE.cold, @function
_ZN7asiopal8Executor4PostERKSt8functionIFvvEE.cold:
.LFSB7005:
.L817:
	.cfi_def_cfa_offset 240
	.cfi_offset 3, -48
	.cfi_offset 6, -40
	.cfi_offset 12, -32
	.cfi_offset 13, -24
	.cfi_offset 14, -16
.LEHB31:
	call	_ZSt20__throw_bad_weak_ptrv@PLT
.LEHE31:
.L832:
	movq	40(%rbx), %rax
	testq	%rax, %rax
	je	.L833
	movl	$3, %edx
	movq	%r14, %rsi
	movq	%r14, %rdi
	call	*%rax
.L833:
	leaq	48(%rsp), %rdi
	movq	%rbp, %rbx
	call	_ZN4asio6detail18completion_handlerIZN7asiopal8Executor4PostERKSt8functionIFvvEEEUlvE_E3ptr5resetEv
.L834:
	movq	%r12, %rdi
	leaq	80(%rsp), %r13
	call	_ZZN7asiopal8Executor4PostERKSt8functionIFvvEEENUlvE_D1Ev
.L824:
	movq	%r13, %rdi
	call	_ZZN7asiopal8Executor4PostERKSt8functionIFvvEEENUlvE_D1Ev
	movq	%rbx, %rdi
.LEHB32:
	call	_Unwind_Resume@PLT
.LEHE32:
.L868:
	movq	%rax, %rbx
	movq	96(%rsp), %rax
	testq	%rax, %rax
	je	.L865
	leaq	80(%rsp), %rdi
	movl	$3, %edx
	movq	%rdi, %rsi
	call	*%rax
.L865:
	movq	%rbx, %rdi
.LEHB33:
	call	_Unwind_Resume@PLT
.LEHE33:
.L815:
	movq	96(%rsp), %rax
	testq	%rax, %rax
	je	.L816
	movl	$3, %edx
	leaq	80(%rsp), %rsi
	leaq	80(%rsp), %rdi
	call	*%rax
.L816:
	movq	%rbx, %rdi
.LEHB34:
	call	_Unwind_Resume@PLT
.LEHE34:
.L822:
	movq	144(%rsp), %rax
	testq	%rax, %rax
	je	.L824
	movl	$3, %edx
	movq	%r12, %rsi
	movq	%r12, %rdi
	call	*%rax
	jmp	.L824
	.cfi_endproc
.LFE7005:
	.section	.gcc_except_table
.LLSDAC7005:
	.byte	0xff
	.byte	0xff
	.byte	0x1
	.uleb128 .LLSDACSEC7005-.LLSDACSBC7005
.LLSDACSBC7005:
	.uleb128 .LEHB31-.LCOLDB31
	.uleb128 .LEHE31-.LEHB31
	.uleb128 .L868-.LCOLDB31
	.uleb128 0
	.uleb128 .LEHB32-.LCOLDB31
	.uleb128 .LEHE32-.LEHB32
	.uleb128 0
	.uleb128 0
	.uleb128 .LEHB33-.LCOLDB31
	.uleb128 .LEHE33-.LEHB33
	.uleb128 0
	.uleb128 0
	.uleb128 .LEHB34-.LCOLDB31
	.uleb128 .LEHE34-.LEHB34
	.uleb128 0
	.uleb128 0
.LLSDACSEC7005:
	.section	.text.unlikely
	.text
	.size	_ZN7asiopal8Executor4PostERKSt8functionIFvvEE, .-_ZN7asiopal8Executor4PostERKSt8functionIFvvEE
	.section	.text.unlikely
	.size	_ZN7asiopal8Executor4PostERKSt8functionIFvvEE.cold, .-_ZN7asiopal8Executor4PostERKSt8functionIFvvEE.cold
.LCOLDE31:
	.text
.LHOTE31:
	.section	.text.unlikely
.LCOLDB32:
	.text
.LHOTB32:
	.p2align 4
	.type	_ZN4asio6detail18completion_handlerIZN7asiopal8Executor4PostERKSt8functionIFvvEEEUlvE_E11do_completeEPNS0_15task_io_serviceEPNS0_25task_io_service_operationERKSt10error_codem, @function
_ZN4asio6detail18completion_handlerIZN7asiopal8Executor4PostERKSt8functionIFvvEEEUlvE_E11do_completeEPNS0_15task_io_serviceEPNS0_25task_io_service_operationERKSt10error_codem:
.LFB8777:
	.cfi_startproc
	.cfi_personality 0x9b,DW.ref.__gxx_personality_v0
	.cfi_lsda 0x1b,.LLSDA8777
	pushq	%r13
	.cfi_def_cfa_offset 16
	.cfi_offset 13, -16
	pxor	%xmm0, %xmm0
	movq	%rdi, %r13
	pushq	%r12
	.cfi_def_cfa_offset 24
	.cfi_offset 12, -24
	leaq	24(%rsi), %r12
	pushq	%rbp
	.cfi_def_cfa_offset 32
	.cfi_offset 6, -32
	pushq	%rbx
	.cfi_def_cfa_offset 40
	.cfi_offset 3, -40
	movq	%rsi, %rbx
	subq	$88, %rsp
	.cfi_def_cfa_offset 128
	movq	40(%rsi), %rax
	movq	%r12, (%rsp)
	movq	$0, 48(%rsp)
	movq	$0, 56(%rsp)
	movaps	%xmm0, 32(%rsp)
	testq	%rax, %rax
	je	.L964
	leaq	32(%rsp), %rbp
	movl	$2, %edx
	movq	%r12, %rsi
	movq	%rbp, %rdi
.LEHB35:
	call	*%rax
.LEHE35:
	movdqu	40(%rbx), %xmm0
	movq	40(%rbx), %rax
	movq	%rbp, (%rsp)
	movaps	%xmm0, 48(%rsp)
	movdqu	56(%rbx), %xmm0
	movaps	%xmm0, 64(%rsp)
	testq	%rax, %rax
	je	.L942
	movl	$3, %edx
	movq	%r12, %rsi
	movq	%r12, %rdi
	call	*%rax
.L942:
	data16	leaq	_ZN4asio6detail15keyword_tss_ptrINS0_10call_stackINS0_15task_io_serviceENS0_27task_io_service_thread_infoEE7contextEE6value_E@tlsgd(%rip), %rdi
	.value	0x6666
	rex64
	call	__tls_get_addr@PLT
	movq	(%rax), %rax
	testq	%rax, %rax
	je	.L930
	movq	8(%rax), %rax
	testq	%rax, %rax
	je	.L930
	cmpq	$0, (%rax)
	je	.L965
.L930:
	movq	%rbx, %rdi
	call	_ZdlPv@PLT
.L931:
	testq	%r13, %r13
	je	.L932
	cmpq	$0, 48(%rsp)
	je	.L962
	movq	%rbp, %rdi
.LEHB36:
	call	*56(%rsp)
.LEHE36:
	sfence
.L932:
	movq	72(%rsp), %rbx
	testq	%rbx, %rbx
	je	.L935
	movq	8(%rbx), %rdx
	leaq	8(%rbx), %rcx
	movabsq	$4294967297, %rax
	cmpq	%rax, %rdx
	je	.L966
	movq	__libc_single_threaded@GOTPCREL(%rip), %rax
	cmpb	$0, (%rax)
	je	.L937
	movl	8(%rbx), %eax
	leal	-1(%rax), %edx
	movl	%edx, 8(%rbx)
.L938:
	cmpl	$1, %eax
	je	.L967
.L935:
	movq	48(%rsp), %rax
	testq	%rax, %rax
	je	.L923
	movl	$3, %edx
	movq	%rbp, %rsi
	movq	%rbp, %rdi
	call	*%rax
.L923:
	addq	$88, %rsp
	.cfi_remember_state
	.cfi_def_cfa_offset 40
	popq	%rbx
	.cfi_def_cfa_offset 32
	popq	%rbp
	.cfi_def_cfa_offset 24
	popq	%r12
	.cfi_def_cfa_offset 16
	popq	%r13
	.cfi_def_cfa_offset 8
	ret
	.p2align 4,,10
	.p2align 3
.L964:
	.cfi_restore_state
	movdqu	56(%rsi), %xmm0
	leaq	32(%rsp), %rbp
	movq	%rbp, (%rsp)
	movaps	%xmm0, 64(%rsp)
	jmp	.L942
	.p2align 4,,10
	.p2align 3
.L966:
	movq	(%rbx), %rax
	movq	%rbx, %rdi
	movq	$0, 8(%rbx)
	call	*16(%rax)
	movq	(%rbx), %rax
	movq	%rbx, %rdi
	call	*24(%rax)
	jmp	.L935
	.p2align 4,,10
	.p2align 3
.L965:
	movzbl	72(%rbx), %edx
	movb	%dl, (%rbx)
	movq	%rbx, (%rax)
	jmp	.L931
	.p2align 4,,10
	.p2align 3
.L937:
	movl	$-1, %eax
	lock xaddl	%eax, (%rcx)
	jmp	.L938
	.p2align 4,,10
	.p2align 3
.L967:
	movq	%rbx, %rdi
	call	_ZNSt16_Sp_counted_baseILN9__gnu_cxx12_Lock_policyE2EE24_M_release_last_use_coldEv@PLT
	jmp	.L935
.L944:
	movq	%rax, %r12
	jmp	.L927
.L960:
	jmp	.L961
	.section	.gcc_except_table
.LLSDA8777:
	.byte	0xff
	.byte	0xff
	.byte	0x1
	.uleb128 .LLSDACSE8777-.LLSDACSB8777
.LLSDACSB8777:
	.uleb128 .LEHB35-.LFB8777
	.uleb128 .LEHE35-.LEHB35
	.uleb128 .L944-.LFB8777
	.uleb128 0
	.uleb128 .LEHB36-.LFB8777
	.uleb128 .LEHE36-.LEHB36
	.uleb128 .L960-.LFB8777
	.uleb128 0
.LLSDACSE8777:
	.text
	.cfi_endproc
	.section	.text.unlikely
	.cfi_startproc
	.cfi_personality 0x9b,DW.ref.__gxx_personality_v0
	.cfi_lsda 0x1b,.LLSDAC8777
	.type	_ZN4asio6detail18completion_handlerIZN7asiopal8Executor4PostERKSt8functionIFvvEEEUlvE_E11do_completeEPNS0_15task_io_serviceEPNS0_25task_io_service_operationERKSt10error_codem.cold, @function
_ZN4asio6detail18completion_handlerIZN7asiopal8Executor4PostERKSt8functionIFvvEEEUlvE_E11do_completeEPNS0_15task_io_serviceEPNS0_25task_io_service_operationERKSt10error_codem.cold:
.LFSB8777:
.L962:
	.cfi_def_cfa_offset 128
	.cfi_offset 3, -40
	.cfi_offset 6, -32
	.cfi_offset 12, -24
	.cfi_offset 13, -16
.LEHB37:
	call	_ZSt25__throw_bad_function_callv@PLT
.LEHE37:
.L927:
	movq	48(%rsp), %rax
	testq	%rax, %rax
	je	.L929
	movl	$3, %edx
	movq	%rbp, %rsi
	movq	%rbp, %rdi
	call	*%rax
.L929:
	movq	%rsp, %rdi
	movq	%rbx, 8(%rsp)
	movq	%rbx, 16(%rsp)
	call	_ZN4asio6detail18completion_handlerIZN7asiopal8Executor4PostERKSt8functionIFvvEEEUlvE_E3ptr5resetEv
	movq	%r12, %rdi
.LEHB38:
	call	_Unwind_Resume@PLT
.LEHE38:
.L943:
.L961:
	sfence
	movq	%rbp, %rdi
	movq	%rax, %r12
	xorl	%ebx, %ebx
	call	_ZZN7asiopal8Executor4PostERKSt8functionIFvvEEENUlvE_D1Ev
	jmp	.L929
	.cfi_endproc
.LFE8777:
	.section	.gcc_except_table
.LLSDAC8777:
	.byte	0xff
	.byte	0xff
	.byte	0x1
	.uleb128 .LLSDACSEC8777-.LLSDACSBC8777
.LLSDACSBC8777:
	.uleb128 .LEHB37-.LCOLDB32
	.uleb128 .LEHE37-.LEHB37
	.uleb128 .L943-.LCOLDB32
	.uleb128 0
	.uleb128 .LEHB38-.LCOLDB32
	.uleb128 .LEHE38-.LEHB38
	.uleb128 0
	.uleb128 0
.LLSDACSEC8777:
	.section	.text.unlikely
	.text
	.size	_ZN4asio6detail18completion_handlerIZN7asiopal8Executor4PostERKSt8functionIFvvEEEUlvE_E11do_completeEPNS0_15task_io_serviceEPNS0_25task_io_service_operationERKSt10error_codem, .-_ZN4asio6detail18completion_handlerIZN7asiopal8Executor4PostERKSt8functionIFvvEEEUlvE_E11do_completeEPNS0_15task_io_serviceEPNS0_25task_io_service_operationERKSt10error_codem
	.section	.text.unlikely
	.size	_ZN4asio6detail18completion_handlerIZN7asiopal8Executor4PostERKSt8functionIFvvEEEUlvE_E11do_completeEPNS0_15task_io_serviceEPNS0_25task_io_service_operationERKSt10error_codem.cold, .-_ZN4asio6detail18completion_handlerIZN7asiopal8Executor4PostERKSt8functionIFvvEEEUlvE_E11do_completeEPNS0_15task_io_serviceEPNS0_25task_io_service_operationERKSt10error_codem.cold
.LCOLDE32:
	.text
.LHOTE32:
	.section	.text.unlikely
.LCOLDB33:
	.text
.LHOTB33:
	.p2align 4
	.type	_ZN4asio6detail18completion_handlerINS0_7binder1IZN7asiopal8Executor5StartERKNSt6chrono10time_pointINS5_3_V212steady_clockENS5_8durationIlSt5ratioILl1ELl1000000000EEEEEERKSt8functionIFvvEEEUlRKSt10error_codeE_SL_EEE11do_completeEPNS0_15task_io_serviceEPNS0_25task_io_service_operationESN_m, @function
_ZN4asio6detail18completion_handlerINS0_7binder1IZN7asiopal8Executor5StartERKNSt6chrono10time_pointINS5_3_V212steady_clockENS5_8durationIlSt5ratioILl1ELl1000000000EEEEEERKSt8functionIFvvEEEUlRKSt10error_codeE_SL_EEE11do_completeEPNS0_15task_io_serviceEPNS0_25task_io_service_operationESN_m:
.LFB9437:
	.cfi_startproc
	.cfi_personality 0x9b,DW.ref.__gxx_personality_v0
	.cfi_lsda 0x1b,.LLSDA9437
	pushq	%r13
	.cfi_def_cfa_offset 16
	.cfi_offset 13, -16
	leaq	24(%rsi), %rax
	movq	%rdi, %r13
	pushq	%r12
	.cfi_def_cfa_offset 24
	.cfi_offset 12, -24
	pushq	%rbp
	.cfi_def_cfa_offset 32
	.cfi_offset 6, -32
	pushq	%rbx
	.cfi_def_cfa_offset 40
	.cfi_offset 3, -40
	movq	%rsi, %rbx
	subq	$120, %rsp
	.cfi_def_cfa_offset 160
	movdqu	24(%rsi), %xmm0
	movq	%rax, (%rsp)
	movq	56(%rsi), %rax
	movaps	%xmm0, 32(%rsp)
	pxor	%xmm0, %xmm0
	movups	%xmm0, 24(%rsi)
	pxor	%xmm0, %xmm0
	movq	$0, 64(%rsp)
	movq	$0, 72(%rsp)
	movaps	%xmm0, 48(%rsp)
	testq	%rax, %rax
	je	.L969
	leaq	40(%rsi), %rbp
	movl	$2, %edx
	leaq	48(%rsp), %rdi
	movq	%rbp, %rsi
.LEHB39:
	call	*%rax
.LEHE39:
	movdqu	56(%rbx), %xmm0
	movq	56(%rbx), %rax
	leaq	32(%rsp), %r12
	movq	%r12, (%rsp)
	movaps	%xmm0, 64(%rsp)
	movdqu	72(%rbx), %xmm0
	movaps	%xmm0, 80(%rsp)
	movdqu	88(%rbx), %xmm0
	movaps	%xmm0, 96(%rsp)
	testq	%rax, %rax
	je	.L971
	movl	$3, %edx
	movq	%rbp, %rsi
	movq	%rbp, %rdi
	call	*%rax
.L971:
	movq	32(%rbx), %rbp
	testq	%rbp, %rbp
	je	.L976
	movq	8(%rbp), %rdx
	leaq	8(%rbp), %rcx
	movabsq	$4294967297, %rax
	cmpq	%rax, %rdx
	je	.L1027
	movq	__libc_single_threaded@GOTPCREL(%rip), %rax
	cmpb	$0, (%rax)
	je	.L979
	movl	8(%rbp), %eax
	leal	-1(%rax), %edx
	movl	%edx, 8(%rbp)
.L980:
	cmpl	$1, %eax
	je	.L1028
.L976:
	data16	leaq	_ZN4asio6detail15keyword_tss_ptrINS0_10call_stackINS0_15task_io_serviceENS0_27task_io_service_thread_infoEE7contextEE6value_E@tlsgd(%rip), %rdi
	.value	0x6666
	rex64
	call	__tls_get_addr@PLT
	movq	(%rax), %rax
	testq	%rax, %rax
	je	.L981
	movq	8(%rax), %rax
	testq	%rax, %rax
	je	.L981
	cmpq	$0, (%rax)
	je	.L1029
.L981:
	movq	%rbx, %rdi
	call	_ZdlPv@PLT
.L982:
	testq	%r13, %r13
	je	.L983
	movl	96(%rsp), %eax
	testl	%eax, %eax
	je	.L1030
.L984:
	sfence
.L983:
	movq	88(%rsp), %rbx
	testq	%rbx, %rbx
	je	.L987
	movq	8(%rbx), %rdx
	leaq	8(%rbx), %rcx
	movabsq	$4294967297, %rax
	cmpq	%rax, %rdx
	je	.L1031
	movq	__libc_single_threaded@GOTPCREL(%rip), %rax
	cmpb	$0, (%rax)
	je	.L989
	movl	8(%rbx), %eax
	leal	-1(%rax), %edx
	movl	%edx, 8(%rbx)
.L990:
	cmpl	$1, %eax
	je	.L1032
.L987:
	movq	64(%rsp), %rax
	testq	%rax, %rax
	je	.L992
	leaq	48(%rsp), %rdi
	movl	$3, %edx
	movq	%rdi, %rsi
	call	*%rax
.L992:
	movq	40(%rsp), %rbx
	testq	%rbx, %rbx
	je	.L968
	movq	8(%rbx), %rdx
	leaq	8(%rbx), %rcx
	movabsq	$4294967297, %rax
	cmpq	%rax, %rdx
	je	.L1033
	movq	__libc_single_threaded@GOTPCREL(%rip), %rax
	cmpb	$0, (%rax)
	je	.L996
	movl	8(%rbx), %eax
	leal	-1(%rax), %edx
	movl	%edx, 8(%rbx)
.L997:
	cmpl	$1, %eax
	je	.L1034
.L968:
	addq	$120, %rsp
	.cfi_remember_state
	.cfi_def_cfa_offset 40
	popq	%rbx
	.cfi_def_cfa_offset 32
	popq	%rbp
	.cfi_def_cfa_offset 24
	popq	%r12
	.cfi_def_cfa_offset 16
	popq	%r13
	.cfi_def_cfa_offset 8
	ret
	.p2align 4,,10
	.p2align 3
.L1030:
	.cfi_restore_state
	cmpq	$0, 64(%rsp)
	je	.L1025
	leaq	48(%rsp), %rdi
.LEHB40:
	call	*72(%rsp)
.LEHE40:
	jmp	.L984
	.p2align 4,,10
	.p2align 3
.L969:
	movdqu	72(%rsi), %xmm0
	leaq	32(%rsp), %r12
	movq	%r12, (%rsp)
	movaps	%xmm0, 80(%rsp)
	movdqu	88(%rsi), %xmm0
	movaps	%xmm0, 96(%rsp)
	jmp	.L971
	.p2align 4,,10
	.p2align 3
.L1033:
	movq	(%rbx), %rax
	movq	%rbx, %rdi
	movq	$0, 8(%rbx)
	call	*16(%rax)
	movq	(%rbx), %rax
	movq	%rbx, %rdi
	call	*24(%rax)
	addq	$120, %rsp
	.cfi_remember_state
	.cfi_def_cfa_offset 40
	popq	%rbx
	.cfi_def_cfa_offset 32
	popq	%rbp
	.cfi_def_cfa_offset 24
	popq	%r12
	.cfi_def_cfa_offset 16
	popq	%r13
	.cfi_def_cfa_offset 8
	ret
	.p2align 4,,10
	.p2align 3
.L1031:
	.cfi_restore_state
	movq	(%rbx), %rax
	movq	%rbx, %rdi
	movq	$0, 8(%rbx)
	call	*16(%rax)
	movq	(%rbx), %rax
	movq	%rbx, %rdi
	call	*24(%rax)
	jmp	.L987
	.p2align 4,,10
	.p2align 3
.L1029:
	movzbl	104(%rbx), %edx
	movb	%dl, (%rbx)
	movq	%rbx, (%rax)
	jmp	.L982
	.p2align 4,,10
	.p2align 3
.L979:
	movl	$-1, %eax
	lock xaddl	%eax, (%rcx)
	jmp	.L980
	.p2align 4,,10
	.p2align 3
.L996:
	movl	$-1, %eax
	lock xaddl	%eax, (%rcx)
	jmp	.L997
	.p2align 4,,10
	.p2align 3
.L989:
	movl	$-1, %eax
	lock xaddl	%eax, (%rcx)
	jmp	.L990
	.p2align 4,,10
	.p2align 3
.L1027:
	movq	0(%rbp), %rax
	movq	%rbp, %rdi
	movq	$0, 8(%rbp)
	call	*16(%rax)
	movq	0(%rbp), %rax
	movq	%rbp, %rdi
	call	*24(%rax)
	jmp	.L976
	.p2align 4,,10
	.p2align 3
.L1034:
	movq	%rbx, %rdi
	call	_ZNSt16_Sp_counted_baseILN9__gnu_cxx12_Lock_policyE2EE24_M_release_last_use_coldEv@PLT
	jmp	.L968
	.p2align 4,,10
	.p2align 3
.L1032:
	movq	%rbx, %rdi
	call	_ZNSt16_Sp_counted_baseILN9__gnu_cxx12_Lock_policyE2EE24_M_release_last_use_coldEv@PLT
	jmp	.L987
	.p2align 4,,10
	.p2align 3
.L1028:
	movq	%rbp, %rdi
	call	_ZNSt16_Sp_counted_baseILN9__gnu_cxx12_Lock_policyE2EE24_M_release_last_use_coldEv@PLT
	jmp	.L976
.L1023:
	jmp	.L1024
.L1001:
	movq	%rax, %rbp
	jmp	.L972
	.section	.gcc_except_table
.LLSDA9437:
	.byte	0xff
	.byte	0xff
	.byte	0x1
	.uleb128 .LLSDACSE9437-.LLSDACSB9437
.LLSDACSB9437:
	.uleb128 .LEHB39-.LFB9437
	.uleb128 .LEHE39-.LEHB39
	.uleb128 .L1001-.LFB9437
	.uleb128 0
	.uleb128 .LEHB40-.LFB9437
	.uleb128 .LEHE40-.LEHB40
	.uleb128 .L1023-.LFB9437
	.uleb128 0
.LLSDACSE9437:
	.text
	.cfi_endproc
	.section	.text.unlikely
	.cfi_startproc
	.cfi_personality 0x9b,DW.ref.__gxx_personality_v0
	.cfi_lsda 0x1b,.LLSDAC9437
	.type	_ZN4asio6detail18completion_handlerINS0_7binder1IZN7asiopal8Executor5StartERKNSt6chrono10time_pointINS5_3_V212steady_clockENS5_8durationIlSt5ratioILl1ELl1000000000EEEEEERKSt8functionIFvvEEEUlRKSt10error_codeE_SL_EEE11do_completeEPNS0_15task_io_serviceEPNS0_25task_io_service_operationESN_m.cold, @function
_ZN4asio6detail18completion_handlerINS0_7binder1IZN7asiopal8Executor5StartERKNSt6chrono10time_pointINS5_3_V212steady_clockENS5_8durationIlSt5ratioILl1ELl1000000000EEEEEERKSt8functionIFvvEEEUlRKSt10error_codeE_SL_EEE11do_completeEPNS0_15task_io_serviceEPNS0_25task_io_service_operationESN_m.cold:
.LFSB9437:
.L1025:
	.cfi_def_cfa_offset 160
	.cfi_offset 3, -40
	.cfi_offset 6, -32
	.cfi_offset 12, -24
	.cfi_offset 13, -16
.LEHB41:
	call	_ZSt25__throw_bad_function_callv@PLT
.LEHE41:
.L1000:
.L1024:
	sfence
	movq	%r12, %rdi
	movq	%rax, %rbp
	xorl	%ebx, %ebx
	call	_ZZN7asiopal8Executor5StartERKNSt6chrono10time_pointINS1_3_V212steady_clockENS1_8durationIlSt5ratioILl1ELl1000000000EEEEEERKSt8functionIFvvEEENUlRKSt10error_codeE_D1Ev
.L975:
	movq	%rsp, %rdi
	movq	%rbx, 8(%rsp)
	movq	%rbx, 16(%rsp)
	call	_ZN4asio6detail18completion_handlerINS0_7binder1IZN7asiopal8Executor5StartERKNSt6chrono10time_pointINS5_3_V212steady_clockENS5_8durationIlSt5ratioILl1ELl1000000000EEEEEERKSt8functionIFvvEEEUlRKSt10error_codeE_SL_EEE3ptr5resetEv
	movq	%rbp, %rdi
.LEHB42:
	call	_Unwind_Resume@PLT
.LEHE42:
.L972:
	movq	64(%rsp), %rax
	testq	%rax, %rax
	je	.L973
	movl	$3, %edx
	leaq	48(%rsp), %rsi
	leaq	48(%rsp), %rdi
	call	*%rax
.L973:
	movq	40(%rsp), %rdi
	testq	%rdi, %rdi
	je	.L975
	call	_ZNSt16_Sp_counted_baseILN9__gnu_cxx12_Lock_policyE2EE10_M_releaseEv@PLT
	jmp	.L975
	.cfi_endproc
.LFE9437:
	.section	.gcc_except_table
.LLSDAC9437:
	.byte	0xff
	.byte	0xff
	.byte	0x1
	.uleb128 .LLSDACSEC9437-.LLSDACSBC9437
.LLSDACSBC9437:
	.uleb128 .LEHB41-.LCOLDB33
	.uleb128 .LEHE41-.LEHB41
	.uleb128 .L1000-.LCOLDB33
	.uleb128 0
	.uleb128 .LEHB42-.LCOLDB33
	.uleb128 .LEHE42-.LEHB42
	.uleb128 0
	.uleb128 0
.LLSDACSEC9437:
	.section	.text.unlikely
	.text
	.size	_ZN4asio6detail18completion_handlerINS0_7binder1IZN7asiopal8Executor5StartERKNSt6chrono10time_pointINS5_3_V212steady_clockENS5_8durationIlSt5ratioILl1ELl1000000000EEEEEERKSt8functionIFvvEEEUlRKSt10error_codeE_SL_EEE11do_completeEPNS0_15task_io_serviceEPNS0_25task_io_service_operationESN_m, .-_ZN4asio6detail18completion_handlerINS0_7binder1IZN7asiopal8Executor5StartERKNSt6chrono10time_pointINS5_3_V212steady_clockENS5_8durationIlSt5ratioILl1ELl1000000000EEEEEERKSt8functionIFvvEEEUlRKSt10error_codeE_SL_EEE11do_completeEPNS0_15task_io_serviceEPNS0_25task_io_service_operationESN_m
	.section	.text.unlikely
	.size	_ZN4asio6detail18completion_handlerINS0_7binder1IZN7asiopal8Executor5StartERKNSt6chrono10time_pointINS5_3_V212steady_clockENS5_8durationIlSt5ratioILl1ELl1000000000EEEEEERKSt8functionIFvvEEEUlRKSt10error_codeE_SL_EEE11do_completeEPNS0_15task_io_serviceEPNS0_25task_io_service_operationESN_m.cold, .-_ZN4asio6detail18completion_handlerINS0_7binder1IZN7asiopal8Executor5StartERKNSt6chrono10time_pointINS5_3_V212steady_clockENS5_8durationIlSt5ratioILl1ELl1000000000EEEEEERKSt8functionIFvvEEEUlRKSt10error_codeE_SL_EEE11do_completeEPNS0_15task_io_serviceEPNS0_25task_io_service_operationESN_m.cold
.LCOLDE33:
	.text
.LHOTE33:
	.section	.text.unlikely
.LCOLDB34:
	.text
.LHOTB34:
	.p2align 4
	.type	_ZN4asio6detail18completion_handlerINS0_17rewrapped_handlerINS0_7binder1INS0_15wrapped_handlerINS_10io_service6strandEZN7asiopal8Executor5StartERKNSt6chrono10time_pointINS9_3_V212steady_clockENS9_8durationIlSt5ratioILl1ELl1000000000EEEEEERKSt8functionIFvvEEEUlRKSt10error_codeE_NS0_26is_continuation_if_runningEEESP_EESS_EEE11do_completeEPNS0_15task_io_serviceEPNS0_25task_io_service_operationESR_m, @function
_ZN4asio6detail18completion_handlerINS0_17rewrapped_handlerINS0_7binder1INS0_15wrapped_handlerINS_10io_service6strandEZN7asiopal8Executor5StartERKNSt6chrono10time_pointINS9_3_V212steady_clockENS9_8durationIlSt5ratioILl1ELl1000000000EEEEEERKSt8functionIFvvEEEUlRKSt10error_codeE_NS0_26is_continuation_if_runningEEESP_EESS_EEE11do_completeEPNS0_15task_io_serviceEPNS0_25task_io_service_operationESR_m:
.LFB9349:
	.cfi_startproc
	.cfi_personality 0x9b,DW.ref.__gxx_personality_v0
	.cfi_lsda 0x1b,.LLSDA9349
	pushq	%r15
	.cfi_def_cfa_offset 16
	.cfi_offset 15, -16
	leaq	24(%rsi), %rax
	pushq	%r14
	.cfi_def_cfa_offset 24
	.cfi_offset 14, -24
	pushq	%r13
	.cfi_def_cfa_offset 32
	.cfi_offset 13, -32
	movq	%rdi, %r13
	pushq	%r12
	.cfi_def_cfa_offset 40
	.cfi_offset 12, -40
	pushq	%rbp
	.cfi_def_cfa_offset 48
	.cfi_offset 6, -48
	pushq	%rbx
	.cfi_def_cfa_offset 56
	.cfi_offset 3, -56
	movq	%rsi, %rbx
	subq	$648, %rsp
	.cfi_def_cfa_offset 704
	movdqu	24(%rsi), %xmm0
	movq	%rax, 32(%rsp)
	movq	56(%rsi), %rax
	movaps	%xmm0, 480(%rsp)
	pxor	%xmm0, %xmm0
	movups	%xmm0, 24(%rsi)
	pxor	%xmm0, %xmm0
	movq	$0, 512(%rsp)
	movq	$0, 520(%rsp)
	movaps	%xmm0, 496(%rsp)
	testq	%rax, %rax
	je	.L1036
	leaq	496(%rsp), %rbp
	leaq	40(%rsi), %rsi
	movl	$2, %edx
	movq	%rbp, %rdi
.LEHB43:
	call	*%rax
.LEHE43:
	movdqu	56(%rbx), %xmm0
	movaps	%xmm0, 512(%rsp)
.L1036:
	movdqu	72(%rbx), %xmm0
	movdqu	88(%rbx), %xmm1
	movq	$0, 592(%rsp)
	movq	136(%rbx), %rax
	movq	$0, 600(%rsp)
	movaps	%xmm0, 528(%rsp)
	pxor	%xmm0, %xmm0
	movaps	%xmm1, 544(%rsp)
	movdqu	104(%rbx), %xmm1
	movups	%xmm0, 72(%rbx)
	movups	%xmm0, 104(%rbx)
	pxor	%xmm0, %xmm0
	movaps	%xmm1, 560(%rsp)
	movaps	%xmm0, 576(%rsp)
	testq	%rax, %rax
	je	.L1389
	leaq	576(%rsp), %rbp
	movl	$2, %edx
	leaq	120(%rbx), %rsi
	movq	%rbp, %rdi
.LEHB44:
	call	*%rax
.LEHE44:
	movdqu	136(%rbx), %xmm0
	movq	136(%rbx), %rax
	leaq	480(%rsp), %rbp
	movq	%rbp, 32(%rsp)
	movaps	%xmm0, 592(%rsp)
	movdqu	152(%rbx), %xmm0
	movaps	%xmm0, 608(%rsp)
	movdqu	168(%rbx), %xmm0
	movaps	%xmm0, 624(%rsp)
	testq	%rax, %rax
	je	.L1044
	movl	$3, %edx
	leaq	120(%rbx), %rsi
	leaq	120(%rbx), %rdi
	call	*%rax
.L1044:
	movq	112(%rbx), %r12
	testq	%r12, %r12
	je	.L1049
	movq	8(%r12), %rdx
	leaq	8(%r12), %rcx
	movabsq	$4294967297, %rax
	cmpq	%rax, %rdx
	je	.L1390
	movq	__libc_single_threaded@GOTPCREL(%rip), %rax
	cmpb	$0, (%rax)
	je	.L1051
	movl	8(%r12), %eax
	leal	-1(%rax), %edx
	movl	%edx, 8(%r12)
.L1052:
	cmpl	$1, %eax
	je	.L1391
.L1049:
	movq	80(%rbx), %r12
	testq	%r12, %r12
	je	.L1055
	movq	8(%r12), %rdx
	leaq	8(%r12), %rcx
	movabsq	$4294967297, %rax
	cmpq	%rax, %rdx
	je	.L1392
	movq	__libc_single_threaded@GOTPCREL(%rip), %rax
	cmpb	$0, (%rax)
	je	.L1057
	movl	8(%r12), %eax
	leal	-1(%rax), %edx
	movl	%edx, 8(%r12)
.L1058:
	cmpl	$1, %eax
	je	.L1393
.L1055:
	movq	56(%rbx), %rax
	testq	%rax, %rax
	je	.L1060
	leaq	40(%rbx), %rdi
	movl	$3, %edx
	movq	%rdi, %rsi
	call	*%rax
.L1060:
	movq	32(%rbx), %r12
	testq	%r12, %r12
	je	.L1061
	movq	8(%r12), %rdx
	leaq	8(%r12), %rcx
	movabsq	$4294967297, %rax
	cmpq	%rax, %rdx
	je	.L1394
	movq	__libc_single_threaded@GOTPCREL(%rip), %rax
	cmpb	$0, (%rax)
	je	.L1064
	movl	8(%r12), %eax
	leal	-1(%rax), %edx
	movl	%edx, 8(%r12)
.L1065:
	cmpl	$1, %eax
	je	.L1395
.L1061:
	data16	leaq	_ZN4asio6detail15keyword_tss_ptrINS0_10call_stackINS0_15task_io_serviceENS0_27task_io_service_thread_infoEE7contextEE6value_E@tlsgd(%rip), %rdi
	.value	0x6666
	rex64
	call	__tls_get_addr@PLT
	movq	(%rax), %rax
	testq	%rax, %rax
	je	.L1066
	movq	8(%rax), %rax
	testq	%rax, %rax
	je	.L1066
	cmpq	$0, (%rax)
	je	.L1396
.L1066:
	movq	%rbx, %rdi
	call	_ZdlPv@PLT
.L1067:
	testq	%r13, %r13
	je	.L1068
	movdqa	560(%rsp), %xmm0
	movhlps	%xmm0, %xmm5
	movaps	%xmm0, 160(%rsp)
	movq	%xmm5, %rax
	testq	%rax, %rax
	je	.L1069
	movq	__libc_single_threaded@GOTPCREL(%rip), %rdx
	cmpb	$0, (%rdx)
	je	.L1070
	addl	$1, 8(%rax)
.L1069:
	movq	592(%rsp), %rax
	pxor	%xmm0, %xmm0
	movq	$0, 192(%rsp)
	movq	$0, 200(%rsp)
	movaps	%xmm0, 176(%rsp)
	testq	%rax, %rax
	je	.L1071
	leaq	576(%rsp), %rsi
	movl	$2, %edx
	leaq	176(%rsp), %rdi
.LEHB45:
	call	*%rax
.LEHE45:
	movdqa	592(%rsp), %xmm0
	movq	592(%rsp), %rax
	movaps	%xmm0, 192(%rsp)
.L1071:
	movdqa	608(%rsp), %xmm0
	movhlps	%xmm0, %xmm6
	movaps	%xmm0, 208(%rsp)
	movq	%xmm6, %rdx
	testq	%rdx, %rdx
	je	.L1073
	movq	__libc_single_threaded@GOTPCREL(%rip), %rcx
	cmpb	$0, (%rcx)
	je	.L1078
	addl	$1, 8(%rdx)
.L1073:
	movdqa	160(%rsp), %xmm1
	pxor	%xmm0, %xmm0
	movq	$0, 256(%rsp)
	movaps	%xmm0, 160(%rsp)
	pxor	%xmm0, %xmm0
	movq	$0, 264(%rsp)
	movaps	%xmm1, 224(%rsp)
	movaps	%xmm0, 240(%rsp)
	testq	%rax, %rax
	je	.L1081
	leaq	176(%rsp), %rsi
	movl	$2, %edx
	leaq	240(%rsp), %rdi
.LEHB46:
	call	*%rax
.LEHE46:
	movdqa	192(%rsp), %xmm0
	movq	192(%rsp), %rax
	movdqa	224(%rsp), %xmm1
	movaps	%xmm0, 256(%rsp)
.L1081:
	movdqa	208(%rsp), %xmm0
	pxor	%xmm2, %xmm2
	movdqa	624(%rsp), %xmm3
	movaps	%xmm1, 384(%rsp)
	pxor	%xmm1, %xmm1
	movaps	%xmm2, 208(%rsp)
	movq	$0, 416(%rsp)
	movq	$0, 424(%rsp)
	movaps	%xmm0, 272(%rsp)
	movaps	%xmm3, 288(%rsp)
	movaps	%xmm2, 224(%rsp)
	movaps	%xmm1, 400(%rsp)
	testq	%rax, %rax
	je	.L1084
	leaq	240(%rsp), %rsi
	movl	$2, %edx
	leaq	400(%rsp), %rdi
.LEHB47:
	call	*%rax
.LEHE47:
	movdqa	256(%rsp), %xmm0
	movaps	%xmm0, 416(%rsp)
	movdqa	272(%rsp), %xmm0
.L1084:
	movaps	%xmm0, 432(%rsp)
	pxor	%xmm0, %xmm0
	movaps	%xmm0, 272(%rsp)
	movdqa	288(%rsp), %xmm0
	movaps	%xmm0, 448(%rsp)
	data16	leaq	_ZN4asio6detail15keyword_tss_ptrINS0_10call_stackINS0_14strand_service11strand_implEhE7contextEE6value_E@tlsgd(%rip), %rdi
	.value	0x6666
	rex64
	call	__tls_get_addr@PLT
	movq	552(%rsp), %rdx
	movq	(%rax), %rax
	testq	%rax, %rax
	jne	.L1097
	jmp	.L1090
	.p2align 4
	.p2align 4,,10
	.p2align 3
.L1095:
	movq	16(%rax), %rax
	testq	%rax, %rax
	je	.L1090
.L1097:
	cmpq	(%rax), %rdx
	jne	.L1095
	cmpq	$0, 8(%rax)
	je	.L1090
	lfence
	movl	448(%rsp), %ecx
	testl	%ecx, %ecx
	je	.L1397
.L1098:
	sfence
.L1100:
	movq	440(%rsp), %rbx
	testq	%rbx, %rbx
	je	.L1181
	movq	8(%rbx), %rdx
	leaq	8(%rbx), %rcx
	movabsq	$4294967297, %rax
	cmpq	%rax, %rdx
	je	.L1398
	movq	__libc_single_threaded@GOTPCREL(%rip), %rax
	cmpb	$0, (%rax)
	je	.L1185
	movl	8(%rbx), %eax
	leal	-1(%rax), %edx
	movl	%edx, 8(%rbx)
.L1186:
	cmpl	$1, %eax
	je	.L1399
.L1181:
	movq	416(%rsp), %rax
	testq	%rax, %rax
	je	.L1188
	leaq	400(%rsp), %rdi
	movl	$3, %edx
	movq	%rdi, %rsi
	call	*%rax
.L1188:
	movq	392(%rsp), %rbx
	testq	%rbx, %rbx
	je	.L1190
	movq	8(%rbx), %rdx
	leaq	8(%rbx), %rcx
	movabsq	$4294967297, %rax
	cmpq	%rax, %rdx
	je	.L1400
	movq	__libc_single_threaded@GOTPCREL(%rip), %rax
	cmpb	$0, (%rax)
	je	.L1192
	movl	8(%rbx), %eax
	leal	-1(%rax), %edx
	movl	%edx, 8(%rbx)
.L1193:
	cmpl	$1, %eax
	je	.L1401
.L1190:
	movq	280(%rsp), %rbx
	testq	%rbx, %rbx
	je	.L1196
	movq	8(%rbx), %rdx
	leaq	8(%rbx), %rcx
	movabsq	$4294967297, %rax
	cmpq	%rax, %rdx
	je	.L1402
	movq	__libc_single_threaded@GOTPCREL(%rip), %rax
	cmpb	$0, (%rax)
	je	.L1198
	movl	8(%rbx), %eax
	leal	-1(%rax), %edx
	movl	%edx, 8(%rbx)
.L1199:
	cmpl	$1, %eax
	je	.L1403
.L1196:
	movq	256(%rsp), %rax
	testq	%rax, %rax
	je	.L1201
	leaq	240(%rsp), %rdi
	movl	$3, %edx
	movq	%rdi, %rsi
	call	*%rax
.L1201:
	movq	232(%rsp), %rbx
	testq	%rbx, %rbx
	je	.L1203
	movq	8(%rbx), %rdx
	leaq	8(%rbx), %rcx
	movabsq	$4294967297, %rax
	cmpq	%rax, %rdx
	je	.L1404
	movq	__libc_single_threaded@GOTPCREL(%rip), %rax
	cmpb	$0, (%rax)
	je	.L1205
	movl	8(%rbx), %eax
	leal	-1(%rax), %edx
	movl	%edx, 8(%rbx)
.L1206:
	cmpl	$1, %eax
	je	.L1405
.L1203:
	movq	216(%rsp), %rbx
	testq	%rbx, %rbx
	je	.L1209
	movq	8(%rbx), %rdx
	leaq	8(%rbx), %rcx
	movabsq	$4294967297, %rax
	cmpq	%rax, %rdx
	je	.L1406
	movq	__libc_single_threaded@GOTPCREL(%rip), %rax
	cmpb	$0, (%rax)
	je	.L1211
	movl	8(%rbx), %eax
	leal	-1(%rax), %edx
	movl	%edx, 8(%rbx)
.L1212:
	cmpl	$1, %eax
	je	.L1407
.L1209:
	movq	192(%rsp), %rax
	testq	%rax, %rax
	je	.L1214
	leaq	176(%rsp), %rdi
	movl	$3, %edx
	movq	%rdi, %rsi
	call	*%rax
.L1214:
	movq	168(%rsp), %rbx
	testq	%rbx, %rbx
	je	.L1216
	movq	8(%rbx), %rdx
	leaq	8(%rbx), %rcx
	movabsq	$4294967297, %rax
	cmpq	%rax, %rdx
	je	.L1408
	movq	__libc_single_threaded@GOTPCREL(%rip), %rax
	cmpb	$0, (%rax)
	je	.L1218
	movl	8(%rbx), %eax
	leal	-1(%rax), %edx
	movl	%edx, 8(%rbx)
.L1219:
	cmpl	$1, %eax
	je	.L1409
.L1216:
	sfence
.L1068:
	movq	616(%rsp), %rbx
	testq	%rbx, %rbx
	je	.L1222
	movq	8(%rbx), %rdx
	leaq	8(%rbx), %rcx
	movabsq	$4294967297, %rax
	cmpq	%rax, %rdx
	je	.L1410
	movq	__libc_single_threaded@GOTPCREL(%rip), %rax
	cmpb	$0, (%rax)
	je	.L1224
	movl	8(%rbx), %eax
	leal	-1(%rax), %edx
	movl	%edx, 8(%rbx)
.L1225:
	cmpl	$1, %eax
	je	.L1411
.L1222:
	movq	592(%rsp), %rax
	testq	%rax, %rax
	je	.L1227
	leaq	576(%rsp), %rdi
	movl	$3, %edx
	movq	%rdi, %rsi
	call	*%rax
.L1227:
	movq	568(%rsp), %rbx
	testq	%rbx, %rbx
	je	.L1229
	movq	8(%rbx), %rdx
	leaq	8(%rbx), %rcx
	movabsq	$4294967297, %rax
	cmpq	%rax, %rdx
	je	.L1412
	movq	__libc_single_threaded@GOTPCREL(%rip), %rax
	cmpb	$0, (%rax)
	je	.L1231
	movl	8(%rbx), %eax
	leal	-1(%rax), %edx
	movl	%edx, 8(%rbx)
.L1232:
	cmpl	$1, %eax
	je	.L1413
.L1229:
	movq	536(%rsp), %rbx
	testq	%rbx, %rbx
	je	.L1235
	movq	8(%rbx), %rdx
	leaq	8(%rbx), %rcx
	movabsq	$4294967297, %rax
	cmpq	%rax, %rdx
	je	.L1414
	movq	__libc_single_threaded@GOTPCREL(%rip), %rax
	cmpb	$0, (%rax)
	je	.L1237
	movl	8(%rbx), %eax
	leal	-1(%rax), %edx
	movl	%edx, 8(%rbx)
.L1238:
	cmpl	$1, %eax
	je	.L1415
.L1235:
	movq	512(%rsp), %rax
	testq	%rax, %rax
	je	.L1240
	leaq	496(%rsp), %rdi
	movl	$3, %edx
	movq	%rdi, %rsi
	call	*%rax
.L1240:
	movq	488(%rsp), %rbx
	testq	%rbx, %rbx
	je	.L1035
	movq	8(%rbx), %rdx
	leaq	8(%rbx), %rcx
	movabsq	$4294967297, %rax
	cmpq	%rax, %rdx
	je	.L1416
	movq	__libc_single_threaded@GOTPCREL(%rip), %rax
	cmpb	$0, (%rax)
	je	.L1244
	movl	8(%rbx), %eax
	leal	-1(%rax), %edx
	movl	%edx, 8(%rbx)
.L1245:
	cmpl	$1, %eax
	je	.L1417
.L1035:
	addq	$648, %rsp
	.cfi_remember_state
	.cfi_def_cfa_offset 56
	popq	%rbx
	.cfi_def_cfa_offset 48
	popq	%rbp
	.cfi_def_cfa_offset 40
	popq	%r12
	.cfi_def_cfa_offset 32
	popq	%r13
	.cfi_def_cfa_offset 24
	popq	%r14
	.cfi_def_cfa_offset 16
	popq	%r15
	.cfi_def_cfa_offset 8
	ret
	.p2align 4,,10
	.p2align 3
.L1090:
	.cfi_restore_state
	leaq	384(%rsp), %rax
	movq	544(%rsp), %r12
	movq	%rax, 64(%rsp)
	movq	%rax, %r14
	data16	leaq	_ZN4asio6detail15keyword_tss_ptrINS0_10call_stackINS0_15task_io_serviceENS0_27task_io_service_thread_infoEE7contextEE6value_E@tlsgd(%rip), %rdi
	.value	0x6666
	rex64
	call	__tls_get_addr@PLT
	movq	(%rax), %rax
	testq	%rax, %rax
	je	.L1101
	movq	8(%rax), %rax
	testq	%rax, %rax
	je	.L1101
	movq	(%rax), %rbx
	testq	%rbx, %rbx
	je	.L1101
	movq	$0, (%rax)
	movzbl	(%rbx), %eax
	cmpb	$103, %al
	jbe	.L1102
	movb	%al, 104(%rbx)
	jmp	.L1103
	.p2align 4,,10
	.p2align 3
.L1102:
	movq	%rbx, %rdi
	call	_ZdlPv@PLT
.L1101:
	movl	$105, %edi
.LEHB48:
	call	_Znwm@PLT
.LEHE48:
	movb	$104, 104(%rax)
	movq	%rax, %rbx
.L1103:
	leaq	_ZN4asio6detail18completion_handlerINS0_7binder1IZN7asiopal8Executor5StartERKNSt6chrono10time_pointINS5_3_V212steady_clockENS5_8durationIlSt5ratioILl1ELl1000000000EEEEEERKSt8functionIFvvEEEUlRKSt10error_codeE_SL_EEE11do_completeEPNS0_15task_io_serviceEPNS0_25task_io_service_operationESN_m(%rip), %rax
	movq	$0, (%rbx)
	movq	%rax, 8(%rbx)
	movdqa	384(%rsp), %xmm0
	movl	$0, 16(%rbx)
	movups	%xmm0, 24(%rbx)
	pxor	%xmm0, %xmm0
	movq	416(%rsp), %rax
	movaps	%xmm0, 384(%rsp)
	pxor	%xmm0, %xmm0
	movq	$0, 56(%rbx)
	movq	$0, 64(%rbx)
	movups	%xmm0, 40(%rbx)
	testq	%rax, %rax
	je	.L1104
	leaq	40(%rbx), %r13
	leaq	400(%rsp), %rsi
	movl	$2, %edx
	movq	%r13, %rdi
.LEHB49:
	call	*%rax
.LEHE49:
	movdqa	416(%rsp), %xmm0
	movups	%xmm0, 56(%rbx)
.L1104:
	movdqa	432(%rsp), %xmm0
	movq	%rbx, %xmm4
	punpcklqdq	%xmm4, %xmm4
	movups	%xmm0, 72(%rbx)
	pxor	%xmm0, %xmm0
	movaps	%xmm0, 432(%rsp)
	movdqa	448(%rsp), %xmm0
	movaps	%xmm4, (%rsp)
	movups	%xmm0, 88(%rbx)
	data16	leaq	_ZN4asio6detail15keyword_tss_ptrINS0_10call_stackINS0_15task_io_serviceENS0_27task_io_service_thread_infoEE7contextEE6value_E@tlsgd(%rip), %rdi
	.value	0x6666
	rex64
	call	__tls_get_addr@PLT
	movq	552(%rsp), %rdi
	movq	(%rax), %rax
	testq	%rax, %rax
	je	.L1387
	movq	40(%r12), %rdx
	jmp	.L1114
	.p2align 4
	.p2align 4,,10
	.p2align 3
.L1111:
	movq	16(%rax), %rax
	testq	%rax, %rax
	je	.L1387
.L1114:
	cmpq	(%rax), %rdx
	jne	.L1111
	movq	8(%rax), %r13
	addq	$24, %rdi
	call	pthread_mutex_lock@PLT
	testq	%r13, %r13
	je	.L1113
	movq	552(%rsp), %rdi
	cmpb	$0, 64(%rdi)
	je	.L1418
.L1116:
	movq	80(%rdi), %rax
	movq	$0, (%rbx)
	testq	%rax, %rax
	je	.L1120
	movq	%rbx, (%rax)
	movq	%rbx, 80(%rdi)
.L1121:
	addq	$24, %rdi
	call	pthread_mutex_unlock@PLT
	jmp	.L1100
	.p2align 4,,10
	.p2align 3
.L1389:
	movdqu	152(%rbx), %xmm0
	leaq	480(%rsp), %rbp
	movq	%rbp, 32(%rsp)
	movaps	%xmm0, 608(%rsp)
	movdqu	168(%rbx), %xmm0
	movaps	%xmm0, 624(%rsp)
	jmp	.L1044
	.p2align 4,,10
	.p2align 3
.L1418:
	movb	$1, 64(%rdi)
	addq	$24, %rdi
	call	pthread_mutex_unlock@PLT
	movq	552(%rsp), %r13
	movq	%r13, 96(%rsp)
	data16	leaq	_ZN4asio6detail15keyword_tss_ptrINS0_10call_stackINS0_14strand_service11strand_implEhE7contextEE6value_E@tlsgd(%rip), %rdi
	.value	0x6666
	rex64
	call	__tls_get_addr@PLT
	movdqu	24(%rbx), %xmm0
	movq	40(%r12), %r12
	movaps	%xmm0, 304(%rsp)
	pxor	%xmm0, %xmm0
	movups	%xmm0, 24(%rbx)
	pxor	%xmm0, %xmm0
	movq	$0, 336(%rsp)
	movq	$0, 344(%rsp)
	movq	(%rax), %rdx
	movaps	%xmm0, 320(%rsp)
	movq	%rdx, 112(%rsp)
	leaq	96(%rsp), %rdx
	movq	%rdx, (%rax)
	leaq	24(%rbx), %rax
	movq	%rax, 128(%rsp)
	movq	56(%rbx), %rax
	movq	%rdx, 104(%rsp)
	testq	%rax, %rax
	je	.L1419
	leaq	40(%rbx), %rcx
	leaq	320(%rsp), %rdi
	movl	$2, %edx
	movq	%rcx, 16(%rsp)
	movq	%rdi, %r15
	movq	%rcx, %rsi
.LEHB50:
	call	*%rax
.LEHE50:
	movdqu	56(%rbx), %xmm0
	movq	56(%rbx), %rax
	leaq	304(%rsp), %rcx
	movq	%rcx, 128(%rsp)
	movq	%rcx, %r15
	movaps	%xmm0, 336(%rsp)
	movdqu	72(%rbx), %xmm0
	movaps	%xmm0, 352(%rsp)
	movdqu	88(%rbx), %xmm0
	movaps	%xmm0, 368(%rsp)
	testq	%rax, %rax
	je	.L1118
	movq	16(%rsp), %rsi
	movq	16(%rsp), %rdi
	movl	$3, %edx
	call	*%rax
.L1118:
	movq	32(%rbx), %rdi
	testq	%rdi, %rdi
	je	.L1141
	movq	8(%rdi), %rdx
	leaq	8(%rdi), %rcx
	movabsq	$4294967297, %rax
	cmpq	%rax, %rdx
	je	.L1420
	movq	__libc_single_threaded@GOTPCREL(%rip), %rax
	cmpb	$0, (%rax)
	je	.L1143
	movl	8(%rdi), %eax
	leal	-1(%rax), %edx
	movl	%edx, 8(%rdi)
.L1144:
	cmpl	$1, %eax
	jne	.L1141
	call	_ZNSt16_Sp_counted_baseILN9__gnu_cxx12_Lock_policyE2EE24_M_release_last_use_coldEv@PLT
	.p2align 4
	.p2align 3
.L1141:
	data16	leaq	_ZN4asio6detail15keyword_tss_ptrINS0_10call_stackINS0_15task_io_serviceENS0_27task_io_service_thread_infoEE7contextEE6value_E@tlsgd(%rip), %rdi
	.value	0x6666
	rex64
	call	__tls_get_addr@PLT
	movq	(%rax), %rax
	testq	%rax, %rax
	je	.L1146
	movq	8(%rax), %rax
	testq	%rax, %rax
	je	.L1146
	cmpq	$0, (%rax)
	je	.L1421
.L1146:
	movq	%rbx, %rdi
	call	_ZdlPv@PLT
.L1147:
	testq	%r12, %r12
	je	.L1148
	movl	368(%rsp), %edx
	testl	%edx, %edx
	jne	.L1149
	cmpq	$0, 336(%rsp)
	je	.L1384
	leaq	320(%rsp), %rdi
.LEHB51:
	call	*344(%rsp)
.LEHE51:
.L1149:
	sfence
.L1148:
	movq	360(%rsp), %rbx
	testq	%rbx, %rbx
	je	.L1152
	movq	8(%rbx), %rdx
	leaq	8(%rbx), %rcx
	movabsq	$4294967297, %rax
	cmpq	%rax, %rdx
	je	.L1422
	movq	__libc_single_threaded@GOTPCREL(%rip), %rax
	cmpb	$0, (%rax)
	je	.L1154
	movl	8(%rbx), %eax
	leal	-1(%rax), %edx
	movl	%edx, 8(%rbx)
.L1155:
	cmpl	$1, %eax
	je	.L1423
.L1152:
	movq	336(%rsp), %rax
	testq	%rax, %rax
	je	.L1157
	leaq	320(%rsp), %rdi
	movl	$3, %edx
	movq	%rdi, %rsi
	call	*%rax
.L1157:
	movq	312(%rsp), %rbx
	testq	%rbx, %rbx
	je	.L1159
	movq	8(%rbx), %rdx
	leaq	8(%rbx), %rcx
	movabsq	$4294967297, %rax
	cmpq	%rax, %rdx
	je	.L1424
	movq	__libc_single_threaded@GOTPCREL(%rip), %rax
	cmpb	$0, (%rax)
	je	.L1161
	movl	8(%rbx), %eax
	leal	-1(%rax), %edx
	movl	%edx, 8(%rbx)
.L1162:
	cmpl	$1, %eax
	je	.L1425
.L1159:
	leaq	24(%r13), %rbp
	movq	%rbp, %rdi
	call	pthread_mutex_lock@PLT
	movq	72(%r13), %rbx
	testq	%rbx, %rbx
	je	.L1426
	movq	96(%r13), %rax
	testq	%rax, %rax
	je	.L1167
	movq	%rbx, (%rax)
	movq	88(%r13), %rbx
.L1168:
	movq	80(%r13), %rax
	pxor	%xmm0, %xmm0
	movups	%xmm0, 72(%r13)
	movq	%rax, 96(%r13)
.L1165:
	testq	%rbx, %rbx
	movq	%rbp, %rdi
	setne	64(%r13)
	call	pthread_mutex_unlock@PLT
	testq	%rbx, %rbx
	je	.L1169
	movq	%r13, %xmm7
	punpcklqdq	%xmm7, %xmm7
	movaps	%xmm7, (%rsp)
	cmpb	$0, 40(%r12)
	je	.L1170
	data16	leaq	_ZN4asio6detail15keyword_tss_ptrINS0_10call_stackINS0_15task_io_serviceENS0_27task_io_service_thread_infoEE7contextEE6value_E@tlsgd(%rip), %rdi
	.value	0x6666
	rex64
	call	__tls_get_addr@PLT
	movq	(%rax), %rax
	testq	%rax, %rax
	jne	.L1173
	jmp	.L1170
	.p2align 4
	.p2align 4,,10
	.p2align 3
.L1171:
	movq	16(%rax), %rax
	testq	%rax, %rax
	je	.L1170
.L1173:
	cmpq	(%rax), %r12
	jne	.L1171
	movq	8(%rax), %rax
	testq	%rax, %rax
	je	.L1170
	movq	16(%rax), %rdx
	addq	$1, 24(%rax)
	movq	$0, 0(%r13)
	testq	%rdx, %rdx
	je	.L1174
	movq	%r13, (%rdx)
	movq	%r13, 16(%rax)
	.p2align 4
	.p2align 3
.L1169:
	data16	leaq	_ZN4asio6detail15keyword_tss_ptrINS0_10call_stackINS0_14strand_service11strand_implEhE7contextEE6value_E@tlsgd(%rip), %rdi
	.value	0x6666
	rex64
	call	__tls_get_addr@PLT
	movq	112(%rsp), %rdx
	movq	%rdx, (%rax)
	jmp	.L1100
	.p2align 4,,10
	.p2align 3
.L1397:
	cmpq	$0, 416(%rsp)
	je	.L1383
	leaq	400(%rsp), %rdi
.LEHB52:
	call	*424(%rsp)
.LEHE52:
	jmp	.L1098
	.p2align 4,,10
	.p2align 3
.L1412:
	movq	(%rbx), %rax
	movq	%rbx, %rdi
	movq	$0, 8(%rbx)
	call	*16(%rax)
	movq	(%rbx), %rax
	movq	%rbx, %rdi
	call	*24(%rax)
	jmp	.L1229
	.p2align 4,,10
	.p2align 3
.L1414:
	movq	(%rbx), %rax
	movq	%rbx, %rdi
	movq	$0, 8(%rbx)
	call	*16(%rax)
	movq	(%rbx), %rax
	movq	%rbx, %rdi
	call	*24(%rax)
	jmp	.L1235
	.p2align 4,,10
	.p2align 3
.L1416:
	movq	(%rbx), %rax
	movq	%rbx, %rdi
	movq	$0, 8(%rbx)
	call	*16(%rax)
	movq	(%rbx), %rax
	movq	%rbx, %rdi
	call	*24(%rax)
	jmp	.L1035
	.p2align 4,,10
	.p2align 3
.L1410:
	movq	(%rbx), %rax
	movq	%rbx, %rdi
	movq	$0, 8(%rbx)
	call	*16(%rax)
	movq	(%rbx), %rax
	movq	%rbx, %rdi
	call	*24(%rax)
	jmp	.L1222
	.p2align 4,,10
	.p2align 3
.L1198:
	movl	$-1, %eax
	lock xaddl	%eax, (%rcx)
	jmp	.L1199
	.p2align 4,,10
	.p2align 3
.L1192:
	movl	$-1, %eax
	lock xaddl	%eax, (%rcx)
	jmp	.L1193
	.p2align 4,,10
	.p2align 3
.L1185:
	movl	$-1, %eax
	lock xaddl	%eax, (%rcx)
	jmp	.L1186
	.p2align 4,,10
	.p2align 3
.L1218:
	movl	$-1, %eax
	lock xaddl	%eax, (%rcx)
	jmp	.L1219
	.p2align 4,,10
	.p2align 3
.L1211:
	movl	$-1, %eax
	lock xaddl	%eax, (%rcx)
	jmp	.L1212
	.p2align 4,,10
	.p2align 3
.L1205:
	movl	$-1, %eax
	lock xaddl	%eax, (%rcx)
	jmp	.L1206
	.p2align 4,,10
	.p2align 3
.L1396:
	movzbl	184(%rbx), %edx
	movb	%dl, (%rbx)
	movq	%rbx, (%rax)
	jmp	.L1067
	.p2align 4,,10
	.p2align 3
.L1120:
	movdqa	(%rsp), %xmm7
	movups	%xmm7, 72(%rdi)
	jmp	.L1121
	.p2align 4,,10
	.p2align 3
.L1064:
	movl	$-1, %eax
	lock xaddl	%eax, (%rcx)
	jmp	.L1065
	.p2align 4,,10
	.p2align 3
.L1057:
	movl	$-1, %eax
	lock xaddl	%eax, (%rcx)
	jmp	.L1058
	.p2align 4,,10
	.p2align 3
.L1051:
	movl	$-1, %eax
	lock xaddl	%eax, (%rcx)
	jmp	.L1052
	.p2align 4,,10
	.p2align 3
.L1419:
	movdqu	72(%rbx), %xmm0
	leaq	304(%rsp), %rax
	movq	%rax, 128(%rsp)
	movq	%rax, %r15
	movaps	%xmm0, 352(%rsp)
	movdqu	88(%rbx), %xmm0
	movaps	%xmm0, 368(%rsp)
	jmp	.L1118
	.p2align 4,,10
	.p2align 3
.L1078:
	lock addl	$1, 8(%rdx)
	movq	192(%rsp), %rax
	jmp	.L1073
	.p2align 4,,10
	.p2align 3
.L1070:
	lock addl	$1, 8(%rax)
	jmp	.L1069
	.p2align 4,,10
	.p2align 3
.L1224:
	movl	$-1, %eax
	lock xaddl	%eax, (%rcx)
	jmp	.L1225
	.p2align 4,,10
	.p2align 3
.L1244:
	movl	$-1, %eax
	lock xaddl	%eax, (%rcx)
	jmp	.L1245
	.p2align 4,,10
	.p2align 3
.L1231:
	movl	$-1, %eax
	lock xaddl	%eax, (%rcx)
	jmp	.L1232
	.p2align 4,,10
	.p2align 3
.L1237:
	movl	$-1, %eax
	lock xaddl	%eax, (%rcx)
	jmp	.L1238
	.p2align 4,,10
	.p2align 3
.L1387:
	addq	$24, %rdi
	call	pthread_mutex_lock@PLT
.L1113:
	movq	552(%rsp), %rdi
	cmpb	$0, 64(%rdi)
	jne	.L1116
	movb	$1, 64(%rdi)
	addq	$24, %rdi
	call	pthread_mutex_unlock@PLT
	movq	552(%rsp), %rbp
	movq	$0, (%rbx)
	movq	%rbp, %xmm7
	movq	96(%rbp), %rax
	punpcklqdq	%xmm7, %xmm7
	movaps	%xmm7, 16(%rsp)
	testq	%rax, %rax
	je	.L1123
	movq	%rbx, (%rax)
	movq	%rbx, 96(%rbp)
.L1124:
	movq	40(%r12), %rbx
	cmpb	$0, 40(%rbx)
	je	.L1125
	data16	leaq	_ZN4asio6detail15keyword_tss_ptrINS0_10call_stackINS0_15task_io_serviceENS0_27task_io_service_thread_infoEE7contextEE6value_E@tlsgd(%rip), %rdi
	.value	0x6666
	rex64
	call	__tls_get_addr@PLT
	movq	(%rax), %rax
	testq	%rax, %rax
	jne	.L1128
	jmp	.L1125
	.p2align 4
	.p2align 4,,10
	.p2align 3
.L1126:
	movq	16(%rax), %rax
	testq	%rax, %rax
	je	.L1125
.L1128:
	cmpq	(%rax), %rbx
	jne	.L1126
	movq	8(%rax), %rax
	testq	%rax, %rax
	je	.L1125
	movq	16(%rax), %rdx
	addq	$1, 24(%rax)
	movq	$0, 0(%rbp)
	testq	%rdx, %rdx
	je	.L1129
	movq	%rbp, (%rdx)
	movq	%rbp, 16(%rax)
	jmp	.L1100
	.p2align 4,,10
	.p2align 3
.L1125:
	lock addq	$1, 184(%rbx)
	leaq	48(%rbx), %r12
	movq	%r12, %rdi
	call	pthread_mutex_lock@PLT
	movq	200(%rbx), %rax
	movq	$0, 0(%rbp)
	testq	%rax, %rax
	je	.L1130
	movq	%rbp, (%rax)
	movq	%rbp, 200(%rbx)
.L1131:
	movq	136(%rbx), %rax
	movq	%rax, %rdx
	orq	$1, %rdx
	movq	%rdx, 136(%rbx)
	cmpq	$1, %rax
	ja	.L1427
	cmpb	$0, 176(%rbx)
	jne	.L1134
	movq	144(%rbx), %rax
	testq	%rax, %rax
	je	.L1134
	movb	$1, 176(%rbx)
	leaq	88(%rax), %rdx
	movl	$3, %esi
	leaq	304(%rsp), %rcx
	movq	%rdx, 308(%rsp)
	movl	88(%rax), %edx
	movl	$-2147483639, 304(%rsp)
	movl	96(%rax), %edi
	call	epoll_ctl@PLT
.L1134:
	movq	%r12, %rdi
	call	pthread_mutex_unlock@PLT
	jmp	.L1100
	.p2align 4,,10
	.p2align 3
.L1170:
	lock addq	$1, 184(%r12)
	leaq	48(%r12), %rbx
	movq	%rbx, %rdi
	call	pthread_mutex_lock@PLT
	movq	200(%r12), %rax
	movq	$0, 0(%r13)
	testq	%rax, %rax
	je	.L1175
	movq	%r13, (%rax)
	movq	%r13, 200(%r12)
.L1176:
	movq	136(%r12), %rax
	movq	%rax, %rdx
	orq	$1, %rdx
	movq	%rdx, 136(%r12)
	cmpq	$1, %rax
	ja	.L1428
	cmpb	$0, 176(%r12)
	jne	.L1179
	movq	144(%r12), %rax
	testq	%rax, %rax
	je	.L1179
	movb	$1, 176(%r12)
	leaq	88(%rax), %rdx
	movq	%r15, %rcx
	movl	$3, %esi
	movq	%rdx, 308(%rsp)
	movl	88(%rax), %edx
	movl	$-2147483639, 304(%rsp)
	movl	96(%rax), %edi
	call	epoll_ctl@PLT
.L1179:
	movq	%rbx, %rdi
	call	pthread_mutex_unlock@PLT
	jmp	.L1169
	.p2align 4,,10
	.p2align 3
.L1408:
	movq	(%rbx), %rax
	movq	%rbx, %rdi
	movq	$0, 8(%rbx)
	call	*16(%rax)
	movq	(%rbx), %rax
	movq	%rbx, %rdi
	call	*24(%rax)
	jmp	.L1216
	.p2align 4,,10
	.p2align 3
.L1398:
	movq	(%rbx), %rax
	movq	%rbx, %rdi
	movq	$0, 8(%rbx)
	call	*16(%rax)
	movq	(%rbx), %rax
	movq	%rbx, %rdi
	call	*24(%rax)
	jmp	.L1181
	.p2align 4,,10
	.p2align 3
.L1402:
	movq	(%rbx), %rax
	movq	%rbx, %rdi
	movq	$0, 8(%rbx)
	call	*16(%rax)
	movq	(%rbx), %rax
	movq	%rbx, %rdi
	call	*24(%rax)
	jmp	.L1196
	.p2align 4,,10
	.p2align 3
.L1400:
	movq	(%rbx), %rax
	movq	%rbx, %rdi
	movq	$0, 8(%rbx)
	call	*16(%rax)
	movq	(%rbx), %rax
	movq	%rbx, %rdi
	call	*24(%rax)
	jmp	.L1190
	.p2align 4,,10
	.p2align 3
.L1404:
	movq	(%rbx), %rax
	movq	%rbx, %rdi
	movq	$0, 8(%rbx)
	call	*16(%rax)
	movq	(%rbx), %rax
	movq	%rbx, %rdi
	call	*24(%rax)
	jmp	.L1203
	.p2align 4,,10
	.p2align 3
.L1406:
	movq	(%rbx), %rax
	movq	%rbx, %rdi
	movq	$0, 8(%rbx)
	call	*16(%rax)
	movq	(%rbx), %rax
	movq	%rbx, %rdi
	call	*24(%rax)
	jmp	.L1209
	.p2align 4,,10
	.p2align 3
.L1426:
	movq	88(%r13), %rbx
	jmp	.L1165
.L1390:
	movq	$0, 8(%r12)
	movq	(%r12), %rax
	movq	%r12, %rdi
	call	*16(%rax)
	movq	(%r12), %rax
	movq	%r12, %rdi
	call	*24(%rax)
	jmp	.L1049
.L1394:
	movq	$0, 8(%r12)
	movq	(%r12), %rax
	movq	%r12, %rdi
	call	*16(%rax)
	movq	(%r12), %rax
	movq	%r12, %rdi
	call	*24(%rax)
	jmp	.L1061
.L1392:
	movq	$0, 8(%r12)
	movq	(%r12), %rax
	movq	%r12, %rdi
	call	*16(%rax)
	movq	(%r12), %rax
	movq	%r12, %rdi
	call	*24(%rax)
	jmp	.L1055
.L1427:
	movq	%r12, %rdi
	call	pthread_mutex_unlock@PLT
	leaq	88(%rbx), %rdi
	call	pthread_cond_signal@PLT
	jmp	.L1100
.L1428:
	movq	%rbx, %rdi
	call	pthread_mutex_unlock@PLT
	leaq	88(%r12), %rdi
	call	pthread_cond_signal@PLT
	jmp	.L1169
.L1417:
	movq	%rbx, %rdi
	call	_ZNSt16_Sp_counted_baseILN9__gnu_cxx12_Lock_policyE2EE24_M_release_last_use_coldEv@PLT
	jmp	.L1035
.L1415:
	movq	%rbx, %rdi
	call	_ZNSt16_Sp_counted_baseILN9__gnu_cxx12_Lock_policyE2EE24_M_release_last_use_coldEv@PLT
	jmp	.L1235
.L1411:
	movq	%rbx, %rdi
	call	_ZNSt16_Sp_counted_baseILN9__gnu_cxx12_Lock_policyE2EE24_M_release_last_use_coldEv@PLT
	jmp	.L1222
.L1413:
	movq	%rbx, %rdi
	call	_ZNSt16_Sp_counted_baseILN9__gnu_cxx12_Lock_policyE2EE24_M_release_last_use_coldEv@PLT
	jmp	.L1229
.L1399:
	movq	%rbx, %rdi
	call	_ZNSt16_Sp_counted_baseILN9__gnu_cxx12_Lock_policyE2EE24_M_release_last_use_coldEv@PLT
	jmp	.L1181
.L1401:
	movq	%rbx, %rdi
	call	_ZNSt16_Sp_counted_baseILN9__gnu_cxx12_Lock_policyE2EE24_M_release_last_use_coldEv@PLT
	jmp	.L1190
.L1403:
	movq	%rbx, %rdi
	call	_ZNSt16_Sp_counted_baseILN9__gnu_cxx12_Lock_policyE2EE24_M_release_last_use_coldEv@PLT
	jmp	.L1196
.L1405:
	movq	%rbx, %rdi
	call	_ZNSt16_Sp_counted_baseILN9__gnu_cxx12_Lock_policyE2EE24_M_release_last_use_coldEv@PLT
	jmp	.L1203
.L1407:
	movq	%rbx, %rdi
	call	_ZNSt16_Sp_counted_baseILN9__gnu_cxx12_Lock_policyE2EE24_M_release_last_use_coldEv@PLT
	jmp	.L1209
.L1409:
	movq	%rbx, %rdi
	call	_ZNSt16_Sp_counted_baseILN9__gnu_cxx12_Lock_policyE2EE24_M_release_last_use_coldEv@PLT
	jmp	.L1216
.L1393:
	movq	%r12, %rdi
	call	_ZNSt16_Sp_counted_baseILN9__gnu_cxx12_Lock_policyE2EE24_M_release_last_use_coldEv@PLT
	jmp	.L1055
.L1395:
	movq	%r12, %rdi
	call	_ZNSt16_Sp_counted_baseILN9__gnu_cxx12_Lock_policyE2EE24_M_release_last_use_coldEv@PLT
	jmp	.L1061
.L1391:
	movq	%r12, %rdi
	call	_ZNSt16_Sp_counted_baseILN9__gnu_cxx12_Lock_policyE2EE24_M_release_last_use_coldEv@PLT
	jmp	.L1049
.L1420:
	movq	(%rdi), %rax
	movq	%rdi, (%rsp)
	movq	$0, 8(%rdi)
	call	*16(%rax)
	movq	(%rsp), %rdi
	movq	(%rdi), %rax
	call	*24(%rax)
	jmp	.L1141
.L1167:
	movq	%rbx, 88(%r13)
	jmp	.L1168
.L1123:
	movdqa	(%rsp), %xmm7
	movups	%xmm7, 88(%rbp)
	jmp	.L1124
.L1161:
	movl	$-1, %eax
	lock xaddl	%eax, (%rcx)
	jmp	.L1162
.L1154:
	movl	$-1, %eax
	lock xaddl	%eax, (%rcx)
	jmp	.L1155
.L1130:
	movdqa	16(%rsp), %xmm3
	movups	%xmm3, 192(%rbx)
	jmp	.L1131
.L1175:
	movdqa	(%rsp), %xmm5
	movups	%xmm5, 192(%r12)
	jmp	.L1176
.L1422:
	movq	(%rbx), %rax
	movq	%rbx, %rdi
	movq	$0, 8(%rbx)
	call	*16(%rax)
	movq	(%rbx), %rax
	movq	%rbx, %rdi
	call	*24(%rax)
	jmp	.L1152
.L1424:
	movq	(%rbx), %rax
	movq	%rbx, %rdi
	movq	$0, 8(%rbx)
	call	*16(%rax)
	movq	(%rbx), %rax
	movq	%rbx, %rdi
	call	*24(%rax)
	jmp	.L1159
.L1421:
	movzbl	104(%rbx), %edx
	movb	%dl, (%rbx)
	movq	%rbx, (%rax)
	jmp	.L1147
.L1143:
	movl	$-1, %eax
	lock xaddl	%eax, (%rcx)
	jmp	.L1144
.L1129:
	movdqa	16(%rsp), %xmm6
	movups	%xmm6, 8(%rax)
	jmp	.L1100
.L1174:
	movdqa	(%rsp), %xmm6
	movups	%xmm6, 8(%rax)
	jmp	.L1169
.L1425:
	movq	%rbx, %rdi
	call	_ZNSt16_Sp_counted_baseILN9__gnu_cxx12_Lock_policyE2EE24_M_release_last_use_coldEv@PLT
	jmp	.L1159
.L1423:
	movq	%rbx, %rdi
	call	_ZNSt16_Sp_counted_baseILN9__gnu_cxx12_Lock_policyE2EE24_M_release_last_use_coldEv@PLT
	jmp	.L1152
.L1250:
	movq	%rax, %r12
	jmp	.L1085
.L1251:
	movq	%rax, %r12
	jmp	.L1183
.L1248:
	movq	%rax, %r12
	jmp	.L1045
.L1254:
	movq	%rax, %r12
	jmp	.L1107
.L1379:
	jmp	.L1380
.L1247:
	movq	%rax, %r12
	jmp	.L1039
.L1381:
	jmp	.L1382
.L1256:
	movq	%rax, %rbx
	jmp	.L1136
.L1252:
	movq	%rax, %r12
	jmp	.L1091
.L1249:
	movq	%rax, %r12
	jmp	.L1074
	.section	.gcc_except_table
.LLSDA9349:
	.byte	0xff
	.byte	0xff
	.byte	0x1
	.uleb128 .LLSDACSE9349-.LLSDACSB9349
.LLSDACSB9349:
	.uleb128 .LEHB43-.LFB9349
	.uleb128 .LEHE43-.LEHB43
	.uleb128 .L1247-.LFB9349
	.uleb128 0
	.uleb128 .LEHB44-.LFB9349
	.uleb128 .LEHE44-.LEHB44
	.uleb128 .L1248-.LFB9349
	.uleb128 0
	.uleb128 .LEHB45-.LFB9349
	.uleb128 .LEHE45-.LEHB45
	.uleb128 .L1249-.LFB9349
	.uleb128 0
	.uleb128 .LEHB46-.LFB9349
	.uleb128 .LEHE46-.LEHB46
	.uleb128 .L1250-.LFB9349
	.uleb128 0
	.uleb128 .LEHB47-.LFB9349
	.uleb128 .LEHE47-.LEHB47
	.uleb128 .L1252-.LFB9349
	.uleb128 0
	.uleb128 .LEHB48-.LFB9349
	.uleb128 .LEHE48-.LEHB48
	.uleb128 .L1251-.LFB9349
	.uleb128 0
	.uleb128 .LEHB49-.LFB9349
	.uleb128 .LEHE49-.LEHB49
	.uleb128 .L1254-.LFB9349
	.uleb128 0
	.uleb128 .LEHB50-.LFB9349
	.uleb128 .LEHE50-.LEHB50
	.uleb128 .L1256-.LFB9349
	.uleb128 0
	.uleb128 .LEHB51-.LFB9349
	.uleb128 .LEHE51-.LEHB51
	.uleb128 .L1381-.LFB9349
	.uleb128 0
	.uleb128 .LEHB52-.LFB9349
	.uleb128 .LEHE52-.LEHB52
	.uleb128 .L1379-.LFB9349
	.uleb128 0
.LLSDACSE9349:
	.text
	.cfi_endproc
	.section	.text.unlikely
	.cfi_startproc
	.cfi_personality 0x9b,DW.ref.__gxx_personality_v0
	.cfi_lsda 0x1b,.LLSDAC9349
	.type	_ZN4asio6detail18completion_handlerINS0_17rewrapped_handlerINS0_7binder1INS0_15wrapped_handlerINS_10io_service6strandEZN7asiopal8Executor5StartERKNSt6chrono10time_pointINS9_3_V212steady_clockENS9_8durationIlSt5ratioILl1ELl1000000000EEEEEERKSt8functionIFvvEEEUlRKSt10error_codeE_NS0_26is_continuation_if_runningEEESP_EESS_EEE11do_completeEPNS0_15task_io_serviceEPNS0_25task_io_service_operationESR_m.cold, @function
_ZN4asio6detail18completion_handlerINS0_17rewrapped_handlerINS0_7binder1INS0_15wrapped_handlerINS_10io_service6strandEZN7asiopal8Executor5StartERKNSt6chrono10time_pointINS9_3_V212steady_clockENS9_8durationIlSt5ratioILl1ELl1000000000EEEEEERKSt8functionIFvvEEEUlRKSt10error_codeE_NS0_26is_continuation_if_runningEEESP_EESS_EEE11do_completeEPNS0_15task_io_serviceEPNS0_25task_io_service_operationESR_m.cold:
.LFSB9349:
.L1085:
	.cfi_def_cfa_offset 704
	.cfi_offset 3, -56
	.cfi_offset 6, -48
	.cfi_offset 12, -40
	.cfi_offset 13, -32
	.cfi_offset 14, -24
	.cfi_offset 15, -16
	movq	256(%rsp), %rax
	testq	%rax, %rax
	je	.L1086
	movl	$3, %edx
	leaq	240(%rsp), %rsi
	leaq	240(%rsp), %rdi
	call	*%rax
.L1086:
	movq	232(%rsp), %rdi
	testq	%rdi, %rdi
	je	.L1088
	call	_ZNSt16_Sp_counted_baseILN9__gnu_cxx12_Lock_policyE2EE10_M_releaseEv@PLT
	jmp	.L1088
.L1253:
.L1380:
	sfence
	movq	%rax, %r12
	leaq	384(%rsp), %r14
.L1183:
	movq	%r14, %rdi
	call	_ZZN7asiopal8Executor5StartERKNSt6chrono10time_pointINS1_3_V212steady_clockENS1_8durationIlSt5ratioILl1ELl1000000000EEEEEERKSt8functionIFvvEEENUlRKSt10error_codeE_D1Ev
.L1094:
	leaq	224(%rsp), %rdi
	call	_ZZN7asiopal8Executor5StartERKNSt6chrono10time_pointINS1_3_V212steady_clockENS1_8durationIlSt5ratioILl1ELl1000000000EEEEEERKSt8functionIFvvEEENUlRKSt10error_codeE_D1Ev
.L1088:
	leaq	160(%rsp), %rdi
	call	_ZZN7asiopal8Executor5StartERKNSt6chrono10time_pointINS1_3_V212steady_clockENS1_8durationIlSt5ratioILl1ELl1000000000EEEEEERKSt8functionIFvvEEENUlRKSt10error_codeE_D1Ev
.L1082:
	sfence
	leaq	560(%rsp), %rdi
	xorl	%ebx, %ebx
	call	_ZZN7asiopal8Executor5StartERKNSt6chrono10time_pointINS1_3_V212steady_clockENS1_8durationIlSt5ratioILl1ELl1000000000EEEEEERKSt8functionIFvvEEENUlRKSt10error_codeE_D1Ev
	movq	%rbp, %rdi
	call	_ZZN7asiopal8Executor5StartERKNSt6chrono10time_pointINS1_3_V212steady_clockENS1_8durationIlSt5ratioILl1ELl1000000000EEEEEERKSt8functionIFvvEEENUlRKSt10error_codeE_D1Ev
.L1042:
	leaq	32(%rsp), %rdi
	movq	%rbx, 40(%rsp)
	movq	%rbx, 48(%rsp)
	call	_ZN4asio6detail18completion_handlerINS0_17rewrapped_handlerINS0_7binder1INS0_15wrapped_handlerINS_10io_service6strandEZN7asiopal8Executor5StartERKNSt6chrono10time_pointINS9_3_V212steady_clockENS9_8durationIlSt5ratioILl1ELl1000000000EEEEEERKSt8functionIFvvEEEUlRKSt10error_codeE_NS0_26is_continuation_if_runningEEESP_EESS_EEE3ptr5resetEv
	movq	%r12, %rdi
.LEHB53:
	call	_Unwind_Resume@PLT
.LEHE53:
.L1107:
	movq	56(%rbx), %rax
	testq	%rax, %rax
	je	.L1108
	movl	$3, %edx
	movq	%r13, %rsi
	movq	%r13, %rdi
	call	*%rax
.L1108:
	movq	32(%rbx), %rdi
	testq	%rdi, %rdi
	je	.L1110
	call	_ZNSt16_Sp_counted_baseILN9__gnu_cxx12_Lock_policyE2EE10_M_releaseEv@PLT
.L1110:
	xorl	%eax, %eax
	leaq	64(%rsp), %rdi
	movq	%rbx, 72(%rsp)
	movq	%rax, 80(%rsp)
	call	_ZN4asio6detail18completion_handlerINS0_7binder1IZN7asiopal8Executor5StartERKNSt6chrono10time_pointINS5_3_V212steady_clockENS5_8durationIlSt5ratioILl1ELl1000000000EEEEEERKSt8functionIFvvEEEUlRKSt10error_codeE_SL_EEE3ptr5resetEv
	jmp	.L1183
.L1045:
	movq	592(%rsp), %rax
	testq	%rax, %rax
	je	.L1046
	movl	$3, %edx
	movq	%rbp, %rsi
	movq	%rbp, %rdi
	call	*%rax
.L1046:
	movq	568(%rsp), %rdi
	testq	%rdi, %rdi
	je	.L1047
	call	_ZNSt16_Sp_counted_baseILN9__gnu_cxx12_Lock_policyE2EE10_M_releaseEv@PLT
.L1047:
	leaq	480(%rsp), %rdi
	call	_ZZN7asiopal8Executor5StartERKNSt6chrono10time_pointINS1_3_V212steady_clockENS1_8durationIlSt5ratioILl1ELl1000000000EEEEEERKSt8functionIFvvEEENUlRKSt10error_codeE_D1Ev
	jmp	.L1042
.L1039:
	movq	512(%rsp), %rax
	testq	%rax, %rax
	je	.L1040
	movl	$3, %edx
	movq	%rbp, %rsi
	movq	%rbp, %rdi
	call	*%rax
.L1040:
	movq	488(%rsp), %rdi
	testq	%rdi, %rdi
	je	.L1042
	call	_ZNSt16_Sp_counted_baseILN9__gnu_cxx12_Lock_policyE2EE10_M_releaseEv@PLT
	jmp	.L1042
.L1384:
.LEHB54:
	call	_ZSt25__throw_bad_function_callv@PLT
.LEHE54:
.L1255:
.L1382:
	sfence
	movq	%r15, %rdi
	movq	%rax, %rbx
	call	_ZZN7asiopal8Executor5StartERKNSt6chrono10time_pointINS1_3_V212steady_clockENS1_8durationIlSt5ratioILl1ELl1000000000EEEEEERKSt8functionIFvvEEENUlRKSt10error_codeE_D1Ev
	pxor	%xmm6, %xmm6
	movaps	%xmm6, (%rsp)
.L1139:
	movdqa	(%rsp), %xmm7
	movq	%r13, %xmm6
	movq	%r12, %xmm0
	leaq	128(%rsp), %rdi
	punpcklqdq	%xmm6, %xmm0
	movq	%rbx, %r12
	xorl	%ebx, %ebx
	movups	%xmm7, 136(%rsp)
	movaps	%xmm0, 16(%rsp)
	call	_ZN4asio6detail18completion_handlerINS0_7binder1IZN7asiopal8Executor5StartERKNSt6chrono10time_pointINS5_3_V212steady_clockENS5_8durationIlSt5ratioILl1ELl1000000000EEEEEERKSt8functionIFvvEEEUlRKSt10error_codeE_SL_EEE3ptr5resetEv
	movdqa	16(%rsp), %xmm0
	movq	%r15, %rdi
	movaps	%xmm0, 304(%rsp)
	call	_ZN4asio6detail14strand_service16on_dispatch_exitD1Ev@PLT
	data16	leaq	_ZN4asio6detail15keyword_tss_ptrINS0_10call_stackINS0_14strand_service11strand_implEhE7contextEE6value_E@tlsgd(%rip), %rdi
	.value	0x6666
	rex64
	call	__tls_get_addr@PLT
	movq	112(%rsp), %rdx
	movq	%rdx, (%rax)
	jmp	.L1110
.L1383:
.LEHB55:
	call	_ZSt25__throw_bad_function_callv@PLT
.LEHE55:
.L1136:
	movq	336(%rsp), %rax
	testq	%rax, %rax
	je	.L1137
	movl	$3, %edx
	movq	%r15, %rsi
	movq	%r15, %rdi
	call	*%rax
.L1137:
	movq	312(%rsp), %rdi
	testq	%rdi, %rdi
	je	.L1138
	call	_ZNSt16_Sp_counted_baseILN9__gnu_cxx12_Lock_policyE2EE10_M_releaseEv@PLT
.L1138:
	leaq	304(%rsp), %r15
	jmp	.L1139
.L1091:
	movq	416(%rsp), %rax
	testq	%rax, %rax
	je	.L1092
	movl	$3, %edx
	leaq	400(%rsp), %rsi
	leaq	400(%rsp), %rdi
	call	*%rax
.L1092:
	movq	392(%rsp), %rdi
	testq	%rdi, %rdi
	je	.L1094
	call	_ZNSt16_Sp_counted_baseILN9__gnu_cxx12_Lock_policyE2EE10_M_releaseEv@PLT
	jmp	.L1094
.L1074:
	movq	192(%rsp), %rax
	testq	%rax, %rax
	je	.L1075
	movl	$3, %edx
	leaq	176(%rsp), %rsi
	leaq	176(%rsp), %rdi
	call	*%rax
.L1075:
	movq	168(%rsp), %rdi
	testq	%rdi, %rdi
	je	.L1082
	call	_ZNSt16_Sp_counted_baseILN9__gnu_cxx12_Lock_policyE2EE10_M_releaseEv@PLT
	jmp	.L1082
	.cfi_endproc
.LFE9349:
	.section	.gcc_except_table
.LLSDAC9349:
	.byte	0xff
	.byte	0xff
	.byte	0x1
	.uleb128 .LLSDACSEC9349-.LLSDACSBC9349
.LLSDACSBC9349:
	.uleb128 .LEHB53-.LCOLDB34
	.uleb128 .LEHE53-.LEHB53
	.uleb128 0
	.uleb128 0
	.uleb128 .LEHB54-.LCOLDB34
	.uleb128 .LEHE54-.LEHB54
	.uleb128 .L1255-.LCOLDB34
	.uleb128 0
	.uleb128 .LEHB55-.LCOLDB34
	.uleb128 .LEHE55-.LEHB55
	.uleb128 .L1253-.LCOLDB34
	.uleb128 0
.LLSDACSEC9349:
	.section	.text.unlikely
	.text
	.size	_ZN4asio6detail18completion_handlerINS0_17rewrapped_handlerINS0_7binder1INS0_15wrapped_handlerINS_10io_service6strandEZN7asiopal8Executor5StartERKNSt6chrono10time_pointINS9_3_V212steady_clockENS9_8durationIlSt5ratioILl1ELl1000000000EEEEEERKSt8functionIFvvEEEUlRKSt10error_codeE_NS0_26is_continuation_if_runningEEESP_EESS_EEE11do_completeEPNS0_15task_io_serviceEPNS0_25task_io_service_operationESR_m, .-_ZN4asio6detail18completion_handlerINS0_17rewrapped_handlerINS0_7binder1INS0_15wrapped_handlerINS_10io_service6strandEZN7asiopal8Executor5StartERKNSt6chrono10time_pointINS9_3_V212steady_clockENS9_8durationIlSt5ratioILl1ELl1000000000EEEEEERKSt8functionIFvvEEEUlRKSt10error_codeE_NS0_26is_continuation_if_runningEEESP_EESS_EEE11do_completeEPNS0_15task_io_serviceEPNS0_25task_io_service_operationESR_m
	.section	.text.unlikely
	.size	_ZN4asio6detail18completion_handlerINS0_17rewrapped_handlerINS0_7binder1INS0_15wrapped_handlerINS_10io_service6strandEZN7asiopal8Executor5StartERKNSt6chrono10time_pointINS9_3_V212steady_clockENS9_8durationIlSt5ratioILl1ELl1000000000EEEEEERKSt8functionIFvvEEEUlRKSt10error_codeE_NS0_26is_continuation_if_runningEEESP_EESS_EEE11do_completeEPNS0_15task_io_serviceEPNS0_25task_io_service_operationESR_m.cold, .-_ZN4asio6detail18completion_handlerINS0_17rewrapped_handlerINS0_7binder1INS0_15wrapped_handlerINS_10io_service6strandEZN7asiopal8Executor5StartERKNSt6chrono10time_pointINS9_3_V212steady_clockENS9_8durationIlSt5ratioILl1ELl1000000000EEEEEERKSt8functionIFvvEEEUlRKSt10error_codeE_NS0_26is_continuation_if_runningEEESP_EESS_EEE11do_completeEPNS0_15task_io_serviceEPNS0_25task_io_service_operationESR_m.cold
.LCOLDE34:
	.text
.LHOTE34:
	.section	.text.unlikely
.LCOLDB35:
	.text
.LHOTB35:
	.p2align 4
	.type	_ZN4asio6detail12wait_handlerINS0_15wrapped_handlerINS_10io_service6strandEZN7asiopal8Executor5StartERKNSt6chrono10time_pointINS7_3_V212steady_clockENS7_8durationIlSt5ratioILl1ELl1000000000EEEEEERKSt8functionIFvvEEEUlRKSt10error_codeE_NS0_26is_continuation_if_runningEEEE11do_completeEPNS0_15task_io_serviceEPNS0_25task_io_service_operationESP_m, @function
_ZN4asio6detail12wait_handlerINS0_15wrapped_handlerINS_10io_service6strandEZN7asiopal8Executor5StartERKNSt6chrono10time_pointINS7_3_V212steady_clockENS7_8durationIlSt5ratioILl1ELl1000000000EEEEEERKSt8functionIFvvEEEUlRKSt10error_codeE_NS0_26is_continuation_if_runningEEEE11do_completeEPNS0_15task_io_serviceEPNS0_25task_io_service_operationESP_m:
.LFB8981:
	.cfi_startproc
	.cfi_personality 0x9b,DW.ref.__gxx_personality_v0
	.cfi_lsda 0x1b,.LLSDA8981
	pushq	%r14
	.cfi_def_cfa_offset 16
	.cfi_offset 14, -16
	leaq	40(%rsi), %rax
	pushq	%r13
	.cfi_def_cfa_offset 24
	.cfi_offset 13, -24
	pushq	%r12
	.cfi_def_cfa_offset 32
	.cfi_offset 12, -32
	movq	%rdi, %r12
	pushq	%rbp
	.cfi_def_cfa_offset 40
	.cfi_offset 6, -40
	pushq	%rbx
	.cfi_def_cfa_offset 48
	.cfi_offset 3, -48
	movq	%rsi, %rbx
	subq	$912, %rsp
	.cfi_def_cfa_offset 960
	movdqu	40(%rsi), %xmm0
	movq	%rax, 32(%rsp)
	movq	88(%rsi), %rax
	movaps	%xmm0, 480(%rsp)
	movdqu	56(%rsi), %xmm0
	movq	$0, 528(%rsp)
	movaps	%xmm0, 496(%rsp)
	pxor	%xmm0, %xmm0
	movups	%xmm0, 56(%rsi)
	pxor	%xmm0, %xmm0
	movq	$0, 536(%rsp)
	movaps	%xmm0, 512(%rsp)
	testq	%rax, %rax
	je	.L1430
	leaq	72(%rsi), %rbp
	movl	$2, %edx
	leaq	512(%rsp), %rdi
	movq	%rbp, %rsi
.LEHB56:
	call	*%rax
.LEHE56:
	movdqu	88(%rbx), %xmm0
	movq	88(%rbx), %rax
	leaq	480(%rsp), %rdx
	movq	%rdx, 32(%rsp)
	movaps	%xmm0, 528(%rsp)
	movdqu	104(%rbx), %xmm0
	movaps	%xmm0, 544(%rsp)
	movdqu	24(%rbx), %xmm0
	movaps	%xmm0, 560(%rsp)
	testq	%rax, %rax
	je	.L1432
	movl	$3, %edx
	movq	%rbp, %rsi
	movq	%rbp, %rdi
	call	*%rax
.L1432:
	movq	64(%rbx), %rbp
	testq	%rbp, %rbp
	je	.L1437
	movq	8(%rbp), %rdx
	leaq	8(%rbp), %rcx
	movabsq	$4294967297, %rax
	cmpq	%rax, %rdx
	je	.L1971
	movq	__libc_single_threaded@GOTPCREL(%rip), %rax
	cmpb	$0, (%rax)
	je	.L1440
	movl	8(%rbp), %eax
	leal	-1(%rax), %edx
	movl	%edx, 8(%rbp)
.L1441:
	cmpl	$1, %eax
	je	.L1972
.L1437:
	data16	leaq	_ZN4asio6detail15keyword_tss_ptrINS0_10call_stackINS0_15task_io_serviceENS0_27task_io_service_thread_infoEE7contextEE6value_E@tlsgd(%rip), %rdi
	.value	0x6666
	rex64
	call	__tls_get_addr@PLT
	movq	(%rax), %rax
	testq	%rax, %rax
	je	.L1442
	movq	8(%rax), %rax
	testq	%rax, %rax
	je	.L1442
	cmpq	$0, (%rax)
	je	.L1973
.L1442:
	movq	%rbx, %rdi
	call	_ZdlPv@PLT
.L1443:
	testq	%r12, %r12
	je	.L1444
	movdqa	496(%rsp), %xmm0
	movhlps	%xmm0, %xmm5
	movaps	%xmm0, 576(%rsp)
	movq	%xmm5, %rax
	testq	%rax, %rax
	je	.L1445
	movq	__libc_single_threaded@GOTPCREL(%rip), %rdx
	cmpb	$0, (%rdx)
	je	.L1446
	addl	$1, 8(%rax)
.L1445:
	movq	528(%rsp), %rax
	pxor	%xmm0, %xmm0
	movq	$0, 608(%rsp)
	movq	$0, 616(%rsp)
	movaps	%xmm0, 592(%rsp)
	testq	%rax, %rax
	je	.L1447
	leaq	512(%rsp), %rsi
	movl	$2, %edx
	leaq	592(%rsp), %rdi
.LEHB57:
	call	*%rax
.LEHE57:
	movdqa	528(%rsp), %xmm0
	movq	528(%rsp), %rax
	movaps	%xmm0, 608(%rsp)
.L1447:
	movdqa	544(%rsp), %xmm0
	movhlps	%xmm0, %xmm6
	movaps	%xmm0, 624(%rsp)
	movq	%xmm6, %rdx
	testq	%rdx, %rdx
	je	.L1449
	movq	__libc_single_threaded@GOTPCREL(%rip), %rcx
	cmpb	$0, (%rcx)
	je	.L1454
	addl	$1, 8(%rdx)
.L1449:
	movdqa	480(%rsp), %xmm0
	movq	$0, 688(%rsp)
	movq	$0, 696(%rsp)
	movaps	%xmm0, 640(%rsp)
	movdqa	496(%rsp), %xmm0
	movaps	%xmm0, 656(%rsp)
	pxor	%xmm0, %xmm0
	movaps	%xmm0, 496(%rsp)
	pxor	%xmm0, %xmm0
	movaps	%xmm0, 672(%rsp)
	testq	%rax, %rax
	je	.L1457
	leaq	512(%rsp), %rsi
	movl	$2, %edx
	leaq	672(%rsp), %rdi
.LEHB58:
	call	*%rax
.LEHE58:
	movdqa	528(%rsp), %xmm0
	movq	528(%rsp), %rax
	movaps	%xmm0, 688(%rsp)
.L1457:
	movdqa	544(%rsp), %xmm0
	movdqa	560(%rsp), %xmm1
	movq	$0, 768(%rsp)
	movq	608(%rsp), %rcx
	movq	$0, 776(%rsp)
	movaps	%xmm0, 704(%rsp)
	pxor	%xmm0, %xmm0
	movaps	%xmm1, 720(%rsp)
	movdqa	576(%rsp), %xmm1
	movaps	%xmm0, 544(%rsp)
	movaps	%xmm0, 576(%rsp)
	pxor	%xmm0, %xmm0
	movaps	%xmm1, 736(%rsp)
	movaps	%xmm0, 752(%rsp)
	testq	%rcx, %rcx
	je	.L1460
	leaq	592(%rsp), %rsi
	movl	$2, %edx
	leaq	752(%rsp), %rdi
.LEHB59:
	call	*%rcx
.LEHE59:
	movdqa	608(%rsp), %xmm0
	movq	688(%rsp), %rax
	movaps	%xmm0, 768(%rsp)
.L1460:
	movdqa	624(%rsp), %xmm0
	movdqa	640(%rsp), %xmm1
	movq	$0, 848(%rsp)
	movq	$0, 856(%rsp)
	movaps	%xmm0, 784(%rsp)
	pxor	%xmm0, %xmm0
	movaps	%xmm1, 800(%rsp)
	movdqa	656(%rsp), %xmm1
	movaps	%xmm0, 624(%rsp)
	movaps	%xmm0, 656(%rsp)
	pxor	%xmm0, %xmm0
	movaps	%xmm1, 816(%rsp)
	movaps	%xmm0, 832(%rsp)
	testq	%rax, %rax
	je	.L1465
	leaq	672(%rsp), %rsi
	movl	$2, %edx
	leaq	832(%rsp), %rdi
.LEHB60:
	call	*%rax
.LEHE60:
	movdqa	688(%rsp), %xmm0
	movaps	%xmm0, 848(%rsp)
.L1465:
	movdqa	704(%rsp), %xmm0
	movaps	%xmm0, 864(%rsp)
	pxor	%xmm0, %xmm0
	movaps	%xmm0, 704(%rsp)
	movdqa	720(%rsp), %xmm0
	movaps	%xmm0, 880(%rsp)
	data16	leaq	_ZN4asio6detail15keyword_tss_ptrINS0_10call_stackINS0_14strand_service11strand_implEhE7contextEE6value_E@tlsgd(%rip), %rdi
	.value	0x6666
	rex64
	call	__tls_get_addr@PLT
	movq	488(%rsp), %rdx
	movq	(%rax), %rax
	testq	%rax, %rax
	jne	.L1477
	jmp	.L1471
	.p2align 4
	.p2align 4,,10
	.p2align 3
.L1475:
	movq	16(%rax), %rax
	testq	%rax, %rax
	je	.L1471
.L1477:
	cmpq	(%rax), %rdx
	jne	.L1475
	cmpq	$0, 8(%rax)
	je	.L1471
	lfence
	movdqa	816(%rsp), %xmm0
	movhlps	%xmm0, %xmm7
	movaps	%xmm0, 160(%rsp)
	movq	%xmm7, %rax
	testq	%rax, %rax
	je	.L1478
	movq	__libc_single_threaded@GOTPCREL(%rip), %rdx
	cmpb	$0, (%rdx)
	je	.L1479
	addl	$1, 8(%rax)
.L1478:
	movq	848(%rsp), %rax
	pxor	%xmm0, %xmm0
	movq	$0, 192(%rsp)
	movq	$0, 200(%rsp)
	movaps	%xmm0, 176(%rsp)
	testq	%rax, %rax
	je	.L1480
	leaq	176(%rsp), %rbp
	leaq	832(%rsp), %rsi
	movl	$2, %edx
	movq	%rbp, %rdi
.LEHB61:
	call	*%rax
.LEHE61:
	movdqa	848(%rsp), %xmm0
	movq	848(%rsp), %rax
	movaps	%xmm0, 192(%rsp)
.L1480:
	movdqa	864(%rsp), %xmm0
	movhlps	%xmm0, %xmm3
	movaps	%xmm0, 208(%rsp)
	movq	%xmm3, %rdx
	testq	%rdx, %rdx
	je	.L1482
	movq	__libc_single_threaded@GOTPCREL(%rip), %rcx
	cmpb	$0, (%rcx)
	je	.L1487
	addl	$1, 8(%rdx)
.L1482:
	movdqa	160(%rsp), %xmm1
	pxor	%xmm0, %xmm0
	movq	$0, 256(%rsp)
	movaps	%xmm0, 160(%rsp)
	pxor	%xmm0, %xmm0
	movq	$0, 264(%rsp)
	movaps	%xmm1, 224(%rsp)
	movaps	%xmm0, 240(%rsp)
	testq	%rax, %rax
	je	.L1490
	leaq	240(%rsp), %rbp
	leaq	176(%rsp), %rsi
	movl	$2, %edx
	movq	%rbp, %rdi
.LEHB62:
	call	*%rax
.LEHE62:
	movdqa	192(%rsp), %xmm0
	movq	192(%rsp), %rax
	movdqa	224(%rsp), %xmm1
	movaps	%xmm0, 256(%rsp)
.L1490:
	movdqa	208(%rsp), %xmm0
	pxor	%xmm2, %xmm2
	movdqa	880(%rsp), %xmm3
	movaps	%xmm1, 384(%rsp)
	pxor	%xmm1, %xmm1
	movaps	%xmm2, 208(%rsp)
	movq	$0, 416(%rsp)
	movq	$0, 424(%rsp)
	movaps	%xmm0, 272(%rsp)
	movaps	%xmm3, 288(%rsp)
	movaps	%xmm2, 224(%rsp)
	movaps	%xmm1, 400(%rsp)
	testq	%rax, %rax
	je	.L1493
	leaq	400(%rsp), %rbp
	leaq	240(%rsp), %rsi
	movl	$2, %edx
	movq	%rbp, %rdi
.LEHB63:
	call	*%rax
.LEHE63:
	movdqa	256(%rsp), %xmm0
	movaps	%xmm0, 416(%rsp)
	movdqa	272(%rsp), %xmm0
.L1493:
	movaps	%xmm0, 432(%rsp)
	pxor	%xmm0, %xmm0
	movaps	%xmm0, 272(%rsp)
	movdqa	288(%rsp), %xmm0
	movaps	%xmm0, 448(%rsp)
	data16	leaq	_ZN4asio6detail15keyword_tss_ptrINS0_10call_stackINS0_14strand_service11strand_implEhE7contextEE6value_E@tlsgd(%rip), %rdi
	.value	0x6666
	rex64
	call	__tls_get_addr@PLT
	movq	808(%rsp), %rdx
	movq	(%rax), %rax
	testq	%rax, %rax
	jne	.L1506
	jmp	.L1499
	.p2align 4
	.p2align 4,,10
	.p2align 3
.L1504:
	movq	16(%rax), %rax
	testq	%rax, %rax
	je	.L1499
.L1506:
	cmpq	(%rax), %rdx
	jne	.L1504
	cmpq	$0, 8(%rax)
	je	.L1499
	lfence
	movl	448(%rsp), %esi
	testl	%esi, %esi
	je	.L1974
.L1507:
	sfence
.L1509:
	movq	440(%rsp), %rbx
	testq	%rbx, %rbx
	je	.L1590
	movq	8(%rbx), %rdx
	leaq	8(%rbx), %rcx
	movabsq	$4294967297, %rax
	cmpq	%rax, %rdx
	je	.L1975
	movq	__libc_single_threaded@GOTPCREL(%rip), %rax
	cmpb	$0, (%rax)
	je	.L1594
	movl	8(%rbx), %eax
	leal	-1(%rax), %edx
	movl	%edx, 8(%rbx)
.L1595:
	cmpl	$1, %eax
	je	.L1976
.L1590:
	movq	416(%rsp), %rax
	testq	%rax, %rax
	je	.L1597
	leaq	400(%rsp), %rdi
	movl	$3, %edx
	movq	%rdi, %rsi
	call	*%rax
.L1597:
	movq	392(%rsp), %rbx
	testq	%rbx, %rbx
	je	.L1599
	movq	8(%rbx), %rdx
	leaq	8(%rbx), %rcx
	movabsq	$4294967297, %rax
	cmpq	%rax, %rdx
	je	.L1977
	movq	__libc_single_threaded@GOTPCREL(%rip), %rax
	cmpb	$0, (%rax)
	je	.L1601
	movl	8(%rbx), %eax
	leal	-1(%rax), %edx
	movl	%edx, 8(%rbx)
.L1602:
	cmpl	$1, %eax
	je	.L1978
.L1599:
	movq	280(%rsp), %rbx
	testq	%rbx, %rbx
	je	.L1605
	movq	8(%rbx), %rdx
	leaq	8(%rbx), %rcx
	movabsq	$4294967297, %rax
	cmpq	%rax, %rdx
	je	.L1979
	movq	__libc_single_threaded@GOTPCREL(%rip), %rax
	cmpb	$0, (%rax)
	je	.L1607
	movl	8(%rbx), %eax
	leal	-1(%rax), %edx
	movl	%edx, 8(%rbx)
.L1608:
	cmpl	$1, %eax
	je	.L1980
.L1605:
	movq	256(%rsp), %rax
	testq	%rax, %rax
	je	.L1610
	leaq	240(%rsp), %rdi
	movl	$3, %edx
	movq	%rdi, %rsi
	call	*%rax
.L1610:
	movq	232(%rsp), %rbx
	testq	%rbx, %rbx
	je	.L1612
	movq	8(%rbx), %rdx
	leaq	8(%rbx), %rcx
	movabsq	$4294967297, %rax
	cmpq	%rax, %rdx
	je	.L1981
	movq	__libc_single_threaded@GOTPCREL(%rip), %rax
	cmpb	$0, (%rax)
	je	.L1614
	movl	8(%rbx), %eax
	leal	-1(%rax), %edx
	movl	%edx, 8(%rbx)
.L1615:
	cmpl	$1, %eax
	je	.L1982
.L1612:
	movq	216(%rsp), %rbx
	testq	%rbx, %rbx
	je	.L1618
	movq	8(%rbx), %rdx
	leaq	8(%rbx), %rcx
	movabsq	$4294967297, %rax
	cmpq	%rax, %rdx
	je	.L1983
	movq	__libc_single_threaded@GOTPCREL(%rip), %rax
	cmpb	$0, (%rax)
	je	.L1620
	movl	8(%rbx), %eax
	leal	-1(%rax), %edx
	movl	%edx, 8(%rbx)
.L1621:
	cmpl	$1, %eax
	je	.L1984
.L1618:
	movq	192(%rsp), %rax
	testq	%rax, %rax
	je	.L1623
	leaq	176(%rsp), %rdi
	movl	$3, %edx
	movq	%rdi, %rsi
	call	*%rax
.L1623:
	movq	168(%rsp), %rbx
	testq	%rbx, %rbx
	je	.L1625
	movq	8(%rbx), %rdx
	leaq	8(%rbx), %rcx
	movabsq	$4294967297, %rax
	cmpq	%rax, %rdx
	je	.L1985
	movq	__libc_single_threaded@GOTPCREL(%rip), %rax
	cmpb	$0, (%rax)
	je	.L1627
	movl	8(%rbx), %eax
	leal	-1(%rax), %edx
	movl	%edx, 8(%rbx)
.L1628:
	cmpl	$1, %eax
	je	.L1986
.L1625:
	sfence
	jmp	.L1630
	.p2align 4,,10
	.p2align 3
.L1471:
	leaq	736(%rsp), %r13
	movq	480(%rsp), %rbp
	movq	%r13, 304(%rsp)
	data16	leaq	_ZN4asio6detail15keyword_tss_ptrINS0_10call_stackINS0_15task_io_serviceENS0_27task_io_service_thread_infoEE7contextEE6value_E@tlsgd(%rip), %rdi
	.value	0x6666
	rex64
	call	__tls_get_addr@PLT
	movq	(%rax), %rax
	testq	%rax, %rax
	je	.L1631
	movq	8(%rax), %rax
	testq	%rax, %rax
	je	.L1631
	movq	(%rax), %rbx
	testq	%rbx, %rbx
	je	.L1631
	movq	$0, (%rax)
	movzbl	(%rbx), %eax
	cmpb	$-73, %al
	ja	.L1987
	movq	%rbx, %rdi
	call	_ZdlPv@PLT
.L1631:
	movl	$185, %edi
.LEHB64:
	call	_Znwm@PLT
.LEHE64:
	movb	$-72, 184(%rax)
	movq	%rax, %rbx
.L1633:
	leaq	_ZN4asio6detail18completion_handlerINS0_17rewrapped_handlerINS0_7binder1INS0_15wrapped_handlerINS_10io_service6strandEZN7asiopal8Executor5StartERKNSt6chrono10time_pointINS9_3_V212steady_clockENS9_8durationIlSt5ratioILl1ELl1000000000EEEEEERKSt8functionIFvvEEEUlRKSt10error_codeE_NS0_26is_continuation_if_runningEEESP_EESS_EEE11do_completeEPNS0_15task_io_serviceEPNS0_25task_io_service_operationESR_m(%rip), %rax
	movq	$0, (%rbx)
	movq	%rax, 8(%rbx)
	movdqa	736(%rsp), %xmm0
	movl	$0, 16(%rbx)
	movups	%xmm0, 24(%rbx)
	pxor	%xmm0, %xmm0
	movq	768(%rsp), %rax
	movaps	%xmm0, 736(%rsp)
	pxor	%xmm0, %xmm0
	movq	$0, 56(%rbx)
	movq	$0, 64(%rbx)
	movups	%xmm0, 40(%rbx)
	testq	%rax, %rax
	je	.L1634
	leaq	40(%rbx), %r12
	leaq	752(%rsp), %rsi
	movl	$2, %edx
	movq	%r12, %rdi
.LEHB65:
	call	*%rax
.LEHE65:
	movdqa	768(%rsp), %xmm0
	movups	%xmm0, 56(%rbx)
.L1634:
	movdqa	784(%rsp), %xmm0
	movq	$0, 136(%rbx)
	movq	$0, 144(%rbx)
	movups	%xmm0, 72(%rbx)
	pxor	%xmm0, %xmm0
	movdqa	800(%rsp), %xmm1
	movaps	%xmm0, 784(%rsp)
	movups	%xmm1, 88(%rbx)
	movdqa	816(%rsp), %xmm1
	movaps	%xmm0, 816(%rsp)
	pxor	%xmm0, %xmm0
	movups	%xmm1, 104(%rbx)
	movq	848(%rsp), %rax
	movups	%xmm0, 120(%rbx)
	testq	%rax, %rax
	je	.L1636
	leaq	120(%rbx), %r12
	leaq	832(%rsp), %rsi
	movl	$2, %edx
	movq	%r12, %rdi
.LEHB66:
	call	*%rax
.LEHE66:
	movdqa	848(%rsp), %xmm0
	movups	%xmm0, 136(%rbx)
.L1636:
	movdqa	864(%rsp), %xmm0
	movq	%rbx, %xmm4
	punpcklqdq	%xmm4, %xmm4
	movups	%xmm0, 152(%rbx)
	pxor	%xmm0, %xmm0
	movaps	%xmm0, 864(%rsp)
	movdqa	880(%rsp), %xmm0
	movaps	%xmm4, (%rsp)
	movups	%xmm0, 168(%rbx)
	data16	leaq	_ZN4asio6detail15keyword_tss_ptrINS0_10call_stackINS0_15task_io_serviceENS0_27task_io_service_thread_infoEE7contextEE6value_E@tlsgd(%rip), %rdi
	.value	0x6666
	rex64
	call	__tls_get_addr@PLT
	movq	488(%rsp), %rdi
	movq	(%rax), %rax
	testq	%rax, %rax
	je	.L1967
	movq	40(%rbp), %rdx
	jmp	.L1649
	.p2align 4
	.p2align 4,,10
	.p2align 3
.L1646:
	movq	16(%rax), %rax
	testq	%rax, %rax
	je	.L1967
.L1649:
	cmpq	(%rax), %rdx
	jne	.L1646
	movq	8(%rax), %r12
	addq	$24, %rdi
	call	pthread_mutex_lock@PLT
	testq	%r12, %r12
	je	.L1648
	movq	488(%rsp), %rdi
	cmpb	$0, 64(%rdi)
	je	.L1988
.L1651:
	movq	80(%rdi), %rax
	movq	$0, (%rbx)
	testq	%rax, %rax
	je	.L1654
	movq	%rbx, (%rax)
	movq	%rbx, 80(%rdi)
.L1655:
	addq	$24, %rdi
	call	pthread_mutex_unlock@PLT
.L1630:
	movq	872(%rsp), %rbx
	testq	%rbx, %rbx
	je	.L1685
	movq	8(%rbx), %rdx
	leaq	8(%rbx), %rcx
	movabsq	$4294967297, %rax
	cmpq	%rax, %rdx
	je	.L1989
	movq	__libc_single_threaded@GOTPCREL(%rip), %rax
	cmpb	$0, (%rax)
	je	.L1689
	movl	8(%rbx), %eax
	leal	-1(%rax), %edx
	movl	%edx, 8(%rbx)
.L1690:
	cmpl	$1, %eax
	je	.L1990
.L1685:
	movq	848(%rsp), %rax
	testq	%rax, %rax
	je	.L1692
	leaq	832(%rsp), %rdi
	movl	$3, %edx
	movq	%rdi, %rsi
	call	*%rax
.L1692:
	movq	824(%rsp), %rbx
	testq	%rbx, %rbx
	je	.L1694
	movq	8(%rbx), %rdx
	leaq	8(%rbx), %rcx
	movabsq	$4294967297, %rax
	cmpq	%rax, %rdx
	je	.L1991
	movq	__libc_single_threaded@GOTPCREL(%rip), %rax
	cmpb	$0, (%rax)
	je	.L1696
	movl	8(%rbx), %eax
	leal	-1(%rax), %edx
	movl	%edx, 8(%rbx)
.L1697:
	cmpl	$1, %eax
	je	.L1992
.L1694:
	movq	792(%rsp), %rbx
	testq	%rbx, %rbx
	je	.L1700
	movq	8(%rbx), %rdx
	leaq	8(%rbx), %rcx
	movabsq	$4294967297, %rax
	cmpq	%rax, %rdx
	je	.L1993
	movq	__libc_single_threaded@GOTPCREL(%rip), %rax
	cmpb	$0, (%rax)
	je	.L1702
	movl	8(%rbx), %eax
	leal	-1(%rax), %edx
	movl	%edx, 8(%rbx)
.L1703:
	cmpl	$1, %eax
	je	.L1994
.L1700:
	movq	768(%rsp), %rax
	testq	%rax, %rax
	je	.L1705
	leaq	752(%rsp), %rdi
	movl	$3, %edx
	movq	%rdi, %rsi
	call	*%rax
.L1705:
	movq	744(%rsp), %rbx
	testq	%rbx, %rbx
	je	.L1707
	movq	8(%rbx), %rdx
	leaq	8(%rbx), %rcx
	movabsq	$4294967297, %rax
	cmpq	%rax, %rdx
	je	.L1995
	movq	__libc_single_threaded@GOTPCREL(%rip), %rax
	cmpb	$0, (%rax)
	je	.L1709
	movl	8(%rbx), %eax
	leal	-1(%rax), %edx
	movl	%edx, 8(%rbx)
.L1710:
	cmpl	$1, %eax
	je	.L1996
.L1707:
	movq	712(%rsp), %rbx
	testq	%rbx, %rbx
	je	.L1713
	movq	8(%rbx), %rdx
	leaq	8(%rbx), %rcx
	movabsq	$4294967297, %rax
	cmpq	%rax, %rdx
	je	.L1997
	movq	__libc_single_threaded@GOTPCREL(%rip), %rax
	cmpb	$0, (%rax)
	je	.L1715
	movl	8(%rbx), %eax
	leal	-1(%rax), %edx
	movl	%edx, 8(%rbx)
.L1716:
	cmpl	$1, %eax
	je	.L1998
.L1713:
	movq	688(%rsp), %rax
	testq	%rax, %rax
	je	.L1718
	leaq	672(%rsp), %rdi
	movl	$3, %edx
	movq	%rdi, %rsi
	call	*%rax
.L1718:
	movq	664(%rsp), %rbx
	testq	%rbx, %rbx
	je	.L1720
	movq	8(%rbx), %rdx
	leaq	8(%rbx), %rcx
	movabsq	$4294967297, %rax
	cmpq	%rax, %rdx
	je	.L1999
	movq	__libc_single_threaded@GOTPCREL(%rip), %rax
	cmpb	$0, (%rax)
	je	.L1722
	movl	8(%rbx), %eax
	leal	-1(%rax), %edx
	movl	%edx, 8(%rbx)
.L1723:
	cmpl	$1, %eax
	je	.L2000
.L1720:
	movq	632(%rsp), %rbx
	testq	%rbx, %rbx
	je	.L1726
	movq	8(%rbx), %rdx
	leaq	8(%rbx), %rcx
	movabsq	$4294967297, %rax
	cmpq	%rax, %rdx
	je	.L2001
	movq	__libc_single_threaded@GOTPCREL(%rip), %rax
	cmpb	$0, (%rax)
	je	.L1728
	movl	8(%rbx), %eax
	leal	-1(%rax), %edx
	movl	%edx, 8(%rbx)
.L1729:
	cmpl	$1, %eax
	je	.L2002
.L1726:
	movq	608(%rsp), %rax
	testq	%rax, %rax
	je	.L1731
	leaq	592(%rsp), %rdi
	movl	$3, %edx
	movq	%rdi, %rsi
	call	*%rax
.L1731:
	movq	584(%rsp), %rbx
	testq	%rbx, %rbx
	je	.L1733
	movq	8(%rbx), %rdx
	leaq	8(%rbx), %rcx
	movabsq	$4294967297, %rax
	cmpq	%rax, %rdx
	je	.L2003
	movq	__libc_single_threaded@GOTPCREL(%rip), %rax
	cmpb	$0, (%rax)
	je	.L1735
	movl	8(%rbx), %eax
	leal	-1(%rax), %edx
	movl	%edx, 8(%rbx)
.L1736:
	cmpl	$1, %eax
	je	.L2004
.L1733:
	sfence
.L1444:
	movq	552(%rsp), %rbx
	testq	%rbx, %rbx
	je	.L1739
	movq	8(%rbx), %rdx
	leaq	8(%rbx), %rcx
	movabsq	$4294967297, %rax
	cmpq	%rax, %rdx
	je	.L2005
	movq	__libc_single_threaded@GOTPCREL(%rip), %rax
	cmpb	$0, (%rax)
	je	.L1741
	movl	8(%rbx), %eax
	leal	-1(%rax), %edx
	movl	%edx, 8(%rbx)
.L1742:
	cmpl	$1, %eax
	je	.L2006
.L1739:
	movq	528(%rsp), %rax
	testq	%rax, %rax
	je	.L1744
	leaq	512(%rsp), %rdi
	movl	$3, %edx
	movq	%rdi, %rsi
	call	*%rax
.L1744:
	movq	504(%rsp), %rbx
	testq	%rbx, %rbx
	je	.L1429
	movq	8(%rbx), %rdx
	leaq	8(%rbx), %rcx
	movabsq	$4294967297, %rax
	cmpq	%rax, %rdx
	je	.L2007
	movq	__libc_single_threaded@GOTPCREL(%rip), %rax
	cmpb	$0, (%rax)
	je	.L1748
	movl	8(%rbx), %eax
	leal	-1(%rax), %edx
	movl	%edx, 8(%rbx)
.L1749:
	cmpl	$1, %eax
	je	.L2008
.L1429:
	addq	$912, %rsp
	.cfi_remember_state
	.cfi_def_cfa_offset 48
	popq	%rbx
	.cfi_def_cfa_offset 40
	popq	%rbp
	.cfi_def_cfa_offset 32
	popq	%r12
	.cfi_def_cfa_offset 24
	popq	%r13
	.cfi_def_cfa_offset 16
	popq	%r14
	.cfi_def_cfa_offset 8
	ret
	.p2align 4,,10
	.p2align 3
.L1430:
	.cfi_restore_state
	movdqu	104(%rsi), %xmm0
	leaq	480(%rsp), %rax
	movq	%rax, 32(%rsp)
	movaps	%xmm0, 544(%rsp)
	movdqu	24(%rsi), %xmm0
	movaps	%xmm0, 560(%rsp)
	jmp	.L1432
	.p2align 4,,10
	.p2align 3
.L1988:
	movb	$1, 64(%rdi)
	addq	$24, %rdi
	call	pthread_mutex_unlock@PLT
	movq	488(%rsp), %r12
	movq	%r12, 384(%rsp)
	data16	leaq	_ZN4asio6detail15keyword_tss_ptrINS0_10call_stackINS0_14strand_service11strand_implEhE7contextEE6value_E@tlsgd(%rip), %rdi
	.value	0x6666
	rex64
	call	__tls_get_addr@PLT
	movq	40(%rbp), %rbp
	movq	%r12, %xmm7
	xorl	%ecx, %ecx
	movq	%rbx, %rsi
	movq	%rbp, %xmm0
	movq	%rbp, %rdi
	punpcklqdq	%xmm7, %xmm0
	movaps	%xmm0, 160(%rsp)
	movq	(%rax), %rdx
	movq	%rdx, 400(%rsp)
	leaq	384(%rsp), %rdx
	movq	%rdx, 392(%rsp)
	movq	%rdx, (%rax)
	leaq	224(%rsp), %rdx
.LEHB67:
	call	_ZN4asio6detail18completion_handlerINS0_17rewrapped_handlerINS0_7binder1INS0_15wrapped_handlerINS_10io_service6strandEZN7asiopal8Executor5StartERKNSt6chrono10time_pointINS9_3_V212steady_clockENS9_8durationIlSt5ratioILl1ELl1000000000EEEEEERKSt8functionIFvvEEEUlRKSt10error_codeE_NS0_26is_continuation_if_runningEEESP_EESS_EEE11do_completeEPNS0_15task_io_serviceEPNS0_25task_io_service_operationESR_m
.LEHE67:
	leaq	24(%r12), %r13
	movq	%r13, %rdi
	call	pthread_mutex_lock@PLT
	movq	72(%r12), %rbx
	testq	%rbx, %rbx
	je	.L2009
	movq	96(%r12), %rax
	testq	%rax, %rax
	je	.L1671
	movq	%rbx, (%rax)
	movq	88(%r12), %rbx
.L1672:
	movq	80(%r12), %rax
	pxor	%xmm0, %xmm0
	movups	%xmm0, 72(%r12)
	movq	%rax, 96(%r12)
.L1670:
	testq	%rbx, %rbx
	movq	%r13, %rdi
	setne	64(%r12)
	call	pthread_mutex_unlock@PLT
	testq	%rbx, %rbx
	je	.L1673
	movq	%r12, %xmm2
	punpcklqdq	%xmm2, %xmm2
	movaps	%xmm2, (%rsp)
	cmpb	$0, 40(%rbp)
	je	.L1674
	data16	leaq	_ZN4asio6detail15keyword_tss_ptrINS0_10call_stackINS0_15task_io_serviceENS0_27task_io_service_thread_infoEE7contextEE6value_E@tlsgd(%rip), %rdi
	.value	0x6666
	rex64
	call	__tls_get_addr@PLT
	movq	(%rax), %rax
	testq	%rax, %rax
	jne	.L1677
	jmp	.L1674
	.p2align 4
	.p2align 4,,10
	.p2align 3
.L1675:
	movq	16(%rax), %rax
	testq	%rax, %rax
	je	.L1674
.L1677:
	cmpq	(%rax), %rbp
	jne	.L1675
	movq	8(%rax), %rax
	testq	%rax, %rax
	je	.L1674
	movq	16(%rax), %rdx
	addq	$1, 24(%rax)
	movq	$0, (%r12)
	testq	%rdx, %rdx
	je	.L1678
	movq	%r12, (%rdx)
	movq	%r12, 16(%rax)
	.p2align 4
	.p2align 3
.L1673:
	data16	leaq	_ZN4asio6detail15keyword_tss_ptrINS0_10call_stackINS0_14strand_service11strand_implEhE7contextEE6value_E@tlsgd(%rip), %rdi
	.value	0x6666
	rex64
	call	__tls_get_addr@PLT
	movq	400(%rsp), %rdx
	movq	%rdx, (%rax)
	jmp	.L1630
	.p2align 4,,10
	.p2align 3
.L1987:
	movb	%al, 184(%rbx)
	jmp	.L1633
	.p2align 4,,10
	.p2align 3
.L2007:
	movq	(%rbx), %rax
	movq	%rbx, %rdi
	movq	$0, 8(%rbx)
	call	*16(%rax)
	movq	(%rbx), %rax
	movq	%rbx, %rdi
	call	*24(%rax)
	addq	$912, %rsp
	.cfi_remember_state
	.cfi_def_cfa_offset 48
	popq	%rbx
	.cfi_def_cfa_offset 40
	popq	%rbp
	.cfi_def_cfa_offset 32
	popq	%r12
	.cfi_def_cfa_offset 24
	popq	%r13
	.cfi_def_cfa_offset 16
	popq	%r14
	.cfi_def_cfa_offset 8
	ret
	.p2align 4,,10
	.p2align 3
.L2005:
	.cfi_restore_state
	movq	(%rbx), %rax
	movq	%rbx, %rdi
	movq	$0, 8(%rbx)
	call	*16(%rax)
	movq	(%rbx), %rax
	movq	%rbx, %rdi
	call	*24(%rax)
	jmp	.L1739
	.p2align 4,,10
	.p2align 3
.L1973:
	movzbl	120(%rbx), %edx
	movb	%dl, (%rbx)
	movq	%rbx, (%rax)
	jmp	.L1443
	.p2align 4,,10
	.p2align 3
.L1654:
	movdqa	(%rsp), %xmm6
	movups	%xmm6, 72(%rdi)
	jmp	.L1655
	.p2align 4,,10
	.p2align 3
.L1440:
	movl	$-1, %eax
	lock xaddl	%eax, (%rcx)
	jmp	.L1441
	.p2align 4,,10
	.p2align 3
.L2009:
	movq	88(%r12), %rbx
	jmp	.L1670
	.p2align 4,,10
	.p2align 3
.L1499:
	leaq	384(%rsp), %r12
	movq	800(%rsp), %rbp
	movq	%r12, 64(%rsp)
	data16	leaq	_ZN4asio6detail15keyword_tss_ptrINS0_10call_stackINS0_15task_io_serviceENS0_27task_io_service_thread_infoEE7contextEE6value_E@tlsgd(%rip), %rdi
	.value	0x6666
	rex64
	call	__tls_get_addr@PLT
	movq	(%rax), %rax
	testq	%rax, %rax
	je	.L1510
	movq	8(%rax), %rax
	testq	%rax, %rax
	je	.L1510
	movq	(%rax), %rbx
	testq	%rbx, %rbx
	je	.L1510
	movq	$0, (%rax)
	movzbl	(%rbx), %eax
	cmpb	$103, %al
	jbe	.L1511
	movb	%al, 104(%rbx)
	jmp	.L1512
	.p2align 4,,10
	.p2align 3
.L1446:
	lock addl	$1, 8(%rax)
	jmp	.L1445
	.p2align 4,,10
	.p2align 3
.L1454:
	lock addl	$1, 8(%rdx)
	movq	528(%rsp), %rax
	jmp	.L1449
	.p2align 4,,10
	.p2align 3
.L1741:
	movl	$-1, %eax
	lock xaddl	%eax, (%rcx)
	jmp	.L1742
	.p2align 4,,10
	.p2align 3
.L1748:
	movl	$-1, %eax
	lock xaddl	%eax, (%rcx)
	jmp	.L1749
	.p2align 4,,10
	.p2align 3
.L1967:
	addq	$24, %rdi
	call	pthread_mutex_lock@PLT
.L1648:
	movq	488(%rsp), %rdi
	cmpb	$0, 64(%rdi)
	jne	.L1651
	movb	$1, 64(%rdi)
	addq	$24, %rdi
	call	pthread_mutex_unlock@PLT
	movq	488(%rsp), %r12
	movq	$0, (%rbx)
	movq	%r12, %xmm3
	movq	96(%r12), %rax
	punpcklqdq	%xmm3, %xmm3
	movaps	%xmm3, 16(%rsp)
	testq	%rax, %rax
	je	.L1657
	movq	%rbx, (%rax)
	movq	%rbx, 96(%r12)
.L1658:
	movq	40(%rbp), %rbx
	cmpb	$0, 40(%rbx)
	je	.L1659
	data16	leaq	_ZN4asio6detail15keyword_tss_ptrINS0_10call_stackINS0_15task_io_serviceENS0_27task_io_service_thread_infoEE7contextEE6value_E@tlsgd(%rip), %rdi
	.value	0x6666
	rex64
	call	__tls_get_addr@PLT
	movq	(%rax), %rax
	testq	%rax, %rax
	jne	.L1662
	jmp	.L1659
	.p2align 4
	.p2align 4,,10
	.p2align 3
.L1660:
	movq	16(%rax), %rax
	testq	%rax, %rax
	je	.L1659
.L1662:
	cmpq	(%rax), %rbx
	jne	.L1660
	movq	8(%rax), %rax
	testq	%rax, %rax
	je	.L1659
	movq	16(%rax), %rdx
	addq	$1, 24(%rax)
	movq	$0, (%r12)
	testq	%rdx, %rdx
	je	.L1663
	movq	%r12, (%rdx)
	movq	%r12, 16(%rax)
	jmp	.L1630
.L1511:
	movq	%rbx, %rdi
	call	_ZdlPv@PLT
.L1510:
	movl	$105, %edi
.LEHB68:
	call	_Znwm@PLT
.LEHE68:
	movb	$104, 104(%rax)
	movq	%rax, %rbx
.L1512:
	leaq	_ZN4asio6detail18completion_handlerINS0_7binder1IZN7asiopal8Executor5StartERKNSt6chrono10time_pointINS5_3_V212steady_clockENS5_8durationIlSt5ratioILl1ELl1000000000EEEEEERKSt8functionIFvvEEEUlRKSt10error_codeE_SL_EEE11do_completeEPNS0_15task_io_serviceEPNS0_25task_io_service_operationESN_m(%rip), %rax
	movq	$0, (%rbx)
	movq	%rax, 8(%rbx)
	movl	$0, 16(%rbx)
	movdqa	384(%rsp), %xmm0
	movups	%xmm0, 24(%rbx)
	pxor	%xmm0, %xmm0
	movq	416(%rsp), %rax
	movaps	%xmm0, 384(%rsp)
	pxor	%xmm0, %xmm0
	movq	$0, 56(%rbx)
	movq	$0, 64(%rbx)
	movups	%xmm0, 40(%rbx)
	testq	%rax, %rax
	je	.L1513
	leaq	40(%rbx), %r13
	leaq	400(%rsp), %rsi
	movl	$2, %edx
	movq	%r13, %rdi
.LEHB69:
	call	*%rax
.LEHE69:
	movdqa	416(%rsp), %xmm0
	movups	%xmm0, 56(%rbx)
.L1513:
	movdqa	432(%rsp), %xmm0
	movq	%rbx, %xmm7
	punpcklqdq	%xmm7, %xmm7
	movups	%xmm0, 72(%rbx)
	pxor	%xmm0, %xmm0
	movaps	%xmm0, 432(%rsp)
	movdqa	448(%rsp), %xmm0
	movaps	%xmm7, (%rsp)
	movups	%xmm0, 88(%rbx)
	data16	leaq	_ZN4asio6detail15keyword_tss_ptrINS0_10call_stackINS0_15task_io_serviceENS0_27task_io_service_thread_infoEE7contextEE6value_E@tlsgd(%rip), %rdi
	.value	0x6666
	rex64
	call	__tls_get_addr@PLT
	movq	808(%rsp), %rdi
	movq	(%rax), %rax
	testq	%rax, %rax
	je	.L1965
	movq	40(%rbp), %rdx
	jmp	.L1523
	.p2align 4
	.p2align 4,,10
	.p2align 3
.L1520:
	movq	16(%rax), %rax
	testq	%rax, %rax
	je	.L1965
.L1523:
	cmpq	(%rax), %rdx
	jne	.L1520
	movq	8(%rax), %r13
	addq	$24, %rdi
	call	pthread_mutex_lock@PLT
	testq	%r13, %r13
	je	.L1522
	movq	808(%rsp), %rax
	cmpb	$0, 64(%rax)
	je	.L2010
.L1525:
	movq	80(%rax), %rdx
	movq	$0, (%rbx)
	testq	%rdx, %rdx
	je	.L1529
	movq	%rbx, (%rdx)
	movq	%rbx, 80(%rax)
.L1530:
	leaq	24(%rax), %rdi
	call	pthread_mutex_unlock@PLT
	jmp	.L1509
	.p2align 4,,10
	.p2align 3
.L1689:
	movl	$-1, %eax
	lock xaddl	%eax, (%rcx)
	jmp	.L1690
	.p2align 4,,10
	.p2align 3
.L1715:
	movl	$-1, %eax
	lock xaddl	%eax, (%rcx)
	jmp	.L1716
	.p2align 4,,10
	.p2align 3
.L1722:
	movl	$-1, %eax
	lock xaddl	%eax, (%rcx)
	jmp	.L1723
	.p2align 4,,10
	.p2align 3
.L1728:
	movl	$-1, %eax
	lock xaddl	%eax, (%rcx)
	jmp	.L1729
	.p2align 4,,10
	.p2align 3
.L1735:
	movl	$-1, %eax
	lock xaddl	%eax, (%rcx)
	jmp	.L1736
	.p2align 4,,10
	.p2align 3
.L1702:
	movl	$-1, %eax
	lock xaddl	%eax, (%rcx)
	jmp	.L1703
	.p2align 4,,10
	.p2align 3
.L1709:
	movl	$-1, %eax
	lock xaddl	%eax, (%rcx)
	jmp	.L1710
	.p2align 4,,10
	.p2align 3
.L1696:
	movl	$-1, %eax
	lock xaddl	%eax, (%rcx)
	jmp	.L1697
	.p2align 4,,10
	.p2align 3
.L1659:
	lock addq	$1, 184(%rbx)
	leaq	48(%rbx), %rbp
	movq	%rbp, %rdi
	call	pthread_mutex_lock@PLT
	movq	200(%rbx), %rax
	movq	$0, (%r12)
	testq	%rax, %rax
	je	.L1664
	movq	%r12, (%rax)
	movq	%r12, 200(%rbx)
.L1665:
	movq	136(%rbx), %rax
	movq	%rax, %rdx
	orq	$1, %rdx
	movq	%rdx, 136(%rbx)
	cmpq	$1, %rax
	ja	.L2011
	cmpb	$0, 176(%rbx)
	jne	.L1668
	movq	144(%rbx), %rax
	testq	%rax, %rax
	je	.L1668
	movb	$1, 176(%rbx)
	leaq	88(%rax), %rdx
	movl	$3, %esi
	leaq	384(%rsp), %rcx
	movq	%rdx, 388(%rsp)
	movl	88(%rax), %edx
	movl	$-2147483639, 384(%rsp)
	movl	96(%rax), %edi
	call	epoll_ctl@PLT
.L1668:
	movq	%rbp, %rdi
	call	pthread_mutex_unlock@PLT
	jmp	.L1630
	.p2align 4,,10
	.p2align 3
.L1674:
	lock addq	$1, 184(%rbp)
	leaq	48(%rbp), %rbx
	movq	%rbx, %rdi
	call	pthread_mutex_lock@PLT
	movq	200(%rbp), %rax
	movq	$0, (%r12)
	testq	%rax, %rax
	je	.L1679
	movq	%r12, (%rax)
	movq	%r12, 200(%rbp)
.L1680:
	movq	136(%rbp), %rax
	movq	%rax, %rdx
	orq	$1, %rdx
	movq	%rdx, 136(%rbp)
	cmpq	$1, %rax
	ja	.L2012
	cmpb	$0, 176(%rbp)
	jne	.L1683
	movq	144(%rbp), %rax
	testq	%rax, %rax
	je	.L1683
	movb	$1, 176(%rbp)
	leaq	88(%rax), %rdx
	movl	$3, %esi
	leaq	224(%rsp), %rcx
	movq	%rdx, 228(%rsp)
	movl	88(%rax), %edx
	movl	$-2147483639, 224(%rsp)
	movl	96(%rax), %edi
	call	epoll_ctl@PLT
.L1683:
	movq	%rbx, %rdi
	call	pthread_mutex_unlock@PLT
	jmp	.L1673
.L2010:
	movb	$1, 64(%rax)
	leaq	24(%rax), %rdi
	call	pthread_mutex_unlock@PLT
	movq	808(%rsp), %r13
	movq	%r13, 96(%rsp)
	data16	leaq	_ZN4asio6detail15keyword_tss_ptrINS0_10call_stackINS0_14strand_service11strand_implEhE7contextEE6value_E@tlsgd(%rip), %rdi
	.value	0x6666
	rex64
	call	__tls_get_addr@PLT
	movdqu	24(%rbx), %xmm0
	movq	40(%rbp), %rbp
	movaps	%xmm0, 304(%rsp)
	pxor	%xmm0, %xmm0
	movups	%xmm0, 24(%rbx)
	pxor	%xmm0, %xmm0
	movq	$0, 336(%rsp)
	movq	$0, 344(%rsp)
	movq	(%rax), %rdx
	movaps	%xmm0, 320(%rsp)
	movq	%rdx, 112(%rsp)
	leaq	96(%rsp), %rdx
	movq	%rdx, (%rax)
	leaq	24(%rbx), %rax
	movq	%rax, 128(%rsp)
	movq	56(%rbx), %rax
	movq	%rdx, 104(%rsp)
	testq	%rax, %rax
	je	.L2013
	leaq	40(%rbx), %rcx
	leaq	320(%rsp), %rdi
	movl	$2, %edx
	movq	%rcx, 16(%rsp)
	movq	%rdi, %r14
	movq	%rcx, %rsi
.LEHB70:
	call	*%rax
.LEHE70:
	movdqu	56(%rbx), %xmm0
	movq	56(%rbx), %rax
	leaq	304(%rsp), %rcx
	movq	%rcx, 128(%rsp)
	movq	%rcx, %r14
	movaps	%xmm0, 336(%rsp)
	movdqu	72(%rbx), %xmm0
	movaps	%xmm0, 352(%rsp)
	movdqu	88(%rbx), %xmm0
	movaps	%xmm0, 368(%rsp)
	testq	%rax, %rax
	je	.L1527
	movq	16(%rsp), %rsi
	movq	16(%rsp), %rdi
	movl	$3, %edx
	call	*%rax
.L1527:
	movq	32(%rbx), %rdi
	testq	%rdi, %rdi
	je	.L1550
	movq	8(%rdi), %rcx
	leaq	8(%rdi), %rdx
	movabsq	$4294967297, %rax
	cmpq	%rax, %rcx
	je	.L2014
	movq	__libc_single_threaded@GOTPCREL(%rip), %rax
	cmpb	$0, (%rax)
	je	.L1552
	movl	8(%rdi), %eax
	leal	-1(%rax), %edx
	movl	%edx, 8(%rdi)
.L1553:
	cmpl	$1, %eax
	jne	.L1550
	call	_ZNSt16_Sp_counted_baseILN9__gnu_cxx12_Lock_policyE2EE24_M_release_last_use_coldEv@PLT
.L1550:
	data16	leaq	_ZN4asio6detail15keyword_tss_ptrINS0_10call_stackINS0_15task_io_serviceENS0_27task_io_service_thread_infoEE7contextEE6value_E@tlsgd(%rip), %rdi
	.value	0x6666
	rex64
	call	__tls_get_addr@PLT
	movq	(%rax), %rax
	testq	%rax, %rax
	je	.L1555
	movq	8(%rax), %rax
	testq	%rax, %rax
	je	.L1555
	cmpq	$0, (%rax)
	je	.L2015
.L1555:
	movq	%rbx, %rdi
	call	_ZdlPv@PLT
.L1556:
	testq	%rbp, %rbp
	je	.L1557
	movl	368(%rsp), %ecx
	testl	%ecx, %ecx
	jne	.L1558
	cmpq	$0, 336(%rsp)
	je	.L1963
	leaq	320(%rsp), %rdi
.LEHB71:
	call	*344(%rsp)
.LEHE71:
.L1558:
	sfence
.L1557:
	movq	360(%rsp), %rbx
	testq	%rbx, %rbx
	je	.L1561
	movq	8(%rbx), %rdx
	leaq	8(%rbx), %rcx
	movabsq	$4294967297, %rax
	cmpq	%rax, %rdx
	je	.L2016
	movq	__libc_single_threaded@GOTPCREL(%rip), %rax
	cmpb	$0, (%rax)
	je	.L1563
	movl	8(%rbx), %eax
	leal	-1(%rax), %edx
	movl	%edx, 8(%rbx)
.L1564:
	cmpl	$1, %eax
	je	.L2017
.L1561:
	movq	336(%rsp), %rax
	testq	%rax, %rax
	je	.L1566
	leaq	320(%rsp), %rdi
	movl	$3, %edx
	movq	%rdi, %rsi
	call	*%rax
.L1566:
	movq	312(%rsp), %rbx
	testq	%rbx, %rbx
	je	.L1568
	movq	8(%rbx), %rdx
	leaq	8(%rbx), %rcx
	movabsq	$4294967297, %rax
	cmpq	%rax, %rdx
	je	.L2018
	movq	__libc_single_threaded@GOTPCREL(%rip), %rax
	cmpb	$0, (%rax)
	je	.L1570
	movl	8(%rbx), %eax
	leal	-1(%rax), %edx
	movl	%edx, 8(%rbx)
.L1571:
	cmpl	$1, %eax
	je	.L2019
.L1568:
	leaq	24(%r13), %r12
	movq	%r12, %rdi
	call	pthread_mutex_lock@PLT
	movq	72(%r13), %rbx
	testq	%rbx, %rbx
	je	.L2020
	movq	96(%r13), %rax
	testq	%rax, %rax
	je	.L1576
	movq	%rbx, (%rax)
	movq	88(%r13), %rbx
.L1577:
	movq	80(%r13), %rax
	pxor	%xmm0, %xmm0
	movups	%xmm0, 72(%r13)
	movq	%rax, 96(%r13)
.L1574:
	testq	%rbx, %rbx
	movq	%r12, %rdi
	setne	64(%r13)
	call	pthread_mutex_unlock@PLT
	testq	%rbx, %rbx
	je	.L1578
	movq	%r13, %xmm5
	punpcklqdq	%xmm5, %xmm5
	movaps	%xmm5, (%rsp)
	cmpb	$0, 40(%rbp)
	je	.L1579
	data16	leaq	_ZN4asio6detail15keyword_tss_ptrINS0_10call_stackINS0_15task_io_serviceENS0_27task_io_service_thread_infoEE7contextEE6value_E@tlsgd(%rip), %rdi
	.value	0x6666
	rex64
	call	__tls_get_addr@PLT
	movq	(%rax), %rax
	testq	%rax, %rax
	jne	.L1582
	jmp	.L1579
	.p2align 4
	.p2align 4,,10
	.p2align 3
.L1580:
	movq	16(%rax), %rax
	testq	%rax, %rax
	je	.L1579
.L1582:
	cmpq	(%rax), %rbp
	jne	.L1580
	movq	8(%rax), %rax
	testq	%rax, %rax
	je	.L1579
	movq	16(%rax), %rdx
	addq	$1, 24(%rax)
	movq	$0, 0(%r13)
	testq	%rdx, %rdx
	je	.L1583
	movq	%r13, (%rdx)
	movq	%r13, 16(%rax)
	.p2align 4
	.p2align 3
.L1578:
	data16	leaq	_ZN4asio6detail15keyword_tss_ptrINS0_10call_stackINS0_14strand_service11strand_implEhE7contextEE6value_E@tlsgd(%rip), %rdi
	.value	0x6666
	rex64
	call	__tls_get_addr@PLT
	movq	112(%rsp), %rdx
	movq	%rdx, (%rax)
	jmp	.L1509
	.p2align 4,,10
	.p2align 3
.L1993:
	movq	(%rbx), %rax
	movq	%rbx, %rdi
	movq	$0, 8(%rbx)
	call	*16(%rax)
	movq	(%rbx), %rax
	movq	%rbx, %rdi
	call	*24(%rax)
	jmp	.L1700
	.p2align 4,,10
	.p2align 3
.L1995:
	movq	(%rbx), %rax
	movq	%rbx, %rdi
	movq	$0, 8(%rbx)
	call	*16(%rax)
	movq	(%rbx), %rax
	movq	%rbx, %rdi
	call	*24(%rax)
	jmp	.L1707
	.p2align 4,,10
	.p2align 3
.L2001:
	movq	(%rbx), %rax
	movq	%rbx, %rdi
	movq	$0, 8(%rbx)
	call	*16(%rax)
	movq	(%rbx), %rax
	movq	%rbx, %rdi
	call	*24(%rax)
	jmp	.L1726
	.p2align 4,,10
	.p2align 3
.L2003:
	movq	(%rbx), %rax
	movq	%rbx, %rdi
	movq	$0, 8(%rbx)
	call	*16(%rax)
	movq	(%rbx), %rax
	movq	%rbx, %rdi
	call	*24(%rax)
	jmp	.L1733
	.p2align 4,,10
	.p2align 3
.L1989:
	movq	(%rbx), %rax
	movq	%rbx, %rdi
	movq	$0, 8(%rbx)
	call	*16(%rax)
	movq	(%rbx), %rax
	movq	%rbx, %rdi
	call	*24(%rax)
	jmp	.L1685
	.p2align 4,,10
	.p2align 3
.L1997:
	movq	(%rbx), %rax
	movq	%rbx, %rdi
	movq	$0, 8(%rbx)
	call	*16(%rax)
	movq	(%rbx), %rax
	movq	%rbx, %rdi
	call	*24(%rax)
	jmp	.L1713
	.p2align 4,,10
	.p2align 3
.L1999:
	movq	(%rbx), %rax
	movq	%rbx, %rdi
	movq	$0, 8(%rbx)
	call	*16(%rax)
	movq	(%rbx), %rax
	movq	%rbx, %rdi
	call	*24(%rax)
	jmp	.L1720
	.p2align 4,,10
	.p2align 3
.L1991:
	movq	(%rbx), %rax
	movq	%rbx, %rdi
	movq	$0, 8(%rbx)
	call	*16(%rax)
	movq	(%rbx), %rax
	movq	%rbx, %rdi
	call	*24(%rax)
	jmp	.L1694
.L1479:
	lock addl	$1, 8(%rax)
	jmp	.L1478
.L1487:
	lock addl	$1, 8(%rdx)
	movq	192(%rsp), %rax
	jmp	.L1482
.L1971:
	movq	0(%rbp), %rax
	movq	%rbp, %rdi
	movq	$0, 8(%rbp)
	call	*16(%rax)
	movq	0(%rbp), %rax
	movq	%rbp, %rdi
	call	*24(%rax)
	jmp	.L1437
.L1974:
	cmpq	$0, 416(%rsp)
	je	.L1962
	leaq	400(%rsp), %rdi
.LEHB72:
	call	*424(%rsp)
.LEHE72:
	jmp	.L1507
.L2011:
	movq	%rbp, %rdi
	call	pthread_mutex_unlock@PLT
	leaq	88(%rbx), %rdi
	call	pthread_cond_signal@PLT
	jmp	.L1630
.L2012:
	movq	%rbx, %rdi
	call	pthread_mutex_unlock@PLT
	leaq	88(%rbp), %rdi
	call	pthread_cond_signal@PLT
	jmp	.L1673
.L2006:
	movq	%rbx, %rdi
	call	_ZNSt16_Sp_counted_baseILN9__gnu_cxx12_Lock_policyE2EE24_M_release_last_use_coldEv@PLT
	jmp	.L1739
.L2008:
	movq	%rbx, %rdi
	call	_ZNSt16_Sp_counted_baseILN9__gnu_cxx12_Lock_policyE2EE24_M_release_last_use_coldEv@PLT
	jmp	.L1429
.L1972:
	movq	%rbp, %rdi
	call	_ZNSt16_Sp_counted_baseILN9__gnu_cxx12_Lock_policyE2EE24_M_release_last_use_coldEv@PLT
	jmp	.L1437
	.p2align 4,,10
	.p2align 3
.L1965:
	addq	$24, %rdi
	call	pthread_mutex_lock@PLT
.L1522:
	movq	808(%rsp), %rax
	cmpb	$0, 64(%rax)
	jne	.L1525
	movb	$1, 64(%rax)
	leaq	24(%rax), %rdi
	call	pthread_mutex_unlock@PLT
	movq	808(%rsp), %r12
	movq	$0, (%rbx)
	movq	%r12, %xmm2
	movq	96(%r12), %rax
	punpcklqdq	%xmm2, %xmm2
	movaps	%xmm2, 16(%rsp)
	testq	%rax, %rax
	je	.L1532
	movq	%rbx, (%rax)
	movq	%rbx, 96(%r12)
.L1533:
	movq	40(%rbp), %rbx
	cmpb	$0, 40(%rbx)
	je	.L1534
	data16	leaq	_ZN4asio6detail15keyword_tss_ptrINS0_10call_stackINS0_15task_io_serviceENS0_27task_io_service_thread_infoEE7contextEE6value_E@tlsgd(%rip), %rdi
	.value	0x6666
	rex64
	call	__tls_get_addr@PLT
	movq	(%rax), %rax
	testq	%rax, %rax
	jne	.L1537
	jmp	.L1534
	.p2align 4
	.p2align 4,,10
	.p2align 3
.L1535:
	movq	16(%rax), %rax
	testq	%rax, %rax
	je	.L1534
.L1537:
	cmpq	(%rax), %rbx
	jne	.L1535
	movq	8(%rax), %rax
	testq	%rax, %rax
	je	.L1534
	movq	16(%rax), %rdx
	addq	$1, 24(%rax)
	movq	$0, (%r12)
	testq	%rdx, %rdx
	je	.L1538
	movq	%r12, (%rdx)
	movq	%r12, 16(%rax)
	jmp	.L1509
.L1671:
	movq	%rbx, 88(%r12)
	jmp	.L1672
.L1657:
	movdqa	(%rsp), %xmm6
	movups	%xmm6, 88(%r12)
	jmp	.L1658
.L1627:
	movl	$-1, %eax
	lock xaddl	%eax, (%rcx)
	jmp	.L1628
.L1620:
	movl	$-1, %eax
	lock xaddl	%eax, (%rcx)
	jmp	.L1621
.L1614:
	movl	$-1, %eax
	lock xaddl	%eax, (%rcx)
	jmp	.L1615
.L1607:
	movl	$-1, %eax
	lock xaddl	%eax, (%rcx)
	jmp	.L1608
.L1601:
	movl	$-1, %eax
	lock xaddl	%eax, (%rcx)
	jmp	.L1602
.L1594:
	movl	$-1, %eax
	lock xaddl	%eax, (%rcx)
	jmp	.L1595
.L1534:
	lock addq	$1, 184(%rbx)
	leaq	48(%rbx), %rbp
	movq	%rbp, %rdi
	call	pthread_mutex_lock@PLT
	movq	200(%rbx), %rax
	movq	$0, (%r12)
	testq	%rax, %rax
	je	.L1539
	movq	%r12, (%rax)
	movq	%r12, 200(%rbx)
.L1540:
	movq	136(%rbx), %rax
	movq	%rax, %rdx
	orq	$1, %rdx
	movq	%rdx, 136(%rbx)
	cmpq	$1, %rax
	jbe	.L1541
	movq	%rbp, %rdi
	call	pthread_mutex_unlock@PLT
	leaq	88(%rbx), %rdi
	call	pthread_cond_signal@PLT
	jmp	.L1509
.L1579:
	lock addq	$1, 184(%rbp)
	leaq	48(%rbp), %rbx
	movq	%rbx, %rdi
	call	pthread_mutex_lock@PLT
	movq	200(%rbp), %rax
	movq	$0, 0(%r13)
	testq	%rax, %rax
	je	.L1584
	movq	%r13, (%rax)
	movq	%r13, 200(%rbp)
.L1585:
	movq	136(%rbp), %rax
	movq	%rax, %rdx
	orq	$1, %rdx
	movq	%rdx, 136(%rbp)
	cmpq	$1, %rax
	jbe	.L1586
	movq	%rbx, %rdi
	call	pthread_mutex_unlock@PLT
	leaq	88(%rbp), %rdi
	call	pthread_cond_signal@PLT
	jmp	.L1578
.L2004:
	movq	%rbx, %rdi
	call	_ZNSt16_Sp_counted_baseILN9__gnu_cxx12_Lock_policyE2EE24_M_release_last_use_coldEv@PLT
	jmp	.L1733
.L1998:
	movq	%rbx, %rdi
	call	_ZNSt16_Sp_counted_baseILN9__gnu_cxx12_Lock_policyE2EE24_M_release_last_use_coldEv@PLT
	jmp	.L1713
.L1996:
	movq	%rbx, %rdi
	call	_ZNSt16_Sp_counted_baseILN9__gnu_cxx12_Lock_policyE2EE24_M_release_last_use_coldEv@PLT
	jmp	.L1707
.L1994:
	movq	%rbx, %rdi
	call	_ZNSt16_Sp_counted_baseILN9__gnu_cxx12_Lock_policyE2EE24_M_release_last_use_coldEv@PLT
	jmp	.L1700
.L1992:
	movq	%rbx, %rdi
	call	_ZNSt16_Sp_counted_baseILN9__gnu_cxx12_Lock_policyE2EE24_M_release_last_use_coldEv@PLT
	jmp	.L1694
.L1990:
	movq	%rbx, %rdi
	call	_ZNSt16_Sp_counted_baseILN9__gnu_cxx12_Lock_policyE2EE24_M_release_last_use_coldEv@PLT
	jmp	.L1685
.L2002:
	movq	%rbx, %rdi
	call	_ZNSt16_Sp_counted_baseILN9__gnu_cxx12_Lock_policyE2EE24_M_release_last_use_coldEv@PLT
	jmp	.L1726
.L2000:
	movq	%rbx, %rdi
	call	_ZNSt16_Sp_counted_baseILN9__gnu_cxx12_Lock_policyE2EE24_M_release_last_use_coldEv@PLT
	jmp	.L1720
.L1981:
	movq	(%rbx), %rax
	movq	%rbx, %rdi
	movq	$0, 8(%rbx)
	call	*16(%rax)
	movq	(%rbx), %rax
	movq	%rbx, %rdi
	call	*24(%rax)
	jmp	.L1612
.L1983:
	movq	(%rbx), %rax
	movq	%rbx, %rdi
	movq	$0, 8(%rbx)
	call	*16(%rax)
	movq	(%rbx), %rax
	movq	%rbx, %rdi
	call	*24(%rax)
	jmp	.L1618
.L1985:
	movq	(%rbx), %rax
	movq	%rbx, %rdi
	movq	$0, 8(%rbx)
	call	*16(%rax)
	movq	(%rbx), %rax
	movq	%rbx, %rdi
	call	*24(%rax)
	jmp	.L1625
.L1979:
	movq	(%rbx), %rax
	movq	%rbx, %rdi
	movq	$0, 8(%rbx)
	call	*16(%rax)
	movq	(%rbx), %rax
	movq	%rbx, %rdi
	call	*24(%rax)
	jmp	.L1605
.L1977:
	movq	(%rbx), %rax
	movq	%rbx, %rdi
	movq	$0, 8(%rbx)
	call	*16(%rax)
	movq	(%rbx), %rax
	movq	%rbx, %rdi
	call	*24(%rax)
	jmp	.L1599
.L1975:
	movq	(%rbx), %rax
	movq	%rbx, %rdi
	movq	$0, 8(%rbx)
	call	*16(%rax)
	movq	(%rbx), %rax
	movq	%rbx, %rdi
	call	*24(%rax)
	jmp	.L1590
.L1529:
	movdqa	(%rsp), %xmm2
	movups	%xmm2, 72(%rax)
	jmp	.L1530
.L1664:
	movdqa	16(%rsp), %xmm5
	movups	%xmm5, 192(%rbx)
	jmp	.L1665
.L1679:
	movdqa	(%rsp), %xmm6
	movups	%xmm6, 192(%rbp)
	jmp	.L1680
.L2013:
	movdqu	72(%rbx), %xmm0
	leaq	304(%rsp), %rax
	movq	%rax, 128(%rsp)
	movq	%rax, %r14
	movaps	%xmm0, 352(%rsp)
	movdqu	88(%rbx), %xmm0
	movaps	%xmm0, 368(%rsp)
	jmp	.L1527
.L2020:
	movq	88(%r13), %rbx
	jmp	.L1574
.L1576:
	movq	%rbx, 88(%r13)
	jmp	.L1577
.L1541:
	cmpb	$0, 176(%rbx)
	jne	.L1543
	movq	144(%rbx), %rax
	testq	%rax, %rax
	je	.L1543
	movb	$1, 176(%rbx)
	leaq	88(%rax), %rdx
	movl	$3, %esi
	leaq	304(%rsp), %rcx
	movq	%rdx, 308(%rsp)
	movl	88(%rax), %edx
	movl	$-2147483639, 304(%rsp)
	movl	96(%rax), %edi
	call	epoll_ctl@PLT
.L1543:
	movq	%rbp, %rdi
	call	pthread_mutex_unlock@PLT
	jmp	.L1509
.L1586:
	cmpb	$0, 176(%rbp)
	jne	.L1588
	movq	144(%rbp), %rax
	testq	%rax, %rax
	je	.L1588
	movb	$1, 176(%rbp)
	leaq	88(%rax), %rdx
	movq	%r14, %rcx
	movl	$3, %esi
	movq	%rdx, 308(%rsp)
	movl	88(%rax), %edx
	movl	$-2147483639, 304(%rsp)
	movl	96(%rax), %edi
	call	epoll_ctl@PLT
.L1588:
	movq	%rbx, %rdi
	call	pthread_mutex_unlock@PLT
	jmp	.L1578
.L1532:
	movdqa	(%rsp), %xmm2
	movups	%xmm2, 88(%r12)
	jmp	.L1533
.L1986:
	movq	%rbx, %rdi
	call	_ZNSt16_Sp_counted_baseILN9__gnu_cxx12_Lock_policyE2EE24_M_release_last_use_coldEv@PLT
	jmp	.L1625
.L1982:
	movq	%rbx, %rdi
	call	_ZNSt16_Sp_counted_baseILN9__gnu_cxx12_Lock_policyE2EE24_M_release_last_use_coldEv@PLT
	jmp	.L1612
.L1976:
	movq	%rbx, %rdi
	call	_ZNSt16_Sp_counted_baseILN9__gnu_cxx12_Lock_policyE2EE24_M_release_last_use_coldEv@PLT
	jmp	.L1590
.L1978:
	movq	%rbx, %rdi
	call	_ZNSt16_Sp_counted_baseILN9__gnu_cxx12_Lock_policyE2EE24_M_release_last_use_coldEv@PLT
	jmp	.L1599
.L1980:
	movq	%rbx, %rdi
	call	_ZNSt16_Sp_counted_baseILN9__gnu_cxx12_Lock_policyE2EE24_M_release_last_use_coldEv@PLT
	jmp	.L1605
.L1563:
	movl	$-1, %eax
	lock xaddl	%eax, (%rcx)
	jmp	.L1564
.L1570:
	movl	$-1, %eax
	lock xaddl	%eax, (%rcx)
	jmp	.L1571
.L1984:
	movq	%rbx, %rdi
	call	_ZNSt16_Sp_counted_baseILN9__gnu_cxx12_Lock_policyE2EE24_M_release_last_use_coldEv@PLT
	jmp	.L1618
.L1539:
	movdqa	16(%rsp), %xmm3
	movups	%xmm3, 192(%rbx)
	jmp	.L1540
.L1663:
	movdqa	16(%rsp), %xmm2
	movups	%xmm2, 8(%rax)
	jmp	.L1630
.L1678:
	movdqa	(%rsp), %xmm3
	movups	%xmm3, 8(%rax)
	jmp	.L1673
.L2018:
	movq	(%rbx), %rax
	movq	%rbx, %rdi
	movq	$0, 8(%rbx)
	call	*16(%rax)
	movq	(%rbx), %rax
	movq	%rbx, %rdi
	call	*24(%rax)
	jmp	.L1568
.L2016:
	movq	(%rbx), %rax
	movq	%rbx, %rdi
	movq	$0, 8(%rbx)
	call	*16(%rax)
	movq	(%rbx), %rax
	movq	%rbx, %rdi
	call	*24(%rax)
	jmp	.L1561
.L1584:
	movdqa	(%rsp), %xmm5
	movups	%xmm5, 192(%rbp)
	jmp	.L1585
.L2015:
	movzbl	104(%rbx), %edx
	movb	%dl, (%rbx)
	movq	%rbx, (%rax)
	jmp	.L1556
.L1552:
	movl	$-1, %eax
	lock xaddl	%eax, (%rdx)
	jmp	.L1553
.L2014:
	movq	(%rdi), %rax
	movq	%rdi, (%rsp)
	movq	$0, 8(%rdi)
	call	*16(%rax)
	movq	(%rsp), %rdi
	movq	(%rdi), %rax
	call	*24(%rax)
	jmp	.L1550
.L2017:
	movq	%rbx, %rdi
	call	_ZNSt16_Sp_counted_baseILN9__gnu_cxx12_Lock_policyE2EE24_M_release_last_use_coldEv@PLT
	jmp	.L1561
.L1583:
	movdqa	(%rsp), %xmm6
	movups	%xmm6, 8(%rax)
	jmp	.L1578
.L1538:
	movdqa	16(%rsp), %xmm2
	movups	%xmm2, 8(%rax)
	jmp	.L1509
.L2019:
	movq	%rbx, %rdi
	call	_ZNSt16_Sp_counted_baseILN9__gnu_cxx12_Lock_policyE2EE24_M_release_last_use_coldEv@PLT
	jmp	.L1568
.L1758:
	movq	%rax, %rbx
	jmp	.L1483
.L1960:
	jmp	.L1961
.L1757:
	movq	%rax, %rbp
	jmp	.L1687
.L1754:
	movq	%rax, %rbx
	jmp	.L1686
.L1765:
	movq	%rax, %rbx
	jmp	.L1545
.L1760:
	movq	%rax, %rbx
	jmp	.L1592
.L1958:
	jmp	.L1959
.L1759:
	movq	%rax, %rbx
	jmp	.L1494
.L1761:
	movq	%rax, %rbx
	jmp	.L1500
.L1763:
	movq	%rax, %rbp
	jmp	.L1516
.L1755:
	movq	%rax, %rbp
	jmp	.L1466
.L1753:
	movq	%rax, %rbp
	jmp	.L1461
.L1767:
	movq	%rax, %rbp
	jmp	.L1643
.L1752:
	movq	%rax, %rbp
	jmp	.L1450
.L1751:
	movq	%rax, %rbp
	jmp	.L1433
.L1756:
	movq	%rax, %rbp
	jmp	.L1472
.L1766:
	movq	%rax, %rbp
	jmp	.L1637
	.section	.gcc_except_table
.LLSDA8981:
	.byte	0xff
	.byte	0xff
	.byte	0x1
	.uleb128 .LLSDACSE8981-.LLSDACSB8981
.LLSDACSB8981:
	.uleb128 .LEHB56-.LFB8981
	.uleb128 .LEHE56-.LEHB56
	.uleb128 .L1751-.LFB8981
	.uleb128 0
	.uleb128 .LEHB57-.LFB8981
	.uleb128 .LEHE57-.LEHB57
	.uleb128 .L1752-.LFB8981
	.uleb128 0
	.uleb128 .LEHB58-.LFB8981
	.uleb128 .LEHE58-.LEHB58
	.uleb128 .L1753-.LFB8981
	.uleb128 0
	.uleb128 .LEHB59-.LFB8981
	.uleb128 .LEHE59-.LEHB59
	.uleb128 .L1755-.LFB8981
	.uleb128 0
	.uleb128 .LEHB60-.LFB8981
	.uleb128 .LEHE60-.LEHB60
	.uleb128 .L1756-.LFB8981
	.uleb128 0
	.uleb128 .LEHB61-.LFB8981
	.uleb128 .LEHE61-.LEHB61
	.uleb128 .L1758-.LFB8981
	.uleb128 0
	.uleb128 .LEHB62-.LFB8981
	.uleb128 .LEHE62-.LEHB62
	.uleb128 .L1759-.LFB8981
	.uleb128 0
	.uleb128 .LEHB63-.LFB8981
	.uleb128 .LEHE63-.LEHB63
	.uleb128 .L1761-.LFB8981
	.uleb128 0
	.uleb128 .LEHB64-.LFB8981
	.uleb128 .LEHE64-.LEHB64
	.uleb128 .L1754-.LFB8981
	.uleb128 0
	.uleb128 .LEHB65-.LFB8981
	.uleb128 .LEHE65-.LEHB65
	.uleb128 .L1766-.LFB8981
	.uleb128 0
	.uleb128 .LEHB66-.LFB8981
	.uleb128 .LEHE66-.LEHB66
	.uleb128 .L1767-.LFB8981
	.uleb128 0
	.uleb128 .LEHB67-.LFB8981
	.uleb128 .LEHE67-.LEHB67
	.uleb128 .L1757-.LFB8981
	.uleb128 0
	.uleb128 .LEHB68-.LFB8981
	.uleb128 .LEHE68-.LEHB68
	.uleb128 .L1760-.LFB8981
	.uleb128 0
	.uleb128 .LEHB69-.LFB8981
	.uleb128 .LEHE69-.LEHB69
	.uleb128 .L1763-.LFB8981
	.uleb128 0
	.uleb128 .LEHB70-.LFB8981
	.uleb128 .LEHE70-.LEHB70
	.uleb128 .L1765-.LFB8981
	.uleb128 0
	.uleb128 .LEHB71-.LFB8981
	.uleb128 .LEHE71-.LEHB71
	.uleb128 .L1960-.LFB8981
	.uleb128 0
	.uleb128 .LEHB72-.LFB8981
	.uleb128 .LEHE72-.LEHB72
	.uleb128 .L1958-.LFB8981
	.uleb128 0
.LLSDACSE8981:
	.text
	.cfi_endproc
	.section	.text.unlikely
	.cfi_startproc
	.cfi_personality 0x9b,DW.ref.__gxx_personality_v0
	.cfi_lsda 0x1b,.LLSDAC8981
	.type	_ZN4asio6detail12wait_handlerINS0_15wrapped_handlerINS_10io_service6strandEZN7asiopal8Executor5StartERKNSt6chrono10time_pointINS7_3_V212steady_clockENS7_8durationIlSt5ratioILl1ELl1000000000EEEEEERKSt8functionIFvvEEEUlRKSt10error_codeE_NS0_26is_continuation_if_runningEEEE11do_completeEPNS0_15task_io_serviceEPNS0_25task_io_service_operationESP_m.cold, @function
_ZN4asio6detail12wait_handlerINS0_15wrapped_handlerINS_10io_service6strandEZN7asiopal8Executor5StartERKNSt6chrono10time_pointINS7_3_V212steady_clockENS7_8durationIlSt5ratioILl1ELl1000000000EEEEEERKSt8functionIFvvEEEUlRKSt10error_codeE_NS0_26is_continuation_if_runningEEEE11do_completeEPNS0_15task_io_serviceEPNS0_25task_io_service_operationESP_m.cold:
.LFSB8981:
.L1963:
	.cfi_def_cfa_offset 960
	.cfi_offset 3, -48
	.cfi_offset 6, -40
	.cfi_offset 12, -32
	.cfi_offset 13, -24
	.cfi_offset 14, -16
.LEHB73:
	call	_ZSt25__throw_bad_function_callv@PLT
.LEHE73:
.L1483:
	movq	192(%rsp), %rax
	testq	%rax, %rax
	je	.L1484
	movl	$3, %edx
	movq	%rbp, %rsi
	movq	%rbp, %rdi
	call	*%rax
.L1484:
	movq	168(%rsp), %rdi
	testq	%rdi, %rdi
	je	.L1491
	call	_ZNSt16_Sp_counted_baseILN9__gnu_cxx12_Lock_policyE2EE10_M_releaseEv@PLT
.L1491:
	sfence
	leaq	736(%rsp), %r13
.L1686:
	leaq	816(%rsp), %rdi
	call	_ZZN7asiopal8Executor5StartERKNSt6chrono10time_pointINS1_3_V212steady_clockENS1_8durationIlSt5ratioILl1ELl1000000000EEEEEERKSt8functionIFvvEEENUlRKSt10error_codeE_D1Ev
	movq	%r13, %rdi
	call	_ZZN7asiopal8Executor5StartERKNSt6chrono10time_pointINS1_3_V212steady_clockENS1_8durationIlSt5ratioILl1ELl1000000000EEEEEERKSt8functionIFvvEEENUlRKSt10error_codeE_D1Ev
.L1469:
	leaq	576(%rsp), %rbp
	leaq	656(%rsp), %rdi
	call	_ZZN7asiopal8Executor5StartERKNSt6chrono10time_pointINS1_3_V212steady_clockENS1_8durationIlSt5ratioILl1ELl1000000000EEEEEERKSt8functionIFvvEEENUlRKSt10error_codeE_D1Ev
	movq	%rbp, %rdi
	movq	%rbx, %rbp
	call	_ZZN7asiopal8Executor5StartERKNSt6chrono10time_pointINS1_3_V212steady_clockENS1_8durationIlSt5ratioILl1ELl1000000000EEEEEERKSt8functionIFvvEEENUlRKSt10error_codeE_D1Ev
.L1458:
	sfence
	leaq	496(%rsp), %rdi
	xorl	%ebx, %ebx
	call	_ZZN7asiopal8Executor5StartERKNSt6chrono10time_pointINS1_3_V212steady_clockENS1_8durationIlSt5ratioILl1ELl1000000000EEEEEERKSt8functionIFvvEEENUlRKSt10error_codeE_D1Ev
.L1436:
	leaq	32(%rsp), %rdi
	movq	%rbx, 40(%rsp)
	movq	%rbx, 48(%rsp)
	call	_ZN4asio6detail12wait_handlerINS0_15wrapped_handlerINS_10io_service6strandEZN7asiopal8Executor5StartERKNSt6chrono10time_pointINS7_3_V212steady_clockENS7_8durationIlSt5ratioILl1ELl1000000000EEEEEERKSt8functionIFvvEEEUlRKSt10error_codeE_NS0_26is_continuation_if_runningEEEE3ptr5resetEv
	movq	%rbp, %rdi
.LEHB74:
	call	_Unwind_Resume@PLT
.LEHE74:
.L1764:
.L1961:
	sfence
	movq	%r14, %rdi
	movq	%rax, %rbx
	call	_ZZN7asiopal8Executor5StartERKNSt6chrono10time_pointINS1_3_V212steady_clockENS1_8durationIlSt5ratioILl1ELl1000000000EEEEEERKSt8functionIFvvEEENUlRKSt10error_codeE_D1Ev
	pxor	%xmm5, %xmm5
	movaps	%xmm5, (%rsp)
.L1548:
	movdqa	(%rsp), %xmm3
	movq	%r13, %xmm2
	movq	%rbp, %xmm0
	leaq	128(%rsp), %rdi
	punpcklqdq	%xmm2, %xmm0
	movq	%rbx, %rbp
	xorl	%ebx, %ebx
	movups	%xmm3, 136(%rsp)
	movaps	%xmm0, 16(%rsp)
	call	_ZN4asio6detail18completion_handlerINS0_7binder1IZN7asiopal8Executor5StartERKNSt6chrono10time_pointINS5_3_V212steady_clockENS5_8durationIlSt5ratioILl1ELl1000000000EEEEEERKSt8functionIFvvEEEUlRKSt10error_codeE_SL_EEE3ptr5resetEv
	movdqa	16(%rsp), %xmm0
	movq	%r14, %rdi
	movaps	%xmm0, 304(%rsp)
	call	_ZN4asio6detail14strand_service16on_dispatch_exitD1Ev@PLT
	data16	leaq	_ZN4asio6detail15keyword_tss_ptrINS0_10call_stackINS0_14strand_service11strand_implEhE7contextEE6value_E@tlsgd(%rip), %rdi
	.value	0x6666
	rex64
	call	__tls_get_addr@PLT
	movq	112(%rsp), %rdx
	movq	%rdx, (%rax)
.L1519:
	xorl	%edx, %edx
	leaq	64(%rsp), %rdi
	movq	%rbx, 72(%rsp)
	movq	%rbp, %rbx
	movq	%rdx, 80(%rsp)
	call	_ZN4asio6detail18completion_handlerINS0_7binder1IZN7asiopal8Executor5StartERKNSt6chrono10time_pointINS5_3_V212steady_clockENS5_8durationIlSt5ratioILl1ELl1000000000EEEEEERKSt8functionIFvvEEEUlRKSt10error_codeE_SL_EEE3ptr5resetEv
.L1592:
	movq	%r12, %rdi
	call	_ZZN7asiopal8Executor5StartERKNSt6chrono10time_pointINS1_3_V212steady_clockENS1_8durationIlSt5ratioILl1ELl1000000000EEEEEERKSt8functionIFvvEEENUlRKSt10error_codeE_D1Ev
.L1503:
	leaq	224(%rsp), %rdi
	call	_ZZN7asiopal8Executor5StartERKNSt6chrono10time_pointINS1_3_V212steady_clockENS1_8durationIlSt5ratioILl1ELl1000000000EEEEEERKSt8functionIFvvEEENUlRKSt10error_codeE_D1Ev
.L1497:
	leaq	160(%rsp), %rdi
	call	_ZZN7asiopal8Executor5StartERKNSt6chrono10time_pointINS1_3_V212steady_clockENS1_8durationIlSt5ratioILl1ELl1000000000EEEEEERKSt8functionIFvvEEENUlRKSt10error_codeE_D1Ev
	jmp	.L1491
.L1545:
	movq	336(%rsp), %rax
	testq	%rax, %rax
	je	.L1546
	movl	$3, %edx
	movq	%r14, %rsi
	movq	%r14, %rdi
	call	*%rax
.L1546:
	movq	312(%rsp), %rdi
	testq	%rdi, %rdi
	je	.L1547
	call	_ZNSt16_Sp_counted_baseILN9__gnu_cxx12_Lock_policyE2EE10_M_releaseEv@PLT
.L1547:
	leaq	304(%rsp), %r14
	jmp	.L1548
.L1962:
.LEHB75:
	call	_ZSt25__throw_bad_function_callv@PLT
.LEHE75:
.L1762:
.L1959:
	sfence
	movq	%rax, %rbx
	leaq	384(%rsp), %r12
	jmp	.L1592
.L1494:
	movq	256(%rsp), %rax
	testq	%rax, %rax
	je	.L1495
	movl	$3, %edx
	movq	%rbp, %rsi
	movq	%rbp, %rdi
	call	*%rax
.L1495:
	movq	232(%rsp), %rdi
	testq	%rdi, %rdi
	je	.L1497
	call	_ZNSt16_Sp_counted_baseILN9__gnu_cxx12_Lock_policyE2EE10_M_releaseEv@PLT
	jmp	.L1497
.L1500:
	movq	416(%rsp), %rax
	testq	%rax, %rax
	je	.L1501
	movl	$3, %edx
	movq	%rbp, %rsi
	movq	%rbp, %rdi
	call	*%rax
.L1501:
	movq	392(%rsp), %rdi
	testq	%rdi, %rdi
	je	.L1503
	call	_ZNSt16_Sp_counted_baseILN9__gnu_cxx12_Lock_policyE2EE10_M_releaseEv@PLT
	jmp	.L1503
.L1516:
	movq	56(%rbx), %rax
	testq	%rax, %rax
	je	.L1517
	movl	$3, %edx
	movq	%r13, %rsi
	movq	%r13, %rdi
	call	*%rax
.L1517:
	movq	32(%rbx), %rdi
	testq	%rdi, %rdi
	je	.L1519
	call	_ZNSt16_Sp_counted_baseILN9__gnu_cxx12_Lock_policyE2EE10_M_releaseEv@PLT
	jmp	.L1519
.L1466:
	movq	768(%rsp), %rax
	testq	%rax, %rax
	je	.L1467
	movl	$3, %edx
	leaq	752(%rsp), %rsi
	leaq	752(%rsp), %rdi
	call	*%rax
.L1467:
	movq	744(%rsp), %rdi
	testq	%rdi, %rdi
	je	.L1970
	call	_ZNSt16_Sp_counted_baseILN9__gnu_cxx12_Lock_policyE2EE10_M_releaseEv@PLT
.L1970:
	movq	%rbp, %rbx
	jmp	.L1469
.L1461:
	movq	688(%rsp), %rax
	testq	%rax, %rax
	je	.L1462
	movl	$3, %edx
	leaq	672(%rsp), %rsi
	leaq	672(%rsp), %rdi
	call	*%rax
.L1462:
	movq	664(%rsp), %rdi
	testq	%rdi, %rdi
	je	.L1463
	call	_ZNSt16_Sp_counted_baseILN9__gnu_cxx12_Lock_policyE2EE10_M_releaseEv@PLT
.L1463:
	leaq	576(%rsp), %rdi
	call	_ZZN7asiopal8Executor5StartERKNSt6chrono10time_pointINS1_3_V212steady_clockENS1_8durationIlSt5ratioILl1ELl1000000000EEEEEERKSt8functionIFvvEEENUlRKSt10error_codeE_D1Ev
	jmp	.L1458
.L1643:
	movq	136(%rbx), %rax
	leaq	24(%rbx), %r14
	testq	%rax, %rax
	je	.L1644
	movl	$3, %edx
	movq	%r12, %rsi
	movq	%r12, %rdi
	call	*%rax
.L1644:
	movq	112(%rbx), %rdi
	testq	%rdi, %rdi
	jne	.L2021
.L1645:
	movq	%r14, %rdi
	call	_ZZN7asiopal8Executor5StartERKNSt6chrono10time_pointINS1_3_V212steady_clockENS1_8durationIlSt5ratioILl1ELl1000000000EEEEEERKSt8functionIFvvEEENUlRKSt10error_codeE_D1Ev
.L1640:
	xorl	%eax, %eax
	leaq	304(%rsp), %rdi
	movq	%rbx, 312(%rsp)
	movq	%rbp, %rbx
	movq	%rax, 320(%rsp)
	call	_ZN4asio6detail18completion_handlerINS0_17rewrapped_handlerINS0_7binder1INS0_15wrapped_handlerINS_10io_service6strandEZN7asiopal8Executor5StartERKNSt6chrono10time_pointINS9_3_V212steady_clockENS9_8durationIlSt5ratioILl1ELl1000000000EEEEEERKSt8functionIFvvEEEUlRKSt10error_codeE_NS0_26is_continuation_if_runningEEESP_EESS_EEE3ptr5resetEv
	jmp	.L1686
.L1450:
	movq	608(%rsp), %rax
	testq	%rax, %rax
	je	.L1451
	movl	$3, %edx
	leaq	592(%rsp), %rsi
	leaq	592(%rsp), %rdi
	call	*%rax
.L1451:
	movq	584(%rsp), %rdi
	testq	%rdi, %rdi
	je	.L1458
	call	_ZNSt16_Sp_counted_baseILN9__gnu_cxx12_Lock_policyE2EE10_M_releaseEv@PLT
	jmp	.L1458
.L2021:
	call	_ZNSt16_Sp_counted_baseILN9__gnu_cxx12_Lock_policyE2EE10_M_releaseEv@PLT
	jmp	.L1645
.L1433:
	movq	528(%rsp), %rax
	testq	%rax, %rax
	je	.L1434
	movl	$3, %edx
	leaq	512(%rsp), %rsi
	leaq	512(%rsp), %rdi
	call	*%rax
.L1434:
	movq	504(%rsp), %rdi
	testq	%rdi, %rdi
	je	.L1436
	call	_ZNSt16_Sp_counted_baseILN9__gnu_cxx12_Lock_policyE2EE10_M_releaseEv@PLT
	jmp	.L1436
.L1472:
	movq	848(%rsp), %rax
	testq	%rax, %rax
	je	.L1473
	movl	$3, %edx
	leaq	832(%rsp), %rsi
	leaq	832(%rsp), %rdi
	call	*%rax
.L1473:
	movq	824(%rsp), %rdi
	testq	%rdi, %rdi
	je	.L1474
	call	_ZNSt16_Sp_counted_baseILN9__gnu_cxx12_Lock_policyE2EE10_M_releaseEv@PLT
.L1474:
	leaq	736(%rsp), %rdi
	call	_ZZN7asiopal8Executor5StartERKNSt6chrono10time_pointINS1_3_V212steady_clockENS1_8durationIlSt5ratioILl1ELl1000000000EEEEEERKSt8functionIFvvEEENUlRKSt10error_codeE_D1Ev
	jmp	.L1970
.L1687:
	leaq	160(%rsp), %rdi
	xorl	%ebx, %ebx
	call	_ZN4asio6detail14strand_service16on_dispatch_exitD1Ev@PLT
	data16	leaq	_ZN4asio6detail15keyword_tss_ptrINS0_10call_stackINS0_14strand_service11strand_implEhE7contextEE6value_E@tlsgd(%rip), %rdi
	.value	0x6666
	rex64
	call	__tls_get_addr@PLT
	movq	400(%rsp), %rdx
	movq	%rdx, (%rax)
	jmp	.L1640
.L1637:
	movq	56(%rbx), %rax
	testq	%rax, %rax
	je	.L1638
	movl	$3, %edx
	movq	%r12, %rsi
	movq	%r12, %rdi
	call	*%rax
.L1638:
	movq	32(%rbx), %rdi
	testq	%rdi, %rdi
	je	.L1640
	call	_ZNSt16_Sp_counted_baseILN9__gnu_cxx12_Lock_policyE2EE10_M_releaseEv@PLT
	jmp	.L1640
	.cfi_endproc
.LFE8981:
	.section	.gcc_except_table
.LLSDAC8981:
	.byte	0xff
	.byte	0xff
	.byte	0x1
	.uleb128 .LLSDACSEC8981-.LLSDACSBC8981
.LLSDACSBC8981:
	.uleb128 .LEHB73-.LCOLDB35
	.uleb128 .LEHE73-.LEHB73
	.uleb128 .L1764-.LCOLDB35
	.uleb128 0
	.uleb128 .LEHB74-.LCOLDB35
	.uleb128 .LEHE74-.LEHB74
	.uleb128 0
	.uleb128 0
	.uleb128 .LEHB75-.LCOLDB35
	.uleb128 .LEHE75-.LEHB75
	.uleb128 .L1762-.LCOLDB35
	.uleb128 0
.LLSDACSEC8981:
	.section	.text.unlikely
	.text
	.size	_ZN4asio6detail12wait_handlerINS0_15wrapped_handlerINS_10io_service6strandEZN7asiopal8Executor5StartERKNSt6chrono10time_pointINS7_3_V212steady_clockENS7_8durationIlSt5ratioILl1ELl1000000000EEEEEERKSt8functionIFvvEEEUlRKSt10error_codeE_NS0_26is_continuation_if_runningEEEE11do_completeEPNS0_15task_io_serviceEPNS0_25task_io_service_operationESP_m, .-_ZN4asio6detail12wait_handlerINS0_15wrapped_handlerINS_10io_service6strandEZN7asiopal8Executor5StartERKNSt6chrono10time_pointINS7_3_V212steady_clockENS7_8durationIlSt5ratioILl1ELl1000000000EEEEEERKSt8functionIFvvEEEUlRKSt10error_codeE_NS0_26is_continuation_if_runningEEEE11do_completeEPNS0_15task_io_serviceEPNS0_25task_io_service_operationESP_m
	.section	.text.unlikely
	.size	_ZN4asio6detail12wait_handlerINS0_15wrapped_handlerINS_10io_service6strandEZN7asiopal8Executor5StartERKNSt6chrono10time_pointINS7_3_V212steady_clockENS7_8durationIlSt5ratioILl1ELl1000000000EEEEEERKSt8functionIFvvEEEUlRKSt10error_codeE_NS0_26is_continuation_if_runningEEEE11do_completeEPNS0_15task_io_serviceEPNS0_25task_io_service_operationESP_m.cold, .-_ZN4asio6detail12wait_handlerINS0_15wrapped_handlerINS_10io_service6strandEZN7asiopal8Executor5StartERKNSt6chrono10time_pointINS7_3_V212steady_clockENS7_8durationIlSt5ratioILl1ELl1000000000EEEEEERKSt8functionIFvvEEEUlRKSt10error_codeE_NS0_26is_continuation_if_runningEEEE11do_completeEPNS0_15task_io_serviceEPNS0_25task_io_service_operationESP_m.cold
.LCOLDE35:
	.text
.LHOTE35:
	.section	.rodata._ZNSt7promiseIbED2Ev.str1.1,"aMS",@progbits,1
.LC36:
	.string	"std::future_error: "
	.section	.text._ZNSt7promiseIbED2Ev,"axG",@progbits,_ZNSt7promiseIbED5Ev,comdat
	.align 2
	.p2align 4
	.weak	_ZNSt7promiseIbED2Ev
	.type	_ZNSt7promiseIbED2Ev, @function
_ZNSt7promiseIbED2Ev:
.LFB7872:
	.cfi_startproc
	.cfi_personality 0x9b,DW.ref.__gxx_personality_v0
	.cfi_lsda 0x1b,.LLSDA7872
	pushq	%r15
	.cfi_def_cfa_offset 16
	.cfi_offset 15, -16
	pushq	%r14
	.cfi_def_cfa_offset 24
	.cfi_offset 14, -24
	pushq	%r13
	.cfi_def_cfa_offset 32
	.cfi_offset 13, -32
	pushq	%r12
	.cfi_def_cfa_offset 40
	.cfi_offset 12, -40
	pushq	%rbp
	.cfi_def_cfa_offset 48
	.cfi_offset 6, -48
	movq	%rdi, %rbp
	pushq	%rbx
	.cfi_def_cfa_offset 56
	.cfi_offset 3, -56
	subq	$120, %rsp
	.cfi_def_cfa_offset 176
	movq	(%rdi), %r12
	testq	%r12, %r12
	je	.L2081
	movq	8(%rdi), %r13
	testq	%r13, %r13
	je	.L2025
	movl	8(%r13), %eax
	movq	16(%rdi), %rbx
	cmpl	$1, %eax
	je	.L2024
	movq	$0, 16(%rdi)
	testq	%rbx, %rbx
	je	.L2044
.L2080:
	call	_ZSt15future_categoryv@PLT
	leaq	48(%rsp), %rdi
	movl	$4, %edx
	movq	%rax, %r13
	movq	(%rax), %rax
	movq	%rdi, %r15
	movq	%r13, %rsi
	call	*32(%rax)
	movl	$19, %r8d
	xorl	%edx, %edx
	xorl	%esi, %esi
	leaq	.LC36(%rip), %rcx
	movq	%r15, %rdi
.LEHB76:
	call	_ZNSt7__cxx1112basic_stringIcSt11char_traitsIcESaIcEE10_M_replaceEmmPKcm@PLT
.LEHE76:
	leaq	96(%rsp), %rdx
	leaq	16(%rax), %rcx
	movq	%rdx, 80(%rsp)
	movq	(%rax), %rsi
	cmpq	%rcx, %rsi
	je	.L2083
	movq	%rsi, 80(%rsp)
	movq	16(%rax), %rsi
	movq	%rsi, 96(%rsp)
.L2034:
	movq	8(%rax), %rsi
	movq	%rcx, (%rax)
	leaq	16(%rsp), %rdi
	movq	$0, 8(%rax)
	movq	%rdi, %r14
	movq	%rsi, 88(%rsp)
	movb	$0, 16(%rax)
	leaq	80(%rsp), %rax
