	.file	"SerialChannel.cpp"
	.text
	.section	.rodata._ZNK4asio6detail15system_category4nameEv.str1.1,"aMS",@progbits,1
.LC0:
	.string	"asio.system"
	.section	.text._ZNK4asio6detail15system_category4nameEv,"axG",@progbits,_ZNK4asio6detail15system_category4nameEv,comdat
	.align 2
	.p2align 4
	.weak	_ZNK4asio6detail15system_category4nameEv
	.type	_ZNK4asio6detail15system_category4nameEv, @function
_ZNK4asio6detail15system_category4nameEv:
.LFB2285:
	.cfi_startproc
	leaq	.LC0(%rip), %rax
	ret
	.cfi_endproc
.LFE2285:
	.size	_ZNK4asio6detail15system_category4nameEv, .-_ZNK4asio6detail15system_category4nameEv
	.section	.rodata._ZNK4asio5error6detail14netdb_category4nameEv.str1.1,"aMS",@progbits,1
.LC1:
	.string	"asio.netdb"
	.section	.text._ZNK4asio5error6detail14netdb_category4nameEv,"axG",@progbits,_ZNK4asio5error6detail14netdb_category4nameEv,comdat
	.align 2
	.p2align 4
	.weak	_ZNK4asio5error6detail14netdb_category4nameEv
	.type	_ZNK4asio5error6detail14netdb_category4nameEv, @function
_ZNK4asio5error6detail14netdb_category4nameEv:
.LFB2329:
	.cfi_startproc
	leaq	.LC1(%rip), %rax
	ret
	.cfi_endproc
.LFE2329:
	.size	_ZNK4asio5error6detail14netdb_category4nameEv, .-_ZNK4asio5error6detail14netdb_category4nameEv
	.section	.rodata._ZNK4asio5error6detail17addrinfo_category4nameEv.str1.1,"aMS",@progbits,1
.LC2:
	.string	"asio.addrinfo"
	.section	.text._ZNK4asio5error6detail17addrinfo_category4nameEv,"axG",@progbits,_ZNK4asio5error6detail17addrinfo_category4nameEv,comdat
	.align 2
	.p2align 4
	.weak	_ZNK4asio5error6detail17addrinfo_category4nameEv
	.type	_ZNK4asio5error6detail17addrinfo_category4nameEv, @function
_ZNK4asio5error6detail17addrinfo_category4nameEv:
.LFB2339:
	.cfi_startproc
	leaq	.LC2(%rip), %rax
	ret
	.cfi_endproc
.LFE2339:
	.size	_ZNK4asio5error6detail17addrinfo_category4nameEv, .-_ZNK4asio5error6detail17addrinfo_category4nameEv
	.section	.rodata._ZNK4asio5error6detail13misc_category4nameEv.str1.1,"aMS",@progbits,1
.LC3:
	.string	"asio.misc"
	.section	.text._ZNK4asio5error6detail13misc_category4nameEv,"axG",@progbits,_ZNK4asio5error6detail13misc_category4nameEv,comdat
	.align 2
	.p2align 4
	.weak	_ZNK4asio5error6detail13misc_category4nameEv
	.type	_ZNK4asio5error6detail13misc_category4nameEv, @function
_ZNK4asio5error6detail13misc_category4nameEv:
.LFB2349:
	.cfi_startproc
	leaq	.LC3(%rip), %rax
	ret
	.cfi_endproc
.LFE2349:
	.size	_ZNK4asio5error6detail13misc_category4nameEv, .-_ZNK4asio5error6detail13misc_category4nameEv
	.section	.text._ZN4asio10io_service7service12fork_serviceENS0_10fork_eventE,"axG",@progbits,_ZN4asio10io_service7service12fork_serviceENS0_10fork_eventE,comdat
	.align 2
	.p2align 4
	.weak	_ZN4asio10io_service7service12fork_serviceENS0_10fork_eventE
	.type	_ZN4asio10io_service7service12fork_serviceENS0_10fork_eventE, @function
_ZN4asio10io_service7service12fork_serviceENS0_10fork_eventE:
.LFB3354:
	.cfi_startproc
	ret
	.cfi_endproc
.LFE3354:
	.size	_ZN4asio10io_service7service12fork_serviceENS0_10fork_eventE, .-_ZN4asio10io_service7service12fork_serviceENS0_10fork_eventE
	.section	.text._ZN4asio19serial_port_service16shutdown_serviceEv,"axG",@progbits,_ZN4asio19serial_port_service16shutdown_serviceEv,comdat
	.align 2
	.p2align 4
	.weak	_ZN4asio19serial_port_service16shutdown_serviceEv
	.type	_ZN4asio19serial_port_service16shutdown_serviceEv, @function
_ZN4asio19serial_port_service16shutdown_serviceEv:
.LFB4189:
	.cfi_startproc
	ret
	.cfi_endproc
.LFE4189:
	.size	_ZN4asio19serial_port_service16shutdown_serviceEv, .-_ZN4asio19serial_port_service16shutdown_serviceEv
	.section	.text._ZN4asio19serial_port_serviceD2Ev,"axG",@progbits,_ZN4asio19serial_port_serviceD5Ev,comdat
	.align 2
	.p2align 4
	.weak	_ZN4asio19serial_port_serviceD2Ev
	.type	_ZN4asio19serial_port_serviceD2Ev, @function
_ZN4asio19serial_port_serviceD2Ev:
.LFB9444:
	.cfi_startproc
	ret
	.cfi_endproc
.LFE9444:
	.size	_ZN4asio19serial_port_serviceD2Ev, .-_ZN4asio19serial_port_serviceD2Ev
	.weak	_ZN4asio19serial_port_serviceD1Ev
	.set	_ZN4asio19serial_port_serviceD1Ev,_ZN4asio19serial_port_serviceD2Ev
	.section	.text._ZN4asio19serial_port_serviceD0Ev,"axG",@progbits,_ZN4asio19serial_port_serviceD5Ev,comdat
	.align 2
	.p2align 4
	.weak	_ZN4asio19serial_port_serviceD0Ev
	.type	_ZN4asio19serial_port_serviceD0Ev, @function
_ZN4asio19serial_port_serviceD0Ev:
.LFB9446:
	.cfi_startproc
	movl	$48, %esi
	jmp	_ZdlPvm@PLT
	.cfi_endproc
.LFE9446:
	.size	_ZN4asio19serial_port_serviceD0Ev, .-_ZN4asio19serial_port_serviceD0Ev
	.section	.text._ZN4asio6detail15system_categoryD2Ev,"axG",@progbits,_ZN4asio6detail15system_categoryD5Ev,comdat
	.align 2
	.p2align 4
	.weak	_ZN4asio6detail15system_categoryD2Ev
	.type	_ZN4asio6detail15system_categoryD2Ev, @function
_ZN4asio6detail15system_categoryD2Ev:
.LFB2297:
	.cfi_startproc
	movq	_ZTVN4asio6detail15system_categoryE@GOTPCREL(%rip), %rax
	addq	$16, %rax
	movq	%rax, (%rdi)
	jmp	_ZNSt3_V214error_categoryD2Ev@PLT
	.cfi_endproc
.LFE2297:
	.size	_ZN4asio6detail15system_categoryD2Ev, .-_ZN4asio6detail15system_categoryD2Ev
	.weak	_ZN4asio6detail15system_categoryD1Ev
	.set	_ZN4asio6detail15system_categoryD1Ev,_ZN4asio6detail15system_categoryD2Ev
	.section	.text._ZN4asio6detail15system_categoryD0Ev,"axG",@progbits,_ZN4asio6detail15system_categoryD5Ev,comdat
	.align 2
	.p2align 4
	.weak	_ZN4asio6detail15system_categoryD0Ev
	.type	_ZN4asio6detail15system_categoryD0Ev, @function
_ZN4asio6detail15system_categoryD0Ev:
.LFB2299:
	.cfi_startproc
	subq	$24, %rsp
	.cfi_def_cfa_offset 32
	movq	_ZTVN4asio6detail15system_categoryE@GOTPCREL(%rip), %rax
	movq	%rdi, 8(%rsp)
	addq	$16, %rax
	movq	%rax, (%rdi)
	call	_ZNSt3_V214error_categoryD2Ev@PLT
	movq	8(%rsp), %rdi
	movl	$8, %esi
	addq	$24, %rsp
	.cfi_def_cfa_offset 8
	jmp	_ZdlPvm@PLT
	.cfi_endproc
.LFE2299:
	.size	_ZN4asio6detail15system_categoryD0Ev, .-_ZN4asio6detail15system_categoryD0Ev
	.section	.text._ZN4asio5error6detail13misc_categoryD2Ev,"axG",@progbits,_ZN4asio5error6detail13misc_categoryD5Ev,comdat
	.align 2
	.p2align 4
	.weak	_ZN4asio5error6detail13misc_categoryD2Ev
	.type	_ZN4asio5error6detail13misc_categoryD2Ev, @function
_ZN4asio5error6detail13misc_categoryD2Ev:
.LFB2356:
	.cfi_startproc
	movq	_ZTVN4asio5error6detail13misc_categoryE@GOTPCREL(%rip), %rax
	addq	$16, %rax
	movq	%rax, (%rdi)
	jmp	_ZNSt3_V214error_categoryD2Ev@PLT
	.cfi_endproc
.LFE2356:
	.size	_ZN4asio5error6detail13misc_categoryD2Ev, .-_ZN4asio5error6detail13misc_categoryD2Ev
	.weak	_ZN4asio5error6detail13misc_categoryD1Ev
	.set	_ZN4asio5error6detail13misc_categoryD1Ev,_ZN4asio5error6detail13misc_categoryD2Ev
	.section	.text._ZN4asio5error6detail13misc_categoryD0Ev,"axG",@progbits,_ZN4asio5error6detail13misc_categoryD5Ev,comdat
	.align 2
	.p2align 4
	.weak	_ZN4asio5error6detail13misc_categoryD0Ev
	.type	_ZN4asio5error6detail13misc_categoryD0Ev, @function
_ZN4asio5error6detail13misc_categoryD0Ev:
.LFB2358:
	.cfi_startproc
	subq	$24, %rsp
	.cfi_def_cfa_offset 32
	movq	_ZTVN4asio5error6detail13misc_categoryE@GOTPCREL(%rip), %rax
	movq	%rdi, 8(%rsp)
	addq	$16, %rax
	movq	%rax, (%rdi)
	call	_ZNSt3_V214error_categoryD2Ev@PLT
	movq	8(%rsp), %rdi
	movl	$8, %esi
	addq	$24, %rsp
	.cfi_def_cfa_offset 8
	jmp	_ZdlPvm@PLT
	.cfi_endproc
.LFE2358:
	.size	_ZN4asio5error6detail13misc_categoryD0Ev, .-_ZN4asio5error6detail13misc_categoryD0Ev
	.section	.text._ZN4asio5error6detail14netdb_categoryD2Ev,"axG",@progbits,_ZN4asio5error6detail14netdb_categoryD5Ev,comdat
	.align 2
	.p2align 4
	.weak	_ZN4asio5error6detail14netdb_categoryD2Ev
	.type	_ZN4asio5error6detail14netdb_categoryD2Ev, @function
_ZN4asio5error6detail14netdb_categoryD2Ev:
.LFB2336:
	.cfi_startproc
	movq	_ZTVN4asio5error6detail14netdb_categoryE@GOTPCREL(%rip), %rax
	addq	$16, %rax
	movq	%rax, (%rdi)
	jmp	_ZNSt3_V214error_categoryD2Ev@PLT
	.cfi_endproc
.LFE2336:
	.size	_ZN4asio5error6detail14netdb_categoryD2Ev, .-_ZN4asio5error6detail14netdb_categoryD2Ev
	.weak	_ZN4asio5error6detail14netdb_categoryD1Ev
	.set	_ZN4asio5error6detail14netdb_categoryD1Ev,_ZN4asio5error6detail14netdb_categoryD2Ev
	.section	.text._ZN4asio5error6detail14netdb_categoryD0Ev,"axG",@progbits,_ZN4asio5error6detail14netdb_categoryD5Ev,comdat
	.align 2
	.p2align 4
	.weak	_ZN4asio5error6detail14netdb_categoryD0Ev
	.type	_ZN4asio5error6detail14netdb_categoryD0Ev, @function
_ZN4asio5error6detail14netdb_categoryD0Ev:
.LFB2338:
	.cfi_startproc
	subq	$24, %rsp
	.cfi_def_cfa_offset 32
	movq	_ZTVN4asio5error6detail14netdb_categoryE@GOTPCREL(%rip), %rax
	movq	%rdi, 8(%rsp)
	addq	$16, %rax
	movq	%rax, (%rdi)
	call	_ZNSt3_V214error_categoryD2Ev@PLT
	movq	8(%rsp), %rdi
	movl	$8, %esi
	addq	$24, %rsp
	.cfi_def_cfa_offset 8
	jmp	_ZdlPvm@PLT
	.cfi_endproc
.LFE2338:
	.size	_ZN4asio5error6detail14netdb_categoryD0Ev, .-_ZN4asio5error6detail14netdb_categoryD0Ev
	.section	.text._ZN4asio5error6detail17addrinfo_categoryD2Ev,"axG",@progbits,_ZN4asio5error6detail17addrinfo_categoryD5Ev,comdat
	.align 2
	.p2align 4
	.weak	_ZN4asio5error6detail17addrinfo_categoryD2Ev
	.type	_ZN4asio5error6detail17addrinfo_categoryD2Ev, @function
_ZN4asio5error6detail17addrinfo_categoryD2Ev:
.LFB2346:
	.cfi_startproc
	movq	_ZTVN4asio5error6detail17addrinfo_categoryE@GOTPCREL(%rip), %rax
	addq	$16, %rax
	movq	%rax, (%rdi)
	jmp	_ZNSt3_V214error_categoryD2Ev@PLT
	.cfi_endproc
.LFE2346:
	.size	_ZN4asio5error6detail17addrinfo_categoryD2Ev, .-_ZN4asio5error6detail17addrinfo_categoryD2Ev
	.weak	_ZN4asio5error6detail17addrinfo_categoryD1Ev
	.set	_ZN4asio5error6detail17addrinfo_categoryD1Ev,_ZN4asio5error6detail17addrinfo_categoryD2Ev
	.section	.text._ZN4asio5error6detail17addrinfo_categoryD0Ev,"axG",@progbits,_ZN4asio5error6detail17addrinfo_categoryD5Ev,comdat
	.align 2
	.p2align 4
	.weak	_ZN4asio5error6detail17addrinfo_categoryD0Ev
	.type	_ZN4asio5error6detail17addrinfo_categoryD0Ev, @function
_ZN4asio5error6detail17addrinfo_categoryD0Ev:
.LFB2348:
	.cfi_startproc
	subq	$24, %rsp
	.cfi_def_cfa_offset 32
	movq	_ZTVN4asio5error6detail17addrinfo_categoryE@GOTPCREL(%rip), %rax
	movq	%rdi, 8(%rsp)
	addq	$16, %rax
	movq	%rax, (%rdi)
	call	_ZNSt3_V214error_categoryD2Ev@PLT
	movq	8(%rsp), %rdi
	movl	$8, %esi
	addq	$24, %rsp
	.cfi_def_cfa_offset 8
	jmp	_ZdlPvm@PLT
	.cfi_endproc
.LFE2348:
	.size	_ZN4asio5error6detail17addrinfo_categoryD0Ev, .-_ZN4asio5error6detail17addrinfo_categoryD0Ev
	.section	.text.unlikely,"ax",@progbits
	.align 2
	.type	_ZN4asio6detail18completion_handlerINS0_7binder2IZN7asiopal13SerialChannel13BeginReadImplEN7openpal6WSliceEEUlRKSt10error_codemE_S7_mEEE3ptr5resetEv, @function
_ZN4asio6detail18completion_handlerINS0_7binder2IZN7asiopal13SerialChannel13BeginReadImplEN7openpal6WSliceEEUlRKSt10error_codemE_S7_mEEE3ptr5resetEv:
.LFB9410:
	.cfi_startproc
	pushq	%rbp
	.cfi_def_cfa_offset 16
	.cfi_offset 6, -16
	pushq	%rbx
	.cfi_def_cfa_offset 24
	.cfi_offset 3, -24
	pushq	%rsi
	.cfi_def_cfa_offset 32
	cmpq	$0, 16(%rdi)
	je	.L23
	xorl	%ecx, %ecx
	movq	%rcx, 16(%rdi)
.L23:
	movq	8(%rdi), %rbp
	testq	%rbp, %rbp
	je	.L22
	movq	%rdi, %rbx
	data16	leaq	_ZN4asio6detail15keyword_tss_ptrINS0_10call_stackINS0_15task_io_serviceENS0_27task_io_service_thread_infoEE7contextEE6value_E@tlsgd(%rip), %rdi
	.value	0x6666
	rex64
	call	__tls_get_addr@PLT
	movq	(%rax), %rax
	testq	%rax, %rax
	je	.L25
	movq	8(%rax), %rax
	testq	%rax, %rax
	je	.L25
	cmpq	$0, (%rax)
	jne	.L25
	movb	56(%rbp), %dl
	movb	%dl, 0(%rbp)
	movq	%rbp, (%rax)
	jmp	.L26
.L25:
	movq	%rbp, %rdi
	call	_ZdlPv@PLT
.L26:
	xorl	%edx, %edx
	movq	%rdx, 8(%rbx)
.L22:
	popq	%rax
	.cfi_def_cfa_offset 24
	popq	%rbx
	.cfi_def_cfa_offset 16
	popq	%rbp
	.cfi_def_cfa_offset 8
	ret
	.cfi_endproc
.LFE9410:
	.size	_ZN4asio6detail18completion_handlerINS0_7binder2IZN7asiopal13SerialChannel13BeginReadImplEN7openpal6WSliceEEUlRKSt10error_codemE_S7_mEEE3ptr5resetEv, .-_ZN4asio6detail18completion_handlerINS0_7binder2IZN7asiopal13SerialChannel13BeginReadImplEN7openpal6WSliceEEUlRKSt10error_codemE_S7_mEEE3ptr5resetEv
	.align 2
	.type	_ZN4asio6detail18completion_handlerINS0_17rewrapped_handlerINS0_7binder2INS0_15wrapped_handlerINS_10io_service6strandEZN7asiopal13SerialChannel13BeginReadImplEN7openpal6WSliceEEUlRKSt10error_codemE_NS0_26is_continuation_if_runningEEESB_mEESE_EEE3ptr5resetEv, @function
_ZN4asio6detail18completion_handlerINS0_17rewrapped_handlerINS0_7binder2INS0_15wrapped_handlerINS_10io_service6strandEZN7asiopal13SerialChannel13BeginReadImplEN7openpal6WSliceEEUlRKSt10error_codemE_NS0_26is_continuation_if_runningEEESB_mEESE_EEE3ptr5resetEv:
.LFB9324:
	.cfi_startproc
	pushq	%rbp
	.cfi_def_cfa_offset 16
	.cfi_offset 6, -16
	pushq	%rbx
	.cfi_def_cfa_offset 24
	.cfi_offset 3, -24
	pushq	%rsi
	.cfi_def_cfa_offset 32
	cmpq	$0, 16(%rdi)
	je	.L38
	xorl	%ecx, %ecx
	movq	%rcx, 16(%rdi)
.L38:
	movq	8(%rdi), %rbp
	testq	%rbp, %rbp
	je	.L37
	movq	%rdi, %rbx
	data16	leaq	_ZN4asio6detail15keyword_tss_ptrINS0_10call_stackINS0_15task_io_serviceENS0_27task_io_service_thread_infoEE7contextEE6value_E@tlsgd(%rip), %rdi
	.value	0x6666
	rex64
	call	__tls_get_addr@PLT
	movq	(%rax), %rax
	testq	%rax, %rax
	je	.L40
	movq	8(%rax), %rax
	testq	%rax, %rax
	je	.L40
	cmpq	$0, (%rax)
	jne	.L40
	movb	80(%rbp), %dl
	movb	%dl, 0(%rbp)
	movq	%rbp, (%rax)
	jmp	.L41
.L40:
	movq	%rbp, %rdi
	call	_ZdlPv@PLT
.L41:
	xorl	%edx, %edx
	movq	%rdx, 8(%rbx)
.L37:
	popq	%rax
	.cfi_def_cfa_offset 24
	popq	%rbx
	.cfi_def_cfa_offset 16
	popq	%rbp
	.cfi_def_cfa_offset 8
	ret
	.cfi_endproc
.LFE9324:
	.size	_ZN4asio6detail18completion_handlerINS0_17rewrapped_handlerINS0_7binder2INS0_15wrapped_handlerINS_10io_service6strandEZN7asiopal13SerialChannel13BeginReadImplEN7openpal6WSliceEEUlRKSt10error_codemE_NS0_26is_continuation_if_runningEEESB_mEESE_EEE3ptr5resetEv, .-_ZN4asio6detail18completion_handlerINS0_17rewrapped_handlerINS0_7binder2INS0_15wrapped_handlerINS_10io_service6strandEZN7asiopal13SerialChannel13BeginReadImplEN7openpal6WSliceEEUlRKSt10error_codemE_NS0_26is_continuation_if_runningEEESB_mEESE_EEE3ptr5resetEv
	.align 2
	.type	_ZN4asio6detail18completion_handlerINS0_7binder2IZN7asiopal13SerialChannel14BeginWriteImplERKN7openpal6RSliceEEUlRKSt10error_codemE_S9_mEEE3ptr5resetEv, @function
_ZN4asio6detail18completion_handlerINS0_7binder2IZN7asiopal13SerialChannel14BeginWriteImplERKN7openpal6RSliceEEUlRKSt10error_codemE_S9_mEEE3ptr5resetEv:
.LFB9213:
	.cfi_startproc
	pushq	%rbp
	.cfi_def_cfa_offset 16
	.cfi_offset 6, -16
	pushq	%rbx
	.cfi_def_cfa_offset 24
	.cfi_offset 3, -24
	pushq	%rsi
	.cfi_def_cfa_offset 32
	cmpq	$0, 16(%rdi)
	je	.L53
	xorl	%ecx, %ecx
	movq	%rcx, 16(%rdi)
.L53:
	movq	8(%rdi), %rbp
	testq	%rbp, %rbp
	je	.L52
	movq	%rdi, %rbx
	data16	leaq	_ZN4asio6detail15keyword_tss_ptrINS0_10call_stackINS0_15task_io_serviceENS0_27task_io_service_thread_infoEE7contextEE6value_E@tlsgd(%rip), %rdi
	.value	0x6666
	rex64
	call	__tls_get_addr@PLT
	movq	(%rax), %rax
	testq	%rax, %rax
	je	.L55
	movq	8(%rax), %rax
	testq	%rax, %rax
	je	.L55
	cmpq	$0, (%rax)
	jne	.L55
	movb	56(%rbp), %dl
	movb	%dl, 0(%rbp)
	movq	%rbp, (%rax)
	jmp	.L56
.L55:
	movq	%rbp, %rdi
	call	_ZdlPv@PLT
.L56:
	xorl	%edx, %edx
	movq	%rdx, 8(%rbx)
.L52:
	popq	%rax
	.cfi_def_cfa_offset 24
	popq	%rbx
	.cfi_def_cfa_offset 16
	popq	%rbp
	.cfi_def_cfa_offset 8
	ret
	.cfi_endproc
.LFE9213:
	.size	_ZN4asio6detail18completion_handlerINS0_7binder2IZN7asiopal13SerialChannel14BeginWriteImplERKN7openpal6RSliceEEUlRKSt10error_codemE_S9_mEEE3ptr5resetEv, .-_ZN4asio6detail18completion_handlerINS0_7binder2IZN7asiopal13SerialChannel14BeginWriteImplERKN7openpal6RSliceEEUlRKSt10error_codemE_S9_mEEE3ptr5resetEv
	.align 2
	.type	_ZN4asio6detail18descriptor_read_opINS_17mutable_buffers_1ENS0_15wrapped_handlerINS_10io_service6strandEZN7asiopal13SerialChannel13BeginReadImplEN7openpal6WSliceEEUlRKSt10error_codemE_NS0_26is_continuation_if_runningEEEE3ptr5resetEv, @function
_ZN4asio6detail18descriptor_read_opINS_17mutable_buffers_1ENS0_15wrapped_handlerINS_10io_service6strandEZN7asiopal13SerialChannel13BeginReadImplEN7openpal6WSliceEEUlRKSt10error_codemE_NS0_26is_continuation_if_runningEEEE3ptr5resetEv:
.LFB9094:
	.cfi_startproc
	pushq	%rbp
	.cfi_def_cfa_offset 16
	.cfi_offset 6, -16
	pushq	%rbx
	.cfi_def_cfa_offset 24
	.cfi_offset 3, -24
	pushq	%rsi
	.cfi_def_cfa_offset 32
	cmpq	$0, 16(%rdi)
	je	.L68
	xorl	%ecx, %ecx
	movq	%rcx, 16(%rdi)
.L68:
	movq	8(%rdi), %rbp
	testq	%rbp, %rbp
	je	.L67
	movq	%rdi, %rbx
	data16	leaq	_ZN4asio6detail15keyword_tss_ptrINS0_10call_stackINS0_15task_io_serviceENS0_27task_io_service_thread_infoEE7contextEE6value_E@tlsgd(%rip), %rdi
	.value	0x6666
	rex64
	call	__tls_get_addr@PLT
	movq	(%rax), %rax
	testq	%rax, %rax
	je	.L70
	movq	8(%rax), %rax
	testq	%rax, %rax
	je	.L70
	cmpq	$0, (%rax)
	jne	.L70
	movb	104(%rbp), %dl
	movb	%dl, 0(%rbp)
	movq	%rbp, (%rax)
	jmp	.L71
.L70:
	movq	%rbp, %rdi
	call	_ZdlPv@PLT
.L71:
	xorl	%edx, %edx
	movq	%rdx, 8(%rbx)
.L67:
	popq	%rax
	.cfi_def_cfa_offset 24
	popq	%rbx
	.cfi_def_cfa_offset 16
	popq	%rbp
	.cfi_def_cfa_offset 8
	ret
	.cfi_endproc
.LFE9094:
	.size	_ZN4asio6detail18descriptor_read_opINS_17mutable_buffers_1ENS0_15wrapped_handlerINS_10io_service6strandEZN7asiopal13SerialChannel13BeginReadImplEN7openpal6WSliceEEUlRKSt10error_codemE_NS0_26is_continuation_if_runningEEEE3ptr5resetEv, .-_ZN4asio6detail18descriptor_read_opINS_17mutable_buffers_1ENS0_15wrapped_handlerINS_10io_service6strandEZN7asiopal13SerialChannel13BeginReadImplEN7openpal6WSliceEEUlRKSt10error_codemE_NS0_26is_continuation_if_runningEEEE3ptr5resetEv
	.align 2
	.type	_ZN4asio6detail19descriptor_write_opINS_15const_buffers_1ENS0_8write_opINS_17basic_serial_portINS_19serial_port_serviceEEES2_NS0_14transfer_all_tENS0_15wrapped_handlerINS_10io_service6strandEZN7asiopal13SerialChannel14BeginWriteImplERKN7openpal6RSliceEEUlRKSt10error_codemE_NS0_26is_continuation_if_runningEEEEEE3ptr5resetEv, @function
_ZN4asio6detail19descriptor_write_opINS_15const_buffers_1ENS0_8write_opINS_17basic_serial_portINS_19serial_port_serviceEEES2_NS0_14transfer_all_tENS0_15wrapped_handlerINS_10io_service6strandEZN7asiopal13SerialChannel14BeginWriteImplERKN7openpal6RSliceEEUlRKSt10error_codemE_NS0_26is_continuation_if_runningEEEEEE3ptr5resetEv:
.LFB9240:
	.cfi_startproc
	pushq	%rbp
	.cfi_def_cfa_offset 16
	.cfi_offset 6, -16
	pushq	%rbx
	.cfi_def_cfa_offset 24
	.cfi_offset 3, -24
	pushq	%rsi
	.cfi_def_cfa_offset 32
	cmpq	$0, 16(%rdi)
	je	.L83
	xorl	%ecx, %ecx
	movq	%rcx, 16(%rdi)
.L83:
	movq	8(%rdi), %rbp
	testq	%rbp, %rbp
	je	.L82
	movq	%rdi, %rbx
	data16	leaq	_ZN4asio6detail15keyword_tss_ptrINS0_10call_stackINS0_15task_io_serviceENS0_27task_io_service_thread_infoEE7contextEE6value_E@tlsgd(%rip), %rdi
	.value	0x6666
	rex64
	call	__tls_get_addr@PLT
	movq	(%rax), %rax
	testq	%rax, %rax
	je	.L85
	movq	8(%rax), %rax
	testq	%rax, %rax
	je	.L85
	cmpq	$0, (%rax)
	jne	.L85
	movb	144(%rbp), %dl
	movb	%dl, 0(%rbp)
	movq	%rbp, (%rax)
	jmp	.L86
.L85:
	movq	%rbp, %rdi
	call	_ZdlPv@PLT
.L86:
	xorl	%edx, %edx
	movq	%rdx, 8(%rbx)
.L82:
	popq	%rax
	.cfi_def_cfa_offset 24
	popq	%rbx
	.cfi_def_cfa_offset 16
	popq	%rbp
	.cfi_def_cfa_offset 8
	ret
	.cfi_endproc
.LFE9240:
	.size	_ZN4asio6detail19descriptor_write_opINS_15const_buffers_1ENS0_8write_opINS_17basic_serial_portINS_19serial_port_serviceEEES2_NS0_14transfer_all_tENS0_15wrapped_handlerINS_10io_service6strandEZN7asiopal13SerialChannel14BeginWriteImplERKN7openpal6RSliceEEUlRKSt10error_codemE_NS0_26is_continuation_if_runningEEEEEE3ptr5resetEv, .-_ZN4asio6detail19descriptor_write_opINS_15const_buffers_1ENS0_8write_opINS_17basic_serial_portINS_19serial_port_serviceEEES2_NS0_14transfer_all_tENS0_15wrapped_handlerINS_10io_service6strandEZN7asiopal13SerialChannel14BeginWriteImplERKN7openpal6RSliceEEUlRKSt10error_codemE_NS0_26is_continuation_if_runningEEEEEE3ptr5resetEv
	.section	.text._ZN4asio6detail13epoll_reactorD2Ev,"axG",@progbits,_ZN4asio6detail13epoll_reactorD5Ev,comdat
	.align 2
	.p2align 4
	.weak	_ZN4asio6detail13epoll_reactorD2Ev
	.type	_ZN4asio6detail13epoll_reactorD2Ev, @function
_ZN4asio6detail13epoll_reactorD2Ev:
.LFB3231:
	.cfi_startproc
	.cfi_personality 0x9b,DW.ref.__gxx_personality_v0
	.cfi_lsda 0x1b,.LLSDA3231
	pushq	%r15
	.cfi_def_cfa_offset 16
	.cfi_offset 15, -16
	pushq	%r14
	.cfi_def_cfa_offset 24
	.cfi_offset 14, -24
	pushq	%r13
	.cfi_def_cfa_offset 32
	.cfi_offset 13, -32
	pushq	%r12
	.cfi_def_cfa_offset 40
	.cfi_offset 12, -40
	pushq	%rbp
	.cfi_def_cfa_offset 48
	.cfi_offset 6, -48
	pushq	%rbx
	.cfi_def_cfa_offset 56
	.cfi_offset 3, -56
	subq	$40, %rsp
	.cfi_def_cfa_offset 96
	movq	_ZTVN4asio6detail13epoll_reactorE@GOTPCREL(%rip), %rax
	movq	%rdi, 8(%rsp)
	addq	$16, %rax
	movq	%rax, (%rdi)
	movl	96(%rdi), %edi
	cmpl	$-1, %edi
	je	.L98
	call	close@PLT
.L98:
	movq	8(%rsp), %rax
	movl	100(%rax), %edi
	cmpl	$-1, %edi
	je	.L99
	call	close@PLT
.L99:
	movq	8(%rsp), %rax
	leaq	16(%rsp), %rbp
	movq	160(%rax), %r13
	testq	%r13, %r13
	je	.L110
	.p2align 4
	.p2align 3
.L100:
	movq	%r13, %r12
	movq	24(%r13), %r13
	leaq	128(%r12), %r15
	leaq	80(%r12), %r14
.L105:
	movq	(%r15), %rsi
	testq	%rsi, %rsi
	je	.L108
	movq	%rsi, (%rsp)
	call	_ZNSt3_V215system_categoryEv@PLT
	movq	(%rsp), %rsi
	movq	%rax, %rbx
	jmp	.L109
	.p2align 4,,10
	.p2align 3
.L106:
	movq	$0, (%rsi)
	movq	8(%rsi), %rax
	xorl	%ecx, %ecx
	movq	%rbp, %rdx
	movl	$0, 16(%rsp)
	xorl	%edi, %edi
	movq	%rbx, 24(%rsp)
	call	*%rax
	movq	(%r15), %rsi
	testq	%rsi, %rsi
	je	.L108
.L109:
	movq	(%rsi), %rax
	movq	%rax, (%r15)
	testq	%rax, %rax
	jne	.L106
	movq	$0, 8(%r15)
	jmp	.L106
	.p2align 4,,10
	.p2align 3
.L108:
	subq	$16, %r15
	cmpq	%r14, %r15
	jne	.L105
	leaq	40(%r12), %rdi
	call	pthread_mutex_destroy@PLT
	movl	$152, %esi
	movq	%r12, %rdi
	call	_ZdlPvm@PLT
	testq	%r13, %r13
	jne	.L100
.L110:
	movq	8(%rsp), %rax
	leaq	16(%rsp), %rbp
	movq	168(%rax), %r13
	testq	%r13, %r13
	je	.L102
	.p2align 4
	.p2align 3
.L101:
	movq	%r13, %r12
	movq	24(%r13), %r13
	leaq	128(%r12), %r15
	leaq	80(%r12), %r14
.L115:
	movq	(%r15), %rsi
	testq	%rsi, %rsi
	je	.L118
	movq	%rsi, (%rsp)
	call	_ZNSt3_V215system_categoryEv@PLT
	movq	(%rsp), %rsi
	movq	%rax, %rbx
	jmp	.L119
	.p2align 4,,10
	.p2align 3
.L116:
	movq	$0, (%rsi)
	movq	8(%rsi), %rax
	xorl	%ecx, %ecx
	movq	%rbp, %rdx
	movl	$0, 16(%rsp)
	xorl	%edi, %edi
	movq	%rbx, 24(%rsp)
	call	*%rax
	movq	(%r15), %rsi
	testq	%rsi, %rsi
	je	.L118
.L119:
	movq	(%rsi), %rax
	movq	%rax, (%r15)
	testq	%rax, %rax
	jne	.L116
	movq	$0, 8(%r15)
	jmp	.L116
	.p2align 4,,10
	.p2align 3
.L118:
	subq	$16, %r15
	cmpq	%r14, %r15
	jne	.L115
	leaq	40(%r12), %rdi
	call	pthread_mutex_destroy@PLT
	movl	$152, %esi
	movq	%r12, %rdi
	call	_ZdlPvm@PLT
	testq	%r13, %r13
	jne	.L101
.L102:
	movq	8(%rsp), %rbx
	leaq	120(%rbx), %rdi
	call	pthread_mutex_destroy@PLT
	movl	92(%rbx), %eax
	cmpl	$-1, %eax
	je	.L112
	movq	8(%rsp), %rdx
	movl	88(%rdx), %edi
	cmpl	%edi, %eax
	jne	.L144
.L120:
	call	close@PLT
	jmp	.L121
.L144:
	movl	%eax, %edi
	call	close@PLT
.L112:
	movq	8(%rsp), %rax
	movl	88(%rax), %edi
	cmpl	$-1, %edi
	jne	.L120
.L121:
	movq	8(%rsp), %rdi
	addq	$40, %rsp
	.cfi_def_cfa_offset 56
	popq	%rbx
	.cfi_def_cfa_offset 48
	popq	%rbp
	.cfi_def_cfa_offset 40
	addq	$48, %rdi
	popq	%r12
	.cfi_def_cfa_offset 32
	popq	%r13
	.cfi_def_cfa_offset 24
	popq	%r14
	.cfi_def_cfa_offset 16
	popq	%r15
	.cfi_def_cfa_offset 8
.LEHB0:
	jmp	pthread_mutex_destroy@PLT
.LEHE0:
	.cfi_endproc
.LFE3231:
	.section	.gcc_except_table._ZN4asio6detail13epoll_reactorD2Ev,"aG",@progbits,_ZN4asio6detail13epoll_reactorD5Ev,comdat
.LLSDA3231:
	.byte	0xff
	.byte	0xff
	.byte	0x1
	.uleb128 .LLSDACSE3231-.LLSDACSB3231
.LLSDACSB3231:
	.uleb128 .LEHB0-.LFB3231
	.uleb128 .LEHE0-.LEHB0
	.uleb128 0
	.uleb128 0
.LLSDACSE3231:
	.section	.text._ZN4asio6detail13epoll_reactorD2Ev,"axG",@progbits,_ZN4asio6detail13epoll_reactorD5Ev,comdat
	.size	_ZN4asio6detail13epoll_reactorD2Ev, .-_ZN4asio6detail13epoll_reactorD2Ev
	.weak	_ZN4asio6detail13epoll_reactorD1Ev
	.set	_ZN4asio6detail13epoll_reactorD1Ev,_ZN4asio6detail13epoll_reactorD2Ev
	.section	.text._ZN4asio6detail13epoll_reactorD0Ev,"axG",@progbits,_ZN4asio6detail13epoll_reactorD5Ev,comdat
	.align 2
	.p2align 4
	.weak	_ZN4asio6detail13epoll_reactorD0Ev
	.type	_ZN4asio6detail13epoll_reactorD0Ev, @function
_ZN4asio6detail13epoll_reactorD0Ev:
.LFB3233:
	.cfi_startproc
	.cfi_personality 0x9b,DW.ref.__gxx_personality_v0
	.cfi_lsda 0x1b,.LLSDA3233
	pushq	%r15
	.cfi_def_cfa_offset 16
	.cfi_offset 15, -16
	pushq	%r14
	.cfi_def_cfa_offset 24
	.cfi_offset 14, -24
	pushq	%r13
	.cfi_def_cfa_offset 32
	.cfi_offset 13, -32
	pushq	%r12
	.cfi_def_cfa_offset 40
	.cfi_offset 12, -40
	pushq	%rbp
	.cfi_def_cfa_offset 48
	.cfi_offset 6, -48
	pushq	%rbx
	.cfi_def_cfa_offset 56
	.cfi_offset 3, -56
	subq	$40, %rsp
	.cfi_def_cfa_offset 96
	movq	_ZTVN4asio6detail13epoll_reactorE@GOTPCREL(%rip), %rax
	movq	%rdi, 8(%rsp)
	addq	$16, %rax
	movq	%rax, (%rdi)
	movl	96(%rdi), %edi
	cmpl	$-1, %edi
	je	.L146
	call	close@PLT
.L146:
	movq	8(%rsp), %rax
	movl	100(%rax), %edi
	cmpl	$-1, %edi
	je	.L147
	call	close@PLT
.L147:
	movq	8(%rsp), %rax
	leaq	16(%rsp), %rbp
	movq	160(%rax), %r13
	testq	%r13, %r13
	je	.L158
	.p2align 4
	.p2align 3
.L148:
	movq	%r13, %r12
	movq	24(%r13), %r13
	leaq	128(%r12), %r15
	leaq	80(%r12), %r14
.L153:
	movq	(%r15), %rsi
	testq	%rsi, %rsi
	je	.L156
	movq	%rsi, (%rsp)
	call	_ZNSt3_V215system_categoryEv@PLT
	movq	(%rsp), %rsi
	movq	%rax, %rbx
	jmp	.L157
	.p2align 4,,10
	.p2align 3
.L154:
	movq	$0, (%rsi)
	movq	8(%rsi), %rax
	xorl	%ecx, %ecx
	movq	%rbp, %rdx
	movl	$0, 16(%rsp)
	xorl	%edi, %edi
	movq	%rbx, 24(%rsp)
	call	*%rax
	movq	(%r15), %rsi
	testq	%rsi, %rsi
	je	.L156
.L157:
	movq	(%rsi), %rax
	movq	%rax, (%r15)
	testq	%rax, %rax
	jne	.L154
	movq	$0, 8(%r15)
	jmp	.L154
	.p2align 4,,10
	.p2align 3
.L156:
	subq	$16, %r15
	cmpq	%r14, %r15
	jne	.L153
	leaq	40(%r12), %rdi
	call	pthread_mutex_destroy@PLT
	movl	$152, %esi
	movq	%r12, %rdi
	call	_ZdlPvm@PLT
	testq	%r13, %r13
	jne	.L148
.L158:
	movq	8(%rsp), %rax
	leaq	16(%rsp), %rbp
	movq	168(%rax), %r13
	testq	%r13, %r13
	je	.L150
	.p2align 4
	.p2align 3
.L149:
	movq	%r13, %r12
	movq	24(%r13), %r13
	leaq	128(%r12), %r15
	leaq	80(%r12), %r14
.L163:
	movq	(%r15), %rsi
	testq	%rsi, %rsi
	je	.L166
	movq	%rsi, (%rsp)
	call	_ZNSt3_V215system_categoryEv@PLT
	movq	(%rsp), %rsi
	movq	%rax, %rbx
	jmp	.L167
	.p2align 4,,10
	.p2align 3
.L164:
	movq	$0, (%rsi)
	movq	8(%rsi), %rax
	xorl	%ecx, %ecx
	movq	%rbp, %rdx
	movl	$0, 16(%rsp)
	xorl	%edi, %edi
	movq	%rbx, 24(%rsp)
	call	*%rax
	movq	(%r15), %rsi
	testq	%rsi, %rsi
	je	.L166
.L167:
	movq	(%rsi), %rax
	movq	%rax, (%r15)
	testq	%rax, %rax
	jne	.L164
	movq	$0, 8(%r15)
	jmp	.L164
	.p2align 4,,10
	.p2align 3
.L166:
	subq	$16, %r15
	cmpq	%r14, %r15
	jne	.L163
	leaq	40(%r12), %rdi
	call	pthread_mutex_destroy@PLT
	movl	$152, %esi
	movq	%r12, %rdi
	call	_ZdlPvm@PLT
	testq	%r13, %r13
	jne	.L149
.L150:
	movq	8(%rsp), %rbx
	leaq	120(%rbx), %rdi
	call	pthread_mutex_destroy@PLT
	movl	92(%rbx), %eax
	cmpl	$-1, %eax
	je	.L160
	movq	8(%rsp), %rdx
	movl	88(%rdx), %edi
	cmpl	%edi, %eax
	jne	.L192
.L168:
	call	close@PLT
	jmp	.L169
.L192:
	movl	%eax, %edi
	call	close@PLT
.L160:
	movq	8(%rsp), %rax
	movl	88(%rax), %edi
	cmpl	$-1, %edi
	jne	.L168
.L169:
	movq	8(%rsp), %rbx
	leaq	48(%rbx), %rdi
	call	pthread_mutex_destroy@PLT
	addq	$40, %rsp
	.cfi_def_cfa_offset 56
	movq	%rbx, %rdi
	movl	$176, %esi
	popq	%rbx
	.cfi_def_cfa_offset 48
	popq	%rbp
	.cfi_def_cfa_offset 40
	popq	%r12
	.cfi_def_cfa_offset 32
	popq	%r13
	.cfi_def_cfa_offset 24
	popq	%r14
	.cfi_def_cfa_offset 16
	popq	%r15
	.cfi_def_cfa_offset 8
.LEHB1:
	jmp	_ZdlPvm@PLT
.LEHE1:
	.cfi_endproc
.LFE3233:
	.section	.gcc_except_table._ZN4asio6detail13epoll_reactorD0Ev,"aG",@progbits,_ZN4asio6detail13epoll_reactorD5Ev,comdat
.LLSDA3233:
	.byte	0xff
	.byte	0xff
	.byte	0x1
	.uleb128 .LLSDACSE3233-.LLSDACSB3233
.LLSDACSB3233:
	.uleb128 .LEHB1-.LFB3233
	.uleb128 .LEHE1-.LEHB1
	.uleb128 0
	.uleb128 0
.LLSDACSE3233:
	.section	.text._ZN4asio6detail13epoll_reactorD0Ev,"axG",@progbits,_ZN4asio6detail13epoll_reactorD5Ev,comdat
	.size	_ZN4asio6detail13epoll_reactorD0Ev, .-_ZN4asio6detail13epoll_reactorD0Ev
	.section	.text.unlikely
.LCOLDB4:
	.text
.LHOTB4:
	.p2align 4
	.type	_ZN4asio6detail18completion_handlerINS0_7binder2IZN7asiopal13SerialChannel13BeginReadImplEN7openpal6WSliceEEUlRKSt10error_codemE_S7_mEEE11do_completeEPNS0_15task_io_serviceEPNS0_25task_io_service_operationES9_m, @function
_ZN4asio6detail18completion_handlerINS0_7binder2IZN7asiopal13SerialChannel13BeginReadImplEN7openpal6WSliceEEUlRKSt10error_codemE_S7_mEEE11do_completeEPNS0_15task_io_serviceEPNS0_25task_io_service_operationES9_m:
.LFB9405:
	.cfi_startproc
	.cfi_personality 0x9b,DW.ref.__gxx_personality_v0
	.cfi_lsda 0x1b,.LLSDA9405
	pushq	%rbp
	.cfi_def_cfa_offset 16
	.cfi_offset 6, -16
	movq	%rdi, %rbp
	pushq	%rbx
	.cfi_def_cfa_offset 24
	.cfi_offset 3, -24
	movq	%rsi, %rbx
	subq	$72, %rsp
	.cfi_def_cfa_offset 96
	movdqu	24(%rsi), %xmm0
	leaq	32(%rsp), %rax
	movaps	%xmm0, 32(%rsp)
	movdqu	40(%rsi), %xmm0
	movq	%rax, (%rsp)
	movaps	%xmm0, 48(%rsp)
	data16	leaq	_ZN4asio6detail15keyword_tss_ptrINS0_10call_stackINS0_15task_io_serviceENS0_27task_io_service_thread_infoEE7contextEE6value_E@tlsgd(%rip), %rdi
	.value	0x6666
	rex64
	call	__tls_get_addr@PLT
	movq	(%rax), %rax
	testq	%rax, %rax
	je	.L211
	movq	8(%rax), %rax
	testq	%rax, %rax
	je	.L211
	cmpq	$0, (%rax)
	je	.L212
.L211:
	movq	%rbx, %rdi
	call	_ZdlPv@PLT
.L210:
	testq	%rbp, %rbp
	je	.L193
	movq	32(%rsp), %rax
	movq	56(%rsp), %rdx
	movq	40(%rax), %rdi
	movb	$0, 57(%rax)
	testq	%rdi, %rdi
	je	.L198
	cmpb	$0, 56(%rax)
	je	.L213
.L198:
	sfence
.L193:
	addq	$72, %rsp
	.cfi_remember_state
	.cfi_def_cfa_offset 24
	popq	%rbx
	.cfi_def_cfa_offset 16
	popq	%rbp
	.cfi_def_cfa_offset 8
	ret
	.p2align 4,,10
	.p2align 3
.L213:
	.cfi_restore_state
	movq	(%rdi), %rax
	leaq	40(%rsp), %rsi
.LEHB2:
	call	*16(%rax)
.LEHE2:
	jmp	.L198
	.p2align 4,,10
	.p2align 3
.L212:
	movzbl	56(%rbx), %edx
	movb	%dl, (%rbx)
	movq	%rbx, (%rax)
	jmp	.L210
.L202:
	movq	%rax, %rbx
	jmp	.L201
	.section	.gcc_except_table,"a",@progbits
.LLSDA9405:
	.byte	0xff
	.byte	0xff
	.byte	0x1
	.uleb128 .LLSDACSE9405-.LLSDACSB9405
.LLSDACSB9405:
	.uleb128 .LEHB2-.LFB9405
	.uleb128 .LEHE2-.LEHB2
	.uleb128 .L202-.LFB9405
	.uleb128 0
.LLSDACSE9405:
	.text
	.cfi_endproc
	.section	.text.unlikely
	.cfi_startproc
	.cfi_personality 0x9b,DW.ref.__gxx_personality_v0
	.cfi_lsda 0x1b,.LLSDAC9405
	.type	_ZN4asio6detail18completion_handlerINS0_7binder2IZN7asiopal13SerialChannel13BeginReadImplEN7openpal6WSliceEEUlRKSt10error_codemE_S7_mEEE11do_completeEPNS0_15task_io_serviceEPNS0_25task_io_service_operationES9_m.cold, @function
_ZN4asio6detail18completion_handlerINS0_7binder2IZN7asiopal13SerialChannel13BeginReadImplEN7openpal6WSliceEEUlRKSt10error_codemE_S7_mEEE11do_completeEPNS0_15task_io_serviceEPNS0_25task_io_service_operationES9_m.cold:
.LFSB9405:
.L201:
	.cfi_def_cfa_offset 96
	.cfi_offset 3, -24
	.cfi_offset 6, -16
	sfence
	pxor	%xmm0, %xmm0
	movq	%rsp, %rdi
	movups	%xmm0, 8(%rsp)
	call	_ZN4asio6detail18completion_handlerINS0_7binder2IZN7asiopal13SerialChannel13BeginReadImplEN7openpal6WSliceEEUlRKSt10error_codemE_S7_mEEE3ptr5resetEv
	movq	%rbx, %rdi
.LEHB3:
	call	_Unwind_Resume@PLT
.LEHE3:
	.cfi_endproc
.LFE9405:
	.section	.gcc_except_table
.LLSDAC9405:
	.byte	0xff
	.byte	0xff
	.byte	0x1
	.uleb128 .LLSDACSEC9405-.LLSDACSBC9405
.LLSDACSBC9405:
	.uleb128 .LEHB3-.LCOLDB4
	.uleb128 .LEHE3-.LEHB3
	.uleb128 0
	.uleb128 0
.LLSDACSEC9405:
	.section	.text.unlikely
	.text
	.size	_ZN4asio6detail18completion_handlerINS0_7binder2IZN7asiopal13SerialChannel13BeginReadImplEN7openpal6WSliceEEUlRKSt10error_codemE_S7_mEEE11do_completeEPNS0_15task_io_serviceEPNS0_25task_io_service_operationES9_m, .-_ZN4asio6detail18completion_handlerINS0_7binder2IZN7asiopal13SerialChannel13BeginReadImplEN7openpal6WSliceEEUlRKSt10error_codemE_S7_mEEE11do_completeEPNS0_15task_io_serviceEPNS0_25task_io_service_operationES9_m
	.section	.text.unlikely
	.size	_ZN4asio6detail18completion_handlerINS0_7binder2IZN7asiopal13SerialChannel13BeginReadImplEN7openpal6WSliceEEUlRKSt10error_codemE_S7_mEEE11do_completeEPNS0_15task_io_serviceEPNS0_25task_io_service_operationES9_m.cold, .-_ZN4asio6detail18completion_handlerINS0_7binder2IZN7asiopal13SerialChannel13BeginReadImplEN7openpal6WSliceEEUlRKSt10error_codemE_S7_mEEE11do_completeEPNS0_15task_io_serviceEPNS0_25task_io_service_operationES9_m.cold
.LCOLDE4:
	.text
.LHOTE4:
	.section	.text.unlikely
.LCOLDB5:
	.text
.LHOTB5:
	.p2align 4
	.type	_ZN4asio6detail18completion_handlerINS0_7binder2IZN7asiopal13SerialChannel14BeginWriteImplERKN7openpal6RSliceEEUlRKSt10error_codemE_S9_mEEE11do_completeEPNS0_15task_io_serviceEPNS0_25task_io_service_operationESB_m, @function
_ZN4asio6detail18completion_handlerINS0_7binder2IZN7asiopal13SerialChannel14BeginWriteImplERKN7openpal6RSliceEEUlRKSt10error_codemE_S9_mEEE11do_completeEPNS0_15task_io_serviceEPNS0_25task_io_service_operationESB_m:
.LFB9124:
	.cfi_startproc
	.cfi_personality 0x9b,DW.ref.__gxx_personality_v0
	.cfi_lsda 0x1b,.LLSDA9124
	pushq	%rbp
	.cfi_def_cfa_offset 16
	.cfi_offset 6, -16
	movq	%rdi, %rbp
	pushq	%rbx
	.cfi_def_cfa_offset 24
	.cfi_offset 3, -24
	movq	%rsi, %rbx
	subq	$72, %rsp
	.cfi_def_cfa_offset 96
	movdqu	24(%rsi), %xmm0
	leaq	32(%rsp), %rax
	movaps	%xmm0, 32(%rsp)
	movdqu	40(%rsi), %xmm0
	movq	%rax, (%rsp)
	movaps	%xmm0, 48(%rsp)
	data16	leaq	_ZN4asio6detail15keyword_tss_ptrINS0_10call_stackINS0_15task_io_serviceENS0_27task_io_service_thread_infoEE7contextEE6value_E@tlsgd(%rip), %rdi
	.value	0x6666
	rex64
	call	__tls_get_addr@PLT
	movq	(%rax), %rax
	testq	%rax, %rax
	je	.L232
	movq	8(%rax), %rax
	testq	%rax, %rax
	je	.L232
	cmpq	$0, (%rax)
	je	.L233
.L232:
	movq	%rbx, %rdi
	call	_ZdlPv@PLT
.L231:
	testq	%rbp, %rbp
	je	.L214
	movq	32(%rsp), %rax
	movq	56(%rsp), %rdx
	movq	40(%rax), %rdi
	movb	$0, 58(%rax)
	testq	%rdi, %rdi
	je	.L219
	cmpb	$0, 56(%rax)
	je	.L234
.L219:
	sfence
.L214:
	addq	$72, %rsp
	.cfi_remember_state
	.cfi_def_cfa_offset 24
	popq	%rbx
	.cfi_def_cfa_offset 16
	popq	%rbp
	.cfi_def_cfa_offset 8
	ret
	.p2align 4,,10
	.p2align 3
.L234:
	.cfi_restore_state
	movq	(%rdi), %rax
	leaq	40(%rsp), %rsi
.LEHB4:
	call	*24(%rax)
.LEHE4:
	jmp	.L219
	.p2align 4,,10
	.p2align 3
.L233:
	movzbl	56(%rbx), %edx
	movb	%dl, (%rbx)
	movq	%rbx, (%rax)
	jmp	.L231
.L223:
	movq	%rax, %rbx
	jmp	.L222
	.section	.gcc_except_table
.LLSDA9124:
	.byte	0xff
	.byte	0xff
	.byte	0x1
	.uleb128 .LLSDACSE9124-.LLSDACSB9124
.LLSDACSB9124:
	.uleb128 .LEHB4-.LFB9124
	.uleb128 .LEHE4-.LEHB4
	.uleb128 .L223-.LFB9124
	.uleb128 0
.LLSDACSE9124:
	.text
	.cfi_endproc
	.section	.text.unlikely
	.cfi_startproc
	.cfi_personality 0x9b,DW.ref.__gxx_personality_v0
	.cfi_lsda 0x1b,.LLSDAC9124
	.type	_ZN4asio6detail18completion_handlerINS0_7binder2IZN7asiopal13SerialChannel14BeginWriteImplERKN7openpal6RSliceEEUlRKSt10error_codemE_S9_mEEE11do_completeEPNS0_15task_io_serviceEPNS0_25task_io_service_operationESB_m.cold, @function
_ZN4asio6detail18completion_handlerINS0_7binder2IZN7asiopal13SerialChannel14BeginWriteImplERKN7openpal6RSliceEEUlRKSt10error_codemE_S9_mEEE11do_completeEPNS0_15task_io_serviceEPNS0_25task_io_service_operationESB_m.cold:
.LFSB9124:
.L222:
	.cfi_def_cfa_offset 96
	.cfi_offset 3, -24
	.cfi_offset 6, -16
	sfence
	pxor	%xmm0, %xmm0
	movq	%rsp, %rdi
	movups	%xmm0, 8(%rsp)
	call	_ZN4asio6detail18completion_handlerINS0_7binder2IZN7asiopal13SerialChannel14BeginWriteImplERKN7openpal6RSliceEEUlRKSt10error_codemE_S9_mEEE3ptr5resetEv
	movq	%rbx, %rdi
.LEHB5:
	call	_Unwind_Resume@PLT
.LEHE5:
	.cfi_endproc
.LFE9124:
	.section	.gcc_except_table
.LLSDAC9124:
	.byte	0xff
	.byte	0xff
	.byte	0x1
	.uleb128 .LLSDACSEC9124-.LLSDACSBC9124
.LLSDACSBC9124:
	.uleb128 .LEHB5-.LCOLDB5
	.uleb128 .LEHE5-.LEHB5
	.uleb128 0
	.uleb128 0
.LLSDACSEC9124:
	.section	.text.unlikely
	.text
	.size	_ZN4asio6detail18completion_handlerINS0_7binder2IZN7asiopal13SerialChannel14BeginWriteImplERKN7openpal6RSliceEEUlRKSt10error_codemE_S9_mEEE11do_completeEPNS0_15task_io_serviceEPNS0_25task_io_service_operationESB_m, .-_ZN4asio6detail18completion_handlerINS0_7binder2IZN7asiopal13SerialChannel14BeginWriteImplERKN7openpal6RSliceEEUlRKSt10error_codemE_S9_mEEE11do_completeEPNS0_15task_io_serviceEPNS0_25task_io_service_operationESB_m
	.section	.text.unlikely
	.size	_ZN4asio6detail18completion_handlerINS0_7binder2IZN7asiopal13SerialChannel14BeginWriteImplERKN7openpal6RSliceEEUlRKSt10error_codemE_S9_mEEE11do_completeEPNS0_15task_io_serviceEPNS0_25task_io_service_operationESB_m.cold, .-_ZN4asio6detail18completion_handlerINS0_7binder2IZN7asiopal13SerialChannel14BeginWriteImplERKN7openpal6RSliceEEUlRKSt10error_codemE_S9_mEEE11do_completeEPNS0_15task_io_serviceEPNS0_25task_io_service_operationESB_m.cold
.LCOLDE5:
	.text
.LHOTE5:
	.section	.text._ZN4asio6detail13epoll_reactor16shutdown_serviceEv,"axG",@progbits,_ZN4asio6detail13epoll_reactor16shutdown_serviceEv,comdat
	.align 2
	.p2align 4
	.weak	_ZN4asio6detail13epoll_reactor16shutdown_serviceEv
	.type	_ZN4asio6detail13epoll_reactor16shutdown_serviceEv, @function
_ZN4asio6detail13epoll_reactor16shutdown_serviceEv:
.LFB3234:
	.cfi_startproc
	.cfi_personality 0x9b,DW.ref.__gxx_personality_v0
	.cfi_lsda 0x1b,.LLSDA3234
	pushq	%r14
	.cfi_def_cfa_offset 16
	.cfi_offset 14, -16
	pushq	%r12
	.cfi_def_cfa_offset 24
	.cfi_offset 12, -24
	pushq	%rbp
	.cfi_def_cfa_offset 32
	.cfi_offset 6, -32
	leaq	48(%rdi), %rbp
	pushq	%rbx
	.cfi_def_cfa_offset 40
	.cfi_offset 3, -40
	movq	%rdi, %rbx
	movq	%rbp, %rdi
	subq	$40, %rsp
	.cfi_def_cfa_offset 80
	call	pthread_mutex_lock@PLT
	movb	$1, 112(%rbx)
	movq	%rbp, %rdi
	call	pthread_mutex_unlock@PLT
	movq	160(%rbx), %rax
	pxor	%xmm0, %xmm0
	movaps	%xmm0, (%rsp)
	testq	%rax, %rax
	jne	.L236
	jmp	.L254
	.p2align 4,,10
	.p2align 3
.L240:
	movq	%rdx, (%rcx)
.L242:
	movq	104(%rax), %rdx
	movups	%xmm0, 96(%rax)
	movq	%rdx, 8(%rsp)
.L239:
	movq	112(%rax), %rdx
	testq	%rdx, %rdx
	je	.L243
	movq	8(%rsp), %rcx
	testq	%rcx, %rcx
	je	.L294
	movq	%rdx, (%rcx)
.L246:
	movq	120(%rax), %rdx
	movups	%xmm0, 112(%rax)
	movq	%rdx, 8(%rsp)
.L243:
	movq	128(%rax), %rdx
	testq	%rdx, %rdx
	je	.L247
	movq	8(%rsp), %rcx
	testq	%rcx, %rcx
	je	.L295
	movq	%rdx, (%rcx)
.L250:
	movq	136(%rax), %rdx
	movups	%xmm0, 128(%rax)
	movq	%rdx, 8(%rsp)
.L247:
	movq	24(%rax), %rcx
	movb	$1, 144(%rax)
	movq	%rcx, 160(%rbx)
	movq	32(%rax), %rdx
	testq	%rdx, %rdx
	je	.L251
	movq	%rcx, 24(%rdx)
.L251:
	movq	24(%rax), %rdx
	testq	%rdx, %rdx
	je	.L252
	movq	32(%rax), %rcx
	movq	%rcx, 32(%rdx)
.L252:
	movq	168(%rbx), %rdx
	movq	$0, 32(%rax)
	movq	%rdx, 24(%rax)
	movq	%rax, 168(%rbx)
	movq	160(%rbx), %rax
	testq	%rax, %rax
	je	.L254
.L236:
	movq	96(%rax), %rdx
	testq	%rdx, %rdx
	je	.L239
	movq	8(%rsp), %rcx
	testq	%rcx, %rcx
	jne	.L240
	movq	%rdx, (%rsp)
	jmp	.L242
	.p2align 4,,10
	.p2align 3
.L294:
	movq	%rdx, (%rsp)
	jmp	.L246
	.p2align 4,,10
	.p2align 3
.L295:
	movq	%rdx, (%rsp)
	jmp	.L250
	.p2align 4,,10
	.p2align 3
.L254:
	movq	104(%rbx), %rbx
	movq	%rsp, %rbp
	testq	%rbx, %rbx
	je	.L238
	.p2align 4
	.p2align 3
.L237:
	movq	(%rbx), %rax
	movq	%rbp, %rsi
	movq	%rbx, %rdi
.LEHB6:
	call	*48(%rax)
.LEHE6:
	movq	8(%rbx), %rbx
	testq	%rbx, %rbx
	jne	.L237
.L238:
	movq	(%rsp), %rbx
	testq	%rbx, %rbx
	je	.L235
	pxor	%xmm0, %xmm0
	leaq	16(%rsp), %rbp
	movaps	%xmm0, (%rsp)
	call	_ZNSt3_V215system_categoryEv@PLT
	movq	%rax, %r12
	.p2align 4
	.p2align 3
.L257:
	movq	%rbx, %rsi
	movq	(%rbx), %rbx
	xorl	%ecx, %ecx
	xorl	%edi, %edi
	movq	$0, (%rsi)
	movq	8(%rsi), %rax
	movq	%rbp, %rdx
	movl	$0, 16(%rsp)
	movq	%r12, 24(%rsp)
	call	*%rax
	testq	%rbx, %rbx
	jne	.L257
	movq	(%rsp), %rsi
	testq	%rsi, %rsi
	jne	.L258
	jmp	.L235
	.p2align 4,,10
	.p2align 3
.L259:
	movq	$0, (%rsi)
	movq	8(%rsi), %rax
	xorl	%ecx, %ecx
	movq	%rbp, %rdx
	movl	$0, 16(%rsp)
	xorl	%edi, %edi
	movq	%r12, 24(%rsp)
	call	*%rax
	movq	(%rsp), %rsi
	testq	%rsi, %rsi
	je	.L235
.L258:
	movq	(%rsi), %rax
	movq	%rax, (%rsp)
	testq	%rax, %rax
	jne	.L259
	movq	$0, 8(%rsp)
	jmp	.L259
	.p2align 4,,10
	.p2align 3
.L235:
	addq	$40, %rsp
	.cfi_remember_state
	.cfi_def_cfa_offset 40
	popq	%rbx
	.cfi_def_cfa_offset 32
	popq	%rbp
	.cfi_def_cfa_offset 24
	popq	%r12
	.cfi_def_cfa_offset 16
	popq	%r14
	.cfi_def_cfa_offset 8
	ret
.L264:
	.cfi_restore_state
	movq	%rax, %r14
	jmp	.L261
.L296:
	movq	(%rbx), %rax
	movq	%rax, (%rsp)
	testq	%rax, %rax
	jne	.L263
	xorl	%ecx, %ecx
	movq	%rcx, 8(%rsp)
.L263:
	xorl	%eax, %eax
	xorl	%edx, %edx
	movq	8(%rbx), %rbp
	movq	%rax, (%rbx)
	movl	%edx, 16(%rsp)
	call	_ZNSt3_V215system_categoryEv@PLT
	xorl	%ecx, %ecx
	leaq	16(%rsp), %rdx
	movq	%rbx, %rsi
	movq	%rax, 24(%rsp)
	xorl	%edi, %edi
	call	*%rbp
.L261:
	movq	(%rsp), %rbx
	testq	%rbx, %rbx
	jne	.L296
	movq	%r14, %rdi
.LEHB7:
	call	_Unwind_Resume@PLT
.LEHE7:
	.cfi_endproc
.LFE3234:
	.section	.gcc_except_table
.LLSDA3234:
	.byte	0xff
	.byte	0xff
	.byte	0x1
	.uleb128 .LLSDACSE3234-.LLSDACSB3234
.LLSDACSB3234:
	.uleb128 .LEHB6-.LFB3234
	.uleb128 .LEHE6-.LEHB6
	.uleb128 .L264-.LFB3234
	.uleb128 0
	.uleb128 .LEHB7-.LFB3234
	.uleb128 .LEHE7-.LEHB7
	.uleb128 0
	.uleb128 0
.LLSDACSE3234:
	.section	.text._ZN4asio6detail13epoll_reactor16shutdown_serviceEv,"axG",@progbits,_ZN4asio6detail13epoll_reactor16shutdown_serviceEv,comdat
	.size	_ZN4asio6detail13epoll_reactor16shutdown_serviceEv, .-_ZN4asio6detail13epoll_reactor16shutdown_serviceEv
	.section	.rodata._ZNK4asio6detail15system_category7messageB5cxx11Ei.str1.8,"aMS",@progbits,1
	.align 8
.LC6:
	.string	"basic_string: construction from null is not valid"
	.section	.text._ZNK4asio6detail15system_category7messageB5cxx11Ei,"axG",@progbits,_ZNK4asio6detail15system_category7messageB5cxx11Ei,comdat
	.align 2
	.p2align 4
	.weak	_ZNK4asio6detail15system_category7messageB5cxx11Ei
	.type	_ZNK4asio6detail15system_category7messageB5cxx11Ei, @function
_ZNK4asio6detail15system_category7messageB5cxx11Ei:
.LFB2286:
	.cfi_startproc
	pushq	%r12
	.cfi_def_cfa_offset 16
	.cfi_offset 12, -16
	pushq	%rbp
	.cfi_def_cfa_offset 24
	.cfi_offset 6, -24
	pushq	%rbx
	.cfi_def_cfa_offset 32
	.cfi_offset 3, -32
	movq	%rdi, %rbx
	subq	$288, %rsp
	.cfi_def_cfa_offset 320
	cmpl	$125, %edx
	je	.L309
	pxor	%xmm0, %xmm0
	leaq	32(%rsp), %rsi
	leaq	16(%rbx), %rbp
	movl	%edx, %edi
	movl	$256, %edx
	movaps	%xmm0, 32(%rsp)
	movaps	%xmm0, 48(%rsp)
	movaps	%xmm0, 64(%rsp)
	movaps	%xmm0, 80(%rsp)
	movaps	%xmm0, 96(%rsp)
	movaps	%xmm0, 112(%rsp)
	movaps	%xmm0, 128(%rsp)
	movaps	%xmm0, 144(%rsp)
	movaps	%xmm0, 160(%rsp)
	movaps	%xmm0, 176(%rsp)
	movaps	%xmm0, 192(%rsp)
	movaps	%xmm0, 208(%rsp)
	movaps	%xmm0, 224(%rsp)
	movaps	%xmm0, 240(%rsp)
	movaps	%xmm0, 256(%rsp)
	movaps	%xmm0, 272(%rsp)
	call	strerror_r@PLT
	movq	%rbp, (%rbx)
	movq	%rax, %r12
	testq	%rax, %rax
	je	.L310
	movq	%rax, %rdi
	call	strlen@PLT
	movq	%rax, 24(%rsp)
	movq	%rax, %rcx
	cmpq	$15, %rax
	ja	.L311
	cmpq	$1, %rax
	jne	.L303
	movzbl	(%r12), %edx
	movb	%dl, 16(%rbx)
.L304:
	movq	%rax, 8(%rbx)
	movb	$0, 0(%rbp,%rax)
	addq	$288, %rsp
	.cfi_remember_state
	.cfi_def_cfa_offset 32
	movq	%rbx, %rax
	popq	%rbx
	.cfi_def_cfa_offset 24
	popq	%rbp
	.cfi_def_cfa_offset 16
	popq	%r12
	.cfi_def_cfa_offset 8
	ret
	.p2align 4,,10
	.p2align 3
.L311:
	.cfi_restore_state
	leaq	24(%rsp), %rsi
	xorl	%edx, %edx
	movq	%rbx, %rdi
	movq	%rax, 8(%rsp)
	call	_ZNSt7__cxx1112basic_stringIcSt11char_traitsIcESaIcEE9_M_createERmm@PLT
	movq	8(%rsp), %rcx
	movq	%rax, (%rbx)
	movq	%rax, %rbp
	movq	24(%rsp), %rax
	movq	%rax, 16(%rbx)
.L302:
	movq	%rbp, %rdi
	movq	%rcx, %rdx
	movq	%r12, %rsi
	call	memcpy@PLT
	movq	24(%rsp), %rax
	movq	(%rbx), %rbp
	jmp	.L304
	.p2align 4,,10
	.p2align 3
.L309:
	leaq	16(%rdi), %rax
	leaq	32(%rsp), %rsi
	xorl	%edx, %edx
	movq	$18, 32(%rsp)
	movq	%rax, (%rdi)
	call	_ZNSt7__cxx1112basic_stringIcSt11char_traitsIcESaIcEE9_M_createERmm@PLT
	movq	32(%rsp), %rdx
	movdqa	.LC7(%rip), %xmm0
	movq	%rax, (%rbx)
	movq	%rdx, 16(%rbx)
	movl	$11876, %edx
	movw	%dx, 16(%rax)
	movups	%xmm0, (%rax)
	movq	32(%rsp), %rax
	movq	(%rbx), %rdx
	movq	%rax, 8(%rbx)
	movb	$0, (%rdx,%rax)
	addq	$288, %rsp
	.cfi_remember_state
	.cfi_def_cfa_offset 32
	movq	%rbx, %rax
	popq	%rbx
	.cfi_def_cfa_offset 24
	popq	%rbp
	.cfi_def_cfa_offset 16
	popq	%r12
	.cfi_def_cfa_offset 8
	ret
	.p2align 4,,10
	.p2align 3
.L303:
	.cfi_restore_state
	testq	%rax, %rax
	je	.L304
	jmp	.L302
.L310:
	leaq	.LC6(%rip), %rdi
	call	_ZSt19__throw_logic_errorPKc@PLT
	.cfi_endproc
.LFE2286:
	.size	_ZNK4asio6detail15system_category7messageB5cxx11Ei, .-_ZNK4asio6detail15system_category7messageB5cxx11Ei
	.section	.text._ZN4asio6detail24descriptor_write_op_baseINS_15const_buffers_1EE10do_performEPNS0_10reactor_opE,"axG",@progbits,_ZN4asio6detail24descriptor_write_op_baseINS_15const_buffers_1EE10do_performEPNS0_10reactor_opE,comdat
	.p2align 4
	.weak	_ZN4asio6detail24descriptor_write_op_baseINS_15const_buffers_1EE10do_performEPNS0_10reactor_opE
	.type	_ZN4asio6detail24descriptor_write_op_baseINS_15const_buffers_1EE10do_performEPNS0_10reactor_opE, @function
_ZN4asio6detail24descriptor_write_op_baseINS_15const_buffers_1EE10do_performEPNS0_10reactor_opE:
.LFB9276:
	.cfi_startproc
	pushq	%r15
	.cfi_def_cfa_offset 16
	.cfi_offset 15, -16
	pushq	%r14
	.cfi_def_cfa_offset 24
	.cfi_offset 14, -24
	movq	%rdi, %r14
	pushq	%r13
	.cfi_def_cfa_offset 32
	.cfi_offset 13, -32
	pushq	%r12
	.cfi_def_cfa_offset 40
	.cfi_offset 12, -40
	pushq	%rbp
	.cfi_def_cfa_offset 48
	.cfi_offset 6, -48
	pushq	%rbx
	.cfi_def_cfa_offset 56
	.cfi_offset 3, -56
	subq	$56, %rsp
	.cfi_def_cfa_offset 112
	movq	72(%rdi), %xmm0
	movq	64(%rdi), %rax
	movl	56(%rdi), %r15d
	punpcklqdq	%xmm0, %xmm0
	movq	%rax, 16(%rsp)
	movups	%xmm0, 24(%rsp)
	call	__errno_location@PLT
	movq	_ZGVZN4asio15system_categoryEvE8instance@GOTPCREL(%rip), %rbx
	movq	_ZZN4asio15system_categoryEvE8instance@GOTPCREL(%rip), %rbp
	movq	%rax, %r12
	leaq	16(%rsp), %rax
	movq	%rax, 8(%rsp)
.L320:
	movl	$0, (%r12)
	movq	8(%rsp), %rsi
	movl	$1, %edx
	movl	%r15d, %edi
	call	writev@PLT
	movq	%rax, %r13
	movzbl	(%rbx), %eax
	testb	%al, %al
	je	.L348
.L314:
	movl	(%r12), %eax
	movq	%rbp, 32(%r14)
	movl	%eax, 24(%r14)
	movzbl	(%rbx), %eax
	testb	%al, %al
	je	.L349
.L317:
	cmpq	%rbp, 32(%r14)
	je	.L350
.L319:
	movzbl	(%rbx), %eax
	testb	%al, %al
	je	.L351
.L322:
	cmpq	%rbp, 32(%r14)
	je	.L352
.L324:
	movzbl	(%rbx), %eax
	testb	%al, %al
	je	.L353
.L327:
	cmpq	%rbp, 32(%r14)
	je	.L354
.L329:
	xorl	%eax, %eax
	testq	%r13, %r13
	js	.L331
	call	_ZNSt3_V215system_categoryEv@PLT
	movl	$0, 24(%r14)
	movq	%rax, 32(%r14)
	movq	%r13, %rax
.L331:
	movq	%rax, 40(%r14)
	addq	$56, %rsp
	.cfi_remember_state
	.cfi_def_cfa_offset 56
	movl	$1, %eax
	popq	%rbx
	.cfi_def_cfa_offset 48
	popq	%rbp
	.cfi_def_cfa_offset 40
	popq	%r12
	.cfi_def_cfa_offset 32
	popq	%r13
	.cfi_def_cfa_offset 24
	popq	%r14
	.cfi_def_cfa_offset 16
	popq	%r15
	.cfi_def_cfa_offset 8
	ret
	.p2align 4,,10
	.p2align 3
.L348:
	.cfi_restore_state
	movq	%rbx, %rdi
	call	__cxa_guard_acquire@PLT
	testl	%eax, %eax
	je	.L314
	movq	_ZN4asio6detail15system_categoryD1Ev@GOTPCREL(%rip), %rdi
	leaq	__dso_handle(%rip), %rdx
	movq	%rbp, %rsi
	call	__cxa_atexit@PLT
	movq	%rbx, %rdi
	call	__cxa_guard_release@PLT
	jmp	.L314
	.p2align 4,,10
	.p2align 3
.L349:
	movq	%rbx, %rdi
	call	__cxa_guard_acquire@PLT
	testl	%eax, %eax
	je	.L317
	movq	_ZN4asio6detail15system_categoryD1Ev@GOTPCREL(%rip), %rdi
	leaq	__dso_handle(%rip), %rdx
	movq	%rbp, %rsi
	call	__cxa_atexit@PLT
	movq	%rbx, %rdi
	call	__cxa_guard_release@PLT
	cmpq	%rbp, 32(%r14)
	jne	.L319
	.p2align 4
	.p2align 3
.L350:
	cmpl	$4, 24(%r14)
	je	.L320
	movzbl	(%rbx), %eax
	testb	%al, %al
	jne	.L322
.L351:
	movq	%rbx, %rdi
	call	__cxa_guard_acquire@PLT
	testl	%eax, %eax
	je	.L322
	movq	_ZN4asio6detail15system_categoryD1Ev@GOTPCREL(%rip), %rdi
	leaq	__dso_handle(%rip), %rdx
	movq	%rbp, %rsi
	call	__cxa_atexit@PLT
	movq	%rbx, %rdi
	call	__cxa_guard_release@PLT
	cmpq	%rbp, 32(%r14)
	jne	.L324
	.p2align 4
	.p2align 3
.L352:
	cmpl	$11, 24(%r14)
	jne	.L324
	xorl	%eax, %eax
.L355:
	addq	$56, %rsp
	.cfi_remember_state
	.cfi_def_cfa_offset 56
	popq	%rbx
	.cfi_def_cfa_offset 48
	popq	%rbp
	.cfi_def_cfa_offset 40
	popq	%r12
	.cfi_def_cfa_offset 32
	popq	%r13
	.cfi_def_cfa_offset 24
	popq	%r14
	.cfi_def_cfa_offset 16
	popq	%r15
	.cfi_def_cfa_offset 8
	ret
	.p2align 4,,10
	.p2align 3
.L353:
	.cfi_restore_state
	movq	%rbx, %rdi
	call	__cxa_guard_acquire@PLT
	testl	%eax, %eax
	je	.L327
	movq	_ZN4asio6detail15system_categoryD1Ev@GOTPCREL(%rip), %rdi
	leaq	__dso_handle(%rip), %rdx
	movq	%rbp, %rsi
	call	__cxa_atexit@PLT
	movq	%rbx, %rdi
	call	__cxa_guard_release@PLT
	jmp	.L327
	.p2align 4,,10
	.p2align 3
.L354:
	cmpl	$11, 24(%r14)
	jne	.L329
	xorl	%eax, %eax
	jmp	.L355
	.cfi_endproc
.LFE9276:
	.size	_ZN4asio6detail24descriptor_write_op_baseINS_15const_buffers_1EE10do_performEPNS0_10reactor_opE, .-_ZN4asio6detail24descriptor_write_op_baseINS_15const_buffers_1EE10do_performEPNS0_10reactor_opE
	.section	.text._ZN4asio6detail23descriptor_read_op_baseINS_17mutable_buffers_1EE10do_performEPNS0_10reactor_opE,"axG",@progbits,_ZN4asio6detail23descriptor_read_op_baseINS_17mutable_buffers_1EE10do_performEPNS0_10reactor_opE,comdat
	.p2align 4
	.weak	_ZN4asio6detail23descriptor_read_op_baseINS_17mutable_buffers_1EE10do_performEPNS0_10reactor_opE
	.type	_ZN4asio6detail23descriptor_read_op_baseINS_17mutable_buffers_1EE10do_performEPNS0_10reactor_opE, @function
_ZN4asio6detail23descriptor_read_op_baseINS_17mutable_buffers_1EE10do_performEPNS0_10reactor_opE:
.LFB9196:
	.cfi_startproc
	pushq	%r15
	.cfi_def_cfa_offset 16
	.cfi_offset 15, -16
	pushq	%r14
	.cfi_def_cfa_offset 24
	.cfi_offset 14, -24
	movq	%rdi, %r14
	pushq	%r13
	.cfi_def_cfa_offset 32
	.cfi_offset 13, -32
	pushq	%r12
	.cfi_def_cfa_offset 40
	.cfi_offset 12, -40
	pushq	%rbp
	.cfi_def_cfa_offset 48
	.cfi_offset 6, -48
	pushq	%rbx
	.cfi_def_cfa_offset 56
	.cfi_offset 3, -56
	subq	$56, %rsp
	.cfi_def_cfa_offset 112
	movq	72(%rdi), %xmm0
	movq	64(%rdi), %rax
	movl	56(%rdi), %r15d
	punpcklqdq	%xmm0, %xmm0
	movq	%rax, 16(%rsp)
	movups	%xmm0, 24(%rsp)
	call	__errno_location@PLT
	movq	_ZGVZN4asio15system_categoryEvE8instance@GOTPCREL(%rip), %rbx
	movq	_ZZN4asio15system_categoryEvE8instance@GOTPCREL(%rip), %rbp
	movq	%rax, %r13
	leaq	16(%rsp), %rax
	movq	%rax, 8(%rsp)
.L369:
	movl	$0, 0(%r13)
	movq	8(%rsp), %rsi
	movl	$1, %edx
	movl	%r15d, %edi
	call	readv@PLT
	movq	%rax, %r12
	movzbl	(%rbx), %eax
	testb	%al, %al
	je	.L399
.L358:
	movl	0(%r13), %eax
	movq	%rbp, 32(%r14)
	movl	%eax, 24(%r14)
	testq	%r12, %r12
	je	.L400
	movzbl	(%rbx), %eax
	testb	%al, %al
	je	.L401
.L366:
	cmpq	%rbp, 32(%r14)
	je	.L402
.L368:
	movzbl	(%rbx), %eax
	testb	%al, %al
	je	.L403
.L371:
	cmpq	%rbp, 32(%r14)
	je	.L404
.L373:
	movzbl	(%rbx), %eax
	testb	%al, %al
	je	.L405
.L376:
	cmpq	%rbp, 32(%r14)
	je	.L406
.L378:
	testq	%r12, %r12
	jle	.L380
	call	_ZNSt3_V215system_categoryEv@PLT
	movl	$0, 24(%r14)
	movq	%rax, 32(%r14)
	movq	%r12, 40(%r14)
.L364:
	addq	$56, %rsp
	.cfi_remember_state
	.cfi_def_cfa_offset 56
	movl	$1, %eax
	popq	%rbx
	.cfi_def_cfa_offset 48
	popq	%rbp
	.cfi_def_cfa_offset 40
	popq	%r12
	.cfi_def_cfa_offset 32
	popq	%r13
	.cfi_def_cfa_offset 24
	popq	%r14
	.cfi_def_cfa_offset 16
	popq	%r15
	.cfi_def_cfa_offset 8
	ret
	.p2align 4,,10
	.p2align 3
.L380:
	.cfi_restore_state
	movq	$0, 40(%r14)
	jmp	.L364
	.p2align 4,,10
	.p2align 3
.L399:
	movq	%rbx, %rdi
	call	__cxa_guard_acquire@PLT
	testl	%eax, %eax
	je	.L358
	movq	_ZN4asio6detail15system_categoryD1Ev@GOTPCREL(%rip), %rdi
	leaq	__dso_handle(%rip), %rdx
	movq	%rbp, %rsi
	call	__cxa_atexit@PLT
	movq	%rbx, %rdi
	call	__cxa_guard_release@PLT
	jmp	.L358
	.p2align 4,,10
	.p2align 3
.L401:
	movq	%rbx, %rdi
	call	__cxa_guard_acquire@PLT
	testl	%eax, %eax
	je	.L366
	movq	_ZN4asio6detail15system_categoryD1Ev@GOTPCREL(%rip), %rdi
	leaq	__dso_handle(%rip), %rdx
	movq	%rbp, %rsi
	call	__cxa_atexit@PLT
	movq	%rbx, %rdi
	call	__cxa_guard_release@PLT
	cmpq	%rbp, 32(%r14)
	jne	.L368
	.p2align 4
	.p2align 3
.L402:
	cmpl	$4, 24(%r14)
	je	.L369
	movzbl	(%rbx), %eax
	testb	%al, %al
	jne	.L371
.L403:
	movq	%rbx, %rdi
	call	__cxa_guard_acquire@PLT
	testl	%eax, %eax
	je	.L371
	movq	_ZN4asio6detail15system_categoryD1Ev@GOTPCREL(%rip), %rdi
	leaq	__dso_handle(%rip), %rdx
	movq	%rbp, %rsi
	call	__cxa_atexit@PLT
	movq	%rbx, %rdi
	call	__cxa_guard_release@PLT
	cmpq	%rbp, 32(%r14)
	jne	.L373
	.p2align 4
	.p2align 3
.L404:
	cmpl	$11, 24(%r14)
	jne	.L373
	xorl	%eax, %eax
.L407:
	addq	$56, %rsp
	.cfi_remember_state
	.cfi_def_cfa_offset 56
	popq	%rbx
	.cfi_def_cfa_offset 48
	popq	%rbp
	.cfi_def_cfa_offset 40
	popq	%r12
	.cfi_def_cfa_offset 32
	popq	%r13
	.cfi_def_cfa_offset 24
	popq	%r14
	.cfi_def_cfa_offset 16
	popq	%r15
	.cfi_def_cfa_offset 8
	ret
	.p2align 4,,10
	.p2align 3
.L405:
	.cfi_restore_state
	movq	%rbx, %rdi
	call	__cxa_guard_acquire@PLT
	testl	%eax, %eax
	je	.L376
	movq	_ZN4asio6detail15system_categoryD1Ev@GOTPCREL(%rip), %rdi
	leaq	__dso_handle(%rip), %rdx
	movq	%rbp, %rsi
	call	__cxa_atexit@PLT
	movq	%rbx, %rdi
	call	__cxa_guard_release@PLT
	jmp	.L376
	.p2align 4,,10
	.p2align 3
.L406:
	cmpl	$11, 24(%r14)
	jne	.L378
	xorl	%eax, %eax
	jmp	.L407
	.p2align 4,,10
	.p2align 3
.L400:
	movq	_ZGVZN4asio5error17get_misc_categoryEvE8instance@GOTPCREL(%rip), %rbx
	movzbl	(%rbx), %eax
	testb	%al, %al
	je	.L361
	movq	_ZZN4asio5error17get_misc_categoryEvE8instance@GOTPCREL(%rip), %rbp
.L362:
	movl	$2, 24(%r14)
	movq	%rbp, 32(%r14)
	jmp	.L364
	.p2align 4,,10
	.p2align 3
.L361:
	movq	%rbx, %rdi
	call	__cxa_guard_acquire@PLT
	movq	_ZZN4asio5error17get_misc_categoryEvE8instance@GOTPCREL(%rip), %rbp
	testl	%eax, %eax
	je	.L362
	movq	_ZN4asio5error6detail13misc_categoryD1Ev@GOTPCREL(%rip), %rdi
	leaq	__dso_handle(%rip), %rdx
	movq	%rbp, %rsi
	call	__cxa_atexit@PLT
	movq	%rbx, %rdi
	call	__cxa_guard_release@PLT
	jmp	.L362
	.cfi_endproc
.LFE9196:
	.size	_ZN4asio6detail23descriptor_read_op_baseINS_17mutable_buffers_1EE10do_performEPNS0_10reactor_opE, .-_ZN4asio6detail23descriptor_read_op_baseINS_17mutable_buffers_1EE10do_performEPNS0_10reactor_opE
	.section	.text._ZNK4asio5error6detail17addrinfo_category7messageB5cxx11Ei,"axG",@progbits,_ZNK4asio5error6detail17addrinfo_category7messageB5cxx11Ei,comdat
	.align 2
	.p2align 4
	.weak	_ZNK4asio5error6detail17addrinfo_category7messageB5cxx11Ei
	.type	_ZNK4asio5error6detail17addrinfo_category7messageB5cxx11Ei, @function
_ZNK4asio5error6detail17addrinfo_category7messageB5cxx11Ei:
.LFB2340:
	.cfi_startproc
	pushq	%rbx
	.cfi_def_cfa_offset 16
	.cfi_offset 3, -16
	leaq	16(%rdi), %rax
	movq	%rdi, %rbx
	subq	$16, %rsp
	.cfi_def_cfa_offset 32
	movq	%rax, (%rdi)
	cmpl	$-8, %edx
	je	.L413
	cmpl	$-7, %edx
	je	.L414
	movq	$19, 8(%rsp)
	leaq	8(%rsp), %rsi
	xorl	%edx, %edx
	call	_ZNSt7__cxx1112basic_stringIcSt11char_traitsIcESaIcEE9_M_createERmm@PLT
	movq	8(%rsp), %rdx
	movdqa	.LC12(%rip), %xmm0
	movq	%rax, (%rbx)
	movq	%rdx, 16(%rbx)
	movups	%xmm0, (%rax)
	movl	$1919906418, 15(%rax)
	movq	8(%rsp), %rax
	movq	(%rbx), %rdx
	movq	%rax, 8(%rbx)
	movb	$0, (%rdx,%rax)
	addq	$16, %rsp
	.cfi_remember_state
	.cfi_def_cfa_offset 16
	movq	%rbx, %rax
	popq	%rbx
	.cfi_def_cfa_offset 8
	ret
	.p2align 4,,10
	.p2align 3
.L414:
	.cfi_restore_state
	movq	$25, 8(%rsp)
	leaq	8(%rsp), %rsi
	xorl	%edx, %edx
	call	_ZNSt7__cxx1112basic_stringIcSt11char_traitsIcESaIcEE9_M_createERmm@PLT
	movq	8(%rsp), %rdx
	movdqa	.LC10(%rip), %xmm0
	movq	%rax, (%rbx)
	movq	%rdx, 16(%rbx)
	movups	%xmm0, (%rax)
	movdqa	.LC11(%rip), %xmm0
	movups	%xmm0, 9(%rax)
	movq	8(%rsp), %rax
	movq	(%rbx), %rdx
	movq	%rax, 8(%rbx)
	movb	$0, (%rdx,%rax)
	addq	$16, %rsp
	.cfi_remember_state
	.cfi_def_cfa_offset 16
	movq	%rbx, %rax
	popq	%rbx
	.cfi_def_cfa_offset 8
	ret
	.p2align 4,,10
	.p2align 3
.L413:
	.cfi_restore_state
	movq	$17, 8(%rsp)
	leaq	8(%rsp), %rsi
	xorl	%edx, %edx
	call	_ZNSt7__cxx1112basic_stringIcSt11char_traitsIcESaIcEE9_M_createERmm@PLT
	movq	8(%rsp), %rdx
	movdqa	.LC9(%rip), %xmm0
	movq	%rax, (%rbx)
	movq	%rdx, 16(%rbx)
	movb	$100, 16(%rax)
	movups	%xmm0, (%rax)
	movq	8(%rsp), %rax
	movq	(%rbx), %rdx
	movq	%rax, 8(%rbx)
	movb	$0, (%rdx,%rax)
	addq	$16, %rsp
	.cfi_def_cfa_offset 16
	movq	%rbx, %rax
	popq	%rbx
	.cfi_def_cfa_offset 8
	ret
	.cfi_endproc
.LFE2340:
	.size	_ZNK4asio5error6detail17addrinfo_category7messageB5cxx11Ei, .-_ZNK4asio5error6detail17addrinfo_category7messageB5cxx11Ei
	.section	.text._ZNK4asio5error6detail14netdb_category7messageB5cxx11Ei,"axG",@progbits,_ZNK4asio5error6detail14netdb_category7messageB5cxx11Ei,comdat
	.align 2
	.p2align 4
	.weak	_ZNK4asio5error6detail14netdb_category7messageB5cxx11Ei
	.type	_ZNK4asio5error6detail14netdb_category7messageB5cxx11Ei, @function
_ZNK4asio5error6detail14netdb_category7messageB5cxx11Ei:
.LFB2330:
	.cfi_startproc
	pushq	%rbx
	.cfi_def_cfa_offset 16
	.cfi_offset 3, -16
	leaq	16(%rdi), %rax
	movq	%rdi, %rbx
	subq	$16, %rsp
	.cfi_def_cfa_offset 32
	movq	%rax, (%rdi)
	cmpl	$1, %edx
	je	.L422
	cmpl	$2, %edx
	je	.L423
	cmpl	$4, %edx
	je	.L424
	cmpl	$3, %edx
	je	.L425
	movq	$16, 8(%rsp)
	leaq	8(%rsp), %rsi
	xorl	%edx, %edx
	call	_ZNSt7__cxx1112basic_stringIcSt11char_traitsIcESaIcEE9_M_createERmm@PLT
	movq	8(%rsp), %rdx
	movdqa	.LC23(%rip), %xmm0
	movq	%rax, (%rbx)
	movq	%rdx, 16(%rbx)
	movups	%xmm0, (%rax)
	movq	8(%rsp), %rax
	movq	(%rbx), %rdx
	movq	%rax, 8(%rbx)
	movb	$0, (%rdx,%rax)
	addq	$16, %rsp
	.cfi_remember_state
	.cfi_def_cfa_offset 16
	movq	%rbx, %rax
	popq	%rbx
	.cfi_def_cfa_offset 8
	ret
	.p2align 4,,10
	.p2align 3
.L422:
	.cfi_restore_state
	movq	$30, 8(%rsp)
	leaq	8(%rsp), %rsi
	xorl	%edx, %edx
	call	_ZNSt7__cxx1112basic_stringIcSt11char_traitsIcESaIcEE9_M_createERmm@PLT
	movq	8(%rsp), %rdx
	movdqa	.LC13(%rip), %xmm0
	movq	%rax, (%rbx)
	movq	%rdx, 16(%rbx)
	movups	%xmm0, (%rax)
	movdqa	.LC14(%rip), %xmm0
	movups	%xmm0, 14(%rax)
	movq	8(%rsp), %rax
	movq	(%rbx), %rdx
	movq	%rax, 8(%rbx)
	movb	$0, (%rdx,%rax)
	addq	$16, %rsp
	.cfi_remember_state
	.cfi_def_cfa_offset 16
	movq	%rbx, %rax
	popq	%rbx
	.cfi_def_cfa_offset 8
	ret
	.p2align 4,,10
	.p2align 3
.L425:
	.cfi_restore_state
	movq	$55, 8(%rsp)
	leaq	8(%rsp), %rsi
	xorl	%edx, %edx
	call	_ZNSt7__cxx1112basic_stringIcSt11char_traitsIcESaIcEE9_M_createERmm@PLT
	movq	8(%rsp), %rdx
	movdqa	.LC20(%rip), %xmm0
	movabsq	$8103501230877974629, %rcx
	movq	%rax, (%rbx)
	movq	%rdx, 16(%rbx)
	movups	%xmm0, (%rax)
	movdqa	.LC21(%rip), %xmm0
	movups	%xmm0, 16(%rax)
	movdqa	.LC22(%rip), %xmm0
	movups	%xmm0, 32(%rax)
	movq	%rcx, 47(%rax)
	movq	8(%rsp), %rax
	movq	(%rbx), %rdx
	movq	%rax, 8(%rbx)
	movb	$0, (%rdx,%rax)
	addq	$16, %rsp
	.cfi_remember_state
	.cfi_def_cfa_offset 16
	movq	%rbx, %rax
	popq	%rbx
	.cfi_def_cfa_offset 8
	ret
	.p2align 4,,10
	.p2align 3
.L423:
	.cfi_restore_state
	movq	$51, 8(%rsp)
	leaq	8(%rsp), %rsi
	xorl	%edx, %edx
	call	_ZNSt7__cxx1112basic_stringIcSt11char_traitsIcESaIcEE9_M_createERmm@PLT
	movq	8(%rsp), %rdx
	movdqa	.LC13(%rip), %xmm0
	movq	%rax, (%rbx)
	movq	%rdx, 16(%rbx)
	movups	%xmm0, (%rax)
	movdqa	.LC15(%rip), %xmm0
	movups	%xmm0, 16(%rax)
	movdqa	.LC16(%rip), %xmm0
	movups	%xmm0, 32(%rax)
	movl	$1919251553, 47(%rax)
	movq	8(%rsp), %rax
	movq	(%rbx), %rdx
	movq	%rax, 8(%rbx)
	movb	$0, (%rdx,%rax)
	addq	$16, %rsp
	.cfi_remember_state
	.cfi_def_cfa_offset 16
	movq	%rbx, %rax
	popq	%rbx
	.cfi_def_cfa_offset 8
	ret
	.p2align 4,,10
	.p2align 3
.L424:
	.cfi_restore_state
	movq	$56, 8(%rsp)
	leaq	8(%rsp), %rsi
	xorl	%edx, %edx
	call	_ZNSt7__cxx1112basic_stringIcSt11char_traitsIcESaIcEE9_M_createERmm@PLT
	movq	8(%rsp), %rdx
	movdqa	.LC17(%rip), %xmm0
	movabsq	$7022344801645520244, %rcx
	movq	%rax, (%rbx)
	movq	%rdx, 16(%rbx)
	movups	%xmm0, (%rax)
	movdqa	.LC18(%rip), %xmm0
	movq	%rcx, 48(%rax)
	movups	%xmm0, 16(%rax)
	movdqa	.LC19(%rip), %xmm0
	movups	%xmm0, 32(%rax)
	movq	8(%rsp), %rax
	movq	(%rbx), %rdx
	movq	%rax, 8(%rbx)
	movb	$0, (%rdx,%rax)
	addq	$16, %rsp
	.cfi_def_cfa_offset 16
	movq	%rbx, %rax
	popq	%rbx
	.cfi_def_cfa_offset 8
	ret
	.cfi_endproc
.LFE2330:
	.size	_ZNK4asio5error6detail14netdb_category7messageB5cxx11Ei, .-_ZNK4asio5error6detail14netdb_category7messageB5cxx11Ei
	.section	.text._ZNK4asio5error6detail13misc_category7messageB5cxx11Ei,"axG",@progbits,_ZNK4asio5error6detail13misc_category7messageB5cxx11Ei,comdat
	.align 2
	.p2align 4
	.weak	_ZNK4asio5error6detail13misc_category7messageB5cxx11Ei
	.type	_ZNK4asio5error6detail13misc_category7messageB5cxx11Ei, @function
_ZNK4asio5error6detail13misc_category7messageB5cxx11Ei:
.LFB2350:
	.cfi_startproc
	cmpl	$1, %edx
	je	.L435
	cmpl	$2, %edx
	je	.L436
	leaq	16(%rdi), %rax
	subq	$40, %rsp
	.cfi_def_cfa_offset 48
	movq	%rax, (%rdi)
	cmpl	$3, %edx
	je	.L437
	cmpl	$4, %edx
	je	.L438
	movabsq	$8316298233121436513, %rcx
	movq	$15, 8(%rdi)
	movq	%rdi, %rax
	movq	%rcx, 16(%rdi)
	movabsq	$8245935278387127155, %rcx
	movq	%rcx, 23(%rdi)
	movb	$0, 31(%rdi)
	addq	$40, %rsp
	.cfi_def_cfa_offset 8
	ret
	.p2align 4,,10
	.p2align 3
.L435:
	leaq	16(%rdi), %rax
	movl	$1852141679, 24(%rdi)
	movabsq	$2340011850872286273, %rsi
	movq	%rax, (%rdi)
	movq	%rdi, %rax
	movq	%rsi, 16(%rdi)
	movq	$12, 8(%rdi)
	movb	$0, 28(%rdi)
	ret
	.p2align 4,,10
	.p2align 3
.L438:
	.cfi_def_cfa_offset 48
	leaq	24(%rsp), %rsi
	xorl	%edx, %edx
	movq	%rdi, 8(%rsp)
	movq	$57, 24(%rsp)
	call	_ZNSt7__cxx1112basic_stringIcSt11char_traitsIcESaIcEE9_M_createERmm@PLT
	movq	24(%rsp), %rdx
	movq	8(%rsp), %rdi
	movdqa	.LC25(%rip), %xmm0
	movq	%rax, (%rdi)
	movq	%rdx, 16(%rdi)
	movups	%xmm0, (%rax)
	movdqa	.LC26(%rip), %xmm0
	movups	%xmm0, 16(%rax)
	movdqa	.LC27(%rip), %xmm0
	movups	%xmm0, 32(%rax)
	movdqa	.LC28(%rip), %xmm0
	movups	%xmm0, 41(%rax)
	movq	24(%rsp), %rax
	movq	(%rdi), %rdx
	movq	%rax, 8(%rdi)
	movb	$0, (%rdx,%rax)
	movq	%rdi, %rax
	addq	$40, %rsp
	.cfi_def_cfa_offset 8
	ret
	.p2align 4,,10
	.p2align 3
.L436:
	leaq	16(%rdi), %rax
	movq	$11, 8(%rdi)
	movabsq	$7358994418594246213, %rsi
	movq	%rax, (%rdi)
	movq	%rdi, %rax
	movq	%rsi, 16(%rdi)
	movb	$0, 27(%rdi)
	movl	$1701603686, 23(%rdi)
	ret
	.p2align 4,,10
	.p2align 3
.L437:
	.cfi_def_cfa_offset 48
	leaq	24(%rsp), %rsi
	xorl	%edx, %edx
	movq	%rdi, 8(%rsp)
	movq	$17, 24(%rsp)
	call	_ZNSt7__cxx1112basic_stringIcSt11char_traitsIcESaIcEE9_M_createERmm@PLT
	movq	8(%rsp), %rdi
	movq	24(%rsp), %rdx
	movdqa	.LC24(%rip), %xmm0
	movq	%rax, (%rdi)
	movq	%rdx, 16(%rdi)
	movb	$100, 16(%rax)
	movups	%xmm0, (%rax)
	movq	24(%rsp), %rax
	movq	(%rdi), %rdx
	movq	%rax, 8(%rdi)
	movb	$0, (%rdx,%rax)
	movq	%rdi, %rax
	addq	$40, %rsp
	.cfi_def_cfa_offset 8
	ret
	.cfi_endproc
.LFE2350:
	.size	_ZNK4asio5error6detail13misc_category7messageB5cxx11Ei, .-_ZNK4asio5error6detail13misc_category7messageB5cxx11Ei
	.text
	.align 2
	.p2align 4
	.globl	_ZN7asiopal13SerialChannel12ShutdownImplEv
	.type	_ZN7asiopal13SerialChannel12ShutdownImplEv, @function
_ZN7asiopal13SerialChannel12ShutdownImplEv:
.LFB7024:
	.cfi_startproc
	pushq	%r15
	.cfi_def_cfa_offset 16
	.cfi_offset 15, -16
	movq	%rdi, %r15
	pushq	%r14
	.cfi_def_cfa_offset 24
	.cfi_offset 14, -24
	pushq	%r13
	.cfi_def_cfa_offset 32
	.cfi_offset 13, -32
	pushq	%r12
	.cfi_def_cfa_offset 40
	.cfi_offset 12, -40
	pushq	%rbp
	.cfi_def_cfa_offset 48
	.cfi_offset 6, -48
	pushq	%rbx
	.cfi_def_cfa_offset 56
	.cfi_offset 3, -56
	subq	$56, %rsp
	.cfi_def_cfa_offset 112
	movl	64(%rdi), %ebx
	cmpl	$-1, %ebx
	jne	.L542
.L441:
	movl	$-1, 64(%r15)
	movb	$0, 68(%r15)
	addq	$56, %rsp
	.cfi_remember_state
	.cfi_def_cfa_offset 56
	popq	%rbx
	.cfi_def_cfa_offset 48
	popq	%rbp
	.cfi_def_cfa_offset 40
	popq	%r12
	.cfi_def_cfa_offset 32
	popq	%r13
	.cfi_def_cfa_offset 24
	popq	%r14
	.cfi_def_cfa_offset 16
	popq	%r15
	.cfi_def_cfa_offset 8
	ret
	.p2align 4,,10
	.p2align 3
.L542:
	.cfi_restore_state
	movq	72(%rdi), %rax
	testq	%rax, %rax
	je	.L442
	movq	80(%rdi), %rdx
	leaq	40(%rax), %r14
	movzbl	68(%rdi), %ebp
	movq	%r14, %rdi
	movq	%r14, 24(%rsp)
	movq	40(%rdx), %rcx
	movq	%rcx, 16(%rsp)
	call	pthread_mutex_lock@PLT
	movq	72(%r15), %r9
	cmpb	$0, 144(%r9)
	jne	.L543
	andl	$4, %ebp
	jne	.L544
.L445:
	movq	$0, 8(%rsp)
	xorl	%r14d, %r14d
	movl	$0, 4(%rsp)
.L446:
	movslq	4(%rsp), %rax
	salq	$4, %rax
	movq	96(%rax,%r9), %rbx
	testq	%rbx, %rbx
	je	.L533
	movq	_ZGVZN4asio15system_categoryEvE8instance@GOTPCREL(%rip), %r13
	movq	_ZZN4asio15system_categoryEvE8instance@GOTPCREL(%rip), %rbp
	movq	%rax, %r12
	jmp	.L458
	.p2align 4,,10
	.p2align 3
.L448:
	movq	72(%r15), %r9
	movl	$125, 24(%rbx)
	movq	%rbp, 32(%rbx)
	leaq	(%r9,%r12), %rdi
	movq	96(%rdi), %rax
	testq	%rax, %rax
	je	.L537
	movq	(%rax), %rdx
	movq	%rdx, 96(%rdi)
	testq	%rdx, %rdx
	je	.L453
	movq	$0, (%rax)
	movq	$0, (%rbx)
	testq	%r14, %r14
	je	.L485
	movq	%rbx, (%r14)
.L454:
	movq	%rbx, %r14
	movq	%rdx, %rbx
.L458:
	movzbl	0(%r13), %eax
	testb	%al, %al
	jne	.L448
	movq	%r13, %rdi
	call	__cxa_guard_acquire@PLT
	testl	%eax, %eax
	je	.L448
	movq	_ZN4asio6detail15system_categoryD1Ev@GOTPCREL(%rip), %rdi
	leaq	__dso_handle(%rip), %rdx
	movq	%rbp, %rsi
	call	__cxa_atexit@PLT
	movq	%r13, %rdi
	call	__cxa_guard_release@PLT
	jmp	.L448
	.p2align 4,,10
	.p2align 3
.L543:
	movq	%r14, %rdi
	call	pthread_mutex_unlock@PLT
.L444:
	movl	64(%r15), %ebx
	cmpl	$-1, %ebx
	je	.L441
.L442:
	call	__errno_location@PLT
	movl	%ebx, %edi
	movl	$0, (%rax)
	movq	%rax, %rbp
	call	close@PLT
	movq	_ZGVZN4asio15system_categoryEvE8instance@GOTPCREL(%rip), %r13
	movl	%eax, %r12d
	movzbl	0(%r13), %eax
	testb	%al, %al
	je	.L545
.L476:
	testl	%r12d, %r12d
	je	.L441
	movl	0(%rbp), %r12d
	movzbl	0(%r13), %eax
	testb	%al, %al
	je	.L546
.L479:
	cmpl	$11, %r12d
	je	.L481
.L541:
	movzbl	0(%r13), %eax
	testb	%al, %al
	jne	.L441
	movq	%r13, %rdi
	call	__cxa_guard_acquire@PLT
	testl	%eax, %eax
	je	.L441
	movq	_ZZN4asio15system_categoryEvE8instance@GOTPCREL(%rip), %rsi
	movq	_ZN4asio6detail15system_categoryD1Ev@GOTPCREL(%rip), %rdi
	leaq	__dso_handle(%rip), %rdx
	call	__cxa_atexit@PLT
	movq	%r13, %rdi
	call	__cxa_guard_release@PLT
	jmp	.L441
	.p2align 4,,10
	.p2align 3
.L453:
	movq	$0, 104(%rdi)
	movq	$0, (%rax)
.L537:
	movq	$0, (%rbx)
	testq	%r14, %r14
	je	.L547
	movq	%rbx, (%r14)
.L456:
	addl	$1, 4(%rsp)
	cmpl	$3, 4(%rsp)
	je	.L457
.L548:
	movq	%rbx, %r14
	jmp	.L446
	.p2align 4,,10
	.p2align 3
.L485:
	movq	%rbx, 8(%rsp)
	jmp	.L454
	.p2align 4,,10
	.p2align 3
.L547:
	addl	$1, 4(%rsp)
	movq	%rbx, 8(%rsp)
	cmpl	$3, 4(%rsp)
	jne	.L548
.L457:
	movl	$-1, 88(%r9)
	movq	24(%rsp), %rdi
	movb	$1, 144(%r9)
	call	pthread_mutex_unlock@PLT
	movq	16(%rsp), %r12
	movq	72(%r15), %rbp
	leaq	120(%r12), %r14
	movq	%r14, %rdi
	call	pthread_mutex_lock@PLT
	cmpq	160(%r12), %rbp
	je	.L549
.L459:
	movq	32(%rbp), %rax
	testq	%rax, %rax
	je	.L460
	movq	24(%rbp), %rdx
	movq	%rdx, 24(%rax)
.L460:
	movq	24(%rbp), %rax
	testq	%rax, %rax
	je	.L461
	movq	32(%rbp), %rdx
	movq	%rdx, 32(%rax)
.L461:
	movq	16(%rsp), %r12
	movq	%r14, %rdi
	movq	168(%r12), %rax
	movq	$0, 32(%rbp)
	movq	%rax, 24(%rbp)
	movq	%rbp, 168(%r12)
	call	pthread_mutex_unlock@PLT
	movq	$0, 72(%r15)
	cmpq	$0, 8(%rsp)
	je	.L444
	movq	40(%r12), %rbp
	cmpb	$0, 40(%rbp)
	je	.L463
	data16	leaq	_ZN4asio6detail15keyword_tss_ptrINS0_10call_stackINS0_15task_io_serviceENS0_27task_io_service_thread_infoEE7contextEE6value_E@tlsgd(%rip), %rdi
	.value	0x6666
	rex64
	call	__tls_get_addr@PLT
	movq	(%rax), %rax
	testq	%rax, %rax
	jne	.L466
	jmp	.L463
	.p2align 4
	.p2align 4,,10
	.p2align 3
.L464:
	movq	16(%rax), %rax
	testq	%rax, %rax
	je	.L463
.L466:
	cmpq	(%rax), %rbp
	jne	.L464
	movq	8(%rax), %rax
	testq	%rax, %rax
	je	.L463
	movq	16(%rax), %rdx
	movq	8(%rsp), %rsi
	testq	%rdx, %rdx
	je	.L467
	movq	%rsi, (%rdx)
.L468:
	movq	%rbx, 16(%rax)
	jmp	.L444
	.p2align 4,,10
	.p2align 3
.L545:
	movq	%r13, %rdi
	call	__cxa_guard_acquire@PLT
	testl	%eax, %eax
	je	.L476
	movq	_ZZN4asio15system_categoryEvE8instance@GOTPCREL(%rip), %rsi
	movq	_ZN4asio6detail15system_categoryD1Ev@GOTPCREL(%rip), %rdi
	leaq	__dso_handle(%rip), %rdx
	call	__cxa_atexit@PLT
	movq	%r13, %rdi
	call	__cxa_guard_release@PLT
	jmp	.L476
	.p2align 4,,10
	.p2align 3
.L463:
	leaq	48(%rbp), %r13
	movq	%r13, %rdi
	call	pthread_mutex_lock@PLT
	movq	200(%rbp), %rax
	testq	%rax, %rax
	je	.L469
	movq	8(%rsp), %rsi
	movq	%rsi, (%rax)
.L470:
	movq	136(%rbp), %rax
	movq	%rbx, 200(%rbp)
	movq	%rax, %rdx
	orq	$1, %rdx
	movq	%rdx, 136(%rbp)
	cmpq	$1, %rax
	ja	.L550
	cmpb	$0, 176(%rbp)
	jne	.L473
	movq	144(%rbp), %rax
	testq	%rax, %rax
	je	.L473
	movb	$1, 176(%rbp)
	leaq	88(%rax), %rdx
	leaq	36(%rsp), %rcx
	movl	$3, %esi
	movq	%rdx, 40(%rsp)
	movl	88(%rax), %edx
	movl	$-2147483639, 36(%rsp)
	movl	96(%rax), %edi
	call	epoll_ctl@PLT
.L473:
	movq	%r13, %rdi
	call	pthread_mutex_unlock@PLT
	jmp	.L444
	.p2align 4,,10
	.p2align 3
.L533:
	movq	%r14, %rbx
	jmp	.L456
	.p2align 4,,10
	.p2align 3
.L544:
	movq	16(%rsp), %rax
	movl	$0, 36(%rsp)
	leaq	36(%rsp), %rcx
	movl	%ebx, %edx
	movq	$0, 40(%rsp)
	movl	$2, %esi
	movl	96(%rax), %edi
	call	epoll_ctl@PLT
	movq	72(%r15), %r9
	jmp	.L445
	.p2align 4,,10
	.p2align 3
.L546:
	movq	%r13, %rdi
	call	__cxa_guard_acquire@PLT
	testl	%eax, %eax
	je	.L479
	movq	_ZZN4asio15system_categoryEvE8instance@GOTPCREL(%rip), %rsi
	movq	_ZN4asio6detail15system_categoryD1Ev@GOTPCREL(%rip), %rdi
	leaq	__dso_handle(%rip), %rdx
	call	__cxa_atexit@PLT
	movq	%r13, %rdi
	call	__cxa_guard_release@PLT
	jmp	.L479
	.p2align 4,,10
	.p2align 3
.L549:
	movq	24(%rbp), %rax
	movq	16(%rsp), %rsi
	movq	%rax, 160(%rsi)
	jmp	.L459
.L550:
	movq	%r13, %rdi
	call	pthread_mutex_unlock@PLT
	leaq	88(%rbp), %rdi
	call	pthread_cond_signal@PLT
	jmp	.L444
	.p2align 4,,10
	.p2align 3
.L481:
	movl	%ebx, %edi
	leaq	36(%rsp), %rdx
	movl	$21537, %esi
	xorl	%eax, %eax
	movl	$0, 36(%rsp)
	call	ioctl@PLT
	andb	$-4, 68(%r15)
	movl	%ebx, %edi
	movl	$0, 0(%rbp)
	call	close@PLT
	jmp	.L541
.L469:
	movq	8(%rsp), %rax
	movq	%rax, 192(%rbp)
	jmp	.L470
.L467:
	movq	%rsi, 8(%rax)
	jmp	.L468
	.cfi_endproc
.LFE7024:
	.size	_ZN7asiopal13SerialChannel12ShutdownImplEv, .-_ZN7asiopal13SerialChannel12ShutdownImplEv
	.section	.text.unlikely
	.align 2
.LCOLDB29:
	.text
.LHOTB29:
	.align 2
	.p2align 4
	.globl	_ZN7asiopal13SerialChannel13BeginReadImplEN7openpal6WSliceE
	.type	_ZN7asiopal13SerialChannel13BeginReadImplEN7openpal6WSliceE, @function
_ZN7asiopal13SerialChannel13BeginReadImplEN7openpal6WSliceE:
.LFB7014:
	.cfi_startproc
	.cfi_personality 0x9b,DW.ref.__gxx_personality_v0
	.cfi_lsda 0x1b,.LLSDA7014
	pushq	%r15
	.cfi_def_cfa_offset 16
	.cfi_offset 15, -16
	pushq	%r14
	.cfi_def_cfa_offset 24
	.cfi_offset 14, -24
	movq	%rdx, %r14
	pushq	%r13
	.cfi_def_cfa_offset 32
	.cfi_offset 13, -32
	pushq	%r12
	.cfi_def_cfa_offset 40
	.cfi_offset 12, -40
	movl	%esi, %r12d
	pushq	%rbp
	.cfi_def_cfa_offset 48
	.cfi_offset 6, -48
	movq	%rdi, %rbp
	pushq	%rbx
	.cfi_def_cfa_offset 56
	.cfi_offset 3, -56
	subq	$120, %rsp
	.cfi_def_cfa_offset 176
	movq	24(%rdi), %rax
	movq	%rdi, 96(%rsp)
	movdqu	40(%rax), %xmm0
	movq	80(%rdi), %rax
	movaps	%xmm0, 80(%rsp)
	movq	%rax, 16(%rsp)
	movaps	%xmm0, (%rsp)
	data16	leaq	_ZN4asio6detail15keyword_tss_ptrINS0_10call_stackINS0_14strand_service11strand_implEhE7contextEE6value_E@tlsgd(%rip), %rdi
	.value	0x6666
	rex64
	call	__tls_get_addr@PLT
	movq	(%rax), %rbx
	testq	%rbx, %rbx
	je	.L552
	movq	8(%rsp), %rax
	jmp	.L554
	.p2align 4
	.p2align 4,,10
	.p2align 3
.L553:
	movq	16(%rbx), %rbx
	testq	%rbx, %rbx
	je	.L552
.L554:
	cmpq	%rax, (%rbx)
	jne	.L553
	movq	8(%rbx), %rbx
.L552:
	pxor	%xmm0, %xmm0
	leaq	80(%rsp), %rax
	movq	%rax, 48(%rsp)
	movups	%xmm0, 56(%rsp)
	data16	leaq	_ZN4asio6detail15keyword_tss_ptrINS0_10call_stackINS0_15task_io_serviceENS0_27task_io_service_thread_infoEE7contextEE6value_E@tlsgd(%rip), %rdi
	.value	0x6666
	rex64
	call	__tls_get_addr@PLT
	movq	(%rax), %rax
	testq	%rax, %rax
	je	.L555
	movq	8(%rax), %rax
	testq	%rax, %rax
	je	.L555
	movq	(%rax), %r15
	testq	%r15, %r15
	je	.L555
	movq	$0, (%rax)
	movzbl	(%r15), %eax
	cmpb	$103, %al
	jbe	.L556
	movb	%al, 104(%r15)
	jmp	.L557
	.p2align 4,,10
	.p2align 3
.L556:
	movq	%r15, %rdi
	call	_ZdlPv@PLT
.L555:
	movl	$105, %edi
.LEHB8:
	call	_Znwm@PLT
.LEHE8:
	movb	$104, 104(%rax)
	movq	%rax, %r15
.L557:
	leaq	_ZN4asio6detail18descriptor_read_opINS_17mutable_buffers_1ENS0_15wrapped_handlerINS_10io_service6strandEZN7asiopal13SerialChannel13BeginReadImplEN7openpal6WSliceEEUlRKSt10error_codemE_NS0_26is_continuation_if_runningEEEE11do_completeEPNS0_15task_io_serviceEPNS0_25task_io_service_operationESC_m(%rip), %rax
	movl	64(%rbp), %r13d
	movq	%r15, %xmm1
	movq	$0, (%r15)
	movq	%rax, 8(%r15)
	punpcklqdq	%xmm1, %xmm1
	movl	$0, 16(%r15)
	movl	$0, 24(%r15)
	movq	%r15, 56(%rsp)
	movaps	%xmm1, (%rsp)
	call	_ZNSt3_V215system_categoryEv@PLT
	movdqa	80(%rsp), %xmm0
	movl	%r13d, 56(%r15)
	movq	%rax, 32(%r15)
	movq	%rax, %rcx
	movq	_ZN4asio6detail23descriptor_read_op_baseINS_17mutable_buffers_1EE10do_performEPNS0_10reactor_opE@GOTPCREL(%rip), %rax
	movq	$0, 40(%r15)
	movq	%rax, 48(%r15)
	movq	96(%rsp), %rax
	movq	%r14, 64(%r15)
	movq	%r12, 72(%r15)
	movq	%rax, 96(%r15)
	movq	%r15, 64(%rsp)
	movups	%xmm0, 80(%r15)
	testq	%r12, %r12
	je	.L558
	testb	$3, 68(%rbp)
	jne	.L559
	cmpl	$-1, %r13d
	je	.L713
	movq	%rcx, 24(%rsp)
	call	__errno_location@PLT
	leaq	36(%rsp), %rdx
	movl	%r13d, %edi
	movl	$21537, %esi
	movl	$0, (%rax)
	movq	%rax, %r14
	xorl	%eax, %eax
	movl	$1, 36(%rsp)
	call	ioctl@PLT
	movl	%eax, %r12d
	movq	_ZGVZN4asio15system_categoryEvE8instance@GOTPCREL(%rip), %rax
	movzbl	(%rax), %eax
	testb	%al, %al
	movq	24(%rsp), %rcx
	je	.L564
.L696:
	movq	_ZZN4asio15system_categoryEvE8instance@GOTPCREL(%rip), %r13
.L565:
	movl	(%r14), %eax
	movq	%r13, 32(%r15)
	movl	%eax, 24(%r15)
	testl	%r12d, %r12d
	jns	.L714
.L558:
	movq	16(%rsp), %rax
	movq	40(%rax), %rax
	movq	40(%rax), %rbp
	cmpb	$0, 40(%rbp)
	jne	.L629
	testq	%rbx, %rbx
	je	.L614
.L629:
	data16	leaq	_ZN4asio6detail15keyword_tss_ptrINS0_10call_stackINS0_15task_io_serviceENS0_27task_io_service_thread_infoEE7contextEE6value_E@tlsgd(%rip), %rdi
	.value	0x6666
	rex64
	call	__tls_get_addr@PLT
	movq	(%rax), %rax
	testq	%rax, %rax
	jne	.L618
	jmp	.L614
	.p2align 4
	.p2align 4,,10
	.p2align 3
.L616:
	movq	16(%rax), %rax
	testq	%rax, %rax
	je	.L614
.L618:
	cmpq	(%rax), %rbp
	jne	.L616
	movq	8(%rax), %rax
	testq	%rax, %rax
	je	.L614
	movq	16(%rax), %rdx
	addq	$1, 24(%rax)
	movq	$0, (%r15)
	testq	%rdx, %rdx
	je	.L619
.L700:
	movq	%r15, (%rdx)
	movq	%r15, 16(%rax)
	addq	$120, %rsp
	.cfi_remember_state
	.cfi_def_cfa_offset 56
	popq	%rbx
	.cfi_def_cfa_offset 48
	popq	%rbp
	.cfi_def_cfa_offset 40
	popq	%r12
	.cfi_def_cfa_offset 32
	popq	%r13
	.cfi_def_cfa_offset 24
	popq	%r14
	.cfi_def_cfa_offset 16
	popq	%r15
	.cfi_def_cfa_offset 8
	ret
	.p2align 4,,10
	.p2align 3
.L714:
	.cfi_restore_state
	movl	$0, 24(%r15)
	movl	64(%rbp), %r13d
	movq	%rcx, 32(%r15)
	orb	$2, 68(%rbp)
.L559:
	movq	16(%rsp), %rax
	movq	72(%rbp), %r12
	movq	40(%rax), %r14
	testq	%r12, %r12
	je	.L715
	addq	$40, %r12
	movq	%r12, %rdi
	call	pthread_mutex_lock@PLT
	movq	72(%rbp), %rax
	cmpb	$0, 144(%rax)
	jne	.L716
	cmpq	$0, 96(%rax)
	je	.L717
.L597:
	movq	104(%rax), %rdx
	movq	$0, (%r15)
	testq	%rdx, %rdx
	je	.L611
	movq	%r15, (%rdx)
	movq	%r15, 104(%rax)
.L612:
	movq	40(%r14), %rax
	lock addq	$1, 184(%rax)
	movq	%r12, %rdi
	call	pthread_mutex_unlock@PLT
	addq	$120, %rsp
	.cfi_remember_state
	.cfi_def_cfa_offset 56
	popq	%rbx
	.cfi_def_cfa_offset 48
	popq	%rbp
	.cfi_def_cfa_offset 40
	popq	%r12
	.cfi_def_cfa_offset 32
	popq	%r13
	.cfi_def_cfa_offset 24
	popq	%r14
	.cfi_def_cfa_offset 16
	popq	%r15
	.cfi_def_cfa_offset 8
	ret
	.p2align 4,,10
	.p2align 3
.L614:
	.cfi_restore_state
	lock addq	$1, 184(%rbp)
	leaq	48(%rbp), %rbx
	movq	%rbx, %rdi
	call	pthread_mutex_lock@PLT
	movq	200(%rbp), %rax
	movq	$0, (%r15)
	testq	%rax, %rax
	je	.L620
.L710:
	movq	%r15, (%rax)
	movq	%r15, 200(%rbp)
.L621:
	movq	136(%rbp), %rax
	movq	%rax, %rdx
	orq	$1, %rdx
	movq	%rdx, 136(%rbp)
	cmpq	$1, %rax
	jbe	.L622
	movq	%rbx, %rdi
	call	pthread_mutex_unlock@PLT
	leaq	88(%rbp), %rdi
	call	pthread_cond_signal@PLT
.L551:
	addq	$120, %rsp
	.cfi_remember_state
	.cfi_def_cfa_offset 56
	popq	%rbx
	.cfi_def_cfa_offset 48
	popq	%rbp
	.cfi_def_cfa_offset 40
	popq	%r12
	.cfi_def_cfa_offset 32
	popq	%r13
	.cfi_def_cfa_offset 24
	popq	%r14
	.cfi_def_cfa_offset 16
	popq	%r15
	.cfi_def_cfa_offset 8
	ret
	.p2align 4,,10
	.p2align 3
.L622:
	.cfi_restore_state
	cmpb	$0, 176(%rbp)
	jne	.L624
	movq	144(%rbp), %rax
	testq	%rax, %rax
	je	.L624
	movb	$1, 176(%rbp)
	leaq	88(%rax), %rdx
	leaq	36(%rsp), %rcx
	movl	$3, %esi
	movl	$-2147483639, 36(%rsp)
	movq	%rdx, 40(%rsp)
	movl	88(%rax), %edx
	movl	96(%rax), %edi
	call	epoll_ctl@PLT
.L624:
	movq	%rbx, %rdi
	call	pthread_mutex_unlock@PLT
	addq	$120, %rsp
	.cfi_remember_state
	.cfi_def_cfa_offset 56
	popq	%rbx
	.cfi_def_cfa_offset 48
	popq	%rbp
	.cfi_def_cfa_offset 40
	popq	%r12
	.cfi_def_cfa_offset 32
	popq	%r13
	.cfi_def_cfa_offset 24
	popq	%r14
	.cfi_def_cfa_offset 16
	popq	%r15
	.cfi_def_cfa_offset 8
	ret
.L619:
	.cfi_restore_state
	movdqa	(%rsp), %xmm5
	movups	%xmm5, 8(%rax)
	jmp	.L551
.L717:
	cmpq	$0, 128(%rax)
	je	.L718
	movl	92(%rax), %edx
	movq	%rax, 40(%rsp)
	leaq	36(%rsp), %rcx
	movl	$3, %esi
	movl	%edx, 36(%rsp)
	movl	96(%r14), %edi
	movl	%r13d, %edx
	call	epoll_ctl@PLT
.L697:
	movq	72(%rbp), %rax
	jmp	.L597
.L611:
	movdqa	(%rsp), %xmm4
	movups	%xmm4, 96(%rax)
	jmp	.L612
	.p2align 4,,10
	.p2align 3
.L564:
	movq	_ZGVZN4asio15system_categoryEvE8instance@GOTPCREL(%rip), %rdi
	movq	%rcx, 24(%rsp)
	call	__cxa_guard_acquire@PLT
	movq	24(%rsp), %rcx
	testl	%eax, %eax
	je	.L696
	movq	_ZZN4asio15system_categoryEvE8instance@GOTPCREL(%rip), %r13
	movq	_ZN4asio6detail15system_categoryD1Ev@GOTPCREL(%rip), %rdi
	movq	%rcx, 24(%rsp)
	leaq	__dso_handle(%rip), %rdx
	movq	%r13, %rsi
	call	__cxa_atexit@PLT
	movq	_ZGVZN4asio15system_categoryEvE8instance@GOTPCREL(%rip), %rdi
	call	__cxa_guard_release@PLT
	movq	24(%rsp), %rcx
	jmp	.L565
	.p2align 4,,10
	.p2align 3
.L620:
	movdqa	(%rsp), %xmm3
	movups	%xmm3, 192(%rbp)
	jmp	.L621
.L715:
	movq	_ZGVZN4asio15system_categoryEvE8instance@GOTPCREL(%rip), %rbp
	movzbl	0(%rbp), %eax
	testb	%al, %al
	je	.L569
	movq	_ZZN4asio15system_categoryEvE8instance@GOTPCREL(%rip), %r13
.L570:
	movq	40(%r14), %rbp
	movl	$9, 24(%r15)
	movq	%r13, 32(%r15)
	cmpb	$0, 40(%rbp)
	jne	.L626
	testq	%rbx, %rbx
	je	.L600
.L626:
	data16	leaq	_ZN4asio6detail15keyword_tss_ptrINS0_10call_stackINS0_15task_io_serviceENS0_27task_io_service_thread_infoEE7contextEE6value_E@tlsgd(%rip), %rdi
	.value	0x6666
	rex64
	call	__tls_get_addr@PLT
	movq	(%rax), %rax
	testq	%rax, %rax
	jne	.L576
	jmp	.L600
	.p2align 4
	.p2align 4,,10
	.p2align 3
.L574:
	movq	16(%rax), %rax
	testq	%rax, %rax
	je	.L600
.L576:
	cmpq	(%rax), %rbp
	jne	.L574
.L712:
	movq	8(%rax), %rax
	testq	%rax, %rax
	je	.L600
	addq	$1, 24(%rax)
	movq	$0, (%r15)
	movq	16(%rax), %rdx
	testq	%rdx, %rdx
	jne	.L700
	movdqa	(%rsp), %xmm6
	movups	%xmm6, 8(%rax)
	jmp	.L551
.L716:
	movq	40(%r14), %rbp
	cmpb	$0, 40(%rbp)
	jne	.L627
	testq	%rbx, %rbx
	je	.L585
.L627:
	data16	leaq	_ZN4asio6detail15keyword_tss_ptrINS0_10call_stackINS0_15task_io_serviceENS0_27task_io_service_thread_infoEE7contextEE6value_E@tlsgd(%rip), %rdi
	.value	0x6666
	rex64
	call	__tls_get_addr@PLT
	movq	(%rax), %rax
	testq	%rax, %rax
	jne	.L589
	jmp	.L585
	.p2align 4
	.p2align 4,,10
	.p2align 3
.L587:
	movq	16(%rax), %rax
	testq	%rax, %rax
	je	.L585
.L589:
	cmpq	(%rax), %rbp
	jne	.L587
	movq	8(%rax), %rax
	testq	%rax, %rax
	je	.L585
	movq	16(%rax), %rdx
	addq	$1, 24(%rax)
	movq	$0, (%r15)
	testq	%rdx, %rdx
	je	.L590
	movq	%r15, (%rdx)
	movq	%r15, 16(%rax)
.L591:
	movq	%r12, %rdi
	call	pthread_mutex_unlock@PLT
	jmp	.L551
.L713:
	movq	_ZGVZN4asio15system_categoryEvE8instance@GOTPCREL(%rip), %rbp
	movzbl	0(%rbp), %eax
	testb	%al, %al
	je	.L561
	movq	_ZZN4asio15system_categoryEvE8instance@GOTPCREL(%rip), %r13
.L562:
	movl	$9, 24(%r15)
	movq	%r13, 32(%r15)
	jmp	.L558
.L569:
	movq	%rbp, %rdi
	call	__cxa_guard_acquire@PLT
	movq	_ZZN4asio15system_categoryEvE8instance@GOTPCREL(%rip), %r13
	testl	%eax, %eax
	je	.L570
	movq	_ZN4asio6detail15system_categoryD1Ev@GOTPCREL(%rip), %rdi
	leaq	__dso_handle(%rip), %rdx
	movq	%r13, %rsi
	call	__cxa_atexit@PLT
	movq	%rbp, %rdi
	call	__cxa_guard_release@PLT
	jmp	.L570
.L561:
	movq	%rbp, %rdi
	call	__cxa_guard_acquire@PLT
	movq	_ZZN4asio15system_categoryEvE8instance@GOTPCREL(%rip), %r13
	testl	%eax, %eax
	je	.L562
	movq	_ZN4asio6detail15system_categoryD1Ev@GOTPCREL(%rip), %rdi
	leaq	__dso_handle(%rip), %rdx
	movq	%r13, %rsi
	call	__cxa_atexit@PLT
	movq	%rbp, %rdi
	call	__cxa_guard_release@PLT
	jmp	.L562
.L600:
	lock addq	$1, 184(%rbp)
	leaq	48(%rbp), %rbx
	movq	%rbx, %rdi
	call	pthread_mutex_lock@PLT
	movq	$0, (%r15)
	movq	200(%rbp), %rax
	testq	%rax, %rax
	jne	.L710
	movdqa	(%rsp), %xmm7
	movups	%xmm7, 192(%rbp)
	jmp	.L621
.L585:
	lock addq	$1, 184(%rbp)
	leaq	48(%rbp), %rbx
	movq	%rbx, %rdi
	call	pthread_mutex_lock@PLT
	movq	200(%rbp), %rax
	movq	$0, (%r15)
	testq	%rax, %rax
	je	.L592
	movq	%r15, (%rax)
	movq	%r15, 200(%rbp)
.L593:
	movq	136(%rbp), %rax
	movq	%rax, %rdx
	orq	$1, %rdx
	movq	%rdx, 136(%rbp)
	cmpq	$1, %rax
	jbe	.L594
	movq	%rbx, %rdi
	call	pthread_mutex_unlock@PLT
	leaq	88(%rbp), %rdi
	call	pthread_cond_signal@PLT
	jmp	.L591
.L718:
	movq	%r15, %rdi
.LEHB9:
	call	*48(%r15)
.LEHE9:
	testb	%al, %al
	je	.L697
	movq	%r12, %rdi
	call	pthread_mutex_unlock@PLT
	movq	40(%r14), %rbp
	cmpb	$0, 40(%rbp)
	jne	.L628
	testq	%rbx, %rbx
	je	.L600
.L628:
	data16	leaq	_ZN4asio6detail15keyword_tss_ptrINS0_10call_stackINS0_15task_io_serviceENS0_27task_io_service_thread_infoEE7contextEE6value_E@tlsgd(%rip), %rdi
	.value	0x6666
	rex64
	call	__tls_get_addr@PLT
	movq	(%rax), %rax
	testq	%rax, %rax
	jne	.L604
	jmp	.L600
	.p2align 4
	.p2align 4,,10
	.p2align 3
.L602:
	movq	16(%rax), %rax
	testq	%rax, %rax
	je	.L600
.L604:
	cmpq	(%rax), %rbp
	jne	.L602
	jmp	.L712
	.p2align 4,,10
	.p2align 3
.L594:
	cmpb	$0, 176(%rbp)
	jne	.L596
	movq	144(%rbp), %rax
	testq	%rax, %rax
	je	.L596
	movb	$1, 176(%rbp)
	leaq	88(%rax), %rdx
	leaq	36(%rsp), %rcx
	movl	$3, %esi
	movq	%rdx, 40(%rsp)
	movl	88(%rax), %edx
	movl	$-2147483639, 36(%rsp)
	movl	96(%rax), %edi
	call	epoll_ctl@PLT
.L596:
	movq	%rbx, %rdi
	call	pthread_mutex_unlock@PLT
	jmp	.L591
.L592:
	movdqa	(%rsp), %xmm7
	movups	%xmm7, 192(%rbp)
	jmp	.L593
.L590:
	movdqa	(%rsp), %xmm6
	movups	%xmm6, 8(%rax)
	jmp	.L591
.L625:
	movq	%rax, %rbx
	jmp	.L613
	.section	.gcc_except_table
.LLSDA7014:
	.byte	0xff
	.byte	0xff
	.byte	0x1
	.uleb128 .LLSDACSE7014-.LLSDACSB7014
.LLSDACSB7014:
	.uleb128 .LEHB8-.LFB7014
	.uleb128 .LEHE8-.LEHB8
	.uleb128 0
	.uleb128 0
	.uleb128 .LEHB9-.LFB7014
	.uleb128 .LEHE9-.LEHB9
	.uleb128 .L625-.LFB7014
	.uleb128 0
.LLSDACSE7014:
	.text
	.cfi_endproc
	.section	.text.unlikely
	.cfi_startproc
	.cfi_personality 0x9b,DW.ref.__gxx_personality_v0
	.cfi_lsda 0x1b,.LLSDAC7014
	.type	_ZN7asiopal13SerialChannel13BeginReadImplEN7openpal6WSliceE.cold, @function
_ZN7asiopal13SerialChannel13BeginReadImplEN7openpal6WSliceE.cold:
.LFSB7014:
.L613:
	.cfi_def_cfa_offset 176
	.cfi_offset 3, -56
	.cfi_offset 6, -48
	.cfi_offset 12, -40
	.cfi_offset 13, -32
	.cfi_offset 14, -24
	.cfi_offset 15, -16
	movq	%r12, %rdi
	call	pthread_mutex_unlock@PLT
	leaq	48(%rsp), %rdi
	call	_ZN4asio6detail18descriptor_read_opINS_17mutable_buffers_1ENS0_15wrapped_handlerINS_10io_service6strandEZN7asiopal13SerialChannel13BeginReadImplEN7openpal6WSliceEEUlRKSt10error_codemE_NS0_26is_continuation_if_runningEEEE3ptr5resetEv
	movq	%rbx, %rdi
.LEHB10:
	call	_Unwind_Resume@PLT
.LEHE10:
	.cfi_endproc
.LFE7014:
	.section	.gcc_except_table
.LLSDAC7014:
	.byte	0xff
	.byte	0xff
	.byte	0x1
	.uleb128 .LLSDACSEC7014-.LLSDACSBC7014
.LLSDACSBC7014:
	.uleb128 .LEHB10-.LCOLDB29
	.uleb128 .LEHE10-.LEHB10
	.uleb128 0
	.uleb128 0
.LLSDACSEC7014:
	.section	.text.unlikely
	.text
	.size	_ZN7asiopal13SerialChannel13BeginReadImplEN7openpal6WSliceE, .-_ZN7asiopal13SerialChannel13BeginReadImplEN7openpal6WSliceE
	.section	.text.unlikely
	.size	_ZN7asiopal13SerialChannel13BeginReadImplEN7openpal6WSliceE.cold, .-_ZN7asiopal13SerialChannel13BeginReadImplEN7openpal6WSliceE.cold
.LCOLDE29:
	.text
.LHOTE29:
	.section	.text._ZN4asio15system_categoryEv,"axG",@progbits,_ZN4asio15system_categoryEv,comdat
	.p2align 4
	.weak	_ZN4asio15system_categoryEv
	.type	_ZN4asio15system_categoryEv, @function
_ZN4asio15system_categoryEv:
.LFB2289:
	.cfi_startproc
	movq	_ZGVZN4asio15system_categoryEvE8instance@GOTPCREL(%rip), %rax
	movzbl	(%rax), %eax
	testb	%al, %al
	je	.L720
	movq	_ZZN4asio15system_categoryEvE8instance@GOTPCREL(%rip), %rax
	ret
	.p2align 4,,10
	.p2align 3
.L720:
	subq	$24, %rsp
	.cfi_def_cfa_offset 32
	movq	_ZGVZN4asio15system_categoryEvE8instance@GOTPCREL(%rip), %rdi
	call	__cxa_guard_acquire@PLT
	movq	_ZZN4asio15system_categoryEvE8instance@GOTPCREL(%rip), %rcx
	testl	%eax, %eax
	jne	.L725
	movq	%rcx, %rax
	addq	$24, %rsp
	.cfi_remember_state
	.cfi_def_cfa_offset 8
	ret
	.p2align 4,,10
	.p2align 3
.L725:
	.cfi_restore_state
	movq	_ZN4asio6detail15system_categoryD1Ev@GOTPCREL(%rip), %rdi
	movq	%rcx, %rsi
	movq	%rcx, 8(%rsp)
	leaq	__dso_handle(%rip), %rdx
	call	__cxa_atexit@PLT
	movq	_ZGVZN4asio15system_categoryEvE8instance@GOTPCREL(%rip), %rdi
	call	__cxa_guard_release@PLT
	movq	8(%rsp), %rcx
	addq	$24, %rsp
	.cfi_def_cfa_offset 8
	movq	%rcx, %rax
	ret
	.cfi_endproc
.LFE2289:
	.size	_ZN4asio15system_categoryEv, .-_ZN4asio15system_categoryEv
	.section	.rodata._ZN4asio6detail14do_throw_errorERKSt10error_codePKc.str1.1,"aMS",@progbits,1
.LC30:
	.string	": "
	.section	.text._ZN4asio6detail14do_throw_errorERKSt10error_codePKc,"axG",@progbits,_ZN4asio6detail14do_throw_errorERKSt10error_codePKc,comdat
	.p2align 4
	.weak	_ZN4asio6detail14do_throw_errorERKSt10error_codePKc
	.type	_ZN4asio6detail14do_throw_errorERKSt10error_codePKc, @function
_ZN4asio6detail14do_throw_errorERKSt10error_codePKc:
.LFB2323:
	.cfi_startproc
	.cfi_personality 0x9b,DW.ref.__gxx_personality_v0
	.cfi_lsda 0x1b,.LLSDA2323
	pushq	%r15
	.cfi_def_cfa_offset 16
	.cfi_offset 15, -16
	pushq	%r14
	.cfi_def_cfa_offset 24
	.cfi_offset 14, -24
	pushq	%r13
	.cfi_def_cfa_offset 32
	.cfi_offset 13, -32
	movq	%rsi, %r13
	pushq	%r12
	.cfi_def_cfa_offset 40
	.cfi_offset 12, -40
	pushq	%rbp
	.cfi_def_cfa_offset 48
	.cfi_offset 6, -48
	pushq	%rbx
	.cfi_def_cfa_offset 56
	.cfi_offset 3, -56
	subq	$152, %rsp
	.cfi_def_cfa_offset 208
	movq	8(%rdi), %r12
	movl	(%rdi), %r15d
	leaq	48(%rsp), %rbp
	movq	(%r12), %rax
	movl	%r15d, %edx
	movq	%r12, %rsi
	movq	%rbp, %rdi
.LEHB11:
	call	*32(%rax)
.LEHE11:
	movl	$2, %r8d
	xorl	%edx, %edx
	xorl	%esi, %esi
	leaq	.LC30(%rip), %rcx
	movq	%rbp, %rdi
.LEHB12:
	call	_ZNSt7__cxx1112basic_stringIcSt11char_traitsIcESaIcEE10_M_replaceEmmPKcm@PLT
.LEHE12:
	leaq	96(%rsp), %rbx
	leaq	16(%rax), %rdx
	movq	%rbx, 80(%rsp)
	movq	(%rax), %rcx
	cmpq	%rdx, %rcx
	je	.L746
	movq	%rcx, 80(%rsp)
	movq	16(%rax), %rcx
	movq	%rcx, 96(%rsp)
.L731:
	movq	8(%rax), %rcx
	movq	%rdx, (%rax)
	movq	%r13, %rdi
	movq	$0, 8(%rax)
	movb	$0, 16(%rax)
	movq	%rcx, 88(%rsp)
	call	strlen@PLT
	movq	%r13, %rcx
	xorl	%edx, %edx
	xorl	%esi, %esi
	movq	%rax, %r8
	leaq	80(%rsp), %rax
	movq	%rax, %rdi
	movq	%rax, 8(%rsp)
.LEHB13:
	call	_ZNSt7__cxx1112basic_stringIcSt11char_traitsIcESaIcEE10_M_replaceEmmPKcm@PLT
.LEHE13:
	leaq	128(%rsp), %r14
	leaq	16(%rax), %r8
	movq	%r14, 112(%rsp)
	movq	(%rax), %rcx
	cmpq	%r8, %rcx
	je	.L747
	movq	%rcx, 112(%rsp)
	movq	16(%rax), %rcx
	movq	%rcx, 128(%rsp)
.L733:
	movq	8(%rax), %rcx
	movq	%r8, (%rax)
	leaq	16(%rsp), %r13
	movq	$0, 8(%rax)
	movq	%r13, %rdi
	movb	$0, 16(%rax)
	leaq	112(%rsp), %rax
	movq	%rax, %rsi
	movq	%rcx, 120(%rsp)
	movq	%rax, (%rsp)
.LEHB14:
	call	_ZNSt13runtime_errorC2ERKNSt7__cxx1112basic_stringIcSt11char_traitsIcESaIcEEE@PLT
.LEHE14:
	movq	112(%rsp), %rdi
	cmpq	%r14, %rdi
	je	.L734
	movq	128(%rsp), %rax
	leaq	1(%rax), %rsi
	call	_ZdlPvm@PLT
.L734:
	movq	80(%rsp), %rdi
	cmpq	%rbx, %rdi
	je	.L735
	movq	96(%rsp), %rax
	leaq	1(%rax), %rsi
	call	_ZdlPvm@PLT
.L735:
	movq	48(%rsp), %rdi
	leaq	64(%rsp), %rax
	cmpq	%rax, %rdi
	je	.L736
	movq	64(%rsp), %rax
	leaq	1(%rax), %rsi
	call	_ZdlPvm@PLT
.L736:
	movq	_ZTVSt12system_error@GOTPCREL(%rip), %rax
	movl	$32, %edi
	movl	%r15d, 32(%rsp)
	movq	%r12, 40(%rsp)
	leaq	16(%rax), %rbp
	movq	%rbp, 16(%rsp)
	call	__cxa_allocate_exception@PLT
	movq	%r13, %rsi
	movq	%rax, %rbx
	movq	%rax, %rdi
	call	_ZNSt13runtime_errorC2ERKS_@PLT
	movdqa	32(%rsp), %xmm0
	movq	%rbp, (%rbx)
	movq	%rbx, %rdi
	movq	_ZNSt12system_errorD1Ev@GOTPCREL(%rip), %rdx
	movq	_ZTISt12system_error@GOTPCREL(%rip), %rsi
	movups	%xmm0, 16(%rbx)
.LEHB15:
	call	__cxa_throw@PLT
.LEHE15:
.L747:
	movq	8(%rax), %rcx
	movq	%r14, %rdi
	movq	%r8, %rsi
	addl	$1, %ecx
	rep movsb
	jmp	.L733
.L746:
	movq	8(%rax), %rcx
	movq	%rbx, %rdi
	movq	%rdx, %rsi
	addl	$1, %ecx
	rep movsb
	jmp	.L731
.L741:
	movq	%rax, %rbx
	jmp	.L740
.L742:
	movq	%rax, %rbx
	jmp	.L739
.L740:
	movq	%r13, %rdi
	call	_ZNSt12system_errorD1Ev@PLT
	movq	%rbx, %rdi
.LEHB16:
	call	_Unwind_Resume@PLT
.L737:
	movq	(%rsp), %rdi
	call	_ZNSt7__cxx1112basic_stringIcSt11char_traitsIcESaIcEE10_M_disposeEv@PLT
.L738:
	movq	8(%rsp), %rdi
	call	_ZNSt7__cxx1112basic_stringIcSt11char_traitsIcESaIcEE10_M_disposeEv@PLT
.L739:
	movq	%rbp, %rdi
	call	_ZNSt7__cxx1112basic_stringIcSt11char_traitsIcESaIcEE10_M_disposeEv@PLT
	movq	%rbx, %rdi
	call	_Unwind_Resume@PLT
.LEHE16:
.L743:
	movq	%rax, %rbx
	jmp	.L738
.L744:
	movq	%rax, %rbx
	jmp	.L737
	.cfi_endproc
.LFE2323:
	.section	.gcc_except_table
.LLSDA2323:
	.byte	0xff
	.byte	0xff
	.byte	0x1
	.uleb128 .LLSDACSE2323-.LLSDACSB2323
.LLSDACSB2323:
	.uleb128 .LEHB11-.LFB2323
	.uleb128 .LEHE11-.LEHB11
	.uleb128 0
	.uleb128 0
	.uleb128 .LEHB12-.LFB2323
	.uleb128 .LEHE12-.LEHB12
	.uleb128 .L742-.LFB2323
	.uleb128 0
	.uleb128 .LEHB13-.LFB2323
	.uleb128 .LEHE13-.LEHB13
	.uleb128 .L743-.LFB2323
	.uleb128 0
	.uleb128 .LEHB14-.LFB2323
	.uleb128 .LEHE14-.LEHB14
	.uleb128 .L744-.LFB2323
	.uleb128 0
	.uleb128 .LEHB15-.LFB2323
	.uleb128 .LEHE15-.LEHB15
	.uleb128 .L741-.LFB2323
	.uleb128 0
	.uleb128 .LEHB16-.LFB2323
	.uleb128 .LEHE16-.LEHB16
	.uleb128 0
	.uleb128 0
.LLSDACSE2323:
	.section	.text._ZN4asio6detail14do_throw_errorERKSt10error_codePKc,"axG",@progbits,_ZN4asio6detail14do_throw_errorERKSt10error_codePKc,comdat
	.size	_ZN4asio6detail14do_throw_errorERKSt10error_codePKc, .-_ZN4asio6detail14do_throw_errorERKSt10error_codePKc
	.section	.rodata._ZN4asio6detail13epoll_reactor12fork_serviceENS_10io_service10fork_eventE.str1.1,"aMS",@progbits,1
.LC31:
	.string	"epoll"
.LC33:
	.string	"eventfd_select_interrupter"
.LC34:
	.string	"epoll re-registration"
	.section	.text._ZN4asio6detail13epoll_reactor12fork_serviceENS_10io_service10fork_eventE,"axG",@progbits,_ZN4asio6detail13epoll_reactor12fork_serviceENS_10io_service10fork_eventE,comdat
	.align 2
	.p2align 4
	.weak	_ZN4asio6detail13epoll_reactor12fork_serviceENS_10io_service10fork_eventE
	.type	_ZN4asio6detail13epoll_reactor12fork_serviceENS_10io_service10fork_eventE, @function
_ZN4asio6detail13epoll_reactor12fork_serviceENS_10io_service10fork_eventE:
.LFB3235:
	.cfi_startproc
	.cfi_personality 0x9b,DW.ref.__gxx_personality_v0
	.cfi_lsda 0x1b,.LLSDA3235
	cmpl	$2, %esi
	je	.L851
	ret
	.p2align 4,,10
	.p2align 3
.L851:
	pushq	%r15
	.cfi_def_cfa_offset 16
	.cfi_offset 15, -16
	pushq	%r14
	.cfi_def_cfa_offset 24
	.cfi_offset 14, -24
	pushq	%r13
	.cfi_def_cfa_offset 32
	.cfi_offset 13, -32
	pushq	%r12
	.cfi_def_cfa_offset 40
	.cfi_offset 12, -40
	pushq	%rbp
	.cfi_def_cfa_offset 48
	.cfi_offset 6, -48
	pushq	%rbx
	.cfi_def_cfa_offset 56
	.cfi_offset 3, -56
	movq	%rdi, %rbx
	subq	$88, %rsp
	.cfi_def_cfa_offset 144
	movl	96(%rdi), %edi
	cmpl	$-1, %edi
	jne	.L852
.L750:
	movl	$-1, 96(%rbx)
	movl	$524288, %edi
	call	epoll_create1@PLT
	movl	%eax, %ebp
	cmpl	$-1, %eax
	je	.L853
.L751:
	movl	100(%rbx), %edi
	movl	%ebp, 96(%rbx)
	cmpl	$-1, %edi
	jne	.L854
.L757:
	movl	$-1, 100(%rbx)
	movl	$524288, %esi
	movl	$1, %edi
	call	timerfd_create@PLT
	movl	%eax, %ebp
	cmpl	$-1, %eax
	je	.L855
.L758:
	movl	92(%rbx), %eax
	movl	%ebp, 100(%rbx)
	cmpl	$-1, %eax
	je	.L760
	movl	88(%rbx), %edi
	cmpl	%edi, %eax
	jne	.L856
.L761:
.LEHB17:
	call	close@PLT
.L762:
	movq	$-1, 88(%rbx)
	movl	$526336, %esi
	xorl	%edi, %edi
	call	eventfd@PLT
	movd	%eax, %xmm1
	movl	%eax, %edx
	pshufd	$0xe0, %xmm1, %xmm0
	movq	%xmm0, 88(%rbx)
	cmpl	$-1, %eax
	je	.L857
.L763:
	movl	96(%rbx), %edi
	leaq	4(%rsp), %rbp
	leaq	88(%rbx), %r12
	movl	$1, %esi
	movq	%rbp, %rcx
	movl	$-2147483639, 4(%rsp)
	movq	%r12, 8(%rsp)
	call	epoll_ctl@PLT
	movl	92(%rbx), %edi
	movl	$8, %edx
	leaq	48(%rsp), %rsi
	movq	$1, 48(%rsp)
	call	write@PLT
.LEHE17:
	movl	100(%rbx), %edx
	cmpl	$-1, %edx
	jne	.L858
.L771:
	movl	88(%rbx), %edx
	movl	96(%rbx), %edi
	leaq	48(%rsp), %rcx
	movl	$3, %esi
	movl	$-2147483639, 48(%rsp)
	movq	%r12, 52(%rsp)
	call	epoll_ctl@PLT
.L777:
	leaq	120(%rbx), %rdi
	leaq	120(%rbx), %r14
	call	pthread_mutex_lock@PLT
	movq	160(%rbx), %r13
	testq	%r13, %r13
	jne	.L778
	jmp	.L784
	.p2align 4,,10
	.p2align 3
.L779:
	movq	24(%r13), %r13
	testq	%r13, %r13
	je	.L784
.L778:
	movl	92(%r13), %eax
	movl	88(%r13), %edx
	movq	%rbp, %rcx
	movl	$1, %esi
	movl	96(%rbx), %edi
	movq	%r13, 8(%rsp)
	movl	%eax, 4(%rsp)
	call	epoll_ctl@PLT
	testl	%eax, %eax
	je	.L779
	movq	_ZGVZN4asio15system_categoryEvE8instance@GOTPCREL(%rip), %rax
	movzbl	(%rax), %eax
	testb	%al, %al
	je	.L780
	movq	_ZZN4asio15system_categoryEvE8instance@GOTPCREL(%rip), %r12
.L781:
	call	__errno_location@PLT
	movq	%r12, 56(%rsp)
	movl	(%rax), %eax
	movl	%eax, 48(%rsp)
	testl	%eax, %eax
	je	.L779
	leaq	.LC34(%rip), %rsi
	leaq	48(%rsp), %rdi
.LEHB18:
	call	_ZN4asio6detail14do_throw_errorERKSt10error_codePKc@PLT
.LEHE18:
	.p2align 4,,10
	.p2align 3
.L856:
	movl	%eax, %edi
.LEHB19:
	call	close@PLT
.L760:
	movl	88(%rbx), %edi
	cmpl	$-1, %edi
	je	.L762
	jmp	.L761
	.p2align 4,,10
	.p2align 3
.L858:
	movl	96(%rbx), %edi
	leaq	100(%rbx), %rax
	movq	%rbp, %rcx
	movl	$1, %esi
	movl	$9, 4(%rsp)
	movq	%rax, 8(%rsp)
	call	epoll_ctl@PLT
	movl	100(%rbx), %edi
	cmpl	$-1, %edi
	je	.L771
	movq	104(%rbx), %r12
	pxor	%xmm0, %xmm0
	movaps	%xmm0, 16(%rsp)
	testq	%r12, %r12
	je	.L772
	movl	$300000000, %esi
	.p2align 4
	.p2align 3
.L773:
	movq	(%r12), %rax
	movq	%r12, %rdi
	call	*32(%rax)
	movq	8(%r12), %r12
	movq	%rax, %rsi
	testq	%r12, %r12
	jne	.L773
	movabsq	$4835703278458516699, %rax
	movl	100(%rbx), %edi
	movl	$1, %ecx
	imulq	%rsi
	movq	%rsi, %rax
	sarq	$63, %rax
	sarq	$18, %rdx
	subq	%rax, %rdx
	movl	$1, %eax
	movq	%rdx, 32(%rsp)
	testq	%rsi, %rsi
	jne	.L859
.L776:
	movq	%rcx, 40(%rsp)
	leaq	16(%rsp), %rdx
	leaq	48(%rsp), %rcx
	movl	%eax, %esi
	call	timerfd_settime@PLT
	jmp	.L777
	.p2align 4,,10
	.p2align 3
.L854:
	call	close@PLT
	jmp	.L757
	.p2align 4,,10
	.p2align 3
.L852:
	call	close@PLT
	jmp	.L750
	.p2align 4,,10
	.p2align 3
.L780:
	movq	_ZGVZN4asio15system_categoryEvE8instance@GOTPCREL(%rip), %rdi
	call	__cxa_guard_acquire@PLT
	movq	_ZZN4asio15system_categoryEvE8instance@GOTPCREL(%rip), %r12
	testl	%eax, %eax
	je	.L781
	movq	_ZN4asio6detail15system_categoryD1Ev@GOTPCREL(%rip), %rdi
	leaq	__dso_handle(%rip), %rdx
	movq	%r12, %rsi
	call	__cxa_atexit@PLT
	movq	_ZGVZN4asio15system_categoryEvE8instance@GOTPCREL(%rip), %rdi
	call	__cxa_guard_release@PLT
	jmp	.L781
	.p2align 4,,10
	.p2align 3
.L784:
	movq	%r14, %rdi
	call	pthread_mutex_unlock@PLT
	addq	$88, %rsp
	.cfi_remember_state
	.cfi_def_cfa_offset 56
	popq	%rbx
	.cfi_def_cfa_offset 48
	popq	%rbp
	.cfi_def_cfa_offset 40
	popq	%r12
	.cfi_def_cfa_offset 32
	popq	%r13
	.cfi_def_cfa_offset 24
	popq	%r14
	.cfi_def_cfa_offset 16
	popq	%r15
	.cfi_def_cfa_offset 8
	ret
	.p2align 4,,10
	.p2align 3
.L857:
	.cfi_restore_state
	call	__errno_location@PLT
	movq	%rax, %rbp
	cmpl	$22, (%rax)
	je	.L860
.L765:
	leaq	16(%rsp), %rdi
	call	pipe@PLT
	testl	%eax, %eax
	je	.L786
	movq	_ZGVZN4asio15system_categoryEvE8instance@GOTPCREL(%rip), %r13
	movzbl	0(%r13), %eax
	testb	%al, %al
	je	.L767
	movq	_ZZN4asio15system_categoryEvE8instance@GOTPCREL(%rip), %r12
.L768:
	movl	0(%rbp), %eax
	movq	%r12, 56(%rsp)
	movl	%eax, 48(%rsp)
	testl	%eax, %eax
	jne	.L861
.L766:
	movl	88(%rbx), %edx
	jmp	.L763
	.p2align 4,,10
	.p2align 3
.L853:
	call	__errno_location@PLT
	movq	%rax, %r13
	movl	(%rax), %eax
	subl	$22, %eax
	andl	$-17, %eax
	je	.L862
.L752:
	movq	_ZGVZN4asio15system_categoryEvE8instance@GOTPCREL(%rip), %rax
	movzbl	(%rax), %eax
	testb	%al, %al
	je	.L753
	movq	_ZZN4asio15system_categoryEvE8instance@GOTPCREL(%rip), %r12
.L754:
	movl	0(%r13), %eax
	movq	%r12, 56(%rsp)
	movl	%eax, 48(%rsp)
	testl	%eax, %eax
	je	.L751
	leaq	48(%rsp), %rdi
	leaq	.LC31(%rip), %rsi
	call	_ZN4asio6detail14do_throw_errorERKSt10error_codePKc@PLT
	.p2align 4,,10
	.p2align 3
.L855:
	call	__errno_location@PLT
	cmpl	$22, (%rax)
	jne	.L758
	xorl	%esi, %esi
	movl	$1, %edi
	call	timerfd_create@PLT
	movl	%eax, %ebp
	cmpl	$-1, %eax
	je	.L758
	movl	%eax, %edi
	movl	$1, %edx
	movl	$2, %esi
	xorl	%eax, %eax
	call	fcntl@PLT
	jmp	.L758
	.p2align 4,,10
	.p2align 3
.L859:
	imulq	$1000000, %rdx, %rdx
	xorl	%eax, %eax
	subq	%rdx, %rsi
	imulq	$1000, %rsi, %rcx
	jmp	.L776
.L786:
	movl	16(%rsp), %edi
	movl	$2048, %edx
	movl	$4, %esi
	xorl	%eax, %eax
	movl	%edi, 88(%rbx)
	call	fcntl@PLT
	movl	88(%rbx), %edi
	movl	$1, %edx
	xorl	%eax, %eax
	movl	$2, %esi
	call	fcntl@PLT
	movl	20(%rsp), %edi
	movl	$2048, %edx
	xorl	%eax, %eax
	movl	$4, %esi
	movl	%edi, 92(%rbx)
	call	fcntl@PLT
	movl	92(%rbx), %edi
	movl	$1, %edx
	xorl	%eax, %eax
	movl	$2, %esi
	call	fcntl@PLT
	jmp	.L766
.L862:
	movl	$20000, %edi
	call	epoll_create@PLT
	cmpl	$-1, %eax
	je	.L752
	movl	%eax, %edi
	movl	%eax, %ebp
	movl	$1, %edx
	movl	$2, %esi
	xorl	%eax, %eax
	call	fcntl@PLT
	jmp	.L751
.L860:
	xorl	%edi, %edi
	xorl	%esi, %esi
	call	eventfd@PLT
	movd	%eax, %xmm2
	movl	%eax, %edi
	pshufd	$0xe0, %xmm2, %xmm0
	movq	%xmm0, 88(%rbx)
	cmpl	$-1, %eax
	je	.L765
	movl	$2048, %edx
	movl	$4, %esi
	xorl	%eax, %eax
	call	fcntl@PLT
	movl	88(%rbx), %edi
	movl	$1, %edx
	xorl	%eax, %eax
	movl	$2, %esi
	call	fcntl@PLT
	movl	88(%rbx), %edx
	cmpl	$-1, %edx
	jne	.L763
	jmp	.L765
	.p2align 4,,10
	.p2align 3
.L772:
	movq	$300, 32(%rsp)
	xorl	%ecx, %ecx
	xorl	%eax, %eax
	jmp	.L776
.L753:
	movq	_ZGVZN4asio15system_categoryEvE8instance@GOTPCREL(%rip), %rdi
	call	__cxa_guard_acquire@PLT
	movq	_ZZN4asio15system_categoryEvE8instance@GOTPCREL(%rip), %r12
	testl	%eax, %eax
	je	.L754
	movq	_ZN4asio6detail15system_categoryD1Ev@GOTPCREL(%rip), %rdi
	leaq	__dso_handle(%rip), %rdx
	movq	%r12, %rsi
	call	__cxa_atexit@PLT
	movq	_ZGVZN4asio15system_categoryEvE8instance@GOTPCREL(%rip), %rdi
	call	__cxa_guard_release@PLT
	jmp	.L754
.L767:
	movq	%r13, %rdi
	call	__cxa_guard_acquire@PLT
	movq	_ZZN4asio15system_categoryEvE8instance@GOTPCREL(%rip), %r12
	testl	%eax, %eax
	je	.L768
	movq	_ZN4asio6detail15system_categoryD1Ev@GOTPCREL(%rip), %rdi
	leaq	__dso_handle(%rip), %rdx
	movq	%r12, %rsi
	call	__cxa_atexit@PLT
	movq	%r13, %rdi
	call	__cxa_guard_release@PLT
	jmp	.L768
.L861:
	leaq	48(%rsp), %rdi
	leaq	.LC33(%rip), %rsi
	call	_ZN4asio6detail14do_throw_errorERKSt10error_codePKc@PLT
.L789:
	movq	%rax, %rbx
.L785:
	movq	%r14, %rdi
	call	pthread_mutex_unlock@PLT
	movq	%rbx, %rdi
	call	_Unwind_Resume@PLT
.LEHE19:
	.cfi_endproc
.LFE3235:
	.section	.gcc_except_table
.LLSDA3235:
	.byte	0xff
	.byte	0xff
	.byte	0x1
	.uleb128 .LLSDACSE3235-.LLSDACSB3235
.LLSDACSB3235:
	.uleb128 .LEHB17-.LFB3235
	.uleb128 .LEHE17-.LEHB17
	.uleb128 0
	.uleb128 0
	.uleb128 .LEHB18-.LFB3235
	.uleb128 .LEHE18-.LEHB18
	.uleb128 .L789-.LFB3235
	.uleb128 0
	.uleb128 .LEHB19-.LFB3235
	.uleb128 .LEHE19-.LEHB19
	.uleb128 0
	.uleb128 0
.LLSDACSE3235:
	.section	.text._ZN4asio6detail13epoll_reactor12fork_serviceENS_10io_service10fork_eventE,"axG",@progbits,_ZN4asio6detail13epoll_reactor12fork_serviceENS_10io_service10fork_eventE,comdat
	.size	_ZN4asio6detail13epoll_reactor12fork_serviceENS_10io_service10fork_eventE, .-_ZN4asio6detail13epoll_reactor12fork_serviceENS_10io_service10fork_eventE
	.section	.rodata._ZN4asio6detail11posix_mutexC2Ev.str1.1,"aMS",@progbits,1
.LC36:
	.string	"mutex"
	.section	.text._ZN4asio6detail11posix_mutexC2Ev,"axG",@progbits,_ZN4asio6detail11posix_mutexC5Ev,comdat
	.align 2
	.p2align 4
	.weak	_ZN4asio6detail11posix_mutexC2Ev
	.type	_ZN4asio6detail11posix_mutexC2Ev, @function
_ZN4asio6detail11posix_mutexC2Ev:
.LFB2360:
	.cfi_startproc
	subq	$40, %rsp
	.cfi_def_cfa_offset 48
	xorl	%esi, %esi
	call	pthread_mutex_init@PLT
	movl	%eax, %ecx
	movq	_ZGVZN4asio15system_categoryEvE8instance@GOTPCREL(%rip), %rax
	movzbl	(%rax), %eax
	testb	%al, %al
	je	.L864
.L872:
	movq	_ZZN4asio15system_categoryEvE8instance@GOTPCREL(%rip), %rsi
.L865:
	movl	%ecx, 16(%rsp)
	movq	%rsi, 24(%rsp)
	testl	%ecx, %ecx
	jne	.L873
	addq	$40, %rsp
	.cfi_remember_state
	.cfi_def_cfa_offset 8
	ret
	.p2align 4,,10
	.p2align 3
.L864:
	.cfi_restore_state
	movq	_ZGVZN4asio15system_categoryEvE8instance@GOTPCREL(%rip), %rdi
	movl	%ecx, (%rsp)
	call	__cxa_guard_acquire@PLT
	movl	(%rsp), %ecx
	testl	%eax, %eax
	je	.L872
	movq	_ZZN4asio15system_categoryEvE8instance@GOTPCREL(%rip), %rsi
	movq	_ZN4asio6detail15system_categoryD1Ev@GOTPCREL(%rip), %rdi
	leaq	__dso_handle(%rip), %rdx
	movl	%ecx, 12(%rsp)
	movq	%rsi, (%rsp)
	call	__cxa_atexit@PLT
	movq	_ZGVZN4asio15system_categoryEvE8instance@GOTPCREL(%rip), %rdi
	call	__cxa_guard_release@PLT
	movl	12(%rsp), %ecx
	movq	(%rsp), %rsi
	jmp	.L865
.L873:
	leaq	16(%rsp), %rdi
	leaq	.LC36(%rip), %rsi
	call	_ZN4asio6detail14do_throw_errorERKSt10error_codePKc@PLT
	.cfi_endproc
.LFE2360:
	.size	_ZN4asio6detail11posix_mutexC2Ev, .-_ZN4asio6detail11posix_mutexC2Ev
	.weak	_ZN4asio6detail11posix_mutexC1Ev
	.set	_ZN4asio6detail11posix_mutexC1Ev,_ZN4asio6detail11posix_mutexC2Ev
	.section	.text._ZN4asio6detail13epoll_reactor32perform_io_cleanup_on_block_exitD2Ev,"axG",@progbits,_ZN4asio6detail13epoll_reactor32perform_io_cleanup_on_block_exitD5Ev,comdat
	.align 2
	.p2align 4
	.weak	_ZN4asio6detail13epoll_reactor32perform_io_cleanup_on_block_exitD2Ev
	.type	_ZN4asio6detail13epoll_reactor32perform_io_cleanup_on_block_exitD2Ev, @function
_ZN4asio6detail13epoll_reactor32perform_io_cleanup_on_block_exitD2Ev:
.LFB3259:
	.cfi_startproc
	.cfi_personality 0x9b,DW.ref.__gxx_personality_v0
	.cfi_lsda 0x1b,.LLSDA3259
	pushq	%r12
	.cfi_def_cfa_offset 16
	.cfi_offset 12, -16
	pushq	%rbp
	.cfi_def_cfa_offset 24
	.cfi_offset 6, -24
	pushq	%rbx
	.cfi_def_cfa_offset 32
	.cfi_offset 3, -32
	movq	%rdi, %rbx
	subq	$32, %rsp
	.cfi_def_cfa_offset 64
	cmpq	$0, 24(%rdi)
	je	.L875
	movq	8(%rdi), %r12
	testq	%r12, %r12
	je	.L874
	movq	(%rdi), %rax
	movq	40(%rax), %rbp
	cmpb	$0, 40(%rbp)
	je	.L877
	data16	leaq	_ZN4asio6detail15keyword_tss_ptrINS0_10call_stackINS0_15task_io_serviceENS0_27task_io_service_thread_infoEE7contextEE6value_E@tlsgd(%rip), %rdi
	.value	0x6666
	rex64
	call	__tls_get_addr@PLT
	movq	(%rax), %rax
	testq	%rax, %rax
	jne	.L880
	.p2align 4
	.p2align 3
.L877:
	leaq	48(%rbp), %r12
	movq	%r12, %rdi
	call	pthread_mutex_lock@PLT
	movq	8(%rbx), %rax
	testq	%rax, %rax
	je	.L883
	movq	200(%rbp), %rdx
	testq	%rdx, %rdx
	je	.L884
	movq	%rax, (%rdx)
.L885:
	movq	16(%rbx), %rax
	pxor	%xmm0, %xmm0
	movq	%rax, 200(%rbp)
	movups	%xmm0, 8(%rbx)
.L883:
	movq	136(%rbp), %rax
	movq	%rax, %rdx
	orq	$1, %rdx
	movq	%rdx, 136(%rbp)
	cmpq	$1, %rax
	jbe	.L886
	movq	%r12, %rdi
	call	pthread_mutex_unlock@PLT
	leaq	88(%rbp), %rdi
	call	pthread_cond_signal@PLT
.L890:
	movq	8(%rbx), %rsi
	testq	%rsi, %rsi
	je	.L874
	movq	%rsi, 8(%rsp)
	leaq	16(%rsp), %rbp
	call	_ZNSt3_V215system_categoryEv@PLT
	movq	8(%rsp), %rsi
	movq	%rax, %r12
	jmp	.L893
	.p2align 4,,10
	.p2align 3
.L891:
	movq	$0, (%rsi)
	movq	8(%rsi), %rax
	xorl	%ecx, %ecx
	movq	%rbp, %rdx
	movl	$0, 16(%rsp)
	xorl	%edi, %edi
	movq	%r12, 24(%rsp)
	call	*%rax
	movq	8(%rbx), %rsi
	testq	%rsi, %rsi
	je	.L874
.L893:
	movq	(%rsi), %rax
	movq	%rax, 8(%rbx)
	testq	%rax, %rax
	jne	.L891
	movq	$0, 16(%rbx)
	jmp	.L891
	.p2align 4
	.p2align 4,,10
	.p2align 3
.L878:
	movq	16(%rax), %rax
	testq	%rax, %rax
	je	.L877
.L880:
	cmpq	(%rax), %rbp
	jne	.L878
	movq	8(%rax), %rax
	testq	%rax, %rax
	je	.L877
	movq	16(%rax), %rdx
	testq	%rdx, %rdx
	je	.L881
	movq	%r12, (%rdx)
.L882:
	movq	16(%rbx), %rdx
	movq	%rdx, 16(%rax)
.L874:
	addq	$32, %rsp
	.cfi_remember_state
	.cfi_def_cfa_offset 32
	popq	%rbx
	.cfi_def_cfa_offset 24
	popq	%rbp
	.cfi_def_cfa_offset 16
	popq	%r12
	.cfi_def_cfa_offset 8
	ret
	.p2align 4,,10
	.p2align 3
.L875:
	.cfi_restore_state
	movq	(%rdi), %rax
	movq	40(%rax), %rax
	lock addq	$1, 184(%rax)
	jmp	.L890
	.p2align 4,,10
	.p2align 3
.L886:
	cmpb	$0, 176(%rbp)
	jne	.L888
	movq	144(%rbp), %rax
	testq	%rax, %rax
	je	.L888
	movb	$1, 176(%rbp)
	leaq	88(%rax), %rdx
	leaq	16(%rsp), %rbp
	movl	$3, %esi
	movq	%rdx, 20(%rsp)
	movl	88(%rax), %edx
	movq	%rbp, %rcx
	movl	$-2147483639, 16(%rsp)
	movl	96(%rax), %edi
	call	epoll_ctl@PLT
.L888:
	movq	%r12, %rdi
	call	pthread_mutex_unlock@PLT
	jmp	.L890
.L884:
	movq	%rax, 192(%rbp)
	jmp	.L885
.L881:
	movq	%r12, 8(%rax)
	jmp	.L882
	.cfi_endproc
.LFE3259:
	.section	.gcc_except_table
.LLSDA3259:
	.byte	0xff
	.byte	0xff
	.byte	0x1
	.uleb128 .LLSDACSE3259-.LLSDACSB3259
.LLSDACSB3259:
.LLSDACSE3259:
	.section	.text._ZN4asio6detail13epoll_reactor32perform_io_cleanup_on_block_exitD2Ev,"axG",@progbits,_ZN4asio6detail13epoll_reactor32perform_io_cleanup_on_block_exitD5Ev,comdat
	.size	_ZN4asio6detail13epoll_reactor32perform_io_cleanup_on_block_exitD2Ev, .-_ZN4asio6detail13epoll_reactor32perform_io_cleanup_on_block_exitD2Ev
	.weak	_ZN4asio6detail13epoll_reactor32perform_io_cleanup_on_block_exitD1Ev
	.set	_ZN4asio6detail13epoll_reactor32perform_io_cleanup_on_block_exitD1Ev,_ZN4asio6detail13epoll_reactor32perform_io_cleanup_on_block_exitD2Ev
	.section	.text._ZN4asio6detail13epoll_reactor16descriptor_state11do_completeEPNS0_15task_io_serviceEPNS0_25task_io_service_operationERKSt10error_codem,"axG",@progbits,_ZN4asio6detail13epoll_reactor16descriptor_state11do_completeEPNS0_15task_io_serviceEPNS0_25task_io_service_operationERKSt10error_codem,comdat
	.align 2
	.p2align 4
	.weak	_ZN4asio6detail13epoll_reactor16descriptor_state11do_completeEPNS0_15task_io_serviceEPNS0_25task_io_service_operationERKSt10error_codem
	.type	_ZN4asio6detail13epoll_reactor16descriptor_state11do_completeEPNS0_15task_io_serviceEPNS0_25task_io_service_operationERKSt10error_codem, @function
_ZN4asio6detail13epoll_reactor16descriptor_state11do_completeEPNS0_15task_io_serviceEPNS0_25task_io_service_operationERKSt10error_codem:
.LFB3265:
	.cfi_startproc
	.cfi_personality 0x9b,DW.ref.__gxx_personality_v0
	.cfi_lsda 0x1b,.LLSDA3265
	testq	%rdi, %rdi
	je	.L960
	pushq	%r15
	.cfi_def_cfa_offset 16
	.cfi_offset 15, -16
	leaq	40(%rsi), %rax
	pushq	%r14
	.cfi_def_cfa_offset 24
	.cfi_offset 14, -24
	xorl	%r14d, %r14d
	pushq	%r13
	.cfi_def_cfa_offset 32
	.cfi_offset 13, -32
	pushq	%r12
	.cfi_def_cfa_offset 40
	.cfi_offset 12, -40
	movq	%rsi, %r12
	pushq	%rbp
	.cfi_def_cfa_offset 48
	.cfi_offset 6, -48
	subq	$-128, %r12
	xorl	%ebp, %ebp
	pushq	%rbx
	.cfi_def_cfa_offset 56
	.cfi_offset 3, -56
	subq	$104, %rsp
	.cfi_def_cfa_offset 160
	movq	%rdi, 32(%rsp)
	movq	%rax, %rdi
	movq	%rcx, 8(%rsp)
	movq	%rdx, 40(%rsp)
	movq	%rax, 16(%rsp)
	call	pthread_mutex_lock@PLT
	movq	-48(%r12), %rax
	movq	_ZZN4asio6detail13epoll_reactor16descriptor_state10perform_ioEjE4flag@GOTPCREL(%rip), %r15
	movq	$0, 88(%rsp)
	movq	%rax, 24(%rsp)
	leaq	-12(%r15), %r13
	movq	%rax, 64(%rsp)
.L920:
	movl	8(%r15), %eax
	orl	$24, %eax
	testl	%eax, 8(%rsp)
	jne	.L965
.L913:
	subq	$4, %r15
	subq	$16, %r12
	cmpq	%r13, %r15
	jne	.L920
	movq	%rbp, 88(%rsp)
	testq	%rbp, %rbp
	je	.L966
	movq	0(%rbp), %rbx
	testq	%rbx, %rbx
	je	.L967
	movq	$0, 0(%rbp)
	movq	16(%rsp), %rdi
	call	pthread_mutex_unlock@PLT
	movq	24(%rsp), %rax
	movq	40(%rax), %r12
	cmpb	$0, 40(%r12)
	je	.L924
	data16	leaq	_ZN4asio6detail15keyword_tss_ptrINS0_10call_stackINS0_15task_io_serviceENS0_27task_io_service_thread_infoEE7contextEE6value_E@tlsgd(%rip), %rdi
	.value	0x6666
	rex64
	call	__tls_get_addr@PLT
	movq	(%rax), %rax
	testq	%rax, %rax
	jne	.L927
	jmp	.L924
	.p2align 4
	.p2align 4,,10
	.p2align 3
.L925:
	movq	16(%rax), %rax
	testq	%rax, %rax
	je	.L924
.L927:
	cmpq	(%rax), %r12
	jne	.L925
	movq	8(%rax), %rax
	testq	%rax, %rax
	je	.L924
	movq	16(%rax), %rdx
	testq	%rdx, %rdx
	je	.L928
	movq	%rbx, (%rdx)
.L929:
	movq	%r14, 16(%rax)
	jmp	.L923
	.p2align 4,,10
	.p2align 3
.L965:
	movq	(%r12), %rax
	testq	%rax, %rax
	je	.L913
	movq	%r14, %rbx
	movq	%rax, %r14
	jmp	.L914
	.p2align 4,,10
	.p2align 3
.L915:
	movq	(%rax), %rdx
	movq	%rdx, (%r12)
	testq	%rdx, %rdx
	je	.L917
	movq	$0, (%rax)
	movq	$0, (%r14)
	testq	%rbx, %rbx
	je	.L940
	movq	%r14, (%rbx)
.L918:
	movq	%r14, %rbx
	movq	%rdx, %r14
.L914:
	movq	%r14, %rdi
.LEHB20:
	call	*48(%r14)
.LEHE20:
	testb	%al, %al
	je	.L939
	movq	(%r12), %rax
	testq	%rax, %rax
	jne	.L915
	movq	$0, (%r14)
	testq	%rbx, %rbx
	je	.L968
.L919:
	movq	%r14, (%rbx)
	jmp	.L913
	.p2align 4,,10
	.p2align 3
.L917:
	movq	$0, 8(%r12)
	movq	$0, (%rax)
	movq	$0, (%r14)
	testq	%rbx, %rbx
	jne	.L919
.L968:
	movq	%r14, %rbp
	jmp	.L913
	.p2align 4,,10
	.p2align 3
.L940:
	movq	%r14, %rbp
	jmp	.L918
	.p2align 4,,10
	.p2align 3
.L960:
	.cfi_def_cfa_offset 8
	.cfi_restore 3
	.cfi_restore 6
	.cfi_restore 12
	.cfi_restore 13
	.cfi_restore 14
	.cfi_restore 15
	ret
	.p2align 4,,10
	.p2align 3
.L939:
	.cfi_def_cfa_offset 160
	.cfi_offset 3, -56
	.cfi_offset 6, -48
	.cfi_offset 12, -40
	.cfi_offset 13, -32
	.cfi_offset 14, -24
	.cfi_offset 15, -16
	movq	%rbx, %r14
	jmp	.L913
	.p2align 4,,10
	.p2align 3
.L967:
	movq	16(%rsp), %rdi
	call	pthread_mutex_unlock@PLT
.L923:
	movq	8(%rbp), %rax
	movq	40(%rsp), %rdx
	movq	%rbp, %rsi
	xorl	%ecx, %ecx
	movq	32(%rsp), %rdi
	addq	$104, %rsp
	.cfi_remember_state
	.cfi_def_cfa_offset 56
	popq	%rbx
	.cfi_restore 3
	.cfi_def_cfa_offset 48
	popq	%rbp
	.cfi_restore 6
	.cfi_def_cfa_offset 40
	popq	%r12
	.cfi_restore 12
	.cfi_def_cfa_offset 32
	popq	%r13
	.cfi_restore 13
	.cfi_def_cfa_offset 24
	popq	%r14
	.cfi_restore 14
	.cfi_def_cfa_offset 16
	popq	%r15
	.cfi_restore 15
	.cfi_def_cfa_offset 8
.LEHB21:
	jmp	*%rax
	.p2align 4,,10
	.p2align 3
.L966:
	.cfi_restore_state
	movq	16(%rsp), %rdi
	call	pthread_mutex_unlock@PLT
	movq	24(%rsp), %rax
	movq	40(%rax), %rax
	lock addq	$1, 184(%rax)
	addq	$104, %rsp
	.cfi_remember_state
	.cfi_def_cfa_offset 56
	popq	%rbx
	.cfi_def_cfa_offset 48
	popq	%rbp
	.cfi_def_cfa_offset 40
	popq	%r12
	.cfi_def_cfa_offset 32
	popq	%r13
	.cfi_def_cfa_offset 24
	popq	%r14
	.cfi_def_cfa_offset 16
	popq	%r15
	.cfi_def_cfa_offset 8
	ret
	.p2align 4,,10
	.p2align 3
.L924:
	.cfi_restore_state
	leaq	48(%r12), %r13
	movq	%r13, %rdi
	call	pthread_mutex_lock@PLT
	movq	200(%r12), %rax
	testq	%rax, %rax
	je	.L931
	movq	%rbx, (%rax)
.L932:
	movq	136(%r12), %rax
	movq	%r14, 200(%r12)
	movq	%rax, %rdx
	orq	$1, %rdx
	movq	%rdx, 136(%r12)
	cmpq	$1, %rax
	jbe	.L933
	movq	%r13, %rdi
	call	pthread_mutex_unlock@PLT
	leaq	88(%r12), %rdi
	call	pthread_cond_signal@PLT
	jmp	.L923
	.p2align 4,,10
	.p2align 3
.L933:
	cmpb	$0, 176(%r12)
	jne	.L935
	movq	144(%r12), %rax
	testq	%rax, %rax
	je	.L935
	leaq	88(%rax), %rdx
	movl	96(%rax), %edi
	movb	$1, 176(%r12)
	leaq	52(%rsp), %rcx
	movq	%rdx, 56(%rsp)
	movl	88(%rax), %edx
	movl	$3, %esi
	movl	$-2147483639, 52(%rsp)
	call	epoll_ctl@PLT
.L935:
	movq	%r13, %rdi
	call	pthread_mutex_unlock@PLT
	jmp	.L923
.L928:
	movq	%rbx, 8(%rax)
	jmp	.L929
.L931:
	movq	%rbx, 192(%r12)
	jmp	.L932
.L941:
	movq	%rax, %r12
.L936:
	movq	16(%rsp), %rdi
	call	pthread_mutex_unlock@PLT
	leaq	64(%rsp), %rdi
	movq	%rbp, 72(%rsp)
	movq	%rbx, 80(%rsp)
	call	_ZN4asio6detail13epoll_reactor32perform_io_cleanup_on_block_exitD1Ev@PLT
	movq	%r12, %rdi
	call	_Unwind_Resume@PLT
.LEHE21:
	.cfi_endproc
.LFE3265:
	.section	.gcc_except_table
.LLSDA3265:
	.byte	0xff
	.byte	0xff
	.byte	0x1
	.uleb128 .LLSDACSE3265-.LLSDACSB3265
.LLSDACSB3265:
	.uleb128 .LEHB20-.LFB3265
	.uleb128 .LEHE20-.LEHB20
	.uleb128 .L941-.LFB3265
	.uleb128 0
	.uleb128 .LEHB21-.LFB3265
	.uleb128 .LEHE21-.LEHB21
	.uleb128 0
	.uleb128 0
.LLSDACSE3265:
	.section	.text._ZN4asio6detail13epoll_reactor16descriptor_state11do_completeEPNS0_15task_io_serviceEPNS0_25task_io_service_operationERKSt10error_codem,"axG",@progbits,_ZN4asio6detail13epoll_reactor16descriptor_state11do_completeEPNS0_15task_io_serviceEPNS0_25task_io_service_operationERKSt10error_codem,comdat
	.size	_ZN4asio6detail13epoll_reactor16descriptor_state11do_completeEPNS0_15task_io_serviceEPNS0_25task_io_service_operationERKSt10error_codem, .-_ZN4asio6detail13epoll_reactor16descriptor_state11do_completeEPNS0_15task_io_serviceEPNS0_25task_io_service_operationERKSt10error_codem
	.section	.text._ZN4asio6detail15task_io_service25post_immediate_completionEPNS0_25task_io_service_operationEb,"axG",@progbits,_ZN4asio6detail15task_io_service25post_immediate_completionEPNS0_25task_io_service_operationEb,comdat
	.align 2
	.p2align 4
	.weak	_ZN4asio6detail15task_io_service25post_immediate_completionEPNS0_25task_io_service_operationEb
	.type	_ZN4asio6detail15task_io_service25post_immediate_completionEPNS0_25task_io_service_operationEb, @function
_ZN4asio6detail15task_io_service25post_immediate_completionEPNS0_25task_io_service_operationEb:
.LFB3297:
	.cfi_startproc
	pushq	%r12
	.cfi_def_cfa_offset 16
	.cfi_offset 12, -16
	movq	%rsi, %xmm0
	pushq	%rbp
	.cfi_def_cfa_offset 24
	.cfi_offset 6, -24
	punpcklqdq	%xmm0, %xmm0
	movq	%rsi, %rbp
	pushq	%rbx
	.cfi_def_cfa_offset 32
	.cfi_offset 3, -32
	movq	%rdi, %rbx
	subq	$32, %rsp
	.cfi_def_cfa_offset 64
	movaps	%xmm0, (%rsp)
	cmpb	$0, 40(%rdi)
	jne	.L981
	testb	%dl, %dl
	je	.L970
.L981:
	data16	leaq	_ZN4asio6detail15keyword_tss_ptrINS0_10call_stackINS0_15task_io_serviceENS0_27task_io_service_thread_infoEE7contextEE6value_E@tlsgd(%rip), %rdi
	.value	0x6666
	rex64
	call	__tls_get_addr@PLT
	movq	(%rax), %rax
	testq	%rax, %rax
	jne	.L974
	jmp	.L970
	.p2align 4
	.p2align 4,,10
	.p2align 3
.L972:
	movq	16(%rax), %rax
	testq	%rax, %rax
	je	.L970
.L974:
	cmpq	(%rax), %rbx
	jne	.L972
	movq	8(%rax), %rax
	testq	%rax, %rax
	je	.L970
	movq	16(%rax), %rdx
	addq	$1, 24(%rax)
	movq	$0, 0(%rbp)
	testq	%rdx, %rdx
	je	.L975
	movq	%rbp, (%rdx)
	movq	%rbp, 16(%rax)
	addq	$32, %rsp
	.cfi_remember_state
	.cfi_def_cfa_offset 32
	popq	%rbx
	.cfi_def_cfa_offset 24
	popq	%rbp
	.cfi_def_cfa_offset 16
	popq	%r12
	.cfi_def_cfa_offset 8
	ret
	.p2align 4,,10
	.p2align 3
.L970:
	.cfi_restore_state
	lock addq	$1, 184(%rbx)
	leaq	48(%rbx), %rdi
	call	pthread_mutex_lock@PLT
	movq	200(%rbx), %rax
	movq	$0, 0(%rbp)
	testq	%rax, %rax
	je	.L977
	movq	%rbp, (%rax)
	movq	%rbp, 200(%rbx)
.L978:
	movq	136(%rbx), %rax
	movq	%rax, %rdx
	orq	$1, %rdx
	movq	%rdx, 136(%rbx)
	cmpq	$1, %rax
	jbe	.L979
	leaq	48(%rbx), %rdi
	call	pthread_mutex_unlock@PLT
	addq	$32, %rsp
	.cfi_remember_state
	.cfi_def_cfa_offset 32
	leaq	88(%rbx), %rdi
	popq	%rbx
	.cfi_def_cfa_offset 24
	popq	%rbp
	.cfi_def_cfa_offset 16
	popq	%r12
	.cfi_def_cfa_offset 8
	jmp	pthread_cond_signal@PLT
	.p2align 4,,10
	.p2align 3
.L979:
	.cfi_restore_state
	cmpb	$0, 176(%rbx)
	jne	.L980
	movq	144(%rbx), %rax
	testq	%rax, %rax
	je	.L980
	leaq	88(%rax), %rdx
	movb	$1, 176(%rbx)
	movl	96(%rax), %edi
	leaq	20(%rsp), %rcx
	movq	%rdx, 24(%rsp)
	movl	88(%rax), %edx
	movl	$3, %esi
	movl	$-2147483639, 20(%rsp)
	call	epoll_ctl@PLT
.L980:
	addq	$32, %rsp
	.cfi_remember_state
	.cfi_def_cfa_offset 32
	leaq	48(%rbx), %rdi
	popq	%rbx
	.cfi_def_cfa_offset 24
	popq	%rbp
	.cfi_def_cfa_offset 16
	popq	%r12
	.cfi_def_cfa_offset 8
	jmp	pthread_mutex_unlock@PLT
	.p2align 4,,10
	.p2align 3
.L977:
	.cfi_restore_state
	movdqa	(%rsp), %xmm1
	movups	%xmm1, 192(%rbx)
	jmp	.L978
	.p2align 4,,10
	.p2align 3
.L975:
	movdqa	(%rsp), %xmm2
	movups	%xmm2, 8(%rax)
	addq	$32, %rsp
	.cfi_def_cfa_offset 32
	popq	%rbx
	.cfi_def_cfa_offset 24
	popq	%rbp
	.cfi_def_cfa_offset 16
	popq	%r12
	.cfi_def_cfa_offset 8
	ret
	.cfi_endproc
.LFE3297:
	.size	_ZN4asio6detail15task_io_service25post_immediate_completionEPNS0_25task_io_service_operationEb, .-_ZN4asio6detail15task_io_service25post_immediate_completionEPNS0_25task_io_service_operationEb
	.section	.text.unlikely
	.align 2
.LCOLDB37:
	.text
.LHOTB37:
	.align 2
	.p2align 4
	.globl	_ZN7asiopal13SerialChannel14BeginWriteImplERKN7openpal6RSliceE
	.type	_ZN7asiopal13SerialChannel14BeginWriteImplERKN7openpal6RSliceE, @function
_ZN7asiopal13SerialChannel14BeginWriteImplERKN7openpal6RSliceE:
.LFB7019:
	.cfi_startproc
	.cfi_personality 0x9b,DW.ref.__gxx_personality_v0
	.cfi_lsda 0x1b,.LLSDA7019
	pushq	%r15
	.cfi_def_cfa_offset 16
	.cfi_offset 15, -16
	pushq	%r14
	.cfi_def_cfa_offset 24
	.cfi_offset 14, -24
	pushq	%r13
	.cfi_def_cfa_offset 32
	.cfi_offset 13, -32
	leaq	64(%rdi), %r13
	pushq	%r12
	.cfi_def_cfa_offset 40
	.cfi_offset 12, -40
	movq	%r13, %xmm0
	movl	$65536, %r12d
	pushq	%rbp
	.cfi_def_cfa_offset 48
	.cfi_offset 6, -48
	pushq	%rbx
	.cfi_def_cfa_offset 56
	.cfi_offset 3, -56
	movq	%rdi, %rbx
	subq	$184, %rsp
	.cfi_def_cfa_offset 240
	movq	24(%rdi), %rax
	movl	(%rsi), %ebp
	movdqu	40(%rax), %xmm2
	movq	8(%rsi), %rax
	movaps	%xmm2, (%rsp)
	movq	%rax, 16(%rsp)
	movhps	16(%rsp), %xmm0
	movaps	%xmm0, 32(%rsp)
	call	_ZNSt3_V215system_categoryEv@PLT
	movdqa	32(%rsp), %xmm0
	movdqa	(%rsp), %xmm2
	cmpq	%r12, %rbp
	movq	%rax, 24(%rsp)
	cmovbe	%rbp, %r12
	movq	80(%rbx), %r15
	movq	%rbp, 112(%rsp)
	movl	$1, 120(%rsp)
	movq	$0, 128(%rsp)
	movq	%rbx, 152(%rsp)
	movaps	%xmm0, 96(%rsp)
	movups	%xmm2, 136(%rsp)
	data16	leaq	_ZN4asio6detail15keyword_tss_ptrINS0_10call_stackINS0_14strand_service11strand_implEhE7contextEE6value_E@tlsgd(%rip), %rdi
	.value	0x6666
	rex64
	call	__tls_get_addr@PLT
	movq	(%rax), %rax
	testq	%rax, %rax
	je	.L1064
	movq	8(%rsp), %rdx
	jmp	.L993
	.p2align 4
	.p2align 4,,10
	.p2align 3
.L992:
	movq	16(%rax), %rax
	testq	%rax, %rax
	je	.L1064
.L993:
	cmpq	%rdx, (%rax)
	jne	.L992
	cmpq	$0, 8(%rax)
	setne	32(%rsp)
.L991:
	pxor	%xmm0, %xmm0
	leaq	96(%rsp), %rax
	movq	%rax, 64(%rsp)
	movups	%xmm0, 72(%rsp)
	data16	leaq	_ZN4asio6detail15keyword_tss_ptrINS0_10call_stackINS0_15task_io_serviceENS0_27task_io_service_thread_infoEE7contextEE6value_E@tlsgd(%rip), %rdi
	.value	0x6666
	rex64
	call	__tls_get_addr@PLT
	movq	(%rax), %rax
	testq	%rax, %rax
	je	.L994
	movq	8(%rax), %rax
	testq	%rax, %rax
	je	.L994
	movq	(%rax), %r14
	testq	%r14, %r14
	je	.L994
	movq	$0, (%rax)
	movzbl	(%r14), %eax
	cmpb	$-113, %al
	jbe	.L995
	movb	%al, 144(%r14)
	xorl	%edx, %edx
	movl	$1, %ecx
.L996:
	leaq	_ZN4asio6detail19descriptor_write_opINS_15const_buffers_1ENS0_8write_opINS_17basic_serial_portINS_19serial_port_serviceEEES2_NS0_14transfer_all_tENS0_15wrapped_handlerINS_10io_service6strandEZN7asiopal13SerialChannel14BeginWriteImplERKN7openpal6RSliceEEUlRKSt10error_codemE_NS0_26is_continuation_if_runningEEEEEE11do_completeEPNS0_15task_io_serviceEPNS0_25task_io_service_operationESJ_m(%rip), %rax
	movl	64(%rbx), %r9d
	movdqu	104(%rsp), %xmm0
	movq	%r14, %xmm1
	movq	%rax, 8(%r14)
	movq	24(%rsp), %rax
	punpcklqdq	%xmm1, %xmm1
	movups	%xmm0, 88(%r14)
	movdqu	136(%rsp), %xmm0
	movq	%rax, 32(%r14)
	movq	_ZN4asio6detail24descriptor_write_op_baseINS_15const_buffers_1EE10do_performEPNS0_10reactor_opE@GOTPCREL(%rip), %rax
	movq	%r14, 72(%rsp)
	movq	%rax, 48(%r14)
	movq	16(%rsp), %rax
	movq	$0, (%r14)
	movq	%rax, 64(%r14)
	movq	152(%rsp), %rax
	movl	$0, 16(%r14)
	movl	$0, 24(%r14)
	movq	$0, 40(%r14)
	movl	%r9d, 56(%r14)
	movq	%r12, 72(%r14)
	movq	%r13, 80(%r14)
	movl	%ecx, 104(%r14)
	movq	%rdx, 112(%r14)
	movq	%rax, 136(%r14)
	movq	%r14, 80(%rsp)
	movaps	%xmm1, (%rsp)
	movups	%xmm0, 120(%r14)
	testq	%rbp, %rbp
	je	.L997
	testb	$3, 68(%rbx)
	jne	.L998
	cmpl	$-1, %r9d
	je	.L1146
	movl	%r9d, 16(%rsp)
	call	__errno_location@PLT
	movl	16(%rsp), %edi
	leaq	52(%rsp), %rdx
	movl	$21537, %esi
	movl	$0, (%rax)
	movq	%rax, %r12
	xorl	%eax, %eax
	movl	$1, 52(%rsp)
	call	ioctl@PLT
	movl	%eax, %ebp
	movq	_ZGVZN4asio15system_categoryEvE8instance@GOTPCREL(%rip), %rax
	movzbl	(%rax), %eax
	testb	%al, %al
	je	.L1003
	movq	_ZZN4asio15system_categoryEvE8instance@GOTPCREL(%rip), %r13
.L1004:
	movl	(%r12), %eax
	movq	%r13, 32(%r14)
	movl	%eax, 24(%r14)
	testl	%ebp, %ebp
	jns	.L1147
.L997:
	movq	40(%r15), %rax
	movq	40(%rax), %rbx
	cmpb	$0, 40(%rbx)
	jne	.L1069
	cmpb	$0, 32(%rsp)
	je	.L1053
.L1069:
	data16	leaq	_ZN4asio6detail15keyword_tss_ptrINS0_10call_stackINS0_15task_io_serviceENS0_27task_io_service_thread_infoEE7contextEE6value_E@tlsgd(%rip), %rdi
	.value	0x6666
	rex64
	call	__tls_get_addr@PLT
	movq	(%rax), %rax
	testq	%rax, %rax
	jne	.L1057
	jmp	.L1053
	.p2align 4
	.p2align 4,,10
	.p2align 3
.L1055:
	movq	16(%rax), %rax
	testq	%rax, %rax
	je	.L1053
.L1057:
	cmpq	(%rax), %rbx
	jne	.L1055
	movq	8(%rax), %rax
	testq	%rax, %rax
	je	.L1053
	movq	16(%rax), %rdx
	addq	$1, 24(%rax)
	movq	$0, (%r14)
	testq	%rdx, %rdx
	je	.L1058
.L1135:
	movq	%r14, (%rdx)
	movq	%r14, 16(%rax)
.L990:
	addq	$184, %rsp
	.cfi_remember_state
	.cfi_def_cfa_offset 56
	popq	%rbx
	.cfi_def_cfa_offset 48
	popq	%rbp
	.cfi_def_cfa_offset 40
	popq	%r12
	.cfi_def_cfa_offset 32
	popq	%r13
	.cfi_def_cfa_offset 24
	popq	%r14
	.cfi_def_cfa_offset 16
	popq	%r15
	.cfi_def_cfa_offset 8
	ret
	.p2align 4,,10
	.p2align 3
.L995:
	.cfi_restore_state
	movq	%r14, %rdi
	call	_ZdlPv@PLT
.L994:
	movl	$145, %edi
.LEHB22:
	call	_Znwm@PLT
.LEHE22:
	movq	96(%rsp), %r13
	movl	120(%rsp), %ecx
	movb	$-112, 144(%rax)
	movq	128(%rsp), %rdx
	movq	%rax, %r14
	jmp	.L996
	.p2align 4,,10
	.p2align 3
.L1147:
	movq	24(%rsp), %rax
	movl	64(%rbx), %r9d
	movl	$0, 24(%r14)
	movq	%rax, 32(%r14)
	orb	$2, 68(%rbx)
.L998:
	movq	72(%rbx), %rbp
	movq	40(%r15), %r12
	testq	%rbp, %rbp
	je	.L1148
	addq	$40, %rbp
	movl	%r9d, 16(%rsp)
	movq	%rbp, %rdi
	call	pthread_mutex_lock@PLT
	movq	72(%rbx), %rax
	cmpb	$0, 144(%rax)
	jne	.L1149
	cmpq	$0, 112(%rax)
	je	.L1150
.L1036:
	movq	120(%rax), %rdx
	movq	$0, (%r14)
	testq	%rdx, %rdx
	je	.L1050
	movq	%r14, (%rdx)
	movq	%r14, 120(%rax)
.L1051:
	movq	40(%r12), %rax
	lock addq	$1, 184(%rax)
	movq	%rbp, %rdi
	call	pthread_mutex_unlock@PLT
	jmp	.L990
	.p2align 4,,10
	.p2align 3
.L1053:
	lock addq	$1, 184(%rbx)
	leaq	48(%rbx), %rbp
	movq	%rbp, %rdi
	call	pthread_mutex_lock@PLT
	movq	200(%rbx), %rax
	movq	$0, (%r14)
	testq	%rax, %rax
	je	.L1059
.L1145:
	movq	%r14, (%rax)
	movq	%r14, 200(%rbx)
.L1060:
	movq	136(%rbx), %rax
	movq	%rax, %rdx
	orq	$1, %rdx
	movq	%rdx, 136(%rbx)
	cmpq	$1, %rax
	jbe	.L1061
	movq	%rbp, %rdi
	call	pthread_mutex_unlock@PLT
	leaq	88(%rbx), %rdi
	call	pthread_cond_signal@PLT
	jmp	.L990
	.p2align 4,,10
	.p2align 3
.L1064:
	movb	$0, 32(%rsp)
	jmp	.L991
	.p2align 4,,10
	.p2align 3
.L1061:
	cmpb	$0, 176(%rbx)
	jne	.L1063
	movq	144(%rbx), %rax
	testq	%rax, %rax
	je	.L1063
	movb	$1, 176(%rbx)
	leaq	88(%rax), %rdx
	leaq	52(%rsp), %rcx
	movl	$3, %esi
	movl	$-2147483639, 52(%rsp)
	movq	%rdx, 56(%rsp)
	movl	88(%rax), %edx
	movl	96(%rax), %edi
	call	epoll_ctl@PLT
.L1063:
	movq	%rbp, %rdi
	call	pthread_mutex_unlock@PLT
	jmp	.L990
	.p2align 4,,10
	.p2align 3
.L1058:
	movdqa	(%rsp), %xmm4
	movups	%xmm4, 8(%rax)
	jmp	.L990
	.p2align 4,,10
	.p2align 3
.L1150:
	movq	%r14, %rdi
.LEHB23:
	call	*48(%r14)
.LEHE23:
	testb	%al, %al
	movl	16(%rsp), %r9d
	jne	.L1151
	movq	72(%rbx), %rax
	movl	92(%rax), %edx
	testb	$4, %dl
	jne	.L1036
	orl	$4, %edx
	movq	%rax, 56(%rsp)
	leaq	52(%rsp), %rcx
	movl	$3, %esi
	movl	%edx, 52(%rsp)
	movl	96(%r12), %edi
	movl	%r9d, %edx
	call	epoll_ctl@PLT
	testl	%eax, %eax
	jne	.L1049
	movq	72(%rbx), %rax
	movl	52(%rsp), %edx
	orl	%edx, 92(%rax)
	jmp	.L1036
	.p2align 4,,10
	.p2align 3
.L1050:
	movdqa	(%rsp), %xmm5
	movups	%xmm5, 112(%rax)
	jmp	.L1051
	.p2align 4,,10
	.p2align 3
.L1003:
	movq	_ZGVZN4asio15system_categoryEvE8instance@GOTPCREL(%rip), %rdi
	call	__cxa_guard_acquire@PLT
	movq	_ZZN4asio15system_categoryEvE8instance@GOTPCREL(%rip), %r13
	testl	%eax, %eax
	je	.L1004
	movq	_ZN4asio6detail15system_categoryD1Ev@GOTPCREL(%rip), %rdi
	leaq	__dso_handle(%rip), %rdx
	movq	%r13, %rsi
	call	__cxa_atexit@PLT
	movq	_ZGVZN4asio15system_categoryEvE8instance@GOTPCREL(%rip), %rdi
	call	__cxa_guard_release@PLT
	jmp	.L1004
	.p2align 4,,10
	.p2align 3
.L1059:
	movdqa	(%rsp), %xmm3
	movups	%xmm3, 192(%rbx)
	jmp	.L1060
	.p2align 4,,10
	.p2align 3
.L1148:
	movq	_ZGVZN4asio15system_categoryEvE8instance@GOTPCREL(%rip), %rbx
	movzbl	(%rbx), %eax
	testb	%al, %al
	je	.L1008
	movq	_ZZN4asio15system_categoryEvE8instance@GOTPCREL(%rip), %r13
.L1009:
	movq	40(%r12), %rbx
	movl	$9, 24(%r14)
	movq	%r13, 32(%r14)
	cmpb	$0, 40(%rbx)
	jne	.L1066
	cmpb	$0, 32(%rsp)
	je	.L1011
.L1066:
	data16	leaq	_ZN4asio6detail15keyword_tss_ptrINS0_10call_stackINS0_15task_io_serviceENS0_27task_io_service_thread_infoEE7contextEE6value_E@tlsgd(%rip), %rdi
	.value	0x6666
	rex64
	call	__tls_get_addr@PLT
	movq	(%rax), %rax
	testq	%rax, %rax
	jne	.L1015
	jmp	.L1011
	.p2align 4
	.p2align 4,,10
	.p2align 3
.L1013:
	movq	16(%rax), %rax
	testq	%rax, %rax
	je	.L1011
.L1015:
	cmpq	(%rax), %rbx
	jne	.L1013
	movq	8(%rax), %rax
	testq	%rax, %rax
	je	.L1011
.L1041:
	addq	$1, 24(%rax)
	movq	$0, (%r14)
	movq	16(%rax), %rdx
	testq	%rdx, %rdx
	jne	.L1135
	movdqa	(%rsp), %xmm6
	movups	%xmm6, 8(%rax)
	jmp	.L990
	.p2align 4,,10
	.p2align 3
.L1149:
	movq	40(%r12), %rbx
	cmpb	$0, 40(%rbx)
	jne	.L1067
	cmpb	$0, 32(%rsp)
	je	.L1024
.L1067:
	data16	leaq	_ZN4asio6detail15keyword_tss_ptrINS0_10call_stackINS0_15task_io_serviceENS0_27task_io_service_thread_infoEE7contextEE6value_E@tlsgd(%rip), %rdi
	.value	0x6666
	rex64
	call	__tls_get_addr@PLT
	movq	(%rax), %rax
	testq	%rax, %rax
	jne	.L1028
	jmp	.L1024
	.p2align 4
	.p2align 4,,10
	.p2align 3
.L1026:
	movq	16(%rax), %rax
	testq	%rax, %rax
	je	.L1024
.L1028:
	cmpq	(%rax), %rbx
	jne	.L1026
	movq	8(%rax), %rax
	testq	%rax, %rax
	je	.L1024
	movq	16(%rax), %rdx
	addq	$1, 24(%rax)
	movq	$0, (%r14)
	testq	%rdx, %rdx
	je	.L1029
	movq	%r14, (%rdx)
	movq	%r14, 16(%rax)
	jmp	.L1063
	.p2align 4,,10
	.p2align 3
.L1146:
	movq	_ZGVZN4asio15system_categoryEvE8instance@GOTPCREL(%rip), %rbx
	movzbl	(%rbx), %eax
	testb	%al, %al
	je	.L1000
	movq	_ZZN4asio15system_categoryEvE8instance@GOTPCREL(%rip), %r13
.L1001:
	movl	$9, 24(%r14)
	movq	%r13, 32(%r14)
	jmp	.L997
.L1008:
	movq	%rbx, %rdi
	call	__cxa_guard_acquire@PLT
	movq	_ZZN4asio15system_categoryEvE8instance@GOTPCREL(%rip), %r13
	testl	%eax, %eax
	je	.L1009
	movq	_ZN4asio6detail15system_categoryD1Ev@GOTPCREL(%rip), %rdi
	leaq	__dso_handle(%rip), %rdx
	movq	%r13, %rsi
	call	__cxa_atexit@PLT
	movq	%rbx, %rdi
	call	__cxa_guard_release@PLT
	jmp	.L1009
.L1000:
	movq	%rbx, %rdi
	call	__cxa_guard_acquire@PLT
	movq	_ZZN4asio15system_categoryEvE8instance@GOTPCREL(%rip), %r13
	testl	%eax, %eax
	je	.L1001
	movq	_ZN4asio6detail15system_categoryD1Ev@GOTPCREL(%rip), %rdi
	leaq	__dso_handle(%rip), %rdx
	movq	%r13, %rsi
	call	__cxa_atexit@PLT
	movq	%rbx, %rdi
	call	__cxa_guard_release@PLT
	jmp	.L1001
.L1011:
	lock addq	$1, 184(%rbx)
	leaq	48(%rbx), %rbp
	movq	%rbp, %rdi
	call	pthread_mutex_lock@PLT
	movq	200(%rbx), %rax
	movq	$0, (%r14)
	testq	%rax, %rax
	jne	.L1145
	movdqa	(%rsp), %xmm6
	movups	%xmm6, 192(%rbx)
	jmp	.L1060
.L1024:
	lock addq	$1, 184(%rbx)
	leaq	48(%rbx), %r12
	movq	%r12, %rdi
	call	pthread_mutex_lock@PLT
	movq	200(%rbx), %rax
	movq	$0, (%r14)
	testq	%rax, %rax
	je	.L1031
	movq	%r14, (%rax)
	movq	%r14, 200(%rbx)
.L1032:
	movq	136(%rbx), %rax
	movq	%rax, %rdx
	orq	$1, %rdx
	movq	%rdx, 136(%rbx)
	cmpq	$1, %rax
	jbe	.L1033
	movq	%r12, %rdi
	call	pthread_mutex_unlock@PLT
	leaq	88(%rbx), %rdi
	call	pthread_cond_signal@PLT
	jmp	.L1063
.L1033:
	cmpb	$0, 176(%rbx)
	jne	.L1035
	movq	144(%rbx), %rax
	testq	%rax, %rax
	je	.L1035
	movb	$1, 176(%rbx)
	leaq	88(%rax), %rdx
	leaq	52(%rsp), %rcx
	movl	$3, %esi
	movq	%rdx, 56(%rsp)
	movl	88(%rax), %edx
	movl	$-2147483639, 52(%rsp)
	movl	96(%rax), %edi
	call	epoll_ctl@PLT
.L1035:
	movq	%r12, %rdi
	call	pthread_mutex_unlock@PLT
	jmp	.L1063
.L1151:
	movq	%rbp, %rdi
	call	pthread_mutex_unlock@PLT
	movq	40(%r12), %rbx
	cmpb	$0, 40(%rbx)
	jne	.L1068
	cmpb	$0, 32(%rsp)
	je	.L1038
.L1068:
	data16	leaq	_ZN4asio6detail15keyword_tss_ptrINS0_10call_stackINS0_15task_io_serviceENS0_27task_io_service_thread_infoEE7contextEE6value_E@tlsgd(%rip), %rdi
	.value	0x6666
	rex64
	call	__tls_get_addr@PLT
	movq	(%rax), %rax
	testq	%rax, %rax
	jne	.L1042
	jmp	.L1038
	.p2align 4
	.p2align 4,,10
	.p2align 3
.L1040:
	movq	16(%rax), %rax
	testq	%rax, %rax
	je	.L1038
.L1042:
	cmpq	(%rax), %rbx
	jne	.L1040
	movq	8(%rax), %rax
	testq	%rax, %rax
	jne	.L1041
.L1038:
	lock addq	$1, 184(%rbx)
	leaq	48(%rbx), %rbp
	movq	%rbp, %rdi
	call	pthread_mutex_lock@PLT
	movq	200(%rbx), %rax
	movq	$0, (%r14)
	testq	%rax, %rax
	jne	.L1145
	movdqa	(%rsp), %xmm7
	movups	%xmm7, 192(%rbx)
	jmp	.L1060
.L1031:
	movdqa	(%rsp), %xmm7
	movups	%xmm7, 192(%rbx)
	jmp	.L1032
.L1029:
	movdqa	(%rsp), %xmm7
	movups	%xmm7, 8(%rax)
	jmp	.L1063
.L1049:
	call	_ZN4asio15system_categoryEv@PLT
	movq	%rax, %rbx
	call	__errno_location@PLT
	movzbl	32(%rsp), %edx
	movq	40(%r12), %rdi
	movq	%r14, %rsi
	movl	(%rax), %eax
	movq	%rbx, 32(%r14)
	movl	%eax, 24(%r14)
	call	_ZN4asio6detail15task_io_service25post_immediate_completionEPNS0_25task_io_service_operationEb@PLT
	jmp	.L1063
.L1065:
	movq	%rax, %rbx
	jmp	.L1052
	.section	.gcc_except_table
.LLSDA7019:
	.byte	0xff
	.byte	0xff
	.byte	0x1
	.uleb128 .LLSDACSE7019-.LLSDACSB7019
.LLSDACSB7019:
	.uleb128 .LEHB22-.LFB7019
	.uleb128 .LEHE22-.LEHB22
	.uleb128 0
	.uleb128 0
	.uleb128 .LEHB23-.LFB7019
	.uleb128 .LEHE23-.LEHB23
	.uleb128 .L1065-.LFB7019
	.uleb128 0
.LLSDACSE7019:
	.text
	.cfi_endproc
	.section	.text.unlikely
	.cfi_startproc
	.cfi_personality 0x9b,DW.ref.__gxx_personality_v0
	.cfi_lsda 0x1b,.LLSDAC7019
	.type	_ZN7asiopal13SerialChannel14BeginWriteImplERKN7openpal6RSliceE.cold, @function
_ZN7asiopal13SerialChannel14BeginWriteImplERKN7openpal6RSliceE.cold:
.LFSB7019:
.L1052:
	.cfi_def_cfa_offset 240
	.cfi_offset 3, -56
	.cfi_offset 6, -48
	.cfi_offset 12, -40
	.cfi_offset 13, -32
	.cfi_offset 14, -24
	.cfi_offset 15, -16
	movq	%rbp, %rdi
	call	pthread_mutex_unlock@PLT
	leaq	64(%rsp), %rdi
	call	_ZN4asio6detail19descriptor_write_opINS_15const_buffers_1ENS0_8write_opINS_17basic_serial_portINS_19serial_port_serviceEEES2_NS0_14transfer_all_tENS0_15wrapped_handlerINS_10io_service6strandEZN7asiopal13SerialChannel14BeginWriteImplERKN7openpal6RSliceEEUlRKSt10error_codemE_NS0_26is_continuation_if_runningEEEEEE3ptr5resetEv
	movq	%rbx, %rdi
.LEHB24:
	call	_Unwind_Resume@PLT
.LEHE24:
	.cfi_endproc
.LFE7019:
	.section	.gcc_except_table
.LLSDAC7019:
	.byte	0xff
	.byte	0xff
	.byte	0x1
	.uleb128 .LLSDACSEC7019-.LLSDACSBC7019
.LLSDACSBC7019:
	.uleb128 .LEHB24-.LCOLDB37
	.uleb128 .LEHE24-.LEHB24
	.uleb128 0
	.uleb128 0
.LLSDACSEC7019:
	.section	.text.unlikely
	.text
	.size	_ZN7asiopal13SerialChannel14BeginWriteImplERKN7openpal6RSliceE, .-_ZN7asiopal13SerialChannel14BeginWriteImplERKN7openpal6RSliceE
	.section	.text.unlikely
	.size	_ZN7asiopal13SerialChannel14BeginWriteImplERKN7openpal6RSliceE.cold, .-_ZN7asiopal13SerialChannel14BeginWriteImplERKN7openpal6RSliceE.cold
.LCOLDE37:
	.text
.LHOTE37:
	.section	.text._ZN4asio6detail14strand_service16on_dispatch_exitD2Ev,"axG",@progbits,_ZN4asio6detail14strand_service16on_dispatch_exitD5Ev,comdat
	.align 2
	.p2align 4
	.weak	_ZN4asio6detail14strand_service16on_dispatch_exitD2Ev
	.type	_ZN4asio6detail14strand_service16on_dispatch_exitD2Ev, @function
_ZN4asio6detail14strand_service16on_dispatch_exitD2Ev:
.LFB6397:
	.cfi_startproc
	pushq	%rbp
	.cfi_def_cfa_offset 16
	.cfi_offset 6, -16
	movq	%rdi, %rbp
	pushq	%rbx
	.cfi_def_cfa_offset 24
	.cfi_offset 3, -24
	subq	$56, %rsp
	.cfi_def_cfa_offset 80
	movq	8(%rdi), %rax
	leaq	24(%rax), %rdi
	call	pthread_mutex_lock@PLT
	movq	8(%rbp), %rdi
	movq	72(%rdi), %rbx
	testq	%rbx, %rbx
	je	.L1178
	movq	96(%rdi), %rax
	testq	%rax, %rax
	je	.L1155
	movq	%rbx, (%rax)
	movq	88(%rdi), %rbx
.L1156:
	movq	80(%rdi), %rax
	pxor	%xmm0, %xmm0
	movups	%xmm0, 72(%rdi)
	movq	%rax, 96(%rdi)
.L1154:
	testq	%rbx, %rbx
	setne	64(%rdi)
	addq	$24, %rdi
	call	pthread_mutex_unlock@PLT
	testq	%rbx, %rbx
	je	.L1152
	movdqu	0(%rbp), %xmm0
	movq	0(%rbp), %rbx
	movdqa	%xmm0, %xmm1
	movhlps	%xmm0, %xmm2
	punpckhqdq	%xmm0, %xmm1
	movq	%xmm2, %rbp
	movaps	%xmm1, 16(%rsp)
	cmpb	$0, 40(%rbx)
	je	.L1158
	data16	leaq	_ZN4asio6detail15keyword_tss_ptrINS0_10call_stackINS0_15task_io_serviceENS0_27task_io_service_thread_infoEE7contextEE6value_E@tlsgd(%rip), %rdi
	.value	0x6666
	rex64
	call	__tls_get_addr@PLT
	movq	(%rax), %rax
	testq	%rax, %rax
	jne	.L1161
	jmp	.L1158
	.p2align 4
	.p2align 4,,10
	.p2align 3
.L1159:
	movq	16(%rax), %rax
	testq	%rax, %rax
	je	.L1158
.L1161:
	cmpq	(%rax), %rbx
	jne	.L1159
	movq	8(%rax), %rax
	testq	%rax, %rax
	je	.L1158
	movq	16(%rax), %rdx
	addq	$1, 24(%rax)
	movq	$0, 0(%rbp)
	testq	%rdx, %rdx
	je	.L1162
	movq	%rbp, (%rdx)
	movq	%rbp, 16(%rax)
.L1152:
	addq	$56, %rsp
	.cfi_remember_state
	.cfi_def_cfa_offset 24
	popq	%rbx
	.cfi_def_cfa_offset 16
	popq	%rbp
	.cfi_def_cfa_offset 8
	ret
	.p2align 4,,10
	.p2align 3
.L1155:
	.cfi_restore_state
	movq	%rbx, 88(%rdi)
	jmp	.L1156
	.p2align 4,,10
	.p2align 3
.L1158:
	lock addq	$1, 184(%rbx)
	leaq	48(%rbx), %r8
	movq	%r8, %rdi
	movq	%r8, 8(%rsp)
	call	pthread_mutex_lock@PLT
	movq	200(%rbx), %rax
	movq	8(%rsp), %r8
	movq	$0, 0(%rbp)
	testq	%rax, %rax
	je	.L1163
	movq	%rbp, (%rax)
	movq	%rbp, 200(%rbx)
.L1164:
	movq	136(%rbx), %rax
	movq	%rax, %rdx
	orq	$1, %rdx
	movq	%rdx, 136(%rbx)
	cmpq	$1, %rax
	ja	.L1179
	cmpb	$0, 176(%rbx)
	jne	.L1166
	movq	144(%rbx), %rax
	testq	%rax, %rax
	je	.L1166
	leaq	88(%rax), %rdx
	movb	$1, 176(%rbx)
	movl	96(%rax), %edi
	leaq	36(%rsp), %rcx
	movq	%rdx, 40(%rsp)
	movl	88(%rax), %edx
	movl	$3, %esi
	movq	%r8, 8(%rsp)
	movl	$-2147483639, 36(%rsp)
	call	epoll_ctl@PLT
	movq	8(%rsp), %r8
.L1166:
	addq	$56, %rsp
	.cfi_remember_state
	.cfi_def_cfa_offset 24
	movq	%r8, %rdi
	popq	%rbx
	.cfi_def_cfa_offset 16
	popq	%rbp
	.cfi_def_cfa_offset 8
	jmp	pthread_mutex_unlock@PLT
	.p2align 4,,10
	.p2align 3
.L1178:
	.cfi_restore_state
	movq	88(%rdi), %rbx
	jmp	.L1154
	.p2align 4,,10
	.p2align 3
.L1179:
	movq	%r8, %rdi
	call	pthread_mutex_unlock@PLT
	addq	$56, %rsp
	.cfi_remember_state
	.cfi_def_cfa_offset 24
	leaq	88(%rbx), %rdi
	popq	%rbx
	.cfi_def_cfa_offset 16
	popq	%rbp
	.cfi_def_cfa_offset 8
	jmp	pthread_cond_signal@PLT
	.p2align 4,,10
	.p2align 3
.L1163:
	.cfi_restore_state
	movdqa	16(%rsp), %xmm3
	movups	%xmm3, 192(%rbx)
	jmp	.L1164
	.p2align 4,,10
	.p2align 3
.L1162:
	movdqa	16(%rsp), %xmm4
	movups	%xmm4, 8(%rax)
	jmp	.L1152
	.cfi_endproc
.LFE6397:
	.size	_ZN4asio6detail14strand_service16on_dispatch_exitD2Ev, .-_ZN4asio6detail14strand_service16on_dispatch_exitD2Ev
	.weak	_ZN4asio6detail14strand_service16on_dispatch_exitD1Ev
	.set	_ZN4asio6detail14strand_service16on_dispatch_exitD1Ev,_ZN4asio6detail14strand_service16on_dispatch_exitD2Ev
	.section	.text.unlikely
	.align 2
.LCOLDB38:
	.text
.LHOTB38:
	.align 2
	.p2align 4
	.type	_ZN4asio6detail14strand_service8dispatchINS0_7binder2IZN7asiopal13SerialChannel13BeginReadImplEN7openpal6WSliceEEUlRKSt10error_codemE_S8_mEEEEvRPNS1_11strand_implERT_, @function
_ZN4asio6detail14strand_service8dispatchINS0_7binder2IZN7asiopal13SerialChannel13BeginReadImplEN7openpal6WSliceEEUlRKSt10error_codemE_S8_mEEEEvRPNS1_11strand_implERT_:
.LFB9390:
	.cfi_startproc
	.cfi_personality 0x9b,DW.ref.__gxx_personality_v0
	.cfi_lsda 0x1b,.LLSDA9390
	pushq	%r13
	.cfi_def_cfa_offset 16
	.cfi_offset 13, -16
	movq	%rdx, %r13
	pushq	%r12
	.cfi_def_cfa_offset 24
	.cfi_offset 12, -24
	movq	%rdi, %r12
	pushq	%rbp
	.cfi_def_cfa_offset 32
	.cfi_offset 6, -32
	movq	%rsi, %rbp
	pushq	%rbx
	.cfi_def_cfa_offset 40
	.cfi_offset 3, -40
	subq	$152, %rsp
	.cfi_def_cfa_offset 192
	data16	leaq	_ZN4asio6detail15keyword_tss_ptrINS0_10call_stackINS0_14strand_service11strand_implEhE7contextEE6value_E@tlsgd(%rip), %rdi
	.value	0x6666
	rex64
	call	__tls_get_addr@PLT
	movq	(%rax), %rax
	testq	%rax, %rax
	je	.L1181
	movq	0(%rbp), %rdx
	jmp	.L1184
	.p2align 4
	.p2align 4,,10
	.p2align 3
.L1182:
	movq	16(%rax), %rax
	testq	%rax, %rax
	je	.L1181
.L1184:
	cmpq	(%rax), %rdx
	jne	.L1182
	cmpq	$0, 8(%rax)
	je	.L1181
	lfence
	movq	0(%r13), %rax
	movq	24(%r13), %rdx
	movq	40(%rax), %rdi
	movb	$0, 57(%rax)
	testq	%rdi, %rdi
	je	.L1187
	cmpb	$0, 56(%rax)
	jne	.L1187
	movq	(%rdi), %rax
	leaq	8(%r13), %rsi
.LEHB25:
	call	*16(%rax)
.LEHE25:
.L1187:
	sfence
.L1180:
	addq	$152, %rsp
	.cfi_remember_state
	.cfi_def_cfa_offset 40
	popq	%rbx
	.cfi_def_cfa_offset 32
	popq	%rbp
	.cfi_def_cfa_offset 24
	popq	%r12
	.cfi_def_cfa_offset 16
	popq	%r13
	.cfi_def_cfa_offset 8
	ret
	.p2align 4,,10
	.p2align 3
.L1181:
	.cfi_restore_state
	data16	leaq	_ZN4asio6detail15keyword_tss_ptrINS0_10call_stackINS0_15task_io_serviceENS0_27task_io_service_thread_infoEE7contextEE6value_E@tlsgd(%rip), %rdi
	.value	0x6666
	rex64
	call	__tls_get_addr@PLT
	movq	(%rax), %rax
	testq	%rax, %rax
	je	.L1188
	movq	8(%rax), %rax
	testq	%rax, %rax
	je	.L1188
	movq	(%rax), %rbx
	testq	%rbx, %rbx
	je	.L1188
	movq	$0, (%rax)
	movzbl	(%rbx), %eax
	cmpb	$55, %al
	jbe	.L1189
	movb	%al, 56(%rbx)
	jmp	.L1190
.L1189:
	movq	%rbx, %rdi
	call	_ZdlPv@PLT
.L1188:
	movl	$57, %edi
.LEHB26:
	call	_Znwm@PLT
	movb	$56, 56(%rax)
	movq	%rax, %rbx
.L1190:
	movdqu	0(%r13), %xmm0
	leaq	_ZN4asio6detail18completion_handlerINS0_7binder2IZN7asiopal13SerialChannel13BeginReadImplEN7openpal6WSliceEEUlRKSt10error_codemE_S7_mEEE11do_completeEPNS0_15task_io_serviceEPNS0_25task_io_service_operationES9_m(%rip), %rax
	movq	$0, (%rbx)
	movq	%rbx, %xmm1
	movq	%rax, 8(%rbx)
	punpcklqdq	%xmm1, %xmm1
	movups	%xmm0, 24(%rbx)
	movdqu	16(%r13), %xmm0
	movl	$0, 16(%rbx)
	movups	%xmm0, 40(%rbx)
	movaps	%xmm1, (%rsp)
	data16	leaq	_ZN4asio6detail15keyword_tss_ptrINS0_10call_stackINS0_15task_io_serviceENS0_27task_io_service_thread_infoEE7contextEE6value_E@tlsgd(%rip), %rdi
	.value	0x6666
	rex64
	call	__tls_get_addr@PLT
	movq	(%rax), %rax
	testq	%rax, %rax
	je	.L1274
	movq	40(%r12), %rdx
	jmp	.L1195
	.p2align 4
	.p2align 4,,10
	.p2align 3
.L1192:
	movq	16(%rax), %rax
	testq	%rax, %rax
	je	.L1274
.L1195:
	cmpq	(%rax), %rdx
	jne	.L1192
	movq	8(%rax), %r13
	movq	0(%rbp), %rax
	leaq	24(%rax), %rdi
	call	pthread_mutex_lock@PLT
	testq	%r13, %r13
	je	.L1194
	movq	0(%rbp), %rdi
	cmpb	$0, 64(%rdi)
	je	.L1277
.L1197:
	movq	80(%rdi), %rax
	movq	$0, (%rbx)
	testq	%rax, %rax
	je	.L1201
	movq	%rbx, (%rax)
	movq	%rbx, 80(%rdi)
.L1202:
	addq	$24, %rdi
.L1276:
	addq	$152, %rsp
	.cfi_remember_state
	.cfi_def_cfa_offset 40
	popq	%rbx
	.cfi_def_cfa_offset 32
	popq	%rbp
	.cfi_def_cfa_offset 24
	popq	%r12
	.cfi_def_cfa_offset 16
	popq	%r13
	.cfi_def_cfa_offset 8
	jmp	pthread_mutex_unlock@PLT
.L1277:
	.cfi_restore_state
	movb	$1, 64(%rdi)
	addq	$24, %rdi
	leaq	112(%rsp), %r13
	call	pthread_mutex_unlock@PLT
	movq	0(%rbp), %rbp
	movq	%rbp, 48(%rsp)
	data16	leaq	_ZN4asio6detail15keyword_tss_ptrINS0_10call_stackINS0_14strand_service11strand_implEhE7contextEE6value_E@tlsgd(%rip), %rdi
	.value	0x6666
	rex64
	call	__tls_get_addr@PLT
	movq	40(%r12), %r12
	movq	%rbp, %xmm4
	movq	%r13, 80(%rsp)
	movq	$0, 96(%rsp)
	movq	%r12, %xmm0
	punpcklqdq	%xmm4, %xmm0
	movaps	%xmm0, 32(%rsp)
	movdqu	24(%rbx), %xmm0
	movq	(%rax), %rdx
	movaps	%xmm0, 112(%rsp)
	movdqu	40(%rbx), %xmm0
	movq	%rdx, 64(%rsp)
	leaq	48(%rsp), %rdx
	movq	%rdx, (%rax)
	movq	%rdx, 56(%rsp)
	movaps	%xmm0, 128(%rsp)
	data16	leaq	_ZN4asio6detail15keyword_tss_ptrINS0_10call_stackINS0_15task_io_serviceENS0_27task_io_service_thread_infoEE7contextEE6value_E@tlsgd(%rip), %rdi
	.value	0x6666
	rex64
	call	__tls_get_addr@PLT
	movq	(%rax), %rax
	testq	%rax, %rax
	je	.L1199
	movq	8(%rax), %rax
	testq	%rax, %rax
	je	.L1199
	cmpq	$0, (%rax)
	je	.L1278
.L1199:
	movq	%rbx, %rdi
	call	_ZdlPv@PLT
.L1214:
	movq	$0, 88(%rsp)
	testq	%r12, %r12
	je	.L1215
	movq	112(%rsp), %rax
	movq	136(%rsp), %rdx
	movq	40(%rax), %rdi
	movb	$0, 57(%rax)
	testq	%rdi, %rdi
	je	.L1217
	cmpb	$0, 56(%rax)
	je	.L1279
.L1217:
	sfence
.L1215:
	leaq	24(%rbp), %rdi
	movq	%rdi, (%rsp)
	call	pthread_mutex_lock@PLT
	movq	72(%rbp), %rbx
	movq	(%rsp), %rdi
	testq	%rbx, %rbx
	je	.L1280
	movq	96(%rbp), %rax
	testq	%rax, %rax
	je	.L1221
	movq	%rbx, (%rax)
	movq	88(%rbp), %rbx
.L1222:
	movq	80(%rbp), %rax
	pxor	%xmm0, %xmm0
	movups	%xmm0, 72(%rbp)
	movq	%rax, 96(%rbp)
.L1219:
	testq	%rbx, %rbx
	setne	64(%rbp)
	call	pthread_mutex_unlock@PLT
	testq	%rbx, %rbx
	je	.L1223
	movq	%rbp, %xmm3
	punpcklqdq	%xmm3, %xmm3
	movaps	%xmm3, (%rsp)
	cmpb	$0, 40(%r12)
	je	.L1224
	data16	leaq	_ZN4asio6detail15keyword_tss_ptrINS0_10call_stackINS0_15task_io_serviceENS0_27task_io_service_thread_infoEE7contextEE6value_E@tlsgd(%rip), %rdi
	.value	0x6666
	rex64
	call	__tls_get_addr@PLT
	movq	(%rax), %rax
	testq	%rax, %rax
	jne	.L1227
	jmp	.L1224
	.p2align 4
	.p2align 4,,10
	.p2align 3
.L1225:
	movq	16(%rax), %rax
	testq	%rax, %rax
	je	.L1224
.L1227:
	cmpq	(%rax), %r12
	jne	.L1225
	movq	8(%rax), %rax
	testq	%rax, %rax
	je	.L1224
	movq	16(%rax), %rdx
	addq	$1, 24(%rax)
	movq	$0, 0(%rbp)
	testq	%rdx, %rdx
	je	.L1228
	movq	%rbp, (%rdx)
	movq	%rbp, 16(%rax)
.L1223:
	data16	leaq	_ZN4asio6detail15keyword_tss_ptrINS0_10call_stackINS0_14strand_service11strand_implEhE7contextEE6value_E@tlsgd(%rip), %rdi
	.value	0x6666
	rex64
	call	__tls_get_addr@PLT
	movq	64(%rsp), %rdx
	movq	%rdx, (%rax)
	addq	$152, %rsp
	.cfi_remember_state
	.cfi_def_cfa_offset 40
	popq	%rbx
	.cfi_def_cfa_offset 32
	popq	%rbp
	.cfi_def_cfa_offset 24
	popq	%r12
	.cfi_def_cfa_offset 16
	popq	%r13
	.cfi_def_cfa_offset 8
	ret
.L1224:
	.cfi_restore_state
	lock addq	$1, 184(%r12)
	leaq	48(%r12), %rbx
	movq	%rbx, %rdi
	call	pthread_mutex_lock@PLT
	movq	200(%r12), %rax
	movq	$0, 0(%rbp)
	testq	%rax, %rax
	je	.L1229
	movq	%rbp, (%rax)
	movq	%rbp, 200(%r12)
.L1230:
	movq	136(%r12), %rax
	movq	%rax, %rdx
	orq	$1, %rdx
	movq	%rdx, 136(%r12)
	cmpq	$1, %rax
	jbe	.L1231
	movq	%rbx, %rdi
	call	pthread_mutex_unlock@PLT
	leaq	88(%r12), %rdi
	call	pthread_cond_signal@PLT
	jmp	.L1223
	.p2align 4,,10
	.p2align 3
.L1274:
	movq	0(%rbp), %rax
	leaq	24(%rax), %rdi
	call	pthread_mutex_lock@PLT
.L1194:
	movq	0(%rbp), %rdi
	cmpb	$0, 64(%rdi)
	jne	.L1197
	movb	$1, 64(%rdi)
	addq	$24, %rdi
	call	pthread_mutex_unlock@PLT
	movq	0(%rbp), %rbp
	movq	$0, (%rbx)
	movq	%rbp, %xmm2
	movq	96(%rbp), %rax
	punpcklqdq	%xmm2, %xmm2
	movaps	%xmm2, 16(%rsp)
	testq	%rax, %rax
	je	.L1203
	movq	%rbx, (%rax)
	movq	%rbx, 96(%rbp)
.L1204:
	movq	40(%r12), %rbx
	cmpb	$0, 40(%rbx)
	je	.L1205
	data16	leaq	_ZN4asio6detail15keyword_tss_ptrINS0_10call_stackINS0_15task_io_serviceENS0_27task_io_service_thread_infoEE7contextEE6value_E@tlsgd(%rip), %rdi
	.value	0x6666
	rex64
	call	__tls_get_addr@PLT
	movq	(%rax), %rax
	testq	%rax, %rax
	jne	.L1208
	jmp	.L1205
	.p2align 4
	.p2align 4,,10
	.p2align 3
.L1206:
	movq	16(%rax), %rax
	testq	%rax, %rax
	je	.L1205
.L1208:
	cmpq	(%rax), %rbx
	jne	.L1206
	movq	8(%rax), %rax
	testq	%rax, %rax
	je	.L1205
	movq	16(%rax), %rdx
	addq	$1, 24(%rax)
	movq	$0, 0(%rbp)
	testq	%rdx, %rdx
	je	.L1209
	movq	%rbp, (%rdx)
	movq	%rbp, 16(%rax)
	jmp	.L1180
.L1205:
	lock addq	$1, 184(%rbx)
	leaq	48(%rbx), %r12
	movq	%r12, %rdi
	call	pthread_mutex_lock@PLT
	movq	200(%rbx), %rax
	movq	$0, 0(%rbp)
	testq	%rax, %rax
	je	.L1210
	movq	%rbp, (%rax)
	movq	%rbp, 200(%rbx)
.L1211:
	movq	136(%rbx), %rax
	movq	%rax, %rdx
	orq	$1, %rdx
	movq	%rdx, 136(%rbx)
	cmpq	$1, %rax
	jbe	.L1212
	movq	%r12, %rdi
	call	pthread_mutex_unlock@PLT
	addq	$152, %rsp
	.cfi_remember_state
	.cfi_def_cfa_offset 40
	leaq	88(%rbx), %rdi
	popq	%rbx
	.cfi_def_cfa_offset 32
	popq	%rbp
	.cfi_def_cfa_offset 24
	popq	%r12
	.cfi_def_cfa_offset 16
	popq	%r13
	.cfi_def_cfa_offset 8
	jmp	pthread_cond_signal@PLT
.LEHE26:
.L1201:
	.cfi_restore_state
	movdqa	(%rsp), %xmm5
	movups	%xmm5, 72(%rdi)
	jmp	.L1202
.L1279:
	movq	(%rdi), %rax
	leaq	120(%rsp), %rsi
.LEHB27:
	call	*16(%rax)
.LEHE27:
	jmp	.L1217
.L1210:
	movdqa	16(%rsp), %xmm7
	movups	%xmm7, 192(%rbx)
	jmp	.L1211
.L1229:
	movdqa	(%rsp), %xmm6
	movups	%xmm6, 192(%r12)
	jmp	.L1230
.L1280:
	movq	88(%rbp), %rbx
	jmp	.L1219
.L1221:
	movq	%rbx, 88(%rbp)
	jmp	.L1222
.L1212:
	cmpb	$0, 176(%rbx)
	jne	.L1213
	movq	144(%rbx), %rax
	testq	%rax, %rax
	je	.L1213
	movb	$1, 176(%rbx)
	leaq	88(%rax), %rdx
	leaq	112(%rsp), %rcx
	movl	$3, %esi
	movq	%rdx, 116(%rsp)
	movl	88(%rax), %edx
	movl	$-2147483639, 112(%rsp)
	movl	96(%rax), %edi
	call	epoll_ctl@PLT
.L1213:
	movq	%r12, %rdi
	jmp	.L1276
.L1231:
	cmpb	$0, 176(%r12)
	jne	.L1233
	movq	144(%r12), %rax
	testq	%rax, %rax
	je	.L1233
	movb	$1, 176(%r12)
	leaq	88(%rax), %rdx
	movq	%r13, %rcx
	movl	$3, %esi
	movq	%rdx, 116(%rsp)
	movl	88(%rax), %edx
	movl	$-2147483639, 112(%rsp)
	movl	96(%rax), %edi
	call	epoll_ctl@PLT
.L1233:
	movq	%rbx, %rdi
	call	pthread_mutex_unlock@PLT
	jmp	.L1223
.L1203:
	movdqa	(%rsp), %xmm6
	movups	%xmm6, 88(%rbp)
	jmp	.L1204
.L1278:
	movzbl	56(%rbx), %edx
	movb	%dl, (%rbx)
	movq	%rbx, (%rax)
	jmp	.L1214
.L1209:
	movdqa	16(%rsp), %xmm6
	movups	%xmm6, 8(%rax)
	jmp	.L1180
.L1228:
	movdqa	(%rsp), %xmm7
	movups	%xmm7, 8(%rax)
	jmp	.L1223
.L1236:
	movq	%rax, %rbx
	jmp	.L1220
.L1235:
	jmp	.L1234
	.section	.gcc_except_table
.LLSDA9390:
	.byte	0xff
	.byte	0xff
	.byte	0x1
	.uleb128 .LLSDACSE9390-.LLSDACSB9390
.LLSDACSB9390:
	.uleb128 .LEHB25-.LFB9390
	.uleb128 .LEHE25-.LEHB25
	.uleb128 .L1235-.LFB9390
	.uleb128 0
	.uleb128 .LEHB26-.LFB9390
	.uleb128 .LEHE26-.LEHB26
	.uleb128 0
	.uleb128 0
	.uleb128 .LEHB27-.LFB9390
	.uleb128 .LEHE27-.LEHB27
	.uleb128 .L1236-.LFB9390
	.uleb128 0
.LLSDACSE9390:
	.text
	.cfi_endproc
	.section	.text.unlikely
	.cfi_startproc
	.cfi_personality 0x9b,DW.ref.__gxx_personality_v0
	.cfi_lsda 0x1b,.LLSDAC9390
	.type	_ZN4asio6detail14strand_service8dispatchINS0_7binder2IZN7asiopal13SerialChannel13BeginReadImplEN7openpal6WSliceEEUlRKSt10error_codemE_S8_mEEEEvRPNS1_11strand_implERT_.cold, @function
_ZN4asio6detail14strand_service8dispatchINS0_7binder2IZN7asiopal13SerialChannel13BeginReadImplEN7openpal6WSliceEEUlRKSt10error_codemE_S8_mEEEEvRPNS1_11strand_implERT_.cold:
.LFSB9390:
.L1220:
	.cfi_def_cfa_offset 192
	.cfi_offset 3, -40
	.cfi_offset 6, -32
	.cfi_offset 12, -24
	.cfi_offset 13, -16
	sfence
	leaq	80(%rsp), %rdi
	call	_ZN4asio6detail18completion_handlerINS0_7binder2IZN7asiopal13SerialChannel13BeginReadImplEN7openpal6WSliceEEUlRKSt10error_codemE_S7_mEEE3ptr5resetEv
	leaq	32(%rsp), %rdi
	call	_ZN4asio6detail14strand_service16on_dispatch_exitD1Ev@PLT
	data16	leaq	_ZN4asio6detail15keyword_tss_ptrINS0_10call_stackINS0_14strand_service11strand_implEhE7contextEE6value_E@tlsgd(%rip), %rdi
	.value	0x6666
	rex64
	call	__tls_get_addr@PLT
	movq	64(%rsp), %rdx
	movq	%rbx, %rdi
	movq	%rdx, (%rax)
.LEHB28:
	call	_Unwind_Resume@PLT
.L1234:
	sfence
	movq	%rax, %rdi
	call	_Unwind_Resume@PLT
.LEHE28:
	.cfi_endproc
.LFE9390:
	.section	.gcc_except_table
.LLSDAC9390:
	.byte	0xff
	.byte	0xff
	.byte	0x1
	.uleb128 .LLSDACSEC9390-.LLSDACSBC9390
.LLSDACSBC9390:
	.uleb128 .LEHB28-.LCOLDB38
	.uleb128 .LEHE28-.LEHB28
	.uleb128 0
	.uleb128 0
.LLSDACSEC9390:
	.section	.text.unlikely
	.text
	.size	_ZN4asio6detail14strand_service8dispatchINS0_7binder2IZN7asiopal13SerialChannel13BeginReadImplEN7openpal6WSliceEEUlRKSt10error_codemE_S8_mEEEEvRPNS1_11strand_implERT_, .-_ZN4asio6detail14strand_service8dispatchINS0_7binder2IZN7asiopal13SerialChannel13BeginReadImplEN7openpal6WSliceEEUlRKSt10error_codemE_S8_mEEEEvRPNS1_11strand_implERT_
	.section	.text.unlikely
	.size	_ZN4asio6detail14strand_service8dispatchINS0_7binder2IZN7asiopal13SerialChannel13BeginReadImplEN7openpal6WSliceEEUlRKSt10error_codemE_S8_mEEEEvRPNS1_11strand_implERT_.cold, .-_ZN4asio6detail14strand_service8dispatchINS0_7binder2IZN7asiopal13SerialChannel13BeginReadImplEN7openpal6WSliceEEUlRKSt10error_codemE_S8_mEEEEvRPNS1_11strand_implERT_.cold
.LCOLDE38:
	.text
.LHOTE38:
	.section	.text.unlikely
.LCOLDB39:
	.text
.LHOTB39:
	.p2align 4
	.type	_ZN4asio6detail18completion_handlerINS0_17rewrapped_handlerINS0_7binder2INS0_15wrapped_handlerINS_10io_service6strandEZN7asiopal13SerialChannel13BeginReadImplEN7openpal6WSliceEEUlRKSt10error_codemE_NS0_26is_continuation_if_runningEEESB_mEESE_EEE11do_completeEPNS0_15task_io_serviceEPNS0_25task_io_service_operationESD_m, @function
_ZN4asio6detail18completion_handlerINS0_17rewrapped_handlerINS0_7binder2INS0_15wrapped_handlerINS_10io_service6strandEZN7asiopal13SerialChannel13BeginReadImplEN7openpal6WSliceEEUlRKSt10error_codemE_NS0_26is_continuation_if_runningEEESB_mEESE_EEE11do_completeEPNS0_15task_io_serviceEPNS0_25task_io_service_operationESD_m:
.LFB9315:
	.cfi_startproc
	.cfi_personality 0x9b,DW.ref.__gxx_personality_v0
	.cfi_lsda 0x1b,.LLSDA9315
	pushq	%rbp
	.cfi_def_cfa_offset 16
	.cfi_offset 6, -16
	movq	%rdi, %rbp
	pushq	%rbx
	.cfi_def_cfa_offset 24
	.cfi_offset 3, -24
	movq	%rsi, %rbx
	subq	$152, %rsp
	.cfi_def_cfa_offset 176
	movq	24(%rsi), %rax
	movdqu	32(%rsi), %xmm0
	movq	%rax, 80(%rsp)
	movq	48(%rsi), %rax
	movups	%xmm0, 88(%rsp)
	movdqu	56(%rsi), %xmm0
	movq	%rax, 104(%rsp)
	movq	72(%rsi), %rax
	movaps	%xmm0, 112(%rsp)
	movq	%rax, 128(%rsp)
	leaq	80(%rsp), %rax
	movq	%rax, (%rsp)
	data16	leaq	_ZN4asio6detail15keyword_tss_ptrINS0_10call_stackINS0_15task_io_serviceENS0_27task_io_service_thread_infoEE7contextEE6value_E@tlsgd(%rip), %rdi
	.value	0x6666
	rex64
	call	__tls_get_addr@PLT
	movq	(%rax), %rax
	testq	%rax, %rax
	je	.L1282
	movq	8(%rax), %rax
	testq	%rax, %rax
	je	.L1282
	cmpq	$0, (%rax)
	je	.L1297
.L1282:
	movq	%rbx, %rdi
	call	_ZdlPv@PLT
.L1286:
	testq	%rbp, %rbp
	je	.L1281
	movq	104(%rsp), %rax
	movq	88(%rsp), %rdi
	leaq	32(%rsp), %rdx
	leaq	96(%rsp), %rsi
	movq	%rax, 32(%rsp)
	movl	112(%rsp), %eax
	movl	%eax, 40(%rsp)
	movq	120(%rsp), %rax
	movq	%rax, 48(%rsp)
	movq	128(%rsp), %rax
	movq	%rax, 56(%rsp)
.LEHB29:
	call	_ZN4asio6detail14strand_service8dispatchINS0_7binder2IZN7asiopal13SerialChannel13BeginReadImplEN7openpal6WSliceEEUlRKSt10error_codemE_S8_mEEEEvRPNS1_11strand_implERT_
.LEHE29:
	sfence
.L1281:
	addq	$152, %rsp
	.cfi_remember_state
	.cfi_def_cfa_offset 24
	popq	%rbx
	.cfi_def_cfa_offset 16
	popq	%rbp
	.cfi_def_cfa_offset 8
	ret
	.p2align 4,,10
	.p2align 3
.L1297:
	.cfi_restore_state
	movzbl	80(%rbx), %edx
	movb	%dl, (%rbx)
	movq	%rbx, (%rax)
	jmp	.L1286
.L1289:
	movq	%rax, %rbx
	jmp	.L1288
	.section	.gcc_except_table
.LLSDA9315:
	.byte	0xff
	.byte	0xff
	.byte	0x1
	.uleb128 .LLSDACSE9315-.LLSDACSB9315
.LLSDACSB9315:
	.uleb128 .LEHB29-.LFB9315
	.uleb128 .LEHE29-.LEHB29
	.uleb128 .L1289-.LFB9315
	.uleb128 0
.LLSDACSE9315:
	.text
	.cfi_endproc
	.section	.text.unlikely
	.cfi_startproc
	.cfi_personality 0x9b,DW.ref.__gxx_personality_v0
	.cfi_lsda 0x1b,.LLSDAC9315
	.type	_ZN4asio6detail18completion_handlerINS0_17rewrapped_handlerINS0_7binder2INS0_15wrapped_handlerINS_10io_service6strandEZN7asiopal13SerialChannel13BeginReadImplEN7openpal6WSliceEEUlRKSt10error_codemE_NS0_26is_continuation_if_runningEEESB_mEESE_EEE11do_completeEPNS0_15task_io_serviceEPNS0_25task_io_service_operationESD_m.cold, @function
_ZN4asio6detail18completion_handlerINS0_17rewrapped_handlerINS0_7binder2INS0_15wrapped_handlerINS_10io_service6strandEZN7asiopal13SerialChannel13BeginReadImplEN7openpal6WSliceEEUlRKSt10error_codemE_NS0_26is_continuation_if_runningEEESB_mEESE_EEE11do_completeEPNS0_15task_io_serviceEPNS0_25task_io_service_operationESD_m.cold:
.LFSB9315:
.L1288:
	.cfi_def_cfa_offset 176
	.cfi_offset 3, -24
	.cfi_offset 6, -16
	sfence
	pxor	%xmm0, %xmm0
	movq	%rsp, %rdi
	movups	%xmm0, 8(%rsp)
	call	_ZN4asio6detail18completion_handlerINS0_17rewrapped_handlerINS0_7binder2INS0_15wrapped_handlerINS_10io_service6strandEZN7asiopal13SerialChannel13BeginReadImplEN7openpal6WSliceEEUlRKSt10error_codemE_NS0_26is_continuation_if_runningEEESB_mEESE_EEE3ptr5resetEv
	movq	%rbx, %rdi
.LEHB30:
	call	_Unwind_Resume@PLT
.LEHE30:
	.cfi_endproc
.LFE9315:
	.section	.gcc_except_table
.LLSDAC9315:
	.byte	0xff
	.byte	0xff
	.byte	0x1
	.uleb128 .LLSDACSEC9315-.LLSDACSBC9315
.LLSDACSBC9315:
	.uleb128 .LEHB30-.LCOLDB39
	.uleb128 .LEHE30-.LEHB30
	.uleb128 0
	.uleb128 0
.LLSDACSEC9315:
	.section	.text.unlikely
	.text
	.size	_ZN4asio6detail18completion_handlerINS0_17rewrapped_handlerINS0_7binder2INS0_15wrapped_handlerINS_10io_service6strandEZN7asiopal13SerialChannel13BeginReadImplEN7openpal6WSliceEEUlRKSt10error_codemE_NS0_26is_continuation_if_runningEEESB_mEESE_EEE11do_completeEPNS0_15task_io_serviceEPNS0_25task_io_service_operationESD_m, .-_ZN4asio6detail18completion_handlerINS0_17rewrapped_handlerINS0_7binder2INS0_15wrapped_handlerINS_10io_service6strandEZN7asiopal13SerialChannel13BeginReadImplEN7openpal6WSliceEEUlRKSt10error_codemE_NS0_26is_continuation_if_runningEEESB_mEESE_EEE11do_completeEPNS0_15task_io_serviceEPNS0_25task_io_service_operationESD_m
	.section	.text.unlikely
	.size	_ZN4asio6detail18completion_handlerINS0_17rewrapped_handlerINS0_7binder2INS0_15wrapped_handlerINS_10io_service6strandEZN7asiopal13SerialChannel13BeginReadImplEN7openpal6WSliceEEUlRKSt10error_codemE_NS0_26is_continuation_if_runningEEESB_mEESE_EEE11do_completeEPNS0_15task_io_serviceEPNS0_25task_io_service_operationESD_m.cold, .-_ZN4asio6detail18completion_handlerINS0_17rewrapped_handlerINS0_7binder2INS0_15wrapped_handlerINS_10io_service6strandEZN7asiopal13SerialChannel13BeginReadImplEN7openpal6WSliceEEUlRKSt10error_codemE_NS0_26is_continuation_if_runningEEESB_mEESE_EEE11do_completeEPNS0_15task_io_serviceEPNS0_25task_io_service_operationESD_m.cold
.LCOLDE39:
	.text
.LHOTE39:
	.section	.text.unlikely
.LCOLDB40:
	.text
.LHOTB40:
	.p2align 4
	.type	_ZN4asio6detail18descriptor_read_opINS_17mutable_buffers_1ENS0_15wrapped_handlerINS_10io_service6strandEZN7asiopal13SerialChannel13BeginReadImplEN7openpal6WSliceEEUlRKSt10error_codemE_NS0_26is_continuation_if_runningEEEE11do_completeEPNS0_15task_io_serviceEPNS0_25task_io_service_operationESC_m, @function
_ZN4asio6detail18descriptor_read_opINS_17mutable_buffers_1ENS0_15wrapped_handlerINS_10io_service6strandEZN7asiopal13SerialChannel13BeginReadImplEN7openpal6WSliceEEUlRKSt10error_codemE_NS0_26is_continuation_if_runningEEEE11do_completeEPNS0_15task_io_serviceEPNS0_25task_io_service_operationESC_m:
.LFB9098:
	.cfi_startproc
	.cfi_personality 0x9b,DW.ref.__gxx_personality_v0
	.cfi_lsda 0x1b,.LLSDA9098
	pushq	%r15
	.cfi_def_cfa_offset 16
	.cfi_offset 15, -16
	pushq	%r14
	.cfi_def_cfa_offset 24
	.cfi_offset 14, -24
	pushq	%r13
	.cfi_def_cfa_offset 32
	.cfi_offset 13, -32
	pushq	%r12
	.cfi_def_cfa_offset 40
	.cfi_offset 12, -40
	pushq	%rbp
	.cfi_def_cfa_offset 48
	.cfi_offset 6, -48
	movq	%rdi, %rbp
	pushq	%rbx
	.cfi_def_cfa_offset 56
	.cfi_offset 3, -56
	movq	%rsi, %rbx
	subq	$440, %rsp
	.cfi_def_cfa_offset 496
	movq	96(%rsi), %rax
	movdqu	80(%rsi), %xmm0
	movq	%rax, 208(%rsp)
	movq	40(%rsi), %rax
	movaps	%xmm0, 192(%rsp)
	movdqu	24(%rsi), %xmm0
	movq	%rax, 232(%rsp)
	leaq	192(%rsp), %rax
	movq	%rax, 48(%rsp)
	movups	%xmm0, 216(%rsp)
	data16	leaq	_ZN4asio6detail15keyword_tss_ptrINS0_10call_stackINS0_15task_io_serviceENS0_27task_io_service_thread_infoEE7contextEE6value_E@tlsgd(%rip), %rdi
	.value	0x6666
	rex64
	call	__tls_get_addr@PLT
	movq	(%rax), %rax
	testq	%rax, %rax
	je	.L1299
	movq	8(%rax), %rax
	testq	%rax, %rax
	je	.L1299
	cmpq	$0, (%rax)
	je	.L1405
.L1299:
	movq	%rbx, %rdi
	call	_ZdlPv@PLT
.L1300:
	testq	%rbp, %rbp
	je	.L1298
	movq	208(%rsp), %r15
	movq	232(%rsp), %rbp
	movdqa	192(%rsp), %xmm0
	movdqu	216(%rsp), %xmm1
	movq	%r15, 240(%rsp)
	movaps	%xmm1, 272(%rsp)
	movq	%xmm0, %r13
	movq	280(%rsp), %r12
	movq	%r15, 264(%rsp)
	movq	%r15, 368(%rsp)
	movq	%rbp, 416(%rsp)
	movups	%xmm0, 248(%rsp)
	movaps	%xmm1, (%rsp)
	movups	%xmm0, 376(%rsp)
	movaps	%xmm1, 400(%rsp)
	data16	leaq	_ZN4asio6detail15keyword_tss_ptrINS0_10call_stackINS0_14strand_service11strand_implEhE7contextEE6value_E@tlsgd(%rip), %rdi
	.value	0x6666
	rex64
	call	__tls_get_addr@PLT
	movq	(%rax), %rax
	testq	%rax, %rax
	je	.L1302
	movq	200(%rsp), %rdx
	jmp	.L1305
	.p2align 4
	.p2align 4,,10
	.p2align 3
.L1303:
	movq	16(%rax), %rax
	testq	%rax, %rax
	je	.L1302
.L1305:
	cmpq	(%rax), %rdx
	jne	.L1303
	cmpq	$0, 8(%rax)
	je	.L1302
	lfence
	movdqa	(%rsp), %xmm7
	leaq	304(%rsp), %rdx
	movq	%r13, %rdi
	leaq	384(%rsp), %rsi
	movq	%r15, 304(%rsp)
	movq	%r12, 320(%rsp)
	movq	%rbp, 328(%rsp)
	movq	%r13, 376(%rsp)
	movq	%r15, 392(%rsp)
	movq	%r12, 408(%rsp)
	movd	%xmm7, 312(%rsp)
	movd	%xmm7, 400(%rsp)
.LEHB31:
	call	_ZN4asio6detail14strand_service8dispatchINS0_7binder2IZN7asiopal13SerialChannel13BeginReadImplEN7openpal6WSliceEEUlRKSt10error_codemE_S8_mEEEEvRPNS1_11strand_implERT_
.LEHE31:
	sfence
.L1306:
	sfence
.L1298:
	addq	$440, %rsp
	.cfi_remember_state
	.cfi_def_cfa_offset 56
	popq	%rbx
	.cfi_def_cfa_offset 48
	popq	%rbp
	.cfi_def_cfa_offset 40
	popq	%r12
	.cfi_def_cfa_offset 32
	popq	%r13
	.cfi_def_cfa_offset 24
	popq	%r14
	.cfi_def_cfa_offset 16
	popq	%r15
	.cfi_def_cfa_offset 8
	ret
	.p2align 4,,10
	.p2align 3
.L1302:
	.cfi_restore_state
	data16	leaq	_ZN4asio6detail15keyword_tss_ptrINS0_10call_stackINS0_15task_io_serviceENS0_27task_io_service_thread_infoEE7contextEE6value_E@tlsgd(%rip), %rdi
	.value	0x6666
	rex64
	call	__tls_get_addr@PLT
	movq	192(%rsp), %r14
	movq	(%rax), %rax
	testq	%rax, %rax
	je	.L1307
	movq	8(%rax), %rax
	testq	%rax, %rax
	je	.L1307
	movq	(%rax), %rbx
	testq	%rbx, %rbx
	je	.L1307
	movq	$0, (%rax)
	movzbl	(%rbx), %eax
	cmpb	$79, %al
	jbe	.L1308
	movb	%al, 80(%rbx)
	jmp	.L1309
	.p2align 4,,10
	.p2align 3
.L1308:
	movq	%rbx, %rdi
	call	_ZdlPv@PLT
.L1307:
	movl	$81, %edi
.LEHB32:
	call	_Znwm@PLT
.LEHE32:
	movb	$80, 80(%rax)
	movq	%rax, %rbx
.L1309:
	leaq	_ZN4asio6detail18completion_handlerINS0_17rewrapped_handlerINS0_7binder2INS0_15wrapped_handlerINS_10io_service6strandEZN7asiopal13SerialChannel13BeginReadImplEN7openpal6WSliceEEUlRKSt10error_codemE_NS0_26is_continuation_if_runningEEESB_mEESE_EEE11do_completeEPNS0_15task_io_serviceEPNS0_25task_io_service_operationESD_m(%rip), %rax
	movq	%r13, 376(%rsp)
	movdqa	(%rsp), %xmm3
	movq	%rbx, %xmm2
	movq	%rax, 8(%rbx)
	movq	368(%rsp), %rax
	punpcklqdq	%xmm2, %xmm2
	movdqu	376(%rsp), %xmm0
	movq	%r12, 408(%rsp)
	movd	%xmm3, 400(%rsp)
	movups	%xmm0, 32(%rbx)
	movdqa	400(%rsp), %xmm0
	movq	$0, (%rbx)
	movl	$0, 16(%rbx)
	movq	%rax, 24(%rbx)
	movq	%r15, 48(%rbx)
	movq	%rbp, 72(%rbx)
	movups	%xmm0, 56(%rbx)
	movaps	%xmm2, 16(%rsp)
	data16	leaq	_ZN4asio6detail15keyword_tss_ptrINS0_10call_stackINS0_15task_io_serviceENS0_27task_io_service_thread_infoEE7contextEE6value_E@tlsgd(%rip), %rdi
	.value	0x6666
	rex64
	call	__tls_get_addr@PLT
	movq	200(%rsp), %rdi
	movq	(%rax), %rax
	testq	%rax, %rax
	je	.L1403
	movq	40(%r14), %rdx
	jmp	.L1314
	.p2align 4
	.p2align 4,,10
	.p2align 3
.L1311:
	movq	16(%rax), %rax
	testq	%rax, %rax
	je	.L1403
.L1314:
	cmpq	(%rax), %rdx
	jne	.L1311
	movq	8(%rax), %rbp
	addq	$24, %rdi
	call	pthread_mutex_lock@PLT
	testq	%rbp, %rbp
	je	.L1313
	movq	200(%rsp), %rdi
	cmpb	$0, 64(%rdi)
	je	.L1406
.L1316:
	movq	80(%rdi), %rax
	movq	$0, (%rbx)
	testq	%rax, %rax
	je	.L1320
	movq	%rbx, (%rax)
	movq	%rbx, 80(%rdi)
.L1321:
	addq	$24, %rdi
	call	pthread_mutex_unlock@PLT
	jmp	.L1306
	.p2align 4,,10
	.p2align 3
.L1406:
	movb	$1, 64(%rdi)
	addq	$24, %rdi
	leaq	304(%rsp), %r13
	call	pthread_mutex_unlock@PLT
	movq	200(%rsp), %rbp
	movq	%rbp, 80(%rsp)
	data16	leaq	_ZN4asio6detail15keyword_tss_ptrINS0_10call_stackINS0_14strand_service11strand_implEhE7contextEE6value_E@tlsgd(%rip), %rdi
	.value	0x6666
	rex64
	call	__tls_get_addr@PLT
	movq	40(%r14), %r12
	movq	%rbp, %xmm6
	movq	%r13, 112(%rsp)
	movq	%r12, %xmm0
	punpcklqdq	%xmm6, %xmm0
	movaps	%xmm0, 32(%rsp)
	movdqu	32(%rbx), %xmm0
	movq	(%rax), %rdx
	movq	%rdx, 96(%rsp)
	leaq	80(%rsp), %rdx
	movq	%rdx, (%rax)
	movq	24(%rbx), %rax
	movups	%xmm0, 312(%rsp)
	movdqu	56(%rbx), %xmm0
	movq	%rax, 304(%rsp)
	movq	48(%rbx), %rax
	movq	%rdx, 88(%rsp)
	movq	%rax, 328(%rsp)
	movq	72(%rbx), %rax
	movaps	%xmm0, 336(%rsp)
	movq	%rax, 352(%rsp)
	data16	leaq	_ZN4asio6detail15keyword_tss_ptrINS0_10call_stackINS0_15task_io_serviceENS0_27task_io_service_thread_infoEE7contextEE6value_E@tlsgd(%rip), %rdi
	.value	0x6666
	rex64
	call	__tls_get_addr@PLT
	movq	(%rax), %rax
	testq	%rax, %rax
	je	.L1318
	movq	8(%rax), %rax
	testq	%rax, %rax
	je	.L1318
	cmpq	$0, (%rax)
	je	.L1407
.L1318:
	movq	%rbx, %rdi
	call	_ZdlPv@PLT
.L1334:
	testq	%r12, %r12
	je	.L1335
	movq	328(%rsp), %rax
	movq	312(%rsp), %rdi
	leaq	144(%rsp), %rdx
	leaq	320(%rsp), %rsi
	movq	%rax, 144(%rsp)
	movl	336(%rsp), %eax
	movl	%eax, 152(%rsp)
	movq	344(%rsp), %rax
	movq	%rax, 160(%rsp)
	movq	352(%rsp), %rax
	movq	%rax, 168(%rsp)
.LEHB33:
	call	_ZN4asio6detail14strand_service8dispatchINS0_7binder2IZN7asiopal13SerialChannel13BeginReadImplEN7openpal6WSliceEEUlRKSt10error_codemE_S8_mEEEEvRPNS1_11strand_implERT_
.LEHE33:
	sfence
.L1335:
	leaq	24(%rbp), %r14
	movq	%r14, %rdi
	call	pthread_mutex_lock@PLT
	movq	72(%rbp), %rbx
	testq	%rbx, %rbx
	je	.L1408
	movq	96(%rbp), %rax
	testq	%rax, %rax
	je	.L1340
	movq	%rbx, (%rax)
	movq	88(%rbp), %rbx
.L1341:
	movq	80(%rbp), %rax
	pxor	%xmm0, %xmm0
	movups	%xmm0, 72(%rbp)
	movq	%rax, 96(%rbp)
.L1337:
	testq	%rbx, %rbx
	movq	%r14, %rdi
	setne	64(%rbp)
	call	pthread_mutex_unlock@PLT
	testq	%rbx, %rbx
	je	.L1342
	movq	%rbp, %xmm6
	punpcklqdq	%xmm6, %xmm6
	movaps	%xmm6, (%rsp)
	cmpb	$0, 40(%r12)
	je	.L1343
	data16	leaq	_ZN4asio6detail15keyword_tss_ptrINS0_10call_stackINS0_15task_io_serviceENS0_27task_io_service_thread_infoEE7contextEE6value_E@tlsgd(%rip), %rdi
	.value	0x6666
	rex64
	call	__tls_get_addr@PLT
	movq	(%rax), %rax
	testq	%rax, %rax
	jne	.L1346
	jmp	.L1343
	.p2align 4
	.p2align 4,,10
	.p2align 3
.L1344:
	movq	16(%rax), %rax
	testq	%rax, %rax
	je	.L1343
.L1346:
	cmpq	(%rax), %r12
	jne	.L1344
	movq	8(%rax), %rax
	testq	%rax, %rax
	je	.L1343
	movq	16(%rax), %rdx
	addq	$1, 24(%rax)
	movq	$0, 0(%rbp)
	testq	%rdx, %rdx
	je	.L1347
	movq	%rbp, (%rdx)
	movq	%rbp, 16(%rax)
	.p2align 4
	.p2align 3
.L1342:
	data16	leaq	_ZN4asio6detail15keyword_tss_ptrINS0_10call_stackINS0_14strand_service11strand_implEhE7contextEE6value_E@tlsgd(%rip), %rdi
	.value	0x6666
	rex64
	call	__tls_get_addr@PLT
	movq	96(%rsp), %rdx
	movq	%rdx, (%rax)
	jmp	.L1306
	.p2align 4,,10
	.p2align 3
.L1405:
	movzbl	104(%rbx), %edx
	movb	%dl, (%rbx)
	movq	%rbx, (%rax)
	jmp	.L1300
	.p2align 4,,10
	.p2align 3
.L1320:
	movdqa	16(%rsp), %xmm5
	movups	%xmm5, 72(%rdi)
	jmp	.L1321
	.p2align 4,,10
	.p2align 3
.L1403:
	addq	$24, %rdi
	call	pthread_mutex_lock@PLT
.L1313:
	movq	200(%rsp), %rdi
	cmpb	$0, 64(%rdi)
	jne	.L1316
	movb	$1, 64(%rdi)
	addq	$24, %rdi
	call	pthread_mutex_unlock@PLT
	movq	200(%rsp), %rbp
	movq	$0, (%rbx)
	movq	%rbp, %xmm5
	movq	96(%rbp), %rax
	punpcklqdq	%xmm5, %xmm5
	movaps	%xmm5, (%rsp)
	testq	%rax, %rax
	je	.L1322
	movq	%rbx, (%rax)
	movq	%rbx, 96(%rbp)
.L1323:
	movq	40(%r14), %rbx
	cmpb	$0, 40(%rbx)
	je	.L1324
	data16	leaq	_ZN4asio6detail15keyword_tss_ptrINS0_10call_stackINS0_15task_io_serviceENS0_27task_io_service_thread_infoEE7contextEE6value_E@tlsgd(%rip), %rdi
	.value	0x6666
	rex64
	call	__tls_get_addr@PLT
	movq	(%rax), %rax
	testq	%rax, %rax
	jne	.L1327
	jmp	.L1324
	.p2align 4
	.p2align 4,,10
	.p2align 3
.L1325:
	movq	16(%rax), %rax
	testq	%rax, %rax
	je	.L1324
.L1327:
	cmpq	(%rax), %rbx
	jne	.L1325
	movq	8(%rax), %rax
	testq	%rax, %rax
	je	.L1324
	movq	16(%rax), %rdx
	addq	$1, 24(%rax)
	movq	$0, 0(%rbp)
	testq	%rdx, %rdx
	je	.L1328
	movq	%rbp, (%rdx)
	movq	%rbp, 16(%rax)
	jmp	.L1306
	.p2align 4,,10
	.p2align 3
.L1324:
	lock addq	$1, 184(%rbx)
	leaq	48(%rbx), %r12
	movq	%r12, %rdi
	call	pthread_mutex_lock@PLT
	movq	200(%rbx), %rax
	movq	$0, 0(%rbp)
	testq	%rax, %rax
	je	.L1329
	movq	%rbp, (%rax)
	movq	%rbp, 200(%rbx)
.L1330:
	movq	136(%rbx), %rax
	movq	%rax, %rdx
	orq	$1, %rdx
	movq	%rdx, 136(%rbx)
	cmpq	$1, %rax
	ja	.L1409
	cmpb	$0, 176(%rbx)
	jne	.L1333
	movq	144(%rbx), %rax
	testq	%rax, %rax
	je	.L1333
	movb	$1, 176(%rbx)
	leaq	88(%rax), %rdx
	movl	$3, %esi
	leaq	304(%rsp), %rcx
	movq	%rdx, 308(%rsp)
	movl	88(%rax), %edx
	movl	$-2147483639, 304(%rsp)
	movl	96(%rax), %edi
	call	epoll_ctl@PLT
.L1333:
	movq	%r12, %rdi
	call	pthread_mutex_unlock@PLT
	jmp	.L1306
	.p2align 4,,10
	.p2align 3
.L1343:
	lock addq	$1, 184(%r12)
	leaq	48(%r12), %rbx
	movq	%rbx, %rdi
	call	pthread_mutex_lock@PLT
	movq	200(%r12), %rax
	movq	$0, 0(%rbp)
	testq	%rax, %rax
	je	.L1348
	movq	%rbp, (%rax)
	movq	%rbp, 200(%r12)
.L1349:
	movq	136(%r12), %rax
	movq	%rax, %rdx
	orq	$1, %rdx
	movq	%rdx, 136(%r12)
	cmpq	$1, %rax
	ja	.L1410
	cmpb	$0, 176(%r12)
	jne	.L1352
	movq	144(%r12), %rax
	testq	%rax, %rax
	je	.L1352
	movb	$1, 176(%r12)
	leaq	88(%rax), %rdx
	movq	%r13, %rcx
	movl	$3, %esi
	movq	%rdx, 308(%rsp)
	movl	88(%rax), %edx
	movl	$-2147483639, 304(%rsp)
	movl	96(%rax), %edi
	call	epoll_ctl@PLT
.L1352:
	movq	%rbx, %rdi
	call	pthread_mutex_unlock@PLT
	jmp	.L1342
	.p2align 4,,10
	.p2align 3
.L1408:
	movq	88(%rbp), %rbx
	jmp	.L1337
.L1409:
	movq	%r12, %rdi
	call	pthread_mutex_unlock@PLT
	leaq	88(%rbx), %rdi
	call	pthread_cond_signal@PLT
	jmp	.L1306
.L1410:
	movq	%rbx, %rdi
	call	pthread_mutex_unlock@PLT
	leaq	88(%r12), %rdi
	call	pthread_cond_signal@PLT
	jmp	.L1342
.L1340:
	movq	%rbx, 88(%rbp)
	jmp	.L1341
.L1322:
	movdqa	16(%rsp), %xmm5
	movups	%xmm5, 88(%rbp)
	jmp	.L1323
.L1329:
	movdqa	(%rsp), %xmm4
	movups	%xmm4, 192(%rbx)
	jmp	.L1330
.L1348:
	movdqa	(%rsp), %xmm4
	movups	%xmm4, 192(%r12)
	jmp	.L1349
.L1407:
	movzbl	80(%rbx), %edx
	movb	%dl, (%rbx)
	movq	%rbx, (%rax)
	jmp	.L1334
.L1328:
	movdqa	(%rsp), %xmm5
	movups	%xmm5, 8(%rax)
	jmp	.L1306
.L1347:
	movdqa	(%rsp), %xmm5
	movups	%xmm5, 8(%rax)
	jmp	.L1342
.L1356:
	movq	%rax, %rbx
	jmp	.L1338
.L1355:
	jmp	.L1353
.L1354:
	movq	%rax, %rbx
	jmp	.L1339
	.section	.gcc_except_table
.LLSDA9098:
	.byte	0xff
	.byte	0xff
	.byte	0x1
	.uleb128 .LLSDACSE9098-.LLSDACSB9098
.LLSDACSB9098:
	.uleb128 .LEHB31-.LFB9098
	.uleb128 .LEHE31-.LEHB31
	.uleb128 .L1355-.LFB9098
	.uleb128 0
	.uleb128 .LEHB32-.LFB9098
	.uleb128 .LEHE32-.LEHB32
	.uleb128 .L1354-.LFB9098
	.uleb128 0
	.uleb128 .LEHB33-.LFB9098
	.uleb128 .LEHE33-.LEHB33
	.uleb128 .L1356-.LFB9098
	.uleb128 0
.LLSDACSE9098:
	.text
	.cfi_endproc
	.section	.text.unlikely
	.cfi_startproc
	.cfi_personality 0x9b,DW.ref.__gxx_personality_v0
	.cfi_lsda 0x1b,.LLSDAC9098
	.type	_ZN4asio6detail18descriptor_read_opINS_17mutable_buffers_1ENS0_15wrapped_handlerINS_10io_service6strandEZN7asiopal13SerialChannel13BeginReadImplEN7openpal6WSliceEEUlRKSt10error_codemE_NS0_26is_continuation_if_runningEEEE11do_completeEPNS0_15task_io_serviceEPNS0_25task_io_service_operationESC_m.cold, @function
_ZN4asio6detail18descriptor_read_opINS_17mutable_buffers_1ENS0_15wrapped_handlerINS_10io_service6strandEZN7asiopal13SerialChannel13BeginReadImplEN7openpal6WSliceEEUlRKSt10error_codemE_NS0_26is_continuation_if_runningEEEE11do_completeEPNS0_15task_io_serviceEPNS0_25task_io_service_operationESC_m.cold:
.LFSB9098:
.L1338:
	.cfi_def_cfa_offset 496
	.cfi_offset 3, -56
	.cfi_offset 6, -48
	.cfi_offset 12, -40
	.cfi_offset 13, -32
	.cfi_offset 14, -24
	.cfi_offset 15, -16
	sfence
	pxor	%xmm0, %xmm0
	leaq	112(%rsp), %rdi
	movups	%xmm0, 120(%rsp)
	call	_ZN4asio6detail18completion_handlerINS0_17rewrapped_handlerINS0_7binder2INS0_15wrapped_handlerINS_10io_service6strandEZN7asiopal13SerialChannel13BeginReadImplEN7openpal6WSliceEEUlRKSt10error_codemE_NS0_26is_continuation_if_runningEEESB_mEESE_EEE3ptr5resetEv
	leaq	32(%rsp), %rdi
	call	_ZN4asio6detail14strand_service16on_dispatch_exitD1Ev@PLT
	data16	leaq	_ZN4asio6detail15keyword_tss_ptrINS0_10call_stackINS0_14strand_service11strand_implEhE7contextEE6value_E@tlsgd(%rip), %rdi
	.value	0x6666
	rex64
	call	__tls_get_addr@PLT
	movq	96(%rsp), %rdx
	movq	%rdx, (%rax)
.L1339:
	sfence
	pxor	%xmm0, %xmm0
	leaq	48(%rsp), %rdi
	movups	%xmm0, 56(%rsp)
	call	_ZN4asio6detail18descriptor_read_opINS_17mutable_buffers_1ENS0_15wrapped_handlerINS_10io_service6strandEZN7asiopal13SerialChannel13BeginReadImplEN7openpal6WSliceEEUlRKSt10error_codemE_NS0_26is_continuation_if_runningEEEE3ptr5resetEv
	movq	%rbx, %rdi
.LEHB34:
	call	_Unwind_Resume@PLT
.LEHE34:
.L1353:
	sfence
	movq	%rax, %rbx
	jmp	.L1339
	.cfi_endproc
.LFE9098:
	.section	.gcc_except_table
.LLSDAC9098:
	.byte	0xff
	.byte	0xff
	.byte	0x1
	.uleb128 .LLSDACSEC9098-.LLSDACSBC9098
.LLSDACSBC9098:
	.uleb128 .LEHB34-.LCOLDB40
	.uleb128 .LEHE34-.LEHB34
	.uleb128 0
	.uleb128 0
.LLSDACSEC9098:
	.section	.text.unlikely
	.text
	.size	_ZN4asio6detail18descriptor_read_opINS_17mutable_buffers_1ENS0_15wrapped_handlerINS_10io_service6strandEZN7asiopal13SerialChannel13BeginReadImplEN7openpal6WSliceEEUlRKSt10error_codemE_NS0_26is_continuation_if_runningEEEE11do_completeEPNS0_15task_io_serviceEPNS0_25task_io_service_operationESC_m, .-_ZN4asio6detail18descriptor_read_opINS_17mutable_buffers_1ENS0_15wrapped_handlerINS_10io_service6strandEZN7asiopal13SerialChannel13BeginReadImplEN7openpal6WSliceEEUlRKSt10error_codemE_NS0_26is_continuation_if_runningEEEE11do_completeEPNS0_15task_io_serviceEPNS0_25task_io_service_operationESC_m
	.section	.text.unlikely
	.size	_ZN4asio6detail18descriptor_read_opINS_17mutable_buffers_1ENS0_15wrapped_handlerINS_10io_service6strandEZN7asiopal13SerialChannel13BeginReadImplEN7openpal6WSliceEEUlRKSt10error_codemE_NS0_26is_continuation_if_runningEEEE11do_completeEPNS0_15task_io_serviceEPNS0_25task_io_service_operationESC_m.cold, .-_ZN4asio6detail18descriptor_read_opINS_17mutable_buffers_1ENS0_15wrapped_handlerINS_10io_service6strandEZN7asiopal13SerialChannel13BeginReadImplEN7openpal6WSliceEEUlRKSt10error_codemE_NS0_26is_continuation_if_runningEEEE11do_completeEPNS0_15task_io_serviceEPNS0_25task_io_service_operationESC_m.cold
.LCOLDE40:
	.text
.LHOTE40:
	.section	.text.unlikely
	.align 2
.LCOLDB41:
	.text
.LHOTB41:
	.align 2
	.p2align 4
	.type	_ZN4asio6detail14strand_service8dispatchINS0_7binder2IZN7asiopal13SerialChannel14BeginWriteImplERKN7openpal6RSliceEEUlRKSt10error_codemE_SA_mEEEEvRPNS1_11strand_implERT_.constprop.0, @function
_ZN4asio6detail14strand_service8dispatchINS0_7binder2IZN7asiopal13SerialChannel14BeginWriteImplERKN7openpal6RSliceEEUlRKSt10error_codemE_SA_mEEEEvRPNS1_11strand_implERT_.constprop.0:
.LFB9585:
	.cfi_startproc
	.cfi_personality 0x9b,DW.ref.__gxx_personality_v0
	.cfi_lsda 0x1b,.LLSDA9585
	pushq	%r13
	.cfi_def_cfa_offset 16
	.cfi_offset 13, -16
	movq	%rdx, %r13
	pushq	%r12
	.cfi_def_cfa_offset 24
	.cfi_offset 12, -24
	movq	%rdi, %r12
	pushq	%rbp
	.cfi_def_cfa_offset 32
	.cfi_offset 6, -32
	movq	%rsi, %rbp
	pushq	%rbx
	.cfi_def_cfa_offset 40
	.cfi_offset 3, -40
	subq	$152, %rsp
	.cfi_def_cfa_offset 192
	data16	leaq	_ZN4asio6detail15keyword_tss_ptrINS0_10call_stackINS0_14strand_service11strand_implEhE7contextEE6value_E@tlsgd(%rip), %rdi
	.value	0x6666
	rex64
	call	__tls_get_addr@PLT
	movq	(%rax), %rax
	testq	%rax, %rax
	je	.L1412
	movq	0(%rbp), %rdx
	jmp	.L1415
	.p2align 4
	.p2align 4,,10
	.p2align 3
.L1413:
	movq	16(%rax), %rax
	testq	%rax, %rax
	je	.L1412
.L1415:
	cmpq	(%rax), %rdx
	jne	.L1413
	cmpq	$0, 8(%rax)
	je	.L1412
	lfence
	movq	0(%r13), %rax
	movq	24(%r13), %rdx
	movq	40(%rax), %rdi
	movb	$0, 58(%rax)
	testq	%rdi, %rdi
	je	.L1418
	cmpb	$0, 56(%rax)
	jne	.L1418
	movq	(%rdi), %rax
	leaq	8(%r13), %rsi
.LEHB35:
	call	*24(%rax)
.LEHE35:
.L1418:
	sfence
.L1411:
	addq	$152, %rsp
	.cfi_remember_state
	.cfi_def_cfa_offset 40
	popq	%rbx
	.cfi_def_cfa_offset 32
	popq	%rbp
	.cfi_def_cfa_offset 24
	popq	%r12
	.cfi_def_cfa_offset 16
	popq	%r13
	.cfi_def_cfa_offset 8
	ret
	.p2align 4,,10
	.p2align 3
.L1412:
	.cfi_restore_state
	data16	leaq	_ZN4asio6detail15keyword_tss_ptrINS0_10call_stackINS0_15task_io_serviceENS0_27task_io_service_thread_infoEE7contextEE6value_E@tlsgd(%rip), %rdi
	.value	0x6666
	rex64
	call	__tls_get_addr@PLT
	movq	(%rax), %rax
	testq	%rax, %rax
	je	.L1419
	movq	8(%rax), %rax
	testq	%rax, %rax
	je	.L1419
	movq	(%rax), %rbx
	testq	%rbx, %rbx
	je	.L1419
	movq	$0, (%rax)
	movzbl	(%rbx), %eax
	cmpb	$55, %al
	jbe	.L1420
	movb	%al, 56(%rbx)
	jmp	.L1421
.L1420:
	movq	%rbx, %rdi
	call	_ZdlPv@PLT
.L1419:
	movl	$57, %edi
.LEHB36:
	call	_Znwm@PLT
	movb	$56, 56(%rax)
	movq	%rax, %rbx
.L1421:
	movdqu	0(%r13), %xmm0
	leaq	_ZN4asio6detail18completion_handlerINS0_7binder2IZN7asiopal13SerialChannel14BeginWriteImplERKN7openpal6RSliceEEUlRKSt10error_codemE_S9_mEEE11do_completeEPNS0_15task_io_serviceEPNS0_25task_io_service_operationESB_m(%rip), %rax
	movq	$0, (%rbx)
	movq	%rbx, %xmm1
	movq	%rax, 8(%rbx)
	punpcklqdq	%xmm1, %xmm1
	movups	%xmm0, 24(%rbx)
	movdqu	16(%r13), %xmm0
	movl	$0, 16(%rbx)
	movups	%xmm0, 40(%rbx)
	movaps	%xmm1, (%rsp)
	data16	leaq	_ZN4asio6detail15keyword_tss_ptrINS0_10call_stackINS0_15task_io_serviceENS0_27task_io_service_thread_infoEE7contextEE6value_E@tlsgd(%rip), %rdi
	.value	0x6666
	rex64
	call	__tls_get_addr@PLT
	movq	(%rax), %rax
	testq	%rax, %rax
	je	.L1505
	movq	40(%r12), %rdx
	jmp	.L1426
	.p2align 4
	.p2align 4,,10
	.p2align 3
.L1423:
	movq	16(%rax), %rax
	testq	%rax, %rax
	je	.L1505
.L1426:
	cmpq	(%rax), %rdx
	jne	.L1423
	movq	8(%rax), %r13
	movq	0(%rbp), %rax
	leaq	24(%rax), %rdi
	call	pthread_mutex_lock@PLT
	testq	%r13, %r13
	je	.L1425
	movq	0(%rbp), %rdi
	cmpb	$0, 64(%rdi)
	je	.L1508
.L1428:
	movq	80(%rdi), %rax
	movq	$0, (%rbx)
	testq	%rax, %rax
	je	.L1432
	movq	%rbx, (%rax)
	movq	%rbx, 80(%rdi)
.L1433:
	addq	$24, %rdi
.L1507:
	addq	$152, %rsp
	.cfi_remember_state
	.cfi_def_cfa_offset 40
	popq	%rbx
	.cfi_def_cfa_offset 32
	popq	%rbp
	.cfi_def_cfa_offset 24
	popq	%r12
	.cfi_def_cfa_offset 16
	popq	%r13
	.cfi_def_cfa_offset 8
	jmp	pthread_mutex_unlock@PLT
.L1508:
	.cfi_restore_state
	movb	$1, 64(%rdi)
	addq	$24, %rdi
	leaq	112(%rsp), %r13
	call	pthread_mutex_unlock@PLT
	movq	0(%rbp), %rbp
	movq	%rbp, 48(%rsp)
	data16	leaq	_ZN4asio6detail15keyword_tss_ptrINS0_10call_stackINS0_14strand_service11strand_implEhE7contextEE6value_E@tlsgd(%rip), %rdi
	.value	0x6666
	rex64
	call	__tls_get_addr@PLT
	movq	40(%r12), %r12
	movq	%rbp, %xmm4
	movq	%r13, 80(%rsp)
	movq	%r12, %xmm0
	punpcklqdq	%xmm4, %xmm0
	movaps	%xmm0, 32(%rsp)
	movdqu	24(%rbx), %xmm0
	movq	(%rax), %rdx
	movaps	%xmm0, 112(%rsp)
	movdqu	40(%rbx), %xmm0
	movq	%rdx, 64(%rsp)
	leaq	48(%rsp), %rdx
	movq	%rdx, (%rax)
	movq	%rdx, 56(%rsp)
	movaps	%xmm0, 128(%rsp)
	data16	leaq	_ZN4asio6detail15keyword_tss_ptrINS0_10call_stackINS0_15task_io_serviceENS0_27task_io_service_thread_infoEE7contextEE6value_E@tlsgd(%rip), %rdi
	.value	0x6666
	rex64
	call	__tls_get_addr@PLT
	movq	(%rax), %rax
	testq	%rax, %rax
	je	.L1430
	movq	8(%rax), %rax
	testq	%rax, %rax
	je	.L1430
	cmpq	$0, (%rax)
	je	.L1509
.L1430:
	movq	%rbx, %rdi
	call	_ZdlPv@PLT
.L1445:
	testq	%r12, %r12
	je	.L1446
	movq	112(%rsp), %rax
	movq	136(%rsp), %rdx
	movq	40(%rax), %rdi
	movb	$0, 58(%rax)
	testq	%rdi, %rdi
	je	.L1448
	cmpb	$0, 56(%rax)
	je	.L1510
.L1448:
	sfence
.L1446:
	leaq	24(%rbp), %rdi
	movq	%rdi, (%rsp)
	call	pthread_mutex_lock@PLT
	movq	72(%rbp), %rbx
	movq	(%rsp), %rdi
	testq	%rbx, %rbx
	je	.L1511
	movq	96(%rbp), %rax
	testq	%rax, %rax
	je	.L1452
	movq	%rbx, (%rax)
	movq	88(%rbp), %rbx
.L1453:
	movq	80(%rbp), %rax
	pxor	%xmm0, %xmm0
	movups	%xmm0, 72(%rbp)
	movq	%rax, 96(%rbp)
.L1450:
	testq	%rbx, %rbx
	setne	64(%rbp)
	call	pthread_mutex_unlock@PLT
	testq	%rbx, %rbx
	je	.L1454
	movq	%rbp, %xmm3
	punpcklqdq	%xmm3, %xmm3
	movaps	%xmm3, (%rsp)
	cmpb	$0, 40(%r12)
	je	.L1455
	data16	leaq	_ZN4asio6detail15keyword_tss_ptrINS0_10call_stackINS0_15task_io_serviceENS0_27task_io_service_thread_infoEE7contextEE6value_E@tlsgd(%rip), %rdi
	.value	0x6666
	rex64
	call	__tls_get_addr@PLT
	movq	(%rax), %rax
	testq	%rax, %rax
	jne	.L1458
	jmp	.L1455
	.p2align 4
	.p2align 4,,10
	.p2align 3
.L1456:
	movq	16(%rax), %rax
	testq	%rax, %rax
	je	.L1455
.L1458:
	cmpq	(%rax), %r12
	jne	.L1456
	movq	8(%rax), %rax
	testq	%rax, %rax
	je	.L1455
	movq	16(%rax), %rdx
	addq	$1, 24(%rax)
	movq	$0, 0(%rbp)
	testq	%rdx, %rdx
	je	.L1459
	movq	%rbp, (%rdx)
	movq	%rbp, 16(%rax)
.L1454:
	data16	leaq	_ZN4asio6detail15keyword_tss_ptrINS0_10call_stackINS0_14strand_service11strand_implEhE7contextEE6value_E@tlsgd(%rip), %rdi
	.value	0x6666
	rex64
	call	__tls_get_addr@PLT
	movq	64(%rsp), %rdx
	movq	%rdx, (%rax)
	addq	$152, %rsp
	.cfi_remember_state
	.cfi_def_cfa_offset 40
	popq	%rbx
	.cfi_def_cfa_offset 32
	popq	%rbp
	.cfi_def_cfa_offset 24
	popq	%r12
	.cfi_def_cfa_offset 16
	popq	%r13
	.cfi_def_cfa_offset 8
	ret
.L1455:
	.cfi_restore_state
	lock addq	$1, 184(%r12)
	leaq	48(%r12), %rbx
	movq	%rbx, %rdi
	call	pthread_mutex_lock@PLT
	movq	200(%r12), %rax
	movq	$0, 0(%rbp)
	testq	%rax, %rax
	je	.L1460
	movq	%rbp, (%rax)
	movq	%rbp, 200(%r12)
.L1461:
	movq	136(%r12), %rax
	movq	%rax, %rdx
	orq	$1, %rdx
	movq	%rdx, 136(%r12)
	cmpq	$1, %rax
	jbe	.L1462
	movq	%rbx, %rdi
	call	pthread_mutex_unlock@PLT
	leaq	88(%r12), %rdi
	call	pthread_cond_signal@PLT
	jmp	.L1454
	.p2align 4,,10
	.p2align 3
.L1505:
	movq	0(%rbp), %rax
	leaq	24(%rax), %rdi
	call	pthread_mutex_lock@PLT
.L1425:
	movq	0(%rbp), %rdi
	cmpb	$0, 64(%rdi)
	jne	.L1428
	movb	$1, 64(%rdi)
	addq	$24, %rdi
	call	pthread_mutex_unlock@PLT
	movq	0(%rbp), %rbp
	movq	$0, (%rbx)
	movq	%rbp, %xmm2
	movq	96(%rbp), %rax
	punpcklqdq	%xmm2, %xmm2
	movaps	%xmm2, 16(%rsp)
	testq	%rax, %rax
	je	.L1434
	movq	%rbx, (%rax)
	movq	%rbx, 96(%rbp)
.L1435:
	movq	40(%r12), %rbx
	cmpb	$0, 40(%rbx)
	je	.L1436
	data16	leaq	_ZN4asio6detail15keyword_tss_ptrINS0_10call_stackINS0_15task_io_serviceENS0_27task_io_service_thread_infoEE7contextEE6value_E@tlsgd(%rip), %rdi
	.value	0x6666
	rex64
	call	__tls_get_addr@PLT
	movq	(%rax), %rax
	testq	%rax, %rax
	jne	.L1439
	jmp	.L1436
	.p2align 4
	.p2align 4,,10
	.p2align 3
.L1437:
	movq	16(%rax), %rax
	testq	%rax, %rax
	je	.L1436
.L1439:
	cmpq	(%rax), %rbx
	jne	.L1437
	movq	8(%rax), %rax
	testq	%rax, %rax
	je	.L1436
	movq	16(%rax), %rdx
	addq	$1, 24(%rax)
	movq	$0, 0(%rbp)
	testq	%rdx, %rdx
	je	.L1440
	movq	%rbp, (%rdx)
	movq	%rbp, 16(%rax)
	jmp	.L1411
.L1436:
	lock addq	$1, 184(%rbx)
	leaq	48(%rbx), %r12
	movq	%r12, %rdi
	call	pthread_mutex_lock@PLT
	movq	200(%rbx), %rax
	movq	$0, 0(%rbp)
	testq	%rax, %rax
	je	.L1441
	movq	%rbp, (%rax)
	movq	%rbp, 200(%rbx)
.L1442:
	movq	136(%rbx), %rax
	movq	%rax, %rdx
	orq	$1, %rdx
	movq	%rdx, 136(%rbx)
	cmpq	$1, %rax
	jbe	.L1443
	movq	%r12, %rdi
	call	pthread_mutex_unlock@PLT
	addq	$152, %rsp
	.cfi_remember_state
	.cfi_def_cfa_offset 40
	leaq	88(%rbx), %rdi
	popq	%rbx
	.cfi_def_cfa_offset 32
	popq	%rbp
	.cfi_def_cfa_offset 24
	popq	%r12
	.cfi_def_cfa_offset 16
	popq	%r13
	.cfi_def_cfa_offset 8
	jmp	pthread_cond_signal@PLT
.LEHE36:
.L1432:
	.cfi_restore_state
	movdqa	(%rsp), %xmm5
	movups	%xmm5, 72(%rdi)
	jmp	.L1433
.L1510:
	movq	(%rdi), %rax
	leaq	120(%rsp), %rsi
.LEHB37:
	call	*24(%rax)
.LEHE37:
	jmp	.L1448
.L1441:
	movdqa	16(%rsp), %xmm7
	movups	%xmm7, 192(%rbx)
	jmp	.L1442
.L1460:
	movdqa	(%rsp), %xmm6
	movups	%xmm6, 192(%r12)
	jmp	.L1461
.L1511:
	movq	88(%rbp), %rbx
	jmp	.L1450
.L1452:
	movq	%rbx, 88(%rbp)
	jmp	.L1453
.L1443:
	cmpb	$0, 176(%rbx)
	jne	.L1444
	movq	144(%rbx), %rax
	testq	%rax, %rax
	je	.L1444
	movb	$1, 176(%rbx)
	leaq	88(%rax), %rdx
	leaq	112(%rsp), %rcx
	movl	$3, %esi
	movq	%rdx, 116(%rsp)
	movl	88(%rax), %edx
	movl	$-2147483639, 112(%rsp)
	movl	96(%rax), %edi
	call	epoll_ctl@PLT
.L1444:
	movq	%r12, %rdi
	jmp	.L1507
.L1462:
	cmpb	$0, 176(%r12)
	jne	.L1464
	movq	144(%r12), %rax
	testq	%rax, %rax
	je	.L1464
	movb	$1, 176(%r12)
	leaq	88(%rax), %rdx
	movq	%r13, %rcx
	movl	$3, %esi
	movq	%rdx, 116(%rsp)
	movl	88(%rax), %edx
	movl	$-2147483639, 112(%rsp)
	movl	96(%rax), %edi
	call	epoll_ctl@PLT
.L1464:
	movq	%rbx, %rdi
	call	pthread_mutex_unlock@PLT
	jmp	.L1454
.L1434:
	movdqa	(%rsp), %xmm6
	movups	%xmm6, 88(%rbp)
	jmp	.L1435
.L1509:
	movzbl	56(%rbx), %edx
	movb	%dl, (%rbx)
	movq	%rbx, (%rax)
	jmp	.L1445
.L1440:
	movdqa	16(%rsp), %xmm6
	movups	%xmm6, 8(%rax)
	jmp	.L1411
.L1459:
	movdqa	(%rsp), %xmm7
	movups	%xmm7, 8(%rax)
	jmp	.L1454
.L1467:
	movq	%rax, %rbx
	jmp	.L1451
.L1466:
	jmp	.L1465
	.section	.gcc_except_table
.LLSDA9585:
	.byte	0xff
	.byte	0xff
	.byte	0x1
	.uleb128 .LLSDACSE9585-.LLSDACSB9585
.LLSDACSB9585:
	.uleb128 .LEHB35-.LFB9585
	.uleb128 .LEHE35-.LEHB35
	.uleb128 .L1466-.LFB9585
	.uleb128 0
	.uleb128 .LEHB36-.LFB9585
	.uleb128 .LEHE36-.LEHB36
	.uleb128 0
	.uleb128 0
	.uleb128 .LEHB37-.LFB9585
	.uleb128 .LEHE37-.LEHB37
	.uleb128 .L1467-.LFB9585
	.uleb128 0
.LLSDACSE9585:
	.text
	.cfi_endproc
	.section	.text.unlikely
	.cfi_startproc
	.cfi_personality 0x9b,DW.ref.__gxx_personality_v0
	.cfi_lsda 0x1b,.LLSDAC9585
	.type	_ZN4asio6detail14strand_service8dispatchINS0_7binder2IZN7asiopal13SerialChannel14BeginWriteImplERKN7openpal6RSliceEEUlRKSt10error_codemE_SA_mEEEEvRPNS1_11strand_implERT_.constprop.0.cold, @function
_ZN4asio6detail14strand_service8dispatchINS0_7binder2IZN7asiopal13SerialChannel14BeginWriteImplERKN7openpal6RSliceEEUlRKSt10error_codemE_SA_mEEEEvRPNS1_11strand_implERT_.constprop.0.cold:
.LFSB9585:
.L1451:
	.cfi_def_cfa_offset 192
	.cfi_offset 3, -40
	.cfi_offset 6, -32
	.cfi_offset 12, -24
	.cfi_offset 13, -16
	sfence
	pxor	%xmm0, %xmm0
	leaq	80(%rsp), %rdi
	movups	%xmm0, 88(%rsp)
	call	_ZN4asio6detail18completion_handlerINS0_7binder2IZN7asiopal13SerialChannel14BeginWriteImplERKN7openpal6RSliceEEUlRKSt10error_codemE_S9_mEEE3ptr5resetEv
	leaq	32(%rsp), %rdi
	call	_ZN4asio6detail14strand_service16on_dispatch_exitD1Ev@PLT
	data16	leaq	_ZN4asio6detail15keyword_tss_ptrINS0_10call_stackINS0_14strand_service11strand_implEhE7contextEE6value_E@tlsgd(%rip), %rdi
	.value	0x6666
	rex64
	call	__tls_get_addr@PLT
	movq	64(%rsp), %rdx
	movq	%rbx, %rdi
	movq	%rdx, (%rax)
.LEHB38:
	call	_Unwind_Resume@PLT
.L1465:
	sfence
	movq	%rax, %rdi
	call	_Unwind_Resume@PLT
.LEHE38:
	.cfi_endproc
.LFE9585:
	.section	.gcc_except_table
.LLSDAC9585:
	.byte	0xff
	.byte	0xff
	.byte	0x1
	.uleb128 .LLSDACSEC9585-.LLSDACSBC9585
.LLSDACSBC9585:
	.uleb128 .LEHB38-.LCOLDB41
	.uleb128 .LEHE38-.LEHB38
	.uleb128 0
	.uleb128 0
.LLSDACSEC9585:
	.section	.text.unlikely
	.text
	.size	_ZN4asio6detail14strand_service8dispatchINS0_7binder2IZN7asiopal13SerialChannel14BeginWriteImplERKN7openpal6RSliceEEUlRKSt10error_codemE_SA_mEEEEvRPNS1_11strand_implERT_.constprop.0, .-_ZN4asio6detail14strand_service8dispatchINS0_7binder2IZN7asiopal13SerialChannel14BeginWriteImplERKN7openpal6RSliceEEUlRKSt10error_codemE_SA_mEEEEvRPNS1_11strand_implERT_.constprop.0
	.section	.text.unlikely
	.size	_ZN4asio6detail14strand_service8dispatchINS0_7binder2IZN7asiopal13SerialChannel14BeginWriteImplERKN7openpal6RSliceEEUlRKSt10error_codemE_SA_mEEEEvRPNS1_11strand_implERT_.constprop.0.cold, .-_ZN4asio6detail14strand_service8dispatchINS0_7binder2IZN7asiopal13SerialChannel14BeginWriteImplERKN7openpal6RSliceEEUlRKSt10error_codemE_SA_mEEEEvRPNS1_11strand_implERT_.constprop.0.cold
.LCOLDE41:
	.text
.LHOTE41:
	.section	.text.unlikely
.LCOLDB42:
	.text
.LHOTB42:
	.p2align 4
	.type	_ZN4asio6detail18completion_handlerINS0_17rewrapped_handlerINS0_7binder2INS0_8write_opINS_17basic_serial_portINS_19serial_port_serviceEEENS_15const_buffers_1ENS0_14transfer_all_tENS0_15wrapped_handlerINS_10io_service6strandEZN7asiopal13SerialChannel14BeginWriteImplERKN7openpal6RSliceEEUlRKSt10error_codemE_NS0_26is_continuation_if_runningEEEEESJ_mEESM_EEE11do_completeEPNS0_15task_io_serviceEPNS0_25task_io_service_operationESL_m, @function
_ZN4asio6detail18completion_handlerINS0_17rewrapped_handlerINS0_7binder2INS0_8write_opINS_17basic_serial_portINS_19serial_port_serviceEEENS_15const_buffers_1ENS0_14transfer_all_tENS0_15wrapped_handlerINS_10io_service6strandEZN7asiopal13SerialChannel14BeginWriteImplERKN7openpal6RSliceEEUlRKSt10error_codemE_NS0_26is_continuation_if_runningEEEEESJ_mEESM_EEE11do_completeEPNS0_15task_io_serviceEPNS0_25task_io_service_operationESL_m:
.LFB9368:
	.cfi_startproc
	.cfi_personality 0x9b,DW.ref.__gxx_personality_v0
	.cfi_lsda 0x1b,.LLSDA9368
	pushq	%r15
	.cfi_def_cfa_offset 16
	.cfi_offset 15, -16
	pushq	%r14
	.cfi_def_cfa_offset 24
	.cfi_offset 14, -24
	pushq	%r13
	.cfi_def_cfa_offset 32
	.cfi_offset 13, -32
	pushq	%r12
	.cfi_def_cfa_offset 40
	.cfi_offset 12, -40
	pushq	%rbp
	.cfi_def_cfa_offset 48
	.cfi_offset 6, -48
	pushq	%rbx
	.cfi_def_cfa_offset 56
	.cfi_offset 3, -56
	subq	$312, %rsp
	.cfi_def_cfa_offset 368
	movq	24(%rsi), %rax
	movdqu	72(%rsi), %xmm0
	movdqu	32(%rsi), %xmm1
	movq	32(%rsi), %r12
	movq	%rdi, 16(%rsp)
	movaps	%xmm0, 256(%rsp)
	movdqu	96(%rsi), %xmm0
	movq	72(%rsi), %r13
	movq	88(%rsi), %r14
	movl	96(%rsi), %ebp
	movq	%rax, 208(%rsp)
	movq	48(%rsi), %rax
	movaps	%xmm1, 32(%rsp)
	movups	%xmm0, 280(%rsp)
	movq	%rax, 8(%rsp)
	movq	64(%rsi), %rax
	movq	%r12, 216(%rsp)
	movq	%rax, 48(%rsp)
	movq	104(%rsi), %r15
	movq	112(%rsi), %rbx
	movq	%rsi, 24(%rsp)
	movq	%rbx, 296(%rsp)
	data16	leaq	_ZN4asio6detail15keyword_tss_ptrINS0_10call_stackINS0_15task_io_serviceENS0_27task_io_service_thread_infoEE7contextEE6value_E@tlsgd(%rip), %rdi
	.value	0x6666
	rex64
	call	__tls_get_addr@PLT
	movq	24(%rsp), %rsi
	movq	(%rax), %rax
	testq	%rax, %rax
	je	.L1513
	movq	8(%rax), %rax
	testq	%rax, %rax
	je	.L1513
	cmpq	$0, (%rax)
	je	.L1667
.L1513:
	movq	%rsi, %rdi
	call	_ZdlPv@PLT
.L1514:
	cmpq	$0, 16(%rsp)
	je	.L1512
	movq	48(%rsp), %rdx
	movq	40(%rsp), %rax
	movl	$0, 240(%rsp)
	addq	%rbx, %rdx
	movq	%rdx, 248(%rsp)
	testl	%ebp, %ebp
	jne	.L1516
	testq	%rbx, %rbx
	jne	.L1668
.L1516:
	movq	%rdx, 104(%rsp)
	leaq	264(%rsp), %rsi
	leaq	80(%rsp), %rdx
	movq	%r13, %rdi
	movq	%rax, 224(%rsp)
	movq	8(%rsp), %rax
	movq	%r14, 80(%rsp)
	movl	%ebp, 88(%rsp)
	movq	%r15, 96(%rsp)
	movq	%rax, 232(%rsp)
	movq	%r13, 256(%rsp)
	movq	%r14, 272(%rsp)
	movl	%ebp, 280(%rsp)
	movq	%r15, 288(%rsp)
.LEHB39:
	call	_ZN4asio6detail14strand_service8dispatchINS0_7binder2IZN7asiopal13SerialChannel14BeginWriteImplERKN7openpal6RSliceEEUlRKSt10error_codemE_SA_mEEEEvRPNS1_11strand_implERT_.constprop.0
.L1586:
	sfence
.L1512:
	addq	$312, %rsp
	.cfi_remember_state
	.cfi_def_cfa_offset 56
	popq	%rbx
	.cfi_def_cfa_offset 48
	popq	%rbp
	.cfi_def_cfa_offset 40
	popq	%r12
	.cfi_def_cfa_offset 32
	popq	%r13
	.cfi_def_cfa_offset 24
	popq	%r14
	.cfi_def_cfa_offset 16
	popq	%r15
	.cfi_def_cfa_offset 8
	ret
	.p2align 4,,10
	.p2align 3
.L1668:
	.cfi_restore_state
	cmpq	8(%rsp), %rdx
	je	.L1516
	movq	8(%rsp), %rcx
	cmpq	%rdx, %rcx
	jb	.L1588
	subq	%rdx, %rcx
	addq	%rdx, %rax
	movl	$65536, %ebx
	cmpq	%rbx, %rcx
	movq	%rax, 16(%rsp)
	movq	%rcx, %rbp
	cmovbe	%rcx, %rbx
.L1518:
	movq	16(%r12), %rax
	movq	%r13, 256(%rsp)
	movdqa	256(%rsp), %xmm0
	movdqa	32(%rsp), %xmm3
	movl	$0, 152(%rsp)
	movq	%rax, 24(%rsp)
	movq	8(%rsp), %rax
	movups	%xmm0, 168(%rsp)
	pxor	%xmm0, %xmm0
	movq	%rax, 144(%rsp)
	leaq	128(%rsp), %rax
	movq	%rdx, 160(%rsp)
	movq	%rdx, 8(%rsp)
	movq	%r14, 184(%rsp)
	movq	%rax, 80(%rsp)
	movaps	%xmm3, 128(%rsp)
	movups	%xmm0, 88(%rsp)
	data16	leaq	_ZN4asio6detail15keyword_tss_ptrINS0_10call_stackINS0_15task_io_serviceENS0_27task_io_service_thread_infoEE7contextEE6value_E@tlsgd(%rip), %rdi
	.value	0x6666
	rex64
	call	__tls_get_addr@PLT
	movq	(%rax), %rax
	testq	%rax, %rax
	je	.L1519
	movq	8(%rax), %rax
	testq	%rax, %rax
	je	.L1519
	movq	(%rax), %r15
	testq	%r15, %r15
	je	.L1519
	movq	$0, (%rax)
	movzbl	(%r15), %eax
	cmpb	$-113, %al
	jbe	.L1520
	movb	%al, 144(%r15)
	movq	8(%rsp), %rdx
	xorl	%r14d, %r14d
	movq	%r12, 32(%rsp)
	jmp	.L1521
	.p2align 4,,10
	.p2align 3
.L1667:
	movzbl	120(%rsi), %edx
	movb	%dl, (%rsi)
	movq	%rsi, (%rax)
	jmp	.L1514
	.p2align 4,,10
	.p2align 3
.L1520:
	movq	%r15, %rdi
	call	_ZdlPv@PLT
.L1519:
	movl	$145, %edi
	call	_Znwm@PLT
.LEHE39:
	movb	$-112, 144(%rax)
	movq	%rax, %r15
	movq	128(%rsp), %rax
	movl	152(%rsp), %r14d
	movq	160(%rsp), %rdx
	movq	%rax, 32(%rsp)
.L1521:
	leaq	_ZN4asio6detail19descriptor_write_opINS_15const_buffers_1ENS0_8write_opINS_17basic_serial_portINS_19serial_port_serviceEEES2_NS0_14transfer_all_tENS0_15wrapped_handlerINS_10io_service6strandEZN7asiopal13SerialChannel14BeginWriteImplERKN7openpal6RSliceEEUlRKSt10error_codemE_NS0_26is_continuation_if_runningEEEEEE11do_completeEPNS0_15task_io_serviceEPNS0_25task_io_service_operationESJ_m(%rip), %rax
	movl	(%r12), %r13d
	movq	%r15, 88(%rsp)
	movq	%r15, %xmm2
	movq	$0, (%r15)
	punpcklqdq	%xmm2, %xmm2
	movq	%rax, 8(%r15)
	movl	$0, 16(%r15)
	movl	$0, 24(%r15)
	movq	%rdx, 8(%rsp)
	movaps	%xmm2, 48(%rsp)
	call	_ZNSt3_V215system_categoryEv@PLT
	movq	8(%rsp), %rdx
	movl	%r13d, 56(%r15)
	movdqu	136(%rsp), %xmm0
	movq	%rax, 32(%r15)
	movq	%rax, %rcx
	movq	_ZN4asio6detail24descriptor_write_op_baseINS_15const_buffers_1EE10do_performEPNS0_10reactor_opE@GOTPCREL(%rip), %rax
	movq	$0, 40(%r15)
	movups	%xmm0, 88(%r15)
	movdqu	168(%rsp), %xmm0
	movq	%rax, 48(%r15)
	movq	16(%rsp), %rax
	movq	%rbx, 72(%r15)
	movq	%rax, 64(%r15)
	movq	32(%rsp), %rax
	movl	%r14d, 104(%r15)
	movq	%rax, 80(%r15)
	movq	184(%rsp), %rax
	movq	%rdx, 112(%r15)
	movq	%rax, 136(%r15)
	movups	%xmm0, 120(%r15)
	movq	%r15, 96(%rsp)
	testq	%rbp, %rbp
	je	.L1522
	testb	$3, 4(%r12)
	jne	.L1523
	cmpl	$-1, %r13d
	je	.L1669
	movq	%rcx, 8(%rsp)
	call	__errno_location@PLT
	leaq	68(%rsp), %rdx
	movl	%r13d, %edi
	movl	$21537, %esi
	movl	$0, (%rax)
	movq	%rax, %rbx
	xorl	%eax, %eax
	movl	$1, 68(%rsp)
	call	ioctl@PLT
	movq	_ZGVZN4asio15system_categoryEvE8instance@GOTPCREL(%rip), %rbp
	movl	%eax, %r14d
	movzbl	0(%rbp), %eax
	testb	%al, %al
	movq	8(%rsp), %rcx
	je	.L1528
.L1651:
	movq	_ZZN4asio15system_categoryEvE8instance@GOTPCREL(%rip), %r13
.L1529:
	movl	(%rbx), %eax
	movq	%r13, 32(%r15)
	movl	%eax, 24(%r15)
	testl	%r14d, %r14d
	js	.L1522
	movl	$0, 24(%r15)
	movl	(%r12), %r13d
	movq	%rcx, 32(%r15)
	orb	$2, 4(%r12)
.L1523:
	movq	24(%rsp), %rax
	movq	8(%r12), %rbx
	movq	40(%rax), %rbp
	testq	%rbx, %rbx
	je	.L1670
	addq	$40, %rbx
	movq	%rbx, %rdi
	call	pthread_mutex_lock@PLT
	movq	8(%r12), %rax
	cmpb	$0, 144(%rax)
	jne	.L1671
	cmpq	$0, 112(%rax)
	je	.L1672
.L1559:
	movq	120(%rax), %rdx
	movq	$0, (%r15)
	testq	%rdx, %rdx
	je	.L1572
	movq	%r15, (%rdx)
	movq	%r15, 120(%rax)
.L1573:
	movq	40(%rbp), %rax
	lock addq	$1, 184(%rax)
	movq	%rbx, %rdi
	call	pthread_mutex_unlock@PLT
	jmp	.L1586
.L1669:
	movq	_ZGVZN4asio15system_categoryEvE8instance@GOTPCREL(%rip), %rbx
	movzbl	(%rbx), %eax
	testb	%al, %al
	je	.L1525
	movq	_ZZN4asio15system_categoryEvE8instance@GOTPCREL(%rip), %r13
.L1526:
	movl	$9, 24(%r15)
	movq	%r13, 32(%r15)
	.p2align 4
	.p2align 3
.L1522:
	movq	24(%rsp), %rax
	movq	40(%rax), %rax
	movq	40(%rax), %rbx
	data16	leaq	_ZN4asio6detail15keyword_tss_ptrINS0_10call_stackINS0_15task_io_serviceENS0_27task_io_service_thread_infoEE7contextEE6value_E@tlsgd(%rip), %rdi
	.value	0x6666
	rex64
	call	__tls_get_addr@PLT
	movq	(%rax), %rax
	testq	%rax, %rax
	jne	.L1579
	jmp	.L1576
	.p2align 4
	.p2align 4,,10
	.p2align 3
.L1577:
	movq	16(%rax), %rax
	testq	%rax, %rax
	je	.L1576
.L1579:
	cmpq	(%rax), %rbx
	jne	.L1577
	movq	8(%rax), %rax
	testq	%rax, %rax
	je	.L1576
	movq	16(%rax), %rdx
	addq	$1, 24(%rax)
	movq	$0, (%r15)
	testq	%rdx, %rdx
	je	.L1580
.L1654:
	movq	%r15, (%rdx)
	movq	%r15, 16(%rax)
	jmp	.L1586
	.p2align 4,,10
	.p2align 3
.L1588:
	movq	$0, 16(%rsp)
	xorl	%ebx, %ebx
	xorl	%ebp, %ebp
	jmp	.L1518
	.p2align 4,,10
	.p2align 3
.L1576:
	lock addq	$1, 184(%rbx)
	leaq	48(%rbx), %rbp
	movq	%rbp, %rdi
	call	pthread_mutex_lock@PLT
	movq	200(%rbx), %rax
	movq	$0, (%r15)
	testq	%rax, %rax
	je	.L1581
.L1664:
	movq	%r15, (%rax)
	movq	%r15, 200(%rbx)
.L1582:
	movq	136(%rbx), %rax
	movq	%rax, %rdx
	orq	$1, %rdx
	movq	%rdx, 136(%rbx)
	cmpq	$1, %rax
	jbe	.L1583
	movq	%rbp, %rdi
	call	pthread_mutex_unlock@PLT
	leaq	88(%rbx), %rdi
	call	pthread_cond_signal@PLT
	jmp	.L1586
	.p2align 4,,10
	.p2align 3
.L1583:
	cmpb	$0, 176(%rbx)
	jne	.L1585
	movq	144(%rbx), %rax
	testq	%rax, %rax
	je	.L1585
	movb	$1, 176(%rbx)
	leaq	88(%rax), %rdx
	leaq	68(%rsp), %rcx
	movl	$3, %esi
	movl	$-2147483639, 68(%rsp)
	movq	%rdx, 72(%rsp)
	movl	88(%rax), %edx
	movl	96(%rax), %edi
	call	epoll_ctl@PLT
.L1585:
	movq	%rbp, %rdi
	call	pthread_mutex_unlock@PLT
	jmp	.L1586
	.p2align 4,,10
	.p2align 3
.L1528:
	movq	%rbp, %rdi
	movq	%rcx, 8(%rsp)
	call	__cxa_guard_acquire@PLT
	movq	8(%rsp), %rcx
	testl	%eax, %eax
	je	.L1651
	movq	_ZZN4asio15system_categoryEvE8instance@GOTPCREL(%rip), %r13
	movq	_ZN4asio6detail15system_categoryD1Ev@GOTPCREL(%rip), %rdi
	movq	%rcx, 8(%rsp)
	leaq	__dso_handle(%rip), %rdx
	movq	%r13, %rsi
	call	__cxa_atexit@PLT
	movq	%rbp, %rdi
	call	__cxa_guard_release@PLT
	movq	8(%rsp), %rcx
	jmp	.L1529
	.p2align 4,,10
	.p2align 3
.L1581:
	movdqa	48(%rsp), %xmm4
	movups	%xmm4, 192(%rbx)
	jmp	.L1582
.L1580:
	movdqa	48(%rsp), %xmm5
	movups	%xmm5, 8(%rax)
	jmp	.L1586
.L1672:
	movq	%r15, %rdi
.LEHB40:
	call	*48(%r15)
.LEHE40:
	testb	%al, %al
	jne	.L1673
	movq	8(%r12), %rax
	movl	92(%rax), %edx
	testb	$4, %dl
	jne	.L1559
	orl	$4, %edx
	movq	%rax, 72(%rsp)
	leaq	68(%rsp), %rcx
	movl	$3, %esi
	movl	%edx, 68(%rsp)
	movl	96(%rbp), %edi
	movl	%r13d, %edx
	call	epoll_ctl@PLT
	testl	%eax, %eax
	jne	.L1571
	movq	8(%r12), %rax
	movl	68(%rsp), %edx
	orl	%edx, 92(%rax)
	jmp	.L1559
.L1572:
	movdqa	48(%rsp), %xmm6
	movups	%xmm6, 112(%rax)
	jmp	.L1573
.L1670:
	movq	_ZGVZN4asio15system_categoryEvE8instance@GOTPCREL(%rip), %rbx
	movzbl	(%rbx), %eax
	testb	%al, %al
	je	.L1533
	movq	_ZZN4asio15system_categoryEvE8instance@GOTPCREL(%rip), %r13
.L1534:
	movl	$9, 24(%r15)
	movq	40(%rbp), %rbx
	movq	%r13, 32(%r15)
	data16	leaq	_ZN4asio6detail15keyword_tss_ptrINS0_10call_stackINS0_15task_io_serviceENS0_27task_io_service_thread_infoEE7contextEE6value_E@tlsgd(%rip), %rdi
	.value	0x6666
	rex64
	call	__tls_get_addr@PLT
	movq	(%rax), %rax
	testq	%rax, %rax
	jne	.L1539
	jmp	.L1561
	.p2align 4
	.p2align 4,,10
	.p2align 3
.L1537:
	movq	16(%rax), %rax
	testq	%rax, %rax
	je	.L1561
.L1539:
	cmpq	(%rax), %rbx
	jne	.L1537
.L1666:
	movq	8(%rax), %rax
	testq	%rax, %rax
	je	.L1561
	addq	$1, 24(%rax)
	movq	$0, (%r15)
	movq	16(%rax), %rdx
	testq	%rdx, %rdx
	jne	.L1654
	movdqa	48(%rsp), %xmm7
	movups	%xmm7, 8(%rax)
	jmp	.L1586
.L1671:
	data16	leaq	_ZN4asio6detail15keyword_tss_ptrINS0_10call_stackINS0_15task_io_serviceENS0_27task_io_service_thread_infoEE7contextEE6value_E@tlsgd(%rip), %rdi
	.value	0x6666
	rex64
	call	__tls_get_addr@PLT
	movq	40(%rbp), %rbp
	movq	(%rax), %rax
	testq	%rax, %rax
	jne	.L1551
	jmp	.L1548
	.p2align 4
	.p2align 4,,10
	.p2align 3
.L1549:
	movq	16(%rax), %rax
	testq	%rax, %rax
	je	.L1548
.L1551:
	cmpq	(%rax), %rbp
	jne	.L1549
	movq	8(%rax), %rax
	testq	%rax, %rax
	je	.L1548
	movq	16(%rax), %rdx
	addq	$1, 24(%rax)
	movq	$0, (%r15)
	testq	%rdx, %rdx
	je	.L1552
	movq	%r15, (%rdx)
	movq	%r15, 16(%rax)
.L1553:
	movq	%rbx, %rdi
	call	pthread_mutex_unlock@PLT
	jmp	.L1586
.L1561:
	lock addq	$1, 184(%rbx)
	leaq	48(%rbx), %rbp
	movq	%rbp, %rdi
	call	pthread_mutex_lock@PLT
	movq	$0, (%r15)
	movq	200(%rbx), %rax
	testq	%rax, %rax
	jne	.L1664
	movdqa	48(%rsp), %xmm7
	movups	%xmm7, 192(%rbx)
	jmp	.L1582
.L1548:
	lock addq	$1, 184(%rbp)
	leaq	48(%rbp), %r12
	movq	%r12, %rdi
	call	pthread_mutex_lock@PLT
	movq	200(%rbp), %rax
	movq	$0, (%r15)
	testq	%rax, %rax
	je	.L1554
	movq	%r15, (%rax)
	movq	%r15, 200(%rbp)
.L1555:
	movq	136(%rbp), %rax
	movq	%rax, %rdx
	orq	$1, %rdx
	movq	%rdx, 136(%rbp)
	cmpq	$1, %rax
	jbe	.L1556
	movq	%r12, %rdi
	call	pthread_mutex_unlock@PLT
	leaq	88(%rbp), %rdi
	call	pthread_cond_signal@PLT
	jmp	.L1553
.L1533:
	movq	%rbx, %rdi
	call	__cxa_guard_acquire@PLT
	movq	_ZZN4asio15system_categoryEvE8instance@GOTPCREL(%rip), %r13
	testl	%eax, %eax
	je	.L1534
	movq	_ZN4asio6detail15system_categoryD1Ev@GOTPCREL(%rip), %rdi
	leaq	__dso_handle(%rip), %rdx
	movq	%r13, %rsi
	call	__cxa_atexit@PLT
	movq	%rbx, %rdi
	call	__cxa_guard_release@PLT
	jmp	.L1534
.L1556:
	cmpb	$0, 176(%rbp)
	jne	.L1558
	movq	144(%rbp), %rax
	testq	%rax, %rax
	je	.L1558
	movb	$1, 176(%rbp)
	leaq	88(%rax), %rdx
	leaq	68(%rsp), %rcx
	movl	$3, %esi
	movq	%rdx, 72(%rsp)
	movl	88(%rax), %edx
	movl	$-2147483639, 68(%rsp)
	movl	96(%rax), %edi
	call	epoll_ctl@PLT
.L1558:
	movq	%r12, %rdi
	call	pthread_mutex_unlock@PLT
	jmp	.L1553
.L1525:
	movq	%rbx, %rdi
	call	__cxa_guard_acquire@PLT
	movq	_ZZN4asio15system_categoryEvE8instance@GOTPCREL(%rip), %r13
	testl	%eax, %eax
	je	.L1526
	movq	_ZN4asio6detail15system_categoryD1Ev@GOTPCREL(%rip), %rdi
	leaq	__dso_handle(%rip), %rdx
	movq	%r13, %rsi
	call	__cxa_atexit@PLT
	movq	%rbx, %rdi
	call	__cxa_guard_release@PLT
	jmp	.L1526
.L1673:
	movq	%rbx, %rdi
	call	pthread_mutex_unlock@PLT
	movq	40(%rbp), %rbx
	data16	leaq	_ZN4asio6detail15keyword_tss_ptrINS0_10call_stackINS0_15task_io_serviceENS0_27task_io_service_thread_infoEE7contextEE6value_E@tlsgd(%rip), %rdi
	.value	0x6666
	rex64
	call	__tls_get_addr@PLT
	movq	(%rax), %rax
	testq	%rax, %rax
	jne	.L1564
	jmp	.L1561
	.p2align 4
	.p2align 4,,10
	.p2align 3
.L1562:
	movq	16(%rax), %rax
	testq	%rax, %rax
	je	.L1561
.L1564:
	cmpq	(%rax), %rbx
	jne	.L1562
	jmp	.L1666
.L1554:
	movdqa	48(%rsp), %xmm7
	movups	%xmm7, 192(%rbp)
	jmp	.L1555
.L1552:
	movdqa	48(%rsp), %xmm7
	movups	%xmm7, 8(%rax)
	jmp	.L1553
.L1571:
	call	_ZN4asio15system_categoryEv@PLT
	movq	%rax, %r12
	call	__errno_location@PLT
	movq	40(%rbp), %rdi
	movl	$1, %edx
	movq	%r15, %rsi
	movl	(%rax), %eax
	movq	%r12, 32(%r15)
	movl	%eax, 24(%r15)
	call	_ZN4asio6detail15task_io_service25post_immediate_completionEPNS0_25task_io_service_operationEb@PLT
	jmp	.L1553
.L1590:
	movq	%rax, %rbp
	jmp	.L1574
.L1589:
	movq	%rax, %rdi
	jmp	.L1575
	.section	.gcc_except_table
.LLSDA9368:
	.byte	0xff
	.byte	0xff
	.byte	0x1
	.uleb128 .LLSDACSE9368-.LLSDACSB9368
.LLSDACSB9368:
	.uleb128 .LEHB39-.LFB9368
	.uleb128 .LEHE39-.LEHB39
	.uleb128 .L1589-.LFB9368
	.uleb128 0
	.uleb128 .LEHB40-.LFB9368
	.uleb128 .LEHE40-.LEHB40
	.uleb128 .L1590-.LFB9368
	.uleb128 0
.LLSDACSE9368:
	.text
	.cfi_endproc
	.section	.text.unlikely
	.cfi_startproc
	.cfi_personality 0x9b,DW.ref.__gxx_personality_v0
	.cfi_lsda 0x1b,.LLSDAC9368
	.type	_ZN4asio6detail18completion_handlerINS0_17rewrapped_handlerINS0_7binder2INS0_8write_opINS_17basic_serial_portINS_19serial_port_serviceEEENS_15const_buffers_1ENS0_14transfer_all_tENS0_15wrapped_handlerINS_10io_service6strandEZN7asiopal13SerialChannel14BeginWriteImplERKN7openpal6RSliceEEUlRKSt10error_codemE_NS0_26is_continuation_if_runningEEEEESJ_mEESM_EEE11do_completeEPNS0_15task_io_serviceEPNS0_25task_io_service_operationESL_m.cold, @function
_ZN4asio6detail18completion_handlerINS0_17rewrapped_handlerINS0_7binder2INS0_8write_opINS_17basic_serial_portINS_19serial_port_serviceEEENS_15const_buffers_1ENS0_14transfer_all_tENS0_15wrapped_handlerINS_10io_service6strandEZN7asiopal13SerialChannel14BeginWriteImplERKN7openpal6RSliceEEUlRKSt10error_codemE_NS0_26is_continuation_if_runningEEEEESJ_mEESM_EEE11do_completeEPNS0_15task_io_serviceEPNS0_25task_io_service_operationESL_m.cold:
.LFSB9368:
.L1574:
	.cfi_def_cfa_offset 368
	.cfi_offset 3, -56
	.cfi_offset 6, -48
	.cfi_offset 12, -40
	.cfi_offset 13, -32
	.cfi_offset 14, -24
	.cfi_offset 15, -16
	movq	%rbx, %rdi
	call	pthread_mutex_unlock@PLT
	leaq	80(%rsp), %rdi
	call	_ZN4asio6detail19descriptor_write_opINS_15const_buffers_1ENS0_8write_opINS_17basic_serial_portINS_19serial_port_serviceEEES2_NS0_14transfer_all_tENS0_15wrapped_handlerINS_10io_service6strandEZN7asiopal13SerialChannel14BeginWriteImplERKN7openpal6RSliceEEUlRKSt10error_codemE_NS0_26is_continuation_if_runningEEEEEE3ptr5resetEv
	movq	%rbp, %rdi
.L1575:
	sfence
.LEHB41:
	call	_Unwind_Resume@PLT
.LEHE41:
	.cfi_endproc
.LFE9368:
	.section	.gcc_except_table
.LLSDAC9368:
	.byte	0xff
	.byte	0xff
	.byte	0x1
	.uleb128 .LLSDACSEC9368-.LLSDACSBC9368
.LLSDACSBC9368:
	.uleb128 .LEHB41-.LCOLDB42
	.uleb128 .LEHE41-.LEHB41
	.uleb128 0
	.uleb128 0
.LLSDACSEC9368:
	.section	.text.unlikely
	.text
	.size	_ZN4asio6detail18completion_handlerINS0_17rewrapped_handlerINS0_7binder2INS0_8write_opINS_17basic_serial_portINS_19serial_port_serviceEEENS_15const_buffers_1ENS0_14transfer_all_tENS0_15wrapped_handlerINS_10io_service6strandEZN7asiopal13SerialChannel14BeginWriteImplERKN7openpal6RSliceEEUlRKSt10error_codemE_NS0_26is_continuation_if_runningEEEEESJ_mEESM_EEE11do_completeEPNS0_15task_io_serviceEPNS0_25task_io_service_operationESL_m, .-_ZN4asio6detail18completion_handlerINS0_17rewrapped_handlerINS0_7binder2INS0_8write_opINS_17basic_serial_portINS_19serial_port_serviceEEENS_15const_buffers_1ENS0_14transfer_all_tENS0_15wrapped_handlerINS_10io_service6strandEZN7asiopal13SerialChannel14BeginWriteImplERKN7openpal6RSliceEEUlRKSt10error_codemE_NS0_26is_continuation_if_runningEEEEESJ_mEESM_EEE11do_completeEPNS0_15task_io_serviceEPNS0_25task_io_service_operationESL_m
	.section	.text.unlikely
	.size	_ZN4asio6detail18completion_handlerINS0_17rewrapped_handlerINS0_7binder2INS0_8write_opINS_17basic_serial_portINS_19serial_port_serviceEEENS_15const_buffers_1ENS0_14transfer_all_tENS0_15wrapped_handlerINS_10io_service6strandEZN7asiopal13SerialChannel14BeginWriteImplERKN7openpal6RSliceEEUlRKSt10error_codemE_NS0_26is_continuation_if_runningEEEEESJ_mEESM_EEE11do_completeEPNS0_15task_io_serviceEPNS0_25task_io_service_operationESL_m.cold, .-_ZN4asio6detail18completion_handlerINS0_17rewrapped_handlerINS0_7binder2INS0_8write_opINS_17basic_serial_portINS_19serial_port_serviceEEENS_15const_buffers_1ENS0_14transfer_all_tENS0_15wrapped_handlerINS_10io_service6strandEZN7asiopal13SerialChannel14BeginWriteImplERKN7openpal6RSliceEEUlRKSt10error_codemE_NS0_26is_continuation_if_runningEEEEESJ_mEESM_EEE11do_completeEPNS0_15task_io_serviceEPNS0_25task_io_service_operationESL_m.cold
.LCOLDE42:
	.text
.LHOTE42:
	.section	.text.unlikely
.LCOLDB43:
	.text
.LHOTB43:
	.p2align 4
	.type	_ZN4asio6detail19descriptor_write_opINS_15const_buffers_1ENS0_8write_opINS_17basic_serial_portINS_19serial_port_serviceEEES2_NS0_14transfer_all_tENS0_15wrapped_handlerINS_10io_service6strandEZN7asiopal13SerialChannel14BeginWriteImplERKN7openpal6RSliceEEUlRKSt10error_codemE_NS0_26is_continuation_if_runningEEEEEE11do_completeEPNS0_15task_io_serviceEPNS0_25task_io_service_operationESJ_m, @function
_ZN4asio6detail19descriptor_write_opINS_15const_buffers_1ENS0_8write_opINS_17basic_serial_portINS_19serial_port_serviceEEES2_NS0_14transfer_all_tENS0_15wrapped_handlerINS_10io_service6strandEZN7asiopal13SerialChannel14BeginWriteImplERKN7openpal6RSliceEEUlRKSt10error_codemE_NS0_26is_continuation_if_runningEEEEEE11do_completeEPNS0_15task_io_serviceEPNS0_25task_io_service_operationESJ_m:
.LFB9244:
	.cfi_startproc
	.cfi_personality 0x9b,DW.ref.__gxx_personality_v0
	.cfi_lsda 0x1b,.LLSDA9244
	pushq	%r15
	.cfi_def_cfa_offset 16
	.cfi_offset 15, -16
	pushq	%r14
	.cfi_def_cfa_offset 24
	.cfi_offset 14, -24
	pushq	%r13
	.cfi_def_cfa_offset 32
	.cfi_offset 13, -32
	pushq	%r12
	.cfi_def_cfa_offset 40
	.cfi_offset 12, -40
	pushq	%rbp
	.cfi_def_cfa_offset 48
	.cfi_offset 6, -48
	movq	%rdi, %rbp
	pushq	%rbx
	.cfi_def_cfa_offset 56
	.cfi_offset 3, -56
	movq	%rsi, %rbx
	subq	$568, %rsp
	.cfi_def_cfa_offset 624
	movq	80(%rsi), %rax
	movdqu	88(%rsi), %xmm0
	movq	%rax, 256(%rsp)
	movl	104(%rsi), %eax
	movups	%xmm0, 264(%rsp)
	movdqu	120(%rsi), %xmm0
	movl	%eax, 280(%rsp)
	movq	112(%rsi), %rax
	movups	%xmm0, 296(%rsp)
	movdqu	24(%rsi), %xmm0
	movq	%rax, 288(%rsp)
	movq	136(%rsi), %rax
	movaps	%xmm0, 320(%rsp)
	movq	%rax, 312(%rsp)
	movq	40(%rsi), %rax
	movq	%rax, 336(%rsp)
	leaq	256(%rsp), %rax
	movq	%rax, 96(%rsp)
	data16	leaq	_ZN4asio6detail15keyword_tss_ptrINS0_10call_stackINS0_15task_io_serviceENS0_27task_io_service_thread_infoEE7contextEE6value_E@tlsgd(%rip), %rdi
	.value	0x6666
	rex64
	call	__tls_get_addr@PLT
	movq	(%rax), %rax
	testq	%rax, %rax
	je	.L1675
	movq	8(%rax), %rax
	testq	%rax, %rax
	je	.L1675
	cmpq	$0, (%rax)
	je	.L1888
.L1675:
	movq	%rbx, %rdi
	call	_ZdlPv@PLT
.L1676:
	testq	%rbp, %rbp
	je	.L1674
	movq	256(%rsp), %rax
	movq	312(%rsp), %r15
	movl	280(%rsp), %r12d
	movq	288(%rsp), %rbx
	movdqu	264(%rsp), %xmm0
	movq	%rax, 48(%rsp)
	movq	%rax, 456(%rsp)
	movq	336(%rsp), %rbp
	movdqu	296(%rsp), %xmm1
	movaps	%xmm0, 368(%rsp)
	movq	376(%rsp), %rax
	movq	%xmm0, 16(%rsp)
	movdqa	320(%rsp), %xmm0
	movq	%rax, (%rsp)
	movups	%xmm0, 424(%rsp)
	movq	432(%rsp), %rax
	movd	%xmm0, %r13d
	movq	%r15, 352(%rsp)
	movq	%r15, 416(%rsp)
	movq	%r15, 448(%rsp)
	movl	%r12d, 480(%rsp)
	movq	%rbx, 488(%rsp)
	movq	%rax, 40(%rsp)
	movq	%rbp, 536(%rsp)
	movq	%xmm1, 32(%rsp)
	movaps	%xmm1, 400(%rsp)
	movaps	%xmm1, 496(%rsp)
	movups	%xmm0, 520(%rsp)
	data16	leaq	_ZN4asio6detail15keyword_tss_ptrINS0_10call_stackINS0_14strand_service11strand_implEhE7contextEE6value_E@tlsgd(%rip), %rdi
	.value	0x6666
	rex64
	call	__tls_get_addr@PLT
	movq	(%rax), %rax
	testq	%rax, %rax
	je	.L1678
	movq	304(%rsp), %rdx
	jmp	.L1681
	.p2align 4
	.p2align 4,,10
	.p2align 3
.L1679:
	movq	16(%rax), %rax
	testq	%rax, %rax
	je	.L1678
.L1681:
	cmpq	(%rax), %rdx
	jne	.L1679
	cmpq	$0, 8(%rax)
	je	.L1678
	lfence
	addq	%rbp, %rbx
	movl	$0, 480(%rsp)
	movq	%rbx, 488(%rsp)
	testl	%r13d, %r13d
	jne	.L1682
	testq	%rbp, %rbp
	je	.L1682
	cmpq	(%rsp), %rbx
	je	.L1682
	movq	(%rsp), %rax
	movq	48(%rsp), %xmm0
	movhps	16(%rsp), %xmm0
	cmpq	%rbx, %rax
	jb	.L1788
	movq	16(%rsp), %rcx
	subq	%rbx, %rax
	movl	$65536, %ebp
	movq	%rax, %r12
	addq	%rbx, %rcx
	cmpq	%rbp, %rax
	movq	%rcx, 40(%rsp)
	cmovbe	%rax, %rbp
.L1684:
	movq	48(%rsp), %r14
	movq	16(%r14), %rax
	movaps	%xmm0, 176(%rsp)
	movl	$0, 200(%rsp)
	movq	%rax, 56(%rsp)
	movq	(%rsp), %rax
	movq	%rbx, 208(%rsp)
	movq	%rax, 192(%rsp)
	movq	32(%rsp), %rax
	movq	%r15, 232(%rsp)
	movq	%rax, 496(%rsp)
	leaq	176(%rsp), %rax
	movdqa	496(%rsp), %xmm0
	movq	%rax, 128(%rsp)
	movups	%xmm0, 216(%rsp)
	pxor	%xmm0, %xmm0
	movups	%xmm0, 136(%rsp)
	data16	leaq	_ZN4asio6detail15keyword_tss_ptrINS0_10call_stackINS0_15task_io_serviceENS0_27task_io_service_thread_infoEE7contextEE6value_E@tlsgd(%rip), %rdi
	.value	0x6666
	rex64
	call	__tls_get_addr@PLT
	movq	(%rax), %rax
	testq	%rax, %rax
	je	.L1685
	movq	8(%rax), %rax
	testq	%rax, %rax
	je	.L1685
	movq	(%rax), %r15
	testq	%r15, %r15
	je	.L1685
	movq	$0, (%rax)
	movzbl	(%r15), %eax
	cmpb	$-113, %al
	jbe	.L1686
	movb	%al, 144(%r15)
	xorl	%r13d, %r13d
	movq	%r14, (%rsp)
.L1687:
	movq	48(%rsp), %rax
	leaq	_ZN4asio6detail19descriptor_write_opINS_15const_buffers_1ENS0_8write_opINS_17basic_serial_portINS_19serial_port_serviceEEES2_NS0_14transfer_all_tENS0_15wrapped_handlerINS_10io_service6strandEZN7asiopal13SerialChannel14BeginWriteImplERKN7openpal6RSliceEEUlRKSt10error_codemE_NS0_26is_continuation_if_runningEEEEEE11do_completeEPNS0_15task_io_serviceEPNS0_25task_io_service_operationESJ_m(%rip), %rsi
	movq	%r15, %xmm6
	movq	%r15, 136(%rsp)
	punpcklqdq	%xmm6, %xmm6
	movl	(%rax), %r14d
	movq	%rsi, 8(%r15)
	movq	$0, (%r15)
	movl	$0, 16(%r15)
	movl	$0, 24(%r15)
	movaps	%xmm6, 16(%rsp)
	call	_ZNSt3_V215system_categoryEv@PLT
	movq	40(%rsp), %rsi
	movl	%r14d, 56(%r15)
	movdqu	184(%rsp), %xmm0
	movq	%rax, 32(%r15)
	movq	%rax, %rcx
	movq	_ZN4asio6detail24descriptor_write_op_baseINS_15const_buffers_1EE10do_performEPNS0_10reactor_opE@GOTPCREL(%rip), %rax
	movq	%rsi, 64(%r15)
	movups	%xmm0, 88(%r15)
	movq	(%rsp), %rsi
	movdqu	216(%rsp), %xmm0
	movq	%rax, 48(%r15)
	movq	232(%rsp), %rax
	movq	$0, 40(%r15)
	movq	%rbp, 72(%r15)
	movq	%rsi, 80(%r15)
	movl	%r13d, 104(%r15)
	movq	%rbx, 112(%r15)
	movq	%rax, 136(%r15)
	movups	%xmm0, 120(%r15)
	movq	%r15, 144(%rsp)
	testq	%r12, %r12
	je	.L1688
	movq	48(%rsp), %rax
	testb	$3, 4(%rax)
	jne	.L1689
	cmpl	$-1, %r14d
	je	.L1889
	movq	%rcx, (%rsp)
	call	__errno_location@PLT
	leaq	80(%rsp), %rdx
	movl	%r14d, %edi
	movl	$21537, %esi
	movl	$0, (%rax)
	movq	%rax, %rbp
	xorl	%eax, %eax
	movl	$1, 80(%rsp)
	call	ioctl@PLT
	movq	_ZGVZN4asio15system_categoryEvE8instance@GOTPCREL(%rip), %r12
	movl	%eax, %r13d
	movzbl	(%r12), %eax
	testb	%al, %al
	movq	(%rsp), %rcx
	je	.L1694
.L1879:
	movq	_ZZN4asio15system_categoryEvE8instance@GOTPCREL(%rip), %r14
.L1695:
	movl	0(%rbp), %eax
	movq	%r14, 32(%r15)
	movl	%eax, 24(%r15)
	testl	%r13d, %r13d
	jns	.L1890
.L1688:
	movq	56(%rsp), %rax
	movq	40(%rax), %rax
	movq	40(%rax), %rbx
	data16	leaq	_ZN4asio6detail15keyword_tss_ptrINS0_10call_stackINS0_15task_io_serviceENS0_27task_io_service_thread_infoEE7contextEE6value_E@tlsgd(%rip), %rdi
	.value	0x6666
	rex64
	call	__tls_get_addr@PLT
	movq	(%rax), %rax
	testq	%rax, %rax
	jne	.L1735
	jmp	.L1732
	.p2align 4
	.p2align 4,,10
	.p2align 3
.L1733:
	movq	16(%rax), %rax
	testq	%rax, %rax
	je	.L1732
.L1735:
	cmpq	(%rax), %rbx
	jne	.L1733
	movq	8(%rax), %rax
	testq	%rax, %rax
	je	.L1732
	movq	16(%rax), %rdx
	addq	$1, 24(%rax)
	movq	$0, (%r15)
	testq	%rdx, %rdx
	je	.L1736
.L1880:
	movq	%r15, (%rdx)
	movq	%r15, 16(%rax)
	jmp	.L1742
	.p2align 4,,10
	.p2align 3
.L1682:
	movq	16(%rsp), %rcx
	movq	40(%rsp), %rax
	leaq	128(%rsp), %rdx
	leaq	504(%rsp), %rsi
	movq	32(%rsp), %rdi
	movq	%r15, 128(%rsp)
	movq	%rcx, 464(%rsp)
	movq	(%rsp), %rcx
	movl	%r13d, 136(%rsp)
	movq	%rax, 144(%rsp)
	movq	%rbx, 152(%rsp)
	movq	%rcx, 472(%rsp)
	movq	%rdi, 496(%rsp)
	movq	%r15, 512(%rsp)
	movl	%r13d, 520(%rsp)
	movq	%rax, 528(%rsp)
.LEHB42:
	call	_ZN4asio6detail14strand_service8dispatchINS0_7binder2IZN7asiopal13SerialChannel14BeginWriteImplERKN7openpal6RSliceEEUlRKSt10error_codemE_SA_mEEEEvRPNS1_11strand_implERT_.constprop.0
.LEHE42:
.L1742:
	sfence
.L1744:
	sfence
.L1674:
	addq	$568, %rsp
	.cfi_remember_state
	.cfi_def_cfa_offset 56
	popq	%rbx
	.cfi_def_cfa_offset 48
	popq	%rbp
	.cfi_def_cfa_offset 40
	popq	%r12
	.cfi_def_cfa_offset 32
	popq	%r13
	.cfi_def_cfa_offset 24
	popq	%r14
	.cfi_def_cfa_offset 16
	popq	%r15
	.cfi_def_cfa_offset 8
	ret
	.p2align 4,,10
	.p2align 3
.L1678:
	.cfi_restore_state
	movq	296(%rsp), %rax
	movq	%rax, 56(%rsp)
	data16	leaq	_ZN4asio6detail15keyword_tss_ptrINS0_10call_stackINS0_15task_io_serviceENS0_27task_io_service_thread_infoEE7contextEE6value_E@tlsgd(%rip), %rdi
	.value	0x6666
	rex64
	call	__tls_get_addr@PLT
	movq	(%rax), %rax
	testq	%rax, %rax
	je	.L1745
	movq	8(%rax), %rax
	testq	%rax, %rax
	je	.L1745
	movq	(%rax), %r14
	testq	%r14, %r14
	je	.L1745
	movq	$0, (%rax)
	movzbl	(%r14), %eax
	cmpb	$119, %al
	jbe	.L1746
	movb	%al, 120(%r14)
	jmp	.L1747
	.p2align 4,,10
	.p2align 3
.L1746:
	movq	%r14, %rdi
	call	_ZdlPv@PLT
.L1745:
	movl	$121, %edi
.LEHB43:
	call	_Znwm@PLT
.LEHE43:
	movb	$120, 120(%rax)
	movq	%rax, %r14
.L1747:
	leaq	_ZN4asio6detail18completion_handlerINS0_17rewrapped_handlerINS0_7binder2INS0_8write_opINS_17basic_serial_portINS_19serial_port_serviceEEENS_15const_buffers_1ENS0_14transfer_all_tENS0_15wrapped_handlerINS_10io_service6strandEZN7asiopal13SerialChannel14BeginWriteImplERKN7openpal6RSliceEEUlRKSt10error_codemE_NS0_26is_continuation_if_runningEEEEESJ_mEESM_EEE11do_completeEPNS0_15task_io_serviceEPNS0_25task_io_service_operationESL_m(%rip), %rax
	movq	48(%rsp), %xmm0
	movhps	16(%rsp), %xmm0
	movups	%xmm0, 32(%r14)
	movq	%rax, 8(%r14)
	movq	448(%rsp), %rax
	movq	%r14, %xmm2
	movl	%r13d, 520(%rsp)
	punpcklqdq	%xmm2, %xmm2
	movq	%rax, 24(%r14)
	movq	(%rsp), %rax
	movq	$0, (%r14)
	movq	%rax, 48(%r14)
	movq	32(%rsp), %rax
	movl	$0, 16(%r14)
	movq	%rax, 496(%rsp)
	movq	40(%rsp), %rax
	movdqa	496(%rsp), %xmm0
	movl	%r12d, 56(%r14)
	movq	%rax, 528(%rsp)
	movups	%xmm0, 72(%r14)
	movdqu	520(%rsp), %xmm0
	movq	%rbx, 64(%r14)
	movq	%r15, 88(%r14)
	movq	%rbp, 112(%r14)
	movups	%xmm0, 96(%r14)
	movaps	%xmm2, 64(%rsp)
	data16	leaq	_ZN4asio6detail15keyword_tss_ptrINS0_10call_stackINS0_15task_io_serviceENS0_27task_io_service_thread_infoEE7contextEE6value_E@tlsgd(%rip), %rdi
	.value	0x6666
	rex64
	call	__tls_get_addr@PLT
	movq	304(%rsp), %rdi
	movq	(%rax), %rax
	testq	%rax, %rax
	je	.L1876
	movq	56(%rsp), %rcx
	movq	40(%rcx), %rdx
	jmp	.L1752
	.p2align 4
	.p2align 4,,10
	.p2align 3
.L1749:
	movq	16(%rax), %rax
	testq	%rax, %rax
	je	.L1876
.L1752:
	cmpq	(%rax), %rdx
	jne	.L1749
	movq	8(%rax), %rbx
	addq	$24, %rdi
	call	pthread_mutex_lock@PLT
	testq	%rbx, %rbx
	je	.L1751
	movq	304(%rsp), %rdi
	cmpb	$0, 64(%rdi)
	je	.L1891
.L1754:
	movq	80(%rdi), %rax
	movq	$0, (%r14)
	testq	%rax, %rax
	je	.L1757
	movq	%r14, (%rax)
	movq	%r14, 80(%rdi)
.L1758:
	addq	$24, %rdi
	call	pthread_mutex_unlock@PLT
	jmp	.L1744
	.p2align 4,,10
	.p2align 3
.L1891:
	movb	$1, 64(%rdi)
	addq	$24, %rdi
	call	pthread_mutex_unlock@PLT
	movq	304(%rsp), %rbx
	movq	%rbx, 176(%rsp)
	data16	leaq	_ZN4asio6detail15keyword_tss_ptrINS0_10call_stackINS0_14strand_service11strand_implEhE7contextEE6value_E@tlsgd(%rip), %rdi
	.value	0x6666
	rex64
	call	__tls_get_addr@PLT
	movq	%rbx, %xmm5
	xorl	%ecx, %ecx
	movq	%r14, %rsi
	movq	(%rax), %rdx
	movq	%rdx, 192(%rsp)
	leaq	176(%rsp), %rdx
	movq	%rdx, (%rax)
	movq	56(%rsp), %rax
	movq	%rdx, 184(%rsp)
	leaq	128(%rsp), %rdx
	movq	40(%rax), %rbp
	movq	%rbp, %xmm0
	movq	%rbp, %rdi
	punpcklqdq	%xmm5, %xmm0
	movaps	%xmm0, 80(%rsp)
.LEHB44:
	call	_ZN4asio6detail18completion_handlerINS0_17rewrapped_handlerINS0_7binder2INS0_8write_opINS_17basic_serial_portINS_19serial_port_serviceEEENS_15const_buffers_1ENS0_14transfer_all_tENS0_15wrapped_handlerINS_10io_service6strandEZN7asiopal13SerialChannel14BeginWriteImplERKN7openpal6RSliceEEUlRKSt10error_codemE_NS0_26is_continuation_if_runningEEEEESJ_mEESM_EEE11do_completeEPNS0_15task_io_serviceEPNS0_25task_io_service_operationESL_m
.LEHE44:
	leaq	24(%rbx), %r14
	movq	%r14, %rdi
	call	pthread_mutex_lock@PLT
	movq	72(%rbx), %r12
	testq	%r12, %r12
	je	.L1892
	movq	96(%rbx), %rax
	testq	%rax, %rax
	je	.L1773
	movq	%r12, (%rax)
	movq	88(%rbx), %r12
.L1774:
	movq	80(%rbx), %rax
	pxor	%xmm0, %xmm0
	movups	%xmm0, 72(%rbx)
	movq	%rax, 96(%rbx)
.L1772:
	testq	%r12, %r12
	movq	%r14, %rdi
	setne	64(%rbx)
	call	pthread_mutex_unlock@PLT
	testq	%r12, %r12
	je	.L1775
	movq	%rbx, %xmm4
	punpcklqdq	%xmm4, %xmm4
	movaps	%xmm4, (%rsp)
	cmpb	$0, 40(%rbp)
	je	.L1776
	data16	leaq	_ZN4asio6detail15keyword_tss_ptrINS0_10call_stackINS0_15task_io_serviceENS0_27task_io_service_thread_infoEE7contextEE6value_E@tlsgd(%rip), %rdi
	.value	0x6666
	rex64
	call	__tls_get_addr@PLT
	movq	(%rax), %rax
	testq	%rax, %rax
	jne	.L1779
	jmp	.L1776
	.p2align 4
	.p2align 4,,10
	.p2align 3
.L1777:
	movq	16(%rax), %rax
	testq	%rax, %rax
	je	.L1776
.L1779:
	cmpq	(%rax), %rbp
	jne	.L1777
	movq	8(%rax), %rax
	testq	%rax, %rax
	je	.L1776
	movq	16(%rax), %rdx
	addq	$1, 24(%rax)
	movq	$0, (%rbx)
	testq	%rdx, %rdx
	je	.L1780
	movq	%rbx, (%rdx)
	movq	%rbx, 16(%rax)
	.p2align 4
	.p2align 3
.L1775:
	data16	leaq	_ZN4asio6detail15keyword_tss_ptrINS0_10call_stackINS0_14strand_service11strand_implEhE7contextEE6value_E@tlsgd(%rip), %rdi
	.value	0x6666
	rex64
	call	__tls_get_addr@PLT
	movq	192(%rsp), %rdx
	movq	%rdx, (%rax)
	jmp	.L1744
	.p2align 4,,10
	.p2align 3
.L1888:
	movzbl	144(%rbx), %edx
	movb	%dl, (%rbx)
	movq	%rbx, (%rax)
	jmp	.L1676
	.p2align 4,,10
	.p2align 3
.L1757:
	movdqa	64(%rsp), %xmm7
	movups	%xmm7, 72(%rdi)
	jmp	.L1758
	.p2align 4,,10
	.p2align 3
.L1892:
	movq	88(%rbx), %r12
	jmp	.L1772
	.p2align 4,,10
	.p2align 3
.L1876:
	addq	$24, %rdi
	call	pthread_mutex_lock@PLT
.L1751:
	movq	304(%rsp), %rdi
	cmpb	$0, 64(%rdi)
	jne	.L1754
	movb	$1, 64(%rdi)
	addq	$24, %rdi
	call	pthread_mutex_unlock@PLT
	movq	304(%rsp), %rbp
	movq	$0, (%r14)
	movq	%rbp, %xmm3
	movq	96(%rbp), %rax
	punpcklqdq	%xmm3, %xmm3
	movaps	%xmm3, (%rsp)
	testq	%rax, %rax
	je	.L1759
	movq	%r14, (%rax)
	movq	%r14, 96(%rbp)
.L1760:
	movq	56(%rsp), %rax
	movq	40(%rax), %rbx
	cmpb	$0, 40(%rbx)
	je	.L1761
	data16	leaq	_ZN4asio6detail15keyword_tss_ptrINS0_10call_stackINS0_15task_io_serviceENS0_27task_io_service_thread_infoEE7contextEE6value_E@tlsgd(%rip), %rdi
	.value	0x6666
	rex64
	call	__tls_get_addr@PLT
	movq	(%rax), %rax
	testq	%rax, %rax
	jne	.L1764
	jmp	.L1761
	.p2align 4
	.p2align 4,,10
	.p2align 3
.L1762:
	movq	16(%rax), %rax
	testq	%rax, %rax
	je	.L1761
.L1764:
	cmpq	(%rax), %rbx
	jne	.L1762
	movq	8(%rax), %rax
	testq	%rax, %rax
	je	.L1761
	movq	16(%rax), %rdx
	addq	$1, 24(%rax)
	movq	$0, 0(%rbp)
	testq	%rdx, %rdx
	je	.L1765
	movq	%rbp, (%rdx)
	movq	%rbp, 16(%rax)
	jmp	.L1744
	.p2align 4,,10
	.p2align 3
.L1761:
	lock addq	$1, 184(%rbx)
	leaq	48(%rbx), %r12
	movq	%r12, %rdi
	call	pthread_mutex_lock@PLT
	movq	200(%rbx), %rax
	movq	$0, 0(%rbp)
	testq	%rax, %rax
	je	.L1766
	movq	%rbp, (%rax)
	movq	%rbp, 200(%rbx)
.L1767:
	movq	136(%rbx), %rax
	movq	%rax, %rdx
	orq	$1, %rdx
	movq	%rdx, 136(%rbx)
	cmpq	$1, %rax
	ja	.L1893
	cmpb	$0, 176(%rbx)
	jne	.L1770
	movq	144(%rbx), %rax
	testq	%rax, %rax
	je	.L1770
	movb	$1, 176(%rbx)
	leaq	88(%rax), %rdx
	movl	$3, %esi
	leaq	176(%rsp), %rcx
	movq	%rdx, 180(%rsp)
	movl	88(%rax), %edx
	movl	$-2147483639, 176(%rsp)
	movl	96(%rax), %edi
	call	epoll_ctl@PLT
.L1770:
	movq	%r12, %rdi
	call	pthread_mutex_unlock@PLT
	jmp	.L1744
	.p2align 4,,10
	.p2align 3
.L1776:
	lock addq	$1, 184(%rbp)
	leaq	48(%rbp), %r12
	movq	%r12, %rdi
	call	pthread_mutex_lock@PLT
	movq	200(%rbp), %rax
	movq	$0, (%rbx)
	testq	%rax, %rax
	je	.L1781
	movq	%rbx, (%rax)
	movq	%rbx, 200(%rbp)
.L1782:
	movq	136(%rbp), %rax
	movq	%rax, %rdx
	orq	$1, %rdx
	movq	%rdx, 136(%rbp)
	cmpq	$1, %rax
	ja	.L1894
	cmpb	$0, 176(%rbp)
	jne	.L1785
	movq	144(%rbp), %rax
	testq	%rax, %rax
	je	.L1785
	movb	$1, 176(%rbp)
	leaq	88(%rax), %rdx
	movl	$3, %esi
	leaq	128(%rsp), %rcx
	movq	%rdx, 132(%rsp)
	movl	88(%rax), %edx
	movl	$-2147483639, 128(%rsp)
	movl	96(%rax), %edi
	call	epoll_ctl@PLT
.L1785:
	movq	%r12, %rdi
	call	pthread_mutex_unlock@PLT
	jmp	.L1775
.L1893:
	movq	%r12, %rdi
	call	pthread_mutex_unlock@PLT
	leaq	88(%rbx), %rdi
	call	pthread_cond_signal@PLT
	jmp	.L1744
.L1894:
	movq	%r12, %rdi
	call	pthread_mutex_unlock@PLT
	leaq	88(%rbp), %rdi
	call	pthread_cond_signal@PLT
	jmp	.L1775
.L1773:
	movq	%r12, 88(%rbx)
	jmp	.L1774
.L1759:
	movdqa	64(%rsp), %xmm7
	movups	%xmm7, 88(%rbp)
	jmp	.L1760
.L1686:
	movq	%r15, %rdi
	call	_ZdlPv@PLT
.L1685:
	movl	$145, %edi
.LEHB45:
	call	_Znwm@PLT
.LEHE45:
	movb	$-112, 144(%rax)
	movq	%rax, %r15
	movq	176(%rsp), %rax
	movl	200(%rsp), %r13d
	movq	208(%rsp), %rbx
	movq	%rax, (%rsp)
	jmp	.L1687
.L1766:
	movdqa	(%rsp), %xmm6
	movups	%xmm6, 192(%rbx)
	jmp	.L1767
.L1781:
	movdqa	(%rsp), %xmm7
	movups	%xmm7, 192(%rbp)
	jmp	.L1782
.L1788:
	movq	$0, 40(%rsp)
	xorl	%ebp, %ebp
	xorl	%r12d, %r12d
	jmp	.L1684
.L1890:
	movq	48(%rsp), %rax
	movl	$0, 24(%r15)
	movq	%rcx, 32(%r15)
	orb	$2, 4(%rax)
	movl	(%rax), %r14d
.L1689:
	movq	56(%rsp), %rax
	movq	40(%rax), %rbx
	movq	48(%rsp), %rax
	movq	8(%rax), %rbp
	testq	%rbp, %rbp
	je	.L1895
	addq	$40, %rbp
	movq	%rbp, %rdi
	call	pthread_mutex_lock@PLT
	movq	48(%rsp), %rax
	movq	8(%rax), %rax
	cmpb	$0, 144(%rax)
	jne	.L1896
	cmpq	$0, 112(%rax)
	je	.L1897
.L1725:
	movq	120(%rax), %rdx
	movq	$0, (%r15)
	testq	%rdx, %rdx
	je	.L1728
	movq	%r15, (%rdx)
	movq	%r15, 120(%rax)
.L1729:
	movq	40(%rbx), %rax
	lock addq	$1, 184(%rax)
	movq	%rbp, %rdi
	call	pthread_mutex_unlock@PLT
	jmp	.L1742
.L1732:
	lock addq	$1, 184(%rbx)
	leaq	48(%rbx), %rbp
	movq	%rbp, %rdi
	call	pthread_mutex_lock@PLT
	movq	200(%rbx), %rax
	movq	$0, (%r15)
	testq	%rax, %rax
	je	.L1737
.L1887:
	movq	%r15, (%rax)
	movq	%r15, 200(%rbx)
.L1738:
	movq	136(%rbx), %rax
	movq	%rax, %rdx
	orq	$1, %rdx
	movq	%rdx, 136(%rbx)
	cmpq	$1, %rax
	jbe	.L1739
	movq	%rbp, %rdi
	call	pthread_mutex_unlock@PLT
	leaq	88(%rbx), %rdi
	call	pthread_cond_signal@PLT
	jmp	.L1742
.L1765:
	movdqa	(%rsp), %xmm7
	movups	%xmm7, 8(%rax)
	jmp	.L1744
.L1780:
	movdqa	(%rsp), %xmm6
	movups	%xmm6, 8(%rax)
	jmp	.L1775
.L1739:
	cmpb	$0, 176(%rbx)
	jne	.L1741
	movq	144(%rbx), %rax
	testq	%rax, %rax
	je	.L1741
	movb	$1, 176(%rbx)
	leaq	88(%rax), %rdx
	leaq	80(%rsp), %rcx
	movl	$3, %esi
	movl	$-2147483639, 80(%rsp)
	movq	%rdx, 84(%rsp)
	movl	88(%rax), %edx
	movl	96(%rax), %edi
	call	epoll_ctl@PLT
.L1741:
	movq	%rbp, %rdi
	call	pthread_mutex_unlock@PLT
	jmp	.L1742
.L1694:
	movq	%r12, %rdi
	movq	%rcx, (%rsp)
	call	__cxa_guard_acquire@PLT
	movq	(%rsp), %rcx
	testl	%eax, %eax
	je	.L1879
	movq	_ZZN4asio15system_categoryEvE8instance@GOTPCREL(%rip), %r14
	movq	_ZN4asio6detail15system_categoryD1Ev@GOTPCREL(%rip), %rdi
	leaq	__dso_handle(%rip), %rdx
	movq	%rcx, (%rsp)
	movq	%r14, %rsi
	call	__cxa_atexit@PLT
	movq	%r12, %rdi
	call	__cxa_guard_release@PLT
	movq	(%rsp), %rcx
	jmp	.L1695
.L1737:
	movdqa	16(%rsp), %xmm6
	movups	%xmm6, 192(%rbx)
	jmp	.L1738
.L1736:
	movdqa	16(%rsp), %xmm7
	movups	%xmm7, 8(%rax)
	jmp	.L1742
.L1728:
	movdqa	16(%rsp), %xmm6
	movups	%xmm6, 112(%rax)
	jmp	.L1729
.L1897:
	movq	%r15, %rdi
.LEHB46:
	call	*48(%r15)
.LEHE46:
	testb	%al, %al
	jne	.L1898
	movq	48(%rsp), %rax
	movq	8(%rax), %rax
	movl	92(%rax), %edx
	testb	$4, %dl
	jne	.L1725
	orl	$4, %edx
	movq	%rax, 84(%rsp)
	leaq	80(%rsp), %rcx
	movl	$3, %esi
	movl	%edx, 80(%rsp)
	movl	96(%rbx), %edi
	movl	%r14d, %edx
	call	epoll_ctl@PLT
	testl	%eax, %eax
	jne	.L1727
	movq	48(%rsp), %rax
	movl	80(%rsp), %edx
	movq	8(%rax), %rax
	orl	%edx, 92(%rax)
	jmp	.L1725
.L1896:
	data16	leaq	_ZN4asio6detail15keyword_tss_ptrINS0_10call_stackINS0_15task_io_serviceENS0_27task_io_service_thread_infoEE7contextEE6value_E@tlsgd(%rip), %rdi
	.value	0x6666
	rex64
	call	__tls_get_addr@PLT
	movq	40(%rbx), %rbx
	movq	(%rax), %rax
	testq	%rax, %rax
	jne	.L1717
	jmp	.L1714
	.p2align 4
	.p2align 4,,10
	.p2align 3
.L1715:
	movq	16(%rax), %rax
	testq	%rax, %rax
	je	.L1714
.L1717:
	cmpq	(%rax), %rbx
	jne	.L1715
	movq	8(%rax), %rax
	testq	%rax, %rax
	je	.L1714
	movq	16(%rax), %rdx
	addq	$1, 24(%rax)
	movq	$0, (%r15)
	testq	%rdx, %rdx
	je	.L1718
	movq	%r15, (%rdx)
	movq	%r15, 16(%rax)
	jmp	.L1741
.L1895:
	movq	_ZGVZN4asio15system_categoryEvE8instance@GOTPCREL(%rip), %rbp
	movzbl	0(%rbp), %eax
	testb	%al, %al
	je	.L1699
	movq	_ZZN4asio15system_categoryEvE8instance@GOTPCREL(%rip), %r14
.L1700:
	movl	$9, 24(%r15)
	movq	40(%rbx), %rbx
	movq	%r14, 32(%r15)
	data16	leaq	_ZN4asio6detail15keyword_tss_ptrINS0_10call_stackINS0_15task_io_serviceENS0_27task_io_service_thread_infoEE7contextEE6value_E@tlsgd(%rip), %rdi
	.value	0x6666
	rex64
	call	__tls_get_addr@PLT
	movq	(%rax), %rax
	testq	%rax, %rax
	jne	.L1705
	jmp	.L1702
	.p2align 4
	.p2align 4,,10
	.p2align 3
.L1703:
	movq	16(%rax), %rax
	testq	%rax, %rax
	je	.L1702
.L1705:
	cmpq	(%rax), %rbx
	jne	.L1703
	movq	8(%rax), %rax
	testq	%rax, %rax
	je	.L1702
	movq	16(%rax), %rdx
	addq	$1, 24(%rax)
	movq	$0, (%r15)
	testq	%rdx, %rdx
	jne	.L1880
	movdqa	16(%rsp), %xmm6
	movups	%xmm6, 8(%rax)
	jmp	.L1742
.L1889:
	movq	_ZGVZN4asio15system_categoryEvE8instance@GOTPCREL(%rip), %rbp
	movzbl	0(%rbp), %eax
	testb	%al, %al
	je	.L1691
	movq	_ZZN4asio15system_categoryEvE8instance@GOTPCREL(%rip), %r14
.L1692:
	movl	$9, 24(%r15)
	movq	%r14, 32(%r15)
	jmp	.L1688
.L1714:
	lock addq	$1, 184(%rbx)
	leaq	48(%rbx), %r12
	movq	%r12, %rdi
	call	pthread_mutex_lock@PLT
	movq	200(%rbx), %rax
	movq	$0, (%r15)
	testq	%rax, %rax
	je	.L1720
	movq	%r15, (%rax)
	movq	%r15, 200(%rbx)
.L1721:
	movq	136(%rbx), %rax
	movq	%rax, %rdx
	orq	$1, %rdx
	movq	%rdx, 136(%rbx)
	cmpq	$1, %rax
	jbe	.L1722
	movq	%r12, %rdi
	call	pthread_mutex_unlock@PLT
	leaq	88(%rbx), %rdi
	call	pthread_cond_signal@PLT
	jmp	.L1741
.L1702:
	lock addq	$1, 184(%rbx)
	leaq	48(%rbx), %rbp
	movq	%rbp, %rdi
	call	pthread_mutex_lock@PLT
	movq	200(%rbx), %rax
	movq	$0, (%r15)
	testq	%rax, %rax
	jne	.L1887
	movdqa	16(%rsp), %xmm7
	movups	%xmm7, 192(%rbx)
	jmp	.L1738
.L1699:
	movq	%rbp, %rdi
	call	__cxa_guard_acquire@PLT
	movq	_ZZN4asio15system_categoryEvE8instance@GOTPCREL(%rip), %r14
	testl	%eax, %eax
	je	.L1700
	movq	_ZN4asio6detail15system_categoryD1Ev@GOTPCREL(%rip), %rdi
	leaq	__dso_handle(%rip), %rdx
	movq	%r14, %rsi
	call	__cxa_atexit@PLT
	movq	%rbp, %rdi
	call	__cxa_guard_release@PLT
	jmp	.L1700
.L1691:
	movq	%rbp, %rdi
	call	__cxa_guard_acquire@PLT
	movq	_ZZN4asio15system_categoryEvE8instance@GOTPCREL(%rip), %r14
	testl	%eax, %eax
	je	.L1692
	movq	_ZN4asio6detail15system_categoryD1Ev@GOTPCREL(%rip), %rdi
	leaq	__dso_handle(%rip), %rdx
	movq	%r14, %rsi
	call	__cxa_atexit@PLT
	movq	%rbp, %rdi
	call	__cxa_guard_release@PLT
	jmp	.L1692
.L1898:
	movq	%rbp, %rdi
	call	pthread_mutex_unlock@PLT
	movq	40(%rbx), %rdi
	movl	$1, %edx
	movq	%r15, %rsi
	call	_ZN4asio6detail15task_io_service25post_immediate_completionEPNS0_25task_io_service_operationEb@PLT
	jmp	.L1742
.L1718:
	movdqa	16(%rsp), %xmm6
	movups	%xmm6, 8(%rax)
	jmp	.L1741
.L1722:
	cmpb	$0, 176(%rbx)
	jne	.L1724
	movq	144(%rbx), %rax
	testq	%rax, %rax
	je	.L1724
	movb	$1, 176(%rbx)
	leaq	88(%rax), %rdx
	leaq	80(%rsp), %rcx
	movl	$3, %esi
	movq	%rdx, 84(%rsp)
	movl	88(%rax), %edx
	movl	$-2147483639, 80(%rsp)
	movl	96(%rax), %edi
	call	epoll_ctl@PLT
.L1724:
	movq	%r12, %rdi
	call	pthread_mutex_unlock@PLT
	jmp	.L1741
.L1720:
	movdqa	16(%rsp), %xmm7
	movups	%xmm7, 192(%rbx)
	jmp	.L1721
.L1727:
	call	_ZN4asio15system_categoryEv@PLT
	movq	%rax, %r12
	call	__errno_location@PLT
	movq	40(%rbx), %rdi
	movl	$1, %edx
	movq	%r15, %rsi
	movl	(%rax), %eax
	movq	%r12, 32(%r15)
	movl	%eax, 24(%r15)
	call	_ZN4asio6detail15task_io_service25post_immediate_completionEPNS0_25task_io_service_operationEb@PLT
	jmp	.L1741
.L1790:
	movq	%rax, %rbx
	jmp	.L1787
.L1792:
	movq	%rax, %rbx
	jmp	.L1730
.L1789:
	movq	%rax, %rbx
	jmp	.L1786
.L1791:
	movq	%rax, %rbx
	jmp	.L1731
	.section	.gcc_except_table
.LLSDA9244:
	.byte	0xff
	.byte	0xff
	.byte	0x1
	.uleb128 .LLSDACSE9244-.LLSDACSB9244
.LLSDACSB9244:
	.uleb128 .LEHB42-.LFB9244
	.uleb128 .LEHE42-.LEHB42
	.uleb128 .L1791-.LFB9244
	.uleb128 0
	.uleb128 .LEHB43-.LFB9244
	.uleb128 .LEHE43-.LEHB43
	.uleb128 .L1789-.LFB9244
	.uleb128 0
	.uleb128 .LEHB44-.LFB9244
	.uleb128 .LEHE44-.LEHB44
	.uleb128 .L1790-.LFB9244
	.uleb128 0
	.uleb128 .LEHB45-.LFB9244
	.uleb128 .LEHE45-.LEHB45
	.uleb128 .L1791-.LFB9244
	.uleb128 0
	.uleb128 .LEHB46-.LFB9244
	.uleb128 .LEHE46-.LEHB46
	.uleb128 .L1792-.LFB9244
	.uleb128 0
.LLSDACSE9244:
	.text
	.cfi_endproc
	.section	.text.unlikely
	.cfi_startproc
	.cfi_personality 0x9b,DW.ref.__gxx_personality_v0
	.cfi_lsda 0x1b,.LLSDAC9244
	.type	_ZN4asio6detail19descriptor_write_opINS_15const_buffers_1ENS0_8write_opINS_17basic_serial_portINS_19serial_port_serviceEEES2_NS0_14transfer_all_tENS0_15wrapped_handlerINS_10io_service6strandEZN7asiopal13SerialChannel14BeginWriteImplERKN7openpal6RSliceEEUlRKSt10error_codemE_NS0_26is_continuation_if_runningEEEEEE11do_completeEPNS0_15task_io_serviceEPNS0_25task_io_service_operationESJ_m.cold, @function
_ZN4asio6detail19descriptor_write_opINS_15const_buffers_1ENS0_8write_opINS_17basic_serial_portINS_19serial_port_serviceEEES2_NS0_14transfer_all_tENS0_15wrapped_handlerINS_10io_service6strandEZN7asiopal13SerialChannel14BeginWriteImplERKN7openpal6RSliceEEUlRKSt10error_codemE_NS0_26is_continuation_if_runningEEEEEE11do_completeEPNS0_15task_io_serviceEPNS0_25task_io_service_operationESJ_m.cold:
.LFSB9244:
.L1787:
	.cfi_def_cfa_offset 624
	.cfi_offset 3, -56
	.cfi_offset 6, -48
	.cfi_offset 12, -40
	.cfi_offset 13, -32
	.cfi_offset 14, -24
	.cfi_offset 15, -16
	leaq	80(%rsp), %rdi
	call	_ZN4asio6detail14strand_service16on_dispatch_exitD1Ev@PLT
	data16	leaq	_ZN4asio6detail15keyword_tss_ptrINS0_10call_stackINS0_14strand_service11strand_implEhE7contextEE6value_E@tlsgd(%rip), %rdi
	.value	0x6666
	rex64
	call	__tls_get_addr@PLT
	movq	192(%rsp), %rdx
	movq	%rdx, (%rax)
.L1786:
	sfence
	pxor	%xmm0, %xmm0
	leaq	96(%rsp), %rdi
	movups	%xmm0, 104(%rsp)
	call	_ZN4asio6detail19descriptor_write_opINS_15const_buffers_1ENS0_8write_opINS_17basic_serial_portINS_19serial_port_serviceEEES2_NS0_14transfer_all_tENS0_15wrapped_handlerINS_10io_service6strandEZN7asiopal13SerialChannel14BeginWriteImplERKN7openpal6RSliceEEUlRKSt10error_codemE_NS0_26is_continuation_if_runningEEEEEE3ptr5resetEv
	movq	%rbx, %rdi
.LEHB47:
	call	_Unwind_Resume@PLT
.LEHE47:
.L1730:
	movq	%rbp, %rdi
	call	pthread_mutex_unlock@PLT
	leaq	128(%rsp), %rdi
	call	_ZN4asio6detail19descriptor_write_opINS_15const_buffers_1ENS0_8write_opINS_17basic_serial_portINS_19serial_port_serviceEEES2_NS0_14transfer_all_tENS0_15wrapped_handlerINS_10io_service6strandEZN7asiopal13SerialChannel14BeginWriteImplERKN7openpal6RSliceEEUlRKSt10error_codemE_NS0_26is_continuation_if_runningEEEEEE3ptr5resetEv
.L1731:
	sfence
	jmp	.L1786
	.cfi_endproc
.LFE9244:
	.section	.gcc_except_table
.LLSDAC9244:
	.byte	0xff
	.byte	0xff
	.byte	0x1
	.uleb128 .LLSDACSEC9244-.LLSDACSBC9244
.LLSDACSBC9244:
	.uleb128 .LEHB47-.LCOLDB43
	.uleb128 .LEHE47-.LEHB47
	.uleb128 0
	.uleb128 0
.LLSDACSEC9244:
	.section	.text.unlikely
	.text
	.size	_ZN4asio6detail19descriptor_write_opINS_15const_buffers_1ENS0_8write_opINS_17basic_serial_portINS_19serial_port_serviceEEES2_NS0_14transfer_all_tENS0_15wrapped_handlerINS_10io_service6strandEZN7asiopal13SerialChannel14BeginWriteImplERKN7openpal6RSliceEEUlRKSt10error_codemE_NS0_26is_continuation_if_runningEEEEEE11do_completeEPNS0_15task_io_serviceEPNS0_25task_io_service_operationESJ_m, .-_ZN4asio6detail19descriptor_write_opINS_15const_buffers_1ENS0_8write_opINS_17basic_serial_portINS_19serial_port_serviceEEES2_NS0_14transfer_all_tENS0_15wrapped_handlerINS_10io_service6strandEZN7asiopal13SerialChannel14BeginWriteImplERKN7openpal6RSliceEEUlRKSt10error_codemE_NS0_26is_continuation_if_runningEEEEEE11do_completeEPNS0_15task_io_serviceEPNS0_25task_io_service_operationESJ_m
	.section	.text.unlikely
	.size	_ZN4asio6detail19descriptor_write_opINS_15const_buffers_1ENS0_8write_opINS_17basic_serial_portINS_19serial_port_serviceEEES2_NS0_14transfer_all_tENS0_15wrapped_handlerINS_10io_service6strandEZN7asiopal13SerialChannel14BeginWriteImplERKN7openpal6RSliceEEUlRKSt10error_codemE_NS0_26is_continuation_if_runningEEEEEE11do_completeEPNS0_15task_io_serviceEPNS0_25task_io_service_operationESJ_m.cold, .-_ZN4asio6detail19descriptor_write_opINS_15const_buffers_1ENS0_8write_opINS_17basic_serial_portINS_19serial_port_serviceEEES2_NS0_14transfer_all_tENS0_15wrapped_handlerINS_10io_service6strandEZN7asiopal13SerialChannel14BeginWriteImplERKN7openpal6RSliceEEUlRKSt10error_codemE_NS0_26is_continuation_if_runningEEEEEE11do_completeEPNS0_15task_io_serviceEPNS0_25task_io_service_operationESJ_m.cold
.LCOLDE43:
	.text
.LHOTE43:
	.section	.rodata.str1.1,"aMS",@progbits,1
.LC44:
	.string	"close"
	.section	.text.unlikely
	.align 2
.LCOLDB45:
	.text
.LHOTB45:
	.align 2
	.p2align 4
	.globl	_ZN7asiopal13SerialChannel4OpenERKNS_14SerialSettingsERSt10error_code
	.type	_ZN7asiopal13SerialChannel4OpenERKNS_14SerialSettingsERSt10error_code, @function
_ZN7asiopal13SerialChannel4OpenERKNS_14SerialSettingsERSt10error_code:
.LFB7013:
	.cfi_startproc
	.cfi_personality 0x9b,DW.ref.__gxx_personality_v0
	.cfi_lsda 0x1b,.LLSDA7013
	pushq	%r15
	.cfi_def_cfa_offset 16
	.cfi_offset 15, -16
	movq	%rdx, %r15
	pushq	%r14
	.cfi_def_cfa_offset 24
	.cfi_offset 14, -24
	pushq	%r13
	.cfi_def_cfa_offset 32
	.cfi_offset 13, -32
	pushq	%r12
	.cfi_def_cfa_offset 40
	.cfi_offset 12, -40
	pushq	%rbp
	.cfi_def_cfa_offset 48
	.cfi_offset 6, -48
	pushq	%rbx
	.cfi_def_cfa_offset 56
	.cfi_offset 3, -56
	subq	$136, %rsp
	.cfi_def_cfa_offset 192
	cmpl	$-1, 64(%rdi)
	je	.L1900
	movq	_ZGVZN4asio5error17get_misc_categoryEvE8instance@GOTPCREL(%rip), %rbx
	movzbl	(%rbx), %eax
	testb	%al, %al
	je	.L1901
	movq	_ZZN4asio5error17get_misc_categoryEvE8instance@GOTPCREL(%rip), %rcx
.L1902:
	movl	$1, (%r15)
	movq	%rcx, 8(%r15)
.L1904:
	xorl	%eax, %eax
.L1899:
	addq	$136, %rsp
	.cfi_remember_state
	.cfi_def_cfa_offset 56
	popq	%rbx
	.cfi_def_cfa_offset 48
	popq	%rbp
	.cfi_def_cfa_offset 40
	popq	%r12
	.cfi_def_cfa_offset 32
	popq	%r13
	.cfi_def_cfa_offset 24
	popq	%r14
	.cfi_def_cfa_offset 16
	popq	%r15
	.cfi_def_cfa_offset 8
	ret
	.p2align 4,,10
	.p2align 3
.L1901:
	.cfi_restore_state
	movq	%rbx, %rdi
	call	__cxa_guard_acquire@PLT
	movq	_ZZN4asio5error17get_misc_categoryEvE8instance@GOTPCREL(%rip), %rcx
	testl	%eax, %eax
	je	.L1902
	movq	_ZN4asio5error6detail13misc_categoryD1Ev@GOTPCREL(%rip), %rdi
	movq	%rcx, %rsi
	leaq	__dso_handle(%rip), %rdx
	movq	%rcx, (%rsp)
	call	__cxa_atexit@PLT
	movq	%rbx, %rdi
	call	__cxa_guard_release@PLT
	movq	(%rsp), %rcx
	jmp	.L1902
	.p2align 4,,10
	.p2align 3
.L1900:
	movq	80(%rdi), %rax
	movq	(%rsi), %rbp
	movq	%rdi, %rbx
	movq	%rsi, %r13
	movq	%rax, 16(%rsp)
	call	__errno_location@PLT
	movq	%rbp, %rdi
	movl	$2306, %esi
	movl	$0, (%rax)
	movq	%rax, %r12
	xorl	%eax, %eax
.LEHB48:
	call	open@PLT
	movq	_ZGVZN4asio15system_categoryEvE8instance@GOTPCREL(%rip), %rbp
	movl	%eax, (%rsp)
	movzbl	0(%rbp), %eax
	testb	%al, %al
	je	.L1905
	movq	_ZZN4asio15system_categoryEvE8instance@GOTPCREL(%rip), %r14
.L1906:
	movl	(%r12), %eax
	movl	(%rsp), %r9d
	movq	%r14, 8(%r15)
	movl	%eax, (%r15)
	testl	%r9d, %r9d
	js	.L1908
	call	_ZNSt3_V215system_categoryEv@PLT
	movl	$0, (%r15)
	movl	(%rsp), %edi
	movl	$3, %esi
	movq	%rax, 8(%r15)
	movl	$0, (%r12)
	movq	%rax, 8(%rsp)
	xorl	%eax, %eax
	call	fcntl@PLT
	movl	%eax, %ecx
	movzbl	0(%rbp), %eax
	testb	%al, %al
	je	.L2156
.L1910:
	movl	(%r12), %eax
	movq	%r14, 8(%r15)
	movl	%eax, (%r15)
	cmpl	$-1, %ecx
	je	.L1915
	movq	8(%rsp), %rax
	movl	$0, (%r15)
	movq	%rax, 8(%r15)
	testl	%ecx, %ecx
	js	.L1915
	movl	$0, (%r12)
	orb	$8, %ch
	movl	(%rsp), %edi
	xorl	%eax, %eax
	movslq	%ecx, %rdx
	movl	$4, %esi
	call	fcntl@PLT
	movl	%eax, %ecx
	movzbl	0(%rbp), %eax
	testb	%al, %al
	je	.L2157
.L1917:
	movl	(%r12), %eax
	movq	%r14, 8(%r15)
	movl	%eax, (%r15)
	cmpl	$-1, %ecx
	je	.L1915
	movq	8(%rsp), %rax
	movl	$0, (%r15)
	movq	%rax, 8(%r15)
	testl	%ecx, %ecx
	js	.L1915
	movl	$0, (%r12)
	leaq	64(%rsp), %rax
	movl	(%rsp), %edi
	movq	%rax, %rsi
	movq	%rax, 24(%rsp)
	call	tcgetattr@PLT
	movl	%eax, %ecx
	movzbl	0(%rbp), %eax
	testb	%al, %al
	je	.L2158
.L1932:
	movl	(%r12), %eax
	movq	%r14, 8(%r15)
	movl	%eax, (%r15)
	testl	%ecx, %ecx
	js	.L1940
	movl	64(%rsp), %eax
	movl	68(%rsp), %edx
	xorl	%esi, %esi
	movl	$0, (%r12)
	movl	76(%rsp), %ecx
	movl	(%rsp), %edi
	andl	$-1516, %eax
	andl	$-2, %edx
	orl	$4, %eax
	andl	$-32844, %ecx
	movd	%edx, %xmm3
	movq	24(%rsp), %rdx
	movd	%eax, %xmm0
	movl	72(%rsp), %eax
	movd	%ecx, %xmm2
	punpckldq	%xmm3, %xmm0
	andl	$-305, %eax
	orl	$2224, %eax
	movd	%eax, %xmm1
	punpckldq	%xmm2, %xmm1
	punpcklqdq	%xmm1, %xmm0
	movaps	%xmm0, 64(%rsp)
	call	tcsetattr@PLT
	movl	%eax, %ecx
	movzbl	0(%rbp), %eax
	testb	%al, %al
	je	.L2159
.L1938:
	movl	(%r12), %eax
	movq	%r14, 8(%r15)
	movl	%eax, (%r15)
	testl	%ecx, %ecx
	jns	.L2160
.L1940:
	movl	$0, (%r12)
	movl	(%rsp), %edi
	call	close@PLT
	movl	%eax, %ecx
	movzbl	0(%rbp), %eax
	testb	%al, %al
	je	.L2161
.L1942:
	testl	%ecx, %ecx
	je	.L1976
	movl	(%r12), %ecx
	movzbl	0(%rbp), %eax
	testb	%al, %al
	je	.L2162
.L1945:
	cmpl	$11, %ecx
	je	.L1972
	.p2align 4
	.p2align 3
.L2149:
	movzbl	0(%rbp), %eax
	testb	%al, %al
	jne	.L1976
	movq	%rbp, %rdi
	call	__cxa_guard_acquire@PLT
	testl	%eax, %eax
	je	.L1976
	movq	_ZN4asio6detail15system_categoryD1Ev@GOTPCREL(%rip), %rdi
	leaq	__dso_handle(%rip), %rdx
	movq	%r14, %rsi
	call	__cxa_atexit@PLT
	movq	%rbp, %rdi
	call	__cxa_guard_release@PLT
	.p2align 4
	.p2align 3
.L1976:
	movl	(%r15), %eax
.L1908:
	testl	%eax, %eax
	jne	.L1904
.L1965:
	movq	%r15, %rdx
	leaq	64(%rbx), %rsi
	movq	%r13, %rdi
	call	_ZN7asiopal9ConfigureERKNS_14SerialSettingsERN4asio17basic_serial_portINS3_19serial_port_serviceEEERSt10error_code@PLT
	movl	(%r15), %edx
	movl	$1, %eax
	testl	%edx, %edx
	je	.L1899
	movl	64(%rbx), %r15d
	cmpl	$-1, %r15d
	jne	.L1979
.L2013:
	movl	$-1, 64(%rbx)
	movb	$0, 68(%rbx)
	jmp	.L1904
	.p2align 4,,10
	.p2align 3
.L1915:
	movl	$0, (%r12)
	movl	(%rsp), %edi
	call	close@PLT
	movl	%eax, %ecx
	movzbl	0(%rbp), %eax
	testb	%al, %al
	je	.L2163
.L1920:
	testl	%ecx, %ecx
	je	.L1976
	movl	(%r12), %ecx
	movzbl	0(%rbp), %eax
	testb	%al, %al
	je	.L2164
.L1923:
	cmpl	$11, %ecx
	jne	.L2149
	movl	$0, 64(%rsp)
	leaq	64(%rsp), %rdx
.L2155:
	movl	(%rsp), %edi
	movl	$21537, %esi
	xorl	%eax, %eax
	call	ioctl@PLT
	movl	$0, (%r12)
	movl	(%rsp), %edi
	call	close@PLT
	jmp	.L2149
	.p2align 4,,10
	.p2align 3
.L1905:
	movq	%rbp, %rdi
	call	__cxa_guard_acquire@PLT
	movq	_ZZN4asio15system_categoryEvE8instance@GOTPCREL(%rip), %r14
	testl	%eax, %eax
	je	.L1906
	movq	_ZN4asio6detail15system_categoryD1Ev@GOTPCREL(%rip), %rdi
	leaq	__dso_handle(%rip), %rdx
	movq	%r14, %rsi
	call	__cxa_atexit@PLT
	movq	%rbp, %rdi
	call	__cxa_guard_release@PLT
	jmp	.L1906
	.p2align 4,,10
	.p2align 3
.L2156:
	movq	%rbp, %rdi
	movl	%ecx, 24(%rsp)
	call	__cxa_guard_acquire@PLT
	movl	24(%rsp), %ecx
	testl	%eax, %eax
	je	.L1910
	movq	_ZN4asio6detail15system_categoryD1Ev@GOTPCREL(%rip), %rdi
	leaq	__dso_handle(%rip), %rdx
	movq	%r14, %rsi
	call	__cxa_atexit@PLT
	movq	%rbp, %rdi
	call	__cxa_guard_release@PLT
	movl	24(%rsp), %ecx
	jmp	.L1910
	.p2align 4,,10
	.p2align 3
.L1979:
	movq	72(%rbx), %rax
	testq	%rax, %rax
	je	.L1981
	movq	80(%rbx), %rdx
	addq	$40, %rax
	movzbl	68(%rbx), %r13d
	movq	%rax, %rdi
	movq	%rax, 32(%rsp)
	movq	40(%rdx), %rdx
	movq	%rdx, 16(%rsp)
	call	pthread_mutex_lock@PLT
	movq	72(%rbx), %rdi
	cmpb	$0, 144(%rdi)
	jne	.L1982
	andl	$4, %r13d
	jne	.L2165
.L1983:
	movq	$0, 24(%rsp)
	xorl	%r13d, %r13d
	movl	$0, 8(%rsp)
.L1984:
	movslq	8(%rsp), %rax
	salq	$4, %rax
	movq	96(%rax,%rdi), %r15
	movq	%rax, %r8
	testq	%r15, %r15
	jne	.L1996
	jmp	.L2166
	.p2align 4,,10
	.p2align 3
.L1986:
	movq	72(%rbx), %rdi
	movl	$125, 24(%r15)
	movq	%r14, 32(%r15)
	leaq	(%rdi,%r8), %rsi
	movq	96(%rsi), %rax
	testq	%rax, %rax
	je	.L2148
	movq	(%rax), %rdx
	movq	%rdx, 96(%rsi)
	testq	%rdx, %rdx
	je	.L1992
	movq	$0, (%rax)
	movq	$0, (%r15)
	testq	%r13, %r13
	je	.L2031
	movq	%r15, 0(%r13)
.L1993:
	movq	%r15, %r13
	movq	%rdx, %r15
.L1996:
	movzbl	0(%rbp), %eax
	testb	%al, %al
	jne	.L1986
	movq	%rbp, %rdi
	movq	%r8, (%rsp)
	call	__cxa_guard_acquire@PLT
	movq	(%rsp), %r8
	testl	%eax, %eax
	je	.L1986
	movq	_ZN4asio6detail15system_categoryD1Ev@GOTPCREL(%rip), %rdi
	leaq	__dso_handle(%rip), %rdx
	movq	%r14, %rsi
	call	__cxa_atexit@PLT
	movq	%rbp, %rdi
	call	__cxa_guard_release@PLT
	movq	(%rsp), %r8
	jmp	.L1986
	.p2align 4,,10
	.p2align 3
.L1992:
	movq	$0, 104(%rsi)
	movq	$0, (%rax)
.L2148:
	movq	$0, (%r15)
	testq	%r13, %r13
	je	.L1994
	movq	%r15, 0(%r13)
.L1990:
	addl	$1, 8(%rsp)
	cmpl	$3, 8(%rsp)
	je	.L1995
	movq	%r15, %r13
	jmp	.L1984
	.p2align 4,,10
	.p2align 3
.L2031:
	movq	%r15, 24(%rsp)
	jmp	.L1993
	.p2align 4,,10
	.p2align 3
.L1995:
	movl	$-1, 88(%rdi)
	movb	$1, 144(%rdi)
	movq	32(%rsp), %rdi
	call	pthread_mutex_unlock@PLT
	movq	16(%rsp), %rax
	movq	72(%rbx), %r13
	leaq	120(%rax), %rdi
	movq	%rdi, (%rsp)
	call	pthread_mutex_lock@PLT
	movq	16(%rsp), %rax
	movq	(%rsp), %rdi
	cmpq	160(%rax), %r13
	je	.L2167
.L1997:
	movq	32(%r13), %rax
	testq	%rax, %rax
	je	.L1998
	movq	24(%r13), %rdx
	movq	%rdx, 24(%rax)
.L1998:
	movq	24(%r13), %rax
	testq	%rax, %rax
	je	.L1999
	movq	32(%r13), %rdx
	movq	%rdx, 32(%rax)
.L1999:
	movq	16(%rsp), %rdx
	movq	168(%rdx), %rax
	movq	$0, 32(%r13)
	movq	%rax, 24(%r13)
	movq	%r13, 168(%rdx)
	call	pthread_mutex_unlock@PLT
	movq	$0, 72(%rbx)
	cmpq	$0, 24(%rsp)
	je	.L2012
	movq	16(%rsp), %rdx
	movq	40(%rdx), %r13
	cmpb	$0, 40(%r13)
	je	.L2001
	data16	leaq	_ZN4asio6detail15keyword_tss_ptrINS0_10call_stackINS0_15task_io_serviceENS0_27task_io_service_thread_infoEE7contextEE6value_E@tlsgd(%rip), %rdi
	.value	0x6666
	rex64
	call	__tls_get_addr@PLT
	movq	(%rax), %rax
	testq	%rax, %rax
	jne	.L2004
	jmp	.L2001
	.p2align 4
	.p2align 4,,10
	.p2align 3
.L2002:
	movq	16(%rax), %rax
	testq	%rax, %rax
	je	.L2001
.L2004:
	cmpq	(%rax), %r13
	jne	.L2002
	movq	8(%rax), %rax
	testq	%rax, %rax
	je	.L2001
	movq	16(%rax), %rdx
	testq	%rdx, %rdx
	je	.L2005
	movq	24(%rsp), %rcx
	movq	%rcx, (%rdx)
.L2006:
	movq	%r15, 16(%rax)
	.p2align 4
	.p2align 3
.L2012:
	movl	64(%rbx), %r15d
	cmpl	$-1, %r15d
	je	.L2013
.L1981:
	movl	$0, (%r12)
	movl	%r15d, %edi
	call	close@PLT
	movl	%eax, %r13d
	movzbl	0(%rbp), %eax
	testb	%al, %al
	je	.L2168
.L2015:
	testl	%r13d, %r13d
	je	.L2013
	movl	(%r12), %r13d
	movzbl	0(%rbp), %eax
	testb	%al, %al
	je	.L2169
.L2018:
	cmpl	$11, %r13d
	je	.L2020
	movzbl	0(%rbp), %eax
	testb	%al, %al
	je	.L2170
.L2024:
	movl	$-1, 64(%rbx)
	movb	$0, 68(%rbx)
	testl	%r13d, %r13d
	je	.L1904
	leaq	64(%rsp), %rdi
	leaq	.LC44(%rip), %rsi
	movl	%r13d, 64(%rsp)
	movq	%r14, 72(%rsp)
	call	_ZN4asio6detail14do_throw_errorERKSt10error_codePKc@PLT
	.p2align 4,,10
	.p2align 3
.L2157:
	movq	%rbp, %rdi
	movl	%ecx, 24(%rsp)
	call	__cxa_guard_acquire@PLT
	movl	24(%rsp), %ecx
	testl	%eax, %eax
	je	.L1917
	movq	_ZN4asio6detail15system_categoryD1Ev@GOTPCREL(%rip), %rdi
	leaq	__dso_handle(%rip), %rdx
	movq	%r14, %rsi
	call	__cxa_atexit@PLT
	movq	%rbp, %rdi
	call	__cxa_guard_release@PLT
	movl	24(%rsp), %ecx
	jmp	.L1917
	.p2align 4,,10
	.p2align 3
.L1994:
	movq	%r15, 24(%rsp)
	jmp	.L1990
	.p2align 4,,10
	.p2align 3
.L2163:
	movq	%rbp, %rdi
	movl	%ecx, 8(%rsp)
	call	__cxa_guard_acquire@PLT
	movl	8(%rsp), %ecx
	testl	%eax, %eax
	je	.L1920
	movq	_ZN4asio6detail15system_categoryD1Ev@GOTPCREL(%rip), %rdi
	leaq	__dso_handle(%rip), %rdx
	movq	%r14, %rsi
	call	__cxa_atexit@PLT
	movq	%rbp, %rdi
	call	__cxa_guard_release@PLT
	movl	8(%rsp), %ecx
	jmp	.L1920
	.p2align 4,,10
	.p2align 3
.L1982:
	movq	32(%rsp), %rdi
	call	pthread_mutex_unlock@PLT
	jmp	.L2012
	.p2align 4,,10
	.p2align 3
.L2168:
	movq	%rbp, %rdi
	call	__cxa_guard_acquire@PLT
	testl	%eax, %eax
	je	.L2015
	movq	_ZN4asio6detail15system_categoryD1Ev@GOTPCREL(%rip), %rdi
	leaq	__dso_handle(%rip), %rdx
	movq	%r14, %rsi
	call	__cxa_atexit@PLT
	movq	%rbp, %rdi
	call	__cxa_guard_release@PLT
	jmp	.L2015
	.p2align 4,,10
	.p2align 3
.L2158:
	movq	%rbp, %rdi
	movl	%ecx, 32(%rsp)
	call	__cxa_guard_acquire@PLT
	movl	32(%rsp), %ecx
	testl	%eax, %eax
	je	.L1932
	movq	_ZN4asio6detail15system_categoryD1Ev@GOTPCREL(%rip), %rdi
	leaq	__dso_handle(%rip), %rdx
	movq	%r14, %rsi
	call	__cxa_atexit@PLT
	movq	%rbp, %rdi
	call	__cxa_guard_release@PLT
	movl	32(%rsp), %ecx
	jmp	.L1932
.L2160:
	cmpl	$-1, 64(%rbx)
	je	.L1953
	movq	_ZGVZN4asio5error17get_misc_categoryEvE8instance@GOTPCREL(%rip), %rax
	movzbl	(%rax), %eax
	testb	%al, %al
	je	.L1954
	movq	_ZZN4asio5error17get_misc_categoryEvE8instance@GOTPCREL(%rip), %rcx
.L1955:
	movl	$1, (%r15)
.L1957:
	movq	%rcx, 8(%r15)
	movl	(%rsp), %edi
	movl	$0, (%r12)
	call	close@PLT
	movl	%eax, 8(%rsp)
	movzbl	0(%rbp), %eax
	testb	%al, %al
	je	.L2171
.L1967:
	movl	8(%rsp), %esi
	testl	%esi, %esi
	je	.L1976
	movl	(%r12), %eax
	movl	%eax, 8(%rsp)
	movzbl	0(%rbp), %eax
	testb	%al, %al
	je	.L2172
.L1970:
	cmpl	$11, 8(%rsp)
	jne	.L2149
.L1972:
	xorl	%ecx, %ecx
	leaq	52(%rsp), %rdx
	movl	%ecx, 52(%rsp)
	jmp	.L2155
.L2001:
	leaq	48(%r13), %r8
	movq	%r8, %rdi
	movq	%r8, (%rsp)
	call	pthread_mutex_lock@PLT
	movq	200(%r13), %rax
	movq	(%rsp), %r8
	testq	%rax, %rax
	je	.L2007
	movq	24(%rsp), %rdx
	movq	%rdx, (%rax)
.L2008:
	movq	136(%r13), %rax
	movq	%r15, 200(%r13)
	movq	%rax, %rdx
	orq	$1, %rdx
	movq	%rdx, 136(%r13)
	cmpq	$1, %rax
	jbe	.L2009
	movq	%r8, %rdi
	call	pthread_mutex_unlock@PLT
	leaq	88(%r13), %rdi
	call	pthread_cond_signal@PLT
	jmp	.L2012
.L2159:
	movq	%rbp, %rdi
	movl	%ecx, 24(%rsp)
	call	__cxa_guard_acquire@PLT
	movl	24(%rsp), %ecx
	testl	%eax, %eax
	je	.L1938
	movq	_ZN4asio6detail15system_categoryD1Ev@GOTPCREL(%rip), %rdi
	leaq	__dso_handle(%rip), %rdx
	movq	%r14, %rsi
	call	__cxa_atexit@PLT
	movq	%rbp, %rdi
	call	__cxa_guard_release@PLT
	movl	24(%rsp), %ecx
	jmp	.L1938
.L2164:
	movq	%rbp, %rdi
	movl	%ecx, 8(%rsp)
	call	__cxa_guard_acquire@PLT
	movl	8(%rsp), %ecx
	testl	%eax, %eax
	je	.L1923
	movq	_ZN4asio6detail15system_categoryD1Ev@GOTPCREL(%rip), %rdi
	leaq	__dso_handle(%rip), %rdx
	movq	%r14, %rsi
	call	__cxa_atexit@PLT
	movq	%rbp, %rdi
	call	__cxa_guard_release@PLT
	movl	8(%rsp), %ecx
	jmp	.L1923
.L2166:
	movq	%r13, %r15
	jmp	.L1990
.L2165:
	movq	16(%rsp), %rax
	movl	$0, 64(%rsp)
	leaq	64(%rsp), %rcx
	movl	%r15d, %edx
	movq	$0, 68(%rsp)
	movl	$2, %esi
	movl	96(%rax), %edi
	call	epoll_ctl@PLT
	movq	72(%rbx), %rdi
	jmp	.L1983
.L2169:
	movq	%rbp, %rdi
	call	__cxa_guard_acquire@PLT
	testl	%eax, %eax
	je	.L2018
	movq	_ZN4asio6detail15system_categoryD1Ev@GOTPCREL(%rip), %rdi
	leaq	__dso_handle(%rip), %rdx
	movq	%r14, %rsi
	call	__cxa_atexit@PLT
	movq	%rbp, %rdi
	call	__cxa_guard_release@PLT
	jmp	.L2018
.L2167:
	movq	%rax, %rdx
	movq	24(%r13), %rax
	movq	%rax, 160(%rdx)
	jmp	.L1997
.L2170:
	movq	%rbp, %rdi
	call	__cxa_guard_acquire@PLT
	testl	%eax, %eax
	je	.L2024
	movq	_ZN4asio6detail15system_categoryD1Ev@GOTPCREL(%rip), %rdi
	leaq	__dso_handle(%rip), %rdx
	movq	%r14, %rsi
	call	__cxa_atexit@PLT
	movq	%rbp, %rdi
	call	__cxa_guard_release@PLT
	jmp	.L2024
.L2161:
	movq	%rbp, %rdi
	movl	%ecx, 8(%rsp)
	call	__cxa_guard_acquire@PLT
	movl	8(%rsp), %ecx
	testl	%eax, %eax
	je	.L1942
	movq	_ZN4asio6detail15system_categoryD1Ev@GOTPCREL(%rip), %rdi
	leaq	__dso_handle(%rip), %rdx
	movq	%r14, %rsi
	call	__cxa_atexit@PLT
	movq	%rbp, %rdi
	call	__cxa_guard_release@PLT
	movl	8(%rsp), %ecx
	jmp	.L1942
.L2009:
	cmpb	$0, 176(%r13)
	jne	.L2011
	movq	144(%r13), %rax
	testq	%rax, %rax
	je	.L2011
	leaq	88(%rax), %rdx
	leaq	64(%rsp), %rcx
	movl	$3, %esi
	movb	$1, 176(%r13)
	movq	%rdx, 68(%rsp)
	movl	88(%rax), %edx
	movl	$-2147483639, 64(%rsp)
	movl	96(%rax), %edi
	movq	%r8, (%rsp)
	call	epoll_ctl@PLT
	movq	(%rsp), %r8
.L2011:
	movq	%r8, %rdi
	call	pthread_mutex_unlock@PLT
	jmp	.L2012
.L2020:
	movl	%r15d, %edi
	leaq	64(%rsp), %rdx
	movl	$21537, %esi
	xorl	%eax, %eax
	movl	$0, 64(%rsp)
	call	ioctl@PLT
	andb	$-4, 68(%rbx)
	movl	%r15d, %edi
	movl	$0, (%r12)
	call	close@PLT
.LEHE48:
	movl	%eax, %r15d
	movzbl	0(%rbp), %eax
	testb	%al, %al
	je	.L2173
.L2026:
	movl	(%r12), %r13d
	testl	%r15d, %r15d
	je	.L2013
	jmp	.L2024
	.p2align 4,,10
	.p2align 3
.L1953:
	movq	16(%rsp), %rax
	movq	40(%rax), %rdx
	leaq	120(%rdx), %rax
	movq	%rdx, 16(%rsp)
	movq	%rax, %rdi
	movq	%rax, 32(%rsp)
	call	pthread_mutex_lock@PLT
	movq	16(%rsp), %rdx
	movq	168(%rdx), %rcx
	movq	%rcx, 16(%rsp)
	testq	%rcx, %rcx
	je	.L1958
	movq	24(%rcx), %rax
	movq	%rax, 168(%rdx)
	leaq	40(%rcx), %rax
	movq	%rax, 24(%rsp)
.L1959:
	movq	160(%rdx), %rax
	movq	$0, 32(%rcx)
	movq	%rax, 24(%rcx)
	movq	160(%rdx), %rax
	testq	%rax, %rax
	je	.L1962
	movq	%rcx, 32(%rax)
.L1962:
	movq	16(%rsp), %rax
	movq	32(%rsp), %rdi
	movq	%rdx, 40(%rsp)
	movq	%rax, 160(%rdx)
	call	pthread_mutex_unlock@PLT
	movq	16(%rsp), %rax
	movq	24(%rsp), %rdi
	movq	%rax, 72(%rbx)
	call	pthread_mutex_lock@PLT
	movq	72(%rbx), %rax
	movq	40(%rsp), %rdx
	movq	24(%rsp), %rdi
	movq	%rdx, 80(%rax)
	movq	%rdx, 16(%rsp)
	movl	(%rsp), %edx
	movb	$0, 144(%rax)
	movl	%edx, 88(%rax)
	call	pthread_mutex_unlock@PLT
	movq	72(%rbx), %rax
	movq	16(%rsp), %rdx
	movl	$-2147483621, 52(%rsp)
	leaq	52(%rsp), %rcx
	movl	$1, %esi
	movl	$-2147483621, 92(%rax)
	movq	%rax, 56(%rsp)
	movl	96(%rdx), %edi
	movl	(%rsp), %edx
	call	epoll_ctl@PLT
	testl	%eax, %eax
	jne	.L2174
.L1964:
	movl	(%rsp), %eax
	movb	$4, 68(%rbx)
	movl	%eax, 64(%rbx)
	movq	8(%rsp), %rax
	movl	$0, (%r15)
	movq	%rax, 8(%r15)
	jmp	.L1965
.L1954:
	movq	_ZGVZN4asio5error17get_misc_categoryEvE8instance@GOTPCREL(%rip), %rdi
	call	__cxa_guard_acquire@PLT
	movq	_ZZN4asio5error17get_misc_categoryEvE8instance@GOTPCREL(%rip), %rcx
	testl	%eax, %eax
	je	.L1955
	movq	_ZN4asio5error6detail13misc_categoryD1Ev@GOTPCREL(%rip), %rdi
	movq	%rcx, %rsi
	movq	%rcx, 8(%rsp)
	leaq	__dso_handle(%rip), %rdx
	call	__cxa_atexit@PLT
	movq	_ZGVZN4asio5error17get_misc_categoryEvE8instance@GOTPCREL(%rip), %rdi
	call	__cxa_guard_release@PLT
	movq	8(%rsp), %rcx
	jmp	.L1955
.L2007:
	movq	24(%rsp), %rax
	movq	%rax, 192(%r13)
	jmp	.L2008
.L2162:
	movq	%rbp, %rdi
	movl	%ecx, 8(%rsp)
	call	__cxa_guard_acquire@PLT
	movl	8(%rsp), %ecx
	testl	%eax, %eax
	je	.L1945
	movq	_ZN4asio6detail15system_categoryD1Ev@GOTPCREL(%rip), %rdi
	leaq	__dso_handle(%rip), %rdx
	movq	%r14, %rsi
	call	__cxa_atexit@PLT
	movq	%rbp, %rdi
	call	__cxa_guard_release@PLT
	movl	8(%rsp), %ecx
	jmp	.L1945
.L2005:
	movq	24(%rsp), %rdx
	movq	%rdx, 8(%rax)
	jmp	.L2006
.L2174:
	movl	(%r12), %edx
	testl	%edx, %edx
	je	.L1964
	movl	%edx, 8(%rsp)
	call	_ZN4asio15system_categoryEv@PLT
	movl	8(%rsp), %edx
	movq	%rax, %rcx
	movl	%edx, (%r15)
	jmp	.L1957
.L2173:
	movq	%rbp, %rdi
	call	__cxa_guard_acquire@PLT
	testl	%eax, %eax
	je	.L2026
	movq	_ZN4asio6detail15system_categoryD1Ev@GOTPCREL(%rip), %rdi
	leaq	__dso_handle(%rip), %rdx
	movq	%r14, %rsi
	call	__cxa_atexit@PLT
	movq	%rbp, %rdi
	call	__cxa_guard_release@PLT
	jmp	.L2026
.L1958:
	movl	$152, %edi
	movq	%rdx, 40(%rsp)
.LEHB49:
	call	_Znwm@PLT
.LEHE49:
	xorl	%edi, %edi
	movq	%rax, %rdx
	xorl	%r8d, %r8d
	movq	%rdi, (%rax)
	movq	_ZN4asio6detail13epoll_reactor16descriptor_state11do_completeEPNS0_15task_io_serviceEPNS0_25task_io_service_operationERKSt10error_codem@GOTPCREL(%rip), %rax
	movl	%r8d, 16(%rdx)
	movq	%rax, 8(%rdx)
	leaq	40(%rdx), %rax
	movq	%rax, %rdi
	movq	%rdx, 16(%rsp)
	movq	%rax, 24(%rsp)
.LEHB50:
	call	_ZN4asio6detail11posix_mutexC1Ev@PLT
.LEHE50:
	movq	16(%rsp), %rdx
	pxor	%xmm0, %xmm0
	movq	16(%rsp), %rcx
	movups	%xmm0, 96(%rdx)
	movups	%xmm0, 112(%rdx)
	movups	%xmm0, 128(%rdx)
	movq	40(%rsp), %rdx
	jmp	.L1959
.L2171:
	movq	%rbp, %rdi
	call	__cxa_guard_acquire@PLT
	testl	%eax, %eax
	je	.L1967
	movq	_ZN4asio6detail15system_categoryD1Ev@GOTPCREL(%rip), %rdi
	leaq	__dso_handle(%rip), %rdx
	movq	%r14, %rsi
	call	__cxa_atexit@PLT
	movq	%rbp, %rdi
	call	__cxa_guard_release@PLT
	jmp	.L1967
.L2172:
	movq	%rbp, %rdi
	call	__cxa_guard_acquire@PLT
	testl	%eax, %eax
	je	.L1970
	movq	_ZN4asio6detail15system_categoryD1Ev@GOTPCREL(%rip), %rdi
	leaq	__dso_handle(%rip), %rdx
	movq	%r14, %rsi
	call	__cxa_atexit@PLT
	movq	%rbp, %rdi
	call	__cxa_guard_release@PLT
	jmp	.L1970
.L2033:
	movq	%rax, %rbx
	jmp	.L1960
.L2032:
	movq	%rax, %rbx
	jmp	.L1961
	.section	.gcc_except_table
.LLSDA7013:
	.byte	0xff
	.byte	0xff
	.byte	0x1
	.uleb128 .LLSDACSE7013-.LLSDACSB7013
.LLSDACSB7013:
	.uleb128 .LEHB48-.LFB7013
	.uleb128 .LEHE48-.LEHB48
	.uleb128 0
	.uleb128 0
	.uleb128 .LEHB49-.LFB7013
	.uleb128 .LEHE49-.LEHB49
	.uleb128 .L2032-.LFB7013
	.uleb128 0
	.uleb128 .LEHB50-.LFB7013
	.uleb128 .LEHE50-.LEHB50
	.uleb128 .L2033-.LFB7013
	.uleb128 0
.LLSDACSE7013:
	.text
	.cfi_endproc
	.section	.text.unlikely
	.cfi_startproc
	.cfi_personality 0x9b,DW.ref.__gxx_personality_v0
	.cfi_lsda 0x1b,.LLSDAC7013
	.type	_ZN7asiopal13SerialChannel4OpenERKNS_14SerialSettingsERSt10error_code.cold, @function
_ZN7asiopal13SerialChannel4OpenERKNS_14SerialSettingsERSt10error_code.cold:
.LFSB7013:
.L1960:
	.cfi_def_cfa_offset 192
	.cfi_offset 3, -56
	.cfi_offset 6, -48
	.cfi_offset 12, -40
	.cfi_offset 13, -32
	.cfi_offset 14, -24
	.cfi_offset 15, -16
	movq	16(%rsp), %rdi
	movl	$152, %esi
	call	_ZdlPvm@PLT
.L1961:
	movq	32(%rsp), %rdi
	call	pthread_mutex_unlock@PLT
	movq	%rbx, %rdi
.LEHB51:
	call	_Unwind_Resume@PLT
.LEHE51:
	.cfi_endproc
.LFE7013:
	.section	.gcc_except_table
.LLSDAC7013:
	.byte	0xff
	.byte	0xff
	.byte	0x1
	.uleb128 .LLSDACSEC7013-.LLSDACSBC7013
.LLSDACSBC7013:
	.uleb128 .LEHB51-.LCOLDB45
	.uleb128 .LEHE51-.LEHB51
	.uleb128 0
	.uleb128 0
.LLSDACSEC7013:
	.section	.text.unlikely
	.text
	.size	_ZN7asiopal13SerialChannel4OpenERKNS_14SerialSettingsERSt10error_code, .-_ZN7asiopal13SerialChannel4OpenERKNS_14SerialSettingsERSt10error_code
	.section	.text.unlikely
	.size	_ZN7asiopal13SerialChannel4OpenERKNS_14SerialSettingsERSt10error_code.cold, .-_ZN7asiopal13SerialChannel4OpenERKNS_14SerialSettingsERSt10error_code.cold
.LCOLDE45:
	.text
.LHOTE45:
	.section	.text._ZNSt16_Sp_counted_baseILN9__gnu_cxx12_Lock_policyE2EE24_M_release_last_use_coldEv,"axG",@progbits,_ZNSt16_Sp_counted_baseILN9__gnu_cxx12_Lock_policyE2EE24_M_release_last_use_coldEv,comdat
	.align 2
	.p2align 4
	.weak	_ZNSt16_Sp_counted_baseILN9__gnu_cxx12_Lock_policyE2EE24_M_release_last_use_coldEv
	.type	_ZNSt16_Sp_counted_baseILN9__gnu_cxx12_Lock_policyE2EE24_M_release_last_use_coldEv, @function
_ZNSt16_Sp_counted_baseILN9__gnu_cxx12_Lock_policyE2EE24_M_release_last_use_coldEv:
.LFB7286:
	.cfi_startproc
	pushq	%rbx
	.cfi_def_cfa_offset 16
	.cfi_offset 3, -16
	movq	(%rdi), %rax
	movq	%rdi, %rbx
	call	*16(%rax)
	movq	__libc_single_threaded@GOTPCREL(%rip), %rax
	cmpb	$0, (%rax)
	je	.L2176
	movl	12(%rbx), %eax
	leal	-1(%rax), %edx
	movl	%edx, 12(%rbx)
.L2177:
	cmpl	$1, %eax
	je	.L2180
	popq	%rbx
	.cfi_remember_state
	.cfi_def_cfa_offset 8
	ret
	.p2align 4,,10
	.p2align 3
.L2180:
	.cfi_restore_state
	movq	(%rbx), %rax
	movq	%rbx, %rdi
	popq	%rbx
	.cfi_remember_state
	.cfi_def_cfa_offset 8
	movq	24(%rax), %rax
	jmp	*%rax
	.p2align 4,,10
	.p2align 3
.L2176:
	.cfi_restore_state
	movl	$-1, %eax
	lock xaddl	%eax, 12(%rbx)
	jmp	.L2177
	.cfi_endproc
.LFE7286:
