	.file	"SocketChannel.cpp"
	.text
	.section	.rodata._ZNK4asio6detail15system_category4nameEv.str1.1,"aMS",@progbits,1
.LC0:
	.string	"asio.system"
	.section	.text._ZNK4asio6detail15system_category4nameEv,"axG",@progbits,_ZNK4asio6detail15system_category4nameEv,comdat
	.align 2
	.p2align 4
	.weak	_ZNK4asio6detail15system_category4nameEv
	.type	_ZNK4asio6detail15system_category4nameEv, @function
_ZNK4asio6detail15system_category4nameEv:
.LFB2285:
	.cfi_startproc
	leaq	.LC0(%rip), %rax
	ret
	.cfi_endproc
.LFE2285:
	.size	_ZNK4asio6detail15system_category4nameEv, .-_ZNK4asio6detail15system_category4nameEv
	.section	.rodata._ZNK4asio5error6detail14netdb_category4nameEv.str1.1,"aMS",@progbits,1
.LC1:
	.string	"asio.netdb"
	.section	.text._ZNK4asio5error6detail14netdb_category4nameEv,"axG",@progbits,_ZNK4asio5error6detail14netdb_category4nameEv,comdat
	.align 2
	.p2align 4
	.weak	_ZNK4asio5error6detail14netdb_category4nameEv
	.type	_ZNK4asio5error6detail14netdb_category4nameEv, @function
_ZNK4asio5error6detail14netdb_category4nameEv:
.LFB2329:
	.cfi_startproc
	leaq	.LC1(%rip), %rax
	ret
	.cfi_endproc
.LFE2329:
	.size	_ZNK4asio5error6detail14netdb_category4nameEv, .-_ZNK4asio5error6detail14netdb_category4nameEv
	.section	.rodata._ZNK4asio5error6detail17addrinfo_category4nameEv.str1.1,"aMS",@progbits,1
.LC2:
	.string	"asio.addrinfo"
	.section	.text._ZNK4asio5error6detail17addrinfo_category4nameEv,"axG",@progbits,_ZNK4asio5error6detail17addrinfo_category4nameEv,comdat
	.align 2
	.p2align 4
	.weak	_ZNK4asio5error6detail17addrinfo_category4nameEv
	.type	_ZNK4asio5error6detail17addrinfo_category4nameEv, @function
_ZNK4asio5error6detail17addrinfo_category4nameEv:
.LFB2339:
	.cfi_startproc
	leaq	.LC2(%rip), %rax
	ret
	.cfi_endproc
.LFE2339:
	.size	_ZNK4asio5error6detail17addrinfo_category4nameEv, .-_ZNK4asio5error6detail17addrinfo_category4nameEv
	.section	.rodata._ZNK4asio5error6detail13misc_category4nameEv.str1.1,"aMS",@progbits,1
.LC3:
	.string	"asio.misc"
	.section	.text._ZNK4asio5error6detail13misc_category4nameEv,"axG",@progbits,_ZNK4asio5error6detail13misc_category4nameEv,comdat
	.align 2
	.p2align 4
	.weak	_ZNK4asio5error6detail13misc_category4nameEv
	.type	_ZNK4asio5error6detail13misc_category4nameEv, @function
_ZNK4asio5error6detail13misc_category4nameEv:
.LFB2349:
	.cfi_startproc
	leaq	.LC3(%rip), %rax
	ret
	.cfi_endproc
.LFE2349:
	.size	_ZNK4asio5error6detail13misc_category4nameEv, .-_ZNK4asio5error6detail13misc_category4nameEv
	.section	.text._ZN4asio6detail7tss_ptrINS0_10call_stackINS0_14strand_service11strand_implEhE7contextEED2Ev,"axG",@progbits,_ZN4asio6detail7tss_ptrINS0_10call_stackINS0_14strand_service11strand_implEhE7contextEED5Ev,comdat
	.align 2
	.p2align 4
	.weak	_ZN4asio6detail7tss_ptrINS0_10call_stackINS0_14strand_service11strand_implEhE7contextEED2Ev
	.type	_ZN4asio6detail7tss_ptrINS0_10call_stackINS0_14strand_service11strand_implEhE7contextEED2Ev, @function
_ZN4asio6detail7tss_ptrINS0_10call_stackINS0_14strand_service11strand_implEhE7contextEED2Ev:
.LFB9471:
	.cfi_startproc
	ret
	.cfi_endproc
.LFE9471:
	.size	_ZN4asio6detail7tss_ptrINS0_10call_stackINS0_14strand_service11strand_implEhE7contextEED2Ev, .-_ZN4asio6detail7tss_ptrINS0_10call_stackINS0_14strand_service11strand_implEhE7contextEED2Ev
	.weak	_ZN4asio6detail7tss_ptrINS0_10call_stackINS0_14strand_service11strand_implEhE7contextEED1Ev
	.set	_ZN4asio6detail7tss_ptrINS0_10call_stackINS0_14strand_service11strand_implEhE7contextEED1Ev,_ZN4asio6detail7tss_ptrINS0_10call_stackINS0_14strand_service11strand_implEhE7contextEED2Ev
	.section	.text._ZN4asio6detail15system_categoryD2Ev,"axG",@progbits,_ZN4asio6detail15system_categoryD5Ev,comdat
	.align 2
	.p2align 4
	.weak	_ZN4asio6detail15system_categoryD2Ev
	.type	_ZN4asio6detail15system_categoryD2Ev, @function
_ZN4asio6detail15system_categoryD2Ev:
.LFB2297:
	.cfi_startproc
	movq	_ZTVN4asio6detail15system_categoryE@GOTPCREL(%rip), %rax
	addq	$16, %rax
	movq	%rax, (%rdi)
	jmp	_ZNSt3_V214error_categoryD2Ev@PLT
	.cfi_endproc
.LFE2297:
	.size	_ZN4asio6detail15system_categoryD2Ev, .-_ZN4asio6detail15system_categoryD2Ev
	.weak	_ZN4asio6detail15system_categoryD1Ev
	.set	_ZN4asio6detail15system_categoryD1Ev,_ZN4asio6detail15system_categoryD2Ev
	.section	.text._ZN4asio6detail15system_categoryD0Ev,"axG",@progbits,_ZN4asio6detail15system_categoryD5Ev,comdat
	.align 2
	.p2align 4
	.weak	_ZN4asio6detail15system_categoryD0Ev
	.type	_ZN4asio6detail15system_categoryD0Ev, @function
_ZN4asio6detail15system_categoryD0Ev:
.LFB2299:
	.cfi_startproc
	subq	$24, %rsp
	.cfi_def_cfa_offset 32
	movq	_ZTVN4asio6detail15system_categoryE@GOTPCREL(%rip), %rax
	movq	%rdi, 8(%rsp)
	addq	$16, %rax
	movq	%rax, (%rdi)
	call	_ZNSt3_V214error_categoryD2Ev@PLT
	movq	8(%rsp), %rdi
	movl	$8, %esi
	addq	$24, %rsp
	.cfi_def_cfa_offset 8
	jmp	_ZdlPvm@PLT
	.cfi_endproc
.LFE2299:
	.size	_ZN4asio6detail15system_categoryD0Ev, .-_ZN4asio6detail15system_categoryD0Ev
	.section	.text._ZN4asio5error6detail13misc_categoryD2Ev,"axG",@progbits,_ZN4asio5error6detail13misc_categoryD5Ev,comdat
	.align 2
	.p2align 4
	.weak	_ZN4asio5error6detail13misc_categoryD2Ev
	.type	_ZN4asio5error6detail13misc_categoryD2Ev, @function
_ZN4asio5error6detail13misc_categoryD2Ev:
.LFB2356:
	.cfi_startproc
	movq	_ZTVN4asio5error6detail13misc_categoryE@GOTPCREL(%rip), %rax
	addq	$16, %rax
	movq	%rax, (%rdi)
	jmp	_ZNSt3_V214error_categoryD2Ev@PLT
	.cfi_endproc
.LFE2356:
	.size	_ZN4asio5error6detail13misc_categoryD2Ev, .-_ZN4asio5error6detail13misc_categoryD2Ev
	.weak	_ZN4asio5error6detail13misc_categoryD1Ev
	.set	_ZN4asio5error6detail13misc_categoryD1Ev,_ZN4asio5error6detail13misc_categoryD2Ev
	.section	.text._ZN4asio5error6detail13misc_categoryD0Ev,"axG",@progbits,_ZN4asio5error6detail13misc_categoryD5Ev,comdat
	.align 2
	.p2align 4
	.weak	_ZN4asio5error6detail13misc_categoryD0Ev
	.type	_ZN4asio5error6detail13misc_categoryD0Ev, @function
_ZN4asio5error6detail13misc_categoryD0Ev:
.LFB2358:
	.cfi_startproc
	subq	$24, %rsp
	.cfi_def_cfa_offset 32
	movq	_ZTVN4asio5error6detail13misc_categoryE@GOTPCREL(%rip), %rax
	movq	%rdi, 8(%rsp)
	addq	$16, %rax
	movq	%rax, (%rdi)
	call	_ZNSt3_V214error_categoryD2Ev@PLT
	movq	8(%rsp), %rdi
	movl	$8, %esi
	addq	$24, %rsp
	.cfi_def_cfa_offset 8
	jmp	_ZdlPvm@PLT
	.cfi_endproc
.LFE2358:
	.size	_ZN4asio5error6detail13misc_categoryD0Ev, .-_ZN4asio5error6detail13misc_categoryD0Ev
	.section	.text._ZN4asio5error6detail14netdb_categoryD2Ev,"axG",@progbits,_ZN4asio5error6detail14netdb_categoryD5Ev,comdat
	.align 2
	.p2align 4
	.weak	_ZN4asio5error6detail14netdb_categoryD2Ev
	.type	_ZN4asio5error6detail14netdb_categoryD2Ev, @function
_ZN4asio5error6detail14netdb_categoryD2Ev:
.LFB2336:
	.cfi_startproc
	movq	_ZTVN4asio5error6detail14netdb_categoryE@GOTPCREL(%rip), %rax
	addq	$16, %rax
	movq	%rax, (%rdi)
	jmp	_ZNSt3_V214error_categoryD2Ev@PLT
	.cfi_endproc
.LFE2336:
	.size	_ZN4asio5error6detail14netdb_categoryD2Ev, .-_ZN4asio5error6detail14netdb_categoryD2Ev
	.weak	_ZN4asio5error6detail14netdb_categoryD1Ev
	.set	_ZN4asio5error6detail14netdb_categoryD1Ev,_ZN4asio5error6detail14netdb_categoryD2Ev
	.section	.text._ZN4asio5error6detail14netdb_categoryD0Ev,"axG",@progbits,_ZN4asio5error6detail14netdb_categoryD5Ev,comdat
	.align 2
	.p2align 4
	.weak	_ZN4asio5error6detail14netdb_categoryD0Ev
	.type	_ZN4asio5error6detail14netdb_categoryD0Ev, @function
_ZN4asio5error6detail14netdb_categoryD0Ev:
.LFB2338:
	.cfi_startproc
	subq	$24, %rsp
	.cfi_def_cfa_offset 32
	movq	_ZTVN4asio5error6detail14netdb_categoryE@GOTPCREL(%rip), %rax
	movq	%rdi, 8(%rsp)
	addq	$16, %rax
	movq	%rax, (%rdi)
	call	_ZNSt3_V214error_categoryD2Ev@PLT
	movq	8(%rsp), %rdi
	movl	$8, %esi
	addq	$24, %rsp
	.cfi_def_cfa_offset 8
	jmp	_ZdlPvm@PLT
	.cfi_endproc
.LFE2338:
	.size	_ZN4asio5error6detail14netdb_categoryD0Ev, .-_ZN4asio5error6detail14netdb_categoryD0Ev
	.section	.text._ZN4asio5error6detail17addrinfo_categoryD2Ev,"axG",@progbits,_ZN4asio5error6detail17addrinfo_categoryD5Ev,comdat
	.align 2
	.p2align 4
	.weak	_ZN4asio5error6detail17addrinfo_categoryD2Ev
	.type	_ZN4asio5error6detail17addrinfo_categoryD2Ev, @function
_ZN4asio5error6detail17addrinfo_categoryD2Ev:
.LFB2346:
	.cfi_startproc
	movq	_ZTVN4asio5error6detail17addrinfo_categoryE@GOTPCREL(%rip), %rax
	addq	$16, %rax
	movq	%rax, (%rdi)
	jmp	_ZNSt3_V214error_categoryD2Ev@PLT
	.cfi_endproc
.LFE2346:
	.size	_ZN4asio5error6detail17addrinfo_categoryD2Ev, .-_ZN4asio5error6detail17addrinfo_categoryD2Ev
	.weak	_ZN4asio5error6detail17addrinfo_categoryD1Ev
	.set	_ZN4asio5error6detail17addrinfo_categoryD1Ev,_ZN4asio5error6detail17addrinfo_categoryD2Ev
	.section	.text._ZN4asio5error6detail17addrinfo_categoryD0Ev,"axG",@progbits,_ZN4asio5error6detail17addrinfo_categoryD5Ev,comdat
	.align 2
	.p2align 4
	.weak	_ZN4asio5error6detail17addrinfo_categoryD0Ev
	.type	_ZN4asio5error6detail17addrinfo_categoryD0Ev, @function
_ZN4asio5error6detail17addrinfo_categoryD0Ev:
.LFB2348:
	.cfi_startproc
	subq	$24, %rsp
	.cfi_def_cfa_offset 32
	movq	_ZTVN4asio5error6detail17addrinfo_categoryE@GOTPCREL(%rip), %rax
	movq	%rdi, 8(%rsp)
	addq	$16, %rax
	movq	%rax, (%rdi)
	call	_ZNSt3_V214error_categoryD2Ev@PLT
	movq	8(%rsp), %rdi
	movl	$8, %esi
	addq	$24, %rsp
	.cfi_def_cfa_offset 8
	jmp	_ZdlPvm@PLT
	.cfi_endproc
.LFE2348:
	.size	_ZN4asio5error6detail17addrinfo_categoryD0Ev, .-_ZN4asio5error6detail17addrinfo_categoryD0Ev
	.section	.text.unlikely,"ax",@progbits
	.align 2
	.type	_ZN4asio6detail18completion_handlerINS0_7binder2IZN7asiopal13SocketChannel13BeginReadImplEN7openpal6WSliceEEUlRKSt10error_codemE_S7_mEEE3ptr5resetEv, @function
_ZN4asio6detail18completion_handlerINS0_7binder2IZN7asiopal13SocketChannel13BeginReadImplEN7openpal6WSliceEEUlRKSt10error_codemE_S7_mEEE3ptr5resetEv:
.LFB9419:
	.cfi_startproc
	pushq	%rbp
	.cfi_def_cfa_offset 16
	.cfi_offset 6, -16
	pushq	%rbx
	.cfi_def_cfa_offset 24
	.cfi_offset 3, -24
	pushq	%rsi
	.cfi_def_cfa_offset 32
	cmpq	$0, 16(%rdi)
	je	.L20
	xorl	%ecx, %ecx
	movq	%rcx, 16(%rdi)
.L20:
	movq	8(%rdi), %rbp
	testq	%rbp, %rbp
	je	.L19
	movq	%rdi, %rbx
	data16	leaq	_ZN4asio6detail15keyword_tss_ptrINS0_10call_stackINS0_15task_io_serviceENS0_27task_io_service_thread_infoEE7contextEE6value_E@tlsgd(%rip), %rdi
	.value	0x6666
	rex64
	call	__tls_get_addr@PLT
	movq	(%rax), %rax
	testq	%rax, %rax
	je	.L22
	movq	8(%rax), %rax
	testq	%rax, %rax
	je	.L22
	cmpq	$0, (%rax)
	jne	.L22
	movb	56(%rbp), %dl
	movb	%dl, 0(%rbp)
	movq	%rbp, (%rax)
	jmp	.L23
.L22:
	movq	%rbp, %rdi
	call	_ZdlPv@PLT
.L23:
	xorl	%edx, %edx
	movq	%rdx, 8(%rbx)
.L19:
	popq	%rax
	.cfi_def_cfa_offset 24
	popq	%rbx
	.cfi_def_cfa_offset 16
	popq	%rbp
	.cfi_def_cfa_offset 8
	ret
	.cfi_endproc
.LFE9419:
	.size	_ZN4asio6detail18completion_handlerINS0_7binder2IZN7asiopal13SocketChannel13BeginReadImplEN7openpal6WSliceEEUlRKSt10error_codemE_S7_mEEE3ptr5resetEv, .-_ZN4asio6detail18completion_handlerINS0_7binder2IZN7asiopal13SocketChannel13BeginReadImplEN7openpal6WSliceEEUlRKSt10error_codemE_S7_mEEE3ptr5resetEv
	.align 2
	.type	_ZN4asio6detail18completion_handlerINS0_17rewrapped_handlerINS0_7binder2INS0_15wrapped_handlerINS_10io_service6strandEZN7asiopal13SocketChannel13BeginReadImplEN7openpal6WSliceEEUlRKSt10error_codemE_NS0_26is_continuation_if_runningEEESB_mEESE_EEE3ptr5resetEv, @function
_ZN4asio6detail18completion_handlerINS0_17rewrapped_handlerINS0_7binder2INS0_15wrapped_handlerINS_10io_service6strandEZN7asiopal13SocketChannel13BeginReadImplEN7openpal6WSliceEEUlRKSt10error_codemE_NS0_26is_continuation_if_runningEEESB_mEESE_EEE3ptr5resetEv:
.LFB9332:
	.cfi_startproc
	pushq	%rbp
	.cfi_def_cfa_offset 16
	.cfi_offset 6, -16
	pushq	%rbx
	.cfi_def_cfa_offset 24
	.cfi_offset 3, -24
	pushq	%rsi
	.cfi_def_cfa_offset 32
	cmpq	$0, 16(%rdi)
	je	.L35
	xorl	%ecx, %ecx
	movq	%rcx, 16(%rdi)
.L35:
	movq	8(%rdi), %rbp
	testq	%rbp, %rbp
	je	.L34
	movq	%rdi, %rbx
	data16	leaq	_ZN4asio6detail15keyword_tss_ptrINS0_10call_stackINS0_15task_io_serviceENS0_27task_io_service_thread_infoEE7contextEE6value_E@tlsgd(%rip), %rdi
	.value	0x6666
	rex64
	call	__tls_get_addr@PLT
	movq	(%rax), %rax
	testq	%rax, %rax
	je	.L37
	movq	8(%rax), %rax
	testq	%rax, %rax
	je	.L37
	cmpq	$0, (%rax)
	jne	.L37
	movb	80(%rbp), %dl
	movb	%dl, 0(%rbp)
	movq	%rbp, (%rax)
	jmp	.L38
.L37:
	movq	%rbp, %rdi
	call	_ZdlPv@PLT
.L38:
	xorl	%edx, %edx
	movq	%rdx, 8(%rbx)
.L34:
	popq	%rax
	.cfi_def_cfa_offset 24
	popq	%rbx
	.cfi_def_cfa_offset 16
	popq	%rbp
	.cfi_def_cfa_offset 8
	ret
	.cfi_endproc
.LFE9332:
	.size	_ZN4asio6detail18completion_handlerINS0_17rewrapped_handlerINS0_7binder2INS0_15wrapped_handlerINS_10io_service6strandEZN7asiopal13SocketChannel13BeginReadImplEN7openpal6WSliceEEUlRKSt10error_codemE_NS0_26is_continuation_if_runningEEESB_mEESE_EEE3ptr5resetEv, .-_ZN4asio6detail18completion_handlerINS0_17rewrapped_handlerINS0_7binder2INS0_15wrapped_handlerINS_10io_service6strandEZN7asiopal13SocketChannel13BeginReadImplEN7openpal6WSliceEEUlRKSt10error_codemE_NS0_26is_continuation_if_runningEEESB_mEESE_EEE3ptr5resetEv
	.align 2
	.type	_ZN4asio6detail18completion_handlerINS0_7binder2IZN7asiopal13SocketChannel14BeginWriteImplERKN7openpal6RSliceEEUlRKSt10error_codemE_S9_mEEE3ptr5resetEv, @function
_ZN4asio6detail18completion_handlerINS0_7binder2IZN7asiopal13SocketChannel14BeginWriteImplERKN7openpal6RSliceEEUlRKSt10error_codemE_S9_mEEE3ptr5resetEv:
.LFB9247:
	.cfi_startproc
	pushq	%rbp
	.cfi_def_cfa_offset 16
	.cfi_offset 6, -16
	pushq	%rbx
	.cfi_def_cfa_offset 24
	.cfi_offset 3, -24
	pushq	%rsi
	.cfi_def_cfa_offset 32
	cmpq	$0, 16(%rdi)
	je	.L50
	xorl	%ecx, %ecx
	movq	%rcx, 16(%rdi)
.L50:
	movq	8(%rdi), %rbp
	testq	%rbp, %rbp
	je	.L49
	movq	%rdi, %rbx
	data16	leaq	_ZN4asio6detail15keyword_tss_ptrINS0_10call_stackINS0_15task_io_serviceENS0_27task_io_service_thread_infoEE7contextEE6value_E@tlsgd(%rip), %rdi
	.value	0x6666
	rex64
	call	__tls_get_addr@PLT
	movq	(%rax), %rax
	testq	%rax, %rax
	je	.L52
	movq	8(%rax), %rax
	testq	%rax, %rax
	je	.L52
	cmpq	$0, (%rax)
	jne	.L52
	movb	56(%rbp), %dl
	movb	%dl, 0(%rbp)
	movq	%rbp, (%rax)
	jmp	.L53
.L52:
	movq	%rbp, %rdi
	call	_ZdlPv@PLT
.L53:
	xorl	%edx, %edx
	movq	%rdx, 8(%rbx)
.L49:
	popq	%rax
	.cfi_def_cfa_offset 24
	popq	%rbx
	.cfi_def_cfa_offset 16
	popq	%rbp
	.cfi_def_cfa_offset 8
	ret
	.cfi_endproc
.LFE9247:
	.size	_ZN4asio6detail18completion_handlerINS0_7binder2IZN7asiopal13SocketChannel14BeginWriteImplERKN7openpal6RSliceEEUlRKSt10error_codemE_S9_mEEE3ptr5resetEv, .-_ZN4asio6detail18completion_handlerINS0_7binder2IZN7asiopal13SocketChannel14BeginWriteImplERKN7openpal6RSliceEEUlRKSt10error_codemE_S9_mEEE3ptr5resetEv
	.align 2
	.type	_ZN4asio6detail23reactive_socket_recv_opINS_17mutable_buffers_1ENS0_15wrapped_handlerINS_10io_service6strandEZN7asiopal13SocketChannel13BeginReadImplEN7openpal6WSliceEEUlRKSt10error_codemE_NS0_26is_continuation_if_runningEEEE3ptr5resetEv, @function
_ZN4asio6detail23reactive_socket_recv_opINS_17mutable_buffers_1ENS0_15wrapped_handlerINS_10io_service6strandEZN7asiopal13SocketChannel13BeginReadImplEN7openpal6WSliceEEUlRKSt10error_codemE_NS0_26is_continuation_if_runningEEEE3ptr5resetEv:
.LFB8965:
	.cfi_startproc
	pushq	%rbp
	.cfi_def_cfa_offset 16
	.cfi_offset 6, -16
	pushq	%rbx
	.cfi_def_cfa_offset 24
	.cfi_offset 3, -24
	pushq	%rsi
	.cfi_def_cfa_offset 32
	cmpq	$0, 16(%rdi)
	je	.L65
	xorl	%ecx, %ecx
	movq	%rcx, 16(%rdi)
.L65:
	movq	8(%rdi), %rbp
	testq	%rbp, %rbp
	je	.L64
	movq	%rdi, %rbx
	data16	leaq	_ZN4asio6detail15keyword_tss_ptrINS0_10call_stackINS0_15task_io_serviceENS0_27task_io_service_thread_infoEE7contextEE6value_E@tlsgd(%rip), %rdi
	.value	0x6666
	rex64
	call	__tls_get_addr@PLT
	movq	(%rax), %rax
	testq	%rax, %rax
	je	.L67
	movq	8(%rax), %rax
	testq	%rax, %rax
	je	.L67
	cmpq	$0, (%rax)
	jne	.L67
	movb	112(%rbp), %dl
	movb	%dl, 0(%rbp)
	movq	%rbp, (%rax)
	jmp	.L68
.L67:
	movq	%rbp, %rdi
	call	_ZdlPv@PLT
.L68:
	xorl	%edx, %edx
	movq	%rdx, 8(%rbx)
.L64:
	popq	%rax
	.cfi_def_cfa_offset 24
	popq	%rbx
	.cfi_def_cfa_offset 16
	popq	%rbp
	.cfi_def_cfa_offset 8
	ret
	.cfi_endproc
.LFE8965:
	.size	_ZN4asio6detail23reactive_socket_recv_opINS_17mutable_buffers_1ENS0_15wrapped_handlerINS_10io_service6strandEZN7asiopal13SocketChannel13BeginReadImplEN7openpal6WSliceEEUlRKSt10error_codemE_NS0_26is_continuation_if_runningEEEE3ptr5resetEv, .-_ZN4asio6detail23reactive_socket_recv_opINS_17mutable_buffers_1ENS0_15wrapped_handlerINS_10io_service6strandEZN7asiopal13SocketChannel13BeginReadImplEN7openpal6WSliceEEUlRKSt10error_codemE_NS0_26is_continuation_if_runningEEEE3ptr5resetEv
	.align 2
	.type	_ZN4asio6detail23reactive_socket_send_opINS_15const_buffers_1ENS0_8write_opINS_19basic_stream_socketINS_2ip3tcpENS_21stream_socket_serviceIS6_EEEES2_NS0_14transfer_all_tENS0_15wrapped_handlerINS_10io_service6strandEZN7asiopal13SocketChannel14BeginWriteImplERKN7openpal6RSliceEEUlRKSt10error_codemE_NS0_26is_continuation_if_runningEEEEEE3ptr5resetEv, @function
_ZN4asio6detail23reactive_socket_send_opINS_15const_buffers_1ENS0_8write_opINS_19basic_stream_socketINS_2ip3tcpENS_21stream_socket_serviceIS6_EEEES2_NS0_14transfer_all_tENS0_15wrapped_handlerINS_10io_service6strandEZN7asiopal13SocketChannel14BeginWriteImplERKN7openpal6RSliceEEUlRKSt10error_codemE_NS0_26is_continuation_if_runningEEEEEE3ptr5resetEv:
.LFB9233:
	.cfi_startproc
	pushq	%rbp
	.cfi_def_cfa_offset 16
	.cfi_offset 6, -16
	pushq	%rbx
	.cfi_def_cfa_offset 24
	.cfi_offset 3, -24
	pushq	%rsi
	.cfi_def_cfa_offset 32
	cmpq	$0, 16(%rdi)
	je	.L80
	xorl	%ecx, %ecx
	movq	%rcx, 16(%rdi)
.L80:
	movq	8(%rdi), %rbp
	testq	%rbp, %rbp
	je	.L79
	movq	%rdi, %rbx
	data16	leaq	_ZN4asio6detail15keyword_tss_ptrINS0_10call_stackINS0_15task_io_serviceENS0_27task_io_service_thread_infoEE7contextEE6value_E@tlsgd(%rip), %rdi
	.value	0x6666
	rex64
	call	__tls_get_addr@PLT
	movq	(%rax), %rax
	testq	%rax, %rax
	je	.L82
	movq	8(%rax), %rax
	testq	%rax, %rax
	je	.L82
	cmpq	$0, (%rax)
	jne	.L82
	movb	152(%rbp), %dl
	movb	%dl, 0(%rbp)
	movq	%rbp, (%rax)
	jmp	.L83
.L82:
	movq	%rbp, %rdi
	call	_ZdlPv@PLT
.L83:
	xorl	%edx, %edx
	movq	%rdx, 8(%rbx)
.L79:
	popq	%rax
	.cfi_def_cfa_offset 24
	popq	%rbx
	.cfi_def_cfa_offset 16
	popq	%rbp
	.cfi_def_cfa_offset 8
	ret
	.cfi_endproc
.LFE9233:
	.size	_ZN4asio6detail23reactive_socket_send_opINS_15const_buffers_1ENS0_8write_opINS_19basic_stream_socketINS_2ip3tcpENS_21stream_socket_serviceIS6_EEEES2_NS0_14transfer_all_tENS0_15wrapped_handlerINS_10io_service6strandEZN7asiopal13SocketChannel14BeginWriteImplERKN7openpal6RSliceEEUlRKSt10error_codemE_NS0_26is_continuation_if_runningEEEEEE3ptr5resetEv, .-_ZN4asio6detail23reactive_socket_send_opINS_15const_buffers_1ENS0_8write_opINS_19basic_stream_socketINS_2ip3tcpENS_21stream_socket_serviceIS6_EEEES2_NS0_14transfer_all_tENS0_15wrapped_handlerINS_10io_service6strandEZN7asiopal13SocketChannel14BeginWriteImplERKN7openpal6RSliceEEUlRKSt10error_codemE_NS0_26is_continuation_if_runningEEEEEE3ptr5resetEv
.LCOLDB4:
	.text
.LHOTB4:
	.p2align 4
	.type	_ZN4asio6detail18completion_handlerINS0_7binder2IZN7asiopal13SocketChannel13BeginReadImplEN7openpal6WSliceEEUlRKSt10error_codemE_S7_mEEE11do_completeEPNS0_15task_io_serviceEPNS0_25task_io_service_operationES9_m, @function
_ZN4asio6detail18completion_handlerINS0_7binder2IZN7asiopal13SocketChannel13BeginReadImplEN7openpal6WSliceEEUlRKSt10error_codemE_S7_mEEE11do_completeEPNS0_15task_io_serviceEPNS0_25task_io_service_operationES9_m:
.LFB9414:
	.cfi_startproc
	.cfi_personality 0x9b,DW.ref.__gxx_personality_v0
	.cfi_lsda 0x1b,.LLSDA9414
	pushq	%rbp
	.cfi_def_cfa_offset 16
	.cfi_offset 6, -16
	movq	%rdi, %rbp
	pushq	%rbx
	.cfi_def_cfa_offset 24
	.cfi_offset 3, -24
	movq	%rsi, %rbx
	subq	$72, %rsp
	.cfi_def_cfa_offset 96
	movdqu	24(%rsi), %xmm0
	leaq	32(%rsp), %rax
	movaps	%xmm0, 32(%rsp)
	movdqu	40(%rsi), %xmm0
	movq	%rax, (%rsp)
	movaps	%xmm0, 48(%rsp)
	data16	leaq	_ZN4asio6detail15keyword_tss_ptrINS0_10call_stackINS0_15task_io_serviceENS0_27task_io_service_thread_infoEE7contextEE6value_E@tlsgd(%rip), %rdi
	.value	0x6666
	rex64
	call	__tls_get_addr@PLT
	movq	(%rax), %rax
	testq	%rax, %rax
	je	.L112
	movq	8(%rax), %rax
	testq	%rax, %rax
	je	.L112
	cmpq	$0, (%rax)
	je	.L113
.L112:
	movq	%rbx, %rdi
	call	_ZdlPv@PLT
.L111:
	testq	%rbp, %rbp
	je	.L94
	movq	32(%rsp), %rax
	movq	56(%rsp), %rdx
	movq	40(%rax), %rdi
	movb	$0, 57(%rax)
	testq	%rdi, %rdi
	je	.L99
	cmpb	$0, 56(%rax)
	je	.L114
.L99:
	sfence
.L94:
	addq	$72, %rsp
	.cfi_remember_state
	.cfi_def_cfa_offset 24
	popq	%rbx
	.cfi_def_cfa_offset 16
	popq	%rbp
	.cfi_def_cfa_offset 8
	ret
	.p2align 4,,10
	.p2align 3
.L114:
	.cfi_restore_state
	movq	(%rdi), %rax
	leaq	40(%rsp), %rsi
.LEHB0:
	call	*16(%rax)
.LEHE0:
	jmp	.L99
	.p2align 4,,10
	.p2align 3
.L113:
	movzbl	56(%rbx), %edx
	movb	%dl, (%rbx)
	movq	%rbx, (%rax)
	jmp	.L111
.L103:
	movq	%rax, %rbx
	jmp	.L102
	.section	.gcc_except_table,"a",@progbits
.LLSDA9414:
	.byte	0xff
	.byte	0xff
	.byte	0x1
	.uleb128 .LLSDACSE9414-.LLSDACSB9414
.LLSDACSB9414:
	.uleb128 .LEHB0-.LFB9414
	.uleb128 .LEHE0-.LEHB0
	.uleb128 .L103-.LFB9414
	.uleb128 0
.LLSDACSE9414:
	.text
	.cfi_endproc
	.section	.text.unlikely
	.cfi_startproc
	.cfi_personality 0x9b,DW.ref.__gxx_personality_v0
	.cfi_lsda 0x1b,.LLSDAC9414
	.type	_ZN4asio6detail18completion_handlerINS0_7binder2IZN7asiopal13SocketChannel13BeginReadImplEN7openpal6WSliceEEUlRKSt10error_codemE_S7_mEEE11do_completeEPNS0_15task_io_serviceEPNS0_25task_io_service_operationES9_m.cold, @function
_ZN4asio6detail18completion_handlerINS0_7binder2IZN7asiopal13SocketChannel13BeginReadImplEN7openpal6WSliceEEUlRKSt10error_codemE_S7_mEEE11do_completeEPNS0_15task_io_serviceEPNS0_25task_io_service_operationES9_m.cold:
.LFSB9414:
.L102:
	.cfi_def_cfa_offset 96
	.cfi_offset 3, -24
	.cfi_offset 6, -16
	sfence
	pxor	%xmm0, %xmm0
	movq	%rsp, %rdi
	movups	%xmm0, 8(%rsp)
	call	_ZN4asio6detail18completion_handlerINS0_7binder2IZN7asiopal13SocketChannel13BeginReadImplEN7openpal6WSliceEEUlRKSt10error_codemE_S7_mEEE3ptr5resetEv
	movq	%rbx, %rdi
.LEHB1:
	call	_Unwind_Resume@PLT
.LEHE1:
	.cfi_endproc
.LFE9414:
	.section	.gcc_except_table
.LLSDAC9414:
	.byte	0xff
	.byte	0xff
	.byte	0x1
	.uleb128 .LLSDACSEC9414-.LLSDACSBC9414
.LLSDACSBC9414:
	.uleb128 .LEHB1-.LCOLDB4
	.uleb128 .LEHE1-.LEHB1
	.uleb128 0
	.uleb128 0
.LLSDACSEC9414:
	.section	.text.unlikely
	.text
	.size	_ZN4asio6detail18completion_handlerINS0_7binder2IZN7asiopal13SocketChannel13BeginReadImplEN7openpal6WSliceEEUlRKSt10error_codemE_S7_mEEE11do_completeEPNS0_15task_io_serviceEPNS0_25task_io_service_operationES9_m, .-_ZN4asio6detail18completion_handlerINS0_7binder2IZN7asiopal13SocketChannel13BeginReadImplEN7openpal6WSliceEEUlRKSt10error_codemE_S7_mEEE11do_completeEPNS0_15task_io_serviceEPNS0_25task_io_service_operationES9_m
	.section	.text.unlikely
	.size	_ZN4asio6detail18completion_handlerINS0_7binder2IZN7asiopal13SocketChannel13BeginReadImplEN7openpal6WSliceEEUlRKSt10error_codemE_S7_mEEE11do_completeEPNS0_15task_io_serviceEPNS0_25task_io_service_operationES9_m.cold, .-_ZN4asio6detail18completion_handlerINS0_7binder2IZN7asiopal13SocketChannel13BeginReadImplEN7openpal6WSliceEEUlRKSt10error_codemE_S7_mEEE11do_completeEPNS0_15task_io_serviceEPNS0_25task_io_service_operationES9_m.cold
.LCOLDE4:
	.text
.LHOTE4:
	.section	.text.unlikely
.LCOLDB5:
	.text
.LHOTB5:
	.p2align 4
	.type	_ZN4asio6detail18completion_handlerINS0_7binder2IZN7asiopal13SocketChannel14BeginWriteImplERKN7openpal6RSliceEEUlRKSt10error_codemE_S9_mEEE11do_completeEPNS0_15task_io_serviceEPNS0_25task_io_service_operationESB_m, @function
_ZN4asio6detail18completion_handlerINS0_7binder2IZN7asiopal13SocketChannel14BeginWriteImplERKN7openpal6RSliceEEUlRKSt10error_codemE_S9_mEEE11do_completeEPNS0_15task_io_serviceEPNS0_25task_io_service_operationESB_m:
.LFB9154:
	.cfi_startproc
	.cfi_personality 0x9b,DW.ref.__gxx_personality_v0
	.cfi_lsda 0x1b,.LLSDA9154
	pushq	%rbp
	.cfi_def_cfa_offset 16
	.cfi_offset 6, -16
	movq	%rdi, %rbp
	pushq	%rbx
	.cfi_def_cfa_offset 24
	.cfi_offset 3, -24
	movq	%rsi, %rbx
	subq	$72, %rsp
	.cfi_def_cfa_offset 96
	movdqu	24(%rsi), %xmm0
	leaq	32(%rsp), %rax
	movaps	%xmm0, 32(%rsp)
	movdqu	40(%rsi), %xmm0
	movq	%rax, (%rsp)
	movaps	%xmm0, 48(%rsp)
	data16	leaq	_ZN4asio6detail15keyword_tss_ptrINS0_10call_stackINS0_15task_io_serviceENS0_27task_io_service_thread_infoEE7contextEE6value_E@tlsgd(%rip), %rdi
	.value	0x6666
	rex64
	call	__tls_get_addr@PLT
	movq	(%rax), %rax
	testq	%rax, %rax
	je	.L133
	movq	8(%rax), %rax
	testq	%rax, %rax
	je	.L133
	cmpq	$0, (%rax)
	je	.L134
.L133:
	movq	%rbx, %rdi
	call	_ZdlPv@PLT
.L132:
	testq	%rbp, %rbp
	je	.L115
	movq	32(%rsp), %rax
	movq	56(%rsp), %rdx
	movq	40(%rax), %rdi
	movb	$0, 58(%rax)
	testq	%rdi, %rdi
	je	.L120
	cmpb	$0, 56(%rax)
	je	.L135
.L120:
	sfence
.L115:
	addq	$72, %rsp
	.cfi_remember_state
	.cfi_def_cfa_offset 24
	popq	%rbx
	.cfi_def_cfa_offset 16
	popq	%rbp
	.cfi_def_cfa_offset 8
	ret
	.p2align 4,,10
	.p2align 3
.L135:
	.cfi_restore_state
	movq	(%rdi), %rax
	leaq	40(%rsp), %rsi
.LEHB2:
	call	*24(%rax)
.LEHE2:
	jmp	.L120
	.p2align 4,,10
	.p2align 3
.L134:
	movzbl	56(%rbx), %edx
	movb	%dl, (%rbx)
	movq	%rbx, (%rax)
	jmp	.L132
.L124:
	movq	%rax, %rbx
	jmp	.L123
	.section	.gcc_except_table
.LLSDA9154:
	.byte	0xff
	.byte	0xff
	.byte	0x1
	.uleb128 .LLSDACSE9154-.LLSDACSB9154
.LLSDACSB9154:
	.uleb128 .LEHB2-.LFB9154
	.uleb128 .LEHE2-.LEHB2
	.uleb128 .L124-.LFB9154
	.uleb128 0
.LLSDACSE9154:
	.text
	.cfi_endproc
	.section	.text.unlikely
	.cfi_startproc
	.cfi_personality 0x9b,DW.ref.__gxx_personality_v0
	.cfi_lsda 0x1b,.LLSDAC9154
	.type	_ZN4asio6detail18completion_handlerINS0_7binder2IZN7asiopal13SocketChannel14BeginWriteImplERKN7openpal6RSliceEEUlRKSt10error_codemE_S9_mEEE11do_completeEPNS0_15task_io_serviceEPNS0_25task_io_service_operationESB_m.cold, @function
_ZN4asio6detail18completion_handlerINS0_7binder2IZN7asiopal13SocketChannel14BeginWriteImplERKN7openpal6RSliceEEUlRKSt10error_codemE_S9_mEEE11do_completeEPNS0_15task_io_serviceEPNS0_25task_io_service_operationESB_m.cold:
.LFSB9154:
.L123:
	.cfi_def_cfa_offset 96
	.cfi_offset 3, -24
	.cfi_offset 6, -16
	sfence
	pxor	%xmm0, %xmm0
	movq	%rsp, %rdi
	movups	%xmm0, 8(%rsp)
	call	_ZN4asio6detail18completion_handlerINS0_7binder2IZN7asiopal13SocketChannel14BeginWriteImplERKN7openpal6RSliceEEUlRKSt10error_codemE_S9_mEEE3ptr5resetEv
	movq	%rbx, %rdi
.LEHB3:
	call	_Unwind_Resume@PLT
.LEHE3:
	.cfi_endproc
.LFE9154:
	.section	.gcc_except_table
.LLSDAC9154:
	.byte	0xff
	.byte	0xff
	.byte	0x1
	.uleb128 .LLSDACSEC9154-.LLSDACSBC9154
.LLSDACSBC9154:
	.uleb128 .LEHB3-.LCOLDB5
	.uleb128 .LEHE3-.LEHB3
	.uleb128 0
	.uleb128 0
.LLSDACSEC9154:
	.section	.text.unlikely
	.text
	.size	_ZN4asio6detail18completion_handlerINS0_7binder2IZN7asiopal13SocketChannel14BeginWriteImplERKN7openpal6RSliceEEUlRKSt10error_codemE_S9_mEEE11do_completeEPNS0_15task_io_serviceEPNS0_25task_io_service_operationESB_m, .-_ZN4asio6detail18completion_handlerINS0_7binder2IZN7asiopal13SocketChannel14BeginWriteImplERKN7openpal6RSliceEEUlRKSt10error_codemE_S9_mEEE11do_completeEPNS0_15task_io_serviceEPNS0_25task_io_service_operationESB_m
	.section	.text.unlikely
	.size	_ZN4asio6detail18completion_handlerINS0_7binder2IZN7asiopal13SocketChannel14BeginWriteImplERKN7openpal6RSliceEEUlRKSt10error_codemE_S9_mEEE11do_completeEPNS0_15task_io_serviceEPNS0_25task_io_service_operationESB_m.cold, .-_ZN4asio6detail18completion_handlerINS0_7binder2IZN7asiopal13SocketChannel14BeginWriteImplERKN7openpal6RSliceEEUlRKSt10error_codemE_S9_mEEE11do_completeEPNS0_15task_io_serviceEPNS0_25task_io_service_operationESB_m.cold
.LCOLDE5:
	.text
.LHOTE5:
	.section	.rodata._ZNK4asio6detail15system_category7messageB5cxx11Ei.str1.8,"aMS",@progbits,1
	.align 8
.LC6:
	.string	"basic_string: construction from null is not valid"
	.section	.text._ZNK4asio6detail15system_category7messageB5cxx11Ei,"axG",@progbits,_ZNK4asio6detail15system_category7messageB5cxx11Ei,comdat
	.align 2
	.p2align 4
	.weak	_ZNK4asio6detail15system_category7messageB5cxx11Ei
	.type	_ZNK4asio6detail15system_category7messageB5cxx11Ei, @function
_ZNK4asio6detail15system_category7messageB5cxx11Ei:
.LFB2286:
	.cfi_startproc
	pushq	%r12
	.cfi_def_cfa_offset 16
	.cfi_offset 12, -16
	pushq	%rbp
	.cfi_def_cfa_offset 24
	.cfi_offset 6, -24
	pushq	%rbx
	.cfi_def_cfa_offset 32
	.cfi_offset 3, -32
	movq	%rdi, %rbx
	subq	$288, %rsp
	.cfi_def_cfa_offset 320
	cmpl	$125, %edx
	je	.L148
	pxor	%xmm0, %xmm0
	leaq	32(%rsp), %rsi
	leaq	16(%rbx), %rbp
	movl	%edx, %edi
	movl	$256, %edx
	movaps	%xmm0, 32(%rsp)
	movaps	%xmm0, 48(%rsp)
	movaps	%xmm0, 64(%rsp)
	movaps	%xmm0, 80(%rsp)
	movaps	%xmm0, 96(%rsp)
	movaps	%xmm0, 112(%rsp)
	movaps	%xmm0, 128(%rsp)
	movaps	%xmm0, 144(%rsp)
	movaps	%xmm0, 160(%rsp)
	movaps	%xmm0, 176(%rsp)
	movaps	%xmm0, 192(%rsp)
	movaps	%xmm0, 208(%rsp)
	movaps	%xmm0, 224(%rsp)
	movaps	%xmm0, 240(%rsp)
	movaps	%xmm0, 256(%rsp)
	movaps	%xmm0, 272(%rsp)
	call	strerror_r@PLT
	movq	%rbp, (%rbx)
	movq	%rax, %r12
	testq	%rax, %rax
	je	.L149
	movq	%rax, %rdi
	call	strlen@PLT
	movq	%rax, 24(%rsp)
	movq	%rax, %rcx
	cmpq	$15, %rax
	ja	.L150
	cmpq	$1, %rax
	jne	.L142
	movzbl	(%r12), %edx
	movb	%dl, 16(%rbx)
.L143:
	movq	%rax, 8(%rbx)
	movb	$0, 0(%rbp,%rax)
	addq	$288, %rsp
	.cfi_remember_state
	.cfi_def_cfa_offset 32
	movq	%rbx, %rax
	popq	%rbx
	.cfi_def_cfa_offset 24
	popq	%rbp
	.cfi_def_cfa_offset 16
	popq	%r12
	.cfi_def_cfa_offset 8
	ret
	.p2align 4,,10
	.p2align 3
.L150:
	.cfi_restore_state
	leaq	24(%rsp), %rsi
	xorl	%edx, %edx
	movq	%rbx, %rdi
	movq	%rax, 8(%rsp)
	call	_ZNSt7__cxx1112basic_stringIcSt11char_traitsIcESaIcEE9_M_createERmm@PLT
	movq	8(%rsp), %rcx
	movq	%rax, (%rbx)
	movq	%rax, %rbp
	movq	24(%rsp), %rax
	movq	%rax, 16(%rbx)
.L141:
	movq	%rbp, %rdi
	movq	%rcx, %rdx
	movq	%r12, %rsi
	call	memcpy@PLT
	movq	24(%rsp), %rax
	movq	(%rbx), %rbp
	jmp	.L143
	.p2align 4,,10
	.p2align 3
.L148:
	leaq	16(%rdi), %rax
	leaq	32(%rsp), %rsi
	xorl	%edx, %edx
	movq	$18, 32(%rsp)
	movq	%rax, (%rdi)
	call	_ZNSt7__cxx1112basic_stringIcSt11char_traitsIcESaIcEE9_M_createERmm@PLT
	movq	32(%rsp), %rdx
	movdqa	.LC7(%rip), %xmm0
	movq	%rax, (%rbx)
	movq	%rdx, 16(%rbx)
	movl	$11876, %edx
	movw	%dx, 16(%rax)
	movups	%xmm0, (%rax)
	movq	32(%rsp), %rax
	movq	(%rbx), %rdx
	movq	%rax, 8(%rbx)
	movb	$0, (%rdx,%rax)
	addq	$288, %rsp
	.cfi_remember_state
	.cfi_def_cfa_offset 32
	movq	%rbx, %rax
	popq	%rbx
	.cfi_def_cfa_offset 24
	popq	%rbp
	.cfi_def_cfa_offset 16
	popq	%r12
	.cfi_def_cfa_offset 8
	ret
	.p2align 4,,10
	.p2align 3
.L142:
	.cfi_restore_state
	testq	%rax, %rax
	je	.L143
	jmp	.L141
.L149:
	leaq	.LC6(%rip), %rdi
	call	_ZSt19__throw_logic_errorPKc@PLT
	.cfi_endproc
.LFE2286:
	.size	_ZNK4asio6detail15system_category7messageB5cxx11Ei, .-_ZNK4asio6detail15system_category7messageB5cxx11Ei
	.section	.text._ZN4asio6detail28reactive_socket_send_op_baseINS_15const_buffers_1EE10do_performEPNS0_10reactor_opE,"axG",@progbits,_ZN4asio6detail28reactive_socket_send_op_baseINS_15const_buffers_1EE10do_performEPNS0_10reactor_opE,comdat
	.p2align 4
	.weak	_ZN4asio6detail28reactive_socket_send_op_baseINS_15const_buffers_1EE10do_performEPNS0_10reactor_opE
	.type	_ZN4asio6detail28reactive_socket_send_op_baseINS_15const_buffers_1EE10do_performEPNS0_10reactor_opE, @function
_ZN4asio6detail28reactive_socket_send_op_baseINS_15const_buffers_1EE10do_performEPNS0_10reactor_opE:
.LFB9279:
	.cfi_startproc
	pushq	%r15
	.cfi_def_cfa_offset 16
	.cfi_offset 15, -16
	movq	%rdi, %r15
	pushq	%r14
	.cfi_def_cfa_offset 24
	.cfi_offset 14, -24
	pushq	%r13
	.cfi_def_cfa_offset 32
	.cfi_offset 13, -32
	pushq	%r12
	.cfi_def_cfa_offset 40
	.cfi_offset 12, -40
	pushq	%rbp
	.cfi_def_cfa_offset 48
	.cfi_offset 6, -48
	pushq	%rbx
	.cfi_def_cfa_offset 56
	.cfi_offset 3, -56
	subq	$120, %rsp
	.cfi_def_cfa_offset 176
	movq	64(%rdi), %rax
	movq	72(%rdi), %xmm0
	movl	80(%rdi), %ebx
	leaq	16(%rsp), %r14
	movq	%rax, 16(%rsp)
	movl	56(%rdi), %eax
	punpcklqdq	%xmm0, %xmm0
	movups	%xmm0, 24(%rsp)
	orb	$64, %bh
	movl	%eax, (%rsp)
	call	__errno_location@PLT
	movl	%ebx, 4(%rsp)
	movq	_ZZN4asio15system_categoryEvE8instance@GOTPCREL(%rip), %rbp
	movq	%rax, %r13
	leaq	48(%rsp), %rax
	movq	_ZGVZN4asio15system_categoryEvE8instance@GOTPCREL(%rip), %rbx
	movq	%rax, 8(%rsp)
.L160:
	movl	4(%rsp), %edx
	movl	(%rsp), %edi
	pxor	%xmm1, %xmm1
	movq	%r14, 64(%rsp)
	movl	$0, 0(%r13)
	movq	8(%rsp), %rsi
	movq	$0, 96(%rsp)
	movq	$1, 72(%rsp)
	movaps	%xmm1, 48(%rsp)
	movaps	%xmm1, 80(%rsp)
	call	sendmsg@PLT
	movq	%rax, %r12
	movzbl	(%rbx), %eax
	testb	%al, %al
	je	.L188
.L153:
	movl	0(%r13), %eax
	movq	%rbp, 32(%r15)
	movl	%eax, 24(%r15)
	testq	%r12, %r12
	js	.L155
	call	_ZNSt3_V215system_categoryEv@PLT
	movl	$0, 24(%r15)
	movq	%rax, 32(%r15)
.L155:
	movzbl	(%rbx), %eax
	testb	%al, %al
	je	.L189
.L157:
	cmpq	%rbp, 32(%r15)
	je	.L190
.L159:
	movzbl	(%rbx), %eax
	testb	%al, %al
	je	.L191
.L162:
	cmpq	%rbp, 32(%r15)
	je	.L192
.L164:
	movzbl	(%rbx), %eax
	testb	%al, %al
	je	.L193
.L167:
	cmpq	%rbp, 32(%r15)
	je	.L194
.L169:
	xorl	%eax, %eax
	testq	%r12, %r12
	js	.L171
	call	_ZNSt3_V215system_categoryEv@PLT
	movl	$0, 24(%r15)
	movq	%rax, 32(%r15)
	movq	%r12, %rax
.L171:
	movq	%rax, 40(%r15)
	addq	$120, %rsp
	.cfi_remember_state
	.cfi_def_cfa_offset 56
	movl	$1, %eax
	popq	%rbx
	.cfi_def_cfa_offset 48
	popq	%rbp
	.cfi_def_cfa_offset 40
	popq	%r12
	.cfi_def_cfa_offset 32
	popq	%r13
	.cfi_def_cfa_offset 24
	popq	%r14
	.cfi_def_cfa_offset 16
	popq	%r15
	.cfi_def_cfa_offset 8
	ret
	.p2align 4,,10
	.p2align 3
.L188:
	.cfi_restore_state
	movq	%rbx, %rdi
	call	__cxa_guard_acquire@PLT
	testl	%eax, %eax
	je	.L153
	movq	_ZN4asio6detail15system_categoryD1Ev@GOTPCREL(%rip), %rdi
	leaq	__dso_handle(%rip), %rdx
	movq	%rbp, %rsi
	call	__cxa_atexit@PLT
	movq	%rbx, %rdi
	call	__cxa_guard_release@PLT
	jmp	.L153
	.p2align 4,,10
	.p2align 3
.L189:
	movq	%rbx, %rdi
	call	__cxa_guard_acquire@PLT
	testl	%eax, %eax
	je	.L157
	movq	_ZN4asio6detail15system_categoryD1Ev@GOTPCREL(%rip), %rdi
	leaq	__dso_handle(%rip), %rdx
	movq	%rbp, %rsi
	call	__cxa_atexit@PLT
	movq	%rbx, %rdi
	call	__cxa_guard_release@PLT
	cmpq	%rbp, 32(%r15)
	jne	.L159
	.p2align 4
	.p2align 3
.L190:
	cmpl	$4, 24(%r15)
	je	.L160
	movzbl	(%rbx), %eax
	testb	%al, %al
	jne	.L162
.L191:
	movq	%rbx, %rdi
	call	__cxa_guard_acquire@PLT
	testl	%eax, %eax
	je	.L162
	movq	_ZN4asio6detail15system_categoryD1Ev@GOTPCREL(%rip), %rdi
	leaq	__dso_handle(%rip), %rdx
	movq	%rbp, %rsi
	call	__cxa_atexit@PLT
	movq	%rbx, %rdi
	call	__cxa_guard_release@PLT
	cmpq	%rbp, 32(%r15)
	jne	.L164
	.p2align 4
	.p2align 3
.L192:
	cmpl	$11, 24(%r15)
	jne	.L164
	xorl	%eax, %eax
.L195:
	addq	$120, %rsp
	.cfi_remember_state
	.cfi_def_cfa_offset 56
	popq	%rbx
	.cfi_def_cfa_offset 48
	popq	%rbp
	.cfi_def_cfa_offset 40
	popq	%r12
	.cfi_def_cfa_offset 32
	popq	%r13
	.cfi_def_cfa_offset 24
	popq	%r14
	.cfi_def_cfa_offset 16
	popq	%r15
	.cfi_def_cfa_offset 8
	ret
	.p2align 4,,10
	.p2align 3
.L193:
	.cfi_restore_state
	movq	%rbx, %rdi
	call	__cxa_guard_acquire@PLT
	testl	%eax, %eax
	je	.L167
	movq	_ZN4asio6detail15system_categoryD1Ev@GOTPCREL(%rip), %rdi
	leaq	__dso_handle(%rip), %rdx
	movq	%rbp, %rsi
	call	__cxa_atexit@PLT
	movq	%rbx, %rdi
	call	__cxa_guard_release@PLT
	jmp	.L167
	.p2align 4,,10
	.p2align 3
.L194:
	cmpl	$11, 24(%r15)
	jne	.L169
	xorl	%eax, %eax
	jmp	.L195
	.cfi_endproc
.LFE9279:
	.size	_ZN4asio6detail28reactive_socket_send_op_baseINS_15const_buffers_1EE10do_performEPNS0_10reactor_opE, .-_ZN4asio6detail28reactive_socket_send_op_baseINS_15const_buffers_1EE10do_performEPNS0_10reactor_opE
	.section	.text._ZN4asio6detail28reactive_socket_recv_op_baseINS_17mutable_buffers_1EE10do_performEPNS0_10reactor_opE,"axG",@progbits,_ZN4asio6detail28reactive_socket_recv_op_baseINS_17mutable_buffers_1EE10do_performEPNS0_10reactor_opE,comdat
	.p2align 4
	.weak	_ZN4asio6detail28reactive_socket_recv_op_baseINS_17mutable_buffers_1EE10do_performEPNS0_10reactor_opE
	.type	_ZN4asio6detail28reactive_socket_recv_op_baseINS_17mutable_buffers_1EE10do_performEPNS0_10reactor_opE, @function
_ZN4asio6detail28reactive_socket_recv_op_baseINS_17mutable_buffers_1EE10do_performEPNS0_10reactor_opE:
.LFB9122:
	.cfi_startproc
	pushq	%r15
	.cfi_def_cfa_offset 16
	.cfi_offset 15, -16
	movq	%rdi, %r15
	pushq	%r14
	.cfi_def_cfa_offset 24
	.cfi_offset 14, -24
	pushq	%r13
	.cfi_def_cfa_offset 32
	.cfi_offset 13, -32
	pushq	%r12
	.cfi_def_cfa_offset 40
	.cfi_offset 12, -40
	pushq	%rbp
	.cfi_def_cfa_offset 48
	.cfi_offset 6, -48
	pushq	%rbx
	.cfi_def_cfa_offset 56
	.cfi_offset 3, -56
	subq	$136, %rsp
	.cfi_def_cfa_offset 192
	movq	64(%rdi), %rax
	movq	72(%rdi), %xmm0
	movzbl	60(%rdi), %r12d
	movq	%rax, 32(%rsp)
	movl	80(%rdi), %eax
	punpcklqdq	%xmm0, %xmm0
	movups	%xmm0, 40(%rsp)
	shrb	$4, %r12b
	movl	%eax, 8(%rsp)
	movl	56(%rdi), %eax
	andl	$1, %r12d
	movl	%eax, 12(%rsp)
	call	__errno_location@PLT
	movq	_ZGVZN4asio15system_categoryEvE8instance@GOTPCREL(%rip), %rbx
	movq	_ZZN4asio15system_categoryEvE8instance@GOTPCREL(%rip), %rbp
	movq	%rax, %r14
	leaq	32(%rsp), %rax
	movq	%rax, 16(%rsp)
	leaq	64(%rsp), %rax
	movq	%rax, 24(%rsp)
.L210:
	movl	$0, (%r14)
	movq	16(%rsp), %rax
	pxor	%xmm1, %xmm1
	movl	8(%rsp), %edx
	movq	24(%rsp), %rsi
	movq	$0, 112(%rsp)
	movl	12(%rsp), %edi
	movq	%rax, 80(%rsp)
	movq	$1, 88(%rsp)
	movaps	%xmm1, 64(%rsp)
	movaps	%xmm1, 96(%rsp)
	call	recvmsg@PLT
	movq	%rax, %r13
	movzbl	(%rbx), %eax
	testb	%al, %al
	je	.L246
.L198:
	movl	(%r14), %eax
	movq	%rbp, 32(%r15)
	movl	%eax, 24(%r15)
	testq	%r13, %r13
	js	.L201
	call	_ZNSt3_V215system_categoryEv@PLT
	movl	$0, 24(%r15)
	movq	%rax, 32(%r15)
	testq	%r13, %r13
	jne	.L201
	testb	%r12b, %r12b
	jne	.L247
.L201:
	movzbl	(%rbx), %eax
	testb	%al, %al
	je	.L248
.L207:
	cmpq	%rbp, 32(%r15)
	je	.L249
.L209:
	movzbl	(%rbx), %eax
	testb	%al, %al
	je	.L250
.L212:
	cmpq	%rbp, 32(%r15)
	je	.L251
.L214:
	movzbl	(%rbx), %eax
	testb	%al, %al
	je	.L252
.L217:
	cmpq	%rbp, 32(%r15)
	je	.L253
.L219:
	testq	%r13, %r13
	js	.L221
	call	_ZNSt3_V215system_categoryEv@PLT
	movl	$0, 24(%r15)
	movq	%rax, 32(%r15)
	movq	%r13, 40(%r15)
.L205:
	movl	$1, %eax
.L196:
	addq	$136, %rsp
	.cfi_remember_state
	.cfi_def_cfa_offset 56
	popq	%rbx
	.cfi_def_cfa_offset 48
	popq	%rbp
	.cfi_def_cfa_offset 40
	popq	%r12
	.cfi_def_cfa_offset 32
	popq	%r13
	.cfi_def_cfa_offset 24
	popq	%r14
	.cfi_def_cfa_offset 16
	popq	%r15
	.cfi_def_cfa_offset 8
	ret
	.p2align 4,,10
	.p2align 3
.L221:
	.cfi_restore_state
	movq	$0, 40(%r15)
	jmp	.L205
	.p2align 4,,10
	.p2align 3
.L246:
	movq	%rbx, %rdi
	call	__cxa_guard_acquire@PLT
	testl	%eax, %eax
	je	.L198
	movq	_ZN4asio6detail15system_categoryD1Ev@GOTPCREL(%rip), %rdi
	leaq	__dso_handle(%rip), %rdx
	movq	%rbp, %rsi
	call	__cxa_atexit@PLT
	movq	%rbx, %rdi
	call	__cxa_guard_release@PLT
	jmp	.L198
	.p2align 4,,10
	.p2align 3
.L248:
	movq	%rbx, %rdi
	call	__cxa_guard_acquire@PLT
	testl	%eax, %eax
	je	.L207
	movq	_ZN4asio6detail15system_categoryD1Ev@GOTPCREL(%rip), %rdi
	leaq	__dso_handle(%rip), %rdx
	movq	%rbp, %rsi
	call	__cxa_atexit@PLT
	movq	%rbx, %rdi
	call	__cxa_guard_release@PLT
	cmpq	%rbp, 32(%r15)
	jne	.L209
	.p2align 4
	.p2align 3
.L249:
	cmpl	$4, 24(%r15)
	je	.L210
	movzbl	(%rbx), %eax
	testb	%al, %al
	jne	.L212
.L250:
	movq	%rbx, %rdi
	call	__cxa_guard_acquire@PLT
	testl	%eax, %eax
	je	.L212
	movq	_ZN4asio6detail15system_categoryD1Ev@GOTPCREL(%rip), %rdi
	leaq	__dso_handle(%rip), %rdx
	movq	%rbp, %rsi
	call	__cxa_atexit@PLT
	movq	%rbx, %rdi
	call	__cxa_guard_release@PLT
	cmpq	%rbp, 32(%r15)
	jne	.L214
	.p2align 4
	.p2align 3
.L251:
	cmpl	$11, 24(%r15)
	jne	.L214
	xorl	%eax, %eax
	jmp	.L196
	.p2align 4,,10
	.p2align 3
.L252:
	movq	%rbx, %rdi
	call	__cxa_guard_acquire@PLT
	testl	%eax, %eax
	je	.L217
	movq	_ZN4asio6detail15system_categoryD1Ev@GOTPCREL(%rip), %rdi
	leaq	__dso_handle(%rip), %rdx
	movq	%rbp, %rsi
	call	__cxa_atexit@PLT
	movq	%rbx, %rdi
	call	__cxa_guard_release@PLT
	jmp	.L217
	.p2align 4,,10
	.p2align 3
.L253:
	cmpl	$11, 24(%r15)
	jne	.L219
	xorl	%eax, %eax
	jmp	.L196
	.p2align 4,,10
	.p2align 3
.L247:
	movq	_ZGVZN4asio5error17get_misc_categoryEvE8instance@GOTPCREL(%rip), %rbx
	movzbl	(%rbx), %eax
	testb	%al, %al
	je	.L202
	movq	_ZZN4asio5error17get_misc_categoryEvE8instance@GOTPCREL(%rip), %rbp
.L203:
	movl	$2, 24(%r15)
	movq	%rbp, 32(%r15)
	jmp	.L205
	.p2align 4,,10
	.p2align 3
.L202:
	movq	%rbx, %rdi
	call	__cxa_guard_acquire@PLT
	movq	_ZZN4asio5error17get_misc_categoryEvE8instance@GOTPCREL(%rip), %rbp
	testl	%eax, %eax
	je	.L203
	movq	_ZN4asio5error6detail13misc_categoryD1Ev@GOTPCREL(%rip), %rdi
	leaq	__dso_handle(%rip), %rdx
	movq	%rbp, %rsi
	call	__cxa_atexit@PLT
	movq	%rbx, %rdi
	call	__cxa_guard_release@PLT
	jmp	.L203
	.cfi_endproc
.LFE9122:
	.size	_ZN4asio6detail28reactive_socket_recv_op_baseINS_17mutable_buffers_1EE10do_performEPNS0_10reactor_opE, .-_ZN4asio6detail28reactive_socket_recv_op_baseINS_17mutable_buffers_1EE10do_performEPNS0_10reactor_opE
	.section	.text._ZNK4asio5error6detail17addrinfo_category7messageB5cxx11Ei,"axG",@progbits,_ZNK4asio5error6detail17addrinfo_category7messageB5cxx11Ei,comdat
	.align 2
	.p2align 4
	.weak	_ZNK4asio5error6detail17addrinfo_category7messageB5cxx11Ei
	.type	_ZNK4asio5error6detail17addrinfo_category7messageB5cxx11Ei, @function
_ZNK4asio5error6detail17addrinfo_category7messageB5cxx11Ei:
.LFB2340:
	.cfi_startproc
	pushq	%rbx
	.cfi_def_cfa_offset 16
	.cfi_offset 3, -16
	leaq	16(%rdi), %rax
	movq	%rdi, %rbx
	subq	$16, %rsp
	.cfi_def_cfa_offset 32
	movq	%rax, (%rdi)
	cmpl	$-8, %edx
	je	.L259
	cmpl	$-7, %edx
	je	.L260
	movq	$19, 8(%rsp)
	leaq	8(%rsp), %rsi
	xorl	%edx, %edx
	call	_ZNSt7__cxx1112basic_stringIcSt11char_traitsIcESaIcEE9_M_createERmm@PLT
	movq	8(%rsp), %rdx
	movdqa	.LC12(%rip), %xmm0
	movq	%rax, (%rbx)
	movq	%rdx, 16(%rbx)
	movups	%xmm0, (%rax)
	movl	$1919906418, 15(%rax)
	movq	8(%rsp), %rax
	movq	(%rbx), %rdx
	movq	%rax, 8(%rbx)
	movb	$0, (%rdx,%rax)
	addq	$16, %rsp
	.cfi_remember_state
	.cfi_def_cfa_offset 16
	movq	%rbx, %rax
	popq	%rbx
	.cfi_def_cfa_offset 8
	ret
	.p2align 4,,10
	.p2align 3
.L260:
	.cfi_restore_state
	movq	$25, 8(%rsp)
	leaq	8(%rsp), %rsi
	xorl	%edx, %edx
	call	_ZNSt7__cxx1112basic_stringIcSt11char_traitsIcESaIcEE9_M_createERmm@PLT
	movq	8(%rsp), %rdx
	movdqa	.LC10(%rip), %xmm0
	movq	%rax, (%rbx)
	movq	%rdx, 16(%rbx)
	movups	%xmm0, (%rax)
	movdqa	.LC11(%rip), %xmm0
	movups	%xmm0, 9(%rax)
	movq	8(%rsp), %rax
	movq	(%rbx), %rdx
	movq	%rax, 8(%rbx)
	movb	$0, (%rdx,%rax)
	addq	$16, %rsp
	.cfi_remember_state
	.cfi_def_cfa_offset 16
	movq	%rbx, %rax
	popq	%rbx
	.cfi_def_cfa_offset 8
	ret
	.p2align 4,,10
	.p2align 3
.L259:
	.cfi_restore_state
	movq	$17, 8(%rsp)
	leaq	8(%rsp), %rsi
	xorl	%edx, %edx
	call	_ZNSt7__cxx1112basic_stringIcSt11char_traitsIcESaIcEE9_M_createERmm@PLT
	movq	8(%rsp), %rdx
	movdqa	.LC9(%rip), %xmm0
	movq	%rax, (%rbx)
	movq	%rdx, 16(%rbx)
	movb	$100, 16(%rax)
	movups	%xmm0, (%rax)
	movq	8(%rsp), %rax
	movq	(%rbx), %rdx
	movq	%rax, 8(%rbx)
	movb	$0, (%rdx,%rax)
	addq	$16, %rsp
	.cfi_def_cfa_offset 16
	movq	%rbx, %rax
	popq	%rbx
	.cfi_def_cfa_offset 8
	ret
	.cfi_endproc
.LFE2340:
	.size	_ZNK4asio5error6detail17addrinfo_category7messageB5cxx11Ei, .-_ZNK4asio5error6detail17addrinfo_category7messageB5cxx11Ei
	.section	.text._ZNK4asio5error6detail14netdb_category7messageB5cxx11Ei,"axG",@progbits,_ZNK4asio5error6detail14netdb_category7messageB5cxx11Ei,comdat
	.align 2
	.p2align 4
	.weak	_ZNK4asio5error6detail14netdb_category7messageB5cxx11Ei
	.type	_ZNK4asio5error6detail14netdb_category7messageB5cxx11Ei, @function
_ZNK4asio5error6detail14netdb_category7messageB5cxx11Ei:
.LFB2330:
	.cfi_startproc
	pushq	%rbx
	.cfi_def_cfa_offset 16
	.cfi_offset 3, -16
	leaq	16(%rdi), %rax
	movq	%rdi, %rbx
	subq	$16, %rsp
	.cfi_def_cfa_offset 32
	movq	%rax, (%rdi)
	cmpl	$1, %edx
	je	.L268
	cmpl	$2, %edx
	je	.L269
	cmpl	$4, %edx
	je	.L270
	cmpl	$3, %edx
	je	.L271
	movq	$16, 8(%rsp)
	leaq	8(%rsp), %rsi
	xorl	%edx, %edx
	call	_ZNSt7__cxx1112basic_stringIcSt11char_traitsIcESaIcEE9_M_createERmm@PLT
	movq	8(%rsp), %rdx
	movdqa	.LC23(%rip), %xmm0
	movq	%rax, (%rbx)
	movq	%rdx, 16(%rbx)
	movups	%xmm0, (%rax)
	movq	8(%rsp), %rax
	movq	(%rbx), %rdx
	movq	%rax, 8(%rbx)
	movb	$0, (%rdx,%rax)
	addq	$16, %rsp
	.cfi_remember_state
	.cfi_def_cfa_offset 16
	movq	%rbx, %rax
	popq	%rbx
	.cfi_def_cfa_offset 8
	ret
	.p2align 4,,10
	.p2align 3
.L268:
	.cfi_restore_state
	movq	$30, 8(%rsp)
	leaq	8(%rsp), %rsi
	xorl	%edx, %edx
	call	_ZNSt7__cxx1112basic_stringIcSt11char_traitsIcESaIcEE9_M_createERmm@PLT
	movq	8(%rsp), %rdx
	movdqa	.LC13(%rip), %xmm0
	movq	%rax, (%rbx)
	movq	%rdx, 16(%rbx)
	movups	%xmm0, (%rax)
	movdqa	.LC14(%rip), %xmm0
	movups	%xmm0, 14(%rax)
	movq	8(%rsp), %rax
	movq	(%rbx), %rdx
	movq	%rax, 8(%rbx)
	movb	$0, (%rdx,%rax)
	addq	$16, %rsp
	.cfi_remember_state
	.cfi_def_cfa_offset 16
	movq	%rbx, %rax
	popq	%rbx
	.cfi_def_cfa_offset 8
	ret
	.p2align 4,,10
	.p2align 3
.L271:
	.cfi_restore_state
	movq	$55, 8(%rsp)
	leaq	8(%rsp), %rsi
	xorl	%edx, %edx
	call	_ZNSt7__cxx1112basic_stringIcSt11char_traitsIcESaIcEE9_M_createERmm@PLT
	movq	8(%rsp), %rdx
	movdqa	.LC20(%rip), %xmm0
	movabsq	$8103501230877974629, %rcx
	movq	%rax, (%rbx)
	movq	%rdx, 16(%rbx)
	movups	%xmm0, (%rax)
	movdqa	.LC21(%rip), %xmm0
	movups	%xmm0, 16(%rax)
	movdqa	.LC22(%rip), %xmm0
	movups	%xmm0, 32(%rax)
	movq	%rcx, 47(%rax)
	movq	8(%rsp), %rax
	movq	(%rbx), %rdx
	movq	%rax, 8(%rbx)
	movb	$0, (%rdx,%rax)
	addq	$16, %rsp
	.cfi_remember_state
	.cfi_def_cfa_offset 16
	movq	%rbx, %rax
	popq	%rbx
	.cfi_def_cfa_offset 8
	ret
	.p2align 4,,10
	.p2align 3
.L269:
	.cfi_restore_state
	movq	$51, 8(%rsp)
	leaq	8(%rsp), %rsi
	xorl	%edx, %edx
	call	_ZNSt7__cxx1112basic_stringIcSt11char_traitsIcESaIcEE9_M_createERmm@PLT
	movq	8(%rsp), %rdx
	movdqa	.LC13(%rip), %xmm0
	movq	%rax, (%rbx)
	movq	%rdx, 16(%rbx)
	movups	%xmm0, (%rax)
	movdqa	.LC15(%rip), %xmm0
	movups	%xmm0, 16(%rax)
	movdqa	.LC16(%rip), %xmm0
	movups	%xmm0, 32(%rax)
	movl	$1919251553, 47(%rax)
	movq	8(%rsp), %rax
	movq	(%rbx), %rdx
	movq	%rax, 8(%rbx)
	movb	$0, (%rdx,%rax)
	addq	$16, %rsp
	.cfi_remember_state
	.cfi_def_cfa_offset 16
	movq	%rbx, %rax
	popq	%rbx
	.cfi_def_cfa_offset 8
	ret
	.p2align 4,,10
	.p2align 3
.L270:
	.cfi_restore_state
	movq	$56, 8(%rsp)
	leaq	8(%rsp), %rsi
	xorl	%edx, %edx
	call	_ZNSt7__cxx1112basic_stringIcSt11char_traitsIcESaIcEE9_M_createERmm@PLT
	movq	8(%rsp), %rdx
	movdqa	.LC17(%rip), %xmm0
	movabsq	$7022344801645520244, %rcx
	movq	%rax, (%rbx)
	movq	%rdx, 16(%rbx)
	movups	%xmm0, (%rax)
	movdqa	.LC18(%rip), %xmm0
	movq	%rcx, 48(%rax)
	movups	%xmm0, 16(%rax)
	movdqa	.LC19(%rip), %xmm0
	movups	%xmm0, 32(%rax)
	movq	8(%rsp), %rax
	movq	(%rbx), %rdx
	movq	%rax, 8(%rbx)
	movb	$0, (%rdx,%rax)
	addq	$16, %rsp
	.cfi_def_cfa_offset 16
	movq	%rbx, %rax
	popq	%rbx
	.cfi_def_cfa_offset 8
	ret
	.cfi_endproc
.LFE2330:
	.size	_ZNK4asio5error6detail14netdb_category7messageB5cxx11Ei, .-_ZNK4asio5error6detail14netdb_category7messageB5cxx11Ei
	.section	.text._ZNK4asio5error6detail13misc_category7messageB5cxx11Ei,"axG",@progbits,_ZNK4asio5error6detail13misc_category7messageB5cxx11Ei,comdat
	.align 2
	.p2align 4
	.weak	_ZNK4asio5error6detail13misc_category7messageB5cxx11Ei
	.type	_ZNK4asio5error6detail13misc_category7messageB5cxx11Ei, @function
_ZNK4asio5error6detail13misc_category7messageB5cxx11Ei:
.LFB2350:
	.cfi_startproc
	cmpl	$1, %edx
	je	.L281
	cmpl	$2, %edx
	je	.L282
	leaq	16(%rdi), %rax
	subq	$40, %rsp
	.cfi_def_cfa_offset 48
	movq	%rax, (%rdi)
	cmpl	$3, %edx
	je	.L283
	cmpl	$4, %edx
	je	.L284
	movabsq	$8316298233121436513, %rcx
	movq	$15, 8(%rdi)
	movq	%rdi, %rax
	movq	%rcx, 16(%rdi)
	movabsq	$8245935278387127155, %rcx
	movq	%rcx, 23(%rdi)
	movb	$0, 31(%rdi)
	addq	$40, %rsp
	.cfi_def_cfa_offset 8
	ret
	.p2align 4,,10
	.p2align 3
.L281:
	leaq	16(%rdi), %rax
	movl	$1852141679, 24(%rdi)
	movabsq	$2340011850872286273, %rsi
	movq	%rax, (%rdi)
	movq	%rdi, %rax
	movq	%rsi, 16(%rdi)
	movq	$12, 8(%rdi)
	movb	$0, 28(%rdi)
	ret
	.p2align 4,,10
	.p2align 3
.L284:
	.cfi_def_cfa_offset 48
	leaq	24(%rsp), %rsi
	xorl	%edx, %edx
	movq	%rdi, 8(%rsp)
	movq	$57, 24(%rsp)
	call	_ZNSt7__cxx1112basic_stringIcSt11char_traitsIcESaIcEE9_M_createERmm@PLT
	movq	24(%rsp), %rdx
	movq	8(%rsp), %rdi
	movdqa	.LC25(%rip), %xmm0
	movq	%rax, (%rdi)
	movq	%rdx, 16(%rdi)
	movups	%xmm0, (%rax)
	movdqa	.LC26(%rip), %xmm0
	movups	%xmm0, 16(%rax)
	movdqa	.LC27(%rip), %xmm0
	movups	%xmm0, 32(%rax)
	movdqa	.LC28(%rip), %xmm0
	movups	%xmm0, 41(%rax)
	movq	24(%rsp), %rax
	movq	(%rdi), %rdx
	movq	%rax, 8(%rdi)
	movb	$0, (%rdx,%rax)
	movq	%rdi, %rax
	addq	$40, %rsp
	.cfi_def_cfa_offset 8
	ret
	.p2align 4,,10
	.p2align 3
.L282:
	leaq	16(%rdi), %rax
	movq	$11, 8(%rdi)
	movabsq	$7358994418594246213, %rsi
	movq	%rax, (%rdi)
	movq	%rdi, %rax
	movq	%rsi, 16(%rdi)
	movb	$0, 27(%rdi)
	movl	$1701603686, 23(%rdi)
	ret
	.p2align 4,,10
	.p2align 3
.L283:
	.cfi_def_cfa_offset 48
	leaq	24(%rsp), %rsi
	xorl	%edx, %edx
	movq	%rdi, 8(%rsp)
	movq	$17, 24(%rsp)
	call	_ZNSt7__cxx1112basic_stringIcSt11char_traitsIcESaIcEE9_M_createERmm@PLT
	movq	8(%rsp), %rdi
	movq	24(%rsp), %rdx
	movdqa	.LC24(%rip), %xmm0
	movq	%rax, (%rdi)
	movq	%rdx, 16(%rdi)
	movb	$100, 16(%rax)
	movups	%xmm0, (%rax)
	movq	24(%rsp), %rax
	movq	(%rdi), %rdx
	movq	%rax, 8(%rdi)
	movb	$0, (%rdx,%rax)
	movq	%rdi, %rax
	addq	$40, %rsp
	.cfi_def_cfa_offset 8
	ret
	.cfi_endproc
.LFE2350:
	.size	_ZNK4asio5error6detail13misc_category7messageB5cxx11Ei, .-_ZNK4asio5error6detail13misc_category7messageB5cxx11Ei
	.section	.text.unlikely
	.align 2
.LCOLDB29:
	.text
.LHOTB29:
	.align 2
	.p2align 4
	.globl	_ZN7asiopal13SocketChannel13BeginReadImplEN7openpal6WSliceE
	.type	_ZN7asiopal13SocketChannel13BeginReadImplEN7openpal6WSliceE, @function
_ZN7asiopal13SocketChannel13BeginReadImplEN7openpal6WSliceE:
.LFB7010:
	.cfi_startproc
	.cfi_personality 0x9b,DW.ref.__gxx_personality_v0
	.cfi_lsda 0x1b,.LLSDA7010
	pushq	%r15
	.cfi_def_cfa_offset 16
	.cfi_offset 15, -16
	pushq	%r14
	.cfi_def_cfa_offset 24
	.cfi_offset 14, -24
	movq	%rdx, %r14
	pushq	%r13
	.cfi_def_cfa_offset 32
	.cfi_offset 13, -32
	pushq	%r12
	.cfi_def_cfa_offset 40
	.cfi_offset 12, -40
	movl	%esi, %r12d
	pushq	%rbp
	.cfi_def_cfa_offset 48
	.cfi_offset 6, -48
	movq	%rdi, %rbp
	pushq	%rbx
	.cfi_def_cfa_offset 56
	.cfi_offset 3, -56
	subq	$120, %rsp
	.cfi_def_cfa_offset 176
	movq	24(%rdi), %rax
	movq	%rdi, 96(%rsp)
	movdqu	40(%rax), %xmm0
	movq	88(%rdi), %rax
	movaps	%xmm0, 80(%rsp)
	movq	%rax, 24(%rsp)
	movaps	%xmm0, (%rsp)
	data16	leaq	_ZN4asio6detail15keyword_tss_ptrINS0_10call_stackINS0_14strand_service11strand_implEhE7contextEE6value_E@tlsgd(%rip), %rdi
	.value	0x6666
	rex64
	call	__tls_get_addr@PLT
	movq	(%rax), %rbx
	testq	%rbx, %rbx
	je	.L286
	movq	8(%rsp), %rax
	jmp	.L288
	.p2align 4
	.p2align 4,,10
	.p2align 3
.L287:
	movq	16(%rbx), %rbx
	testq	%rbx, %rbx
	je	.L286
.L288:
	cmpq	%rax, (%rbx)
	jne	.L287
	movq	8(%rbx), %rbx
.L286:
	pxor	%xmm0, %xmm0
	leaq	80(%rsp), %rax
	movq	%rax, 48(%rsp)
	movups	%xmm0, 56(%rsp)
	data16	leaq	_ZN4asio6detail15keyword_tss_ptrINS0_10call_stackINS0_15task_io_serviceENS0_27task_io_service_thread_infoEE7contextEE6value_E@tlsgd(%rip), %rdi
	.value	0x6666
	rex64
	call	__tls_get_addr@PLT
	movq	(%rax), %rax
	testq	%rax, %rax
	je	.L289
	movq	8(%rax), %rax
	testq	%rax, %rax
	je	.L289
	movq	(%rax), %r15
	testq	%r15, %r15
	je	.L289
	movq	$0, (%rax)
	movzbl	(%r15), %eax
	cmpb	$111, %al
	jbe	.L290
	movb	%al, 112(%r15)
	jmp	.L291
	.p2align 4,,10
	.p2align 3
.L290:
	movq	%r15, %rdi
	call	_ZdlPv@PLT
.L289:
	movl	$113, %edi
.LEHB4:
	call	_Znwm@PLT
.LEHE4:
	movb	$112, 112(%rax)
	movq	%rax, %r15
.L291:
	leaq	_ZN4asio6detail23reactive_socket_recv_opINS_17mutable_buffers_1ENS0_15wrapped_handlerINS_10io_service6strandEZN7asiopal13SocketChannel13BeginReadImplEN7openpal6WSliceEEUlRKSt10error_codemE_NS0_26is_continuation_if_runningEEEE11do_completeEPNS0_15task_io_serviceEPNS0_25task_io_service_operationESC_m(%rip), %rax
	movzbl	68(%rbp), %edx
	movl	64(%rbp), %r13d
	movq	$0, (%r15)
	movq	%rax, 8(%r15)
	movl	$0, 16(%r15)
	movl	$0, 24(%r15)
	movb	%dl, (%rsp)
	movq	%r15, 56(%rsp)
	call	_ZNSt3_V215system_categoryEv@PLT
	movzbl	(%rsp), %edx
	movdqa	80(%rsp), %xmm0
	movq	$0, 40(%r15)
	movq	%rax, 32(%r15)
	movq	%rax, %rcx
	movq	_ZN4asio6detail28reactive_socket_recv_op_baseINS_17mutable_buffers_1EE10do_performEPNS0_10reactor_opE@GOTPCREL(%rip), %rax
	movl	%r13d, 56(%r15)
	movq	%rax, 48(%r15)
	movq	96(%rsp), %rax
	movb	%dl, 60(%r15)
	movq	%r14, 64(%r15)
	movq	%r12, 72(%r15)
	movl	$0, 80(%r15)
	movq	%rax, 104(%r15)
	movq	%r15, 64(%rsp)
	movups	%xmm0, 88(%r15)
	testb	$16, %dl
	je	.L361
	testq	%r12, %r12
	je	.L292
.L361:
	andl	$3, %edx
	jne	.L294
	cmpl	$-1, %r13d
	je	.L449
	movq	%rcx, (%rsp)
	call	__errno_location@PLT
	leaq	36(%rsp), %rdx
	movl	%r13d, %edi
	movl	$21537, %esi
	movl	$0, (%rax)
	movq	%rax, %r14
	xorl	%eax, %eax
	movl	$1, 36(%rsp)
	call	ioctl@PLT
	movl	%eax, %r12d
	movq	_ZGVZN4asio15system_categoryEvE8instance@GOTPCREL(%rip), %rax
	movzbl	(%rax), %eax
	testb	%al, %al
	movq	(%rsp), %rcx
	je	.L299
.L432:
	movq	_ZZN4asio15system_categoryEvE8instance@GOTPCREL(%rip), %r13
.L300:
	movl	(%r14), %eax
	movq	%r13, 32(%r15)
	movl	%eax, 24(%r15)
	testl	%r12d, %r12d
	jns	.L450
.L292:
	movq	24(%rsp), %rax
	movq	%r15, %xmm1
	punpcklqdq	%xmm1, %xmm1
	movq	40(%rax), %rax
	movaps	%xmm1, (%rsp)
	movq	40(%rax), %rbp
	cmpb	$0, 40(%rbp)
	jne	.L365
	testq	%rbx, %rbx
	je	.L349
.L365:
	data16	leaq	_ZN4asio6detail15keyword_tss_ptrINS0_10call_stackINS0_15task_io_serviceENS0_27task_io_service_thread_infoEE7contextEE6value_E@tlsgd(%rip), %rdi
	.value	0x6666
	rex64
	call	__tls_get_addr@PLT
	movq	(%rax), %rax
	testq	%rax, %rax
	jne	.L353
	jmp	.L349
	.p2align 4
	.p2align 4,,10
	.p2align 3
.L351:
	movq	16(%rax), %rax
	testq	%rax, %rax
	je	.L349
.L353:
	cmpq	(%rax), %rbp
	jne	.L351
	movq	8(%rax), %rax
	testq	%rax, %rax
	je	.L349
	movq	16(%rax), %rdx
	addq	$1, 24(%rax)
	movq	$0, (%r15)
	testq	%rdx, %rdx
	je	.L354
.L436:
	movq	%r15, (%rdx)
	movq	%r15, 16(%rax)
	addq	$120, %rsp
	.cfi_remember_state
	.cfi_def_cfa_offset 56
	popq	%rbx
	.cfi_def_cfa_offset 48
	popq	%rbp
	.cfi_def_cfa_offset 40
	popq	%r12
	.cfi_def_cfa_offset 32
	popq	%r13
	.cfi_def_cfa_offset 24
	popq	%r14
	.cfi_def_cfa_offset 16
	popq	%r15
	.cfi_def_cfa_offset 8
	ret
	.p2align 4,,10
	.p2align 3
.L450:
	.cfi_restore_state
	movl	$0, 24(%r15)
	movl	64(%rbp), %r13d
	movq	%rcx, 32(%r15)
	orb	$2, 68(%rbp)
.L294:
	movq	24(%rsp), %rax
	movq	72(%rbp), %r12
	movq	40(%rax), %r14
	testq	%r12, %r12
	je	.L451
	addq	$40, %r12
	movq	%r12, %rdi
	call	pthread_mutex_lock@PLT
	movq	72(%rbp), %rax
	cmpb	$0, 144(%rax)
	jne	.L452
	cmpq	$0, 96(%rax)
	je	.L453
.L332:
	movq	104(%rax), %rdx
	movq	$0, (%r15)
	testq	%rdx, %rdx
	je	.L346
	movq	%r15, (%rdx)
	movq	%r15, 104(%rax)
.L347:
	movq	40(%r14), %rax
	lock addq	$1, 184(%rax)
	movq	%r12, %rdi
	call	pthread_mutex_unlock@PLT
	addq	$120, %rsp
	.cfi_remember_state
	.cfi_def_cfa_offset 56
	popq	%rbx
	.cfi_def_cfa_offset 48
	popq	%rbp
	.cfi_def_cfa_offset 40
	popq	%r12
	.cfi_def_cfa_offset 32
	popq	%r13
	.cfi_def_cfa_offset 24
	popq	%r14
	.cfi_def_cfa_offset 16
	popq	%r15
	.cfi_def_cfa_offset 8
	ret
	.p2align 4,,10
	.p2align 3
.L349:
	.cfi_restore_state
	lock addq	$1, 184(%rbp)
	leaq	48(%rbp), %rbx
	movq	%rbx, %rdi
	call	pthread_mutex_lock@PLT
	movq	200(%rbp), %rax
	movq	$0, (%r15)
	testq	%rax, %rax
	je	.L355
.L446:
	movq	%r15, (%rax)
	movq	%r15, 200(%rbp)
.L356:
	movq	136(%rbp), %rax
	movq	%rax, %rdx
	orq	$1, %rdx
	movq	%rdx, 136(%rbp)
	cmpq	$1, %rax
	jbe	.L357
	movq	%rbx, %rdi
	call	pthread_mutex_unlock@PLT
	leaq	88(%rbp), %rdi
	call	pthread_cond_signal@PLT
.L285:
	addq	$120, %rsp
	.cfi_remember_state
	.cfi_def_cfa_offset 56
	popq	%rbx
	.cfi_def_cfa_offset 48
	popq	%rbp
	.cfi_def_cfa_offset 40
	popq	%r12
	.cfi_def_cfa_offset 32
	popq	%r13
	.cfi_def_cfa_offset 24
	popq	%r14
	.cfi_def_cfa_offset 16
	popq	%r15
	.cfi_def_cfa_offset 8
	ret
	.p2align 4,,10
	.p2align 3
.L357:
	.cfi_restore_state
	cmpb	$0, 176(%rbp)
	jne	.L359
	movq	144(%rbp), %rax
	testq	%rax, %rax
	je	.L359
	movb	$1, 176(%rbp)
	leaq	88(%rax), %rdx
	leaq	36(%rsp), %rcx
	movl	$3, %esi
	movl	$-2147483639, 36(%rsp)
	movq	%rdx, 40(%rsp)
	movl	88(%rax), %edx
	movl	96(%rax), %edi
	call	epoll_ctl@PLT
.L359:
	movq	%rbx, %rdi
	call	pthread_mutex_unlock@PLT
	addq	$120, %rsp
	.cfi_remember_state
	.cfi_def_cfa_offset 56
	popq	%rbx
	.cfi_def_cfa_offset 48
	popq	%rbp
	.cfi_def_cfa_offset 40
	popq	%r12
	.cfi_def_cfa_offset 32
	popq	%r13
	.cfi_def_cfa_offset 24
	popq	%r14
	.cfi_def_cfa_offset 16
	popq	%r15
	.cfi_def_cfa_offset 8
	ret
.L354:
	.cfi_restore_state
	movdqa	(%rsp), %xmm6
	movups	%xmm6, 8(%rax)
	jmp	.L285
.L453:
	cmpq	$0, 128(%rax)
	je	.L454
	movl	92(%rax), %edx
	movq	%rax, 40(%rsp)
	leaq	36(%rsp), %rcx
	movl	$3, %esi
	movl	%edx, 36(%rsp)
	movl	96(%r14), %edi
	movl	%r13d, %edx
	call	epoll_ctl@PLT
.L433:
	movq	72(%rbp), %rax
	jmp	.L332
.L346:
	movq	%r15, %xmm0
	punpcklqdq	%xmm0, %xmm0
	movups	%xmm0, 96(%rax)
	jmp	.L347
	.p2align 4,,10
	.p2align 3
.L299:
	movq	_ZGVZN4asio15system_categoryEvE8instance@GOTPCREL(%rip), %rdi
	movq	%rcx, (%rsp)
	call	__cxa_guard_acquire@PLT
	movq	(%rsp), %rcx
	testl	%eax, %eax
	je	.L432
	movq	_ZZN4asio15system_categoryEvE8instance@GOTPCREL(%rip), %r13
	movq	_ZN4asio6detail15system_categoryD1Ev@GOTPCREL(%rip), %rdi
	leaq	__dso_handle(%rip), %rdx
	movq	%rcx, (%rsp)
	movq	%r13, %rsi
	call	__cxa_atexit@PLT
	movq	_ZGVZN4asio15system_categoryEvE8instance@GOTPCREL(%rip), %rdi
	call	__cxa_guard_release@PLT
	movq	(%rsp), %rcx
	jmp	.L300
	.p2align 4,,10
	.p2align 3
.L355:
	movdqa	(%rsp), %xmm5
	movups	%xmm5, 192(%rbp)
	jmp	.L356
.L451:
	movq	_ZGVZN4asio15system_categoryEvE8instance@GOTPCREL(%rip), %rbp
	movq	%r15, %xmm3
	punpcklqdq	%xmm3, %xmm3
	movaps	%xmm3, (%rsp)
	movzbl	0(%rbp), %eax
	testb	%al, %al
	je	.L304
	movq	_ZZN4asio15system_categoryEvE8instance@GOTPCREL(%rip), %r13
.L305:
	movq	40(%r14), %rbp
	movl	$9, 24(%r15)
	movq	%r13, 32(%r15)
	cmpb	$0, 40(%rbp)
	jne	.L362
	testq	%rbx, %rbx
	je	.L335
.L362:
	data16	leaq	_ZN4asio6detail15keyword_tss_ptrINS0_10call_stackINS0_15task_io_serviceENS0_27task_io_service_thread_infoEE7contextEE6value_E@tlsgd(%rip), %rdi
	.value	0x6666
	rex64
	call	__tls_get_addr@PLT
	movq	(%rax), %rax
	testq	%rax, %rax
	jne	.L311
	jmp	.L335
	.p2align 4
	.p2align 4,,10
	.p2align 3
.L309:
	movq	16(%rax), %rax
	testq	%rax, %rax
	je	.L335
.L311:
	cmpq	(%rax), %rbp
	jne	.L309
.L448:
	movq	8(%rax), %rax
	testq	%rax, %rax
	je	.L335
	addq	$1, 24(%rax)
	movq	$0, (%r15)
	movq	16(%rax), %rdx
	testq	%rdx, %rdx
	jne	.L436
	movdqa	(%rsp), %xmm7
	movups	%xmm7, 8(%rax)
	jmp	.L285
.L452:
	movq	%r15, %xmm4
	movq	40(%r14), %rbp
	punpcklqdq	%xmm4, %xmm4
	movaps	%xmm4, (%rsp)
	cmpb	$0, 40(%rbp)
	jne	.L363
	testq	%rbx, %rbx
	je	.L320
.L363:
	data16	leaq	_ZN4asio6detail15keyword_tss_ptrINS0_10call_stackINS0_15task_io_serviceENS0_27task_io_service_thread_infoEE7contextEE6value_E@tlsgd(%rip), %rdi
	.value	0x6666
	rex64
	call	__tls_get_addr@PLT
	movq	(%rax), %rax
	testq	%rax, %rax
	jne	.L324
	jmp	.L320
	.p2align 4
	.p2align 4,,10
	.p2align 3
.L322:
	movq	16(%rax), %rax
	testq	%rax, %rax
	je	.L320
.L324:
	cmpq	(%rax), %rbp
	jne	.L322
	movq	8(%rax), %rax
	testq	%rax, %rax
	je	.L320
	movq	16(%rax), %rdx
	addq	$1, 24(%rax)
	movq	$0, (%r15)
	testq	%rdx, %rdx
	je	.L325
	movq	%r15, (%rdx)
	movq	%r15, 16(%rax)
.L326:
	movq	%r12, %rdi
	call	pthread_mutex_unlock@PLT
	jmp	.L285
.L449:
	movq	_ZGVZN4asio15system_categoryEvE8instance@GOTPCREL(%rip), %rbp
	movzbl	0(%rbp), %eax
	testb	%al, %al
	je	.L296
	movq	_ZZN4asio15system_categoryEvE8instance@GOTPCREL(%rip), %r13
.L297:
	movl	$9, 24(%r15)
	movq	%r13, 32(%r15)
	jmp	.L292
.L304:
	movq	%rbp, %rdi
	call	__cxa_guard_acquire@PLT
	movq	_ZZN4asio15system_categoryEvE8instance@GOTPCREL(%rip), %r13
	testl	%eax, %eax
	je	.L305
	movq	_ZN4asio6detail15system_categoryD1Ev@GOTPCREL(%rip), %rdi
	leaq	__dso_handle(%rip), %rdx
	movq	%r13, %rsi
	call	__cxa_atexit@PLT
	movq	%rbp, %rdi
	call	__cxa_guard_release@PLT
	jmp	.L305
.L296:
	movq	%rbp, %rdi
	call	__cxa_guard_acquire@PLT
	movq	_ZZN4asio15system_categoryEvE8instance@GOTPCREL(%rip), %r13
	testl	%eax, %eax
	je	.L297
	movq	_ZN4asio6detail15system_categoryD1Ev@GOTPCREL(%rip), %rdi
	leaq	__dso_handle(%rip), %rdx
	movq	%r13, %rsi
	call	__cxa_atexit@PLT
	movq	%rbp, %rdi
	call	__cxa_guard_release@PLT
	jmp	.L297
.L335:
	lock addq	$1, 184(%rbp)
	leaq	48(%rbp), %rbx
	movq	%rbx, %rdi
	call	pthread_mutex_lock@PLT
	movq	$0, (%r15)
	movq	200(%rbp), %rax
	testq	%rax, %rax
	jne	.L446
	movdqa	(%rsp), %xmm7
	movups	%xmm7, 192(%rbp)
	jmp	.L356
.L320:
	lock addq	$1, 184(%rbp)
	leaq	48(%rbp), %rbx
	movq	%rbx, %rdi
	call	pthread_mutex_lock@PLT
	movq	200(%rbp), %rax
	movq	$0, (%r15)
	testq	%rax, %rax
	je	.L327
	movq	%r15, (%rax)
	movq	%r15, 200(%rbp)
.L328:
	movq	136(%rbp), %rax
	movq	%rax, %rdx
	orq	$1, %rdx
	movq	%rdx, 136(%rbp)
	cmpq	$1, %rax
	jbe	.L329
	movq	%rbx, %rdi
	call	pthread_mutex_unlock@PLT
	leaq	88(%rbp), %rdi
	call	pthread_cond_signal@PLT
	jmp	.L326
.L454:
	movq	%r15, %rdi
.LEHB5:
	call	*48(%r15)
.LEHE5:
	testb	%al, %al
	je	.L433
	movq	%r15, %xmm7
	movq	%r12, %rdi
	punpcklqdq	%xmm7, %xmm7
	movaps	%xmm7, (%rsp)
	call	pthread_mutex_unlock@PLT
	movq	40(%r14), %rbp
	cmpb	$0, 40(%rbp)
	jne	.L364
	testq	%rbx, %rbx
	je	.L335
.L364:
	data16	leaq	_ZN4asio6detail15keyword_tss_ptrINS0_10call_stackINS0_15task_io_serviceENS0_27task_io_service_thread_infoEE7contextEE6value_E@tlsgd(%rip), %rdi
	.value	0x6666
	rex64
	call	__tls_get_addr@PLT
	movq	(%rax), %rax
	testq	%rax, %rax
	jne	.L339
	jmp	.L335
	.p2align 4
	.p2align 4,,10
	.p2align 3
.L337:
	movq	16(%rax), %rax
	testq	%rax, %rax
	je	.L335
.L339:
	cmpq	(%rax), %rbp
	jne	.L337
	jmp	.L448
	.p2align 4,,10
	.p2align 3
.L329:
	cmpb	$0, 176(%rbp)
	jne	.L331
	movq	144(%rbp), %rax
	testq	%rax, %rax
	je	.L331
	movb	$1, 176(%rbp)
	leaq	88(%rax), %rdx
	leaq	36(%rsp), %rcx
	movl	$3, %esi
	movq	%rdx, 40(%rsp)
	movl	88(%rax), %edx
	movl	$-2147483639, 36(%rsp)
	movl	96(%rax), %edi
	call	epoll_ctl@PLT
.L331:
	movq	%rbx, %rdi
	call	pthread_mutex_unlock@PLT
	jmp	.L326
.L327:
	movdqa	(%rsp), %xmm7
	movups	%xmm7, 192(%rbp)
	jmp	.L328
.L325:
	movdqa	(%rsp), %xmm7
	movups	%xmm7, 8(%rax)
	jmp	.L326
.L360:
	movq	%rax, %rbx
	jmp	.L348
	.section	.gcc_except_table
.LLSDA7010:
	.byte	0xff
	.byte	0xff
	.byte	0x1
	.uleb128 .LLSDACSE7010-.LLSDACSB7010
.LLSDACSB7010:
	.uleb128 .LEHB4-.LFB7010
	.uleb128 .LEHE4-.LEHB4
	.uleb128 0
	.uleb128 0
	.uleb128 .LEHB5-.LFB7010
	.uleb128 .LEHE5-.LEHB5
	.uleb128 .L360-.LFB7010
	.uleb128 0
.LLSDACSE7010:
	.text
	.cfi_endproc
	.section	.text.unlikely
	.cfi_startproc
	.cfi_personality 0x9b,DW.ref.__gxx_personality_v0
	.cfi_lsda 0x1b,.LLSDAC7010
	.type	_ZN7asiopal13SocketChannel13BeginReadImplEN7openpal6WSliceE.cold, @function
_ZN7asiopal13SocketChannel13BeginReadImplEN7openpal6WSliceE.cold:
.LFSB7010:
.L348:
	.cfi_def_cfa_offset 176
	.cfi_offset 3, -56
	.cfi_offset 6, -48
	.cfi_offset 12, -40
	.cfi_offset 13, -32
	.cfi_offset 14, -24
	.cfi_offset 15, -16
	movq	%r12, %rdi
	call	pthread_mutex_unlock@PLT
	leaq	48(%rsp), %rdi
	call	_ZN4asio6detail23reactive_socket_recv_opINS_17mutable_buffers_1ENS0_15wrapped_handlerINS_10io_service6strandEZN7asiopal13SocketChannel13BeginReadImplEN7openpal6WSliceEEUlRKSt10error_codemE_NS0_26is_continuation_if_runningEEEE3ptr5resetEv
	movq	%rbx, %rdi
.LEHB6:
	call	_Unwind_Resume@PLT
.LEHE6:
	.cfi_endproc
.LFE7010:
	.section	.gcc_except_table
.LLSDAC7010:
	.byte	0xff
	.byte	0xff
	.byte	0x1
	.uleb128 .LLSDACSEC7010-.LLSDACSBC7010
.LLSDACSBC7010:
	.uleb128 .LEHB6-.LCOLDB29
	.uleb128 .LEHE6-.LEHB6
	.uleb128 0
	.uleb128 0
.LLSDACSEC7010:
	.section	.text.unlikely
	.text
	.size	_ZN7asiopal13SocketChannel13BeginReadImplEN7openpal6WSliceE, .-_ZN7asiopal13SocketChannel13BeginReadImplEN7openpal6WSliceE
	.section	.text.unlikely
	.size	_ZN7asiopal13SocketChannel13BeginReadImplEN7openpal6WSliceE.cold, .-_ZN7asiopal13SocketChannel13BeginReadImplEN7openpal6WSliceE.cold
.LCOLDE29:
	.text
.LHOTE29:
	.section	.text._ZN4asio15system_categoryEv,"axG",@progbits,_ZN4asio15system_categoryEv,comdat
	.p2align 4
	.weak	_ZN4asio15system_categoryEv
	.type	_ZN4asio15system_categoryEv, @function
_ZN4asio15system_categoryEv:
.LFB2289:
	.cfi_startproc
	movq	_ZGVZN4asio15system_categoryEvE8instance@GOTPCREL(%rip), %rax
	movzbl	(%rax), %eax
	testb	%al, %al
	je	.L456
	movq	_ZZN4asio15system_categoryEvE8instance@GOTPCREL(%rip), %rax
	ret
	.p2align 4,,10
	.p2align 3
.L456:
	subq	$24, %rsp
	.cfi_def_cfa_offset 32
	movq	_ZGVZN4asio15system_categoryEvE8instance@GOTPCREL(%rip), %rdi
	call	__cxa_guard_acquire@PLT
	movq	_ZZN4asio15system_categoryEvE8instance@GOTPCREL(%rip), %rcx
	testl	%eax, %eax
	jne	.L461
	movq	%rcx, %rax
	addq	$24, %rsp
	.cfi_remember_state
	.cfi_def_cfa_offset 8
	ret
	.p2align 4,,10
	.p2align 3
.L461:
	.cfi_restore_state
	movq	_ZN4asio6detail15system_categoryD1Ev@GOTPCREL(%rip), %rdi
	movq	%rcx, %rsi
	movq	%rcx, 8(%rsp)
	leaq	__dso_handle(%rip), %rdx
	call	__cxa_atexit@PLT
	movq	_ZGVZN4asio15system_categoryEvE8instance@GOTPCREL(%rip), %rdi
	call	__cxa_guard_release@PLT
	movq	8(%rsp), %rcx
	addq	$24, %rsp
	.cfi_def_cfa_offset 8
	movq	%rcx, %rax
	ret
	.cfi_endproc
.LFE2289:
	.size	_ZN4asio15system_categoryEv, .-_ZN4asio15system_categoryEv
	.text
	.align 2
	.p2align 4
	.globl	_ZN7asiopal13SocketChannel12ShutdownImplEv
	.type	_ZN7asiopal13SocketChannel12ShutdownImplEv, @function
_ZN7asiopal13SocketChannel12ShutdownImplEv:
.LFB7020:
	.cfi_startproc
	pushq	%r15
	.cfi_def_cfa_offset 16
	.cfi_offset 15, -16
	movq	%rdi, %r15
	pushq	%r14
	.cfi_def_cfa_offset 24
	.cfi_offset 14, -24
	pushq	%r13
	.cfi_def_cfa_offset 32
	.cfi_offset 13, -32
	pushq	%r12
	.cfi_def_cfa_offset 40
	.cfi_offset 12, -40
	pushq	%rbp
	.cfi_def_cfa_offset 48
	.cfi_offset 6, -48
	pushq	%rbx
	.cfi_def_cfa_offset 56
	.cfi_offset 3, -56
	subq	$56, %rsp
	.cfi_def_cfa_offset 112
	movl	64(%rdi), %ebx
	cmpl	$-1, %ebx
	je	.L572
	call	__errno_location@PLT
	movl	$2, %esi
	movl	%ebx, %edi
	movl	$0, (%rax)
	call	shutdown@PLT
.L572:
	movq	_ZGVZN4asio15system_categoryEvE8instance@GOTPCREL(%rip), %rbp
	movzbl	0(%rbp), %eax
	testb	%al, %al
	je	.L579
.L468:
	movl	64(%r15), %ebx
	cmpl	$-1, %ebx
	jne	.L580
.L472:
	movl	$-1, 64(%r15)
	movb	$0, 68(%r15)
	addq	$56, %rsp
	.cfi_remember_state
	.cfi_def_cfa_offset 56
	popq	%rbx
	.cfi_def_cfa_offset 48
	popq	%rbp
	.cfi_def_cfa_offset 40
	popq	%r12
	.cfi_def_cfa_offset 32
	popq	%r13
	.cfi_def_cfa_offset 24
	popq	%r14
	.cfi_def_cfa_offset 16
	popq	%r15
	.cfi_def_cfa_offset 8
	ret
	.p2align 4,,10
	.p2align 3
.L580:
	.cfi_restore_state
	movq	72(%r15), %rax
	testq	%rax, %rax
	je	.L473
	movq	88(%r15), %rdx
	leaq	40(%rax), %r14
	movzbl	68(%r15), %r12d
	movq	%r14, %rdi
	movq	%r14, 24(%rsp)
	movq	40(%rdx), %rcx
	movq	%rcx, 16(%rsp)
	call	pthread_mutex_lock@PLT
	movq	72(%r15), %r9
	cmpb	$0, 144(%r9)
	jne	.L504
	andl	$64, %r12d
	jne	.L581
.L476:
	movq	$0, 8(%rsp)
	xorl	%r13d, %r13d
	movl	$0, (%rsp)
.L477:
	movslq	(%rsp), %rax
	salq	$4, %rax
	movq	96(%rax,%r9), %rbx
	testq	%rbx, %rbx
	je	.L567
	movq	_ZZN4asio15system_categoryEvE8instance@GOTPCREL(%rip), %r14
	movq	%rax, %r12
	jmp	.L489
	.p2align 4,,10
	.p2align 3
.L479:
	movq	72(%r15), %r9
	movl	$125, 24(%rbx)
	movq	%r14, 32(%rbx)
	leaq	(%r9,%r12), %rdi
	movq	96(%rdi), %rax
	testq	%rax, %rax
	je	.L574
	movq	(%rax), %rdx
	movq	%rdx, 96(%rdi)
	testq	%rdx, %rdx
	je	.L484
	movq	$0, (%rax)
	movq	$0, (%rbx)
	testq	%r13, %r13
	je	.L516
	movq	%rbx, 0(%r13)
.L485:
	movq	%rbx, %r13
	movq	%rdx, %rbx
.L489:
	movzbl	0(%rbp), %eax
	testb	%al, %al
	jne	.L479
	movq	%rbp, %rdi
	call	__cxa_guard_acquire@PLT
	testl	%eax, %eax
	je	.L479
	movq	_ZN4asio6detail15system_categoryD1Ev@GOTPCREL(%rip), %rdi
	leaq	__dso_handle(%rip), %rdx
	movq	%r14, %rsi
	call	__cxa_atexit@PLT
	movq	%rbp, %rdi
	call	__cxa_guard_release@PLT
	jmp	.L479
	.p2align 4,,10
	.p2align 3
.L494:
	leaq	48(%r12), %r14
	movq	%r14, %rdi
	call	pthread_mutex_lock@PLT
	movq	200(%r12), %rax
	testq	%rax, %rax
	je	.L500
	movq	8(%rsp), %rcx
	movq	%rcx, (%rax)
.L501:
	movq	136(%r12), %rax
	movq	%rbx, 200(%r12)
	movq	%rax, %rdx
	orq	$1, %rdx
	movq	%rdx, 136(%r12)
	cmpq	$1, %rax
	ja	.L582
	cmpb	$0, 176(%r12)
	jne	.L504
	movq	144(%r12), %rax
	testq	%rax, %rax
	je	.L504
	leaq	88(%rax), %rdx
	leaq	36(%rsp), %rcx
	movl	$3, %esi
	movb	$1, 176(%r12)
	movq	%rdx, 40(%rsp)
	movl	88(%rax), %edx
	movl	$-2147483639, 36(%rsp)
	movl	96(%rax), %edi
	call	epoll_ctl@PLT
	.p2align 4
	.p2align 3
.L504:
	movq	%r14, %rdi
	call	pthread_mutex_unlock@PLT
.L475:
	movl	64(%r15), %ebx
	cmpl	$-1, %ebx
	je	.L472
.L473:
	call	__errno_location@PLT
	movl	%ebx, %edi
	movl	$0, (%rax)
	movq	%rax, %r12
	call	close@PLT
	movl	%eax, %r13d
	movzbl	0(%rbp), %eax
	testb	%al, %al
	je	.L583
.L507:
	testl	%r13d, %r13d
	je	.L472
	movl	(%r12), %r13d
	movzbl	0(%rbp), %eax
	testb	%al, %al
	je	.L584
.L510:
	cmpl	$11, %r13d
	je	.L512
.L578:
	movzbl	0(%rbp), %eax
	testb	%al, %al
	jne	.L472
	movq	%rbp, %rdi
	call	__cxa_guard_acquire@PLT
	testl	%eax, %eax
	je	.L472
	movq	_ZZN4asio15system_categoryEvE8instance@GOTPCREL(%rip), %rsi
	movq	_ZN4asio6detail15system_categoryD1Ev@GOTPCREL(%rip), %rdi
	leaq	__dso_handle(%rip), %rdx
	call	__cxa_atexit@PLT
	movq	%rbp, %rdi
	call	__cxa_guard_release@PLT
	jmp	.L472
	.p2align 4,,10
	.p2align 3
.L579:
	movq	%rbp, %rdi
	call	__cxa_guard_acquire@PLT
	testl	%eax, %eax
	je	.L468
	movq	_ZZN4asio15system_categoryEvE8instance@GOTPCREL(%rip), %rsi
	movq	_ZN4asio6detail15system_categoryD1Ev@GOTPCREL(%rip), %rdi
	leaq	__dso_handle(%rip), %rdx
	call	__cxa_atexit@PLT
	movq	%rbp, %rdi
	call	__cxa_guard_release@PLT
	jmp	.L468
	.p2align 4,,10
	.p2align 3
.L583:
	movq	%rbp, %rdi
	call	__cxa_guard_acquire@PLT
	testl	%eax, %eax
	je	.L507
	movq	_ZZN4asio15system_categoryEvE8instance@GOTPCREL(%rip), %rsi
	movq	_ZN4asio6detail15system_categoryD1Ev@GOTPCREL(%rip), %rdi
	leaq	__dso_handle(%rip), %rdx
	call	__cxa_atexit@PLT
	movq	%rbp, %rdi
	call	__cxa_guard_release@PLT
	jmp	.L507
	.p2align 4,,10
	.p2align 3
.L584:
	movq	%rbp, %rdi
	call	__cxa_guard_acquire@PLT
	testl	%eax, %eax
	je	.L510
	movq	_ZZN4asio15system_categoryEvE8instance@GOTPCREL(%rip), %rsi
	movq	_ZN4asio6detail15system_categoryD1Ev@GOTPCREL(%rip), %rdi
	leaq	__dso_handle(%rip), %rdx
	call	__cxa_atexit@PLT
	movq	%rbp, %rdi
	call	__cxa_guard_release@PLT
	jmp	.L510
	.p2align 4,,10
	.p2align 3
.L484:
	movq	$0, 104(%rdi)
	movq	$0, (%rax)
.L574:
	movq	$0, (%rbx)
	testq	%r13, %r13
	je	.L585
	movq	%rbx, 0(%r13)
.L487:
	addl	$1, (%rsp)
	cmpl	$3, (%rsp)
	je	.L488
.L586:
	movq	%rbx, %r13
	jmp	.L477
	.p2align 4,,10
	.p2align 3
.L516:
	movq	%rbx, 8(%rsp)
	jmp	.L485
	.p2align 4,,10
	.p2align 3
.L585:
	addl	$1, (%rsp)
	movq	%rbx, 8(%rsp)
	cmpl	$3, (%rsp)
	jne	.L586
.L488:
	movl	$-1, 88(%r9)
	movq	24(%rsp), %rdi
	movb	$1, 144(%r9)
	call	pthread_mutex_unlock@PLT
	movq	16(%rsp), %r14
	movq	72(%r15), %r12
	leaq	120(%r14), %rdi
	movq	%rdi, (%rsp)
	call	pthread_mutex_lock@PLT
	cmpq	160(%r14), %r12
	movq	(%rsp), %rdi
	je	.L587
.L490:
	movq	32(%r12), %rax
	testq	%rax, %rax
	je	.L491
	movq	24(%r12), %rdx
	movq	%rdx, 24(%rax)
.L491:
	movq	24(%r12), %rax
	testq	%rax, %rax
	je	.L492
	movq	32(%r12), %rdx
	movq	%rdx, 32(%rax)
.L492:
	movq	16(%rsp), %r14
	movq	168(%r14), %rax
	movq	$0, 32(%r12)
	movq	%rax, 24(%r12)
	movq	%r12, 168(%r14)
	call	pthread_mutex_unlock@PLT
	movq	$0, 72(%r15)
	cmpq	$0, 8(%rsp)
	je	.L475
	movq	40(%r14), %r12
	cmpb	$0, 40(%r12)
	je	.L494
	data16	leaq	_ZN4asio6detail15keyword_tss_ptrINS0_10call_stackINS0_15task_io_serviceENS0_27task_io_service_thread_infoEE7contextEE6value_E@tlsgd(%rip), %rdi
	.value	0x6666
	rex64
	call	__tls_get_addr@PLT
	movq	(%rax), %rax
	testq	%rax, %rax
	jne	.L497
	jmp	.L494
	.p2align 4
	.p2align 4,,10
	.p2align 3
.L495:
	movq	16(%rax), %rax
	testq	%rax, %rax
	je	.L494
.L497:
	cmpq	(%rax), %r12
	jne	.L495
	movq	8(%rax), %rax
	testq	%rax, %rax
	je	.L494
	movq	16(%rax), %rdx
	movq	8(%rsp), %rcx
	testq	%rdx, %rdx
	je	.L498
	movq	%rcx, (%rdx)
.L499:
	movq	%rbx, 16(%rax)
	jmp	.L475
	.p2align 4,,10
	.p2align 3
.L567:
	movq	%r13, %rbx
	jmp	.L487
	.p2align 4,,10
	.p2align 3
.L581:
	movq	16(%rsp), %rax
	movl	$0, 36(%rsp)
	leaq	36(%rsp), %rcx
	movl	%ebx, %edx
	movq	$0, 40(%rsp)
	movl	$2, %esi
	movl	96(%rax), %edi
	call	epoll_ctl@PLT
	movq	72(%r15), %r9
	jmp	.L476
	.p2align 4,,10
	.p2align 3
.L587:
	movq	24(%r12), %rax
	movq	16(%rsp), %rcx
	movq	%rax, 160(%rcx)
	jmp	.L490
	.p2align 4,,10
	.p2align 3
.L512:
	movl	%ebx, %edi
	leaq	36(%rsp), %rdx
	movl	$21537, %esi
	xorl	%eax, %eax
	movl	$0, 36(%rsp)
	call	ioctl@PLT
	andb	$-4, 68(%r15)
	movl	%ebx, %edi
	movl	$0, (%r12)
	call	close@PLT
	jmp	.L578
.L582:
	movq	%r14, %rdi
	call	pthread_mutex_unlock@PLT
	leaq	88(%r12), %rdi
	call	pthread_cond_signal@PLT
	jmp	.L475
.L500:
	movq	8(%rsp), %rax
	movq	%rax, 192(%r12)
	jmp	.L501
.L498:
	movq	%rcx, 8(%rax)
	jmp	.L499
	.cfi_endproc
.LFE7020:
	.size	_ZN7asiopal13SocketChannel12ShutdownImplEv, .-_ZN7asiopal13SocketChannel12ShutdownImplEv
	.section	.text._ZN4asio6detail15task_io_service25post_immediate_completionEPNS0_25task_io_service_operationEb,"axG",@progbits,_ZN4asio6detail15task_io_service25post_immediate_completionEPNS0_25task_io_service_operationEb,comdat
	.align 2
	.p2align 4
	.weak	_ZN4asio6detail15task_io_service25post_immediate_completionEPNS0_25task_io_service_operationEb
	.type	_ZN4asio6detail15task_io_service25post_immediate_completionEPNS0_25task_io_service_operationEb, @function
_ZN4asio6detail15task_io_service25post_immediate_completionEPNS0_25task_io_service_operationEb:
.LFB3297:
	.cfi_startproc
	pushq	%r12
	.cfi_def_cfa_offset 16
	.cfi_offset 12, -16
	movq	%rsi, %xmm0
	pushq	%rbp
	.cfi_def_cfa_offset 24
	.cfi_offset 6, -24
	punpcklqdq	%xmm0, %xmm0
	movq	%rsi, %rbp
	pushq	%rbx
	.cfi_def_cfa_offset 32
	.cfi_offset 3, -32
	movq	%rdi, %rbx
	subq	$32, %rsp
	.cfi_def_cfa_offset 64
	movaps	%xmm0, (%rsp)
	cmpb	$0, 40(%rdi)
	jne	.L600
	testb	%dl, %dl
	je	.L589
.L600:
	data16	leaq	_ZN4asio6detail15keyword_tss_ptrINS0_10call_stackINS0_15task_io_serviceENS0_27task_io_service_thread_infoEE7contextEE6value_E@tlsgd(%rip), %rdi
	.value	0x6666
	rex64
	call	__tls_get_addr@PLT
	movq	(%rax), %rax
	testq	%rax, %rax
	jne	.L593
	jmp	.L589
	.p2align 4
	.p2align 4,,10
	.p2align 3
.L591:
	movq	16(%rax), %rax
	testq	%rax, %rax
	je	.L589
.L593:
	cmpq	(%rax), %rbx
	jne	.L591
	movq	8(%rax), %rax
	testq	%rax, %rax
	je	.L589
	movq	16(%rax), %rdx
	addq	$1, 24(%rax)
	movq	$0, 0(%rbp)
	testq	%rdx, %rdx
	je	.L594
	movq	%rbp, (%rdx)
	movq	%rbp, 16(%rax)
	addq	$32, %rsp
	.cfi_remember_state
	.cfi_def_cfa_offset 32
	popq	%rbx
	.cfi_def_cfa_offset 24
	popq	%rbp
	.cfi_def_cfa_offset 16
	popq	%r12
	.cfi_def_cfa_offset 8
	ret
	.p2align 4,,10
	.p2align 3
.L589:
	.cfi_restore_state
	lock addq	$1, 184(%rbx)
	leaq	48(%rbx), %rdi
	call	pthread_mutex_lock@PLT
	movq	200(%rbx), %rax
	movq	$0, 0(%rbp)
	testq	%rax, %rax
	je	.L596
	movq	%rbp, (%rax)
	movq	%rbp, 200(%rbx)
.L597:
	movq	136(%rbx), %rax
	movq	%rax, %rdx
	orq	$1, %rdx
	movq	%rdx, 136(%rbx)
	cmpq	$1, %rax
	jbe	.L598
	leaq	48(%rbx), %rdi
	call	pthread_mutex_unlock@PLT
	addq	$32, %rsp
	.cfi_remember_state
	.cfi_def_cfa_offset 32
	leaq	88(%rbx), %rdi
	popq	%rbx
	.cfi_def_cfa_offset 24
	popq	%rbp
	.cfi_def_cfa_offset 16
	popq	%r12
	.cfi_def_cfa_offset 8
	jmp	pthread_cond_signal@PLT
	.p2align 4,,10
	.p2align 3
.L598:
	.cfi_restore_state
	cmpb	$0, 176(%rbx)
	jne	.L599
	movq	144(%rbx), %rax
	testq	%rax, %rax
	je	.L599
	leaq	88(%rax), %rdx
	movb	$1, 176(%rbx)
	movl	96(%rax), %edi
	leaq	20(%rsp), %rcx
	movq	%rdx, 24(%rsp)
	movl	88(%rax), %edx
	movl	$3, %esi
	movl	$-2147483639, 20(%rsp)
	call	epoll_ctl@PLT
.L599:
	addq	$32, %rsp
	.cfi_remember_state
	.cfi_def_cfa_offset 32
	leaq	48(%rbx), %rdi
	popq	%rbx
	.cfi_def_cfa_offset 24
	popq	%rbp
	.cfi_def_cfa_offset 16
	popq	%r12
	.cfi_def_cfa_offset 8
	jmp	pthread_mutex_unlock@PLT
	.p2align 4,,10
	.p2align 3
.L596:
	.cfi_restore_state
	movdqa	(%rsp), %xmm1
	movups	%xmm1, 192(%rbx)
	jmp	.L597
	.p2align 4,,10
	.p2align 3
.L594:
	movdqa	(%rsp), %xmm2
	movups	%xmm2, 8(%rax)
	addq	$32, %rsp
	.cfi_def_cfa_offset 32
	popq	%rbx
	.cfi_def_cfa_offset 24
	popq	%rbp
	.cfi_def_cfa_offset 16
	popq	%r12
	.cfi_def_cfa_offset 8
	ret
	.cfi_endproc
.LFE3297:
	.size	_ZN4asio6detail15task_io_service25post_immediate_completionEPNS0_25task_io_service_operationEb, .-_ZN4asio6detail15task_io_service25post_immediate_completionEPNS0_25task_io_service_operationEb
	.section	.text.unlikely
	.align 2
.LCOLDB30:
	.text
.LHOTB30:
	.align 2
	.p2align 4
	.globl	_ZN7asiopal13SocketChannel14BeginWriteImplERKN7openpal6RSliceE
	.type	_ZN7asiopal13SocketChannel14BeginWriteImplERKN7openpal6RSliceE, @function
_ZN7asiopal13SocketChannel14BeginWriteImplERKN7openpal6RSliceE:
.LFB7015:
	.cfi_startproc
	.cfi_personality 0x9b,DW.ref.__gxx_personality_v0
	.cfi_lsda 0x1b,.LLSDA7015
	pushq	%r15
	.cfi_def_cfa_offset 16
	.cfi_offset 15, -16
	pushq	%r14
	.cfi_def_cfa_offset 24
	.cfi_offset 14, -24
	pushq	%r13
	.cfi_def_cfa_offset 32
	.cfi_offset 13, -32
	leaq	64(%rdi), %r13
	pushq	%r12
	.cfi_def_cfa_offset 40
	.cfi_offset 12, -40
	movq	%r13, %xmm0
	pushq	%rbp
	.cfi_def_cfa_offset 48
	.cfi_offset 6, -48
	movl	$65536, %ebp
	pushq	%rbx
	.cfi_def_cfa_offset 56
	.cfi_offset 3, -56
	movq	%rdi, %rbx
	subq	$200, %rsp
	.cfi_def_cfa_offset 256
	movq	24(%rdi), %rax
	movl	(%rsi), %r12d
	movdqu	40(%rax), %xmm2
	movq	8(%rsi), %rax
	movaps	%xmm2, 16(%rsp)
	movq	%rax, (%rsp)
	movhps	(%rsp), %xmm0
	movaps	%xmm0, 48(%rsp)
	call	_ZNSt3_V215system_categoryEv@PLT
	movdqa	48(%rsp), %xmm0
	cmpq	%rbp, %r12
	movdqa	16(%rsp), %xmm2
	movq	%rax, 40(%rsp)
	cmovbe	%r12, %rbp
	movq	88(%rbx), %r15
	movq	%r12, 128(%rsp)
	movl	$1, 136(%rsp)
	movq	$0, 144(%rsp)
	movq	%rbx, 168(%rsp)
	movaps	%xmm0, 112(%rsp)
	movups	%xmm2, 152(%rsp)
	data16	leaq	_ZN4asio6detail15keyword_tss_ptrINS0_10call_stackINS0_14strand_service11strand_implEhE7contextEE6value_E@tlsgd(%rip), %rdi
	.value	0x6666
	rex64
	call	__tls_get_addr@PLT
	movq	(%rax), %rax
	testq	%rax, %rax
	je	.L684
	movq	24(%rsp), %rdx
	jmp	.L612
	.p2align 4
	.p2align 4,,10
	.p2align 3
.L611:
	movq	16(%rax), %rax
	testq	%rax, %rax
	je	.L684
.L612:
	cmpq	%rdx, (%rax)
	jne	.L611
	cmpq	$0, 8(%rax)
	setne	16(%rsp)
.L610:
	pxor	%xmm0, %xmm0
	leaq	112(%rsp), %rax
	movq	%rax, 80(%rsp)
	movups	%xmm0, 88(%rsp)
	data16	leaq	_ZN4asio6detail15keyword_tss_ptrINS0_10call_stackINS0_15task_io_serviceENS0_27task_io_service_thread_infoEE7contextEE6value_E@tlsgd(%rip), %rdi
	.value	0x6666
	rex64
	call	__tls_get_addr@PLT
	movq	(%rax), %rax
	testq	%rax, %rax
	je	.L613
	movq	8(%rax), %rax
	testq	%rax, %rax
	je	.L613
	movq	(%rax), %r14
	testq	%r14, %r14
	je	.L613
	movq	$0, (%rax)
	movzbl	(%r14), %eax
	cmpb	$-105, %al
	jbe	.L614
	movb	%al, 152(%r14)
	xorl	%edx, %edx
	movl	$1, %ecx
.L615:
	leaq	_ZN4asio6detail23reactive_socket_send_opINS_15const_buffers_1ENS0_8write_opINS_19basic_stream_socketINS_2ip3tcpENS_21stream_socket_serviceIS6_EEEES2_NS0_14transfer_all_tENS0_15wrapped_handlerINS_10io_service6strandEZN7asiopal13SocketChannel14BeginWriteImplERKN7openpal6RSliceEEUlRKSt10error_codemE_NS0_26is_continuation_if_runningEEEEEE11do_completeEPNS0_15task_io_serviceEPNS0_25task_io_service_operationESM_m(%rip), %rax
	movl	64(%rbx), %r9d
	movdqu	120(%rsp), %xmm0
	movq	$0, (%r14)
	movq	%rax, 8(%r14)
	movq	40(%rsp), %rax
	movups	%xmm0, 96(%r14)
	movdqu	152(%rsp), %xmm0
	movq	%rax, 32(%r14)
	movq	_ZN4asio6detail28reactive_socket_send_op_baseINS_15const_buffers_1EE10do_performEPNS0_10reactor_opE@GOTPCREL(%rip), %rax
	movl	$0, 16(%r14)
	movq	%rax, 48(%r14)
	movq	(%rsp), %rax
	movl	$0, 24(%r14)
	movq	%rax, 64(%r14)
	movq	168(%rsp), %rax
	movq	$0, 40(%r14)
	movl	%r9d, 56(%r14)
	movq	%rbp, 72(%r14)
	movl	$0, 80(%r14)
	movq	%r13, 88(%r14)
	movl	%ecx, 112(%r14)
	movq	%rdx, 120(%r14)
	movq	%rax, 144(%r14)
	movups	%xmm0, 128(%r14)
	movzbl	68(%rbx), %eax
	movq	%r14, 88(%rsp)
	movq	%r14, 96(%rsp)
	testb	$16, %al
	je	.L686
	testq	%r12, %r12
	je	.L616
.L686:
	testb	$3, %al
	jne	.L618
	cmpl	$-1, %r9d
	je	.L769
	movl	%r9d, (%rsp)
	call	__errno_location@PLT
	movl	(%rsp), %edi
	leaq	68(%rsp), %rdx
	movl	$21537, %esi
	movl	$0, (%rax)
	movq	%rax, %r12
	xorl	%eax, %eax
	movl	$1, 68(%rsp)
	call	ioctl@PLT
	movl	%eax, %ebp
	movq	_ZGVZN4asio15system_categoryEvE8instance@GOTPCREL(%rip), %rax
	movzbl	(%rax), %eax
	testb	%al, %al
	je	.L623
	movq	_ZZN4asio15system_categoryEvE8instance@GOTPCREL(%rip), %r13
.L624:
	movl	(%r12), %eax
	movq	%r13, 32(%r14)
	movl	%eax, 24(%r14)
	testl	%ebp, %ebp
	jns	.L770
.L616:
	movq	40(%r15), %rax
	movq	%r14, %xmm1
	punpcklqdq	%xmm1, %xmm1
	movq	40(%rax), %rbx
	movaps	%xmm1, (%rsp)
	cmpb	$0, 40(%rbx)
	jne	.L690
	cmpb	$0, 16(%rsp)
	je	.L673
.L690:
	data16	leaq	_ZN4asio6detail15keyword_tss_ptrINS0_10call_stackINS0_15task_io_serviceENS0_27task_io_service_thread_infoEE7contextEE6value_E@tlsgd(%rip), %rdi
	.value	0x6666
	rex64
	call	__tls_get_addr@PLT
	movq	(%rax), %rax
	testq	%rax, %rax
	jne	.L677
	jmp	.L673
	.p2align 4
	.p2align 4,,10
	.p2align 3
.L675:
	movq	16(%rax), %rax
	testq	%rax, %rax
	je	.L673
.L677:
	cmpq	(%rax), %rbx
	jne	.L675
	movq	8(%rax), %rax
	testq	%rax, %rax
	je	.L673
	movq	16(%rax), %rdx
	addq	$1, 24(%rax)
	movq	$0, (%r14)
	testq	%rdx, %rdx
	je	.L678
.L756:
	movq	%r14, (%rdx)
	movq	%r14, 16(%rax)
.L609:
	addq	$200, %rsp
	.cfi_remember_state
	.cfi_def_cfa_offset 56
	popq	%rbx
	.cfi_def_cfa_offset 48
	popq	%rbp
	.cfi_def_cfa_offset 40
	popq	%r12
	.cfi_def_cfa_offset 32
	popq	%r13
	.cfi_def_cfa_offset 24
	popq	%r14
	.cfi_def_cfa_offset 16
	popq	%r15
	.cfi_def_cfa_offset 8
	ret
	.p2align 4,,10
	.p2align 3
.L614:
	.cfi_restore_state
	movq	%r14, %rdi
	call	_ZdlPv@PLT
.L613:
	movl	$153, %edi
.LEHB7:
	call	_Znwm@PLT
.LEHE7:
	movq	112(%rsp), %r13
	movl	136(%rsp), %ecx
	movb	$-104, 152(%rax)
	movq	144(%rsp), %rdx
	movq	%rax, %r14
	jmp	.L615
	.p2align 4,,10
	.p2align 3
.L770:
	movq	40(%rsp), %rax
	movl	64(%rbx), %r9d
	movl	$0, 24(%r14)
	movq	%rax, 32(%r14)
	orb	$2, 68(%rbx)
.L618:
	movq	72(%rbx), %rbp
	movq	40(%r15), %r12
	testq	%rbp, %rbp
	je	.L771
	addq	$40, %rbp
	movl	%r9d, (%rsp)
	movq	%rbp, %rdi
	call	pthread_mutex_lock@PLT
	movq	72(%rbx), %rax
	cmpb	$0, 144(%rax)
	jne	.L772
	cmpq	$0, 112(%rax)
	je	.L773
.L656:
	movq	120(%rax), %rdx
	movq	$0, (%r14)
	testq	%rdx, %rdx
	je	.L670
	movq	%r14, (%rdx)
	movq	%r14, 120(%rax)
.L671:
	movq	40(%r12), %rax
	lock addq	$1, 184(%rax)
	movq	%rbp, %rdi
	call	pthread_mutex_unlock@PLT
	jmp	.L609
	.p2align 4,,10
	.p2align 3
.L673:
	lock addq	$1, 184(%rbx)
	leaq	48(%rbx), %rbp
	movq	%rbp, %rdi
	call	pthread_mutex_lock@PLT
	movq	200(%rbx), %rax
	movq	$0, (%r14)
	testq	%rax, %rax
	je	.L679
.L766:
	movq	%r14, (%rax)
	movq	%r14, 200(%rbx)
.L680:
	movq	136(%rbx), %rax
	movq	%rax, %rdx
	orq	$1, %rdx
	movq	%rdx, 136(%rbx)
	cmpq	$1, %rax
	jbe	.L681
	movq	%rbp, %rdi
	call	pthread_mutex_unlock@PLT
	leaq	88(%rbx), %rdi
	call	pthread_cond_signal@PLT
	jmp	.L609
	.p2align 4,,10
	.p2align 3
.L684:
	movb	$0, 16(%rsp)
	jmp	.L610
	.p2align 4,,10
	.p2align 3
.L681:
	cmpb	$0, 176(%rbx)
	jne	.L683
	movq	144(%rbx), %rax
	testq	%rax, %rax
	je	.L683
	movb	$1, 176(%rbx)
	leaq	88(%rax), %rdx
	leaq	68(%rsp), %rcx
	movl	$3, %esi
	movl	$-2147483639, 68(%rsp)
	movq	%rdx, 72(%rsp)
	movl	88(%rax), %edx
	movl	96(%rax), %edi
	call	epoll_ctl@PLT
.L683:
	movq	%rbp, %rdi
	call	pthread_mutex_unlock@PLT
	jmp	.L609
	.p2align 4,,10
	.p2align 3
.L678:
	movdqa	(%rsp), %xmm6
	movups	%xmm6, 8(%rax)
	jmp	.L609
	.p2align 4,,10
	.p2align 3
.L773:
	movq	%r14, %rdi
.LEHB8:
	call	*48(%r14)
.LEHE8:
	testb	%al, %al
	movl	(%rsp), %r9d
	jne	.L774
	movq	72(%rbx), %rax
	movl	92(%rax), %edx
	testb	$4, %dl
	jne	.L656
	orl	$4, %edx
	movq	%rax, 72(%rsp)
	leaq	68(%rsp), %rcx
	movl	$3, %esi
	movl	%edx, 68(%rsp)
	movl	96(%r12), %edi
	movl	%r9d, %edx
	call	epoll_ctl@PLT
	testl	%eax, %eax
	jne	.L669
	movq	72(%rbx), %rax
	movl	68(%rsp), %edx
	orl	%edx, 92(%rax)
	jmp	.L656
	.p2align 4,,10
	.p2align 3
.L670:
	movq	%r14, %xmm0
	punpcklqdq	%xmm0, %xmm0
	movups	%xmm0, 112(%rax)
	jmp	.L671
	.p2align 4,,10
	.p2align 3
.L623:
	movq	_ZGVZN4asio15system_categoryEvE8instance@GOTPCREL(%rip), %rdi
	call	__cxa_guard_acquire@PLT
	movq	_ZZN4asio15system_categoryEvE8instance@GOTPCREL(%rip), %r13
	testl	%eax, %eax
	je	.L624
	movq	_ZN4asio6detail15system_categoryD1Ev@GOTPCREL(%rip), %rdi
	leaq	__dso_handle(%rip), %rdx
	movq	%r13, %rsi
	call	__cxa_atexit@PLT
	movq	_ZGVZN4asio15system_categoryEvE8instance@GOTPCREL(%rip), %rdi
	call	__cxa_guard_release@PLT
	jmp	.L624
	.p2align 4,,10
	.p2align 3
.L679:
	movdqa	(%rsp), %xmm5
	movups	%xmm5, 192(%rbx)
	jmp	.L680
	.p2align 4,,10
	.p2align 3
.L771:
	movq	_ZGVZN4asio15system_categoryEvE8instance@GOTPCREL(%rip), %rbx
	movq	%r14, %xmm3
	punpcklqdq	%xmm3, %xmm3
	movaps	%xmm3, (%rsp)
	movzbl	(%rbx), %eax
	testb	%al, %al
	je	.L628
	movq	_ZZN4asio15system_categoryEvE8instance@GOTPCREL(%rip), %r13
.L629:
	movq	40(%r12), %rbx
	movl	$9, 24(%r14)
	movq	%r13, 32(%r14)
	cmpb	$0, 40(%rbx)
	jne	.L687
	cmpb	$0, 16(%rsp)
	je	.L658
.L687:
	data16	leaq	_ZN4asio6detail15keyword_tss_ptrINS0_10call_stackINS0_15task_io_serviceENS0_27task_io_service_thread_infoEE7contextEE6value_E@tlsgd(%rip), %rdi
	.value	0x6666
	rex64
	call	__tls_get_addr@PLT
	movq	(%rax), %rax
	testq	%rax, %rax
	jne	.L635
	jmp	.L658
	.p2align 4
	.p2align 4,,10
	.p2align 3
.L633:
	movq	16(%rax), %rax
	testq	%rax, %rax
	je	.L658
.L635:
	cmpq	(%rax), %rbx
	jne	.L633
.L768:
	movq	8(%rax), %rax
	testq	%rax, %rax
	je	.L658
	addq	$1, 24(%rax)
	movq	$0, (%r14)
	movq	16(%rax), %rdx
	testq	%rdx, %rdx
	jne	.L756
	movdqa	(%rsp), %xmm7
	movups	%xmm7, 8(%rax)
	jmp	.L609
	.p2align 4,,10
	.p2align 3
.L772:
	movq	%r14, %xmm4
	movq	40(%r12), %rbx
	punpcklqdq	%xmm4, %xmm4
	movaps	%xmm4, (%rsp)
	cmpb	$0, 40(%rbx)
	jne	.L688
	cmpb	$0, 16(%rsp)
	je	.L644
.L688:
	data16	leaq	_ZN4asio6detail15keyword_tss_ptrINS0_10call_stackINS0_15task_io_serviceENS0_27task_io_service_thread_infoEE7contextEE6value_E@tlsgd(%rip), %rdi
	.value	0x6666
	rex64
	call	__tls_get_addr@PLT
	movq	(%rax), %rax
	testq	%rax, %rax
	jne	.L648
	jmp	.L644
	.p2align 4
	.p2align 4,,10
	.p2align 3
.L646:
	movq	16(%rax), %rax
	testq	%rax, %rax
	je	.L644
.L648:
	cmpq	(%rax), %rbx
	jne	.L646
	movq	8(%rax), %rax
	testq	%rax, %rax
	je	.L644
	movq	16(%rax), %rdx
	addq	$1, 24(%rax)
	movq	$0, (%r14)
	testq	%rdx, %rdx
	je	.L649
	movq	%r14, (%rdx)
	movq	%r14, 16(%rax)
	jmp	.L683
	.p2align 4,,10
	.p2align 3
.L769:
	movq	_ZGVZN4asio15system_categoryEvE8instance@GOTPCREL(%rip), %rbx
	movzbl	(%rbx), %eax
	testb	%al, %al
	je	.L620
	movq	_ZZN4asio15system_categoryEvE8instance@GOTPCREL(%rip), %r13
.L621:
	movl	$9, 24(%r14)
	movq	%r13, 32(%r14)
	jmp	.L616
.L628:
	movq	%rbx, %rdi
	call	__cxa_guard_acquire@PLT
	movq	_ZZN4asio15system_categoryEvE8instance@GOTPCREL(%rip), %r13
	testl	%eax, %eax
	je	.L629
	movq	_ZN4asio6detail15system_categoryD1Ev@GOTPCREL(%rip), %rdi
	leaq	__dso_handle(%rip), %rdx
	movq	%r13, %rsi
	call	__cxa_atexit@PLT
	movq	%rbx, %rdi
	call	__cxa_guard_release@PLT
	jmp	.L629
.L620:
	movq	%rbx, %rdi
	call	__cxa_guard_acquire@PLT
	movq	_ZZN4asio15system_categoryEvE8instance@GOTPCREL(%rip), %r13
	testl	%eax, %eax
	je	.L621
	movq	_ZN4asio6detail15system_categoryD1Ev@GOTPCREL(%rip), %rdi
	leaq	__dso_handle(%rip), %rdx
	movq	%r13, %rsi
	call	__cxa_atexit@PLT
	movq	%rbx, %rdi
	call	__cxa_guard_release@PLT
	jmp	.L621
	.p2align 4,,10
	.p2align 3
.L658:
	lock addq	$1, 184(%rbx)
	leaq	48(%rbx), %rbp
	movq	%rbp, %rdi
	call	pthread_mutex_lock@PLT
	movq	$0, (%r14)
	movq	200(%rbx), %rax
	testq	%rax, %rax
	jne	.L766
	movdqa	(%rsp), %xmm7
	movups	%xmm7, 192(%rbx)
	jmp	.L680
.L644:
	lock addq	$1, 184(%rbx)
	leaq	48(%rbx), %r12
	movq	%r12, %rdi
	call	pthread_mutex_lock@PLT
	movq	200(%rbx), %rax
	movq	$0, (%r14)
	testq	%rax, %rax
	je	.L651
	movq	%r14, (%rax)
	movq	%r14, 200(%rbx)
.L652:
	movq	136(%rbx), %rax
	movq	%rax, %rdx
	orq	$1, %rdx
	movq	%rdx, 136(%rbx)
	cmpq	$1, %rax
	jbe	.L653
	movq	%r12, %rdi
	call	pthread_mutex_unlock@PLT
	leaq	88(%rbx), %rdi
	call	pthread_cond_signal@PLT
	jmp	.L683
.L653:
	cmpb	$0, 176(%rbx)
	jne	.L655
	movq	144(%rbx), %rax
	testq	%rax, %rax
	je	.L655
	movb	$1, 176(%rbx)
	leaq	88(%rax), %rdx
	leaq	68(%rsp), %rcx
	movl	$3, %esi
	movq	%rdx, 72(%rsp)
	movl	88(%rax), %edx
	movl	$-2147483639, 68(%rsp)
	movl	96(%rax), %edi
	call	epoll_ctl@PLT
.L655:
	movq	%r12, %rdi
	call	pthread_mutex_unlock@PLT
	jmp	.L683
.L774:
	movq	%r14, %xmm7
	movq	%rbp, %rdi
	punpcklqdq	%xmm7, %xmm7
	movaps	%xmm7, (%rsp)
	call	pthread_mutex_unlock@PLT
	movq	40(%r12), %rbx
	cmpb	$0, 40(%rbx)
	jne	.L689
	cmpb	$0, 16(%rsp)
	je	.L658
.L689:
	data16	leaq	_ZN4asio6detail15keyword_tss_ptrINS0_10call_stackINS0_15task_io_serviceENS0_27task_io_service_thread_infoEE7contextEE6value_E@tlsgd(%rip), %rdi
	.value	0x6666
	rex64
	call	__tls_get_addr@PLT
	movq	(%rax), %rax
	testq	%rax, %rax
	jne	.L662
	jmp	.L658
	.p2align 4
	.p2align 4,,10
	.p2align 3
.L660:
	movq	16(%rax), %rax
	testq	%rax, %rax
	je	.L658
.L662:
	cmpq	(%rax), %rbx
	jne	.L660
	jmp	.L768
.L651:
	movdqa	(%rsp), %xmm7
	movups	%xmm7, 192(%rbx)
	jmp	.L652
.L649:
	movdqa	(%rsp), %xmm7
	movups	%xmm7, 8(%rax)
	jmp	.L683
.L669:
	call	_ZN4asio15system_categoryEv@PLT
	movq	%rax, %rbx
	call	__errno_location@PLT
	movzbl	16(%rsp), %edx
	movq	40(%r12), %rdi
	movq	%r14, %rsi
	movl	(%rax), %eax
	movq	%rbx, 32(%r14)
	movl	%eax, 24(%r14)
	call	_ZN4asio6detail15task_io_service25post_immediate_completionEPNS0_25task_io_service_operationEb@PLT
	jmp	.L683
.L685:
	movq	%rax, %rbx
	jmp	.L672
	.section	.gcc_except_table
.LLSDA7015:
	.byte	0xff
	.byte	0xff
	.byte	0x1
	.uleb128 .LLSDACSE7015-.LLSDACSB7015
.LLSDACSB7015:
	.uleb128 .LEHB7-.LFB7015
	.uleb128 .LEHE7-.LEHB7
	.uleb128 0
	.uleb128 0
	.uleb128 .LEHB8-.LFB7015
	.uleb128 .LEHE8-.LEHB8
	.uleb128 .L685-.LFB7015
	.uleb128 0
.LLSDACSE7015:
	.text
	.cfi_endproc
	.section	.text.unlikely
	.cfi_startproc
	.cfi_personality 0x9b,DW.ref.__gxx_personality_v0
	.cfi_lsda 0x1b,.LLSDAC7015
	.type	_ZN7asiopal13SocketChannel14BeginWriteImplERKN7openpal6RSliceE.cold, @function
_ZN7asiopal13SocketChannel14BeginWriteImplERKN7openpal6RSliceE.cold:
.LFSB7015:
.L672:
	.cfi_def_cfa_offset 256
	.cfi_offset 3, -56
	.cfi_offset 6, -48
	.cfi_offset 12, -40
	.cfi_offset 13, -32
	.cfi_offset 14, -24
	.cfi_offset 15, -16
	movq	%rbp, %rdi
	call	pthread_mutex_unlock@PLT
	leaq	80(%rsp), %rdi
	call	_ZN4asio6detail23reactive_socket_send_opINS_15const_buffers_1ENS0_8write_opINS_19basic_stream_socketINS_2ip3tcpENS_21stream_socket_serviceIS6_EEEES2_NS0_14transfer_all_tENS0_15wrapped_handlerINS_10io_service6strandEZN7asiopal13SocketChannel14BeginWriteImplERKN7openpal6RSliceEEUlRKSt10error_codemE_NS0_26is_continuation_if_runningEEEEEE3ptr5resetEv
	movq	%rbx, %rdi
.LEHB9:
	call	_Unwind_Resume@PLT
.LEHE9:
	.cfi_endproc
.LFE7015:
	.section	.gcc_except_table
.LLSDAC7015:
	.byte	0xff
	.byte	0xff
	.byte	0x1
	.uleb128 .LLSDACSEC7015-.LLSDACSBC7015
.LLSDACSBC7015:
	.uleb128 .LEHB9-.LCOLDB30
	.uleb128 .LEHE9-.LEHB9
	.uleb128 0
	.uleb128 0
.LLSDACSEC7015:
	.section	.text.unlikely
	.text
	.size	_ZN7asiopal13SocketChannel14BeginWriteImplERKN7openpal6RSliceE, .-_ZN7asiopal13SocketChannel14BeginWriteImplERKN7openpal6RSliceE
	.section	.text.unlikely
	.size	_ZN7asiopal13SocketChannel14BeginWriteImplERKN7openpal6RSliceE.cold, .-_ZN7asiopal13SocketChannel14BeginWriteImplERKN7openpal6RSliceE.cold
.LCOLDE30:
	.text
.LHOTE30:
	.section	.text._ZN4asio6detail14strand_service16on_dispatch_exitD2Ev,"axG",@progbits,_ZN4asio6detail14strand_service16on_dispatch_exitD5Ev,comdat
	.align 2
	.p2align 4
	.weak	_ZN4asio6detail14strand_service16on_dispatch_exitD2Ev
	.type	_ZN4asio6detail14strand_service16on_dispatch_exitD2Ev, @function
_ZN4asio6detail14strand_service16on_dispatch_exitD2Ev:
.LFB6397:
	.cfi_startproc
	pushq	%rbp
	.cfi_def_cfa_offset 16
	.cfi_offset 6, -16
	movq	%rdi, %rbp
	pushq	%rbx
	.cfi_def_cfa_offset 24
	.cfi_offset 3, -24
	subq	$56, %rsp
	.cfi_def_cfa_offset 80
	movq	8(%rdi), %rax
	leaq	24(%rax), %rdi
	call	pthread_mutex_lock@PLT
	movq	8(%rbp), %rdi
	movq	72(%rdi), %rbx
	testq	%rbx, %rbx
	je	.L801
	movq	96(%rdi), %rax
	testq	%rax, %rax
	je	.L778
	movq	%rbx, (%rax)
	movq	88(%rdi), %rbx
.L779:
	movq	80(%rdi), %rax
	pxor	%xmm0, %xmm0
	movups	%xmm0, 72(%rdi)
	movq	%rax, 96(%rdi)
.L777:
	testq	%rbx, %rbx
	setne	64(%rdi)
	addq	$24, %rdi
	call	pthread_mutex_unlock@PLT
	testq	%rbx, %rbx
	je	.L775
	movdqu	0(%rbp), %xmm0
	movq	0(%rbp), %rbx
	movdqa	%xmm0, %xmm1
	movhlps	%xmm0, %xmm2
	punpckhqdq	%xmm0, %xmm1
	movq	%xmm2, %rbp
	movaps	%xmm1, 16(%rsp)
	cmpb	$0, 40(%rbx)
	je	.L781
	data16	leaq	_ZN4asio6detail15keyword_tss_ptrINS0_10call_stackINS0_15task_io_serviceENS0_27task_io_service_thread_infoEE7contextEE6value_E@tlsgd(%rip), %rdi
	.value	0x6666
	rex64
	call	__tls_get_addr@PLT
	movq	(%rax), %rax
	testq	%rax, %rax
	jne	.L784
	jmp	.L781
	.p2align 4
	.p2align 4,,10
	.p2align 3
.L782:
	movq	16(%rax), %rax
	testq	%rax, %rax
	je	.L781
.L784:
	cmpq	(%rax), %rbx
	jne	.L782
	movq	8(%rax), %rax
	testq	%rax, %rax
	je	.L781
	movq	16(%rax), %rdx
	addq	$1, 24(%rax)
	movq	$0, 0(%rbp)
	testq	%rdx, %rdx
	je	.L785
	movq	%rbp, (%rdx)
	movq	%rbp, 16(%rax)
.L775:
	addq	$56, %rsp
	.cfi_remember_state
	.cfi_def_cfa_offset 24
	popq	%rbx
	.cfi_def_cfa_offset 16
	popq	%rbp
	.cfi_def_cfa_offset 8
	ret
	.p2align 4,,10
	.p2align 3
.L778:
	.cfi_restore_state
	movq	%rbx, 88(%rdi)
	jmp	.L779
	.p2align 4,,10
	.p2align 3
.L781:
	lock addq	$1, 184(%rbx)
	leaq	48(%rbx), %r8
	movq	%r8, %rdi
	movq	%r8, 8(%rsp)
	call	pthread_mutex_lock@PLT
	movq	200(%rbx), %rax
	movq	8(%rsp), %r8
	movq	$0, 0(%rbp)
	testq	%rax, %rax
	je	.L786
	movq	%rbp, (%rax)
	movq	%rbp, 200(%rbx)
.L787:
	movq	136(%rbx), %rax
	movq	%rax, %rdx
	orq	$1, %rdx
	movq	%rdx, 136(%rbx)
	cmpq	$1, %rax
	ja	.L802
	cmpb	$0, 176(%rbx)
	jne	.L789
	movq	144(%rbx), %rax
	testq	%rax, %rax
	je	.L789
	leaq	88(%rax), %rdx
	movb	$1, 176(%rbx)
	movl	96(%rax), %edi
	leaq	36(%rsp), %rcx
	movq	%rdx, 40(%rsp)
	movl	88(%rax), %edx
	movl	$3, %esi
	movq	%r8, 8(%rsp)
	movl	$-2147483639, 36(%rsp)
	call	epoll_ctl@PLT
	movq	8(%rsp), %r8
.L789:
	addq	$56, %rsp
	.cfi_remember_state
	.cfi_def_cfa_offset 24
	movq	%r8, %rdi
	popq	%rbx
	.cfi_def_cfa_offset 16
	popq	%rbp
	.cfi_def_cfa_offset 8
	jmp	pthread_mutex_unlock@PLT
	.p2align 4,,10
	.p2align 3
.L801:
	.cfi_restore_state
	movq	88(%rdi), %rbx
	jmp	.L777
	.p2align 4,,10
	.p2align 3
.L802:
	movq	%r8, %rdi
	call	pthread_mutex_unlock@PLT
	addq	$56, %rsp
	.cfi_remember_state
	.cfi_def_cfa_offset 24
	leaq	88(%rbx), %rdi
	popq	%rbx
	.cfi_def_cfa_offset 16
	popq	%rbp
	.cfi_def_cfa_offset 8
	jmp	pthread_cond_signal@PLT
	.p2align 4,,10
	.p2align 3
.L786:
	.cfi_restore_state
	movdqa	16(%rsp), %xmm3
	movups	%xmm3, 192(%rbx)
	jmp	.L787
	.p2align 4,,10
	.p2align 3
.L785:
	movdqa	16(%rsp), %xmm4
	movups	%xmm4, 8(%rax)
	jmp	.L775
	.cfi_endproc
.LFE6397:
	.size	_ZN4asio6detail14strand_service16on_dispatch_exitD2Ev, .-_ZN4asio6detail14strand_service16on_dispatch_exitD2Ev
	.weak	_ZN4asio6detail14strand_service16on_dispatch_exitD1Ev
	.set	_ZN4asio6detail14strand_service16on_dispatch_exitD1Ev,_ZN4asio6detail14strand_service16on_dispatch_exitD2Ev
	.section	.text.unlikely
	.align 2
.LCOLDB31:
	.text
.LHOTB31:
	.align 2
	.p2align 4
	.type	_ZN4asio6detail14strand_service8dispatchINS0_7binder2IZN7asiopal13SocketChannel13BeginReadImplEN7openpal6WSliceEEUlRKSt10error_codemE_S8_mEEEEvRPNS1_11strand_implERT_, @function
_ZN4asio6detail14strand_service8dispatchINS0_7binder2IZN7asiopal13SocketChannel13BeginReadImplEN7openpal6WSliceEEUlRKSt10error_codemE_S8_mEEEEvRPNS1_11strand_implERT_:
.LFB9399:
	.cfi_startproc
	.cfi_personality 0x9b,DW.ref.__gxx_personality_v0
	.cfi_lsda 0x1b,.LLSDA9399
	pushq	%r13
	.cfi_def_cfa_offset 16
	.cfi_offset 13, -16
	movq	%rdx, %r13
	pushq	%r12
	.cfi_def_cfa_offset 24
	.cfi_offset 12, -24
	movq	%rdi, %r12
	pushq	%rbp
	.cfi_def_cfa_offset 32
	.cfi_offset 6, -32
	movq	%rsi, %rbp
	pushq	%rbx
	.cfi_def_cfa_offset 40
	.cfi_offset 3, -40
	subq	$152, %rsp
	.cfi_def_cfa_offset 192
	data16	leaq	_ZN4asio6detail15keyword_tss_ptrINS0_10call_stackINS0_14strand_service11strand_implEhE7contextEE6value_E@tlsgd(%rip), %rdi
	.value	0x6666
	rex64
	call	__tls_get_addr@PLT
	movq	(%rax), %rax
	testq	%rax, %rax
	je	.L804
	movq	0(%rbp), %rdx
	jmp	.L807
	.p2align 4
	.p2align 4,,10
	.p2align 3
.L805:
	movq	16(%rax), %rax
	testq	%rax, %rax
	je	.L804
.L807:
	cmpq	(%rax), %rdx
	jne	.L805
	cmpq	$0, 8(%rax)
	je	.L804
	lfence
	movq	0(%r13), %rax
	movq	24(%r13), %rdx
	movq	40(%rax), %rdi
	movb	$0, 57(%rax)
	testq	%rdi, %rdi
	je	.L810
	cmpb	$0, 56(%rax)
	jne	.L810
	movq	(%rdi), %rax
	leaq	8(%r13), %rsi
.LEHB10:
	call	*16(%rax)
.LEHE10:
.L810:
	sfence
.L803:
	addq	$152, %rsp
	.cfi_remember_state
	.cfi_def_cfa_offset 40
	popq	%rbx
	.cfi_def_cfa_offset 32
	popq	%rbp
	.cfi_def_cfa_offset 24
	popq	%r12
	.cfi_def_cfa_offset 16
	popq	%r13
	.cfi_def_cfa_offset 8
	ret
	.p2align 4,,10
	.p2align 3
.L804:
	.cfi_restore_state
	data16	leaq	_ZN4asio6detail15keyword_tss_ptrINS0_10call_stackINS0_15task_io_serviceENS0_27task_io_service_thread_infoEE7contextEE6value_E@tlsgd(%rip), %rdi
	.value	0x6666
	rex64
	call	__tls_get_addr@PLT
	movq	(%rax), %rax
	testq	%rax, %rax
	je	.L811
	movq	8(%rax), %rax
	testq	%rax, %rax
	je	.L811
	movq	(%rax), %rbx
	testq	%rbx, %rbx
	je	.L811
	movq	$0, (%rax)
	movzbl	(%rbx), %eax
	cmpb	$55, %al
	jbe	.L812
	movb	%al, 56(%rbx)
	jmp	.L813
.L812:
	movq	%rbx, %rdi
	call	_ZdlPv@PLT
.L811:
	movl	$57, %edi
.LEHB11:
	call	_Znwm@PLT
	movb	$56, 56(%rax)
	movq	%rax, %rbx
.L813:
	movdqu	0(%r13), %xmm0
	leaq	_ZN4asio6detail18completion_handlerINS0_7binder2IZN7asiopal13SocketChannel13BeginReadImplEN7openpal6WSliceEEUlRKSt10error_codemE_S7_mEEE11do_completeEPNS0_15task_io_serviceEPNS0_25task_io_service_operationES9_m(%rip), %rax
	movq	$0, (%rbx)
	movq	%rbx, %xmm1
	movq	%rax, 8(%rbx)
	punpcklqdq	%xmm1, %xmm1
	movups	%xmm0, 24(%rbx)
	movdqu	16(%r13), %xmm0
	movl	$0, 16(%rbx)
	movups	%xmm0, 40(%rbx)
	movaps	%xmm1, (%rsp)
	data16	leaq	_ZN4asio6detail15keyword_tss_ptrINS0_10call_stackINS0_15task_io_serviceENS0_27task_io_service_thread_infoEE7contextEE6value_E@tlsgd(%rip), %rdi
	.value	0x6666
	rex64
	call	__tls_get_addr@PLT
	movq	(%rax), %rax
	testq	%rax, %rax
	je	.L897
	movq	40(%r12), %rdx
	jmp	.L818
	.p2align 4
	.p2align 4,,10
	.p2align 3
.L815:
	movq	16(%rax), %rax
	testq	%rax, %rax
	je	.L897
.L818:
	cmpq	(%rax), %rdx
	jne	.L815
	movq	8(%rax), %r13
	movq	0(%rbp), %rax
	leaq	24(%rax), %rdi
	call	pthread_mutex_lock@PLT
	testq	%r13, %r13
	je	.L817
	movq	0(%rbp), %rdi
	cmpb	$0, 64(%rdi)
	je	.L900
.L820:
	movq	80(%rdi), %rax
	movq	$0, (%rbx)
	testq	%rax, %rax
	je	.L824
	movq	%rbx, (%rax)
	movq	%rbx, 80(%rdi)
.L825:
	addq	$24, %rdi
.L899:
	addq	$152, %rsp
	.cfi_remember_state
	.cfi_def_cfa_offset 40
	popq	%rbx
	.cfi_def_cfa_offset 32
	popq	%rbp
	.cfi_def_cfa_offset 24
	popq	%r12
	.cfi_def_cfa_offset 16
	popq	%r13
	.cfi_def_cfa_offset 8
	jmp	pthread_mutex_unlock@PLT
.L900:
	.cfi_restore_state
	movb	$1, 64(%rdi)
	addq	$24, %rdi
	leaq	112(%rsp), %r13
	call	pthread_mutex_unlock@PLT
	movq	0(%rbp), %rbp
	movq	%rbp, 48(%rsp)
	data16	leaq	_ZN4asio6detail15keyword_tss_ptrINS0_10call_stackINS0_14strand_service11strand_implEhE7contextEE6value_E@tlsgd(%rip), %rdi
	.value	0x6666
	rex64
	call	__tls_get_addr@PLT
	movq	40(%r12), %r12
	movq	%rbp, %xmm4
	movq	%r13, 80(%rsp)
	movq	$0, 96(%rsp)
	movq	%r12, %xmm0
	punpcklqdq	%xmm4, %xmm0
	movaps	%xmm0, 32(%rsp)
	movdqu	24(%rbx), %xmm0
	movq	(%rax), %rdx
	movaps	%xmm0, 112(%rsp)
	movdqu	40(%rbx), %xmm0
	movq	%rdx, 64(%rsp)
	leaq	48(%rsp), %rdx
	movq	%rdx, (%rax)
	movq	%rdx, 56(%rsp)
	movaps	%xmm0, 128(%rsp)
	data16	leaq	_ZN4asio6detail15keyword_tss_ptrINS0_10call_stackINS0_15task_io_serviceENS0_27task_io_service_thread_infoEE7contextEE6value_E@tlsgd(%rip), %rdi
	.value	0x6666
	rex64
	call	__tls_get_addr@PLT
	movq	(%rax), %rax
	testq	%rax, %rax
	je	.L822
	movq	8(%rax), %rax
	testq	%rax, %rax
	je	.L822
	cmpq	$0, (%rax)
	je	.L901
.L822:
	movq	%rbx, %rdi
	call	_ZdlPv@PLT
.L837:
	movq	$0, 88(%rsp)
	testq	%r12, %r12
	je	.L838
	movq	112(%rsp), %rax
	movq	136(%rsp), %rdx
	movq	40(%rax), %rdi
	movb	$0, 57(%rax)
	testq	%rdi, %rdi
	je	.L840
	cmpb	$0, 56(%rax)
	je	.L902
.L840:
	sfence
.L838:
	leaq	24(%rbp), %rdi
	movq	%rdi, (%rsp)
	call	pthread_mutex_lock@PLT
	movq	72(%rbp), %rbx
	movq	(%rsp), %rdi
	testq	%rbx, %rbx
	je	.L903
	movq	96(%rbp), %rax
	testq	%rax, %rax
	je	.L844
	movq	%rbx, (%rax)
	movq	88(%rbp), %rbx
.L845:
	movq	80(%rbp), %rax
	pxor	%xmm0, %xmm0
	movups	%xmm0, 72(%rbp)
	movq	%rax, 96(%rbp)
.L842:
	testq	%rbx, %rbx
	setne	64(%rbp)
	call	pthread_mutex_unlock@PLT
	testq	%rbx, %rbx
	je	.L846
	movq	%rbp, %xmm3
	punpcklqdq	%xmm3, %xmm3
	movaps	%xmm3, (%rsp)
	cmpb	$0, 40(%r12)
	je	.L847
	data16	leaq	_ZN4asio6detail15keyword_tss_ptrINS0_10call_stackINS0_15task_io_serviceENS0_27task_io_service_thread_infoEE7contextEE6value_E@tlsgd(%rip), %rdi
	.value	0x6666
	rex64
	call	__tls_get_addr@PLT
	movq	(%rax), %rax
	testq	%rax, %rax
	jne	.L850
	jmp	.L847
	.p2align 4
	.p2align 4,,10
	.p2align 3
.L848:
	movq	16(%rax), %rax
	testq	%rax, %rax
	je	.L847
.L850:
	cmpq	(%rax), %r12
	jne	.L848
	movq	8(%rax), %rax
	testq	%rax, %rax
	je	.L847
	movq	16(%rax), %rdx
	addq	$1, 24(%rax)
	movq	$0, 0(%rbp)
	testq	%rdx, %rdx
	je	.L851
	movq	%rbp, (%rdx)
	movq	%rbp, 16(%rax)
.L846:
	data16	leaq	_ZN4asio6detail15keyword_tss_ptrINS0_10call_stackINS0_14strand_service11strand_implEhE7contextEE6value_E@tlsgd(%rip), %rdi
	.value	0x6666
	rex64
	call	__tls_get_addr@PLT
	movq	64(%rsp), %rdx
	movq	%rdx, (%rax)
	addq	$152, %rsp
	.cfi_remember_state
	.cfi_def_cfa_offset 40
	popq	%rbx
	.cfi_def_cfa_offset 32
	popq	%rbp
	.cfi_def_cfa_offset 24
	popq	%r12
	.cfi_def_cfa_offset 16
	popq	%r13
	.cfi_def_cfa_offset 8
	ret
.L847:
	.cfi_restore_state
	lock addq	$1, 184(%r12)
	leaq	48(%r12), %rbx
	movq	%rbx, %rdi
	call	pthread_mutex_lock@PLT
	movq	200(%r12), %rax
	movq	$0, 0(%rbp)
	testq	%rax, %rax
	je	.L852
	movq	%rbp, (%rax)
	movq	%rbp, 200(%r12)
.L853:
	movq	136(%r12), %rax
	movq	%rax, %rdx
	orq	$1, %rdx
	movq	%rdx, 136(%r12)
	cmpq	$1, %rax
	jbe	.L854
	movq	%rbx, %rdi
	call	pthread_mutex_unlock@PLT
	leaq	88(%r12), %rdi
	call	pthread_cond_signal@PLT
	jmp	.L846
	.p2align 4,,10
	.p2align 3
.L897:
	movq	0(%rbp), %rax
	leaq	24(%rax), %rdi
	call	pthread_mutex_lock@PLT
.L817:
	movq	0(%rbp), %rdi
	cmpb	$0, 64(%rdi)
	jne	.L820
	movb	$1, 64(%rdi)
	addq	$24, %rdi
	call	pthread_mutex_unlock@PLT
	movq	0(%rbp), %rbp
	movq	$0, (%rbx)
	movq	%rbp, %xmm2
	movq	96(%rbp), %rax
	punpcklqdq	%xmm2, %xmm2
	movaps	%xmm2, 16(%rsp)
	testq	%rax, %rax
	je	.L826
	movq	%rbx, (%rax)
	movq	%rbx, 96(%rbp)
.L827:
	movq	40(%r12), %rbx
	cmpb	$0, 40(%rbx)
	je	.L828
	data16	leaq	_ZN4asio6detail15keyword_tss_ptrINS0_10call_stackINS0_15task_io_serviceENS0_27task_io_service_thread_infoEE7contextEE6value_E@tlsgd(%rip), %rdi
	.value	0x6666
	rex64
	call	__tls_get_addr@PLT
	movq	(%rax), %rax
	testq	%rax, %rax
	jne	.L831
	jmp	.L828
	.p2align 4
	.p2align 4,,10
	.p2align 3
.L829:
	movq	16(%rax), %rax
	testq	%rax, %rax
	je	.L828
.L831:
	cmpq	(%rax), %rbx
	jne	.L829
	movq	8(%rax), %rax
	testq	%rax, %rax
	je	.L828
	movq	16(%rax), %rdx
	addq	$1, 24(%rax)
	movq	$0, 0(%rbp)
	testq	%rdx, %rdx
	je	.L832
	movq	%rbp, (%rdx)
	movq	%rbp, 16(%rax)
	jmp	.L803
.L828:
	lock addq	$1, 184(%rbx)
	leaq	48(%rbx), %r12
	movq	%r12, %rdi
	call	pthread_mutex_lock@PLT
	movq	200(%rbx), %rax
	movq	$0, 0(%rbp)
	testq	%rax, %rax
	je	.L833
	movq	%rbp, (%rax)
	movq	%rbp, 200(%rbx)
.L834:
	movq	136(%rbx), %rax
	movq	%rax, %rdx
	orq	$1, %rdx
	movq	%rdx, 136(%rbx)
	cmpq	$1, %rax
	jbe	.L835
	movq	%r12, %rdi
	call	pthread_mutex_unlock@PLT
	addq	$152, %rsp
	.cfi_remember_state
	.cfi_def_cfa_offset 40
	leaq	88(%rbx), %rdi
	popq	%rbx
	.cfi_def_cfa_offset 32
	popq	%rbp
	.cfi_def_cfa_offset 24
	popq	%r12
	.cfi_def_cfa_offset 16
	popq	%r13
	.cfi_def_cfa_offset 8
	jmp	pthread_cond_signal@PLT
.LEHE11:
.L824:
	.cfi_restore_state
	movdqa	(%rsp), %xmm5
	movups	%xmm5, 72(%rdi)
	jmp	.L825
.L902:
	movq	(%rdi), %rax
	leaq	120(%rsp), %rsi
.LEHB12:
	call	*16(%rax)
.LEHE12:
	jmp	.L840
.L833:
	movdqa	16(%rsp), %xmm7
	movups	%xmm7, 192(%rbx)
	jmp	.L834
.L852:
	movdqa	(%rsp), %xmm6
	movups	%xmm6, 192(%r12)
	jmp	.L853
.L903:
	movq	88(%rbp), %rbx
	jmp	.L842
.L844:
	movq	%rbx, 88(%rbp)
	jmp	.L845
.L835:
	cmpb	$0, 176(%rbx)
	jne	.L836
	movq	144(%rbx), %rax
	testq	%rax, %rax
	je	.L836
	movb	$1, 176(%rbx)
	leaq	88(%rax), %rdx
	leaq	112(%rsp), %rcx
	movl	$3, %esi
	movq	%rdx, 116(%rsp)
	movl	88(%rax), %edx
	movl	$-2147483639, 112(%rsp)
	movl	96(%rax), %edi
	call	epoll_ctl@PLT
.L836:
	movq	%r12, %rdi
	jmp	.L899
.L854:
	cmpb	$0, 176(%r12)
	jne	.L856
	movq	144(%r12), %rax
	testq	%rax, %rax
	je	.L856
	movb	$1, 176(%r12)
	leaq	88(%rax), %rdx
	movq	%r13, %rcx
	movl	$3, %esi
	movq	%rdx, 116(%rsp)
	movl	88(%rax), %edx
	movl	$-2147483639, 112(%rsp)
	movl	96(%rax), %edi
	call	epoll_ctl@PLT
.L856:
	movq	%rbx, %rdi
	call	pthread_mutex_unlock@PLT
	jmp	.L846
.L826:
	movdqa	(%rsp), %xmm6
	movups	%xmm6, 88(%rbp)
	jmp	.L827
.L901:
	movzbl	56(%rbx), %edx
	movb	%dl, (%rbx)
	movq	%rbx, (%rax)
	jmp	.L837
.L832:
	movdqa	16(%rsp), %xmm6
	movups	%xmm6, 8(%rax)
	jmp	.L803
.L851:
	movdqa	(%rsp), %xmm7
	movups	%xmm7, 8(%rax)
	jmp	.L846
.L859:
	movq	%rax, %rbx
	jmp	.L843
.L858:
	jmp	.L857
	.section	.gcc_except_table
.LLSDA9399:
	.byte	0xff
	.byte	0xff
	.byte	0x1
	.uleb128 .LLSDACSE9399-.LLSDACSB9399
.LLSDACSB9399:
	.uleb128 .LEHB10-.LFB9399
	.uleb128 .LEHE10-.LEHB10
	.uleb128 .L858-.LFB9399
	.uleb128 0
	.uleb128 .LEHB11-.LFB9399
	.uleb128 .LEHE11-.LEHB11
	.uleb128 0
	.uleb128 0
	.uleb128 .LEHB12-.LFB9399
	.uleb128 .LEHE12-.LEHB12
	.uleb128 .L859-.LFB9399
	.uleb128 0
.LLSDACSE9399:
	.text
	.cfi_endproc
	.section	.text.unlikely
	.cfi_startproc
	.cfi_personality 0x9b,DW.ref.__gxx_personality_v0
	.cfi_lsda 0x1b,.LLSDAC9399
	.type	_ZN4asio6detail14strand_service8dispatchINS0_7binder2IZN7asiopal13SocketChannel13BeginReadImplEN7openpal6WSliceEEUlRKSt10error_codemE_S8_mEEEEvRPNS1_11strand_implERT_.cold, @function
_ZN4asio6detail14strand_service8dispatchINS0_7binder2IZN7asiopal13SocketChannel13BeginReadImplEN7openpal6WSliceEEUlRKSt10error_codemE_S8_mEEEEvRPNS1_11strand_implERT_.cold:
.LFSB9399:
.L843:
	.cfi_def_cfa_offset 192
	.cfi_offset 3, -40
	.cfi_offset 6, -32
	.cfi_offset 12, -24
	.cfi_offset 13, -16
	sfence
	leaq	80(%rsp), %rdi
	call	_ZN4asio6detail18completion_handlerINS0_7binder2IZN7asiopal13SocketChannel13BeginReadImplEN7openpal6WSliceEEUlRKSt10error_codemE_S7_mEEE3ptr5resetEv
	leaq	32(%rsp), %rdi
	call	_ZN4asio6detail14strand_service16on_dispatch_exitD1Ev@PLT
	data16	leaq	_ZN4asio6detail15keyword_tss_ptrINS0_10call_stackINS0_14strand_service11strand_implEhE7contextEE6value_E@tlsgd(%rip), %rdi
	.value	0x6666
	rex64
	call	__tls_get_addr@PLT
	movq	64(%rsp), %rdx
	movq	%rbx, %rdi
	movq	%rdx, (%rax)
.LEHB13:
	call	_Unwind_Resume@PLT
.L857:
	sfence
	movq	%rax, %rdi
	call	_Unwind_Resume@PLT
.LEHE13:
	.cfi_endproc
.LFE9399:
	.section	.gcc_except_table
.LLSDAC9399:
	.byte	0xff
	.byte	0xff
	.byte	0x1
	.uleb128 .LLSDACSEC9399-.LLSDACSBC9399
.LLSDACSBC9399:
	.uleb128 .LEHB13-.LCOLDB31
	.uleb128 .LEHE13-.LEHB13
	.uleb128 0
	.uleb128 0
.LLSDACSEC9399:
	.section	.text.unlikely
	.text
	.size	_ZN4asio6detail14strand_service8dispatchINS0_7binder2IZN7asiopal13SocketChannel13BeginReadImplEN7openpal6WSliceEEUlRKSt10error_codemE_S8_mEEEEvRPNS1_11strand_implERT_, .-_ZN4asio6detail14strand_service8dispatchINS0_7binder2IZN7asiopal13SocketChannel13BeginReadImplEN7openpal6WSliceEEUlRKSt10error_codemE_S8_mEEEEvRPNS1_11strand_implERT_
	.section	.text.unlikely
	.size	_ZN4asio6detail14strand_service8dispatchINS0_7binder2IZN7asiopal13SocketChannel13BeginReadImplEN7openpal6WSliceEEUlRKSt10error_codemE_S8_mEEEEvRPNS1_11strand_implERT_.cold, .-_ZN4asio6detail14strand_service8dispatchINS0_7binder2IZN7asiopal13SocketChannel13BeginReadImplEN7openpal6WSliceEEUlRKSt10error_codemE_S8_mEEEEvRPNS1_11strand_implERT_.cold
.LCOLDE31:
	.text
.LHOTE31:
	.section	.text.unlikely
.LCOLDB32:
	.text
.LHOTB32:
	.p2align 4
	.type	_ZN4asio6detail18completion_handlerINS0_17rewrapped_handlerINS0_7binder2INS0_15wrapped_handlerINS_10io_service6strandEZN7asiopal13SocketChannel13BeginReadImplEN7openpal6WSliceEEUlRKSt10error_codemE_NS0_26is_continuation_if_runningEEESB_mEESE_EEE11do_completeEPNS0_15task_io_serviceEPNS0_25task_io_service_operationESD_m, @function
_ZN4asio6detail18completion_handlerINS0_17rewrapped_handlerINS0_7binder2INS0_15wrapped_handlerINS_10io_service6strandEZN7asiopal13SocketChannel13BeginReadImplEN7openpal6WSliceEEUlRKSt10error_codemE_NS0_26is_continuation_if_runningEEESB_mEESE_EEE11do_completeEPNS0_15task_io_serviceEPNS0_25task_io_service_operationESD_m:
.LFB9320:
	.cfi_startproc
	.cfi_personality 0x9b,DW.ref.__gxx_personality_v0
	.cfi_lsda 0x1b,.LLSDA9320
	pushq	%rbp
	.cfi_def_cfa_offset 16
	.cfi_offset 6, -16
	movq	%rdi, %rbp
	pushq	%rbx
	.cfi_def_cfa_offset 24
	.cfi_offset 3, -24
	movq	%rsi, %rbx
	subq	$152, %rsp
	.cfi_def_cfa_offset 176
	movq	24(%rsi), %rax
	movdqu	32(%rsi), %xmm0
	movq	%rax, 80(%rsp)
	movq	48(%rsi), %rax
	movups	%xmm0, 88(%rsp)
	movdqu	56(%rsi), %xmm0
	movq	%rax, 104(%rsp)
	movq	72(%rsi), %rax
	movaps	%xmm0, 112(%rsp)
	movq	%rax, 128(%rsp)
	leaq	80(%rsp), %rax
	movq	%rax, (%rsp)
	data16	leaq	_ZN4asio6detail15keyword_tss_ptrINS0_10call_stackINS0_15task_io_serviceENS0_27task_io_service_thread_infoEE7contextEE6value_E@tlsgd(%rip), %rdi
	.value	0x6666
	rex64
	call	__tls_get_addr@PLT
	movq	(%rax), %rax
	testq	%rax, %rax
	je	.L905
	movq	8(%rax), %rax
	testq	%rax, %rax
	je	.L905
	cmpq	$0, (%rax)
	je	.L920
.L905:
	movq	%rbx, %rdi
	call	_ZdlPv@PLT
.L909:
	testq	%rbp, %rbp
	je	.L904
	movq	104(%rsp), %rax
	movq	88(%rsp), %rdi
	leaq	32(%rsp), %rdx
	leaq	96(%rsp), %rsi
	movq	%rax, 32(%rsp)
	movl	112(%rsp), %eax
	movl	%eax, 40(%rsp)
	movq	120(%rsp), %rax
	movq	%rax, 48(%rsp)
	movq	128(%rsp), %rax
	movq	%rax, 56(%rsp)
.LEHB14:
	call	_ZN4asio6detail14strand_service8dispatchINS0_7binder2IZN7asiopal13SocketChannel13BeginReadImplEN7openpal6WSliceEEUlRKSt10error_codemE_S8_mEEEEvRPNS1_11strand_implERT_
.LEHE14:
	sfence
.L904:
	addq	$152, %rsp
	.cfi_remember_state
	.cfi_def_cfa_offset 24
	popq	%rbx
	.cfi_def_cfa_offset 16
	popq	%rbp
	.cfi_def_cfa_offset 8
	ret
	.p2align 4,,10
	.p2align 3
.L920:
	.cfi_restore_state
	movzbl	80(%rbx), %edx
	movb	%dl, (%rbx)
	movq	%rbx, (%rax)
	jmp	.L909
.L912:
	movq	%rax, %rbx
	jmp	.L911
	.section	.gcc_except_table
.LLSDA9320:
	.byte	0xff
	.byte	0xff
	.byte	0x1
	.uleb128 .LLSDACSE9320-.LLSDACSB9320
.LLSDACSB9320:
	.uleb128 .LEHB14-.LFB9320
	.uleb128 .LEHE14-.LEHB14
	.uleb128 .L912-.LFB9320
	.uleb128 0
.LLSDACSE9320:
	.text
	.cfi_endproc
	.section	.text.unlikely
	.cfi_startproc
	.cfi_personality 0x9b,DW.ref.__gxx_personality_v0
	.cfi_lsda 0x1b,.LLSDAC9320
	.type	_ZN4asio6detail18completion_handlerINS0_17rewrapped_handlerINS0_7binder2INS0_15wrapped_handlerINS_10io_service6strandEZN7asiopal13SocketChannel13BeginReadImplEN7openpal6WSliceEEUlRKSt10error_codemE_NS0_26is_continuation_if_runningEEESB_mEESE_EEE11do_completeEPNS0_15task_io_serviceEPNS0_25task_io_service_operationESD_m.cold, @function
_ZN4asio6detail18completion_handlerINS0_17rewrapped_handlerINS0_7binder2INS0_15wrapped_handlerINS_10io_service6strandEZN7asiopal13SocketChannel13BeginReadImplEN7openpal6WSliceEEUlRKSt10error_codemE_NS0_26is_continuation_if_runningEEESB_mEESE_EEE11do_completeEPNS0_15task_io_serviceEPNS0_25task_io_service_operationESD_m.cold:
.LFSB9320:
.L911:
	.cfi_def_cfa_offset 176
	.cfi_offset 3, -24
	.cfi_offset 6, -16
	sfence
	pxor	%xmm0, %xmm0
	movq	%rsp, %rdi
	movups	%xmm0, 8(%rsp)
	call	_ZN4asio6detail18completion_handlerINS0_17rewrapped_handlerINS0_7binder2INS0_15wrapped_handlerINS_10io_service6strandEZN7asiopal13SocketChannel13BeginReadImplEN7openpal6WSliceEEUlRKSt10error_codemE_NS0_26is_continuation_if_runningEEESB_mEESE_EEE3ptr5resetEv
	movq	%rbx, %rdi
.LEHB15:
	call	_Unwind_Resume@PLT
.LEHE15:
	.cfi_endproc
.LFE9320:
	.section	.gcc_except_table
.LLSDAC9320:
	.byte	0xff
	.byte	0xff
	.byte	0x1
	.uleb128 .LLSDACSEC9320-.LLSDACSBC9320
.LLSDACSBC9320:
	.uleb128 .LEHB15-.LCOLDB32
	.uleb128 .LEHE15-.LEHB15
	.uleb128 0
	.uleb128 0
.LLSDACSEC9320:
	.section	.text.unlikely
	.text
	.size	_ZN4asio6detail18completion_handlerINS0_17rewrapped_handlerINS0_7binder2INS0_15wrapped_handlerINS_10io_service6strandEZN7asiopal13SocketChannel13BeginReadImplEN7openpal6WSliceEEUlRKSt10error_codemE_NS0_26is_continuation_if_runningEEESB_mEESE_EEE11do_completeEPNS0_15task_io_serviceEPNS0_25task_io_service_operationESD_m, .-_ZN4asio6detail18completion_handlerINS0_17rewrapped_handlerINS0_7binder2INS0_15wrapped_handlerINS_10io_service6strandEZN7asiopal13SocketChannel13BeginReadImplEN7openpal6WSliceEEUlRKSt10error_codemE_NS0_26is_continuation_if_runningEEESB_mEESE_EEE11do_completeEPNS0_15task_io_serviceEPNS0_25task_io_service_operationESD_m
	.section	.text.unlikely
	.size	_ZN4asio6detail18completion_handlerINS0_17rewrapped_handlerINS0_7binder2INS0_15wrapped_handlerINS_10io_service6strandEZN7asiopal13SocketChannel13BeginReadImplEN7openpal6WSliceEEUlRKSt10error_codemE_NS0_26is_continuation_if_runningEEESB_mEESE_EEE11do_completeEPNS0_15task_io_serviceEPNS0_25task_io_service_operationESD_m.cold, .-_ZN4asio6detail18completion_handlerINS0_17rewrapped_handlerINS0_7binder2INS0_15wrapped_handlerINS_10io_service6strandEZN7asiopal13SocketChannel13BeginReadImplEN7openpal6WSliceEEUlRKSt10error_codemE_NS0_26is_continuation_if_runningEEESB_mEESE_EEE11do_completeEPNS0_15task_io_serviceEPNS0_25task_io_service_operationESD_m.cold
.LCOLDE32:
	.text
.LHOTE32:
	.section	.text.unlikely
.LCOLDB33:
	.text
.LHOTB33:
	.p2align 4
	.type	_ZN4asio6detail23reactive_socket_recv_opINS_17mutable_buffers_1ENS0_15wrapped_handlerINS_10io_service6strandEZN7asiopal13SocketChannel13BeginReadImplEN7openpal6WSliceEEUlRKSt10error_codemE_NS0_26is_continuation_if_runningEEEE11do_completeEPNS0_15task_io_serviceEPNS0_25task_io_service_operationESC_m, @function
_ZN4asio6detail23reactive_socket_recv_opINS_17mutable_buffers_1ENS0_15wrapped_handlerINS_10io_service6strandEZN7asiopal13SocketChannel13BeginReadImplEN7openpal6WSliceEEUlRKSt10error_codemE_NS0_26is_continuation_if_runningEEEE11do_completeEPNS0_15task_io_serviceEPNS0_25task_io_service_operationESC_m:
.LFB8969:
	.cfi_startproc
	.cfi_personality 0x9b,DW.ref.__gxx_personality_v0
	.cfi_lsda 0x1b,.LLSDA8969
	pushq	%r15
	.cfi_def_cfa_offset 16
	.cfi_offset 15, -16
	pushq	%r14
	.cfi_def_cfa_offset 24
	.cfi_offset 14, -24
	pushq	%r13
	.cfi_def_cfa_offset 32
	.cfi_offset 13, -32
	pushq	%r12
	.cfi_def_cfa_offset 40
	.cfi_offset 12, -40
	pushq	%rbp
	.cfi_def_cfa_offset 48
	.cfi_offset 6, -48
	movq	%rdi, %rbp
	pushq	%rbx
	.cfi_def_cfa_offset 56
	.cfi_offset 3, -56
	movq	%rsi, %rbx
	subq	$440, %rsp
	.cfi_def_cfa_offset 496
	movq	104(%rsi), %rax
	movdqu	88(%rsi), %xmm0
	movq	%rax, 208(%rsp)
	movq	40(%rsi), %rax
	movaps	%xmm0, 192(%rsp)
	movdqu	24(%rsi), %xmm0
	movq	%rax, 232(%rsp)
	leaq	192(%rsp), %rax
	movq	%rax, 48(%rsp)
	movups	%xmm0, 216(%rsp)
	data16	leaq	_ZN4asio6detail15keyword_tss_ptrINS0_10call_stackINS0_15task_io_serviceENS0_27task_io_service_thread_infoEE7contextEE6value_E@tlsgd(%rip), %rdi
	.value	0x6666
	rex64
	call	__tls_get_addr@PLT
	movq	(%rax), %rax
	testq	%rax, %rax
	je	.L922
	movq	8(%rax), %rax
	testq	%rax, %rax
	je	.L922
	cmpq	$0, (%rax)
	je	.L1028
.L922:
	movq	%rbx, %rdi
	call	_ZdlPv@PLT
.L923:
	testq	%rbp, %rbp
	je	.L921
	movq	208(%rsp), %r15
	movq	232(%rsp), %rbp
	movdqa	192(%rsp), %xmm0
	movdqu	216(%rsp), %xmm1
	movq	%r15, 240(%rsp)
	movaps	%xmm1, 272(%rsp)
	movq	%xmm0, %r13
	movq	280(%rsp), %r12
	movq	%r15, 264(%rsp)
	movq	%r15, 368(%rsp)
	movq	%rbp, 416(%rsp)
	movups	%xmm0, 248(%rsp)
	movaps	%xmm1, (%rsp)
	movups	%xmm0, 376(%rsp)
	movaps	%xmm1, 400(%rsp)
	data16	leaq	_ZN4asio6detail15keyword_tss_ptrINS0_10call_stackINS0_14strand_service11strand_implEhE7contextEE6value_E@tlsgd(%rip), %rdi
	.value	0x6666
	rex64
	call	__tls_get_addr@PLT
	movq	(%rax), %rax
	testq	%rax, %rax
	je	.L925
	movq	200(%rsp), %rdx
	jmp	.L928
	.p2align 4
	.p2align 4,,10
	.p2align 3
.L926:
	movq	16(%rax), %rax
	testq	%rax, %rax
	je	.L925
.L928:
	cmpq	(%rax), %rdx
	jne	.L926
	cmpq	$0, 8(%rax)
	je	.L925
	lfence
	movdqa	(%rsp), %xmm7
	leaq	304(%rsp), %rdx
	movq	%r13, %rdi
	leaq	384(%rsp), %rsi
	movq	%r15, 304(%rsp)
	movq	%r12, 320(%rsp)
	movq	%rbp, 328(%rsp)
	movq	%r13, 376(%rsp)
	movq	%r15, 392(%rsp)
	movq	%r12, 408(%rsp)
	movd	%xmm7, 312(%rsp)
	movd	%xmm7, 400(%rsp)
.LEHB16:
	call	_ZN4asio6detail14strand_service8dispatchINS0_7binder2IZN7asiopal13SocketChannel13BeginReadImplEN7openpal6WSliceEEUlRKSt10error_codemE_S8_mEEEEvRPNS1_11strand_implERT_
.LEHE16:
	sfence
.L929:
	sfence
.L921:
	addq	$440, %rsp
	.cfi_remember_state
	.cfi_def_cfa_offset 56
	popq	%rbx
	.cfi_def_cfa_offset 48
	popq	%rbp
	.cfi_def_cfa_offset 40
	popq	%r12
	.cfi_def_cfa_offset 32
	popq	%r13
	.cfi_def_cfa_offset 24
	popq	%r14
	.cfi_def_cfa_offset 16
	popq	%r15
	.cfi_def_cfa_offset 8
	ret
	.p2align 4,,10
	.p2align 3
.L925:
	.cfi_restore_state
	data16	leaq	_ZN4asio6detail15keyword_tss_ptrINS0_10call_stackINS0_15task_io_serviceENS0_27task_io_service_thread_infoEE7contextEE6value_E@tlsgd(%rip), %rdi
	.value	0x6666
	rex64
	call	__tls_get_addr@PLT
	movq	192(%rsp), %r14
	movq	(%rax), %rax
	testq	%rax, %rax
	je	.L930
	movq	8(%rax), %rax
	testq	%rax, %rax
	je	.L930
	movq	(%rax), %rbx
	testq	%rbx, %rbx
	je	.L930
	movq	$0, (%rax)
	movzbl	(%rbx), %eax
	cmpb	$79, %al
	jbe	.L931
	movb	%al, 80(%rbx)
	jmp	.L932
	.p2align 4,,10
	.p2align 3
.L931:
	movq	%rbx, %rdi
	call	_ZdlPv@PLT
.L930:
	movl	$81, %edi
.LEHB17:
	call	_Znwm@PLT
.LEHE17:
	movb	$80, 80(%rax)
	movq	%rax, %rbx
.L932:
	leaq	_ZN4asio6detail18completion_handlerINS0_17rewrapped_handlerINS0_7binder2INS0_15wrapped_handlerINS_10io_service6strandEZN7asiopal13SocketChannel13BeginReadImplEN7openpal6WSliceEEUlRKSt10error_codemE_NS0_26is_continuation_if_runningEEESB_mEESE_EEE11do_completeEPNS0_15task_io_serviceEPNS0_25task_io_service_operationESD_m(%rip), %rax
	movq	%r13, 376(%rsp)
	movdqa	(%rsp), %xmm3
	movq	%rbx, %xmm2
	movq	%rax, 8(%rbx)
	movq	368(%rsp), %rax
	punpcklqdq	%xmm2, %xmm2
	movdqu	376(%rsp), %xmm0
	movq	%r12, 408(%rsp)
	movd	%xmm3, 400(%rsp)
	movups	%xmm0, 32(%rbx)
	movdqa	400(%rsp), %xmm0
	movq	$0, (%rbx)
	movl	$0, 16(%rbx)
	movq	%rax, 24(%rbx)
	movq	%r15, 48(%rbx)
	movq	%rbp, 72(%rbx)
	movups	%xmm0, 56(%rbx)
	movaps	%xmm2, 16(%rsp)
	data16	leaq	_ZN4asio6detail15keyword_tss_ptrINS0_10call_stackINS0_15task_io_serviceENS0_27task_io_service_thread_infoEE7contextEE6value_E@tlsgd(%rip), %rdi
	.value	0x6666
	rex64
	call	__tls_get_addr@PLT
	movq	200(%rsp), %rdi
	movq	(%rax), %rax
	testq	%rax, %rax
	je	.L1026
	movq	40(%r14), %rdx
	jmp	.L937
	.p2align 4
	.p2align 4,,10
	.p2align 3
.L934:
	movq	16(%rax), %rax
	testq	%rax, %rax
	je	.L1026
.L937:
	cmpq	(%rax), %rdx
	jne	.L934
	movq	8(%rax), %rbp
	addq	$24, %rdi
	call	pthread_mutex_lock@PLT
	testq	%rbp, %rbp
	je	.L936
	movq	200(%rsp), %rdi
	cmpb	$0, 64(%rdi)
	je	.L1029
.L939:
	movq	80(%rdi), %rax
	movq	$0, (%rbx)
	testq	%rax, %rax
	je	.L943
	movq	%rbx, (%rax)
	movq	%rbx, 80(%rdi)
.L944:
	addq	$24, %rdi
	call	pthread_mutex_unlock@PLT
	jmp	.L929
	.p2align 4,,10
	.p2align 3
.L1029:
	movb	$1, 64(%rdi)
	addq	$24, %rdi
	leaq	304(%rsp), %r13
	call	pthread_mutex_unlock@PLT
	movq	200(%rsp), %rbp
	movq	%rbp, 80(%rsp)
	data16	leaq	_ZN4asio6detail15keyword_tss_ptrINS0_10call_stackINS0_14strand_service11strand_implEhE7contextEE6value_E@tlsgd(%rip), %rdi
	.value	0x6666
	rex64
	call	__tls_get_addr@PLT
	movq	40(%r14), %r12
	movq	%rbp, %xmm6
	movq	%r13, 112(%rsp)
	movq	%r12, %xmm0
	punpcklqdq	%xmm6, %xmm0
	movaps	%xmm0, 32(%rsp)
	movdqu	32(%rbx), %xmm0
	movq	(%rax), %rdx
	movq	%rdx, 96(%rsp)
	leaq	80(%rsp), %rdx
	movq	%rdx, (%rax)
	movq	24(%rbx), %rax
	movups	%xmm0, 312(%rsp)
	movdqu	56(%rbx), %xmm0
	movq	%rax, 304(%rsp)
	movq	48(%rbx), %rax
	movq	%rdx, 88(%rsp)
	movq	%rax, 328(%rsp)
	movq	72(%rbx), %rax
	movaps	%xmm0, 336(%rsp)
	movq	%rax, 352(%rsp)
	data16	leaq	_ZN4asio6detail15keyword_tss_ptrINS0_10call_stackINS0_15task_io_serviceENS0_27task_io_service_thread_infoEE7contextEE6value_E@tlsgd(%rip), %rdi
	.value	0x6666
	rex64
	call	__tls_get_addr@PLT
	movq	(%rax), %rax
	testq	%rax, %rax
	je	.L941
	movq	8(%rax), %rax
	testq	%rax, %rax
	je	.L941
	cmpq	$0, (%rax)
	je	.L1030
.L941:
	movq	%rbx, %rdi
	call	_ZdlPv@PLT
.L957:
	testq	%r12, %r12
	je	.L958
	movq	328(%rsp), %rax
	movq	312(%rsp), %rdi
	leaq	144(%rsp), %rdx
	leaq	320(%rsp), %rsi
	movq	%rax, 144(%rsp)
	movl	336(%rsp), %eax
	movl	%eax, 152(%rsp)
	movq	344(%rsp), %rax
	movq	%rax, 160(%rsp)
	movq	352(%rsp), %rax
	movq	%rax, 168(%rsp)
.LEHB18:
	call	_ZN4asio6detail14strand_service8dispatchINS0_7binder2IZN7asiopal13SocketChannel13BeginReadImplEN7openpal6WSliceEEUlRKSt10error_codemE_S8_mEEEEvRPNS1_11strand_implERT_
.LEHE18:
	sfence
.L958:
	leaq	24(%rbp), %r14
	movq	%r14, %rdi
	call	pthread_mutex_lock@PLT
	movq	72(%rbp), %rbx
	testq	%rbx, %rbx
	je	.L1031
	movq	96(%rbp), %rax
	testq	%rax, %rax
	je	.L963
	movq	%rbx, (%rax)
	movq	88(%rbp), %rbx
.L964:
	movq	80(%rbp), %rax
	pxor	%xmm0, %xmm0
	movups	%xmm0, 72(%rbp)
	movq	%rax, 96(%rbp)
.L960:
	testq	%rbx, %rbx
	movq	%r14, %rdi
	setne	64(%rbp)
	call	pthread_mutex_unlock@PLT
	testq	%rbx, %rbx
	je	.L965
	movq	%rbp, %xmm6
	punpcklqdq	%xmm6, %xmm6
	movaps	%xmm6, (%rsp)
	cmpb	$0, 40(%r12)
	je	.L966
	data16	leaq	_ZN4asio6detail15keyword_tss_ptrINS0_10call_stackINS0_15task_io_serviceENS0_27task_io_service_thread_infoEE7contextEE6value_E@tlsgd(%rip), %rdi
	.value	0x6666
	rex64
	call	__tls_get_addr@PLT
	movq	(%rax), %rax
	testq	%rax, %rax
	jne	.L969
	jmp	.L966
	.p2align 4
	.p2align 4,,10
	.p2align 3
.L967:
	movq	16(%rax), %rax
	testq	%rax, %rax
	je	.L966
.L969:
	cmpq	(%rax), %r12
	jne	.L967
	movq	8(%rax), %rax
	testq	%rax, %rax
	je	.L966
	movq	16(%rax), %rdx
	addq	$1, 24(%rax)
	movq	$0, 0(%rbp)
	testq	%rdx, %rdx
	je	.L970
	movq	%rbp, (%rdx)
	movq	%rbp, 16(%rax)
	.p2align 4
	.p2align 3
.L965:
	data16	leaq	_ZN4asio6detail15keyword_tss_ptrINS0_10call_stackINS0_14strand_service11strand_implEhE7contextEE6value_E@tlsgd(%rip), %rdi
	.value	0x6666
	rex64
	call	__tls_get_addr@PLT
	movq	96(%rsp), %rdx
	movq	%rdx, (%rax)
	jmp	.L929
	.p2align 4,,10
	.p2align 3
.L1028:
	movzbl	112(%rbx), %edx
	movb	%dl, (%rbx)
	movq	%rbx, (%rax)
	jmp	.L923
	.p2align 4,,10
	.p2align 3
.L943:
	movdqa	16(%rsp), %xmm5
	movups	%xmm5, 72(%rdi)
	jmp	.L944
	.p2align 4,,10
	.p2align 3
.L1026:
	addq	$24, %rdi
	call	pthread_mutex_lock@PLT
.L936:
	movq	200(%rsp), %rdi
	cmpb	$0, 64(%rdi)
	jne	.L939
	movb	$1, 64(%rdi)
	addq	$24, %rdi
	call	pthread_mutex_unlock@PLT
	movq	200(%rsp), %rbp
	movq	$0, (%rbx)
	movq	%rbp, %xmm5
	movq	96(%rbp), %rax
	punpcklqdq	%xmm5, %xmm5
	movaps	%xmm5, (%rsp)
	testq	%rax, %rax
	je	.L945
	movq	%rbx, (%rax)
	movq	%rbx, 96(%rbp)
.L946:
	movq	40(%r14), %rbx
	cmpb	$0, 40(%rbx)
	je	.L947
	data16	leaq	_ZN4asio6detail15keyword_tss_ptrINS0_10call_stackINS0_15task_io_serviceENS0_27task_io_service_thread_infoEE7contextEE6value_E@tlsgd(%rip), %rdi
	.value	0x6666
	rex64
	call	__tls_get_addr@PLT
	movq	(%rax), %rax
	testq	%rax, %rax
	jne	.L950
	jmp	.L947
	.p2align 4
	.p2align 4,,10
	.p2align 3
.L948:
	movq	16(%rax), %rax
	testq	%rax, %rax
	je	.L947
.L950:
	cmpq	(%rax), %rbx
	jne	.L948
	movq	8(%rax), %rax
	testq	%rax, %rax
	je	.L947
	movq	16(%rax), %rdx
	addq	$1, 24(%rax)
	movq	$0, 0(%rbp)
	testq	%rdx, %rdx
	je	.L951
	movq	%rbp, (%rdx)
	movq	%rbp, 16(%rax)
	jmp	.L929
	.p2align 4,,10
	.p2align 3
.L947:
	lock addq	$1, 184(%rbx)
	leaq	48(%rbx), %r12
	movq	%r12, %rdi
	call	pthread_mutex_lock@PLT
	movq	200(%rbx), %rax
	movq	$0, 0(%rbp)
	testq	%rax, %rax
	je	.L952
	movq	%rbp, (%rax)
	movq	%rbp, 200(%rbx)
.L953:
	movq	136(%rbx), %rax
	movq	%rax, %rdx
	orq	$1, %rdx
	movq	%rdx, 136(%rbx)
	cmpq	$1, %rax
	ja	.L1032
	cmpb	$0, 176(%rbx)
	jne	.L956
	movq	144(%rbx), %rax
	testq	%rax, %rax
	je	.L956
	movb	$1, 176(%rbx)
	leaq	88(%rax), %rdx
	movl	$3, %esi
	leaq	304(%rsp), %rcx
	movq	%rdx, 308(%rsp)
	movl	88(%rax), %edx
	movl	$-2147483639, 304(%rsp)
	movl	96(%rax), %edi
	call	epoll_ctl@PLT
.L956:
	movq	%r12, %rdi
	call	pthread_mutex_unlock@PLT
	jmp	.L929
	.p2align 4,,10
	.p2align 3
.L966:
	lock addq	$1, 184(%r12)
	leaq	48(%r12), %rbx
	movq	%rbx, %rdi
	call	pthread_mutex_lock@PLT
	movq	200(%r12), %rax
	movq	$0, 0(%rbp)
	testq	%rax, %rax
	je	.L971
	movq	%rbp, (%rax)
	movq	%rbp, 200(%r12)
.L972:
	movq	136(%r12), %rax
	movq	%rax, %rdx
	orq	$1, %rdx
	movq	%rdx, 136(%r12)
	cmpq	$1, %rax
	ja	.L1033
	cmpb	$0, 176(%r12)
	jne	.L975
	movq	144(%r12), %rax
	testq	%rax, %rax
	je	.L975
	movb	$1, 176(%r12)
	leaq	88(%rax), %rdx
	movq	%r13, %rcx
	movl	$3, %esi
	movq	%rdx, 308(%rsp)
	movl	88(%rax), %edx
	movl	$-2147483639, 304(%rsp)
	movl	96(%rax), %edi
	call	epoll_ctl@PLT
.L975:
	movq	%rbx, %rdi
	call	pthread_mutex_unlock@PLT
	jmp	.L965
	.p2align 4,,10
	.p2align 3
.L1031:
	movq	88(%rbp), %rbx
	jmp	.L960
.L1032:
	movq	%r12, %rdi
	call	pthread_mutex_unlock@PLT
	leaq	88(%rbx), %rdi
	call	pthread_cond_signal@PLT
	jmp	.L929
.L1033:
	movq	%rbx, %rdi
	call	pthread_mutex_unlock@PLT
	leaq	88(%r12), %rdi
	call	pthread_cond_signal@PLT
	jmp	.L965
.L963:
	movq	%rbx, 88(%rbp)
	jmp	.L964
.L945:
	movdqa	16(%rsp), %xmm5
	movups	%xmm5, 88(%rbp)
	jmp	.L946
.L952:
	movdqa	(%rsp), %xmm4
	movups	%xmm4, 192(%rbx)
	jmp	.L953
.L971:
	movdqa	(%rsp), %xmm4
	movups	%xmm4, 192(%r12)
	jmp	.L972
.L1030:
	movzbl	80(%rbx), %edx
	movb	%dl, (%rbx)
	movq	%rbx, (%rax)
	jmp	.L957
.L951:
	movdqa	(%rsp), %xmm5
	movups	%xmm5, 8(%rax)
	jmp	.L929
.L970:
	movdqa	(%rsp), %xmm5
	movups	%xmm5, 8(%rax)
	jmp	.L965
.L979:
	movq	%rax, %rbx
	jmp	.L961
.L978:
	jmp	.L976
.L977:
	movq	%rax, %rbx
	jmp	.L962
	.section	.gcc_except_table
.LLSDA8969:
	.byte	0xff
	.byte	0xff
	.byte	0x1
	.uleb128 .LLSDACSE8969-.LLSDACSB8969
.LLSDACSB8969:
	.uleb128 .LEHB16-.LFB8969
	.uleb128 .LEHE16-.LEHB16
	.uleb128 .L978-.LFB8969
	.uleb128 0
	.uleb128 .LEHB17-.LFB8969
	.uleb128 .LEHE17-.LEHB17
	.uleb128 .L977-.LFB8969
	.uleb128 0
	.uleb128 .LEHB18-.LFB8969
	.uleb128 .LEHE18-.LEHB18
	.uleb128 .L979-.LFB8969
	.uleb128 0
.LLSDACSE8969:
	.text
	.cfi_endproc
	.section	.text.unlikely
	.cfi_startproc
	.cfi_personality 0x9b,DW.ref.__gxx_personality_v0
	.cfi_lsda 0x1b,.LLSDAC8969
	.type	_ZN4asio6detail23reactive_socket_recv_opINS_17mutable_buffers_1ENS0_15wrapped_handlerINS_10io_service6strandEZN7asiopal13SocketChannel13BeginReadImplEN7openpal6WSliceEEUlRKSt10error_codemE_NS0_26is_continuation_if_runningEEEE11do_completeEPNS0_15task_io_serviceEPNS0_25task_io_service_operationESC_m.cold, @function
_ZN4asio6detail23reactive_socket_recv_opINS_17mutable_buffers_1ENS0_15wrapped_handlerINS_10io_service6strandEZN7asiopal13SocketChannel13BeginReadImplEN7openpal6WSliceEEUlRKSt10error_codemE_NS0_26is_continuation_if_runningEEEE11do_completeEPNS0_15task_io_serviceEPNS0_25task_io_service_operationESC_m.cold:
.LFSB8969:
.L961:
	.cfi_def_cfa_offset 496
	.cfi_offset 3, -56
	.cfi_offset 6, -48
	.cfi_offset 12, -40
	.cfi_offset 13, -32
	.cfi_offset 14, -24
	.cfi_offset 15, -16
	sfence
	pxor	%xmm0, %xmm0
	leaq	112(%rsp), %rdi
	movups	%xmm0, 120(%rsp)
	call	_ZN4asio6detail18completion_handlerINS0_17rewrapped_handlerINS0_7binder2INS0_15wrapped_handlerINS_10io_service6strandEZN7asiopal13SocketChannel13BeginReadImplEN7openpal6WSliceEEUlRKSt10error_codemE_NS0_26is_continuation_if_runningEEESB_mEESE_EEE3ptr5resetEv
	leaq	32(%rsp), %rdi
	call	_ZN4asio6detail14strand_service16on_dispatch_exitD1Ev@PLT
	data16	leaq	_ZN4asio6detail15keyword_tss_ptrINS0_10call_stackINS0_14strand_service11strand_implEhE7contextEE6value_E@tlsgd(%rip), %rdi
	.value	0x6666
	rex64
	call	__tls_get_addr@PLT
	movq	96(%rsp), %rdx
	movq	%rdx, (%rax)
.L962:
	sfence
	pxor	%xmm0, %xmm0
	leaq	48(%rsp), %rdi
	movups	%xmm0, 56(%rsp)
	call	_ZN4asio6detail23reactive_socket_recv_opINS_17mutable_buffers_1ENS0_15wrapped_handlerINS_10io_service6strandEZN7asiopal13SocketChannel13BeginReadImplEN7openpal6WSliceEEUlRKSt10error_codemE_NS0_26is_continuation_if_runningEEEE3ptr5resetEv
	movq	%rbx, %rdi
.LEHB19:
	call	_Unwind_Resume@PLT
.LEHE19:
.L976:
	sfence
	movq	%rax, %rbx
	jmp	.L962
	.cfi_endproc
.LFE8969:
	.section	.gcc_except_table
.LLSDAC8969:
	.byte	0xff
	.byte	0xff
	.byte	0x1
	.uleb128 .LLSDACSEC8969-.LLSDACSBC8969
.LLSDACSBC8969:
	.uleb128 .LEHB19-.LCOLDB33
	.uleb128 .LEHE19-.LEHB19
	.uleb128 0
	.uleb128 0
.LLSDACSEC8969:
	.section	.text.unlikely
	.text
	.size	_ZN4asio6detail23reactive_socket_recv_opINS_17mutable_buffers_1ENS0_15wrapped_handlerINS_10io_service6strandEZN7asiopal13SocketChannel13BeginReadImplEN7openpal6WSliceEEUlRKSt10error_codemE_NS0_26is_continuation_if_runningEEEE11do_completeEPNS0_15task_io_serviceEPNS0_25task_io_service_operationESC_m, .-_ZN4asio6detail23reactive_socket_recv_opINS_17mutable_buffers_1ENS0_15wrapped_handlerINS_10io_service6strandEZN7asiopal13SocketChannel13BeginReadImplEN7openpal6WSliceEEUlRKSt10error_codemE_NS0_26is_continuation_if_runningEEEE11do_completeEPNS0_15task_io_serviceEPNS0_25task_io_service_operationESC_m
	.section	.text.unlikely
	.size	_ZN4asio6detail23reactive_socket_recv_opINS_17mutable_buffers_1ENS0_15wrapped_handlerINS_10io_service6strandEZN7asiopal13SocketChannel13BeginReadImplEN7openpal6WSliceEEUlRKSt10error_codemE_NS0_26is_continuation_if_runningEEEE11do_completeEPNS0_15task_io_serviceEPNS0_25task_io_service_operationESC_m.cold, .-_ZN4asio6detail23reactive_socket_recv_opINS_17mutable_buffers_1ENS0_15wrapped_handlerINS_10io_service6strandEZN7asiopal13SocketChannel13BeginReadImplEN7openpal6WSliceEEUlRKSt10error_codemE_NS0_26is_continuation_if_runningEEEE11do_completeEPNS0_15task_io_serviceEPNS0_25task_io_service_operationESC_m.cold
.LCOLDE33:
	.text
.LHOTE33:
	.section	.text.unlikely
	.align 2
.LCOLDB34:
	.text
.LHOTB34:
	.align 2
	.p2align 4
	.type	_ZN4asio6detail14strand_service8dispatchINS0_7binder2IZN7asiopal13SocketChannel14BeginWriteImplERKN7openpal6RSliceEEUlRKSt10error_codemE_SA_mEEEEvRPNS1_11strand_implERT_.constprop.0, @function
_ZN4asio6detail14strand_service8dispatchINS0_7binder2IZN7asiopal13SocketChannel14BeginWriteImplERKN7openpal6RSliceEEUlRKSt10error_codemE_SA_mEEEEvRPNS1_11strand_implERT_.constprop.0:
.LFB9588:
	.cfi_startproc
	.cfi_personality 0x9b,DW.ref.__gxx_personality_v0
	.cfi_lsda 0x1b,.LLSDA9588
	pushq	%r13
	.cfi_def_cfa_offset 16
	.cfi_offset 13, -16
	movq	%rdx, %r13
	pushq	%r12
	.cfi_def_cfa_offset 24
	.cfi_offset 12, -24
	movq	%rdi, %r12
	pushq	%rbp
	.cfi_def_cfa_offset 32
	.cfi_offset 6, -32
	movq	%rsi, %rbp
	pushq	%rbx
	.cfi_def_cfa_offset 40
	.cfi_offset 3, -40
	subq	$152, %rsp
	.cfi_def_cfa_offset 192
	data16	leaq	_ZN4asio6detail15keyword_tss_ptrINS0_10call_stackINS0_14strand_service11strand_implEhE7contextEE6value_E@tlsgd(%rip), %rdi
	.value	0x6666
	rex64
	call	__tls_get_addr@PLT
	movq	(%rax), %rax
	testq	%rax, %rax
	je	.L1035
	movq	0(%rbp), %rdx
	jmp	.L1038
	.p2align 4
	.p2align 4,,10
	.p2align 3
.L1036:
	movq	16(%rax), %rax
	testq	%rax, %rax
	je	.L1035
.L1038:
	cmpq	(%rax), %rdx
	jne	.L1036
	cmpq	$0, 8(%rax)
	je	.L1035
	lfence
	movq	0(%r13), %rax
	movq	24(%r13), %rdx
	movq	40(%rax), %rdi
	movb	$0, 58(%rax)
	testq	%rdi, %rdi
	je	.L1041
	cmpb	$0, 56(%rax)
	jne	.L1041
	movq	(%rdi), %rax
	leaq	8(%r13), %rsi
.LEHB20:
	call	*24(%rax)
.LEHE20:
.L1041:
	sfence
.L1034:
	addq	$152, %rsp
	.cfi_remember_state
	.cfi_def_cfa_offset 40
	popq	%rbx
	.cfi_def_cfa_offset 32
	popq	%rbp
	.cfi_def_cfa_offset 24
	popq	%r12
	.cfi_def_cfa_offset 16
	popq	%r13
	.cfi_def_cfa_offset 8
	ret
	.p2align 4,,10
	.p2align 3
.L1035:
	.cfi_restore_state
	data16	leaq	_ZN4asio6detail15keyword_tss_ptrINS0_10call_stackINS0_15task_io_serviceENS0_27task_io_service_thread_infoEE7contextEE6value_E@tlsgd(%rip), %rdi
	.value	0x6666
	rex64
	call	__tls_get_addr@PLT
	movq	(%rax), %rax
	testq	%rax, %rax
	je	.L1042
	movq	8(%rax), %rax
	testq	%rax, %rax
	je	.L1042
	movq	(%rax), %rbx
	testq	%rbx, %rbx
	je	.L1042
	movq	$0, (%rax)
	movzbl	(%rbx), %eax
	cmpb	$55, %al
	jbe	.L1043
	movb	%al, 56(%rbx)
	jmp	.L1044
.L1043:
	movq	%rbx, %rdi
	call	_ZdlPv@PLT
.L1042:
	movl	$57, %edi
.LEHB21:
	call	_Znwm@PLT
	movb	$56, 56(%rax)
	movq	%rax, %rbx
.L1044:
	movdqu	0(%r13), %xmm0
	leaq	_ZN4asio6detail18completion_handlerINS0_7binder2IZN7asiopal13SocketChannel14BeginWriteImplERKN7openpal6RSliceEEUlRKSt10error_codemE_S9_mEEE11do_completeEPNS0_15task_io_serviceEPNS0_25task_io_service_operationESB_m(%rip), %rax
	movq	$0, (%rbx)
	movq	%rbx, %xmm1
	movq	%rax, 8(%rbx)
	punpcklqdq	%xmm1, %xmm1
	movups	%xmm0, 24(%rbx)
	movdqu	16(%r13), %xmm0
	movl	$0, 16(%rbx)
	movups	%xmm0, 40(%rbx)
	movaps	%xmm1, (%rsp)
	data16	leaq	_ZN4asio6detail15keyword_tss_ptrINS0_10call_stackINS0_15task_io_serviceENS0_27task_io_service_thread_infoEE7contextEE6value_E@tlsgd(%rip), %rdi
	.value	0x6666
	rex64
	call	__tls_get_addr@PLT
	movq	(%rax), %rax
	testq	%rax, %rax
	je	.L1128
	movq	40(%r12), %rdx
	jmp	.L1049
	.p2align 4
	.p2align 4,,10
	.p2align 3
.L1046:
	movq	16(%rax), %rax
	testq	%rax, %rax
	je	.L1128
.L1049:
	cmpq	(%rax), %rdx
	jne	.L1046
	movq	8(%rax), %r13
	movq	0(%rbp), %rax
	leaq	24(%rax), %rdi
	call	pthread_mutex_lock@PLT
	testq	%r13, %r13
	je	.L1048
	movq	0(%rbp), %rdi
	cmpb	$0, 64(%rdi)
	je	.L1131
.L1051:
	movq	80(%rdi), %rax
	movq	$0, (%rbx)
	testq	%rax, %rax
	je	.L1055
	movq	%rbx, (%rax)
	movq	%rbx, 80(%rdi)
.L1056:
	addq	$24, %rdi
.L1130:
	addq	$152, %rsp
	.cfi_remember_state
	.cfi_def_cfa_offset 40
	popq	%rbx
	.cfi_def_cfa_offset 32
	popq	%rbp
	.cfi_def_cfa_offset 24
	popq	%r12
	.cfi_def_cfa_offset 16
	popq	%r13
	.cfi_def_cfa_offset 8
	jmp	pthread_mutex_unlock@PLT
.L1131:
	.cfi_restore_state
	movb	$1, 64(%rdi)
	addq	$24, %rdi
	leaq	112(%rsp), %r13
	call	pthread_mutex_unlock@PLT
	movq	0(%rbp), %rbp
	movq	%rbp, 48(%rsp)
	data16	leaq	_ZN4asio6detail15keyword_tss_ptrINS0_10call_stackINS0_14strand_service11strand_implEhE7contextEE6value_E@tlsgd(%rip), %rdi
	.value	0x6666
	rex64
	call	__tls_get_addr@PLT
	movq	40(%r12), %r12
	movq	%rbp, %xmm4
	movq	%r13, 80(%rsp)
	movq	%r12, %xmm0
	punpcklqdq	%xmm4, %xmm0
	movaps	%xmm0, 32(%rsp)
	movdqu	24(%rbx), %xmm0
	movq	(%rax), %rdx
	movaps	%xmm0, 112(%rsp)
	movdqu	40(%rbx), %xmm0
	movq	%rdx, 64(%rsp)
	leaq	48(%rsp), %rdx
	movq	%rdx, (%rax)
	movq	%rdx, 56(%rsp)
	movaps	%xmm0, 128(%rsp)
	data16	leaq	_ZN4asio6detail15keyword_tss_ptrINS0_10call_stackINS0_15task_io_serviceENS0_27task_io_service_thread_infoEE7contextEE6value_E@tlsgd(%rip), %rdi
	.value	0x6666
	rex64
	call	__tls_get_addr@PLT
	movq	(%rax), %rax
	testq	%rax, %rax
	je	.L1053
	movq	8(%rax), %rax
	testq	%rax, %rax
	je	.L1053
	cmpq	$0, (%rax)
	je	.L1132
.L1053:
	movq	%rbx, %rdi
	call	_ZdlPv@PLT
.L1068:
	testq	%r12, %r12
	je	.L1069
	movq	112(%rsp), %rax
	movq	136(%rsp), %rdx
	movq	40(%rax), %rdi
	movb	$0, 58(%rax)
	testq	%rdi, %rdi
	je	.L1071
	cmpb	$0, 56(%rax)
	je	.L1133
.L1071:
	sfence
.L1069:
	leaq	24(%rbp), %rdi
	movq	%rdi, (%rsp)
	call	pthread_mutex_lock@PLT
	movq	72(%rbp), %rbx
	movq	(%rsp), %rdi
	testq	%rbx, %rbx
	je	.L1134
	movq	96(%rbp), %rax
	testq	%rax, %rax
	je	.L1075
	movq	%rbx, (%rax)
	movq	88(%rbp), %rbx
.L1076:
	movq	80(%rbp), %rax
	pxor	%xmm0, %xmm0
	movups	%xmm0, 72(%rbp)
	movq	%rax, 96(%rbp)
.L1073:
	testq	%rbx, %rbx
	setne	64(%rbp)
	call	pthread_mutex_unlock@PLT
	testq	%rbx, %rbx
	je	.L1077
	movq	%rbp, %xmm3
	punpcklqdq	%xmm3, %xmm3
	movaps	%xmm3, (%rsp)
	cmpb	$0, 40(%r12)
	je	.L1078
	data16	leaq	_ZN4asio6detail15keyword_tss_ptrINS0_10call_stackINS0_15task_io_serviceENS0_27task_io_service_thread_infoEE7contextEE6value_E@tlsgd(%rip), %rdi
	.value	0x6666
	rex64
	call	__tls_get_addr@PLT
	movq	(%rax), %rax
	testq	%rax, %rax
	jne	.L1081
	jmp	.L1078
	.p2align 4
	.p2align 4,,10
	.p2align 3
.L1079:
	movq	16(%rax), %rax
	testq	%rax, %rax
	je	.L1078
.L1081:
	cmpq	(%rax), %r12
	jne	.L1079
	movq	8(%rax), %rax
	testq	%rax, %rax
	je	.L1078
	movq	16(%rax), %rdx
	addq	$1, 24(%rax)
	movq	$0, 0(%rbp)
	testq	%rdx, %rdx
	je	.L1082
	movq	%rbp, (%rdx)
	movq	%rbp, 16(%rax)
.L1077:
	data16	leaq	_ZN4asio6detail15keyword_tss_ptrINS0_10call_stackINS0_14strand_service11strand_implEhE7contextEE6value_E@tlsgd(%rip), %rdi
	.value	0x6666
	rex64
	call	__tls_get_addr@PLT
	movq	64(%rsp), %rdx
	movq	%rdx, (%rax)
	addq	$152, %rsp
	.cfi_remember_state
	.cfi_def_cfa_offset 40
	popq	%rbx
	.cfi_def_cfa_offset 32
	popq	%rbp
	.cfi_def_cfa_offset 24
	popq	%r12
	.cfi_def_cfa_offset 16
	popq	%r13
	.cfi_def_cfa_offset 8
	ret
.L1078:
	.cfi_restore_state
	lock addq	$1, 184(%r12)
	leaq	48(%r12), %rbx
	movq	%rbx, %rdi
	call	pthread_mutex_lock@PLT
	movq	200(%r12), %rax
	movq	$0, 0(%rbp)
	testq	%rax, %rax
	je	.L1083
	movq	%rbp, (%rax)
	movq	%rbp, 200(%r12)
.L1084:
	movq	136(%r12), %rax
	movq	%rax, %rdx
	orq	$1, %rdx
	movq	%rdx, 136(%r12)
	cmpq	$1, %rax
	jbe	.L1085
	movq	%rbx, %rdi
	call	pthread_mutex_unlock@PLT
	leaq	88(%r12), %rdi
	call	pthread_cond_signal@PLT
	jmp	.L1077
	.p2align 4,,10
	.p2align 3
.L1128:
	movq	0(%rbp), %rax
	leaq	24(%rax), %rdi
	call	pthread_mutex_lock@PLT
.L1048:
	movq	0(%rbp), %rdi
	cmpb	$0, 64(%rdi)
	jne	.L1051
	movb	$1, 64(%rdi)
	addq	$24, %rdi
	call	pthread_mutex_unlock@PLT
	movq	0(%rbp), %rbp
	movq	$0, (%rbx)
	movq	%rbp, %xmm2
	movq	96(%rbp), %rax
	punpcklqdq	%xmm2, %xmm2
	movaps	%xmm2, 16(%rsp)
	testq	%rax, %rax
	je	.L1057
	movq	%rbx, (%rax)
	movq	%rbx, 96(%rbp)
.L1058:
	movq	40(%r12), %rbx
	cmpb	$0, 40(%rbx)
	je	.L1059
	data16	leaq	_ZN4asio6detail15keyword_tss_ptrINS0_10call_stackINS0_15task_io_serviceENS0_27task_io_service_thread_infoEE7contextEE6value_E@tlsgd(%rip), %rdi
	.value	0x6666
	rex64
	call	__tls_get_addr@PLT
	movq	(%rax), %rax
	testq	%rax, %rax
	jne	.L1062
	jmp	.L1059
	.p2align 4
	.p2align 4,,10
	.p2align 3
.L1060:
	movq	16(%rax), %rax
	testq	%rax, %rax
	je	.L1059
.L1062:
	cmpq	(%rax), %rbx
	jne	.L1060
	movq	8(%rax), %rax
	testq	%rax, %rax
	je	.L1059
	movq	16(%rax), %rdx
	addq	$1, 24(%rax)
	movq	$0, 0(%rbp)
	testq	%rdx, %rdx
	je	.L1063
	movq	%rbp, (%rdx)
	movq	%rbp, 16(%rax)
	jmp	.L1034
.L1059:
	lock addq	$1, 184(%rbx)
	leaq	48(%rbx), %r12
	movq	%r12, %rdi
	call	pthread_mutex_lock@PLT
	movq	200(%rbx), %rax
	movq	$0, 0(%rbp)
	testq	%rax, %rax
	je	.L1064
	movq	%rbp, (%rax)
	movq	%rbp, 200(%rbx)
.L1065:
	movq	136(%rbx), %rax
	movq	%rax, %rdx
	orq	$1, %rdx
	movq	%rdx, 136(%rbx)
	cmpq	$1, %rax
	jbe	.L1066
	movq	%r12, %rdi
	call	pthread_mutex_unlock@PLT
	addq	$152, %rsp
	.cfi_remember_state
	.cfi_def_cfa_offset 40
	leaq	88(%rbx), %rdi
	popq	%rbx
	.cfi_def_cfa_offset 32
	popq	%rbp
	.cfi_def_cfa_offset 24
	popq	%r12
	.cfi_def_cfa_offset 16
	popq	%r13
	.cfi_def_cfa_offset 8
	jmp	pthread_cond_signal@PLT
.LEHE21:
.L1055:
	.cfi_restore_state
	movdqa	(%rsp), %xmm5
	movups	%xmm5, 72(%rdi)
	jmp	.L1056
.L1133:
	movq	(%rdi), %rax
	leaq	120(%rsp), %rsi
.LEHB22:
	call	*24(%rax)
.LEHE22:
	jmp	.L1071
.L1064:
	movdqa	16(%rsp), %xmm7
	movups	%xmm7, 192(%rbx)
	jmp	.L1065
.L1083:
	movdqa	(%rsp), %xmm6
	movups	%xmm6, 192(%r12)
	jmp	.L1084
.L1134:
	movq	88(%rbp), %rbx
	jmp	.L1073
.L1075:
	movq	%rbx, 88(%rbp)
	jmp	.L1076
.L1066:
	cmpb	$0, 176(%rbx)
	jne	.L1067
	movq	144(%rbx), %rax
	testq	%rax, %rax
	je	.L1067
	movb	$1, 176(%rbx)
	leaq	88(%rax), %rdx
	leaq	112(%rsp), %rcx
	movl	$3, %esi
	movq	%rdx, 116(%rsp)
	movl	88(%rax), %edx
	movl	$-2147483639, 112(%rsp)
	movl	96(%rax), %edi
	call	epoll_ctl@PLT
.L1067:
	movq	%r12, %rdi
	jmp	.L1130
.L1085:
	cmpb	$0, 176(%r12)
	jne	.L1087
	movq	144(%r12), %rax
	testq	%rax, %rax
	je	.L1087
	movb	$1, 176(%r12)
	leaq	88(%rax), %rdx
	movq	%r13, %rcx
	movl	$3, %esi
	movq	%rdx, 116(%rsp)
	movl	88(%rax), %edx
	movl	$-2147483639, 112(%rsp)
	movl	96(%rax), %edi
	call	epoll_ctl@PLT
.L1087:
	movq	%rbx, %rdi
	call	pthread_mutex_unlock@PLT
	jmp	.L1077
.L1057:
	movdqa	(%rsp), %xmm6
	movups	%xmm6, 88(%rbp)
	jmp	.L1058
.L1132:
	movzbl	56(%rbx), %edx
	movb	%dl, (%rbx)
	movq	%rbx, (%rax)
	jmp	.L1068
.L1063:
	movdqa	16(%rsp), %xmm6
	movups	%xmm6, 8(%rax)
	jmp	.L1034
.L1082:
	movdqa	(%rsp), %xmm7
	movups	%xmm7, 8(%rax)
	jmp	.L1077
.L1090:
	movq	%rax, %rbx
	jmp	.L1074
.L1089:
	jmp	.L1088
	.section	.gcc_except_table
.LLSDA9588:
	.byte	0xff
	.byte	0xff
	.byte	0x1
	.uleb128 .LLSDACSE9588-.LLSDACSB9588
.LLSDACSB9588:
	.uleb128 .LEHB20-.LFB9588
	.uleb128 .LEHE20-.LEHB20
	.uleb128 .L1089-.LFB9588
	.uleb128 0
	.uleb128 .LEHB21-.LFB9588
	.uleb128 .LEHE21-.LEHB21
	.uleb128 0
	.uleb128 0
	.uleb128 .LEHB22-.LFB9588
	.uleb128 .LEHE22-.LEHB22
	.uleb128 .L1090-.LFB9588
	.uleb128 0
.LLSDACSE9588:
	.text
	.cfi_endproc
	.section	.text.unlikely
	.cfi_startproc
	.cfi_personality 0x9b,DW.ref.__gxx_personality_v0
	.cfi_lsda 0x1b,.LLSDAC9588
	.type	_ZN4asio6detail14strand_service8dispatchINS0_7binder2IZN7asiopal13SocketChannel14BeginWriteImplERKN7openpal6RSliceEEUlRKSt10error_codemE_SA_mEEEEvRPNS1_11strand_implERT_.constprop.0.cold, @function
_ZN4asio6detail14strand_service8dispatchINS0_7binder2IZN7asiopal13SocketChannel14BeginWriteImplERKN7openpal6RSliceEEUlRKSt10error_codemE_SA_mEEEEvRPNS1_11strand_implERT_.constprop.0.cold:
.LFSB9588:
.L1074:
	.cfi_def_cfa_offset 192
	.cfi_offset 3, -40
	.cfi_offset 6, -32
	.cfi_offset 12, -24
	.cfi_offset 13, -16
	sfence
	pxor	%xmm0, %xmm0
	leaq	80(%rsp), %rdi
	movups	%xmm0, 88(%rsp)
	call	_ZN4asio6detail18completion_handlerINS0_7binder2IZN7asiopal13SocketChannel14BeginWriteImplERKN7openpal6RSliceEEUlRKSt10error_codemE_S9_mEEE3ptr5resetEv
	leaq	32(%rsp), %rdi
	call	_ZN4asio6detail14strand_service16on_dispatch_exitD1Ev@PLT
	data16	leaq	_ZN4asio6detail15keyword_tss_ptrINS0_10call_stackINS0_14strand_service11strand_implEhE7contextEE6value_E@tlsgd(%rip), %rdi
	.value	0x6666
	rex64
	call	__tls_get_addr@PLT
	movq	64(%rsp), %rdx
	movq	%rbx, %rdi
	movq	%rdx, (%rax)
.LEHB23:
	call	_Unwind_Resume@PLT
.L1088:
	sfence
	movq	%rax, %rdi
	call	_Unwind_Resume@PLT
.LEHE23:
	.cfi_endproc
.LFE9588:
	.section	.gcc_except_table
.LLSDAC9588:
	.byte	0xff
	.byte	0xff
	.byte	0x1
	.uleb128 .LLSDACSEC9588-.LLSDACSBC9588
.LLSDACSBC9588:
	.uleb128 .LEHB23-.LCOLDB34
	.uleb128 .LEHE23-.LEHB23
	.uleb128 0
	.uleb128 0
.LLSDACSEC9588:
	.section	.text.unlikely
	.text
	.size	_ZN4asio6detail14strand_service8dispatchINS0_7binder2IZN7asiopal13SocketChannel14BeginWriteImplERKN7openpal6RSliceEEUlRKSt10error_codemE_SA_mEEEEvRPNS1_11strand_implERT_.constprop.0, .-_ZN4asio6detail14strand_service8dispatchINS0_7binder2IZN7asiopal13SocketChannel14BeginWriteImplERKN7openpal6RSliceEEUlRKSt10error_codemE_SA_mEEEEvRPNS1_11strand_implERT_.constprop.0
	.section	.text.unlikely
	.size	_ZN4asio6detail14strand_service8dispatchINS0_7binder2IZN7asiopal13SocketChannel14BeginWriteImplERKN7openpal6RSliceEEUlRKSt10error_codemE_SA_mEEEEvRPNS1_11strand_implERT_.constprop.0.cold, .-_ZN4asio6detail14strand_service8dispatchINS0_7binder2IZN7asiopal13SocketChannel14BeginWriteImplERKN7openpal6RSliceEEUlRKSt10error_codemE_SA_mEEEEvRPNS1_11strand_implERT_.constprop.0.cold
.LCOLDE34:
	.text
.LHOTE34:
	.section	.text.unlikely
.LCOLDB35:
	.text
.LHOTB35:
	.p2align 4
	.type	_ZN4asio6detail18completion_handlerINS0_17rewrapped_handlerINS0_7binder2INS0_8write_opINS_19basic_stream_socketINS_2ip3tcpENS_21stream_socket_serviceIS7_EEEENS_15const_buffers_1ENS0_14transfer_all_tENS0_15wrapped_handlerINS_10io_service6strandEZN7asiopal13SocketChannel14BeginWriteImplERKN7openpal6RSliceEEUlRKSt10error_codemE_NS0_26is_continuation_if_runningEEEEESM_mEESP_EEE11do_completeEPNS0_15task_io_serviceEPNS0_25task_io_service_operationESO_m, @function
_ZN4asio6detail18completion_handlerINS0_17rewrapped_handlerINS0_7binder2INS0_8write_opINS_19basic_stream_socketINS_2ip3tcpENS_21stream_socket_serviceIS7_EEEENS_15const_buffers_1ENS0_14transfer_all_tENS0_15wrapped_handlerINS_10io_service6strandEZN7asiopal13SocketChannel14BeginWriteImplERKN7openpal6RSliceEEUlRKSt10error_codemE_NS0_26is_continuation_if_runningEEEEESM_mEESP_EEE11do_completeEPNS0_15task_io_serviceEPNS0_25task_io_service_operationESO_m:
.LFB9377:
	.cfi_startproc
	.cfi_personality 0x9b,DW.ref.__gxx_personality_v0
	.cfi_lsda 0x1b,.LLSDA9377
	pushq	%r15
	.cfi_def_cfa_offset 16
	.cfi_offset 15, -16
	pushq	%r14
	.cfi_def_cfa_offset 24
	.cfi_offset 14, -24
	pushq	%r13
	.cfi_def_cfa_offset 32
	.cfi_offset 13, -32
	pushq	%r12
	.cfi_def_cfa_offset 40
	.cfi_offset 12, -40
	pushq	%rbp
	.cfi_def_cfa_offset 48
	.cfi_offset 6, -48
	pushq	%rbx
	.cfi_def_cfa_offset 56
	.cfi_offset 3, -56
	subq	$312, %rsp
	.cfi_def_cfa_offset 368
	movq	24(%rsi), %rax
	movdqu	72(%rsi), %xmm0
	movdqu	32(%rsi), %xmm1
	movq	32(%rsi), %rbp
	movq	%rdi, 24(%rsp)
	movaps	%xmm0, 256(%rsp)
	movdqu	96(%rsi), %xmm0
	movq	72(%rsi), %r12
	movq	88(%rsi), %r13
	movl	96(%rsi), %ebx
	movq	%rax, 208(%rsp)
	movq	48(%rsi), %rax
	movaps	%xmm1, 32(%rsp)
	movups	%xmm0, 280(%rsp)
	movq	%rax, (%rsp)
	movq	64(%rsi), %rax
	movq	%rbp, 216(%rsp)
	movq	%rax, 56(%rsp)
	movq	104(%rsi), %r14
	movq	112(%rsi), %r15
	movq	%rsi, 48(%rsp)
	movq	%r15, 296(%rsp)
	data16	leaq	_ZN4asio6detail15keyword_tss_ptrINS0_10call_stackINS0_15task_io_serviceENS0_27task_io_service_thread_infoEE7contextEE6value_E@tlsgd(%rip), %rdi
	.value	0x6666
	rex64
	call	__tls_get_addr@PLT
	movq	48(%rsp), %rsi
	movq	(%rax), %rax
	testq	%rax, %rax
	je	.L1136
	movq	8(%rax), %rax
	testq	%rax, %rax
	je	.L1136
	cmpq	$0, (%rax)
	je	.L1291
.L1136:
	movq	%rsi, %rdi
	call	_ZdlPv@PLT
.L1137:
	cmpq	$0, 24(%rsp)
	je	.L1135
	movq	56(%rsp), %rcx
	movq	40(%rsp), %rdi
	movl	$0, 240(%rsp)
	addq	%r15, %rcx
	testl	%ebx, %ebx
	setne	%sil
	testq	%r15, %r15
	movq	%rcx, 248(%rsp)
	sete	%al
	orb	%al, %sil
	movb	%sil, 24(%rsp)
	je	.L1292
.L1139:
	movq	(%rsp), %rax
	movq	%rdi, 224(%rsp)
	movq	%r12, %rdi
	leaq	80(%rsp), %rdx
	leaq	264(%rsp), %rsi
	movq	%r13, 80(%rsp)
	movl	%ebx, 88(%rsp)
	movq	%r14, 96(%rsp)
	movq	%rcx, 104(%rsp)
	movq	%rax, 232(%rsp)
	movq	%r12, 256(%rsp)
	movq	%r13, 272(%rsp)
	movl	%ebx, 280(%rsp)
	movq	%r14, 288(%rsp)
.LEHB24:
	call	_ZN4asio6detail14strand_service8dispatchINS0_7binder2IZN7asiopal13SocketChannel14BeginWriteImplERKN7openpal6RSliceEEUlRKSt10error_codemE_SA_mEEEEvRPNS1_11strand_implERT_.constprop.0
.L1210:
	sfence
.L1135:
	addq	$312, %rsp
	.cfi_remember_state
	.cfi_def_cfa_offset 56
	popq	%rbx
	.cfi_def_cfa_offset 48
	popq	%rbp
	.cfi_def_cfa_offset 40
	popq	%r12
	.cfi_def_cfa_offset 32
	popq	%r13
	.cfi_def_cfa_offset 24
	popq	%r14
	.cfi_def_cfa_offset 16
	popq	%r15
	.cfi_def_cfa_offset 8
	ret
	.p2align 4,,10
	.p2align 3
.L1291:
	.cfi_restore_state
	movzbl	120(%rsi), %ecx
	movb	%cl, (%rsi)
	movq	%rsi, (%rax)
	jmp	.L1137
	.p2align 4,,10
	.p2align 3
.L1292:
	cmpq	(%rsp), %rcx
	je	.L1139
	movq	(%rsp), %rax
	cmpq	%rcx, %rax
	jb	.L1212
	subq	%rcx, %rax
	leaq	(%rdi,%rcx), %rdx
	movq	%rax, %rbx
	movl	$65536, %eax
	movq	%rdx, 48(%rsp)
	cmpq	%rax, %rbx
	cmova	%rax, %rbx
.L1141:
	movq	24(%rbp), %rax
	movq	%r12, 256(%rsp)
	movdqa	256(%rsp), %xmm0
	movdqa	32(%rsp), %xmm3
	movl	$0, 152(%rsp)
	movq	%rax, 56(%rsp)
	movq	(%rsp), %rax
	movups	%xmm0, 168(%rsp)
	pxor	%xmm0, %xmm0
	movq	%rax, 144(%rsp)
	leaq	128(%rsp), %rax
	movq	%rcx, 160(%rsp)
	movq	%rcx, (%rsp)
	movq	%r13, 184(%rsp)
	movq	%rax, 80(%rsp)
	movaps	%xmm3, 128(%rsp)
	movups	%xmm0, 88(%rsp)
	data16	leaq	_ZN4asio6detail15keyword_tss_ptrINS0_10call_stackINS0_15task_io_serviceENS0_27task_io_service_thread_infoEE7contextEE6value_E@tlsgd(%rip), %rdi
	.value	0x6666
	rex64
	call	__tls_get_addr@PLT
	movq	(%rax), %rax
	testq	%rax, %rax
	je	.L1142
	movq	8(%rax), %rax
	testq	%rax, %rax
	je	.L1142
	movq	(%rax), %r15
	testq	%r15, %r15
	je	.L1142
	movq	$0, (%rax)
	movzbl	(%r15), %eax
	cmpb	$-105, %al
	jbe	.L1143
	movb	%al, 152(%r15)
	movq	(%rsp), %rcx
	movq	%rbp, %r14
	xorl	%r13d, %r13d
	jmp	.L1144
	.p2align 4,,10
	.p2align 3
.L1143:
	movq	%r15, %rdi
	call	_ZdlPv@PLT
.L1142:
	movl	$153, %edi
	call	_Znwm@PLT
.LEHE24:
	movb	$-104, 152(%rax)
	movq	128(%rsp), %r14
	movq	%rax, %r15
	movl	152(%rsp), %r13d
	movq	160(%rsp), %rcx
.L1144:
	leaq	_ZN4asio6detail23reactive_socket_send_opINS_15const_buffers_1ENS0_8write_opINS_19basic_stream_socketINS_2ip3tcpENS_21stream_socket_serviceIS6_EEEES2_NS0_14transfer_all_tENS0_15wrapped_handlerINS_10io_service6strandEZN7asiopal13SocketChannel14BeginWriteImplERKN7openpal6RSliceEEUlRKSt10error_codemE_NS0_26is_continuation_if_runningEEEEEE11do_completeEPNS0_15task_io_serviceEPNS0_25task_io_service_operationESM_m(%rip), %rax
	movl	0(%rbp), %r12d
	movq	%r15, 88(%rsp)
	movq	$0, (%r15)
	movq	%rax, 8(%r15)
	movl	$0, 16(%r15)
	movl	$0, 24(%r15)
	movq	%rcx, (%rsp)
	call	_ZNSt3_V215system_categoryEv@PLT
	movq	(%rsp), %rcx
	movl	%r12d, 56(%r15)
	movdqu	136(%rsp), %xmm0
	movq	%rax, 32(%r15)
	movq	%rax, %r8
	movq	_ZN4asio6detail28reactive_socket_send_op_baseINS_15const_buffers_1EE10do_performEPNS0_10reactor_opE@GOTPCREL(%rip), %rax
	movq	$0, 40(%r15)
	movups	%xmm0, 96(%r15)
	movdqu	168(%rsp), %xmm0
	movq	%rax, 48(%r15)
	movq	48(%rsp), %rax
	movq	%rbx, 72(%r15)
	movq	%rax, 64(%r15)
	movq	184(%rsp), %rax
	movl	$0, 80(%r15)
	movq	%r14, 88(%r15)
	movl	%r13d, 112(%r15)
	movq	%rcx, 120(%r15)
	movq	%rax, 144(%r15)
	movups	%xmm0, 128(%r15)
	movq	%r15, 96(%rsp)
	movzbl	4(%rbp), %eax
	testb	$16, %al
	je	.L1215
	cmpb	$0, 24(%rsp)
	jne	.L1145
.L1215:
	testb	$3, %al
	jne	.L1147
	cmpl	$-1, %r12d
	je	.L1293
	movq	%r8, (%rsp)
	call	__errno_location@PLT
	movl	%r12d, %edi
	leaq	68(%rsp), %rdx
	movl	$21537, %esi
	movl	$0, (%rax)
	movq	%rax, %rbx
	xorl	%eax, %eax
	movl	$1, 68(%rsp)
	call	ioctl@PLT
	movq	_ZGVZN4asio15system_categoryEvE8instance@GOTPCREL(%rip), %r12
	movl	%eax, %r13d
	movzbl	(%r12), %eax
	testb	%al, %al
	movq	(%rsp), %r8
	je	.L1152
.L1276:
	movq	_ZZN4asio15system_categoryEvE8instance@GOTPCREL(%rip), %r14
.L1153:
	movl	(%rbx), %eax
	movq	%r14, 32(%r15)
	movl	%eax, 24(%r15)
	testl	%r13d, %r13d
	js	.L1145
	movl	$0, 24(%r15)
	movl	0(%rbp), %r12d
	movq	%r8, 32(%r15)
	orb	$2, 4(%rbp)
.L1147:
	movq	56(%rsp), %rax
	movq	8(%rbp), %rbx
	movq	40(%rax), %r13
	testq	%rbx, %rbx
	je	.L1294
	addq	$40, %rbx
	movq	%rbx, %rdi
	call	pthread_mutex_lock@PLT
	movq	8(%rbp), %rax
	cmpb	$0, 144(%rax)
	jne	.L1295
	cmpq	$0, 112(%rax)
	je	.L1296
.L1183:
	movq	120(%rax), %rdx
	movq	$0, (%r15)
	testq	%rdx, %rdx
	je	.L1196
	movq	%r15, (%rdx)
	movq	%r15, 120(%rax)
.L1197:
	movq	40(%r13), %rax
	lock addq	$1, 184(%rax)
	movq	%rbx, %rdi
	call	pthread_mutex_unlock@PLT
	jmp	.L1210
.L1293:
	movq	_ZGVZN4asio15system_categoryEvE8instance@GOTPCREL(%rip), %rbx
	movzbl	(%rbx), %eax
	testb	%al, %al
	je	.L1149
	movq	_ZZN4asio15system_categoryEvE8instance@GOTPCREL(%rip), %r14
.L1150:
	movl	$9, 24(%r15)
	movq	%r14, 32(%r15)
	.p2align 4
	.p2align 3
.L1145:
	movq	56(%rsp), %rax
	movq	%r15, %xmm2
	punpcklqdq	%xmm2, %xmm2
	movq	40(%rax), %rax
	movaps	%xmm2, (%rsp)
	movq	40(%rax), %rbx
	data16	leaq	_ZN4asio6detail15keyword_tss_ptrINS0_10call_stackINS0_15task_io_serviceENS0_27task_io_service_thread_infoEE7contextEE6value_E@tlsgd(%rip), %rdi
	.value	0x6666
	rex64
	call	__tls_get_addr@PLT
	movq	(%rax), %rax
	testq	%rax, %rax
	jne	.L1203
	jmp	.L1200
	.p2align 4
	.p2align 4,,10
	.p2align 3
.L1201:
	movq	16(%rax), %rax
	testq	%rax, %rax
	je	.L1200
.L1203:
	cmpq	(%rax), %rbx
	jne	.L1201
	movq	8(%rax), %rax
	testq	%rax, %rax
	je	.L1200
.L1202:
	addq	$1, 24(%rax)
	movq	$0, (%r15)
	movq	16(%rax), %rdx
	testq	%rdx, %rdx
	je	.L1204
.L1279:
	movq	%r15, (%rdx)
	movq	%r15, 16(%rax)
	jmp	.L1210
	.p2align 4,,10
	.p2align 3
.L1212:
	movb	$1, 24(%rsp)
	xorl	%ebx, %ebx
	movq	$0, 48(%rsp)
	jmp	.L1141
	.p2align 4,,10
	.p2align 3
.L1200:
	lock addq	$1, 184(%rbx)
	leaq	48(%rbx), %rbp
	movq	%rbp, %rdi
	call	pthread_mutex_lock@PLT
	movq	200(%rbx), %rax
	movq	$0, (%r15)
	testq	%rax, %rax
	je	.L1205
.L1289:
	movq	%r15, (%rax)
	movq	%r15, 200(%rbx)
.L1206:
	movq	136(%rbx), %rax
	movq	%rax, %rdx
	orq	$1, %rdx
	movq	%rdx, 136(%rbx)
	cmpq	$1, %rax
	jbe	.L1207
	movq	%rbp, %rdi
	call	pthread_mutex_unlock@PLT
	leaq	88(%rbx), %rdi
	call	pthread_cond_signal@PLT
	jmp	.L1210
	.p2align 4,,10
	.p2align 3
.L1207:
	cmpb	$0, 176(%rbx)
	jne	.L1209
	movq	144(%rbx), %rax
	testq	%rax, %rax
	je	.L1209
	movb	$1, 176(%rbx)
	leaq	88(%rax), %rdx
	leaq	68(%rsp), %rcx
	movl	$3, %esi
	movl	$-2147483639, 68(%rsp)
	movq	%rdx, 72(%rsp)
	movl	88(%rax), %edx
	movl	96(%rax), %edi
	call	epoll_ctl@PLT
.L1209:
	movq	%rbp, %rdi
	call	pthread_mutex_unlock@PLT
	jmp	.L1210
	.p2align 4,,10
	.p2align 3
.L1152:
	movq	%r12, %rdi
	movq	%r8, (%rsp)
	call	__cxa_guard_acquire@PLT
	movq	(%rsp), %r8
	testl	%eax, %eax
	je	.L1276
	movq	_ZZN4asio15system_categoryEvE8instance@GOTPCREL(%rip), %r14
	movq	_ZN4asio6detail15system_categoryD1Ev@GOTPCREL(%rip), %rdi
	leaq	__dso_handle(%rip), %rdx
	movq	%r8, (%rsp)
	movq	%r14, %rsi
	call	__cxa_atexit@PLT
	movq	%r12, %rdi
	call	__cxa_guard_release@PLT
	movq	(%rsp), %r8
	jmp	.L1153
	.p2align 4,,10
	.p2align 3
.L1205:
	movdqa	(%rsp), %xmm6
	movups	%xmm6, 192(%rbx)
	jmp	.L1206
	.p2align 4,,10
	.p2align 3
.L1204:
	movdqa	(%rsp), %xmm7
	movups	%xmm7, 8(%rax)
	jmp	.L1210
.L1296:
	movq	%r15, %rdi
.LEHB25:
	call	*48(%r15)
.LEHE25:
	testb	%al, %al
	jne	.L1297
	movq	8(%rbp), %rax
	movl	92(%rax), %edx
	testb	$4, %dl
	jne	.L1183
	orl	$4, %edx
	movq	%rax, 72(%rsp)
	leaq	68(%rsp), %rcx
	movl	$3, %esi
	movl	%edx, 68(%rsp)
	movl	96(%r13), %edi
	movl	%r12d, %edx
	call	epoll_ctl@PLT
	testl	%eax, %eax
	jne	.L1195
	movq	8(%rbp), %rax
	movl	68(%rsp), %edx
	orl	%edx, 92(%rax)
	jmp	.L1183
.L1196:
	movq	%r15, %xmm0
	punpcklqdq	%xmm0, %xmm0
	movups	%xmm0, 112(%rax)
	jmp	.L1197
.L1294:
	movq	_ZGVZN4asio15system_categoryEvE8instance@GOTPCREL(%rip), %rbx
	movq	%r15, %xmm4
	punpcklqdq	%xmm4, %xmm4
	movaps	%xmm4, (%rsp)
	movzbl	(%rbx), %eax
	testb	%al, %al
	je	.L1157
	movq	_ZZN4asio15system_categoryEvE8instance@GOTPCREL(%rip), %r14
.L1158:
	movl	$9, 24(%r15)
	movq	40(%r13), %rbx
	movq	%r14, 32(%r15)
	data16	leaq	_ZN4asio6detail15keyword_tss_ptrINS0_10call_stackINS0_15task_io_serviceENS0_27task_io_service_thread_infoEE7contextEE6value_E@tlsgd(%rip), %rdi
	.value	0x6666
	rex64
	call	__tls_get_addr@PLT
	movq	(%rax), %rax
	testq	%rax, %rax
	jne	.L1163
	jmp	.L1185
	.p2align 4
	.p2align 4,,10
	.p2align 3
.L1161:
	movq	16(%rax), %rax
	testq	%rax, %rax
	je	.L1185
.L1163:
	cmpq	(%rax), %rbx
	jne	.L1161
	movq	8(%rax), %rax
	testq	%rax, %rax
	jne	.L1202
.L1185:
	lock addq	$1, 184(%rbx)
	leaq	48(%rbx), %rbp
	movq	%rbp, %rdi
	call	pthread_mutex_lock@PLT
	movq	$0, (%r15)
	movq	200(%rbx), %rax
	testq	%rax, %rax
	jne	.L1289
	movdqa	(%rsp), %xmm7
	movups	%xmm7, 192(%rbx)
	jmp	.L1206
.L1295:
	movq	%r15, %xmm5
	movq	40(%r13), %rbp
	punpcklqdq	%xmm5, %xmm5
	movaps	%xmm5, (%rsp)
	data16	leaq	_ZN4asio6detail15keyword_tss_ptrINS0_10call_stackINS0_15task_io_serviceENS0_27task_io_service_thread_infoEE7contextEE6value_E@tlsgd(%rip), %rdi
	.value	0x6666
	rex64
	call	__tls_get_addr@PLT
	movq	(%rax), %rax
	testq	%rax, %rax
	jne	.L1175
	jmp	.L1172
	.p2align 4
	.p2align 4,,10
	.p2align 3
.L1173:
	movq	16(%rax), %rax
	testq	%rax, %rax
	je	.L1172
.L1175:
	cmpq	(%rax), %rbp
	jne	.L1173
	movq	8(%rax), %rax
	testq	%rax, %rax
	je	.L1172
	movq	16(%rax), %rdx
	addq	$1, 24(%rax)
	movq	$0, (%r15)
	testq	%rdx, %rdx
	je	.L1176
	movq	%r15, (%rdx)
	movq	%r15, 16(%rax)
.L1177:
	movq	%rbx, %rdi
	call	pthread_mutex_unlock@PLT
	jmp	.L1210
.L1172:
	lock addq	$1, 184(%rbp)
	leaq	48(%rbp), %r12
	movq	%r12, %rdi
	call	pthread_mutex_lock@PLT
	movq	200(%rbp), %rax
	movq	$0, (%r15)
	testq	%rax, %rax
	je	.L1178
	movq	%r15, (%rax)
	movq	%r15, 200(%rbp)
.L1179:
	movq	136(%rbp), %rax
	movq	%rax, %rdx
	orq	$1, %rdx
	movq	%rdx, 136(%rbp)
	cmpq	$1, %rax
	jbe	.L1180
	movq	%r12, %rdi
	call	pthread_mutex_unlock@PLT
	leaq	88(%rbp), %rdi
	call	pthread_cond_signal@PLT
	jmp	.L1177
.L1157:
	movq	%rbx, %rdi
	call	__cxa_guard_acquire@PLT
	movq	_ZZN4asio15system_categoryEvE8instance@GOTPCREL(%rip), %r14
	testl	%eax, %eax
	je	.L1158
	movq	_ZN4asio6detail15system_categoryD1Ev@GOTPCREL(%rip), %rdi
	leaq	__dso_handle(%rip), %rdx
	movq	%r14, %rsi
	call	__cxa_atexit@PLT
	movq	%rbx, %rdi
	call	__cxa_guard_release@PLT
	jmp	.L1158
.L1180:
	cmpb	$0, 176(%rbp)
	jne	.L1182
	movq	144(%rbp), %rax
	testq	%rax, %rax
	je	.L1182
	movb	$1, 176(%rbp)
	leaq	88(%rax), %rdx
	leaq	68(%rsp), %rcx
	movl	$3, %esi
	movq	%rdx, 72(%rsp)
	movl	88(%rax), %edx
	movl	$-2147483639, 68(%rsp)
	movl	96(%rax), %edi
	call	epoll_ctl@PLT
.L1182:
	movq	%r12, %rdi
	call	pthread_mutex_unlock@PLT
	jmp	.L1177
.L1149:
	movq	%rbx, %rdi
	call	__cxa_guard_acquire@PLT
	movq	_ZZN4asio15system_categoryEvE8instance@GOTPCREL(%rip), %r14
	testl	%eax, %eax
	je	.L1150
	movq	_ZN4asio6detail15system_categoryD1Ev@GOTPCREL(%rip), %rdi
	leaq	__dso_handle(%rip), %rdx
	movq	%r14, %rsi
	call	__cxa_atexit@PLT
	movq	%rbx, %rdi
	call	__cxa_guard_release@PLT
	jmp	.L1150
.L1297:
	movq	%r15, %xmm7
	movq	%rbx, %rdi
	punpcklqdq	%xmm7, %xmm7
	movaps	%xmm7, (%rsp)
	call	pthread_mutex_unlock@PLT
	movq	40(%r13), %rbx
	data16	leaq	_ZN4asio6detail15keyword_tss_ptrINS0_10call_stackINS0_15task_io_serviceENS0_27task_io_service_thread_infoEE7contextEE6value_E@tlsgd(%rip), %rdi
	.value	0x6666
	rex64
	call	__tls_get_addr@PLT
	movq	(%rax), %rax
	testq	%rax, %rax
	jne	.L1188
	jmp	.L1185
	.p2align 4
	.p2align 4,,10
	.p2align 3
.L1186:
	movq	16(%rax), %rax
	testq	%rax, %rax
	je	.L1185
.L1188:
	cmpq	(%rax), %rbx
	jne	.L1186
	movq	8(%rax), %rax
	testq	%rax, %rax
	je	.L1185
	xorl	%edx, %edx
	addq	$1, 24(%rax)
	movq	%rdx, (%r15)
	movq	16(%rax), %rdx
	testq	%rdx, %rdx
	jne	.L1279
	movdqa	(%rsp), %xmm6
	movups	%xmm6, 8(%rax)
	jmp	.L1210
.L1178:
	movdqa	(%rsp), %xmm7
	movups	%xmm7, 192(%rbp)
	jmp	.L1179
.L1176:
	movdqa	(%rsp), %xmm6
	movups	%xmm6, 8(%rax)
	jmp	.L1177
.L1195:
	call	_ZN4asio15system_categoryEv@PLT
	movq	%rax, %rbp
	call	__errno_location@PLT
	movq	40(%r13), %rdi
	movl	$1, %edx
	movq	%r15, %rsi
	movl	(%rax), %eax
	movq	%rbp, 32(%r15)
	movl	%eax, 24(%r15)
	call	_ZN4asio6detail15task_io_service25post_immediate_completionEPNS0_25task_io_service_operationEb@PLT
	jmp	.L1177
.L1214:
	movq	%rax, %rbp
	jmp	.L1198
.L1213:
	movq	%rax, %rdi
	jmp	.L1199
	.section	.gcc_except_table
.LLSDA9377:
	.byte	0xff
	.byte	0xff
	.byte	0x1
	.uleb128 .LLSDACSE9377-.LLSDACSB9377
.LLSDACSB9377:
	.uleb128 .LEHB24-.LFB9377
	.uleb128 .LEHE24-.LEHB24
	.uleb128 .L1213-.LFB9377
	.uleb128 0
	.uleb128 .LEHB25-.LFB9377
	.uleb128 .LEHE25-.LEHB25
	.uleb128 .L1214-.LFB9377
	.uleb128 0
.LLSDACSE9377:
	.text
	.cfi_endproc
	.section	.text.unlikely
	.cfi_startproc
	.cfi_personality 0x9b,DW.ref.__gxx_personality_v0
	.cfi_lsda 0x1b,.LLSDAC9377
	.type	_ZN4asio6detail18completion_handlerINS0_17rewrapped_handlerINS0_7binder2INS0_8write_opINS_19basic_stream_socketINS_2ip3tcpENS_21stream_socket_serviceIS7_EEEENS_15const_buffers_1ENS0_14transfer_all_tENS0_15wrapped_handlerINS_10io_service6strandEZN7asiopal13SocketChannel14BeginWriteImplERKN7openpal6RSliceEEUlRKSt10error_codemE_NS0_26is_continuation_if_runningEEEEESM_mEESP_EEE11do_completeEPNS0_15task_io_serviceEPNS0_25task_io_service_operationESO_m.cold, @function
_ZN4asio6detail18completion_handlerINS0_17rewrapped_handlerINS0_7binder2INS0_8write_opINS_19basic_stream_socketINS_2ip3tcpENS_21stream_socket_serviceIS7_EEEENS_15const_buffers_1ENS0_14transfer_all_tENS0_15wrapped_handlerINS_10io_service6strandEZN7asiopal13SocketChannel14BeginWriteImplERKN7openpal6RSliceEEUlRKSt10error_codemE_NS0_26is_continuation_if_runningEEEEESM_mEESP_EEE11do_completeEPNS0_15task_io_serviceEPNS0_25task_io_service_operationESO_m.cold:
.LFSB9377:
.L1198:
	.cfi_def_cfa_offset 368
	.cfi_offset 3, -56
	.cfi_offset 6, -48
	.cfi_offset 12, -40
	.cfi_offset 13, -32
	.cfi_offset 14, -24
	.cfi_offset 15, -16
	movq	%rbx, %rdi
	call	pthread_mutex_unlock@PLT
	leaq	80(%rsp), %rdi
	call	_ZN4asio6detail23reactive_socket_send_opINS_15const_buffers_1ENS0_8write_opINS_19basic_stream_socketINS_2ip3tcpENS_21stream_socket_serviceIS6_EEEES2_NS0_14transfer_all_tENS0_15wrapped_handlerINS_10io_service6strandEZN7asiopal13SocketChannel14BeginWriteImplERKN7openpal6RSliceEEUlRKSt10error_codemE_NS0_26is_continuation_if_runningEEEEEE3ptr5resetEv
	movq	%rbp, %rdi
.L1199:
	sfence
.LEHB26:
	call	_Unwind_Resume@PLT
.LEHE26:
	.cfi_endproc
.LFE9377:
	.section	.gcc_except_table
.LLSDAC9377:
	.byte	0xff
	.byte	0xff
	.byte	0x1
	.uleb128 .LLSDACSEC9377-.LLSDACSBC9377
.LLSDACSBC9377:
	.uleb128 .LEHB26-.LCOLDB35
	.uleb128 .LEHE26-.LEHB26
	.uleb128 0
	.uleb128 0
.LLSDACSEC9377:
	.section	.text.unlikely
	.text
	.size	_ZN4asio6detail18completion_handlerINS0_17rewrapped_handlerINS0_7binder2INS0_8write_opINS_19basic_stream_socketINS_2ip3tcpENS_21stream_socket_serviceIS7_EEEENS_15const_buffers_1ENS0_14transfer_all_tENS0_15wrapped_handlerINS_10io_service6strandEZN7asiopal13SocketChannel14BeginWriteImplERKN7openpal6RSliceEEUlRKSt10error_codemE_NS0_26is_continuation_if_runningEEEEESM_mEESP_EEE11do_completeEPNS0_15task_io_serviceEPNS0_25task_io_service_operationESO_m, .-_ZN4asio6detail18completion_handlerINS0_17rewrapped_handlerINS0_7binder2INS0_8write_opINS_19basic_stream_socketINS_2ip3tcpENS_21stream_socket_serviceIS7_EEEENS_15const_buffers_1ENS0_14transfer_all_tENS0_15wrapped_handlerINS_10io_service6strandEZN7asiopal13SocketChannel14BeginWriteImplERKN7openpal6RSliceEEUlRKSt10error_codemE_NS0_26is_continuation_if_runningEEEEESM_mEESP_EEE11do_completeEPNS0_15task_io_serviceEPNS0_25task_io_service_operationESO_m
	.section	.text.unlikely
	.size	_ZN4asio6detail18completion_handlerINS0_17rewrapped_handlerINS0_7binder2INS0_8write_opINS_19basic_stream_socketINS_2ip3tcpENS_21stream_socket_serviceIS7_EEEENS_15const_buffers_1ENS0_14transfer_all_tENS0_15wrapped_handlerINS_10io_service6strandEZN7asiopal13SocketChannel14BeginWriteImplERKN7openpal6RSliceEEUlRKSt10error_codemE_NS0_26is_continuation_if_runningEEEEESM_mEESP_EEE11do_completeEPNS0_15task_io_serviceEPNS0_25task_io_service_operationESO_m.cold, .-_ZN4asio6detail18completion_handlerINS0_17rewrapped_handlerINS0_7binder2INS0_8write_opINS_19basic_stream_socketINS_2ip3tcpENS_21stream_socket_serviceIS7_EEEENS_15const_buffers_1ENS0_14transfer_all_tENS0_15wrapped_handlerINS_10io_service6strandEZN7asiopal13SocketChannel14BeginWriteImplERKN7openpal6RSliceEEUlRKSt10error_codemE_NS0_26is_continuation_if_runningEEEEESM_mEESP_EEE11do_completeEPNS0_15task_io_serviceEPNS0_25task_io_service_operationESO_m.cold
.LCOLDE35:
	.text
.LHOTE35:
	.section	.text.unlikely
.LCOLDB36:
	.text
.LHOTB36:
	.p2align 4
	.type	_ZN4asio6detail23reactive_socket_send_opINS_15const_buffers_1ENS0_8write_opINS_19basic_stream_socketINS_2ip3tcpENS_21stream_socket_serviceIS6_EEEES2_NS0_14transfer_all_tENS0_15wrapped_handlerINS_10io_service6strandEZN7asiopal13SocketChannel14BeginWriteImplERKN7openpal6RSliceEEUlRKSt10error_codemE_NS0_26is_continuation_if_runningEEEEEE11do_completeEPNS0_15task_io_serviceEPNS0_25task_io_service_operationESM_m, @function
_ZN4asio6detail23reactive_socket_send_opINS_15const_buffers_1ENS0_8write_opINS_19basic_stream_socketINS_2ip3tcpENS_21stream_socket_serviceIS6_EEEES2_NS0_14transfer_all_tENS0_15wrapped_handlerINS_10io_service6strandEZN7asiopal13SocketChannel14BeginWriteImplERKN7openpal6RSliceEEUlRKSt10error_codemE_NS0_26is_continuation_if_runningEEEEEE11do_completeEPNS0_15task_io_serviceEPNS0_25task_io_service_operationESM_m:
.LFB9237:
	.cfi_startproc
	.cfi_personality 0x9b,DW.ref.__gxx_personality_v0
	.cfi_lsda 0x1b,.LLSDA9237
	pushq	%r15
	.cfi_def_cfa_offset 16
	.cfi_offset 15, -16
	pushq	%r14
	.cfi_def_cfa_offset 24
	.cfi_offset 14, -24
	pushq	%r13
	.cfi_def_cfa_offset 32
	.cfi_offset 13, -32
	pushq	%r12
	.cfi_def_cfa_offset 40
	.cfi_offset 12, -40
	pushq	%rbp
	.cfi_def_cfa_offset 48
	.cfi_offset 6, -48
	movq	%rdi, %rbp
	pushq	%rbx
	.cfi_def_cfa_offset 56
	.cfi_offset 3, -56
	movq	%rsi, %rbx
	subq	$568, %rsp
	.cfi_def_cfa_offset 624
	movq	88(%rsi), %rax
	movdqu	96(%rsi), %xmm0
	movq	%rax, 256(%rsp)
	movl	112(%rsi), %eax
	movups	%xmm0, 264(%rsp)
	movdqu	128(%rsi), %xmm0
	movl	%eax, 280(%rsp)
	movq	120(%rsi), %rax
	movups	%xmm0, 296(%rsp)
	movdqu	24(%rsi), %xmm0
	movq	%rax, 288(%rsp)
	movq	144(%rsi), %rax
	movaps	%xmm0, 320(%rsp)
	movq	%rax, 312(%rsp)
	movq	40(%rsi), %rax
	movq	%rax, 336(%rsp)
	leaq	256(%rsp), %rax
	movq	%rax, 96(%rsp)
	data16	leaq	_ZN4asio6detail15keyword_tss_ptrINS0_10call_stackINS0_15task_io_serviceENS0_27task_io_service_thread_infoEE7contextEE6value_E@tlsgd(%rip), %rdi
	.value	0x6666
	rex64
	call	__tls_get_addr@PLT
	movq	(%rax), %rax
	testq	%rax, %rax
	je	.L1299
	movq	8(%rax), %rax
	testq	%rax, %rax
	je	.L1299
	cmpq	$0, (%rax)
	je	.L1515
.L1299:
	movq	%rbx, %rdi
	call	_ZdlPv@PLT
.L1300:
	testq	%rbp, %rbp
	je	.L1298
	movq	256(%rsp), %rax
	movq	312(%rsp), %r15
	movl	280(%rsp), %r12d
	movq	288(%rsp), %rbx
	movdqu	264(%rsp), %xmm0
	movq	%rax, 40(%rsp)
	movq	%rax, 456(%rsp)
	movq	336(%rsp), %rbp
	movdqu	296(%rsp), %xmm1
	movaps	%xmm0, 368(%rsp)
	movq	376(%rsp), %rax
	movq	%xmm0, 24(%rsp)
	movdqa	320(%rsp), %xmm0
	movq	%rax, (%rsp)
	movups	%xmm0, 424(%rsp)
	movq	432(%rsp), %rax
	movd	%xmm0, %r13d
	movq	%r15, 352(%rsp)
	movq	%r15, 416(%rsp)
	movq	%r15, 448(%rsp)
	movl	%r12d, 480(%rsp)
	movq	%rbx, 488(%rsp)
	movq	%rax, 48(%rsp)
	movq	%rbp, 536(%rsp)
	movq	%xmm1, 32(%rsp)
	movaps	%xmm1, 400(%rsp)
	movaps	%xmm1, 496(%rsp)
	movups	%xmm0, 520(%rsp)
	data16	leaq	_ZN4asio6detail15keyword_tss_ptrINS0_10call_stackINS0_14strand_service11strand_implEhE7contextEE6value_E@tlsgd(%rip), %rdi
	.value	0x6666
	rex64
	call	__tls_get_addr@PLT
	movq	(%rax), %rax
	testq	%rax, %rax
	je	.L1302
	movq	304(%rsp), %rdx
	jmp	.L1305
	.p2align 4
	.p2align 4,,10
	.p2align 3
.L1303:
	movq	16(%rax), %rax
	testq	%rax, %rax
	je	.L1302
.L1305:
	cmpq	(%rax), %rdx
	jne	.L1303
	cmpq	$0, 8(%rax)
	je	.L1302
	lfence
	testl	%r13d, %r13d
	leaq	(%rbx,%rbp), %r12
	setne	%dl
	testq	%rbp, %rbp
	movl	$0, 480(%rsp)
	sete	%al
	movq	%r12, 488(%rsp)
	orb	%al, %dl
	movl	%edx, %r14d
	je	.L1516
.L1306:
	movq	24(%rsp), %rcx
	movq	48(%rsp), %rax
	leaq	128(%rsp), %rdx
	leaq	504(%rsp), %rsi
	movq	32(%rsp), %rdi
	movq	%r15, 128(%rsp)
	movq	%rcx, 464(%rsp)
	movq	(%rsp), %rcx
	movl	%r13d, 136(%rsp)
	movq	%rax, 144(%rsp)
	movq	%r12, 152(%rsp)
	movq	%rcx, 472(%rsp)
	movq	%rdi, 496(%rsp)
	movq	%r15, 512(%rsp)
	movl	%r13d, 520(%rsp)
	movq	%rax, 528(%rsp)
.LEHB27:
	call	_ZN4asio6detail14strand_service8dispatchINS0_7binder2IZN7asiopal13SocketChannel14BeginWriteImplERKN7openpal6RSliceEEUlRKSt10error_codemE_SA_mEEEEvRPNS1_11strand_implERT_.constprop.0
.LEHE27:
.L1367:
	sfence
.L1369:
	sfence
.L1298:
	addq	$568, %rsp
	.cfi_remember_state
	.cfi_def_cfa_offset 56
	popq	%rbx
	.cfi_def_cfa_offset 48
	popq	%rbp
	.cfi_def_cfa_offset 40
	popq	%r12
	.cfi_def_cfa_offset 32
	popq	%r13
	.cfi_def_cfa_offset 24
	popq	%r14
	.cfi_def_cfa_offset 16
	popq	%r15
	.cfi_def_cfa_offset 8
	ret
	.p2align 4,,10
	.p2align 3
.L1302:
	.cfi_restore_state
	movq	296(%rsp), %rax
	movq	%rax, 56(%rsp)
	data16	leaq	_ZN4asio6detail15keyword_tss_ptrINS0_10call_stackINS0_15task_io_serviceENS0_27task_io_service_thread_infoEE7contextEE6value_E@tlsgd(%rip), %rdi
	.value	0x6666
	rex64
	call	__tls_get_addr@PLT
	movq	(%rax), %rax
	testq	%rax, %rax
	je	.L1370
	movq	8(%rax), %rax
	testq	%rax, %rax
	je	.L1370
	movq	(%rax), %r14
	testq	%r14, %r14
	je	.L1370
	movq	$0, (%rax)
	movzbl	(%r14), %eax
	cmpb	$119, %al
	jbe	.L1371
	movb	%al, 120(%r14)
	jmp	.L1372
	.p2align 4,,10
	.p2align 3
.L1371:
	movq	%r14, %rdi
	call	_ZdlPv@PLT
.L1370:
	movl	$121, %edi
.LEHB28:
	call	_Znwm@PLT
.LEHE28:
	movb	$120, 120(%rax)
	movq	%rax, %r14
.L1372:
	leaq	_ZN4asio6detail18completion_handlerINS0_17rewrapped_handlerINS0_7binder2INS0_8write_opINS_19basic_stream_socketINS_2ip3tcpENS_21stream_socket_serviceIS7_EEEENS_15const_buffers_1ENS0_14transfer_all_tENS0_15wrapped_handlerINS_10io_service6strandEZN7asiopal13SocketChannel14BeginWriteImplERKN7openpal6RSliceEEUlRKSt10error_codemE_NS0_26is_continuation_if_runningEEEEESM_mEESP_EEE11do_completeEPNS0_15task_io_serviceEPNS0_25task_io_service_operationESO_m(%rip), %rax
	movq	40(%rsp), %xmm0
	movhps	24(%rsp), %xmm0
	movups	%xmm0, 32(%r14)
	movq	%rax, 8(%r14)
	movq	448(%rsp), %rax
	movq	%r14, %xmm2
	movl	%r13d, 520(%rsp)
	punpcklqdq	%xmm2, %xmm2
	movq	%rax, 24(%r14)
	movq	(%rsp), %rax
	movq	$0, (%r14)
	movq	%rax, 48(%r14)
	movq	32(%rsp), %rax
	movl	$0, 16(%r14)
	movq	%rax, 496(%rsp)
	movq	48(%rsp), %rax
	movdqa	496(%rsp), %xmm0
	movl	%r12d, 56(%r14)
	movq	%rax, 528(%rsp)
	movups	%xmm0, 72(%r14)
	movdqu	520(%rsp), %xmm0
	movq	%rbx, 64(%r14)
	movq	%r15, 88(%r14)
	movq	%rbp, 112(%r14)
	movups	%xmm0, 96(%r14)
	movaps	%xmm2, 64(%rsp)
	data16	leaq	_ZN4asio6detail15keyword_tss_ptrINS0_10call_stackINS0_15task_io_serviceENS0_27task_io_service_thread_infoEE7contextEE6value_E@tlsgd(%rip), %rdi
	.value	0x6666
	rex64
	call	__tls_get_addr@PLT
	movq	304(%rsp), %rdi
	movq	(%rax), %rax
	testq	%rax, %rax
	je	.L1502
	movq	56(%rsp), %rcx
	movq	40(%rcx), %rdx
	jmp	.L1377
	.p2align 4
	.p2align 4,,10
	.p2align 3
.L1374:
	movq	16(%rax), %rax
	testq	%rax, %rax
	je	.L1502
.L1377:
	cmpq	(%rax), %rdx
	jne	.L1374
	movq	8(%rax), %rbx
	addq	$24, %rdi
	call	pthread_mutex_lock@PLT
	testq	%rbx, %rbx
	je	.L1376
	movq	304(%rsp), %rdi
	cmpb	$0, 64(%rdi)
	je	.L1517
.L1379:
	movq	80(%rdi), %rax
	movq	$0, (%r14)
	testq	%rax, %rax
	je	.L1382
	movq	%r14, (%rax)
	movq	%r14, 80(%rdi)
.L1383:
	addq	$24, %rdi
	call	pthread_mutex_unlock@PLT
	jmp	.L1369
	.p2align 4,,10
	.p2align 3
.L1517:
	movb	$1, 64(%rdi)
	addq	$24, %rdi
	call	pthread_mutex_unlock@PLT
	movq	304(%rsp), %rbx
	movq	%rbx, 176(%rsp)
	data16	leaq	_ZN4asio6detail15keyword_tss_ptrINS0_10call_stackINS0_14strand_service11strand_implEhE7contextEE6value_E@tlsgd(%rip), %rdi
	.value	0x6666
	rex64
	call	__tls_get_addr@PLT
	movq	%rbx, %xmm5
	xorl	%ecx, %ecx
	movq	%r14, %rsi
	movq	(%rax), %rdx
	movq	%rdx, 192(%rsp)
	leaq	176(%rsp), %rdx
	movq	%rdx, (%rax)
	movq	56(%rsp), %rax
	movq	%rdx, 184(%rsp)
	leaq	128(%rsp), %rdx
	movq	40(%rax), %rbp
	movq	%rbp, %xmm0
	movq	%rbp, %rdi
	punpcklqdq	%xmm5, %xmm0
	movaps	%xmm0, 80(%rsp)
.LEHB29:
	call	_ZN4asio6detail18completion_handlerINS0_17rewrapped_handlerINS0_7binder2INS0_8write_opINS_19basic_stream_socketINS_2ip3tcpENS_21stream_socket_serviceIS7_EEEENS_15const_buffers_1ENS0_14transfer_all_tENS0_15wrapped_handlerINS_10io_service6strandEZN7asiopal13SocketChannel14BeginWriteImplERKN7openpal6RSliceEEUlRKSt10error_codemE_NS0_26is_continuation_if_runningEEEEESM_mEESP_EEE11do_completeEPNS0_15task_io_serviceEPNS0_25task_io_service_operationESO_m
.LEHE29:
	leaq	24(%rbx), %r14
	movq	%r14, %rdi
	call	pthread_mutex_lock@PLT
	movq	72(%rbx), %r12
	testq	%r12, %r12
	je	.L1518
	movq	96(%rbx), %rax
	testq	%rax, %rax
	je	.L1398
	movq	%r12, (%rax)
	movq	88(%rbx), %r12
.L1399:
	movq	80(%rbx), %rax
	pxor	%xmm0, %xmm0
	movups	%xmm0, 72(%rbx)
	movq	%rax, 96(%rbx)
.L1397:
	testq	%r12, %r12
	movq	%r14, %rdi
	setne	64(%rbx)
	call	pthread_mutex_unlock@PLT
	testq	%r12, %r12
	je	.L1400
	movq	%rbx, %xmm4
	punpcklqdq	%xmm4, %xmm4
	movaps	%xmm4, (%rsp)
	cmpb	$0, 40(%rbp)
	je	.L1401
	data16	leaq	_ZN4asio6detail15keyword_tss_ptrINS0_10call_stackINS0_15task_io_serviceENS0_27task_io_service_thread_infoEE7contextEE6value_E@tlsgd(%rip), %rdi
	.value	0x6666
	rex64
	call	__tls_get_addr@PLT
	movq	(%rax), %rax
	testq	%rax, %rax
	jne	.L1404
	jmp	.L1401
	.p2align 4
	.p2align 4,,10
	.p2align 3
.L1402:
	movq	16(%rax), %rax
	testq	%rax, %rax
	je	.L1401
.L1404:
	cmpq	(%rax), %rbp
	jne	.L1402
	movq	8(%rax), %rax
	testq	%rax, %rax
	je	.L1401
	movq	16(%rax), %rdx
	addq	$1, 24(%rax)
	movq	$0, (%rbx)
	testq	%rdx, %rdx
	je	.L1405
	movq	%rbx, (%rdx)
	movq	%rbx, 16(%rax)
	.p2align 4
	.p2align 3
.L1400:
	data16	leaq	_ZN4asio6detail15keyword_tss_ptrINS0_10call_stackINS0_14strand_service11strand_implEhE7contextEE6value_E@tlsgd(%rip), %rdi
	.value	0x6666
	rex64
	call	__tls_get_addr@PLT
	movq	192(%rsp), %rdx
	movq	%rdx, (%rax)
	jmp	.L1369
	.p2align 4,,10
	.p2align 3
.L1515:
	movzbl	152(%rbx), %edx
	movb	%dl, (%rbx)
	movq	%rbx, (%rax)
	jmp	.L1300
	.p2align 4,,10
	.p2align 3
.L1382:
	movdqa	64(%rsp), %xmm6
	movups	%xmm6, 72(%rdi)
	jmp	.L1383
	.p2align 4,,10
	.p2align 3
.L1518:
	movq	88(%rbx), %r12
	jmp	.L1397
	.p2align 4,,10
	.p2align 3
.L1516:
	cmpq	(%rsp), %r12
	je	.L1306
	movq	(%rsp), %rax
	movq	40(%rsp), %xmm0
	movhps	24(%rsp), %xmm0
	cmpq	%r12, %rax
	jb	.L1413
	movq	24(%rsp), %rcx
	subq	%r12, %rax
	movq	%rax, %rbp
	movl	$65536, %eax
	addq	%r12, %rcx
	cmpq	%rax, %rbp
	movq	%rcx, 24(%rsp)
	cmova	%rax, %rbp
.L1308:
	movq	40(%rsp), %r13
	movq	24(%r13), %rax
	movaps	%xmm0, 176(%rsp)
	movl	$0, 200(%rsp)
	movq	%rax, 48(%rsp)
	movq	(%rsp), %rax
	movq	%r12, 208(%rsp)
	movq	%rax, 192(%rsp)
	movq	32(%rsp), %rax
	movq	%r15, 232(%rsp)
	movq	%rax, 496(%rsp)
	leaq	176(%rsp), %rax
	movdqa	496(%rsp), %xmm0
	movq	%rax, 128(%rsp)
	movups	%xmm0, 216(%rsp)
	pxor	%xmm0, %xmm0
	movups	%xmm0, 136(%rsp)
	data16	leaq	_ZN4asio6detail15keyword_tss_ptrINS0_10call_stackINS0_15task_io_serviceENS0_27task_io_service_thread_infoEE7contextEE6value_E@tlsgd(%rip), %rdi
	.value	0x6666
	rex64
	call	__tls_get_addr@PLT
	movq	(%rax), %rax
	testq	%rax, %rax
	je	.L1309
	movq	8(%rax), %rax
	testq	%rax, %rax
	je	.L1309
	movq	(%rax), %rbx
	testq	%rbx, %rbx
	je	.L1309
	movq	$0, (%rax)
	movzbl	(%rbx), %eax
	cmpb	$-105, %al
	jbe	.L1310
	movb	%al, 152(%rbx)
	xorl	%r15d, %r15d
	movq	%r13, (%rsp)
.L1311:
	movq	40(%rsp), %rax
	leaq	_ZN4asio6detail23reactive_socket_send_opINS_15const_buffers_1ENS0_8write_opINS_19basic_stream_socketINS_2ip3tcpENS_21stream_socket_serviceIS6_EEEES2_NS0_14transfer_all_tENS0_15wrapped_handlerINS_10io_service6strandEZN7asiopal13SocketChannel14BeginWriteImplERKN7openpal6RSliceEEUlRKSt10error_codemE_NS0_26is_continuation_if_runningEEEEEE11do_completeEPNS0_15task_io_serviceEPNS0_25task_io_service_operationESM_m(%rip), %rsi
	movq	%rbx, 136(%rsp)
	movl	(%rax), %r13d
	movq	%rsi, 8(%rbx)
	movq	$0, (%rbx)
	movl	$0, 16(%rbx)
	movl	$0, 24(%rbx)
	call	_ZNSt3_V215system_categoryEv@PLT
	movq	24(%rsp), %rsi
	movl	%r13d, 56(%rbx)
	movdqu	184(%rsp), %xmm0
	movq	%rax, 32(%rbx)
	movq	%rax, %rcx
	movq	_ZN4asio6detail28reactive_socket_send_op_baseINS_15const_buffers_1EE10do_performEPNS0_10reactor_opE@GOTPCREL(%rip), %rax
	movq	%rsi, 64(%rbx)
	movups	%xmm0, 96(%rbx)
	movq	(%rsp), %rsi
	movdqu	216(%rsp), %xmm0
	movq	%rax, 48(%rbx)
	movq	232(%rsp), %rax
	movq	$0, 40(%rbx)
	movq	%rax, 144(%rbx)
	movq	40(%rsp), %rax
	movq	%rbp, 72(%rbx)
	movl	$0, 80(%rbx)
	movq	%rsi, 88(%rbx)
	movl	%r15d, 112(%rbx)
	movq	%r12, 120(%rbx)
	movups	%xmm0, 128(%rbx)
	movq	%rbx, 144(%rsp)
	movzbl	4(%rax), %eax
	testb	$16, %al
	je	.L1418
	testb	%r14b, %r14b
	jne	.L1312
.L1418:
	testb	$3, %al
	jne	.L1314
	cmpl	$-1, %r13d
	je	.L1519
	movq	%rcx, (%rsp)
	call	__errno_location@PLT
	movl	%r13d, %edi
	leaq	80(%rsp), %rdx
	movl	$21537, %esi
	movl	$0, (%rax)
	movq	%rax, %rbp
	xorl	%eax, %eax
	movl	$1, 80(%rsp)
	call	ioctl@PLT
	movq	_ZGVZN4asio15system_categoryEvE8instance@GOTPCREL(%rip), %r13
	movl	%eax, %r14d
	movzbl	0(%r13), %eax
	testb	%al, %al
	movq	(%rsp), %rcx
	je	.L1319
.L1505:
	movq	_ZZN4asio15system_categoryEvE8instance@GOTPCREL(%rip), %r15
.L1320:
	movl	0(%rbp), %eax
	movq	%r15, 32(%rbx)
	movl	%eax, 24(%rbx)
	testl	%r14d, %r14d
	jns	.L1520
.L1312:
	movq	48(%rsp), %rax
	movq	%rbx, %xmm7
	punpcklqdq	%xmm7, %xmm7
	movq	40(%rax), %rax
	movaps	%xmm7, (%rsp)
	movq	40(%rax), %rbp
	data16	leaq	_ZN4asio6detail15keyword_tss_ptrINS0_10call_stackINS0_15task_io_serviceENS0_27task_io_service_thread_infoEE7contextEE6value_E@tlsgd(%rip), %rdi
	.value	0x6666
	rex64
	call	__tls_get_addr@PLT
	movq	(%rax), %rax
	testq	%rax, %rax
	jne	.L1360
	jmp	.L1357
	.p2align 4
	.p2align 4,,10
	.p2align 3
.L1358:
	movq	16(%rax), %rax
	testq	%rax, %rax
	je	.L1357
.L1360:
	cmpq	(%rax), %rbp
	jne	.L1358
	movq	8(%rax), %rax
	testq	%rax, %rax
	je	.L1357
	movq	16(%rax), %rdx
	addq	$1, 24(%rax)
	movq	$0, (%rbx)
	testq	%rdx, %rdx
	je	.L1361
.L1506:
	movq	%rbx, (%rdx)
	movq	%rbx, 16(%rax)
	jmp	.L1367
	.p2align 4,,10
	.p2align 3
.L1502:
	addq	$24, %rdi
	call	pthread_mutex_lock@PLT
.L1376:
	movq	304(%rsp), %rdi
	cmpb	$0, 64(%rdi)
	jne	.L1379
	movb	$1, 64(%rdi)
	addq	$24, %rdi
	call	pthread_mutex_unlock@PLT
	movq	304(%rsp), %rbp
	movq	$0, (%r14)
	movq	%rbp, %xmm3
	movq	96(%rbp), %rax
	punpcklqdq	%xmm3, %xmm3
	movaps	%xmm3, (%rsp)
	testq	%rax, %rax
	je	.L1384
	movq	%r14, (%rax)
	movq	%r14, 96(%rbp)
.L1385:
	movq	56(%rsp), %rax
	movq	40(%rax), %rbx
	cmpb	$0, 40(%rbx)
	je	.L1386
	data16	leaq	_ZN4asio6detail15keyword_tss_ptrINS0_10call_stackINS0_15task_io_serviceENS0_27task_io_service_thread_infoEE7contextEE6value_E@tlsgd(%rip), %rdi
	.value	0x6666
	rex64
	call	__tls_get_addr@PLT
	movq	(%rax), %rax
	testq	%rax, %rax
	jne	.L1389
	jmp	.L1386
	.p2align 4
	.p2align 4,,10
	.p2align 3
.L1387:
	movq	16(%rax), %rax
	testq	%rax, %rax
	je	.L1386
.L1389:
	cmpq	(%rax), %rbx
	jne	.L1387
	movq	8(%rax), %rax
	testq	%rax, %rax
	je	.L1386
	movq	16(%rax), %rdx
	addq	$1, 24(%rax)
	movq	$0, 0(%rbp)
	testq	%rdx, %rdx
	je	.L1390
	movq	%rbp, (%rdx)
	movq	%rbp, 16(%rax)
	jmp	.L1369
	.p2align 4,,10
	.p2align 3
.L1386:
	lock addq	$1, 184(%rbx)
	leaq	48(%rbx), %r12
	movq	%r12, %rdi
	call	pthread_mutex_lock@PLT
	movq	200(%rbx), %rax
	movq	$0, 0(%rbp)
	testq	%rax, %rax
	je	.L1391
	movq	%rbp, (%rax)
	movq	%rbp, 200(%rbx)
.L1392:
	movq	136(%rbx), %rax
	movq	%rax, %rdx
	orq	$1, %rdx
	movq	%rdx, 136(%rbx)
	cmpq	$1, %rax
	ja	.L1521
	cmpb	$0, 176(%rbx)
	jne	.L1395
	movq	144(%rbx), %rax
	testq	%rax, %rax
	je	.L1395
	movb	$1, 176(%rbx)
	leaq	88(%rax), %rdx
	movl	$3, %esi
	leaq	176(%rsp), %rcx
	movq	%rdx, 180(%rsp)
	movl	88(%rax), %edx
	movl	$-2147483639, 176(%rsp)
	movl	96(%rax), %edi
	call	epoll_ctl@PLT
.L1395:
	movq	%r12, %rdi
	call	pthread_mutex_unlock@PLT
	jmp	.L1369
	.p2align 4,,10
	.p2align 3
.L1401:
	lock addq	$1, 184(%rbp)
	leaq	48(%rbp), %r12
	movq	%r12, %rdi
	call	pthread_mutex_lock@PLT
	movq	200(%rbp), %rax
	movq	$0, (%rbx)
	testq	%rax, %rax
	je	.L1406
	movq	%rbx, (%rax)
	movq	%rbx, 200(%rbp)
.L1407:
	movq	136(%rbp), %rax
	movq	%rax, %rdx
	orq	$1, %rdx
	movq	%rdx, 136(%rbp)
	cmpq	$1, %rax
	ja	.L1522
	cmpb	$0, 176(%rbp)
	jne	.L1410
	movq	144(%rbp), %rax
	testq	%rax, %rax
	je	.L1410
	movb	$1, 176(%rbp)
	leaq	88(%rax), %rdx
	movl	$3, %esi
	leaq	128(%rsp), %rcx
	movq	%rdx, 132(%rsp)
	movl	88(%rax), %edx
	movl	$-2147483639, 128(%rsp)
	movl	96(%rax), %edi
	call	epoll_ctl@PLT
.L1410:
	movq	%r12, %rdi
	call	pthread_mutex_unlock@PLT
	jmp	.L1400
.L1521:
	movq	%r12, %rdi
	call	pthread_mutex_unlock@PLT
	leaq	88(%rbx), %rdi
	call	pthread_cond_signal@PLT
	jmp	.L1369
.L1522:
	movq	%r12, %rdi
	call	pthread_mutex_unlock@PLT
	leaq	88(%rbp), %rdi
	call	pthread_cond_signal@PLT
	jmp	.L1400
.L1398:
	movq	%r12, 88(%rbx)
	jmp	.L1399
.L1384:
	movdqa	64(%rsp), %xmm7
	movups	%xmm7, 88(%rbp)
	jmp	.L1385
.L1310:
	movq	%rbx, %rdi
	call	_ZdlPv@PLT
.L1309:
	movl	$153, %edi
.LEHB30:
	call	_Znwm@PLT
.LEHE30:
	movb	$-104, 152(%rax)
	movq	%rax, %rbx
	movq	176(%rsp), %rax
	movl	200(%rsp), %r15d
	movq	208(%rsp), %r12
	movq	%rax, (%rsp)
	jmp	.L1311
.L1391:
	movdqa	(%rsp), %xmm6
	movups	%xmm6, 192(%rbx)
	jmp	.L1392
.L1406:
	movdqa	(%rsp), %xmm6
	movups	%xmm6, 192(%rbp)
	jmp	.L1407
.L1413:
	movq	$0, 24(%rsp)
	movl	$1, %r14d
	xorl	%ebp, %ebp
	jmp	.L1308
.L1357:
	lock addq	$1, 184(%rbp)
	leaq	48(%rbp), %r12
	movq	%r12, %rdi
	call	pthread_mutex_lock@PLT
	movq	$0, (%rbx)
	movq	200(%rbp), %rax
	testq	%rax, %rax
	je	.L1362
	movq	%rbx, (%rax)
	movq	%rbx, 200(%rbp)
.L1363:
	movq	136(%rbp), %rax
	movq	%rax, %rdx
	orq	$1, %rdx
	movq	%rdx, 136(%rbp)
	cmpq	$1, %rax
	jbe	.L1364
	movq	%r12, %rdi
	call	pthread_mutex_unlock@PLT
	leaq	88(%rbp), %rdi
	call	pthread_cond_signal@PLT
	jmp	.L1367
.L1520:
	movq	40(%rsp), %rax
	movl	$0, 24(%rbx)
	movq	%rcx, 32(%rbx)
	orb	$2, 4(%rax)
	movl	(%rax), %r13d
.L1314:
	movq	48(%rsp), %rax
	movq	40(%rax), %rbp
	movq	40(%rsp), %rax
	movq	8(%rax), %r12
	testq	%r12, %r12
	je	.L1523
	addq	$40, %r12
	movq	%r12, %rdi
	call	pthread_mutex_lock@PLT
	movq	40(%rsp), %rax
	movq	8(%rax), %rax
	cmpb	$0, 144(%rax)
	jne	.L1524
	cmpq	$0, 112(%rax)
	je	.L1525
.L1350:
	movq	120(%rax), %rdx
	movq	$0, (%rbx)
	testq	%rdx, %rdx
	je	.L1353
	movq	%rbx, (%rdx)
	movq	%rbx, 120(%rax)
.L1354:
	movq	40(%rbp), %rax
	lock addq	$1, 184(%rax)
	movq	%r12, %rdi
	call	pthread_mutex_unlock@PLT
	jmp	.L1367
.L1405:
	movdqa	(%rsp), %xmm6
	movups	%xmm6, 8(%rax)
	jmp	.L1400
.L1390:
	movdqa	(%rsp), %xmm7
	movups	%xmm7, 8(%rax)
	jmp	.L1369
.L1364:
	cmpb	$0, 176(%rbp)
	jne	.L1366
	movq	144(%rbp), %rax
	testq	%rax, %rax
	je	.L1366
	movb	$1, 176(%rbp)
	leaq	88(%rax), %rdx
	leaq	80(%rsp), %rcx
	movl	$3, %esi
	movl	$-2147483639, 80(%rsp)
	movq	%rdx, 84(%rsp)
	movl	88(%rax), %edx
	movl	96(%rax), %edi
	call	epoll_ctl@PLT
.L1366:
	movq	%r12, %rdi
	call	pthread_mutex_unlock@PLT
	jmp	.L1367
.L1319:
	movq	%r13, %rdi
	movq	%rcx, (%rsp)
	call	__cxa_guard_acquire@PLT
	movq	(%rsp), %rcx
	testl	%eax, %eax
	je	.L1505
	movq	_ZZN4asio15system_categoryEvE8instance@GOTPCREL(%rip), %r15
	movq	_ZN4asio6detail15system_categoryD1Ev@GOTPCREL(%rip), %rdi
	leaq	__dso_handle(%rip), %rdx
	movq	%rcx, (%rsp)
	movq	%r15, %rsi
	call	__cxa_atexit@PLT
	movq	%r13, %rdi
	call	__cxa_guard_release@PLT
	movq	(%rsp), %rcx
	jmp	.L1320
.L1362:
	movdqa	(%rsp), %xmm6
	movups	%xmm6, 192(%rbp)
	jmp	.L1363
.L1361:
	movdqa	(%rsp), %xmm7
	movups	%xmm7, 8(%rax)
	jmp	.L1367
.L1353:
	movq	%rbx, %xmm0
	punpcklqdq	%xmm0, %xmm0
	movups	%xmm0, 112(%rax)
	jmp	.L1354
.L1525:
	movq	%rbx, %rdi
.LEHB31:
	call	*48(%rbx)
.LEHE31:
	testb	%al, %al
	jne	.L1526
	movq	40(%rsp), %rax
	movq	8(%rax), %rax
	movl	92(%rax), %edx
	testb	$4, %dl
	jne	.L1350
	orl	$4, %edx
	movq	%rax, 84(%rsp)
	leaq	80(%rsp), %rcx
	movl	$3, %esi
	movl	%edx, 80(%rsp)
	movl	96(%rbp), %edi
	movl	%r13d, %edx
	call	epoll_ctl@PLT
	testl	%eax, %eax
	jne	.L1352
	movq	40(%rsp), %rax
	movl	80(%rsp), %edx
	movq	8(%rax), %rax
	orl	%edx, 92(%rax)
	jmp	.L1350
.L1524:
	movq	%rbx, %xmm7
	movq	40(%rbp), %rbp
	punpcklqdq	%xmm7, %xmm7
	movaps	%xmm7, (%rsp)
	data16	leaq	_ZN4asio6detail15keyword_tss_ptrINS0_10call_stackINS0_15task_io_serviceENS0_27task_io_service_thread_infoEE7contextEE6value_E@tlsgd(%rip), %rdi
	.value	0x6666
	rex64
	call	__tls_get_addr@PLT
	movq	(%rax), %rax
	testq	%rax, %rax
	jne	.L1342
	jmp	.L1339
	.p2align 4
	.p2align 4,,10
	.p2align 3
.L1340:
	movq	16(%rax), %rax
	testq	%rax, %rax
	je	.L1339
.L1342:
	cmpq	(%rax), %rbp
	jne	.L1340
	movq	8(%rax), %rax
	testq	%rax, %rax
	je	.L1339
	movq	16(%rax), %rdx
	addq	$1, 24(%rax)
	movq	$0, (%rbx)
	testq	%rdx, %rdx
	je	.L1343
	movq	%rbx, (%rdx)
	movq	%rbx, 16(%rax)
	jmp	.L1366
.L1523:
	movq	_ZGVZN4asio15system_categoryEvE8instance@GOTPCREL(%rip), %r12
	movq	%rbx, %xmm7
	punpcklqdq	%xmm7, %xmm7
	movaps	%xmm7, (%rsp)
	movzbl	(%r12), %eax
	testb	%al, %al
	je	.L1324
	movq	_ZZN4asio15system_categoryEvE8instance@GOTPCREL(%rip), %r15
.L1325:
	movl	$9, 24(%rbx)
	movq	40(%rbp), %rbp
	movq	%r15, 32(%rbx)
	data16	leaq	_ZN4asio6detail15keyword_tss_ptrINS0_10call_stackINS0_15task_io_serviceENS0_27task_io_service_thread_infoEE7contextEE6value_E@tlsgd(%rip), %rdi
	.value	0x6666
	rex64
	call	__tls_get_addr@PLT
	movq	(%rax), %rax
	testq	%rax, %rax
	jne	.L1330
	jmp	.L1357
	.p2align 4
	.p2align 4,,10
	.p2align 3
.L1328:
	movq	16(%rax), %rax
	testq	%rax, %rax
	je	.L1357
.L1330:
	cmpq	(%rax), %rbp
	jne	.L1328
	movq	8(%rax), %rax
	testq	%rax, %rax
	je	.L1357
	movq	16(%rax), %rdx
	addq	$1, 24(%rax)
	movq	$0, (%rbx)
	testq	%rdx, %rdx
	jne	.L1506
	movdqa	(%rsp), %xmm6
	movups	%xmm6, 8(%rax)
	jmp	.L1367
.L1519:
	movq	_ZGVZN4asio15system_categoryEvE8instance@GOTPCREL(%rip), %rbp
	movzbl	0(%rbp), %eax
	testb	%al, %al
	je	.L1316
	movq	_ZZN4asio15system_categoryEvE8instance@GOTPCREL(%rip), %r15
.L1317:
	movl	$9, 24(%rbx)
	movq	%r15, 32(%rbx)
	jmp	.L1312
.L1339:
	lock addq	$1, 184(%rbp)
	leaq	48(%rbp), %r13
	movq	%r13, %rdi
	call	pthread_mutex_lock@PLT
	movq	200(%rbp), %rax
	movq	$0, (%rbx)
	testq	%rax, %rax
	je	.L1345
	movq	%rbx, (%rax)
	movq	%rbx, 200(%rbp)
.L1346:
	movq	136(%rbp), %rax
	movq	%rax, %rdx
	orq	$1, %rdx
	movq	%rdx, 136(%rbp)
	cmpq	$1, %rax
	jbe	.L1347
	movq	%r13, %rdi
	call	pthread_mutex_unlock@PLT
	leaq	88(%rbp), %rdi
	call	pthread_cond_signal@PLT
	jmp	.L1366
.L1324:
	movq	%r12, %rdi
	call	__cxa_guard_acquire@PLT
	movq	_ZZN4asio15system_categoryEvE8instance@GOTPCREL(%rip), %r15
	testl	%eax, %eax
	je	.L1325
	movq	_ZN4asio6detail15system_categoryD1Ev@GOTPCREL(%rip), %rdi
	leaq	__dso_handle(%rip), %rdx
	movq	%r15, %rsi
	call	__cxa_atexit@PLT
	movq	%r12, %rdi
	call	__cxa_guard_release@PLT
	jmp	.L1325
.L1316:
	movq	%rbp, %rdi
	call	__cxa_guard_acquire@PLT
	movq	_ZZN4asio15system_categoryEvE8instance@GOTPCREL(%rip), %r15
	testl	%eax, %eax
	je	.L1317
	movq	_ZN4asio6detail15system_categoryD1Ev@GOTPCREL(%rip), %rdi
	leaq	__dso_handle(%rip), %rdx
	movq	%r15, %rsi
	call	__cxa_atexit@PLT
	movq	%rbp, %rdi
	call	__cxa_guard_release@PLT
	jmp	.L1317
.L1526:
	movq	%r12, %rdi
	call	pthread_mutex_unlock@PLT
	movq	40(%rbp), %rdi
	movl	$1, %edx
	movq	%rbx, %rsi
	call	_ZN4asio6detail15task_io_service25post_immediate_completionEPNS0_25task_io_service_operationEb@PLT
	jmp	.L1367
.L1343:
	movdqa	(%rsp), %xmm7
	movups	%xmm7, 8(%rax)
	jmp	.L1366
.L1347:
	cmpb	$0, 176(%rbp)
	jne	.L1349
	movq	144(%rbp), %rax
	testq	%rax, %rax
	je	.L1349
	movb	$1, 176(%rbp)
	leaq	88(%rax), %rdx
	leaq	80(%rsp), %rcx
	movl	$3, %esi
	movq	%rdx, 84(%rsp)
	movl	88(%rax), %edx
	movl	$-2147483639, 80(%rsp)
	movl	96(%rax), %edi
	call	epoll_ctl@PLT
.L1349:
	movq	%r13, %rdi
	call	pthread_mutex_unlock@PLT
	jmp	.L1366
.L1345:
	movdqa	(%rsp), %xmm6
	movups	%xmm6, 192(%rbp)
	jmp	.L1346
.L1352:
	call	_ZN4asio15system_categoryEv@PLT
	movq	%rax, %r13
	call	__errno_location@PLT
	movq	40(%rbp), %rdi
	movl	$1, %edx
	movq	%rbx, %rsi
	movl	(%rax), %eax
	movq	%r13, 32(%rbx)
	movl	%eax, 24(%rbx)
	call	_ZN4asio6detail15task_io_service25post_immediate_completionEPNS0_25task_io_service_operationEb@PLT
	jmp	.L1366
.L1414:
	movq	%rax, %rbx
	jmp	.L1411
.L1417:
	movq	%rax, %rbx
	jmp	.L1355
.L1416:
	movq	%rax, %rbx
	jmp	.L1356
.L1415:
	movq	%rax, %rbx
	jmp	.L1412
	.section	.gcc_except_table
.LLSDA9237:
	.byte	0xff
	.byte	0xff
	.byte	0x1
	.uleb128 .LLSDACSE9237-.LLSDACSB9237
.LLSDACSB9237:
	.uleb128 .LEHB27-.LFB9237
	.uleb128 .LEHE27-.LEHB27
	.uleb128 .L1416-.LFB9237
	.uleb128 0
	.uleb128 .LEHB28-.LFB9237
	.uleb128 .LEHE28-.LEHB28
	.uleb128 .L1414-.LFB9237
	.uleb128 0
	.uleb128 .LEHB29-.LFB9237
	.uleb128 .LEHE29-.LEHB29
	.uleb128 .L1415-.LFB9237
	.uleb128 0
	.uleb128 .LEHB30-.LFB9237
	.uleb128 .LEHE30-.LEHB30
	.uleb128 .L1416-.LFB9237
	.uleb128 0
	.uleb128 .LEHB31-.LFB9237
	.uleb128 .LEHE31-.LEHB31
	.uleb128 .L1417-.LFB9237
	.uleb128 0
.LLSDACSE9237:
	.text
	.cfi_endproc
	.section	.text.unlikely
	.cfi_startproc
	.cfi_personality 0x9b,DW.ref.__gxx_personality_v0
	.cfi_lsda 0x1b,.LLSDAC9237
	.type	_ZN4asio6detail23reactive_socket_send_opINS_15const_buffers_1ENS0_8write_opINS_19basic_stream_socketINS_2ip3tcpENS_21stream_socket_serviceIS6_EEEES2_NS0_14transfer_all_tENS0_15wrapped_handlerINS_10io_service6strandEZN7asiopal13SocketChannel14BeginWriteImplERKN7openpal6RSliceEEUlRKSt10error_codemE_NS0_26is_continuation_if_runningEEEEEE11do_completeEPNS0_15task_io_serviceEPNS0_25task_io_service_operationESM_m.cold, @function
_ZN4asio6detail23reactive_socket_send_opINS_15const_buffers_1ENS0_8write_opINS_19basic_stream_socketINS_2ip3tcpENS_21stream_socket_serviceIS6_EEEES2_NS0_14transfer_all_tENS0_15wrapped_handlerINS_10io_service6strandEZN7asiopal13SocketChannel14BeginWriteImplERKN7openpal6RSliceEEUlRKSt10error_codemE_NS0_26is_continuation_if_runningEEEEEE11do_completeEPNS0_15task_io_serviceEPNS0_25task_io_service_operationESM_m.cold:
.LFSB9237:
.L1355:
	.cfi_def_cfa_offset 624
	.cfi_offset 3, -56
	.cfi_offset 6, -48
	.cfi_offset 12, -40
	.cfi_offset 13, -32
	.cfi_offset 14, -24
	.cfi_offset 15, -16
	movq	%r12, %rdi
	call	pthread_mutex_unlock@PLT
	leaq	128(%rsp), %rdi
	call	_ZN4asio6detail23reactive_socket_send_opINS_15const_buffers_1ENS0_8write_opINS_19basic_stream_socketINS_2ip3tcpENS_21stream_socket_serviceIS6_EEEES2_NS0_14transfer_all_tENS0_15wrapped_handlerINS_10io_service6strandEZN7asiopal13SocketChannel14BeginWriteImplERKN7openpal6RSliceEEUlRKSt10error_codemE_NS0_26is_continuation_if_runningEEEEEE3ptr5resetEv
.L1356:
	sfence
.L1411:
	sfence
	pxor	%xmm0, %xmm0
	leaq	96(%rsp), %rdi
	movups	%xmm0, 104(%rsp)
	call	_ZN4asio6detail23reactive_socket_send_opINS_15const_buffers_1ENS0_8write_opINS_19basic_stream_socketINS_2ip3tcpENS_21stream_socket_serviceIS6_EEEES2_NS0_14transfer_all_tENS0_15wrapped_handlerINS_10io_service6strandEZN7asiopal13SocketChannel14BeginWriteImplERKN7openpal6RSliceEEUlRKSt10error_codemE_NS0_26is_continuation_if_runningEEEEEE3ptr5resetEv
	movq	%rbx, %rdi
.LEHB32:
	call	_Unwind_Resume@PLT
.LEHE32:
.L1412:
	leaq	80(%rsp), %rdi
	call	_ZN4asio6detail14strand_service16on_dispatch_exitD1Ev@PLT
	data16	leaq	_ZN4asio6detail15keyword_tss_ptrINS0_10call_stackINS0_14strand_service11strand_implEhE7contextEE6value_E@tlsgd(%rip), %rdi
	.value	0x6666
	rex64
	call	__tls_get_addr@PLT
	movq	192(%rsp), %rdx
	movq	%rdx, (%rax)
	jmp	.L1411
	.cfi_endproc
.LFE9237:
	.section	.gcc_except_table
.LLSDAC9237:
	.byte	0xff
	.byte	0xff
	.byte	0x1
	.uleb128 .LLSDACSEC9237-.LLSDACSBC9237
.LLSDACSBC9237:
	.uleb128 .LEHB32-.LCOLDB36
	.uleb128 .LEHE32-.LEHB32
	.uleb128 0
	.uleb128 0
.LLSDACSEC9237:
	.section	.text.unlikely
	.text
	.size	_ZN4asio6detail23reactive_socket_send_opINS_15const_buffers_1ENS0_8write_opINS_19basic_stream_socketINS_2ip3tcpENS_21stream_socket_serviceIS6_EEEES2_NS0_14transfer_all_tENS0_15wrapped_handlerINS_10io_service6strandEZN7asiopal13SocketChannel14BeginWriteImplERKN7openpal6RSliceEEUlRKSt10error_codemE_NS0_26is_continuation_if_runningEEEEEE11do_completeEPNS0_15task_io_serviceEPNS0_25task_io_service_operationESM_m, .-_ZN4asio6detail23reactive_socket_send_opINS_15const_buffers_1ENS0_8write_opINS_19basic_stream_socketINS_2ip3tcpENS_21stream_socket_serviceIS6_EEEES2_NS0_14transfer_all_tENS0_15wrapped_handlerINS_10io_service6strandEZN7asiopal13SocketChannel14BeginWriteImplERKN7openpal6RSliceEEUlRKSt10error_codemE_NS0_26is_continuation_if_runningEEEEEE11do_completeEPNS0_15task_io_serviceEPNS0_25task_io_service_operationESM_m
	.section	.text.unlikely
	.size	_ZN4asio6detail23reactive_socket_send_opINS_15const_buffers_1ENS0_8write_opINS_19basic_stream_socketINS_2ip3tcpENS_21stream_socket_serviceIS6_EEEES2_NS0_14transfer_all_tENS0_15wrapped_handlerINS_10io_service6strandEZN7asiopal13SocketChannel14BeginWriteImplERKN7openpal6RSliceEEUlRKSt10error_codemE_NS0_26is_continuation_if_runningEEEEEE11do_completeEPNS0_15task_io_serviceEPNS0_25task_io_service_operationESM_m.cold, .-_ZN4asio6detail23reactive_socket_send_opINS_15const_buffers_1ENS0_8write_opINS_19basic_stream_socketINS_2ip3tcpENS_21stream_socket_serviceIS6_EEEES2_NS0_14transfer_all_tENS0_15wrapped_handlerINS_10io_service6strandEZN7asiopal13SocketChannel14BeginWriteImplERKN7openpal6RSliceEEUlRKSt10error_codemE_NS0_26is_continuation_if_runningEEEEEE11do_completeEPNS0_15task_io_serviceEPNS0_25task_io_service_operationESM_m.cold
.LCOLDE36:
	.text
.LHOTE36:
	.align 2
	.p2align 4
	.globl	_ZN7asiopal13SocketChannelC2ESt10shared_ptrINS_8ExecutorEEN4asio19basic_stream_socketINS4_2ip3tcpENS4_21stream_socket_serviceIS7_EEEE
	.type	_ZN7asiopal13SocketChannelC2ESt10shared_ptrINS_8ExecutorEEN4asio19basic_stream_socketINS4_2ip3tcpENS4_21stream_socket_serviceIS7_EEEE, @function
_ZN7asiopal13SocketChannelC2ESt10shared_ptrINS_8ExecutorEEN4asio19basic_stream_socketINS4_2ip3tcpENS4_21stream_socket_serviceIS7_EEEE:
.LFB7008:
	.cfi_startproc
	movq	_ZTVN7asiopal13IAsyncChannelE@GOTPCREL(%rip), %rax
	movq	$0, 16(%rdi)
	addq	$16, %rax
	movq	%rax, %xmm0
	movups	%xmm0, (%rdi)
	movq	(%rsi), %rax
	movq	%rax, 24(%rdi)
	movq	8(%rsi), %rax
	movq	%rax, 32(%rdi)
	testq	%rax, %rax
	je	.L1528
	movq	__libc_single_threaded@GOTPCREL(%rip), %rcx
	cmpb	$0, (%rcx)
	je	.L1529
	addl	$1, 8(%rax)
.L1528:
	xorl	%eax, %eax
	pxor	%xmm0, %xmm0
	movl	$2, 80(%rdi)
	movw	%ax, 56(%rdi)
	movq	_ZTVN7asiopal13SocketChannelE@GOTPCREL(%rip), %rax
	movups	%xmm0, 40(%rdi)
	addq	$16, %rax
	movb	$0, 58(%rdi)
	movq	%rax, (%rdi)
	movq	24(%rdx), %rax
	movq	%rax, 88(%rdi)
	movl	(%rdx), %eax
	movl	$-1, (%rdx)
	movl	%eax, 64(%rdi)
	movzbl	4(%rdx), %eax
	movb	$0, 4(%rdx)
	movb	%al, 68(%rdi)
	movq	8(%rdx), %rax
	movq	$0, 8(%rdx)
	movq	%rax, 72(%rdi)
	movl	16(%rdx), %eax
	movl	$2, 16(%rdx)
	movl	%eax, 80(%rdi)
	ret
	.p2align 4,,10
	.p2align 3
.L1529:
	lock addl	$1, 8(%rax)
	jmp	.L1528
	.cfi_endproc
.LFE7008:
	.size	_ZN7asiopal13SocketChannelC2ESt10shared_ptrINS_8ExecutorEEN4asio19basic_stream_socketINS4_2ip3tcpENS4_21stream_socket_serviceIS7_EEEE, .-_ZN7asiopal13SocketChannelC2ESt10shared_ptrINS_8ExecutorEEN4asio19basic_stream_socketINS4_2ip3tcpENS4_21stream_socket_serviceIS7_EEEE
	.globl	_ZN7asiopal13SocketChannelC1ESt10shared_ptrINS_8ExecutorEEN4asio19basic_stream_socketINS4_2ip3tcpENS4_21stream_socket_serviceIS7_EEEE
	.set	_ZN7asiopal13SocketChannelC1ESt10shared_ptrINS_8ExecutorEEN4asio19basic_stream_socketINS4_2ip3tcpENS4_21stream_socket_serviceIS7_EEEE,_ZN7asiopal13SocketChannelC2ESt10shared_ptrINS_8ExecutorEEN4asio19basic_stream_socketINS4_2ip3tcpENS4_21stream_socket_serviceIS7_EEEE
	.section	.text._ZNSt16_Sp_counted_baseILN9__gnu_cxx12_Lock_policyE2EE24_M_release_last_use_coldEv,"axG",@progbits,_ZNSt16_Sp_counted_baseILN9__gnu_cxx12_Lock_policyE2EE24_M_release_last_use_coldEv,comdat
	.align 2
	.p2align 4
	.weak	_ZNSt16_Sp_counted_baseILN9__gnu_cxx12_Lock_policyE2EE24_M_release_last_use_coldEv
	.type	_ZNSt16_Sp_counted_baseILN9__gnu_cxx12_Lock_policyE2EE24_M_release_last_use_coldEv, @function
_ZNSt16_Sp_counted_baseILN9__gnu_cxx12_Lock_policyE2EE24_M_release_last_use_coldEv:
.LFB7282:
	.cfi_startproc
	pushq	%rbx
	.cfi_def_cfa_offset 16
	.cfi_offset 3, -16
	movq	(%rdi), %rax
	movq	%rdi, %rbx
	call	*16(%rax)
	movq	__libc_single_threaded@GOTPCREL(%rip), %rax
	cmpb	$0, (%rax)
	je	.L1534
	movl	12(%rbx), %eax
	leal	-1(%rax), %edx
	movl	%edx, 12(%rbx)
.L1535:
	cmpl	$1, %eax
	je	.L1538
	popq	%rbx
	.cfi_remember_state
	.cfi_def_cfa_offset 8
	ret
	.p2align 4,,10
	.p2align 3
.L1538:
	.cfi_restore_state
	movq	(%rbx), %rax
	movq	%rbx, %rdi
	popq	%rbx
	.cfi_remember_state
	.cfi_def_cfa_offset 8
	movq	24(%rax), %rax
	jmp	*%rax
	.p2align 4,,10
	.p2align 3
.L1534:
	.cfi_restore_state
	movl	$-1, %eax
	lock xaddl	%eax, 12(%rbx)
	jmp	.L1535
	.cfi_endproc
.LFE7282:
	.size	_ZNSt16_Sp_counted_baseILN9__gnu_cxx12_Lock_policyE2EE24_M_release_last_use_coldEv, .-_ZNSt16_Sp_counted_baseILN9__gnu_cxx12_Lock_policyE2EE24_M_release_last_use_coldEv
	.section	.text._ZN7asiopal13SocketChannelD0Ev,"axG",@progbits,_ZN7asiopal13SocketChannelD5Ev,comdat
	.align 2
	.p2align 4
	.weak	_ZN7asiopal13SocketChannelD0Ev
	.type	_ZN7asiopal13SocketChannelD0Ev, @function
_ZN7asiopal13SocketChannelD0Ev:
.LFB9435:
	.cfi_startproc
	.cfi_personality 0x9b,DW.ref.__gxx_personality_v0
	.cfi_lsda 0x1b,.LLSDA9435
	pushq	%r15
	.cfi_def_cfa_offset 16
	.cfi_offset 15, -16
	pushq	%r14
	.cfi_def_cfa_offset 24
	.cfi_offset 14, -24
	pushq	%r13
	.cfi_def_cfa_offset 32
	.cfi_offset 13, -32
	pushq	%r12
	.cfi_def_cfa_offset 40
	.cfi_offset 12, -40
	pushq	%rbp
	.cfi_def_cfa_offset 48
	.cfi_offset 6, -48
	movq	%rdi, %rbp
	pushq	%rbx
	.cfi_def_cfa_offset 56
	.cfi_offset 3, -56
	subq	$56, %rsp
	.cfi_def_cfa_offset 112
	movq	_ZTVN7asiopal13SocketChannelE@GOTPCREL(%rip), %rax
	movl	64(%rdi), %ebx
	addq	$16, %rax
	movq	%rax, (%rdi)
	cmpl	$-1, %ebx
	jne	.L1669
.L1541:
	movq	_ZTVN7asiopal13IAsyncChannelE@GOTPCREL(%rip), %rax
	movq	48(%rbp), %rbx
	addq	$16, %rax
	movq	%rax, 0(%rbp)
	testq	%rbx, %rbx
	je	.L1590
	movq	8(%rbx), %rdx
	leaq	8(%rbx), %rcx
	movabsq	$4294967297, %rax
	cmpq	%rax, %rdx
	je	.L1670
	movq	__libc_single_threaded@GOTPCREL(%rip), %rax
	cmpb	$0, (%rax)
	je	.L1592
	movl	8(%rbx), %eax
	leal	-1(%rax), %edx
	movl	%edx, 8(%rbx)
.L1593:
	cmpl	$1, %eax
	je	.L1671
.L1590:
	movq	32(%rbp), %rbx
	testq	%rbx, %rbx
	je	.L1596
	movq	8(%rbx), %rdx
	leaq	8(%rbx), %rcx
	movabsq	$4294967297, %rax
	cmpq	%rax, %rdx
	je	.L1672
	movq	__libc_single_threaded@GOTPCREL(%rip), %rax
	cmpb	$0, (%rax)
	je	.L1598
	movl	8(%rbx), %eax
	leal	-1(%rax), %edx
	movl	%edx, 8(%rbx)
.L1599:
	cmpl	$1, %eax
	je	.L1673
.L1596:
	movq	16(%rbp), %rdi
	testq	%rdi, %rdi
	je	.L1602
	movq	__libc_single_threaded@GOTPCREL(%rip), %rax
	cmpb	$0, (%rax)
	je	.L1603
	movl	12(%rdi), %eax
	leal	-1(%rax), %edx
	movl	%edx, 12(%rdi)
.L1604:
	cmpl	$1, %eax
	je	.L1674
.L1602:
	addq	$56, %rsp
	.cfi_remember_state
	.cfi_def_cfa_offset 56
	movq	%rbp, %rdi
	movl	$96, %esi
	popq	%rbx
	.cfi_def_cfa_offset 48
	popq	%rbp
	.cfi_def_cfa_offset 40
	popq	%r12
	.cfi_def_cfa_offset 32
	popq	%r13
	.cfi_def_cfa_offset 24
	popq	%r14
	.cfi_def_cfa_offset 16
	popq	%r15
	.cfi_def_cfa_offset 8
.LEHB33:
	jmp	_ZdlPvm@PLT
.LEHE33:
	.p2align 4,,10
	.p2align 3
.L1669:
	.cfi_restore_state
	movq	72(%rdi), %rax
	movzbl	68(%rdi), %r12d
	testq	%rax, %rax
	je	.L1542
	movq	88(%rdi), %rdx
	leaq	40(%rax), %r14
	movq	%r14, %rdi
	movq	%r14, 24(%rsp)
	movq	40(%rdx), %rsi
	movq	%rsi, 16(%rsp)
	call	pthread_mutex_lock@PLT
	movq	72(%rbp), %r9
	cmpb	$0, 144(%r9)
	jne	.L1573
	andl	$64, %r12d
	jne	.L1675
.L1545:
	movq	$0, 8(%rsp)
	xorl	%r15d, %r15d
	movl	$0, 4(%rsp)
.L1546:
	movslq	4(%rsp), %rax
	salq	$4, %rax
	movq	96(%rax,%r9), %rbx
	testq	%rbx, %rbx
	je	.L1659
	movq	_ZGVZN4asio15system_categoryEvE8instance@GOTPCREL(%rip), %r14
	movq	_ZZN4asio15system_categoryEvE8instance@GOTPCREL(%rip), %r12
	movq	%rax, %r13
	jmp	.L1558
	.p2align 4,,10
	.p2align 3
.L1548:
	movq	72(%rbp), %r9
	movl	$125, 24(%rbx)
	movq	%r12, 32(%rbx)
	leaq	(%r9,%r13), %rdi
	movq	96(%rdi), %rax
	testq	%rax, %rax
	je	.L1664
	movq	(%rax), %rdx
	movq	%rdx, 96(%rdi)
	testq	%rdx, %rdx
	je	.L1553
	movq	$0, (%rax)
	movq	$0, (%rbx)
	testq	%r15, %r15
	je	.L1606
	movq	%rbx, (%r15)
.L1554:
	movq	%rbx, %r15
	movq	%rdx, %rbx
.L1558:
	movzbl	(%r14), %eax
	testb	%al, %al
	jne	.L1548
	movq	%r14, %rdi
	call	__cxa_guard_acquire@PLT
	testl	%eax, %eax
	je	.L1548
	movq	_ZN4asio6detail15system_categoryD1Ev@GOTPCREL(%rip), %rdi
	leaq	__dso_handle(%rip), %rdx
	movq	%r12, %rsi
	call	__cxa_atexit@PLT
	movq	%r14, %rdi
	call	__cxa_guard_release@PLT
	jmp	.L1548
	.p2align 4,,10
	.p2align 3
.L1563:
	leaq	48(%r12), %r14
	movq	%r14, %rdi
	call	pthread_mutex_lock@PLT
	movq	200(%r12), %rax
	testq	%rax, %rax
	je	.L1569
	movq	8(%rsp), %rcx
	movq	%rcx, (%rax)
.L1570:
	movq	136(%r12), %rax
	movq	%rbx, 200(%r12)
	movq	%rax, %rdx
	orq	$1, %rdx
	movq	%rdx, 136(%r12)
	cmpq	$1, %rax
	ja	.L1676
	cmpb	$0, 176(%r12)
	jne	.L1573
	movq	144(%r12), %rax
	testq	%rax, %rax
	je	.L1573
	leaq	88(%rax), %rdx
	leaq	32(%rsp), %rcx
	movl	$3, %esi
	movb	$1, 176(%r12)
	movq	%rdx, 36(%rsp)
	movl	88(%rax), %edx
	movl	$-2147483639, 32(%rsp)
	movl	96(%rax), %edi
	call	epoll_ctl@PLT
	.p2align 4
	.p2align 3
.L1573:
	movq	%r14, %rdi
	call	pthread_mutex_unlock@PLT
.L1544:
	movl	64(%rbp), %ebx
	cmpl	$-1, %ebx
	je	.L1541
	movzbl	68(%rbp), %r12d
.L1542:
	call	__errno_location@PLT
	movq	%rax, %r13
	testb	$8, %r12b
	jne	.L1660
	movq	_ZGVZN4asio15system_categoryEvE8instance@GOTPCREL(%rip), %r14
.L1575:
	movl	$0, 0(%r13)
	movl	%ebx, %edi
	call	close@PLT
	movl	%eax, %r12d
	movzbl	(%r14), %eax
	testb	%al, %al
	je	.L1677
.L1580:
	testl	%r12d, %r12d
	je	.L1541
	movl	0(%r13), %r12d
	movzbl	(%r14), %eax
	testb	%al, %al
	je	.L1678
.L1583:
	cmpl	$11, %r12d
	je	.L1585
.L1668:
	movzbl	(%r14), %eax
	testb	%al, %al
	jne	.L1541
	movq	%r14, %rdi
	call	__cxa_guard_acquire@PLT
	testl	%eax, %eax
	je	.L1541
	movq	_ZZN4asio15system_categoryEvE8instance@GOTPCREL(%rip), %rsi
	movq	_ZN4asio6detail15system_categoryD1Ev@GOTPCREL(%rip), %rdi
	leaq	__dso_handle(%rip), %rdx
	call	__cxa_atexit@PLT
	movq	%r14, %rdi
	call	__cxa_guard_release@PLT
	jmp	.L1541
	.p2align 4,,10
	.p2align 3
.L1674:
	movq	(%rdi), %rax
	call	*24(%rax)
	jmp	.L1602
	.p2align 4,,10
	.p2align 3
.L1603:
	movl	$-1, %eax
	lock xaddl	%eax, 12(%rdi)
	jmp	.L1604
	.p2align 4,,10
	.p2align 3
.L1670:
	movq	(%rbx), %rax
	movq	%rbx, %rdi
	movq	$0, 8(%rbx)
	call	*16(%rax)
	movq	(%rbx), %rax
	movq	%rbx, %rdi
	call	*24(%rax)
	jmp	.L1590
	.p2align 4,,10
	.p2align 3
.L1672:
	movq	(%rbx), %rax
	movq	%rbx, %rdi
	movq	$0, 8(%rbx)
	call	*16(%rax)
	movq	(%rbx), %rax
	movq	%rbx, %rdi
	call	*24(%rax)
	jmp	.L1596
	.p2align 4,,10
	.p2align 3
.L1553:
	movq	$0, 104(%rdi)
	movq	$0, (%rax)
.L1664:
	movq	$0, (%rbx)
	testq	%r15, %r15
	je	.L1679
	movq	%rbx, (%r15)
.L1556:
	addl	$1, 4(%rsp)
	cmpl	$3, 4(%rsp)
	je	.L1557
.L1680:
	movq	%rbx, %r15
	jmp	.L1546
	.p2align 4,,10
	.p2align 3
.L1606:
	movq	%rbx, 8(%rsp)
	jmp	.L1554
	.p2align 4,,10
	.p2align 3
.L1679:
	addl	$1, 4(%rsp)
	movq	%rbx, 8(%rsp)
	cmpl	$3, 4(%rsp)
	jne	.L1680
.L1557:
	movl	$-1, 88(%r9)
	movq	24(%rsp), %rdi
	movb	$1, 144(%r9)
	call	pthread_mutex_unlock@PLT
	movq	16(%rsp), %r14
	movq	72(%rbp), %r12
	leaq	120(%r14), %r15
	movq	%r15, %rdi
	call	pthread_mutex_lock@PLT
	cmpq	160(%r14), %r12
	je	.L1681
.L1559:
	movq	32(%r12), %rax
	testq	%rax, %rax
	je	.L1560
	movq	24(%r12), %rdx
	movq	%rdx, 24(%rax)
.L1560:
	movq	24(%r12), %rax
	testq	%rax, %rax
	je	.L1561
	movq	32(%r12), %rdx
	movq	%rdx, 32(%rax)
.L1561:
	movq	16(%rsp), %r14
	movq	%r15, %rdi
	movq	168(%r14), %rax
	movq	$0, 32(%r12)
	movq	%rax, 24(%r12)
	movq	%r12, 168(%r14)
	call	pthread_mutex_unlock@PLT
	movq	$0, 72(%rbp)
	cmpq	$0, 8(%rsp)
	je	.L1544
	movq	40(%r14), %r12
	cmpb	$0, 40(%r12)
	je	.L1563
	data16	leaq	_ZN4asio6detail15keyword_tss_ptrINS0_10call_stackINS0_15task_io_serviceENS0_27task_io_service_thread_infoEE7contextEE6value_E@tlsgd(%rip), %rdi
	.value	0x6666
	rex64
	call	__tls_get_addr@PLT
	movq	(%rax), %rax
	testq	%rax, %rax
	jne	.L1566
	jmp	.L1563
	.p2align 4
	.p2align 4,,10
	.p2align 3
.L1564:
	movq	16(%rax), %rax
	testq	%rax, %rax
	je	.L1563
.L1566:
	cmpq	(%rax), %r12
	jne	.L1564
	movq	8(%rax), %rax
	testq	%rax, %rax
	je	.L1563
	movq	16(%rax), %rdx
	movq	8(%rsp), %rcx
	testq	%rdx, %rdx
	je	.L1567
	movq	%rcx, (%rdx)
.L1568:
	movq	%rbx, 16(%rax)
	jmp	.L1544
	.p2align 4,,10
	.p2align 3
.L1598:
	movl	$-1, %eax
	lock xaddl	%eax, (%rcx)
	jmp	.L1599
	.p2align 4,,10
	.p2align 3
.L1592:
	movl	$-1, %eax
	lock xaddl	%eax, (%rcx)
	jmp	.L1593
	.p2align 4,,10
	.p2align 3
.L1677:
	movq	%r14, %rdi
	call	__cxa_guard_acquire@PLT
	testl	%eax, %eax
	je	.L1580
	movq	_ZZN4asio15system_categoryEvE8instance@GOTPCREL(%rip), %rsi
	movq	_ZN4asio6detail15system_categoryD1Ev@GOTPCREL(%rip), %rdi
	leaq	__dso_handle(%rip), %rdx
	call	__cxa_atexit@PLT
	movq	%r14, %rdi
	call	__cxa_guard_release@PLT
	jmp	.L1580
	.p2align 4,,10
	.p2align 3
.L1660:
	orl	$8, %r12d
	leaq	32(%rsp), %rcx
	movl	$13, %edx
	movl	%ebx, %edi
	movb	%r12b, 68(%rbp)
	movl	$8, %r8d
	movl	$1, %esi
	movq	$0, 32(%rsp)
	movl	$0, (%rax)
	call	setsockopt@PLT
	movq	_ZGVZN4asio15system_categoryEvE8instance@GOTPCREL(%rip), %r14
	movzbl	(%r14), %eax
	testb	%al, %al
	jne	.L1575
	movq	%r14, %rdi
	call	__cxa_guard_acquire@PLT
	testl	%eax, %eax
	je	.L1575
	movq	_ZZN4asio15system_categoryEvE8instance@GOTPCREL(%rip), %rsi
	movq	_ZN4asio6detail15system_categoryD1Ev@GOTPCREL(%rip), %rdi
	leaq	__dso_handle(%rip), %rdx
	call	__cxa_atexit@PLT
	movq	%r14, %rdi
	call	__cxa_guard_release@PLT
	jmp	.L1575
	.p2align 4,,10
	.p2align 3
.L1659:
	movq	%r15, %rbx
	jmp	.L1556
	.p2align 4,,10
	.p2align 3
.L1675:
	movq	16(%rsp), %rax
	movl	$0, 32(%rsp)
	leaq	32(%rsp), %rcx
	movl	%ebx, %edx
	movq	$0, 36(%rsp)
	movl	$2, %esi
	movl	96(%rax), %edi
	call	epoll_ctl@PLT
	movq	72(%rbp), %r9
	jmp	.L1545
	.p2align 4,,10
	.p2align 3
.L1681:
	movq	24(%r12), %rax
	movq	16(%rsp), %rcx
	movq	%rax, 160(%rcx)
	jmp	.L1559
	.p2align 4,,10
	.p2align 3
.L1671:
	movq	%rbx, %rdi
	call	_ZNSt16_Sp_counted_baseILN9__gnu_cxx12_Lock_policyE2EE24_M_release_last_use_coldEv@PLT
	jmp	.L1590
	.p2align 4,,10
	.p2align 3
.L1673:
	movq	%rbx, %rdi
	call	_ZNSt16_Sp_counted_baseILN9__gnu_cxx12_Lock_policyE2EE24_M_release_last_use_coldEv@PLT
	jmp	.L1596
.L1676:
	movq	%r14, %rdi
	call	pthread_mutex_unlock@PLT
	leaq	88(%r12), %rdi
	call	pthread_cond_signal@PLT
	jmp	.L1544
.L1678:
	movq	%r14, %rdi
	call	__cxa_guard_acquire@PLT
	testl	%eax, %eax
	je	.L1583
	movq	_ZZN4asio15system_categoryEvE8instance@GOTPCREL(%rip), %rsi
	movq	_ZN4asio6detail15system_categoryD1Ev@GOTPCREL(%rip), %rdi
	leaq	__dso_handle(%rip), %rdx
	call	__cxa_atexit@PLT
	movq	%r14, %rdi
	call	__cxa_guard_release@PLT
	jmp	.L1583
.L1585:
	movl	%ebx, %edi
	leaq	32(%rsp), %rdx
	movl	$21537, %esi
	xorl	%eax, %eax
	movl	$0, 32(%rsp)
	call	ioctl@PLT
	andb	$-4, 68(%rbp)
	movl	%ebx, %edi
	movl	$0, 0(%r13)
	call	close@PLT
	jmp	.L1668
.L1569:
	movq	8(%rsp), %rax
	movq	%rax, 192(%r12)
	jmp	.L1570
.L1567:
	movq	%rcx, 8(%rax)
	jmp	.L1568
	.cfi_endproc
.LFE9435:
	.section	.gcc_except_table
.LLSDA9435:
	.byte	0xff
	.byte	0xff
	.byte	0x1
	.uleb128 .LLSDACSE9435-.LLSDACSB9435
.LLSDACSB9435:
	.uleb128 .LEHB33-.LFB9435
	.uleb128 .LEHE33-.LEHB33
	.uleb128 0
	.uleb128 0
.LLSDACSE9435:
	.section	.text._ZN7asiopal13SocketChannelD0Ev,"axG",@progbits,_ZN7asiopal13SocketChannelD5Ev,comdat
	.size	_ZN7asiopal13SocketChannelD0Ev, .-_ZN7asiopal13SocketChannelD0Ev
	.section	.text._ZN7asiopal13SocketChannelD2Ev,"axG",@progbits,_ZN7asiopal13SocketChannelD5Ev,comdat
	.align 2
	.p2align 4
	.weak	_ZN7asiopal13SocketChannelD2Ev
	.type	_ZN7asiopal13SocketChannelD2Ev, @function
_ZN7asiopal13SocketChannelD2Ev:
.LFB9433:
	.cfi_startproc
	.cfi_personality 0x9b,DW.ref.__gxx_personality_v0
	.cfi_lsda 0x1b,.LLSDA9433
	pushq	%r15
	.cfi_def_cfa_offset 16
	.cfi_offset 15, -16
	pushq	%r14
	.cfi_def_cfa_offset 24
	.cfi_offset 14, -24
	movq	%rdi, %r14
	pushq	%r13
	.cfi_def_cfa_offset 32
	.cfi_offset 13, -32
	pushq	%r12
	.cfi_def_cfa_offset 40
	.cfi_offset 12, -40
	pushq	%rbp
	.cfi_def_cfa_offset 48
	.cfi_offset 6, -48
	pushq	%rbx
	.cfi_def_cfa_offset 56
	.cfi_offset 3, -56
	subq	$56, %rsp
	.cfi_def_cfa_offset 112
	movq	_ZTVN7asiopal13SocketChannelE@GOTPCREL(%rip), %rax
	movl	64(%rdi), %ebx
	addq	$16, %rax
	movq	%rax, (%rdi)
	cmpl	$-1, %ebx
	jne	.L1812
.L1684:
	movq	_ZTVN7asiopal13IAsyncChannelE@GOTPCREL(%rip), %rax
	movq	48(%r14), %rbx
	addq	$16, %rax
	movq	%rax, (%r14)
	testq	%rbx, %rbx
	je	.L1733
	movq	8(%rbx), %rdx
	leaq	8(%rbx), %rcx
	movabsq	$4294967297, %rax
	cmpq	%rax, %rdx
	je	.L1813
	movq	__libc_single_threaded@GOTPCREL(%rip), %rax
	cmpb	$0, (%rax)
	je	.L1735
	movl	8(%rbx), %eax
	leal	-1(%rax), %edx
	movl	%edx, 8(%rbx)
.L1736:
	cmpl	$1, %eax
	je	.L1814
.L1733:
	movq	32(%r14), %rbx
	testq	%rbx, %rbx
	je	.L1739
	movq	8(%rbx), %rdx
	leaq	8(%rbx), %rcx
	movabsq	$4294967297, %rax
	cmpq	%rax, %rdx
	je	.L1815
	movq	__libc_single_threaded@GOTPCREL(%rip), %rax
	cmpb	$0, (%rax)
	je	.L1741
	movl	8(%rbx), %eax
	leal	-1(%rax), %edx
	movl	%edx, 8(%rbx)
.L1742:
	cmpl	$1, %eax
	je	.L1816
.L1739:
	movq	16(%r14), %rdi
	testq	%rdi, %rdi
	je	.L1682
	movq	__libc_single_threaded@GOTPCREL(%rip), %rax
	cmpb	$0, (%rax)
	je	.L1746
	movl	12(%rdi), %eax
	leal	-1(%rax), %edx
	movl	%edx, 12(%rdi)
.L1747:
	cmpl	$1, %eax
	je	.L1817
.L1682:
	addq	$56, %rsp
	.cfi_remember_state
	.cfi_def_cfa_offset 56
	popq	%rbx
	.cfi_def_cfa_offset 48
	popq	%rbp
	.cfi_def_cfa_offset 40
	popq	%r12
	.cfi_def_cfa_offset 32
	popq	%r13
	.cfi_def_cfa_offset 24
	popq	%r14
	.cfi_def_cfa_offset 16
	popq	%r15
	.cfi_def_cfa_offset 8
	ret
	.p2align 4,,10
	.p2align 3
.L1812:
	.cfi_restore_state
	movq	72(%rdi), %rax
	movzbl	68(%rdi), %ebp
	testq	%rax, %rax
	je	.L1685
	movq	88(%rdi), %rdx
	leaq	40(%rax), %r15
	movq	%r15, %rdi
	movq	%r15, 24(%rsp)
	movq	40(%rdx), %rsi
	movq	%rsi, 16(%rsp)
	call	pthread_mutex_lock@PLT
	movq	72(%r14), %r9
	cmpb	$0, 144(%r9)
	jne	.L1818
	andl	$64, %ebp
	jne	.L1819
.L1688:
	movq	$0, 8(%rsp)
	xorl	%r15d, %r15d
	movl	$0, 4(%rsp)
.L1689:
	movslq	4(%rsp), %rax
	salq	$4, %rax
	movq	96(%rax,%r9), %rbx
	testq	%rbx, %rbx
	je	.L1802
	movq	_ZGVZN4asio15system_categoryEvE8instance@GOTPCREL(%rip), %r13
	movq	_ZZN4asio15system_categoryEvE8instance@GOTPCREL(%rip), %rbp
	movq	%rax, %r12
	jmp	.L1701
	.p2align 4,,10
	.p2align 3
.L1691:
	movq	72(%r14), %r9
	movl	$125, 24(%rbx)
	movq	%rbp, 32(%rbx)
	leaq	(%r9,%r12), %rdi
	movq	96(%rdi), %rax
	testq	%rax, %rax
	je	.L1807
	movq	(%rax), %rdx
	movq	%rdx, 96(%rdi)
	testq	%rdx, %rdx
	je	.L1696
	movq	$0, (%rax)
	movq	$0, (%rbx)
	testq	%r15, %r15
	je	.L1749
	movq	%rbx, (%r15)
.L1697:
	movq	%rbx, %r15
	movq	%rdx, %rbx
.L1701:
	movzbl	0(%r13), %eax
	testb	%al, %al
	jne	.L1691
	movq	%r13, %rdi
	call	__cxa_guard_acquire@PLT
	testl	%eax, %eax
	je	.L1691
	movq	_ZN4asio6detail15system_categoryD1Ev@GOTPCREL(%rip), %rdi
	leaq	__dso_handle(%rip), %rdx
	movq	%rbp, %rsi
	call	__cxa_atexit@PLT
	movq	%r13, %rdi
	call	__cxa_guard_release@PLT
	jmp	.L1691
	.p2align 4,,10
	.p2align 3
.L1818:
	movq	%r15, %rdi
	call	pthread_mutex_unlock@PLT
.L1687:
	movl	64(%r14), %ebx
	cmpl	$-1, %ebx
	je	.L1684
	movzbl	68(%r14), %ebp
.L1685:
	call	__errno_location@PLT
	movq	%rax, %r12
	testb	$8, %bpl
	jne	.L1803
	movq	_ZGVZN4asio15system_categoryEvE8instance@GOTPCREL(%rip), %r13
.L1718:
	movl	$0, (%r12)
	movl	%ebx, %edi
	call	close@PLT
	movl	%eax, %ebp
	movzbl	0(%r13), %eax
	testb	%al, %al
	je	.L1820
.L1723:
	testl	%ebp, %ebp
	je	.L1684
	movl	(%r12), %ebp
	movzbl	0(%r13), %eax
	testb	%al, %al
	je	.L1821
.L1726:
	cmpl	$11, %ebp
	je	.L1728
.L1811:
	movzbl	0(%r13), %eax
	testb	%al, %al
	jne	.L1684
	movq	%r13, %rdi
	call	__cxa_guard_acquire@PLT
	testl	%eax, %eax
	je	.L1684
	movq	_ZZN4asio15system_categoryEvE8instance@GOTPCREL(%rip), %rsi
	movq	_ZN4asio6detail15system_categoryD1Ev@GOTPCREL(%rip), %rdi
	leaq	__dso_handle(%rip), %rdx
	call	__cxa_atexit@PLT
	movq	%r13, %rdi
	call	__cxa_guard_release@PLT
	jmp	.L1684
	.p2align 4,,10
	.p2align 3
.L1817:
	movq	(%rdi), %rax
	movq	24(%rax), %rax
	addq	$56, %rsp
	.cfi_remember_state
	.cfi_def_cfa_offset 56
	popq	%rbx
	.cfi_def_cfa_offset 48
	popq	%rbp
	.cfi_def_cfa_offset 40
	popq	%r12
	.cfi_def_cfa_offset 32
	popq	%r13
	.cfi_def_cfa_offset 24
	popq	%r14
	.cfi_def_cfa_offset 16
	popq	%r15
	.cfi_def_cfa_offset 8
.LEHB34:
	jmp	*%rax
.LEHE34:
	.p2align 4,,10
	.p2align 3
.L1746:
	.cfi_restore_state
	movl	$-1, %eax
	lock xaddl	%eax, 12(%rdi)
	jmp	.L1747
	.p2align 4,,10
	.p2align 3
.L1815:
	movq	(%rbx), %rax
	movq	%rbx, %rdi
	movq	$0, 8(%rbx)
	call	*16(%rax)
	movq	(%rbx), %rax
	movq	%rbx, %rdi
	call	*24(%rax)
	jmp	.L1739
	.p2align 4,,10
	.p2align 3
.L1813:
	movq	(%rbx), %rax
	movq	%rbx, %rdi
	movq	$0, 8(%rbx)
	call	*16(%rax)
	movq	(%rbx), %rax
	movq	%rbx, %rdi
	call	*24(%rax)
	jmp	.L1733
	.p2align 4,,10
	.p2align 3
.L1696:
	movq	$0, 104(%rdi)
	movq	$0, (%rax)
.L1807:
	movq	$0, (%rbx)
	testq	%r15, %r15
	je	.L1822
	movq	%rbx, (%r15)
.L1699:
	addl	$1, 4(%rsp)
	cmpl	$3, 4(%rsp)
	je	.L1700
.L1823:
	movq	%rbx, %r15
	jmp	.L1689
	.p2align 4,,10
	.p2align 3
.L1749:
	movq	%rbx, 8(%rsp)
	jmp	.L1697
	.p2align 4,,10
	.p2align 3
.L1822:
	addl	$1, 4(%rsp)
	movq	%rbx, 8(%rsp)
	cmpl	$3, 4(%rsp)
	jne	.L1823
.L1700:
	movl	$-1, 88(%r9)
	movq	24(%rsp), %rdi
	movb	$1, 144(%r9)
	call	pthread_mutex_unlock@PLT
	movq	16(%rsp), %r12
	movq	72(%r14), %rbp
	leaq	120(%r12), %r15
	movq	%r15, %rdi
	call	pthread_mutex_lock@PLT
	cmpq	160(%r12), %rbp
	je	.L1824
.L1702:
	movq	32(%rbp), %rax
	testq	%rax, %rax
	je	.L1703
	movq	24(%rbp), %rdx
	movq	%rdx, 24(%rax)
.L1703:
	movq	24(%rbp), %rax
	testq	%rax, %rax
	je	.L1704
	movq	32(%rbp), %rdx
	movq	%rdx, 32(%rax)
.L1704:
	movq	16(%rsp), %r12
	movq	%r15, %rdi
	movq	168(%r12), %rax
	movq	$0, 32(%rbp)
	movq	%rax, 24(%rbp)
	movq	%rbp, 168(%r12)
	call	pthread_mutex_unlock@PLT
	movq	$0, 72(%r14)
	cmpq	$0, 8(%rsp)
	je	.L1687
	movq	40(%r12), %rbp
	cmpb	$0, 40(%rbp)
	je	.L1706
	data16	leaq	_ZN4asio6detail15keyword_tss_ptrINS0_10call_stackINS0_15task_io_serviceENS0_27task_io_service_thread_infoEE7contextEE6value_E@tlsgd(%rip), %rdi
	.value	0x6666
	rex64
	call	__tls_get_addr@PLT
	movq	(%rax), %rax
	testq	%rax, %rax
	jne	.L1709
	jmp	.L1706
	.p2align 4
	.p2align 4,,10
	.p2align 3
.L1707:
	movq	16(%rax), %rax
	testq	%rax, %rax
	je	.L1706
.L1709:
	cmpq	(%rax), %rbp
	jne	.L1707
	movq	8(%rax), %rax
	testq	%rax, %rax
	je	.L1706
	movq	16(%rax), %rdx
	movq	8(%rsp), %rsi
	testq	%rdx, %rdx
	je	.L1710
	movq	%rsi, (%rdx)
.L1711:
	movq	%rbx, 16(%rax)
	jmp	.L1687
	.p2align 4,,10
	.p2align 3
.L1741:
	movl	$-1, %eax
	lock xaddl	%eax, (%rcx)
	jmp	.L1742
	.p2align 4,,10
	.p2align 3
.L1735:
	movl	$-1, %eax
	lock xaddl	%eax, (%rcx)
	jmp	.L1736
	.p2align 4,,10
	.p2align 3
.L1820:
	movq	%r13, %rdi
	call	__cxa_guard_acquire@PLT
	testl	%eax, %eax
	je	.L1723
	movq	_ZZN4asio15system_categoryEvE8instance@GOTPCREL(%rip), %rsi
	movq	_ZN4asio6detail15system_categoryD1Ev@GOTPCREL(%rip), %rdi
	leaq	__dso_handle(%rip), %rdx
	call	__cxa_atexit@PLT
	movq	%r13, %rdi
	call	__cxa_guard_release@PLT
	jmp	.L1723
	.p2align 4,,10
	.p2align 3
.L1803:
	orl	$8, %ebp
	leaq	32(%rsp), %rcx
	movl	$8, %r8d
	movl	%ebx, %edi
	movb	%bpl, 68(%r14)
	movl	$13, %edx
	movl	$1, %esi
	movq	$0, 32(%rsp)
	movl	$0, (%rax)
	call	setsockopt@PLT
	movq	_ZGVZN4asio15system_categoryEvE8instance@GOTPCREL(%rip), %r13
	movzbl	0(%r13), %eax
	testb	%al, %al
	jne	.L1718
	movq	%r13, %rdi
	call	__cxa_guard_acquire@PLT
	testl	%eax, %eax
	je	.L1718
	movq	_ZZN4asio15system_categoryEvE8instance@GOTPCREL(%rip), %rsi
	movq	_ZN4asio6detail15system_categoryD1Ev@GOTPCREL(%rip), %rdi
	leaq	__dso_handle(%rip), %rdx
	call	__cxa_atexit@PLT
	movq	%r13, %rdi
	call	__cxa_guard_release@PLT
	jmp	.L1718
	.p2align 4,,10
	.p2align 3
.L1706:
	leaq	48(%rbp), %r13
	movq	%r13, %rdi
	call	pthread_mutex_lock@PLT
	movq	200(%rbp), %rax
	testq	%rax, %rax
	je	.L1712
	movq	8(%rsp), %rsi
	movq	%rsi, (%rax)
.L1713:
	movq	136(%rbp), %rax
	movq	%rbx, 200(%rbp)
	movq	%rax, %rdx
	orq	$1, %rdx
	movq	%rdx, 136(%rbp)
	cmpq	$1, %rax
	ja	.L1825
	cmpb	$0, 176(%rbp)
	jne	.L1716
	movq	144(%rbp), %rax
	testq	%rax, %rax
	je	.L1716
	movb	$1, 176(%rbp)
	leaq	88(%rax), %rdx
	leaq	32(%rsp), %rcx
	movl	$3, %esi
	movq	%rdx, 36(%rsp)
	movl	88(%rax), %edx
	movl	$-2147483639, 32(%rsp)
	movl	96(%rax), %edi
	call	epoll_ctl@PLT
.L1716:
	movq	%r13, %rdi
	call	pthread_mutex_unlock@PLT
	jmp	.L1687
	.p2align 4,,10
	.p2align 3
.L1819:
	movq	16(%rsp), %rax
	movl	$0, 32(%rsp)
	leaq	32(%rsp), %rcx
	movl	%ebx, %edx
	movq	$0, 36(%rsp)
	movl	$2, %esi
	movl	96(%rax), %edi
	call	epoll_ctl@PLT
	movq	72(%r14), %r9
	jmp	.L1688
	.p2align 4,,10
	.p2align 3
.L1802:
	movq	%r15, %rbx
	jmp	.L1699
	.p2align 4,,10
	.p2align 3
.L1824:
	movq	24(%rbp), %rax
	movq	16(%rsp), %rsi
	movq	%rax, 160(%rsi)
	jmp	.L1702
	.p2align 4,,10
	.p2align 3
.L1814:
	movq	%rbx, %rdi
	call	_ZNSt16_Sp_counted_baseILN9__gnu_cxx12_Lock_policyE2EE24_M_release_last_use_coldEv@PLT
	jmp	.L1733
	.p2align 4,,10
	.p2align 3
.L1816:
	movq	%rbx, %rdi
	call	_ZNSt16_Sp_counted_baseILN9__gnu_cxx12_Lock_policyE2EE24_M_release_last_use_coldEv@PLT
	jmp	.L1739
.L1825:
	movq	%r13, %rdi
	call	pthread_mutex_unlock@PLT
	leaq	88(%rbp), %rdi
	call	pthread_cond_signal@PLT
	jmp	.L1687
.L1821:
	movq	%r13, %rdi
	call	__cxa_guard_acquire@PLT
	testl	%eax, %eax
	je	.L1726
	movq	_ZZN4asio15system_categoryEvE8instance@GOTPCREL(%rip), %rsi
	movq	_ZN4asio6detail15system_categoryD1Ev@GOTPCREL(%rip), %rdi
	leaq	__dso_handle(%rip), %rdx
	call	__cxa_atexit@PLT
	movq	%r13, %rdi
	call	__cxa_guard_release@PLT
	jmp	.L1726
.L1728:
	movl	%ebx, %edi
	leaq	32(%rsp), %rdx
	movl	$21537, %esi
	xorl	%eax, %eax
	movl	$0, 32(%rsp)
	call	ioctl@PLT
	andb	$-4, 68(%r14)
	movl	%ebx, %edi
	movl	$0, (%r12)
	call	close@PLT
	jmp	.L1811
.L1712:
	movq	8(%rsp), %rax
	movq	%rax, 192(%rbp)
	jmp	.L1713
.L1710:
	movq	%rsi, 8(%rax)
	jmp	.L1711
	.cfi_endproc
.LFE9433:
	.section	.gcc_except_table
.LLSDA9433:
	.byte	0xff
	.byte	0xff
	.byte	0x1
	.uleb128 .LLSDACSE9433-.LLSDACSB9433
.LLSDACSB9433:
	.uleb128 .LEHB34-.LFB9433
	.uleb128 .LEHE34-.LEHB34
	.uleb128 0
	.uleb128 0
.LLSDACSE9433:
	.section	.text._ZN7asiopal13SocketChannelD2Ev,"axG",@progbits,_ZN7asiopal13SocketChannelD5Ev,comdat
	.size	_ZN7asiopal13SocketChannelD2Ev, .-_ZN7asiopal13SocketChannelD2Ev
	.weak	_ZN7asiopal13SocketChannelD1Ev
	.set	_ZN7asiopal13SocketChannelD1Ev,_ZN7asiopal13SocketChannelD2Ev
	.section	.text.startup,"ax",@progbits
	.p2align 4
	.type	_GLOBAL__sub_I_SocketChannel.cpp, @function
_GLOBAL__sub_I_SocketChannel.cpp:
.LFB9549:
	.cfi_startproc
	subq	$8, %rsp
	.cfi_def_cfa_offset 16
	call	_ZN4asio15system_categoryEv@PLT
	movq	_ZGVZN4asio5error18get_netdb_categoryEvE8instance@GOTPCREL(%rip), %rax
	movzbl	(%rax), %eax
	testb	%al, %al
	je	.L1851
.L1828:
	movq	_ZGVZN4asio5error21get_addrinfo_categoryEvE8instance@GOTPCREL(%rip), %rax
	movzbl	(%rax), %eax
	testb	%al, %al
	je	.L1852
.L1831:
	movq	_ZGVZN4asio5error17get_misc_categoryEvE8instance@GOTPCREL(%rip), %rax
	movzbl	(%rax), %eax
	testb	%al, %al
	je	.L1853
.L1834:
	movq	_ZGVN4asio6detail10call_stackINS0_15task_io_serviceENS0_27task_io_service_thread_infoEE4top_E@GOTPCREL(%rip), %rax
	cmpb	$0, (%rax)
	jne	.L1836
	movb	$1, (%rax)
.L1836:
	movq	_ZGVN4asio6detail12service_baseINS0_13epoll_reactorEE2idE@GOTPCREL(%rip), %rax
	cmpb	$0, (%rax)
	jne	.L1837
	movb	$1, (%rax)
.L1837:
	movq	_ZGVN4asio6detail12service_baseINS0_15task_io_serviceEE2idE@GOTPCREL(%rip), %rax
	cmpb	$0, (%rax)
	jne	.L1838
	movb	$1, (%rax)
.L1838:
	movq	_ZGVN4asio6detail10call_stackINS0_14strand_service11strand_implEhE4top_E@GOTPCREL(%rip), %rax
	cmpb	$0, (%rax)
	je	.L1854
.L1839:
	movq	_ZGVN4asio6detail12service_baseINS0_14strand_serviceEE2idE@GOTPCREL(%rip), %rax
	cmpb	$0, (%rax)
	jne	.L1826
	movb	$1, (%rax)
.L1826:
	addq	$8, %rsp
	.cfi_remember_state
	.cfi_def_cfa_offset 8
	ret
.L1851:
	.cfi_restore_state
	movq	_ZGVZN4asio5error18get_netdb_categoryEvE8instance@GOTPCREL(%rip), %rdi
	call	__cxa_guard_acquire@PLT
	testl	%eax, %eax
	je	.L1828
	movq	_ZZN4asio5error18get_netdb_categoryEvE8instance@GOTPCREL(%rip), %rsi
	movq	_ZN4asio5error6detail14netdb_categoryD1Ev@GOTPCREL(%rip), %rdi
	leaq	__dso_handle(%rip), %rdx
	call	__cxa_atexit@PLT
	movq	_ZGVZN4asio5error18get_netdb_categoryEvE8instance@GOTPCREL(%rip), %rdi
	call	__cxa_guard_release@PLT
	jmp	.L1828
.L1854:
	movb	$1, (%rax)
	jmp	.L1839
.L1853:
	movq	_ZGVZN4asio5error17get_misc_categoryEvE8instance@GOTPCREL(%rip), %rdi
	call	__cxa_guard_acquire@PLT
	testl	%eax, %eax
	je	.L1834
	movq	_ZZN4asio5error17get_misc_categoryEvE8instance@GOTPCREL(%rip), %rsi
	movq	_ZN4asio5error6detail13misc_categoryD1Ev@GOTPCREL(%rip), %rdi
	leaq	__dso_handle(%rip), %rdx
	call	__cxa_atexit@PLT
	movq	_ZGVZN4asio5error17get_misc_categoryEvE8instance@GOTPCREL(%rip), %rdi
	call	__cxa_guard_release@PLT
	jmp	.L1834
.L1852:
	movq	_ZGVZN4asio5error21get_addrinfo_categoryEvE8instance@GOTPCREL(%rip), %rdi
	call	__cxa_guard_acquire@PLT
	testl	%eax, %eax
	je	.L1831
	movq	_ZZN4asio5error21get_addrinfo_categoryEvE8instance@GOTPCREL(%rip), %rsi
	movq	_ZN4asio5error6detail17addrinfo_categoryD1Ev@GOTPCREL(%rip), %rdi
	leaq	__dso_handle(%rip), %rdx
	call	__cxa_atexit@PLT
	movq	_ZGVZN4asio5error21get_addrinfo_categoryEvE8instance@GOTPCREL(%rip), %rdi
	call	__cxa_guard_release@PLT
	jmp	.L1831
	.cfi_endproc
.LFE9549:
	.size	_GLOBAL__sub_I_SocketChannel.cpp, .-_GLOBAL__sub_I_SocketChannel.cpp
	.section	.init_array,"aw"
	.align 8
	.quad	_GLOBAL__sub_I_SocketChannel.cpp
	.weak	_ZTSN7openpal10UncopyableE
	.section	.rodata._ZTSN7openpal10UncopyableE,"aG",@progbits,_ZTSN7openpal10UncopyableE,comdat
	.align 16
	.type	_ZTSN7openpal10UncopyableE, @object
	.size	_ZTSN7openpal10UncopyableE, 23
_ZTSN7openpal10UncopyableE:
	.string	"N7openpal10UncopyableE"
	.weak	_ZTIN7openpal10UncopyableE
	.section	.data.rel.ro._ZTIN7openpal10UncopyableE,"awG",@progbits,_ZTIN7openpal10UncopyableE,comdat
	.align 8
	.type	_ZTIN7openpal10UncopyableE, @object
	.size	_ZTIN7openpal10UncopyableE, 16
_ZTIN7openpal10UncopyableE:
	.quad	_ZTVN10__cxxabiv117__class_type_infoE+16
	.quad	_ZTSN7openpal10UncopyableE
	.weak	_ZTSSt23enable_shared_from_thisIN7asiopal13IAsyncChannelEE
	.section	.rodata._ZTSSt23enable_shared_from_thisIN7asiopal13IAsyncChannelEE,"aG",@progbits,_ZTSSt23enable_shared_from_thisIN7asiopal13IAsyncChannelEE,comdat
	.align 32
	.type	_ZTSSt23enable_shared_from_thisIN7asiopal13IAsyncChannelEE, @object
	.size	_ZTSSt23enable_shared_from_thisIN7asiopal13IAsyncChannelEE, 55
_ZTSSt23enable_shared_from_thisIN7asiopal13IAsyncChannelEE:
	.string	"St23enable_shared_from_thisIN7asiopal13IAsyncChannelEE"
	.weak	_ZTISt23enable_shared_from_thisIN7asiopal13IAsyncChannelEE
	.section	.data.rel.ro._ZTISt23enable_shared_from_thisIN7asiopal13IAsyncChannelEE,"awG",@progbits,_ZTISt23enable_shared_from_thisIN7asiopal13IAsyncChannelEE,comdat
	.align 8
	.type	_ZTISt23enable_shared_from_thisIN7asiopal13IAsyncChannelEE, @object
	.size	_ZTISt23enable_shared_from_thisIN7asiopal13IAsyncChannelEE, 16
_ZTISt23enable_shared_from_thisIN7asiopal13IAsyncChannelEE:
	.quad	_ZTVN10__cxxabiv117__class_type_infoE+16
	.quad	_ZTSSt23enable_shared_from_thisIN7asiopal13IAsyncChannelEE
	.weak	_ZGVN4asio6detail12service_baseINS0_14strand_serviceEE2idE
	.section	.bss._ZGVN4asio6detail12service_baseINS0_14strand_serviceEE2idE,"awG",@nobits,_ZGVN4asio6detail12service_baseINS0_14strand_serviceEE2idE,comdat
	.align 8
	.type	_ZGVN4asio6detail12service_baseINS0_14strand_serviceEE2idE, @gnu_unique_object
	.size	_ZGVN4asio6detail12service_baseINS0_14strand_serviceEE2idE, 8
_ZGVN4asio6detail12service_baseINS0_14strand_serviceEE2idE:
	.zero	8
	.weak	_ZGVN4asio6detail10call_stackINS0_14strand_service11strand_implEhE4top_E
	.section	.bss._ZGVN4asio6detail10call_stackINS0_14strand_service11strand_implEhE4top_E,"awG",@nobits,_ZGVN4asio6detail10call_stackINS0_14strand_service11strand_implEhE4top_E,comdat
	.align 8
	.type	_ZGVN4asio6detail10call_stackINS0_14strand_service11strand_implEhE4top_E, @gnu_unique_object
	.size	_ZGVN4asio6detail10call_stackINS0_14strand_service11strand_implEhE4top_E, 8
_ZGVN4asio6detail10call_stackINS0_14strand_service11strand_implEhE4top_E:
	.zero	8
	.weak	_ZGVN4asio6detail12service_baseINS0_15task_io_serviceEE2idE
	.section	.bss._ZGVN4asio6detail12service_baseINS0_15task_io_serviceEE2idE,"awG",@nobits,_ZGVN4asio6detail12service_baseINS0_15task_io_serviceEE2idE,comdat
	.align 8
	.type	_ZGVN4asio6detail12service_baseINS0_15task_io_serviceEE2idE, @gnu_unique_object
	.size	_ZGVN4asio6detail12service_baseINS0_15task_io_serviceEE2idE, 8
_ZGVN4asio6detail12service_baseINS0_15task_io_serviceEE2idE:
	.zero	8
	.weak	_ZGVN4asio6detail12service_baseINS0_13epoll_reactorEE2idE
	.section	.bss._ZGVN4asio6detail12service_baseINS0_13epoll_reactorEE2idE,"awG",@nobits,_ZGVN4asio6detail12service_baseINS0_13epoll_reactorEE2idE,comdat
	.align 8
	.type	_ZGVN4asio6detail12service_baseINS0_13epoll_reactorEE2idE, @gnu_unique_object
	.size	_ZGVN4asio6detail12service_baseINS0_13epoll_reactorEE2idE, 8
_ZGVN4asio6detail12service_baseINS0_13epoll_reactorEE2idE:
	.zero	8
	.weak	_ZGVN4asio6detail10call_stackINS0_15task_io_serviceENS0_27task_io_service_thread_infoEE4top_E
	.section	.bss._ZGVN4asio6detail10call_stackINS0_15task_io_serviceENS0_27task_io_service_thread_infoEE4top_E,"awG",@nobits,_ZGVN4asio6detail10call_stackINS0_15task_io_serviceENS0_27task_io_service_thread_infoEE4top_E,comdat
	.align 8
	.type	_ZGVN4asio6detail10call_stackINS0_15task_io_serviceENS0_27task_io_service_thread_infoEE4top_E, @gnu_unique_object
	.size	_ZGVN4asio6detail10call_stackINS0_15task_io_serviceENS0_27task_io_service_thread_infoEE4top_E, 8
_ZGVN4asio6detail10call_stackINS0_15task_io_serviceENS0_27task_io_service_thread_infoEE4top_E:
	.zero	8
	.weak	_ZTSN4asio6detail15system_categoryE
	.section	.rodata._ZTSN4asio6detail15system_categoryE,"aG",@progbits,_ZTSN4asio6detail15system_categoryE,comdat
	.align 32
	.type	_ZTSN4asio6detail15system_categoryE, @object
	.size	_ZTSN4asio6detail15system_categoryE, 32
_ZTSN4asio6detail15system_categoryE:
	.string	"N4asio6detail15system_categoryE"
	.weak	_ZTIN4asio6detail15system_categoryE
	.section	.data.rel.ro._ZTIN4asio6detail15system_categoryE,"awG",@progbits,_ZTIN4asio6detail15system_categoryE,comdat
	.align 8
	.type	_ZTIN4asio6detail15system_categoryE, @object
	.size	_ZTIN4asio6detail15system_categoryE, 24
_ZTIN4asio6detail15system_categoryE:
	.quad	_ZTVN10__cxxabiv120__si_class_type_infoE+16
	.quad	_ZTSN4asio6detail15system_categoryE
	.quad	_ZTINSt3_V214error_categoryE
	.weak	_ZTSN4asio5error6detail14netdb_categoryE
	.section	.rodata._ZTSN4asio5error6detail14netdb_categoryE,"aG",@progbits,_ZTSN4asio5error6detail14netdb_categoryE,comdat
	.align 32
	.type	_ZTSN4asio5error6detail14netdb_categoryE, @object
	.size	_ZTSN4asio5error6detail14netdb_categoryE, 37
_ZTSN4asio5error6detail14netdb_categoryE:
	.string	"N4asio5error6detail14netdb_categoryE"
	.weak	_ZTIN4asio5error6detail14netdb_categoryE
	.section	.data.rel.ro._ZTIN4asio5error6detail14netdb_categoryE,"awG",@progbits,_ZTIN4asio5error6detail14netdb_categoryE,comdat
	.align 8
	.type	_ZTIN4asio5error6detail14netdb_categoryE, @object
	.size	_ZTIN4asio5error6detail14netdb_categoryE, 24
_ZTIN4asio5error6detail14netdb_categoryE:
	.quad	_ZTVN10__cxxabiv120__si_class_type_infoE+16
	.quad	_ZTSN4asio5error6detail14netdb_categoryE
	.quad	_ZTINSt3_V214error_categoryE
	.weak	_ZTSN4asio5error6detail17addrinfo_categoryE
	.section	.rodata._ZTSN4asio5error6detail17addrinfo_categoryE,"aG",@progbits,_ZTSN4asio5error6detail17addrinfo_categoryE,comdat
	.align 32
	.type	_ZTSN4asio5error6detail17addrinfo_categoryE, @object
	.size	_ZTSN4asio5error6detail17addrinfo_categoryE, 40
_ZTSN4asio5error6detail17addrinfo_categoryE:
	.string	"N4asio5error6detail17addrinfo_categoryE"
	.weak	_ZTIN4asio5error6detail17addrinfo_categoryE
	.section	.data.rel.ro._ZTIN4asio5error6detail17addrinfo_categoryE,"awG",@progbits,_ZTIN4asio5error6detail17addrinfo_categoryE,comdat
	.align 8
	.type	_ZTIN4asio5error6detail17addrinfo_categoryE, @object
	.size	_ZTIN4asio5error6detail17addrinfo_categoryE, 24
_ZTIN4asio5error6detail17addrinfo_categoryE:
	.quad	_ZTVN10__cxxabiv120__si_class_type_infoE+16
	.quad	_ZTSN4asio5error6detail17addrinfo_categoryE
	.quad	_ZTINSt3_V214error_categoryE
	.weak	_ZTSN4asio5error6detail13misc_categoryE
	.section	.rodata._ZTSN4asio5error6detail13misc_categoryE,"aG",@progbits,_ZTSN4asio5error6detail13misc_categoryE,comdat
	.align 32
	.type	_ZTSN4asio5error6detail13misc_categoryE, @object
	.size	_ZTSN4asio5error6detail13misc_categoryE, 36
_ZTSN4asio5error6detail13misc_categoryE:
	.string	"N4asio5error6detail13misc_categoryE"
	.weak	_ZTIN4asio5error6detail13misc_categoryE
	.section	.data.rel.ro._ZTIN4asio5error6detail13misc_categoryE,"awG",@progbits,_ZTIN4asio5error6detail13misc_categoryE,comdat
	.align 8
	.type	_ZTIN4asio5error6detail13misc_categoryE, @object
	.size	_ZTIN4asio5error6detail13misc_categoryE, 24
_ZTIN4asio5error6detail13misc_categoryE:
	.quad	_ZTVN10__cxxabiv120__si_class_type_infoE+16
	.quad	_ZTSN4asio5error6detail13misc_categoryE
	.quad	_ZTINSt3_V214error_categoryE
	.weak	_ZTSN7asiopal13IAsyncChannelE
	.section	.rodata._ZTSN7asiopal13IAsyncChannelE,"aG",@progbits,_ZTSN7asiopal13IAsyncChannelE,comdat
	.align 16
	.type	_ZTSN7asiopal13IAsyncChannelE, @object
	.size	_ZTSN7asiopal13IAsyncChannelE, 26
_ZTSN7asiopal13IAsyncChannelE:
	.string	"N7asiopal13IAsyncChannelE"
	.weak	_ZTIN7asiopal13IAsyncChannelE
	.section	.data.rel.ro._ZTIN7asiopal13IAsyncChannelE,"awG",@progbits,_ZTIN7asiopal13IAsyncChannelE,comdat
	.align 8
	.type	_ZTIN7asiopal13IAsyncChannelE, @object
	.size	_ZTIN7asiopal13IAsyncChannelE, 56
_ZTIN7asiopal13IAsyncChannelE:
	.quad	_ZTVN10__cxxabiv121__vmi_class_type_infoE+16
	.quad	_ZTSN7asiopal13IAsyncChannelE
	.long	0
	.long	2
	.quad	_ZTISt23enable_shared_from_thisIN7asiopal13IAsyncChannelEE
	.quad	2050
	.quad	_ZTIN7openpal10UncopyableE
	.quad	0
	.weak	_ZTSN7asiopal13SocketChannelE
	.section	.rodata._ZTSN7asiopal13SocketChannelE,"aG",@progbits,_ZTSN7asiopal13SocketChannelE,comdat
	.align 16
	.type	_ZTSN7asiopal13SocketChannelE, @object
	.size	_ZTSN7asiopal13SocketChannelE, 26
_ZTSN7asiopal13SocketChannelE:
	.string	"N7asiopal13SocketChannelE"
	.weak	_ZTIN7asiopal13SocketChannelE
	.section	.data.rel.ro._ZTIN7asiopal13SocketChannelE,"awG",@progbits,_ZTIN7asiopal13SocketChannelE,comdat
	.align 8
	.type	_ZTIN7asiopal13SocketChannelE, @object
	.size	_ZTIN7asiopal13SocketChannelE, 24
_ZTIN7asiopal13SocketChannelE:
	.quad	_ZTVN10__cxxabiv120__si_class_type_infoE+16
	.quad	_ZTSN7asiopal13SocketChannelE
	.quad	_ZTIN7asiopal13IAsyncChannelE
	.weak	_ZTVN4asio6detail15system_categoryE
	.section	.data.rel.ro._ZTVN4asio6detail15system_categoryE,"awG",@progbits,_ZTVN4asio6detail15system_categoryE,comdat
	.align 8
	.type	_ZTVN4asio6detail15system_categoryE, @object
	.size	_ZTVN4asio6detail15system_categoryE, 80
_ZTVN4asio6detail15system_categoryE:
	.quad	0
	.quad	_ZTIN4asio6detail15system_categoryE
	.quad	_ZN4asio6detail15system_categoryD1Ev
	.quad	_ZN4asio6detail15system_categoryD0Ev
	.quad	_ZNK4asio6detail15system_category4nameEv
	.quad	_ZNKSt3_V214error_category10_M_messageB5cxx11Ei
	.quad	_ZNK4asio6detail15system_category7messageB5cxx11Ei
	.quad	_ZNKSt3_V214error_category23default_error_conditionEi
	.quad	_ZNKSt3_V214error_category10equivalentEiRKSt15error_condition
	.quad	_ZNKSt3_V214error_category10equivalentERKSt10error_codei
	.weak	_ZTVN4asio5error6detail14netdb_categoryE
	.section	.data.rel.ro._ZTVN4asio5error6detail14netdb_categoryE,"awG",@progbits,_ZTVN4asio5error6detail14netdb_categoryE,comdat
	.align 8
	.type	_ZTVN4asio5error6detail14netdb_categoryE, @object
	.size	_ZTVN4asio5error6detail14netdb_categoryE, 80
_ZTVN4asio5error6detail14netdb_categoryE:
	.quad	0
	.quad	_ZTIN4asio5error6detail14netdb_categoryE
	.quad	_ZN4asio5error6detail14netdb_categoryD1Ev
	.quad	_ZN4asio5error6detail14netdb_categoryD0Ev
	.quad	_ZNK4asio5error6detail14netdb_category4nameEv
	.quad	_ZNKSt3_V214error_category10_M_messageB5cxx11Ei
	.quad	_ZNK4asio5error6detail14netdb_category7messageB5cxx11Ei
	.quad	_ZNKSt3_V214error_category23default_error_conditionEi
	.quad	_ZNKSt3_V214error_category10equivalentEiRKSt15error_condition
	.quad	_ZNKSt3_V214error_category10equivalentERKSt10error_codei
	.weak	_ZTVN4asio5error6detail17addrinfo_categoryE
	.section	.data.rel.ro._ZTVN4asio5error6detail17addrinfo_categoryE,"awG",@progbits,_ZTVN4asio5error6detail17addrinfo_categoryE,comdat
	.align 8
	.type	_ZTVN4asio5error6detail17addrinfo_categoryE, @object
	.size	_ZTVN4asio5error6detail17addrinfo_categoryE, 80
_ZTVN4asio5error6detail17addrinfo_categoryE:
	.quad	0
	.quad	_ZTIN4asio5error6detail17addrinfo_categoryE
	.quad	_ZN4asio5error6detail17addrinfo_categoryD1Ev
	.quad	_ZN4asio5error6detail17addrinfo_categoryD0Ev
	.quad	_ZNK4asio5error6detail17addrinfo_category4nameEv
	.quad	_ZNKSt3_V214error_category10_M_messageB5cxx11Ei
	.quad	_ZNK4asio5error6detail17addrinfo_category7messageB5cxx11Ei
	.quad	_ZNKSt3_V214error_category23default_error_conditionEi
	.quad	_ZNKSt3_V214error_category10equivalentEiRKSt15error_condition
	.quad	_ZNKSt3_V214error_category10equivalentERKSt10error_codei
	.weak	_ZTVN4asio5error6detail13misc_categoryE
	.section	.data.rel.ro._ZTVN4asio5error6detail13misc_categoryE,"awG",@progbits,_ZTVN4asio5error6detail13misc_categoryE,comdat
	.align 8
	.type	_ZTVN4asio5error6detail13misc_categoryE, @object
	.size	_ZTVN4asio5error6detail13misc_categoryE, 80
_ZTVN4asio5error6detail13misc_categoryE:
	.quad	0
	.quad	_ZTIN4asio5error6detail13misc_categoryE
	.quad	_ZN4asio5error6detail13misc_categoryD1Ev
	.quad	_ZN4asio5error6detail13misc_categoryD0Ev
	.quad	_ZNK4asio5error6detail13misc_category4nameEv
	.quad	_ZNKSt3_V214error_category10_M_messageB5cxx11Ei
	.quad	_ZNK4asio5error6detail13misc_category7messageB5cxx11Ei
	.quad	_ZNKSt3_V214error_category23default_error_conditionEi
	.quad	_ZNKSt3_V214error_category10equivalentEiRKSt15error_condition
	.quad	_ZNKSt3_V214error_category10equivalentERKSt10error_codei
	.weak	_ZTVN7asiopal13IAsyncChannelE
	.section	.data.rel.ro._ZTVN7asiopal13IAsyncChannelE,"awG",@progbits,_ZTVN7asiopal13IAsyncChannelE,comdat
	.align 8
	.type	_ZTVN7asiopal13IAsyncChannelE, @object
	.size	_ZTVN7asiopal13IAsyncChannelE, 56
_ZTVN7asiopal13IAsyncChannelE:
	.quad	0
	.quad	_ZTIN7asiopal13IAsyncChannelE
	.quad	0
	.quad	0
	.quad	__cxa_pure_virtual
	.quad	__cxa_pure_virtual
	.quad	__cxa_pure_virtual
	.weak	_ZTVN7asiopal13SocketChannelE
	.section	.data.rel.ro._ZTVN7asiopal13SocketChannelE,"awG",@progbits,_ZTVN7asiopal13SocketChannelE,comdat
	.align 8
	.type	_ZTVN7asiopal13SocketChannelE, @object
	.size	_ZTVN7asiopal13SocketChannelE, 56
_ZTVN7asiopal13SocketChannelE:
	.quad	0
	.quad	_ZTIN7asiopal13SocketChannelE
	.quad	_ZN7asiopal13SocketChannelD1Ev
	.quad	_ZN7asiopal13SocketChannelD0Ev
	.quad	_ZN7asiopal13SocketChannel13BeginReadImplEN7openpal6WSliceE
	.quad	_ZN7asiopal13SocketChannel14BeginWriteImplERKN7openpal6RSliceE
	.quad	_ZN7asiopal13SocketChannel12ShutdownImplEv
	.weak	_ZN4asio6detail15keyword_tss_ptrINS0_10call_stackINS0_14strand_service11strand_implEhE7contextEE6value_E
	.section	.tbss._ZN4asio6detail15keyword_tss_ptrINS0_10call_stackINS0_14strand_service11strand_implEhE7contextEE6value_E,"awTG",@nobits,_ZN4asio6detail15keyword_tss_ptrINS0_10call_stackINS0_14strand_service11strand_implEhE7contextEE6value_E,comdat
	.align 8
	.type	_ZN4asio6detail15keyword_tss_ptrINS0_10call_stackINS0_14strand_service11strand_implEhE7contextEE6value_E, @gnu_unique_object
	.size	_ZN4asio6detail15keyword_tss_ptrINS0_10call_stackINS0_14strand_service11strand_implEhE7contextEE6value_E, 8
_ZN4asio6detail15keyword_tss_ptrINS0_10call_stackINS0_14strand_service11strand_implEhE7contextEE6value_E:
	.zero	8
	.weak	_ZGVZN4asio5error17get_misc_categoryEvE8instance
	.section	.bss._ZGVZN4asio5error17get_misc_categoryEvE8instance,"awG",@nobits,_ZGVZN4asio5error17get_misc_categoryEvE8instance,comdat
	.align 8
	.type	_ZGVZN4asio5error17get_misc_categoryEvE8instance, @gnu_unique_object
	.size	_ZGVZN4asio5error17get_misc_categoryEvE8instance, 8
_ZGVZN4asio5error17get_misc_categoryEvE8instance:
	.zero	8
	.weak	_ZZN4asio5error17get_misc_categoryEvE8instance
	.section	.data.rel._ZZN4asio5error17get_misc_categoryEvE8instance,"awG",@progbits,_ZZN4asio5error17get_misc_categoryEvE8instance,comdat
	.align 8
	.type	_ZZN4asio5error17get_misc_categoryEvE8instance, @gnu_unique_object
	.size	_ZZN4asio5error17get_misc_categoryEvE8instance, 8
_ZZN4asio5error17get_misc_categoryEvE8instance:
	.quad	_ZTVN4asio5error6detail13misc_categoryE+16
	.weak	_ZGVZN4asio5error21get_addrinfo_categoryEvE8instance
	.section	.bss._ZGVZN4asio5error21get_addrinfo_categoryEvE8instance,"awG",@nobits,_ZGVZN4asio5error21get_addrinfo_categoryEvE8instance,comdat
	.align 8
	.type	_ZGVZN4asio5error21get_addrinfo_categoryEvE8instance, @gnu_unique_object
	.size	_ZGVZN4asio5error21get_addrinfo_categoryEvE8instance, 8
_ZGVZN4asio5error21get_addrinfo_categoryEvE8instance:
	.zero	8
	.weak	_ZZN4asio5error21get_addrinfo_categoryEvE8instance
	.section	.data.rel._ZZN4asio5error21get_addrinfo_categoryEvE8instance,"awG",@progbits,_ZZN4asio5error21get_addrinfo_categoryEvE8instance,comdat
	.align 8
	.type	_ZZN4asio5error21get_addrinfo_categoryEvE8instance, @gnu_unique_object
	.size	_ZZN4asio5error21get_addrinfo_categoryEvE8instance, 8
_ZZN4asio5error21get_addrinfo_categoryEvE8instance:
	.quad	_ZTVN4asio5error6detail17addrinfo_categoryE+16
	.weak	_ZGVZN4asio5error18get_netdb_categoryEvE8instance
	.section	.bss._ZGVZN4asio5error18get_netdb_categoryEvE8instance,"awG",@nobits,_ZGVZN4asio5error18get_netdb_categoryEvE8instance,comdat
	.align 8
	.type	_ZGVZN4asio5error18get_netdb_categoryEvE8instance, @gnu_unique_object
	.size	_ZGVZN4asio5error18get_netdb_categoryEvE8instance, 8
_ZGVZN4asio5error18get_netdb_categoryEvE8instance:
	.zero	8
	.weak	_ZZN4asio5error18get_netdb_categoryEvE8instance
	.section	.data.rel._ZZN4asio5error18get_netdb_categoryEvE8instance,"awG",@progbits,_ZZN4asio5error18get_netdb_categoryEvE8instance,comdat
	.align 8
	.type	_ZZN4asio5error18get_netdb_categoryEvE8instance, @gnu_unique_object
	.size	_ZZN4asio5error18get_netdb_categoryEvE8instance, 8
_ZZN4asio5error18get_netdb_categoryEvE8instance:
	.quad	_ZTVN4asio5error6detail14netdb_categoryE+16
	.weak	_ZGVZN4asio15system_categoryEvE8instance
	.section	.bss._ZGVZN4asio15system_categoryEvE8instance,"awG",@nobits,_ZGVZN4asio15system_categoryEvE8instance,comdat
	.align 8
	.type	_ZGVZN4asio15system_categoryEvE8instance, @gnu_unique_object
	.size	_ZGVZN4asio15system_categoryEvE8instance, 8
_ZGVZN4asio15system_categoryEvE8instance:
	.zero	8
	.weak	_ZZN4asio15system_categoryEvE8instance
	.section	.data.rel._ZZN4asio15system_categoryEvE8instance,"awG",@progbits,_ZZN4asio15system_categoryEvE8instance,comdat
	.align 8
	.type	_ZZN4asio15system_categoryEvE8instance, @gnu_unique_object
	.size	_ZZN4asio15system_categoryEvE8instance, 8
_ZZN4asio15system_categoryEvE8instance:
	.quad	_ZTVN4asio6detail15system_categoryE+16
	.weak	_ZN4asio6detail15keyword_tss_ptrINS0_10call_stackINS0_15task_io_serviceENS0_27task_io_service_thread_infoEE7contextEE6value_E
	.section	.tbss._ZN4asio6detail15keyword_tss_ptrINS0_10call_stackINS0_15task_io_serviceENS0_27task_io_service_thread_infoEE7contextEE6value_E,"awTG",@nobits,_ZN4asio6detail15keyword_tss_ptrINS0_10call_stackINS0_15task_io_serviceENS0_27task_io_service_thread_infoEE7contextEE6value_E,comdat
	.align 8
	.type	_ZN4asio6detail15keyword_tss_ptrINS0_10call_stackINS0_15task_io_serviceENS0_27task_io_service_thread_infoEE7contextEE6value_E, @gnu_unique_object
	.size	_ZN4asio6detail15keyword_tss_ptrINS0_10call_stackINS0_15task_io_serviceENS0_27task_io_service_thread_infoEE7contextEE6value_E, 8
_ZN4asio6detail15keyword_tss_ptrINS0_10call_stackINS0_15task_io_serviceENS0_27task_io_service_thread_infoEE7contextEE6value_E:
	.zero	8
	.section	.rodata.cst16,"aM",@progbits,16
	.align 16
.LC7:
	.quad	8028075772644520015
	.quad	7310593917846626414
	.align 16
.LC9:
	.quad	2334381286471394643
	.quad	7959390400869068654
	.align 16
.LC10:
	.quad	8367816086596579155
	.quad	2338616625292734585
	.align 16
.LC11:
	.quad	8295758535554262384
	.quad	7234316411285303413
	.align 16
.LC12:
	.quad	7234013753529430881
	.quad	8243030355803531634
	.align 16
.LC13:
	.quad	8390045716486254408
	.quad	2891421386351273504
	.align 16
.LC14:
	.quad	8245924292133464096
	.quad	2982920523499009129
	.align 16
.LC15:
	.quad	7526769937477431150
	.quad	8532478930943832687
	.align 16
.LC16:
	.quad	2340027324477221221
	.quad	7020021577750243169
	.align 16
.LC17:
	.quad	8243123821706831956
	.quad	7809653110584451193
	.align 16
.LC18:
	.quad	2338623170819155049
	.quad	2338324160631043177
	.align 16
.LC19:
	.quad	7311138144931573614
	.quad	7019250824563089696
	.align 16
.LC20:
	.quad	7309955097514876993
	.quad	7809911847770287971
	.align 16
.LC21:
	.quad	2338053693894893669
	.quad	7234314212361855855
	.align 16
.LC22:
	.quad	2334956330985808928
	.quad	7310293695322153316
	.align 16
.LC23:
	.quad	8387231026764149601
	.quad	8245935278387126884
	.align 16
.LC24:
	.quad	2338615488418245701
	.quad	7959390400869068654
	.align 16
.LC25:
	.quad	7166182912791242836
	.quad	7214892426067994994
	.align 16
.LC26:
	.quad	2338616625293649263
	.quad	8031165433303558502
	.align 16
.LC27:
	.quad	7810775711721485344
	.quad	7812726531955123045
	.align 16
.LC28:
	.quad	2840764630494639203
	.quad	8387236734590918771
	.weak	__cxa_pure_virtual
	.hidden	DW.ref.__gxx_personality_v0
	.weak	DW.ref.__gxx_personality_v0
	.section	.data.rel.local.DW.ref.__gxx_personality_v0,"awG",@progbits,DW.ref.__gxx_personality_v0,comdat
	.align 8
	.type	DW.ref.__gxx_personality_v0, @object
	.size	DW.ref.__gxx_personality_v0, 8
DW.ref.__gxx_personality_v0:
	.quad	__gxx_personality_v0
	.hidden	__dso_handle
	.globl	__gxx_personality_v0
	.ident	"GCC: (Debian 15.2.0-4) 15.2.0"
	.section	.note.GNU-stack,"",@progbits
