	.file	"TCPClient.cpp"
	.text
	.section	.rodata._ZNK4asio6detail15system_category4nameEv.str1.1,"aMS",@progbits,1
.LC0:
	.string	"asio.system"
	.section	.text._ZNK4asio6detail15system_category4nameEv,"axG",@progbits,_ZNK4asio6detail15system_category4nameEv,comdat
	.align 2
	.p2align 4
	.weak	_ZNK4asio6detail15system_category4nameEv
	.type	_ZNK4asio6detail15system_category4nameEv, @function
_ZNK4asio6detail15system_category4nameEv:
.LFB2278:
	.cfi_startproc
	leaq	.LC0(%rip), %rax
	ret
	.cfi_endproc
.LFE2278:
	.size	_ZNK4asio6detail15system_category4nameEv, .-_ZNK4asio6detail15system_category4nameEv
	.section	.rodata._ZNK4asio5error6detail14netdb_category4nameEv.str1.1,"aMS",@progbits,1
.LC1:
	.string	"asio.netdb"
	.section	.text._ZNK4asio5error6detail14netdb_category4nameEv,"axG",@progbits,_ZNK4asio5error6detail14netdb_category4nameEv,comdat
	.align 2
	.p2align 4
	.weak	_ZNK4asio5error6detail14netdb_category4nameEv
	.type	_ZNK4asio5error6detail14netdb_category4nameEv, @function
_ZNK4asio5error6detail14netdb_category4nameEv:
.LFB2322:
	.cfi_startproc
	leaq	.LC1(%rip), %rax
	ret
	.cfi_endproc
.LFE2322:
	.size	_ZNK4asio5error6detail14netdb_category4nameEv, .-_ZNK4asio5error6detail14netdb_category4nameEv
	.section	.rodata._ZNK4asio5error6detail17addrinfo_category4nameEv.str1.1,"aMS",@progbits,1
.LC2:
	.string	"asio.addrinfo"
	.section	.text._ZNK4asio5error6detail17addrinfo_category4nameEv,"axG",@progbits,_ZNK4asio5error6detail17addrinfo_category4nameEv,comdat
	.align 2
	.p2align 4
	.weak	_ZNK4asio5error6detail17addrinfo_category4nameEv
	.type	_ZNK4asio5error6detail17addrinfo_category4nameEv, @function
_ZNK4asio5error6detail17addrinfo_category4nameEv:
.LFB2332:
	.cfi_startproc
	leaq	.LC2(%rip), %rax
	ret
	.cfi_endproc
.LFE2332:
	.size	_ZNK4asio5error6detail17addrinfo_category4nameEv, .-_ZNK4asio5error6detail17addrinfo_category4nameEv
	.section	.rodata._ZNK4asio5error6detail13misc_category4nameEv.str1.1,"aMS",@progbits,1
.LC3:
	.string	"asio.misc"
	.section	.text._ZNK4asio5error6detail13misc_category4nameEv,"axG",@progbits,_ZNK4asio5error6detail13misc_category4nameEv,comdat
	.align 2
	.p2align 4
	.weak	_ZNK4asio5error6detail13misc_category4nameEv
	.type	_ZNK4asio5error6detail13misc_category4nameEv, @function
_ZNK4asio5error6detail13misc_category4nameEv:
.LFB2342:
	.cfi_startproc
	leaq	.LC3(%rip), %rax
	ret
	.cfi_endproc
.LFE2342:
	.size	_ZNK4asio5error6detail13misc_category4nameEv, .-_ZNK4asio5error6detail13misc_category4nameEv
	.section	.text._ZN4asio10io_service7service12fork_serviceENS0_10fork_eventE,"axG",@progbits,_ZN4asio10io_service7service12fork_serviceENS0_10fork_eventE,comdat
	.align 2
	.p2align 4
	.weak	_ZN4asio10io_service7service12fork_serviceENS0_10fork_eventE
	.type	_ZN4asio10io_service7service12fork_serviceENS0_10fork_eventE, @function
_ZN4asio10io_service7service12fork_serviceENS0_10fork_eventE:
.LFB3347:
	.cfi_startproc
	ret
	.cfi_endproc
.LFE3347:
	.size	_ZN4asio10io_service7service12fork_serviceENS0_10fork_eventE, .-_ZN4asio10io_service7service12fork_serviceENS0_10fork_eventE
	.section	.text._ZNSt15_Sp_counted_ptrIPSt6vectorIN4asio2ip20basic_resolver_entryINS2_3tcpEEESaIS5_EELN9__gnu_cxx12_Lock_policyE2EED2Ev,"axG",@progbits,_ZNSt15_Sp_counted_ptrIPSt6vectorIN4asio2ip20basic_resolver_entryINS2_3tcpEEESaIS5_EELN9__gnu_cxx12_Lock_policyE2EED5Ev,comdat
	.align 2
	.p2align 4
	.weak	_ZNSt15_Sp_counted_ptrIPSt6vectorIN4asio2ip20basic_resolver_entryINS2_3tcpEEESaIS5_EELN9__gnu_cxx12_Lock_policyE2EED2Ev
	.type	_ZNSt15_Sp_counted_ptrIPSt6vectorIN4asio2ip20basic_resolver_entryINS2_3tcpEEESaIS5_EELN9__gnu_cxx12_Lock_policyE2EED2Ev, @function
_ZNSt15_Sp_counted_ptrIPSt6vectorIN4asio2ip20basic_resolver_entryINS2_3tcpEEESaIS5_EELN9__gnu_cxx12_Lock_policyE2EED2Ev:
.LFB10117:
	.cfi_startproc
	ret
	.cfi_endproc
.LFE10117:
	.size	_ZNSt15_Sp_counted_ptrIPSt6vectorIN4asio2ip20basic_resolver_entryINS2_3tcpEEESaIS5_EELN9__gnu_cxx12_Lock_policyE2EED2Ev, .-_ZNSt15_Sp_counted_ptrIPSt6vectorIN4asio2ip20basic_resolver_entryINS2_3tcpEEESaIS5_EELN9__gnu_cxx12_Lock_policyE2EED2Ev
	.weak	_ZNSt15_Sp_counted_ptrIPSt6vectorIN4asio2ip20basic_resolver_entryINS2_3tcpEEESaIS5_EELN9__gnu_cxx12_Lock_policyE2EED1Ev
	.set	_ZNSt15_Sp_counted_ptrIPSt6vectorIN4asio2ip20basic_resolver_entryINS2_3tcpEEESaIS5_EELN9__gnu_cxx12_Lock_policyE2EED1Ev,_ZNSt15_Sp_counted_ptrIPSt6vectorIN4asio2ip20basic_resolver_entryINS2_3tcpEEESaIS5_EELN9__gnu_cxx12_Lock_policyE2EED2Ev
	.section	.text._ZN4asio6detail12posix_thread4funcINS0_21resolver_service_base22work_io_service_runnerEED2Ev,"axG",@progbits,_ZN4asio6detail12posix_thread4funcINS0_21resolver_service_base22work_io_service_runnerEED5Ev,comdat
	.align 2
	.p2align 4
	.weak	_ZN4asio6detail12posix_thread4funcINS0_21resolver_service_base22work_io_service_runnerEED2Ev
	.type	_ZN4asio6detail12posix_thread4funcINS0_21resolver_service_base22work_io_service_runnerEED2Ev, @function
_ZN4asio6detail12posix_thread4funcINS0_21resolver_service_base22work_io_service_runnerEED2Ev:
.LFB10121:
	.cfi_startproc
	ret
	.cfi_endproc
.LFE10121:
	.size	_ZN4asio6detail12posix_thread4funcINS0_21resolver_service_base22work_io_service_runnerEED2Ev, .-_ZN4asio6detail12posix_thread4funcINS0_21resolver_service_base22work_io_service_runnerEED2Ev
	.weak	_ZN4asio6detail12posix_thread4funcINS0_21resolver_service_base22work_io_service_runnerEED1Ev
	.set	_ZN4asio6detail12posix_thread4funcINS0_21resolver_service_base22work_io_service_runnerEED1Ev,_ZN4asio6detail12posix_thread4funcINS0_21resolver_service_base22work_io_service_runnerEED2Ev
	.section	.text._ZN4asio21stream_socket_serviceINS_2ip3tcpEED2Ev,"axG",@progbits,_ZN4asio21stream_socket_serviceINS_2ip3tcpEED5Ev,comdat
	.align 2
	.p2align 4
	.weak	_ZN4asio21stream_socket_serviceINS_2ip3tcpEED2Ev
	.type	_ZN4asio21stream_socket_serviceINS_2ip3tcpEED2Ev, @function
_ZN4asio21stream_socket_serviceINS_2ip3tcpEED2Ev:
.LFB10125:
	.cfi_startproc
	ret
	.cfi_endproc
.LFE10125:
	.size	_ZN4asio21stream_socket_serviceINS_2ip3tcpEED2Ev, .-_ZN4asio21stream_socket_serviceINS_2ip3tcpEED2Ev
	.weak	_ZN4asio21stream_socket_serviceINS_2ip3tcpEED1Ev
	.set	_ZN4asio21stream_socket_serviceINS_2ip3tcpEED1Ev,_ZN4asio21stream_socket_serviceINS_2ip3tcpEED2Ev
	.section	.text._ZNSt15_Sp_counted_ptrIPSt6vectorIN4asio2ip20basic_resolver_entryINS2_3tcpEEESaIS5_EELN9__gnu_cxx12_Lock_policyE2EE14_M_get_deleterERKSt9type_info,"axG",@progbits,_ZNSt15_Sp_counted_ptrIPSt6vectorIN4asio2ip20basic_resolver_entryINS2_3tcpEEESaIS5_EELN9__gnu_cxx12_Lock_policyE2EE14_M_get_deleterERKSt9type_info,comdat
	.align 2
	.p2align 4
	.weak	_ZNSt15_Sp_counted_ptrIPSt6vectorIN4asio2ip20basic_resolver_entryINS2_3tcpEEESaIS5_EELN9__gnu_cxx12_Lock_policyE2EE14_M_get_deleterERKSt9type_info
	.type	_ZNSt15_Sp_counted_ptrIPSt6vectorIN4asio2ip20basic_resolver_entryINS2_3tcpEEESaIS5_EELN9__gnu_cxx12_Lock_policyE2EE14_M_get_deleterERKSt9type_info, @function
_ZNSt15_Sp_counted_ptrIPSt6vectorIN4asio2ip20basic_resolver_entryINS2_3tcpEEESaIS5_EELN9__gnu_cxx12_Lock_policyE2EE14_M_get_deleterERKSt9type_info:
.LFB10180:
	.cfi_startproc
	xorl	%eax, %eax
	ret
	.cfi_endproc
.LFE10180:
	.size	_ZNSt15_Sp_counted_ptrIPSt6vectorIN4asio2ip20basic_resolver_entryINS2_3tcpEEESaIS5_EELN9__gnu_cxx12_Lock_policyE2EE14_M_get_deleterERKSt9type_info, .-_ZNSt15_Sp_counted_ptrIPSt6vectorIN4asio2ip20basic_resolver_entryINS2_3tcpEEESaIS5_EELN9__gnu_cxx12_Lock_policyE2EE14_M_get_deleterERKSt9type_info
	.section	.text._ZNSt19_Sp_counted_deleterIPvN4asio6detail10socket_ops12noop_deleterESaIvELN9__gnu_cxx12_Lock_policyE2EED2Ev,"axG",@progbits,_ZNSt19_Sp_counted_deleterIPvN4asio6detail10socket_ops12noop_deleterESaIvELN9__gnu_cxx12_Lock_policyE2EED5Ev,comdat
	.align 2
	.p2align 4
	.weak	_ZNSt19_Sp_counted_deleterIPvN4asio6detail10socket_ops12noop_deleterESaIvELN9__gnu_cxx12_Lock_policyE2EED2Ev
	.type	_ZNSt19_Sp_counted_deleterIPvN4asio6detail10socket_ops12noop_deleterESaIvELN9__gnu_cxx12_Lock_policyE2EED2Ev, @function
_ZNSt19_Sp_counted_deleterIPvN4asio6detail10socket_ops12noop_deleterESaIvELN9__gnu_cxx12_Lock_policyE2EED2Ev:
.LFB10217:
	.cfi_startproc
	ret
	.cfi_endproc
.LFE10217:
	.size	_ZNSt19_Sp_counted_deleterIPvN4asio6detail10socket_ops12noop_deleterESaIvELN9__gnu_cxx12_Lock_policyE2EED2Ev, .-_ZNSt19_Sp_counted_deleterIPvN4asio6detail10socket_ops12noop_deleterESaIvELN9__gnu_cxx12_Lock_policyE2EED2Ev
	.weak	_ZNSt19_Sp_counted_deleterIPvN4asio6detail10socket_ops12noop_deleterESaIvELN9__gnu_cxx12_Lock_policyE2EED1Ev
	.set	_ZNSt19_Sp_counted_deleterIPvN4asio6detail10socket_ops12noop_deleterESaIvELN9__gnu_cxx12_Lock_policyE2EED1Ev,_ZNSt19_Sp_counted_deleterIPvN4asio6detail10socket_ops12noop_deleterESaIvELN9__gnu_cxx12_Lock_policyE2EED2Ev
	.section	.text._ZNSt19_Sp_counted_deleterIPvN4asio6detail10socket_ops12noop_deleterESaIvELN9__gnu_cxx12_Lock_policyE2EE10_M_disposeEv,"axG",@progbits,_ZNSt19_Sp_counted_deleterIPvN4asio6detail10socket_ops12noop_deleterESaIvELN9__gnu_cxx12_Lock_policyE2EE10_M_disposeEv,comdat
	.align 2
	.p2align 4
	.weak	_ZNSt19_Sp_counted_deleterIPvN4asio6detail10socket_ops12noop_deleterESaIvELN9__gnu_cxx12_Lock_policyE2EE10_M_disposeEv
	.type	_ZNSt19_Sp_counted_deleterIPvN4asio6detail10socket_ops12noop_deleterESaIvELN9__gnu_cxx12_Lock_policyE2EE10_M_disposeEv, @function
_ZNSt19_Sp_counted_deleterIPvN4asio6detail10socket_ops12noop_deleterESaIvELN9__gnu_cxx12_Lock_policyE2EE10_M_disposeEv:
.LFB10220:
	.cfi_startproc
	ret
	.cfi_endproc
.LFE10220:
	.size	_ZNSt19_Sp_counted_deleterIPvN4asio6detail10socket_ops12noop_deleterESaIvELN9__gnu_cxx12_Lock_policyE2EE10_M_disposeEv, .-_ZNSt19_Sp_counted_deleterIPvN4asio6detail10socket_ops12noop_deleterESaIvELN9__gnu_cxx12_Lock_policyE2EE10_M_disposeEv
	.section	.text._ZN4asio21stream_socket_serviceINS_2ip3tcpEE16shutdown_serviceEv,"axG",@progbits,_ZN4asio21stream_socket_serviceINS_2ip3tcpEE16shutdown_serviceEv,comdat
	.align 2
	.p2align 4
	.weak	_ZN4asio21stream_socket_serviceINS_2ip3tcpEE16shutdown_serviceEv
	.type	_ZN4asio21stream_socket_serviceINS_2ip3tcpEE16shutdown_serviceEv, @function
_ZN4asio21stream_socket_serviceINS_2ip3tcpEE16shutdown_serviceEv:
.LFB10224:
	.cfi_startproc
	ret
	.cfi_endproc
.LFE10224:
	.size	_ZN4asio21stream_socket_serviceINS_2ip3tcpEE16shutdown_serviceEv, .-_ZN4asio21stream_socket_serviceINS_2ip3tcpEE16shutdown_serviceEv
	.section	.text._ZN4asio6detail12posix_thread4funcINS0_21resolver_service_base22work_io_service_runnerEED0Ev,"axG",@progbits,_ZN4asio6detail12posix_thread4funcINS0_21resolver_service_base22work_io_service_runnerEED5Ev,comdat
	.align 2
	.p2align 4
	.weak	_ZN4asio6detail12posix_thread4funcINS0_21resolver_service_base22work_io_service_runnerEED0Ev
	.type	_ZN4asio6detail12posix_thread4funcINS0_21resolver_service_base22work_io_service_runnerEED0Ev, @function
_ZN4asio6detail12posix_thread4funcINS0_21resolver_service_base22work_io_service_runnerEED0Ev:
.LFB10123:
	.cfi_startproc
	movl	$16, %esi
	jmp	_ZdlPvm@PLT
	.cfi_endproc
.LFE10123:
	.size	_ZN4asio6detail12posix_thread4funcINS0_21resolver_service_base22work_io_service_runnerEED0Ev, .-_ZN4asio6detail12posix_thread4funcINS0_21resolver_service_base22work_io_service_runnerEED0Ev
	.section	.text._ZNSt15_Sp_counted_ptrIPSt6vectorIN4asio2ip20basic_resolver_entryINS2_3tcpEEESaIS5_EELN9__gnu_cxx12_Lock_policyE2EED0Ev,"axG",@progbits,_ZNSt15_Sp_counted_ptrIPSt6vectorIN4asio2ip20basic_resolver_entryINS2_3tcpEEESaIS5_EELN9__gnu_cxx12_Lock_policyE2EED5Ev,comdat
	.align 2
	.p2align 4
	.weak	_ZNSt15_Sp_counted_ptrIPSt6vectorIN4asio2ip20basic_resolver_entryINS2_3tcpEEESaIS5_EELN9__gnu_cxx12_Lock_policyE2EED0Ev
	.type	_ZNSt15_Sp_counted_ptrIPSt6vectorIN4asio2ip20basic_resolver_entryINS2_3tcpEEESaIS5_EELN9__gnu_cxx12_Lock_policyE2EED0Ev, @function
_ZNSt15_Sp_counted_ptrIPSt6vectorIN4asio2ip20basic_resolver_entryINS2_3tcpEEESaIS5_EELN9__gnu_cxx12_Lock_policyE2EED0Ev:
.LFB10119:
	.cfi_startproc
	movl	$24, %esi
	jmp	_ZdlPvm@PLT
	.cfi_endproc
.LFE10119:
	.size	_ZNSt15_Sp_counted_ptrIPSt6vectorIN4asio2ip20basic_resolver_entryINS2_3tcpEEESaIS5_EELN9__gnu_cxx12_Lock_policyE2EED0Ev, .-_ZNSt15_Sp_counted_ptrIPSt6vectorIN4asio2ip20basic_resolver_entryINS2_3tcpEEESaIS5_EELN9__gnu_cxx12_Lock_policyE2EED0Ev
	.section	.text._ZNSt15_Sp_counted_ptrIPSt6vectorIN4asio2ip20basic_resolver_entryINS2_3tcpEEESaIS5_EELN9__gnu_cxx12_Lock_policyE2EE10_M_destroyEv,"axG",@progbits,_ZNSt15_Sp_counted_ptrIPSt6vectorIN4asio2ip20basic_resolver_entryINS2_3tcpEEESaIS5_EELN9__gnu_cxx12_Lock_policyE2EE10_M_destroyEv,comdat
	.align 2
	.p2align 4
	.weak	_ZNSt15_Sp_counted_ptrIPSt6vectorIN4asio2ip20basic_resolver_entryINS2_3tcpEEESaIS5_EELN9__gnu_cxx12_Lock_policyE2EE10_M_destroyEv
	.type	_ZNSt15_Sp_counted_ptrIPSt6vectorIN4asio2ip20basic_resolver_entryINS2_3tcpEEESaIS5_EELN9__gnu_cxx12_Lock_policyE2EE10_M_destroyEv, @function
_ZNSt15_Sp_counted_ptrIPSt6vectorIN4asio2ip20basic_resolver_entryINS2_3tcpEEESaIS5_EELN9__gnu_cxx12_Lock_policyE2EE10_M_destroyEv:
.LFB10179:
	.cfi_startproc
	movl	$24, %esi
	jmp	_ZdlPvm@PLT
	.cfi_endproc
.LFE10179:
	.size	_ZNSt15_Sp_counted_ptrIPSt6vectorIN4asio2ip20basic_resolver_entryINS2_3tcpEEESaIS5_EELN9__gnu_cxx12_Lock_policyE2EE10_M_destroyEv, .-_ZNSt15_Sp_counted_ptrIPSt6vectorIN4asio2ip20basic_resolver_entryINS2_3tcpEEESaIS5_EELN9__gnu_cxx12_Lock_policyE2EE10_M_destroyEv
	.section	.text._ZNSt19_Sp_counted_deleterIPvN4asio6detail10socket_ops12noop_deleterESaIvELN9__gnu_cxx12_Lock_policyE2EED0Ev,"axG",@progbits,_ZNSt19_Sp_counted_deleterIPvN4asio6detail10socket_ops12noop_deleterESaIvELN9__gnu_cxx12_Lock_policyE2EED5Ev,comdat
	.align 2
	.p2align 4
	.weak	_ZNSt19_Sp_counted_deleterIPvN4asio6detail10socket_ops12noop_deleterESaIvELN9__gnu_cxx12_Lock_policyE2EED0Ev
	.type	_ZNSt19_Sp_counted_deleterIPvN4asio6detail10socket_ops12noop_deleterESaIvELN9__gnu_cxx12_Lock_policyE2EED0Ev, @function
_ZNSt19_Sp_counted_deleterIPvN4asio6detail10socket_ops12noop_deleterESaIvELN9__gnu_cxx12_Lock_policyE2EED0Ev:
.LFB10219:
	.cfi_startproc
	movl	$24, %esi
	jmp	_ZdlPvm@PLT
	.cfi_endproc
.LFE10219:
	.size	_ZNSt19_Sp_counted_deleterIPvN4asio6detail10socket_ops12noop_deleterESaIvELN9__gnu_cxx12_Lock_policyE2EED0Ev, .-_ZNSt19_Sp_counted_deleterIPvN4asio6detail10socket_ops12noop_deleterESaIvELN9__gnu_cxx12_Lock_policyE2EED0Ev
	.section	.text._ZN4asio21stream_socket_serviceINS_2ip3tcpEED0Ev,"axG",@progbits,_ZN4asio21stream_socket_serviceINS_2ip3tcpEED5Ev,comdat
	.align 2
	.p2align 4
	.weak	_ZN4asio21stream_socket_serviceINS_2ip3tcpEED0Ev
	.type	_ZN4asio21stream_socket_serviceINS_2ip3tcpEED0Ev, @function
_ZN4asio21stream_socket_serviceINS_2ip3tcpEED0Ev:
.LFB10127:
	.cfi_startproc
	movl	$48, %esi
	jmp	_ZdlPvm@PLT
	.cfi_endproc
.LFE10127:
	.size	_ZN4asio21stream_socket_serviceINS_2ip3tcpEED0Ev, .-_ZN4asio21stream_socket_serviceINS_2ip3tcpEED0Ev
	.section	.text._ZNSt19_Sp_counted_deleterIPvN4asio6detail10socket_ops12noop_deleterESaIvELN9__gnu_cxx12_Lock_policyE2EE10_M_destroyEv,"axG",@progbits,_ZNSt19_Sp_counted_deleterIPvN4asio6detail10socket_ops12noop_deleterESaIvELN9__gnu_cxx12_Lock_policyE2EE10_M_destroyEv,comdat
	.align 2
	.p2align 4
	.weak	_ZNSt19_Sp_counted_deleterIPvN4asio6detail10socket_ops12noop_deleterESaIvELN9__gnu_cxx12_Lock_policyE2EE10_M_destroyEv
	.type	_ZNSt19_Sp_counted_deleterIPvN4asio6detail10socket_ops12noop_deleterESaIvELN9__gnu_cxx12_Lock_policyE2EE10_M_destroyEv, @function
_ZNSt19_Sp_counted_deleterIPvN4asio6detail10socket_ops12noop_deleterESaIvELN9__gnu_cxx12_Lock_policyE2EE10_M_destroyEv:
.LFB10221:
	.cfi_startproc
	movl	$24, %esi
	jmp	_ZdlPvm@PLT
	.cfi_endproc
.LFE10221:
	.size	_ZNSt19_Sp_counted_deleterIPvN4asio6detail10socket_ops12noop_deleterESaIvELN9__gnu_cxx12_Lock_policyE2EE10_M_destroyEv, .-_ZNSt19_Sp_counted_deleterIPvN4asio6detail10socket_ops12noop_deleterESaIvELN9__gnu_cxx12_Lock_policyE2EE10_M_destroyEv
	.section	.text._ZN4asio6detail15system_categoryD2Ev,"axG",@progbits,_ZN4asio6detail15system_categoryD5Ev,comdat
	.align 2
	.p2align 4
	.weak	_ZN4asio6detail15system_categoryD2Ev
	.type	_ZN4asio6detail15system_categoryD2Ev, @function
_ZN4asio6detail15system_categoryD2Ev:
.LFB2290:
	.cfi_startproc
	movq	_ZTVN4asio6detail15system_categoryE@GOTPCREL(%rip), %rax
	addq	$16, %rax
	movq	%rax, (%rdi)
	jmp	_ZNSt3_V214error_categoryD2Ev@PLT
	.cfi_endproc
.LFE2290:
	.size	_ZN4asio6detail15system_categoryD2Ev, .-_ZN4asio6detail15system_categoryD2Ev
	.weak	_ZN4asio6detail15system_categoryD1Ev
	.set	_ZN4asio6detail15system_categoryD1Ev,_ZN4asio6detail15system_categoryD2Ev
	.section	.text._ZN4asio6detail15system_categoryD0Ev,"axG",@progbits,_ZN4asio6detail15system_categoryD5Ev,comdat
	.align 2
	.p2align 4
	.weak	_ZN4asio6detail15system_categoryD0Ev
	.type	_ZN4asio6detail15system_categoryD0Ev, @function
_ZN4asio6detail15system_categoryD0Ev:
.LFB2292:
	.cfi_startproc
	subq	$24, %rsp
	.cfi_def_cfa_offset 32
	movq	_ZTVN4asio6detail15system_categoryE@GOTPCREL(%rip), %rax
	movq	%rdi, 8(%rsp)
	addq	$16, %rax
	movq	%rax, (%rdi)
	call	_ZNSt3_V214error_categoryD2Ev@PLT
	movq	8(%rsp), %rdi
	movl	$8, %esi
	addq	$24, %rsp
	.cfi_def_cfa_offset 8
	jmp	_ZdlPvm@PLT
	.cfi_endproc
.LFE2292:
	.size	_ZN4asio6detail15system_categoryD0Ev, .-_ZN4asio6detail15system_categoryD0Ev
	.section	.text._ZN4asio5error6detail13misc_categoryD2Ev,"axG",@progbits,_ZN4asio5error6detail13misc_categoryD5Ev,comdat
	.align 2
	.p2align 4
	.weak	_ZN4asio5error6detail13misc_categoryD2Ev
	.type	_ZN4asio5error6detail13misc_categoryD2Ev, @function
_ZN4asio5error6detail13misc_categoryD2Ev:
.LFB2349:
	.cfi_startproc
	movq	_ZTVN4asio5error6detail13misc_categoryE@GOTPCREL(%rip), %rax
	addq	$16, %rax
	movq	%rax, (%rdi)
	jmp	_ZNSt3_V214error_categoryD2Ev@PLT
	.cfi_endproc
.LFE2349:
	.size	_ZN4asio5error6detail13misc_categoryD2Ev, .-_ZN4asio5error6detail13misc_categoryD2Ev
	.weak	_ZN4asio5error6detail13misc_categoryD1Ev
	.set	_ZN4asio5error6detail13misc_categoryD1Ev,_ZN4asio5error6detail13misc_categoryD2Ev
	.section	.text._ZN4asio5error6detail13misc_categoryD0Ev,"axG",@progbits,_ZN4asio5error6detail13misc_categoryD5Ev,comdat
	.align 2
	.p2align 4
	.weak	_ZN4asio5error6detail13misc_categoryD0Ev
	.type	_ZN4asio5error6detail13misc_categoryD0Ev, @function
_ZN4asio5error6detail13misc_categoryD0Ev:
.LFB2351:
	.cfi_startproc
	subq	$24, %rsp
	.cfi_def_cfa_offset 32
	movq	_ZTVN4asio5error6detail13misc_categoryE@GOTPCREL(%rip), %rax
	movq	%rdi, 8(%rsp)
	addq	$16, %rax
	movq	%rax, (%rdi)
	call	_ZNSt3_V214error_categoryD2Ev@PLT
	movq	8(%rsp), %rdi
	movl	$8, %esi
	addq	$24, %rsp
	.cfi_def_cfa_offset 8
	jmp	_ZdlPvm@PLT
	.cfi_endproc
.LFE2351:
	.size	_ZN4asio5error6detail13misc_categoryD0Ev, .-_ZN4asio5error6detail13misc_categoryD0Ev
	.section	.text._ZN4asio5error6detail14netdb_categoryD2Ev,"axG",@progbits,_ZN4asio5error6detail14netdb_categoryD5Ev,comdat
	.align 2
	.p2align 4
	.weak	_ZN4asio5error6detail14netdb_categoryD2Ev
	.type	_ZN4asio5error6detail14netdb_categoryD2Ev, @function
_ZN4asio5error6detail14netdb_categoryD2Ev:
.LFB2329:
	.cfi_startproc
	movq	_ZTVN4asio5error6detail14netdb_categoryE@GOTPCREL(%rip), %rax
	addq	$16, %rax
	movq	%rax, (%rdi)
	jmp	_ZNSt3_V214error_categoryD2Ev@PLT
	.cfi_endproc
.LFE2329:
	.size	_ZN4asio5error6detail14netdb_categoryD2Ev, .-_ZN4asio5error6detail14netdb_categoryD2Ev
	.weak	_ZN4asio5error6detail14netdb_categoryD1Ev
	.set	_ZN4asio5error6detail14netdb_categoryD1Ev,_ZN4asio5error6detail14netdb_categoryD2Ev
	.section	.text._ZN4asio5error6detail14netdb_categoryD0Ev,"axG",@progbits,_ZN4asio5error6detail14netdb_categoryD5Ev,comdat
	.align 2
	.p2align 4
	.weak	_ZN4asio5error6detail14netdb_categoryD0Ev
	.type	_ZN4asio5error6detail14netdb_categoryD0Ev, @function
_ZN4asio5error6detail14netdb_categoryD0Ev:
.LFB2331:
	.cfi_startproc
	subq	$24, %rsp
	.cfi_def_cfa_offset 32
	movq	_ZTVN4asio5error6detail14netdb_categoryE@GOTPCREL(%rip), %rax
	movq	%rdi, 8(%rsp)
	addq	$16, %rax
	movq	%rax, (%rdi)
	call	_ZNSt3_V214error_categoryD2Ev@PLT
	movq	8(%rsp), %rdi
	movl	$8, %esi
	addq	$24, %rsp
	.cfi_def_cfa_offset 8
	jmp	_ZdlPvm@PLT
	.cfi_endproc
.LFE2331:
	.size	_ZN4asio5error6detail14netdb_categoryD0Ev, .-_ZN4asio5error6detail14netdb_categoryD0Ev
	.section	.text._ZN4asio5error6detail17addrinfo_categoryD2Ev,"axG",@progbits,_ZN4asio5error6detail17addrinfo_categoryD5Ev,comdat
	.align 2
	.p2align 4
	.weak	_ZN4asio5error6detail17addrinfo_categoryD2Ev
	.type	_ZN4asio5error6detail17addrinfo_categoryD2Ev, @function
_ZN4asio5error6detail17addrinfo_categoryD2Ev:
.LFB2339:
	.cfi_startproc
	movq	_ZTVN4asio5error6detail17addrinfo_categoryE@GOTPCREL(%rip), %rax
	addq	$16, %rax
	movq	%rax, (%rdi)
	jmp	_ZNSt3_V214error_categoryD2Ev@PLT
	.cfi_endproc
.LFE2339:
	.size	_ZN4asio5error6detail17addrinfo_categoryD2Ev, .-_ZN4asio5error6detail17addrinfo_categoryD2Ev
	.weak	_ZN4asio5error6detail17addrinfo_categoryD1Ev
	.set	_ZN4asio5error6detail17addrinfo_categoryD1Ev,_ZN4asio5error6detail17addrinfo_categoryD2Ev
	.section	.text._ZN4asio5error6detail17addrinfo_categoryD0Ev,"axG",@progbits,_ZN4asio5error6detail17addrinfo_categoryD5Ev,comdat
	.align 2
	.p2align 4
	.weak	_ZN4asio5error6detail17addrinfo_categoryD0Ev
	.type	_ZN4asio5error6detail17addrinfo_categoryD0Ev, @function
_ZN4asio5error6detail17addrinfo_categoryD0Ev:
.LFB2341:
	.cfi_startproc
	subq	$24, %rsp
	.cfi_def_cfa_offset 32
	movq	_ZTVN4asio5error6detail17addrinfo_categoryE@GOTPCREL(%rip), %rax
	movq	%rdi, 8(%rsp)
	addq	$16, %rax
	movq	%rax, (%rdi)
	call	_ZNSt3_V214error_categoryD2Ev@PLT
	movq	8(%rsp), %rdi
	movl	$8, %esi
	addq	$24, %rsp
	.cfi_def_cfa_offset 8
	jmp	_ZdlPvm@PLT
	.cfi_endproc
.LFE2341:
	.size	_ZN4asio5error6detail17addrinfo_categoryD0Ev, .-_ZN4asio5error6detail17addrinfo_categoryD0Ev
	.section	.text._ZN4asio6detail15task_io_service16shutdown_serviceEv,"axG",@progbits,_ZN4asio6detail15task_io_service16shutdown_serviceEv,comdat
	.align 2
	.p2align 4
	.weak	_ZN4asio6detail15task_io_service16shutdown_serviceEv
	.type	_ZN4asio6detail15task_io_service16shutdown_serviceEv, @function
_ZN4asio6detail15task_io_service16shutdown_serviceEv:
.LFB3275:
	.cfi_startproc
	pushq	%r13
	.cfi_def_cfa_offset 16
	.cfi_offset 13, -16
	pushq	%r12
	.cfi_def_cfa_offset 24
	.cfi_offset 12, -24
	pushq	%rbp
	.cfi_def_cfa_offset 32
	.cfi_offset 6, -32
	movq	%rdi, %rbp
	addq	$48, %rdi
	pushq	%rbx
	.cfi_def_cfa_offset 40
	.cfi_offset 3, -40
	leaq	152(%rbp), %r12
	subq	$24, %rsp
	.cfi_def_cfa_offset 64
	call	pthread_mutex_lock@PLT
	movb	$1, 209(%rbp)
	leaq	48(%rbp), %rdi
	call	pthread_mutex_unlock@PLT
.L33:
	movq	192(%rbp), %rax
	testq	%rax, %rax
	je	.L36
	.p2align 5
	.p2align 4
	.p2align 3
.L37:
	movq	%rax, %rbx
	movq	(%rax), %rax
	movq	%rax, 192(%rbp)
	testq	%rax, %rax
	je	.L41
	movq	$0, (%rbx)
	cmpq	%r12, %rbx
	je	.L37
.L35:
	movl	$0, (%rsp)
	movq	8(%rbx), %r13
	call	_ZNSt3_V215system_categoryEv@PLT
	movq	%rsp, %rdx
	xorl	%ecx, %ecx
	movq	%rbx, %rsi
	movq	%rax, 8(%rsp)
	xorl	%edi, %edi
	call	*%r13
	jmp	.L33
	.p2align 4,,10
	.p2align 3
.L41:
	movq	$0, 200(%rbp)
	movq	$0, (%rbx)
	cmpq	%r12, %rbx
	jne	.L35
.L36:
	movq	$0, 144(%rbp)
	addq	$24, %rsp
	.cfi_def_cfa_offset 40
	popq	%rbx
	.cfi_def_cfa_offset 32
	popq	%rbp
	.cfi_def_cfa_offset 24
	popq	%r12
	.cfi_def_cfa_offset 16
	popq	%r13
	.cfi_def_cfa_offset 8
	ret
	.cfi_endproc
.LFE3275:
	.size	_ZN4asio6detail15task_io_service16shutdown_serviceEv, .-_ZN4asio6detail15task_io_service16shutdown_serviceEv
	.section	.text.unlikely,"ax",@progbits
	.type	_ZN4asio6detail15throw_exceptionISt8bad_castEEvRKT_.isra.0, @function
_ZN4asio6detail15throw_exceptionISt8bad_castEEvRKT_.isra.0:
.LFB10301:
	.cfi_startproc
	pushq	%rax
	.cfi_def_cfa_offset 16
	movl	$8, %edi
	call	__cxa_allocate_exception@PLT
	movq	_ZTVSt8bad_cast@GOTPCREL(%rip), %rdx
	movq	_ZTISt8bad_cast@GOTPCREL(%rip), %rsi
	movq	%rax, %rdi
	addq	$16, %rdx
	movq	%rdx, (%rax)
	movq	_ZNSt8bad_castD1Ev@GOTPCREL(%rip), %rdx
	call	__cxa_throw@PLT
	.cfi_endproc
.LFE10301:
	.size	_ZN4asio6detail15throw_exceptionISt8bad_castEEvRKT_.isra.0, .-_ZN4asio6detail15throw_exceptionISt8bad_castEEvRKT_.isra.0
	.section	.rodata.str1.8,"aMS",@progbits,1
	.align 8
.LC4:
	.string	"basic_string: construction from null is not valid"
	.section	.text.unlikely
	.align 2
.LCOLDB5:
	.text
.LHOTB5:
	.align 2
	.p2align 4
	.type	_ZNSt7__cxx1112basic_stringIcSt11char_traitsIcESaIcEEC2EPKcRKS3_.isra.0, @function
_ZNSt7__cxx1112basic_stringIcSt11char_traitsIcESaIcEEC2EPKcRKS3_.isra.0:
.LFB10302:
	.cfi_startproc
	pushq	%r12
	.cfi_def_cfa_offset 16
	.cfi_offset 12, -16
	pushq	%rbp
	.cfi_def_cfa_offset 24
	.cfi_offset 6, -24
	leaq	16(%rdi), %rbp
	pushq	%rbx
	.cfi_def_cfa_offset 32
	.cfi_offset 3, -32
	subq	$32, %rsp
	.cfi_def_cfa_offset 64
	movq	%rbp, (%rdi)
	testq	%rsi, %rsi
	je	.L53
	movq	%rdi, %rbx
	movq	%rsi, %rdi
	movq	%rsi, %r12
	call	strlen@PLT
	movq	%rax, 24(%rsp)
	movq	%rax, %rcx
	cmpq	$15, %rax
	ja	.L55
	cmpq	$1, %rax
	jne	.L48
	movzbl	(%r12), %edx
	movb	%dl, 16(%rbx)
.L49:
	movq	%rax, 8(%rbx)
	movb	$0, 0(%rbp,%rax)
	addq	$32, %rsp
	.cfi_remember_state
	.cfi_def_cfa_offset 32
	popq	%rbx
	.cfi_def_cfa_offset 24
	popq	%rbp
	.cfi_def_cfa_offset 16
	popq	%r12
	.cfi_def_cfa_offset 8
	ret
	.p2align 4,,10
	.p2align 3
.L48:
	.cfi_restore_state
	testq	%rax, %rax
	je	.L49
	jmp	.L47
	.p2align 4,,10
	.p2align 3
.L55:
	leaq	24(%rsp), %rsi
	xorl	%edx, %edx
	movq	%rbx, %rdi
	movq	%rax, 8(%rsp)
	call	_ZNSt7__cxx1112basic_stringIcSt11char_traitsIcESaIcEE9_M_createERmm@PLT
	movq	8(%rsp), %rcx
	movq	%rax, (%rbx)
	movq	%rax, %rbp
	movq	24(%rsp), %rax
	movq	%rax, 16(%rbx)
.L47:
	movq	%rbp, %rdi
	movq	%rcx, %rdx
	movq	%r12, %rsi
	call	memcpy@PLT
	movq	24(%rsp), %rax
	movq	(%rbx), %rbp
	jmp	.L49
	.cfi_endproc
	.section	.text.unlikely
	.cfi_startproc
	.type	_ZNSt7__cxx1112basic_stringIcSt11char_traitsIcESaIcEEC2EPKcRKS3_.isra.0.cold, @function
_ZNSt7__cxx1112basic_stringIcSt11char_traitsIcESaIcEEC2EPKcRKS3_.isra.0.cold:
.LFSB10302:
.L53:
	.cfi_def_cfa_offset 64
	.cfi_offset 3, -32
	.cfi_offset 6, -24
	.cfi_offset 12, -16
	leaq	.LC4(%rip), %rdi
	call	_ZSt19__throw_logic_errorPKc@PLT
	.cfi_endproc
.LFE10302:
	.text
	.size	_ZNSt7__cxx1112basic_stringIcSt11char_traitsIcESaIcEEC2EPKcRKS3_.isra.0, .-_ZNSt7__cxx1112basic_stringIcSt11char_traitsIcESaIcEEC2EPKcRKS3_.isra.0
	.section	.text.unlikely
	.size	_ZNSt7__cxx1112basic_stringIcSt11char_traitsIcESaIcEEC2EPKcRKS3_.isra.0.cold, .-_ZNSt7__cxx1112basic_stringIcSt11char_traitsIcESaIcEEC2EPKcRKS3_.isra.0.cold
.LCOLDE5:
	.text
.LHOTE5:
	.section	.text._ZNSt19_Sp_counted_deleterIPvN4asio6detail10socket_ops12noop_deleterESaIvELN9__gnu_cxx12_Lock_policyE2EE14_M_get_deleterERKSt9type_info,"axG",@progbits,_ZNSt19_Sp_counted_deleterIPvN4asio6detail10socket_ops12noop_deleterESaIvELN9__gnu_cxx12_Lock_policyE2EE14_M_get_deleterERKSt9type_info,comdat
	.align 2
	.p2align 4
	.weak	_ZNSt19_Sp_counted_deleterIPvN4asio6detail10socket_ops12noop_deleterESaIvELN9__gnu_cxx12_Lock_policyE2EE14_M_get_deleterERKSt9type_info
	.type	_ZNSt19_Sp_counted_deleterIPvN4asio6detail10socket_ops12noop_deleterESaIvELN9__gnu_cxx12_Lock_policyE2EE14_M_get_deleterERKSt9type_info, @function
_ZNSt19_Sp_counted_deleterIPvN4asio6detail10socket_ops12noop_deleterESaIvELN9__gnu_cxx12_Lock_policyE2EE14_M_get_deleterERKSt9type_info:
.LFB10222:
	.cfi_startproc
	movq	%rdi, %rcx
	movq	8(%rsi), %rdi
	movq	_ZTSN4asio6detail10socket_ops12noop_deleterE@GOTPCREL(%rip), %rsi
	cmpq	%rsi, %rdi
	je	.L69
	xorl	%edx, %edx
	cmpb	$42, (%rdi)
	je	.L66
	subq	$24, %rsp
	.cfi_def_cfa_offset 32
	movq	%rdx, (%rsp)
	movq	%rcx, 8(%rsp)
	call	strcmp@PLT
	xorl	%edx, %edx
	movq	8(%rsp), %rcx
	testl	%eax, %eax
	jne	.L56
	leaq	16(%rcx), %rdx
.L56:
	movq	%rdx, %rax
	addq	$24, %rsp
	.cfi_def_cfa_offset 8
	ret
	.p2align 4,,10
	.p2align 3
.L69:
	leaq	16(%rcx), %rdx
.L66:
	movq	%rdx, %rax
	ret
	.cfi_endproc
.LFE10222:
	.size	_ZNSt19_Sp_counted_deleterIPvN4asio6detail10socket_ops12noop_deleterESaIvELN9__gnu_cxx12_Lock_policyE2EE14_M_get_deleterERKSt9type_info, .-_ZNSt19_Sp_counted_deleterIPvN4asio6detail10socket_ops12noop_deleterESaIvELN9__gnu_cxx12_Lock_policyE2EE14_M_get_deleterERKSt9type_info
	.section	.text._ZN4asio6detail13epoll_reactorD2Ev,"axG",@progbits,_ZN4asio6detail13epoll_reactorD5Ev,comdat
	.align 2
	.p2align 4
	.weak	_ZN4asio6detail13epoll_reactorD2Ev
	.type	_ZN4asio6detail13epoll_reactorD2Ev, @function
_ZN4asio6detail13epoll_reactorD2Ev:
.LFB3224:
	.cfi_startproc
	.cfi_personality 0x9b,DW.ref.__gxx_personality_v0
	.cfi_lsda 0x1b,.LLSDA3224
	pushq	%r15
	.cfi_def_cfa_offset 16
	.cfi_offset 15, -16
	pushq	%r14
	.cfi_def_cfa_offset 24
	.cfi_offset 14, -24
	pushq	%r13
	.cfi_def_cfa_offset 32
	.cfi_offset 13, -32
	pushq	%r12
	.cfi_def_cfa_offset 40
	.cfi_offset 12, -40
	pushq	%rbp
	.cfi_def_cfa_offset 48
	.cfi_offset 6, -48
	pushq	%rbx
	.cfi_def_cfa_offset 56
	.cfi_offset 3, -56
	subq	$40, %rsp
	.cfi_def_cfa_offset 96
	movq	_ZTVN4asio6detail13epoll_reactorE@GOTPCREL(%rip), %rax
	movq	%rdi, 8(%rsp)
	addq	$16, %rax
	movq	%rax, (%rdi)
	movl	96(%rdi), %edi
	cmpl	$-1, %edi
	je	.L71
	call	close@PLT
.L71:
	movq	8(%rsp), %rax
	movl	100(%rax), %edi
	cmpl	$-1, %edi
	je	.L72
	call	close@PLT
.L72:
	movq	8(%rsp), %rax
	leaq	16(%rsp), %rbp
	movq	160(%rax), %r13
	testq	%r13, %r13
	je	.L83
	.p2align 4
	.p2align 3
.L73:
	movq	%r13, %r12
	movq	24(%r13), %r13
	leaq	128(%r12), %r15
	leaq	80(%r12), %r14
.L78:
	movq	(%r15), %rsi
	testq	%rsi, %rsi
	je	.L81
	movq	%rsi, (%rsp)
	call	_ZNSt3_V215system_categoryEv@PLT
	movq	(%rsp), %rsi
	movq	%rax, %rbx
	jmp	.L82
	.p2align 4,,10
	.p2align 3
.L79:
	movq	$0, (%rsi)
	movq	8(%rsi), %rax
	xorl	%ecx, %ecx
	movq	%rbp, %rdx
	movl	$0, 16(%rsp)
	xorl	%edi, %edi
	movq	%rbx, 24(%rsp)
	call	*%rax
	movq	(%r15), %rsi
	testq	%rsi, %rsi
	je	.L81
.L82:
	movq	(%rsi), %rax
	movq	%rax, (%r15)
	testq	%rax, %rax
	jne	.L79
	movq	$0, 8(%r15)
	jmp	.L79
	.p2align 4,,10
	.p2align 3
.L81:
	subq	$16, %r15
	cmpq	%r14, %r15
	jne	.L78
	leaq	40(%r12), %rdi
	call	pthread_mutex_destroy@PLT
	movl	$152, %esi
	movq	%r12, %rdi
	call	_ZdlPvm@PLT
	testq	%r13, %r13
	jne	.L73
.L83:
	movq	8(%rsp), %rax
	leaq	16(%rsp), %rbp
	movq	168(%rax), %r13
	testq	%r13, %r13
	je	.L75
	.p2align 4
	.p2align 3
.L74:
	movq	%r13, %r12
	movq	24(%r13), %r13
	leaq	128(%r12), %r15
	leaq	80(%r12), %r14
.L88:
	movq	(%r15), %rsi
	testq	%rsi, %rsi
	je	.L91
	movq	%rsi, (%rsp)
	call	_ZNSt3_V215system_categoryEv@PLT
	movq	(%rsp), %rsi
	movq	%rax, %rbx
	jmp	.L92
	.p2align 4,,10
	.p2align 3
.L89:
	movq	$0, (%rsi)
	movq	8(%rsi), %rax
	xorl	%ecx, %ecx
	movq	%rbp, %rdx
	movl	$0, 16(%rsp)
	xorl	%edi, %edi
	movq	%rbx, 24(%rsp)
	call	*%rax
	movq	(%r15), %rsi
	testq	%rsi, %rsi
	je	.L91
.L92:
	movq	(%rsi), %rax
	movq	%rax, (%r15)
	testq	%rax, %rax
	jne	.L89
	movq	$0, 8(%r15)
	jmp	.L89
	.p2align 4,,10
	.p2align 3
.L91:
	subq	$16, %r15
	cmpq	%r14, %r15
	jne	.L88
	leaq	40(%r12), %rdi
	call	pthread_mutex_destroy@PLT
	movl	$152, %esi
	movq	%r12, %rdi
	call	_ZdlPvm@PLT
	testq	%r13, %r13
	jne	.L74
.L75:
	movq	8(%rsp), %rbx
	leaq	120(%rbx), %rdi
	call	pthread_mutex_destroy@PLT
	movl	92(%rbx), %eax
	cmpl	$-1, %eax
	je	.L85
	movq	8(%rsp), %rdx
	movl	88(%rdx), %edi
	cmpl	%edi, %eax
	jne	.L117
.L93:
	call	close@PLT
	jmp	.L94
.L117:
	movl	%eax, %edi
	call	close@PLT
.L85:
	movq	8(%rsp), %rax
	movl	88(%rax), %edi
	cmpl	$-1, %edi
	jne	.L93
.L94:
	movq	8(%rsp), %rdi
	addq	$40, %rsp
	.cfi_def_cfa_offset 56
	popq	%rbx
	.cfi_def_cfa_offset 48
	popq	%rbp
	.cfi_def_cfa_offset 40
	addq	$48, %rdi
	popq	%r12
	.cfi_def_cfa_offset 32
	popq	%r13
	.cfi_def_cfa_offset 24
	popq	%r14
	.cfi_def_cfa_offset 16
	popq	%r15
	.cfi_def_cfa_offset 8
.LEHB0:
	jmp	pthread_mutex_destroy@PLT
.LEHE0:
	.cfi_endproc
.LFE3224:
	.section	.gcc_except_table._ZN4asio6detail13epoll_reactorD2Ev,"aG",@progbits,_ZN4asio6detail13epoll_reactorD5Ev,comdat
.LLSDA3224:
	.byte	0xff
	.byte	0xff
	.byte	0x1
	.uleb128 .LLSDACSE3224-.LLSDACSB3224
.LLSDACSB3224:
	.uleb128 .LEHB0-.LFB3224
	.uleb128 .LEHE0-.LEHB0
	.uleb128 0
	.uleb128 0
.LLSDACSE3224:
	.section	.text._ZN4asio6detail13epoll_reactorD2Ev,"axG",@progbits,_ZN4asio6detail13epoll_reactorD5Ev,comdat
	.size	_ZN4asio6detail13epoll_reactorD2Ev, .-_ZN4asio6detail13epoll_reactorD2Ev
	.weak	_ZN4asio6detail13epoll_reactorD1Ev
	.set	_ZN4asio6detail13epoll_reactorD1Ev,_ZN4asio6detail13epoll_reactorD2Ev
	.section	.text._ZN4asio6detail13epoll_reactorD0Ev,"axG",@progbits,_ZN4asio6detail13epoll_reactorD5Ev,comdat
	.align 2
	.p2align 4
	.weak	_ZN4asio6detail13epoll_reactorD0Ev
	.type	_ZN4asio6detail13epoll_reactorD0Ev, @function
_ZN4asio6detail13epoll_reactorD0Ev:
.LFB3226:
	.cfi_startproc
	.cfi_personality 0x9b,DW.ref.__gxx_personality_v0
	.cfi_lsda 0x1b,.LLSDA3226
	pushq	%r15
	.cfi_def_cfa_offset 16
	.cfi_offset 15, -16
	pushq	%r14
	.cfi_def_cfa_offset 24
	.cfi_offset 14, -24
	pushq	%r13
	.cfi_def_cfa_offset 32
	.cfi_offset 13, -32
	pushq	%r12
	.cfi_def_cfa_offset 40
	.cfi_offset 12, -40
	pushq	%rbp
	.cfi_def_cfa_offset 48
	.cfi_offset 6, -48
	pushq	%rbx
	.cfi_def_cfa_offset 56
	.cfi_offset 3, -56
	subq	$40, %rsp
	.cfi_def_cfa_offset 96
	movq	_ZTVN4asio6detail13epoll_reactorE@GOTPCREL(%rip), %rax
	movq	%rdi, 8(%rsp)
	addq	$16, %rax
	movq	%rax, (%rdi)
	movl	96(%rdi), %edi
	cmpl	$-1, %edi
	je	.L119
	call	close@PLT
.L119:
	movq	8(%rsp), %rax
	movl	100(%rax), %edi
	cmpl	$-1, %edi
	je	.L120
	call	close@PLT
.L120:
	movq	8(%rsp), %rax
	leaq	16(%rsp), %rbp
	movq	160(%rax), %r13
	testq	%r13, %r13
	je	.L131
	.p2align 4
	.p2align 3
.L121:
	movq	%r13, %r12
	movq	24(%r13), %r13
	leaq	128(%r12), %r15
	leaq	80(%r12), %r14
.L126:
	movq	(%r15), %rsi
	testq	%rsi, %rsi
	je	.L129
	movq	%rsi, (%rsp)
	call	_ZNSt3_V215system_categoryEv@PLT
	movq	(%rsp), %rsi
	movq	%rax, %rbx
	jmp	.L130
	.p2align 4,,10
	.p2align 3
.L127:
	movq	$0, (%rsi)
	movq	8(%rsi), %rax
	xorl	%ecx, %ecx
	movq	%rbp, %rdx
	movl	$0, 16(%rsp)
	xorl	%edi, %edi
	movq	%rbx, 24(%rsp)
	call	*%rax
	movq	(%r15), %rsi
	testq	%rsi, %rsi
	je	.L129
.L130:
	movq	(%rsi), %rax
	movq	%rax, (%r15)
	testq	%rax, %rax
	jne	.L127
	movq	$0, 8(%r15)
	jmp	.L127
	.p2align 4,,10
	.p2align 3
.L129:
	subq	$16, %r15
	cmpq	%r14, %r15
	jne	.L126
	leaq	40(%r12), %rdi
	call	pthread_mutex_destroy@PLT
	movl	$152, %esi
	movq	%r12, %rdi
	call	_ZdlPvm@PLT
	testq	%r13, %r13
	jne	.L121
.L131:
	movq	8(%rsp), %rax
	leaq	16(%rsp), %rbp
	movq	168(%rax), %r13
	testq	%r13, %r13
	je	.L123
	.p2align 4
	.p2align 3
.L122:
	movq	%r13, %r12
	movq	24(%r13), %r13
	leaq	128(%r12), %r15
	leaq	80(%r12), %r14
.L136:
	movq	(%r15), %rsi
	testq	%rsi, %rsi
	je	.L139
	movq	%rsi, (%rsp)
	call	_ZNSt3_V215system_categoryEv@PLT
	movq	(%rsp), %rsi
	movq	%rax, %rbx
	jmp	.L140
	.p2align 4,,10
	.p2align 3
.L137:
	movq	$0, (%rsi)
	movq	8(%rsi), %rax
	xorl	%ecx, %ecx
	movq	%rbp, %rdx
	movl	$0, 16(%rsp)
	xorl	%edi, %edi
	movq	%rbx, 24(%rsp)
	call	*%rax
	movq	(%r15), %rsi
	testq	%rsi, %rsi
	je	.L139
.L140:
	movq	(%rsi), %rax
	movq	%rax, (%r15)
	testq	%rax, %rax
	jne	.L137
	movq	$0, 8(%r15)
	jmp	.L137
	.p2align 4,,10
	.p2align 3
.L139:
	subq	$16, %r15
	cmpq	%r14, %r15
	jne	.L136
	leaq	40(%r12), %rdi
	call	pthread_mutex_destroy@PLT
	movl	$152, %esi
	movq	%r12, %rdi
	call	_ZdlPvm@PLT
	testq	%r13, %r13
	jne	.L122
.L123:
	movq	8(%rsp), %rbx
	leaq	120(%rbx), %rdi
	call	pthread_mutex_destroy@PLT
	movl	92(%rbx), %eax
	cmpl	$-1, %eax
	je	.L133
	movq	8(%rsp), %rdx
	movl	88(%rdx), %edi
	cmpl	%edi, %eax
	jne	.L165
.L141:
	call	close@PLT
	jmp	.L142
.L165:
	movl	%eax, %edi
	call	close@PLT
.L133:
	movq	8(%rsp), %rax
	movl	88(%rax), %edi
	cmpl	$-1, %edi
	jne	.L141
.L142:
	movq	8(%rsp), %rbx
	leaq	48(%rbx), %rdi
	call	pthread_mutex_destroy@PLT
	addq	$40, %rsp
	.cfi_def_cfa_offset 56
	movq	%rbx, %rdi
	movl	$176, %esi
	popq	%rbx
	.cfi_def_cfa_offset 48
	popq	%rbp
	.cfi_def_cfa_offset 40
	popq	%r12
	.cfi_def_cfa_offset 32
	popq	%r13
	.cfi_def_cfa_offset 24
	popq	%r14
	.cfi_def_cfa_offset 16
	popq	%r15
	.cfi_def_cfa_offset 8
.LEHB1:
	jmp	_ZdlPvm@PLT
.LEHE1:
	.cfi_endproc
.LFE3226:
	.section	.gcc_except_table._ZN4asio6detail13epoll_reactorD0Ev,"aG",@progbits,_ZN4asio6detail13epoll_reactorD5Ev,comdat
.LLSDA3226:
	.byte	0xff
	.byte	0xff
	.byte	0x1
	.uleb128 .LLSDACSE3226-.LLSDACSB3226
.LLSDACSB3226:
	.uleb128 .LEHB1-.LFB3226
	.uleb128 .LEHE1-.LEHB1
	.uleb128 0
	.uleb128 0
.LLSDACSE3226:
	.section	.text._ZN4asio6detail13epoll_reactorD0Ev,"axG",@progbits,_ZN4asio6detail13epoll_reactorD5Ev,comdat
	.size	_ZN4asio6detail13epoll_reactorD0Ev, .-_ZN4asio6detail13epoll_reactorD0Ev
	.section	.text._ZN4asio6detail15task_io_serviceD2Ev,"axG",@progbits,_ZN4asio6detail15task_io_serviceD5Ev,comdat
	.align 2
	.p2align 4
	.weak	_ZN4asio6detail15task_io_serviceD2Ev
	.type	_ZN4asio6detail15task_io_serviceD2Ev, @function
_ZN4asio6detail15task_io_serviceD2Ev:
.LFB10153:
	.cfi_startproc
	.cfi_personality 0x9b,DW.ref.__gxx_personality_v0
	.cfi_lsda 0x1b,.LLSDA10153
	pushq	%r12
	.cfi_def_cfa_offset 16
	.cfi_offset 12, -16
	pushq	%rbp
	.cfi_def_cfa_offset 24
	.cfi_offset 6, -24
	pushq	%rbx
	.cfi_def_cfa_offset 32
	.cfi_offset 3, -32
	movq	%rdi, %rbx
	subq	$32, %rsp
	.cfi_def_cfa_offset 64
	movq	_ZTVN4asio6detail15task_io_serviceE@GOTPCREL(%rip), %rax
	movq	192(%rdi), %rsi
	addq	$16, %rax
	movq	%rax, (%rdi)
	testq	%rsi, %rsi
	je	.L167
	movq	%rsi, 8(%rsp)
	leaq	16(%rsp), %rbp
	call	_ZNSt3_V215system_categoryEv@PLT
	movq	8(%rsp), %rsi
	movq	%rax, %r12
	jmp	.L170
	.p2align 4,,10
	.p2align 3
.L168:
	movq	$0, (%rsi)
	movq	8(%rsi), %rax
	xorl	%ecx, %ecx
	movq	%rbp, %rdx
	movl	$0, 16(%rsp)
	xorl	%edi, %edi
	movq	%r12, 24(%rsp)
	call	*%rax
	movq	192(%rbx), %rsi
	testq	%rsi, %rsi
	je	.L167
.L170:
	movq	(%rsi), %rax
	movq	%rax, 192(%rbx)
	testq	%rax, %rax
	jne	.L168
	movq	$0, 200(%rbx)
	jmp	.L168
	.p2align 4,,10
	.p2align 3
.L167:
	leaq	88(%rbx), %rdi
	call	pthread_cond_destroy@PLT
	addq	$32, %rsp
	.cfi_def_cfa_offset 32
	leaq	48(%rbx), %rdi
	popq	%rbx
	.cfi_def_cfa_offset 24
	popq	%rbp
	.cfi_def_cfa_offset 16
	popq	%r12
	.cfi_def_cfa_offset 8
.LEHB2:
	jmp	pthread_mutex_destroy@PLT
.LEHE2:
	.cfi_endproc
.LFE10153:
	.section	.gcc_except_table._ZN4asio6detail15task_io_serviceD2Ev,"aG",@progbits,_ZN4asio6detail15task_io_serviceD5Ev,comdat
.LLSDA10153:
	.byte	0xff
	.byte	0xff
	.byte	0x1
	.uleb128 .LLSDACSE10153-.LLSDACSB10153
.LLSDACSB10153:
	.uleb128 .LEHB2-.LFB10153
	.uleb128 .LEHE2-.LEHB2
	.uleb128 0
	.uleb128 0
.LLSDACSE10153:
	.section	.text._ZN4asio6detail15task_io_serviceD2Ev,"axG",@progbits,_ZN4asio6detail15task_io_serviceD5Ev,comdat
	.size	_ZN4asio6detail15task_io_serviceD2Ev, .-_ZN4asio6detail15task_io_serviceD2Ev
	.weak	_ZN4asio6detail15task_io_serviceD1Ev
	.set	_ZN4asio6detail15task_io_serviceD1Ev,_ZN4asio6detail15task_io_serviceD2Ev
	.section	.text._ZN4asio6detail15task_io_serviceD0Ev,"axG",@progbits,_ZN4asio6detail15task_io_serviceD5Ev,comdat
	.align 2
	.p2align 4
	.weak	_ZN4asio6detail15task_io_serviceD0Ev
	.type	_ZN4asio6detail15task_io_serviceD0Ev, @function
_ZN4asio6detail15task_io_serviceD0Ev:
.LFB10155:
	.cfi_startproc
	.cfi_personality 0x9b,DW.ref.__gxx_personality_v0
	.cfi_lsda 0x1b,.LLSDA10155
	pushq	%r12
	.cfi_def_cfa_offset 16
	.cfi_offset 12, -16
	pushq	%rbp
	.cfi_def_cfa_offset 24
	.cfi_offset 6, -24
	pushq	%rbx
	.cfi_def_cfa_offset 32
	.cfi_offset 3, -32
	movq	%rdi, %rbx
	subq	$32, %rsp
	.cfi_def_cfa_offset 64
	movq	_ZTVN4asio6detail15task_io_serviceE@GOTPCREL(%rip), %rax
	movq	192(%rdi), %rsi
	addq	$16, %rax
	movq	%rax, (%rdi)
	testq	%rsi, %rsi
	je	.L179
	movq	%rsi, 8(%rsp)
	leaq	16(%rsp), %rbp
	call	_ZNSt3_V215system_categoryEv@PLT
	movq	8(%rsp), %rsi
	movq	%rax, %r12
	jmp	.L182
	.p2align 4,,10
	.p2align 3
.L180:
	movq	$0, (%rsi)
	movq	8(%rsi), %rax
	xorl	%ecx, %ecx
	movq	%rbp, %rdx
	movl	$0, 16(%rsp)
	xorl	%edi, %edi
	movq	%r12, 24(%rsp)
	call	*%rax
	movq	192(%rbx), %rsi
	testq	%rsi, %rsi
	je	.L179
.L182:
	movq	(%rsi), %rax
	movq	%rax, 192(%rbx)
	testq	%rax, %rax
	jne	.L180
	movq	$0, 200(%rbx)
	jmp	.L180
	.p2align 4,,10
	.p2align 3
.L179:
	leaq	88(%rbx), %rdi
	call	pthread_cond_destroy@PLT
	leaq	48(%rbx), %rdi
	call	pthread_mutex_destroy@PLT
	addq	$32, %rsp
	.cfi_def_cfa_offset 32
	movq	%rbx, %rdi
	movl	$216, %esi
	popq	%rbx
	.cfi_def_cfa_offset 24
	popq	%rbp
	.cfi_def_cfa_offset 16
	popq	%r12
	.cfi_def_cfa_offset 8
.LEHB3:
	jmp	_ZdlPvm@PLT
.LEHE3:
	.cfi_endproc
.LFE10155:
	.section	.gcc_except_table._ZN4asio6detail15task_io_serviceD0Ev,"aG",@progbits,_ZN4asio6detail15task_io_serviceD5Ev,comdat
.LLSDA10155:
	.byte	0xff
	.byte	0xff
	.byte	0x1
	.uleb128 .LLSDACSE10155-.LLSDACSB10155
.LLSDACSB10155:
	.uleb128 .LEHB3-.LFB10155
	.uleb128 .LEHE3-.LEHB3
	.uleb128 0
	.uleb128 0
.LLSDACSE10155:
	.section	.text._ZN4asio6detail15task_io_serviceD0Ev,"axG",@progbits,_ZN4asio6detail15task_io_serviceD5Ev,comdat
	.size	_ZN4asio6detail15task_io_serviceD0Ev, .-_ZN4asio6detail15task_io_serviceD0Ev
	.section	.text._ZN4asio6detail13epoll_reactor16shutdown_serviceEv,"axG",@progbits,_ZN4asio6detail13epoll_reactor16shutdown_serviceEv,comdat
	.align 2
	.p2align 4
	.weak	_ZN4asio6detail13epoll_reactor16shutdown_serviceEv
	.type	_ZN4asio6detail13epoll_reactor16shutdown_serviceEv, @function
_ZN4asio6detail13epoll_reactor16shutdown_serviceEv:
.LFB3227:
	.cfi_startproc
	.cfi_personality 0x9b,DW.ref.__gxx_personality_v0
	.cfi_lsda 0x1b,.LLSDA3227
	pushq	%r14
	.cfi_def_cfa_offset 16
	.cfi_offset 14, -16
	pushq	%r12
	.cfi_def_cfa_offset 24
	.cfi_offset 12, -24
	pushq	%rbp
	.cfi_def_cfa_offset 32
	.cfi_offset 6, -32
	leaq	48(%rdi), %rbp
	pushq	%rbx
	.cfi_def_cfa_offset 40
	.cfi_offset 3, -40
	movq	%rdi, %rbx
	movq	%rbp, %rdi
	subq	$40, %rsp
	.cfi_def_cfa_offset 80
	call	pthread_mutex_lock@PLT
	movb	$1, 112(%rbx)
	movq	%rbp, %rdi
	call	pthread_mutex_unlock@PLT
	movq	160(%rbx), %rax
	pxor	%xmm0, %xmm0
	movaps	%xmm0, (%rsp)
	testq	%rax, %rax
	jne	.L191
	jmp	.L209
	.p2align 4,,10
	.p2align 3
.L195:
	movq	%rdx, (%rcx)
.L197:
	movq	104(%rax), %rdx
	movups	%xmm0, 96(%rax)
	movq	%rdx, 8(%rsp)
.L194:
	movq	112(%rax), %rdx
	testq	%rdx, %rdx
	je	.L198
	movq	8(%rsp), %rcx
	testq	%rcx, %rcx
	je	.L249
	movq	%rdx, (%rcx)
.L201:
	movq	120(%rax), %rdx
	movups	%xmm0, 112(%rax)
	movq	%rdx, 8(%rsp)
.L198:
	movq	128(%rax), %rdx
	testq	%rdx, %rdx
	je	.L202
	movq	8(%rsp), %rcx
	testq	%rcx, %rcx
	je	.L250
	movq	%rdx, (%rcx)
.L205:
	movq	136(%rax), %rdx
	movups	%xmm0, 128(%rax)
	movq	%rdx, 8(%rsp)
.L202:
	movq	24(%rax), %rcx
	movb	$1, 144(%rax)
	movq	%rcx, 160(%rbx)
	movq	32(%rax), %rdx
	testq	%rdx, %rdx
	je	.L206
	movq	%rcx, 24(%rdx)
.L206:
	movq	24(%rax), %rdx
	testq	%rdx, %rdx
	je	.L207
	movq	32(%rax), %rcx
	movq	%rcx, 32(%rdx)
.L207:
	movq	168(%rbx), %rdx
	movq	$0, 32(%rax)
	movq	%rdx, 24(%rax)
	movq	%rax, 168(%rbx)
	movq	160(%rbx), %rax
	testq	%rax, %rax
	je	.L209
.L191:
	movq	96(%rax), %rdx
	testq	%rdx, %rdx
	je	.L194
	movq	8(%rsp), %rcx
	testq	%rcx, %rcx
	jne	.L195
	movq	%rdx, (%rsp)
	jmp	.L197
	.p2align 4,,10
	.p2align 3
.L249:
	movq	%rdx, (%rsp)
	jmp	.L201
	.p2align 4,,10
	.p2align 3
.L250:
	movq	%rdx, (%rsp)
	jmp	.L205
	.p2align 4,,10
	.p2align 3
.L209:
	movq	104(%rbx), %rbx
	movq	%rsp, %rbp
	testq	%rbx, %rbx
	je	.L193
	.p2align 4
	.p2align 3
.L192:
	movq	(%rbx), %rax
	movq	%rbp, %rsi
	movq	%rbx, %rdi
.LEHB4:
	call	*48(%rax)
.LEHE4:
	movq	8(%rbx), %rbx
	testq	%rbx, %rbx
	jne	.L192
.L193:
	movq	(%rsp), %rbx
	testq	%rbx, %rbx
	je	.L190
	pxor	%xmm0, %xmm0
	leaq	16(%rsp), %rbp
	movaps	%xmm0, (%rsp)
	call	_ZNSt3_V215system_categoryEv@PLT
	movq	%rax, %r12
	.p2align 4
	.p2align 3
.L212:
	movq	%rbx, %rsi
	movq	(%rbx), %rbx
	xorl	%ecx, %ecx
	xorl	%edi, %edi
	movq	$0, (%rsi)
	movq	8(%rsi), %rax
	movq	%rbp, %rdx
	movl	$0, 16(%rsp)
	movq	%r12, 24(%rsp)
	call	*%rax
	testq	%rbx, %rbx
	jne	.L212
	movq	(%rsp), %rsi
	testq	%rsi, %rsi
	jne	.L213
	jmp	.L190
	.p2align 4,,10
	.p2align 3
.L214:
	movq	$0, (%rsi)
	movq	8(%rsi), %rax
	xorl	%ecx, %ecx
	movq	%rbp, %rdx
	movl	$0, 16(%rsp)
	xorl	%edi, %edi
	movq	%r12, 24(%rsp)
	call	*%rax
	movq	(%rsp), %rsi
	testq	%rsi, %rsi
	je	.L190
.L213:
	movq	(%rsi), %rax
	movq	%rax, (%rsp)
	testq	%rax, %rax
	jne	.L214
	movq	$0, 8(%rsp)
	jmp	.L214
	.p2align 4,,10
	.p2align 3
.L190:
	addq	$40, %rsp
	.cfi_remember_state
	.cfi_def_cfa_offset 40
	popq	%rbx
	.cfi_def_cfa_offset 32
	popq	%rbp
	.cfi_def_cfa_offset 24
	popq	%r12
	.cfi_def_cfa_offset 16
	popq	%r14
	.cfi_def_cfa_offset 8
	ret
.L219:
	.cfi_restore_state
	movq	%rax, %r14
	jmp	.L216
.L251:
	movq	(%rbx), %rax
	movq	%rax, (%rsp)
	testq	%rax, %rax
	jne	.L218
	xorl	%ecx, %ecx
	movq	%rcx, 8(%rsp)
.L218:
	xorl	%eax, %eax
	xorl	%edx, %edx
	movq	8(%rbx), %rbp
	movq	%rax, (%rbx)
	movl	%edx, 16(%rsp)
	call	_ZNSt3_V215system_categoryEv@PLT
	xorl	%ecx, %ecx
	leaq	16(%rsp), %rdx
	movq	%rbx, %rsi
	movq	%rax, 24(%rsp)
	xorl	%edi, %edi
	call	*%rbp
.L216:
	movq	(%rsp), %rbx
	testq	%rbx, %rbx
	jne	.L251
	movq	%r14, %rdi
.LEHB5:
	call	_Unwind_Resume@PLT
.LEHE5:
	.cfi_endproc
.LFE3227:
	.section	.gcc_except_table._ZN4asio6detail13epoll_reactor16shutdown_serviceEv,"aG",@progbits,_ZN4asio6detail13epoll_reactor16shutdown_serviceEv,comdat
.LLSDA3227:
	.byte	0xff
	.byte	0xff
	.byte	0x1
	.uleb128 .LLSDACSE3227-.LLSDACSB3227
.LLSDACSB3227:
	.uleb128 .LEHB4-.LFB3227
	.uleb128 .LEHE4-.LEHB4
	.uleb128 .L219-.LFB3227
	.uleb128 0
	.uleb128 .LEHB5-.LFB3227
	.uleb128 .LEHE5-.LEHB5
	.uleb128 0
	.uleb128 0
.LLSDACSE3227:
	.section	.text._ZN4asio6detail13epoll_reactor16shutdown_serviceEv,"axG",@progbits,_ZN4asio6detail13epoll_reactor16shutdown_serviceEv,comdat
	.size	_ZN4asio6detail13epoll_reactor16shutdown_serviceEv, .-_ZN4asio6detail13epoll_reactor16shutdown_serviceEv
	.section	.text._ZNSt15_Sp_counted_ptrIPSt6vectorIN4asio2ip20basic_resolver_entryINS2_3tcpEEESaIS5_EELN9__gnu_cxx12_Lock_policyE2EE10_M_disposeEv,"axG",@progbits,_ZNSt15_Sp_counted_ptrIPSt6vectorIN4asio2ip20basic_resolver_entryINS2_3tcpEEESaIS5_EELN9__gnu_cxx12_Lock_policyE2EE10_M_disposeEv,comdat
	.align 2
	.p2align 4
	.weak	_ZNSt15_Sp_counted_ptrIPSt6vectorIN4asio2ip20basic_resolver_entryINS2_3tcpEEESaIS5_EELN9__gnu_cxx12_Lock_policyE2EE10_M_disposeEv
	.type	_ZNSt15_Sp_counted_ptrIPSt6vectorIN4asio2ip20basic_resolver_entryINS2_3tcpEEESaIS5_EELN9__gnu_cxx12_Lock_policyE2EE10_M_disposeEv, @function
_ZNSt15_Sp_counted_ptrIPSt6vectorIN4asio2ip20basic_resolver_entryINS2_3tcpEEESaIS5_EELN9__gnu_cxx12_Lock_policyE2EE10_M_disposeEv:
.LFB10178:
	.cfi_startproc
	pushq	%r12
	.cfi_def_cfa_offset 16
	.cfi_offset 12, -16
	pushq	%rbp
	.cfi_def_cfa_offset 24
	.cfi_offset 6, -24
	pushq	%rbx
	.cfi_def_cfa_offset 32
	.cfi_offset 3, -32
	movq	16(%rdi), %r12
	testq	%r12, %r12
	je	.L252
	movq	8(%r12), %rbp
	movq	(%r12), %rbx
	cmpq	%rbx, %rbp
	je	.L254
	.p2align 4
	.p2align 3
.L257:
	movq	64(%rbx), %rdi
	leaq	80(%rbx), %rax
	cmpq	%rax, %rdi
	je	.L255
	movq	80(%rbx), %rax
	leaq	1(%rax), %rsi
	call	_ZdlPvm@PLT
.L255:
	movq	32(%rbx), %rdi
	leaq	48(%rbx), %rax
	cmpq	%rax, %rdi
	je	.L256
	movq	48(%rbx), %rax
	leaq	1(%rax), %rsi
	call	_ZdlPvm@PLT
.L256:
	addq	$96, %rbx
	cmpq	%rbx, %rbp
	jne	.L257
	movq	(%r12), %rbx
.L254:
	testq	%rbx, %rbx
	je	.L258
	movq	16(%r12), %rsi
	movq	%rbx, %rdi
	subq	%rbx, %rsi
	call	_ZdlPvm@PLT
.L258:
	popq	%rbx
	.cfi_remember_state
	.cfi_def_cfa_offset 24
	movq	%r12, %rdi
	popq	%rbp
	.cfi_def_cfa_offset 16
	movl	$24, %esi
	popq	%r12
	.cfi_def_cfa_offset 8
	jmp	_ZdlPvm@PLT
	.p2align 4,,10
	.p2align 3
.L252:
	.cfi_restore_state
	popq	%rbx
	.cfi_def_cfa_offset 24
	popq	%rbp
	.cfi_def_cfa_offset 16
	popq	%r12
	.cfi_def_cfa_offset 8
	ret
	.cfi_endproc
.LFE10178:
	.size	_ZNSt15_Sp_counted_ptrIPSt6vectorIN4asio2ip20basic_resolver_entryINS2_3tcpEEESaIS5_EELN9__gnu_cxx12_Lock_policyE2EE10_M_disposeEv, .-_ZNSt15_Sp_counted_ptrIPSt6vectorIN4asio2ip20basic_resolver_entryINS2_3tcpEEESaIS5_EELN9__gnu_cxx12_Lock_policyE2EE10_M_disposeEv
	.section	.text._ZN4asio2ip16resolver_serviceINS0_3tcpEE16shutdown_serviceEv,"axG",@progbits,_ZN4asio2ip16resolver_serviceINS0_3tcpEE16shutdown_serviceEv,comdat
	.align 2
	.p2align 4
	.weak	_ZN4asio2ip16resolver_serviceINS0_3tcpEE16shutdown_serviceEv
	.type	_ZN4asio2ip16resolver_serviceINS0_3tcpEE16shutdown_serviceEv, @function
_ZN4asio2ip16resolver_serviceINS0_3tcpEE16shutdown_serviceEv:
.LFB10225:
	.cfi_startproc
	.cfi_personality 0x9b,DW.ref.__gxx_personality_v0
	.cfi_lsda 0x1b,.LLSDA10225
	pushq	%r13
	.cfi_def_cfa_offset 16
	.cfi_offset 13, -16
	pushq	%r12
	.cfi_def_cfa_offset 24
	.cfi_offset 12, -24
	pushq	%rbp
	.cfi_def_cfa_offset 32
	.cfi_offset 6, -32
	movq	%rdi, %rbp
	pushq	%rbx
	.cfi_def_cfa_offset 40
	.cfi_offset 3, -40
	subq	$24, %rsp
	.cfi_def_cfa_offset 64
	movq	104(%rdi), %r13
	testq	%r13, %r13
	je	.L265
	movq	0(%r13), %rbx
	lock subq	$1, 184(%rbx)
	je	.L314
.L266:
	movl	$8, %esi
	movq	%r13, %rdi
	call	_ZdlPvm@PLT
.L265:
	movq	88(%rbp), %rax
	movq	$0, 104(%rbp)
	testq	%rax, %rax
	je	.L264
	movq	8(%rax), %rbx
	leaq	48(%rbx), %r12
	movq	%r12, %rdi
	call	pthread_mutex_lock@PLT
	movb	$1, 208(%rbx)
	leaq	88(%rbx), %rdi
	orq	$1, 136(%rbx)
	call	pthread_cond_broadcast@PLT
	cmpb	$0, 176(%rbx)
	jne	.L269
	movq	144(%rbx), %rax
	testq	%rax, %rax
	je	.L269
	movb	$1, 176(%rbx)
	leaq	88(%rax), %rdx
	leaq	4(%rsp), %rcx
	movl	$3, %esi
	movq	%rdx, 8(%rsp)
	movl	88(%rax), %edx
	movl	$-2147483639, 4(%rsp)
	movl	96(%rax), %edi
	call	epoll_ctl@PLT
.L269:
	movq	%r12, %rdi
	call	pthread_mutex_unlock@PLT
	movq	112(%rbp), %rbx
	testq	%rbx, %rbx
	je	.L270
	cmpb	$0, 8(%rbx)
	je	.L315
.L271:
	movl	$16, %esi
	movq	%rbx, %rdi
	call	_ZdlPvm@PLT
.L272:
	movq	$0, 112(%rbp)
.L270:
	movq	88(%rbp), %r13
	testq	%r13, %r13
	je	.L275
	movq	0(%r13), %r12
	testq	%r12, %r12
	je	.L276
	movq	56(%r12), %rbx
	testq	%rbx, %rbx
	je	.L278
	.p2align 4
	.p2align 3
.L277:
	movq	(%rbx), %rax
	movq	%rbx, %rdi
	call	*16(%rax)
	movq	32(%rbx), %rbx
	testq	%rbx, %rbx
	jne	.L277
	movq	56(%r12), %rbx
	testq	%rbx, %rbx
	je	.L278
	.p2align 4
	.p2align 3
.L279:
	movq	%rbx, %rdi
	movq	32(%rbx), %rbx
	movq	(%rdi), %rax
	call	*8(%rax)
	movq	%rbx, 56(%r12)
	testq	%rbx, %rbx
	jne	.L279
.L278:
	leaq	8(%r12), %rdi
	call	pthread_mutex_destroy@PLT
	movl	$64, %esi
	movq	%r12, %rdi
	call	_ZdlPvm@PLT
.L276:
	movl	$16, %esi
	movq	%r13, %rdi
	call	_ZdlPvm@PLT
.L275:
	movq	$0, 88(%rbp)
.L264:
	addq	$24, %rsp
	.cfi_remember_state
	.cfi_def_cfa_offset 40
	popq	%rbx
	.cfi_def_cfa_offset 32
	popq	%rbp
	.cfi_def_cfa_offset 24
	popq	%r12
	.cfi_def_cfa_offset 16
	popq	%r13
	.cfi_def_cfa_offset 8
	ret
	.p2align 4,,10
	.p2align 3
.L314:
	.cfi_restore_state
	leaq	48(%rbx), %r12
	movq	%r12, %rdi
	call	pthread_mutex_lock@PLT
	movb	$1, 208(%rbx)
	leaq	88(%rbx), %rdi
	orq	$1, 136(%rbx)
	call	pthread_cond_broadcast@PLT
	cmpb	$0, 176(%rbx)
	jne	.L267
	movq	144(%rbx), %rax
	testq	%rax, %rax
	je	.L267
	movb	$1, 176(%rbx)
	leaq	88(%rax), %rdx
	leaq	4(%rsp), %rcx
	movl	$3, %esi
	movq	%rdx, 8(%rsp)
	movl	88(%rax), %edx
	movl	$-2147483639, 4(%rsp)
	movl	96(%rax), %edi
	call	epoll_ctl@PLT
.L267:
	movq	%r12, %rdi
	call	pthread_mutex_unlock@PLT
	jmp	.L266
	.p2align 4,,10
	.p2align 3
.L315:
	movq	(%rbx), %rdi
	xorl	%esi, %esi
.LEHB6:
	call	pthread_join@PLT
.LEHE6:
	movb	$1, 8(%rbx)
	movq	112(%rbp), %rbx
	testq	%rbx, %rbx
	je	.L272
	cmpb	$0, 8(%rbx)
	jne	.L271
	movq	(%rbx), %rdi
	call	pthread_detach@PLT
	jmp	.L271
	.cfi_endproc
.LFE10225:
	.section	.gcc_except_table._ZN4asio2ip16resolver_serviceINS0_3tcpEE16shutdown_serviceEv,"aG",@progbits,_ZN4asio2ip16resolver_serviceINS0_3tcpEE16shutdown_serviceEv,comdat
.LLSDA10225:
	.byte	0xff
	.byte	0xff
	.byte	0x1
	.uleb128 .LLSDACSE10225-.LLSDACSB10225
.LLSDACSB10225:
	.uleb128 .LEHB6-.LFB10225
	.uleb128 .LEHE6-.LEHB6
	.uleb128 0
	.uleb128 0
.LLSDACSE10225:
	.section	.text._ZN4asio2ip16resolver_serviceINS0_3tcpEE16shutdown_serviceEv,"axG",@progbits,_ZN4asio2ip16resolver_serviceINS0_3tcpEE16shutdown_serviceEv,comdat
	.size	_ZN4asio2ip16resolver_serviceINS0_3tcpEE16shutdown_serviceEv, .-_ZN4asio2ip16resolver_serviceINS0_3tcpEE16shutdown_serviceEv
	.section	.text._ZN4asio2ip16resolver_serviceINS0_3tcpEED0Ev,"axG",@progbits,_ZN4asio2ip16resolver_serviceINS0_3tcpEED5Ev,comdat
	.align 2
	.p2align 4
	.weak	_ZN4asio2ip16resolver_serviceINS0_3tcpEED0Ev
	.type	_ZN4asio2ip16resolver_serviceINS0_3tcpEED0Ev, @function
_ZN4asio2ip16resolver_serviceINS0_3tcpEED0Ev:
.LFB10131:
	.cfi_startproc
	.cfi_personality 0x9b,DW.ref.__gxx_personality_v0
	.cfi_lsda 0x1b,.LLSDA10131
	pushq	%r13
	.cfi_def_cfa_offset 16
	.cfi_offset 13, -16
	pushq	%r12
	.cfi_def_cfa_offset 24
	.cfi_offset 12, -24
	pushq	%rbp
	.cfi_def_cfa_offset 32
	.cfi_offset 6, -32
	movq	%rdi, %rbp
	pushq	%rbx
	.cfi_def_cfa_offset 40
	.cfi_offset 3, -40
	subq	$24, %rsp
	.cfi_def_cfa_offset 64
	movq	_ZTVN4asio2ip16resolver_serviceINS0_3tcpEEE@GOTPCREL(%rip), %rax
	movq	104(%rdi), %r12
	addq	$16, %rax
	movq	%rax, (%rdi)
	testq	%r12, %r12
	je	.L317
	movq	(%r12), %rbx
	lock subq	$1, 184(%rbx)
	je	.L395
.L318:
	movl	$8, %esi
	movq	%r12, %rdi
	call	_ZdlPvm@PLT
.L317:
	movq	88(%rbp), %rax
	movq	$0, 104(%rbp)
	testq	%rax, %rax
	je	.L396
	movq	8(%rax), %rbx
	leaq	48(%rbx), %r12
	movq	%r12, %rdi
	call	pthread_mutex_lock@PLT
	movb	$1, 208(%rbx)
	leaq	88(%rbx), %rdi
	orq	$1, 136(%rbx)
	call	pthread_cond_broadcast@PLT
	cmpb	$0, 176(%rbx)
	jne	.L322
	movq	144(%rbx), %rax
	testq	%rax, %rax
	je	.L322
	movb	$1, 176(%rbx)
	leaq	88(%rax), %rdx
	leaq	4(%rsp), %rcx
	movl	$3, %esi
	movq	%rdx, 8(%rsp)
	movl	88(%rax), %edx
	movl	$-2147483639, 4(%rsp)
	movl	96(%rax), %edi
	call	epoll_ctl@PLT
.L322:
	movq	%r12, %rdi
	call	pthread_mutex_unlock@PLT
	movq	112(%rbp), %rbx
	testq	%rbx, %rbx
	je	.L323
	cmpb	$0, 8(%rbx)
	je	.L397
.L324:
	movl	$16, %esi
	movq	%rbx, %rdi
	call	_ZdlPvm@PLT
.L325:
	movq	88(%rbp), %r13
	movq	$0, 112(%rbp)
	testq	%r13, %r13
	je	.L329
.L328:
	movq	0(%r13), %r12
	testq	%r12, %r12
	je	.L330
	movq	56(%r12), %rbx
	testq	%rbx, %rbx
	je	.L332
	.p2align 4
	.p2align 3
.L331:
	movq	(%rbx), %rax
	movq	%rbx, %rdi
	call	*16(%rax)
	movq	32(%rbx), %rbx
	testq	%rbx, %rbx
	jne	.L331
	movq	56(%r12), %rbx
	testq	%rbx, %rbx
	je	.L332
	.p2align 4
	.p2align 3
.L333:
	movq	%rbx, %rdi
	movq	32(%rbx), %rbx
	movq	(%rdi), %rax
	call	*8(%rax)
	movq	%rbx, 56(%r12)
	testq	%rbx, %rbx
	jne	.L333
.L332:
	leaq	8(%r12), %rdi
	call	pthread_mutex_destroy@PLT
	movl	$64, %esi
	movq	%r12, %rdi
	call	_ZdlPvm@PLT
.L330:
	movl	$16, %esi
	movq	%r13, %rdi
	call	_ZdlPvm@PLT
	movq	$0, 88(%rbp)
	movq	112(%rbp), %rbx
.L321:
	testq	%rbx, %rbx
	je	.L329
	cmpb	$0, 8(%rbx)
	je	.L398
.L334:
	movl	$16, %esi
	movq	%rbx, %rdi
	call	_ZdlPvm@PLT
.L329:
	movq	104(%rbp), %r12
	testq	%r12, %r12
	je	.L335
	movq	(%r12), %rbx
	lock subq	$1, 184(%rbx)
	je	.L399
.L336:
	movl	$8, %esi
	movq	%r12, %rdi
	call	_ZdlPvm@PLT
.L335:
	movq	88(%rbp), %r13
	testq	%r13, %r13
	je	.L338
	movq	0(%r13), %r12
	testq	%r12, %r12
	je	.L339
	movq	56(%r12), %rbx
	testq	%rbx, %rbx
	je	.L341
	.p2align 4
	.p2align 3
.L340:
	movq	(%rbx), %rax
	movq	%rbx, %rdi
	call	*16(%rax)
	movq	32(%rbx), %rbx
	testq	%rbx, %rbx
	jne	.L340
	movq	56(%r12), %rbx
	testq	%rbx, %rbx
	je	.L341
	.p2align 4
	.p2align 3
.L342:
	movq	%rbx, %rdi
	movq	32(%rbx), %rbx
	movq	(%rdi), %rax
	call	*8(%rax)
	movq	%rbx, 56(%r12)
	testq	%rbx, %rbx
	jne	.L342
.L341:
	leaq	8(%r12), %rdi
	call	pthread_mutex_destroy@PLT
	movl	$64, %esi
	movq	%r12, %rdi
	call	_ZdlPvm@PLT
.L339:
	movl	$16, %esi
	movq	%r13, %rdi
	call	_ZdlPvm@PLT
.L338:
	leaq	48(%rbp), %rdi
	call	pthread_mutex_destroy@PLT
	addq	$24, %rsp
	.cfi_remember_state
	.cfi_def_cfa_offset 40
	movq	%rbp, %rdi
	movl	$120, %esi
	popq	%rbx
	.cfi_def_cfa_offset 32
	popq	%rbp
	.cfi_def_cfa_offset 24
	popq	%r12
	.cfi_def_cfa_offset 16
	popq	%r13
	.cfi_def_cfa_offset 8
.LEHB7:
	jmp	_ZdlPvm@PLT
.LEHE7:
	.p2align 4,,10
	.p2align 3
.L396:
	.cfi_restore_state
	movq	112(%rbp), %rbx
	jmp	.L321
	.p2align 4,,10
	.p2align 3
.L398:
	movq	(%rbx), %rdi
	call	pthread_detach@PLT
	jmp	.L334
	.p2align 4,,10
	.p2align 3
.L395:
	leaq	48(%rbx), %r13
	movq	%r13, %rdi
	call	pthread_mutex_lock@PLT
	movb	$1, 208(%rbx)
	leaq	88(%rbx), %rdi
	orq	$1, 136(%rbx)
	call	pthread_cond_broadcast@PLT
	cmpb	$0, 176(%rbx)
	jne	.L319
	movq	144(%rbx), %rax
	testq	%rax, %rax
	je	.L319
	movb	$1, 176(%rbx)
	leaq	88(%rax), %rdx
	leaq	4(%rsp), %rcx
	movl	$3, %esi
	movq	%rdx, 8(%rsp)
	movl	88(%rax), %edx
	movl	$-2147483639, 4(%rsp)
	movl	96(%rax), %edi
	call	epoll_ctl@PLT
.L319:
	movq	%r13, %rdi
	call	pthread_mutex_unlock@PLT
	jmp	.L318
	.p2align 4,,10
	.p2align 3
.L323:
	movq	88(%rbp), %r13
	testq	%r13, %r13
	jne	.L328
	jmp	.L329
	.p2align 4,,10
	.p2align 3
.L399:
	leaq	48(%rbx), %r13
	movq	%r13, %rdi
	call	pthread_mutex_lock@PLT
	movb	$1, 208(%rbx)
	leaq	88(%rbx), %rdi
	orq	$1, 136(%rbx)
	call	pthread_cond_broadcast@PLT
	cmpb	$0, 176(%rbx)
	jne	.L337
	movq	144(%rbx), %rax
	testq	%rax, %rax
	je	.L337
	movb	$1, 176(%rbx)
	leaq	88(%rax), %rdx
	leaq	4(%rsp), %rcx
	movl	$3, %esi
	movq	%rdx, 8(%rsp)
	movl	88(%rax), %edx
	movl	$-2147483639, 4(%rsp)
	movl	96(%rax), %edi
	call	epoll_ctl@PLT
.L337:
	movq	%r13, %rdi
	call	pthread_mutex_unlock@PLT
	jmp	.L336
	.p2align 4,,10
	.p2align 3
.L397:
	movq	(%rbx), %rdi
	xorl	%esi, %esi
	call	pthread_join@PLT
	movb	$1, 8(%rbx)
	movq	112(%rbp), %rbx
	testq	%rbx, %rbx
	je	.L325
	cmpb	$0, 8(%rbx)
	jne	.L324
	movq	(%rbx), %rdi
	call	pthread_detach@PLT
	jmp	.L324
	.cfi_endproc
.LFE10131:
	.section	.gcc_except_table._ZN4asio2ip16resolver_serviceINS0_3tcpEED0Ev,"aG",@progbits,_ZN4asio2ip16resolver_serviceINS0_3tcpEED5Ev,comdat
.LLSDA10131:
	.byte	0xff
	.byte	0xff
	.byte	0x1
	.uleb128 .LLSDACSE10131-.LLSDACSB10131
.LLSDACSB10131:
	.uleb128 .LEHB7-.LFB10131
	.uleb128 .LEHE7-.LEHB7
	.uleb128 0
	.uleb128 0
.LLSDACSE10131:
	.section	.text._ZN4asio2ip16resolver_serviceINS0_3tcpEED0Ev,"axG",@progbits,_ZN4asio2ip16resolver_serviceINS0_3tcpEED5Ev,comdat
	.size	_ZN4asio2ip16resolver_serviceINS0_3tcpEED0Ev, .-_ZN4asio2ip16resolver_serviceINS0_3tcpEED0Ev
	.section	.text._ZN4asio2ip16resolver_serviceINS0_3tcpEED2Ev,"axG",@progbits,_ZN4asio2ip16resolver_serviceINS0_3tcpEED5Ev,comdat
	.align 2
	.p2align 4
	.weak	_ZN4asio2ip16resolver_serviceINS0_3tcpEED2Ev
	.type	_ZN4asio2ip16resolver_serviceINS0_3tcpEED2Ev, @function
_ZN4asio2ip16resolver_serviceINS0_3tcpEED2Ev:
.LFB10129:
	.cfi_startproc
	.cfi_personality 0x9b,DW.ref.__gxx_personality_v0
	.cfi_lsda 0x1b,.LLSDA10129
	pushq	%r13
	.cfi_def_cfa_offset 16
	.cfi_offset 13, -16
	pushq	%r12
	.cfi_def_cfa_offset 24
	.cfi_offset 12, -24
	pushq	%rbp
	.cfi_def_cfa_offset 32
	.cfi_offset 6, -32
	pushq	%rbx
	.cfi_def_cfa_offset 40
	.cfi_offset 3, -40
	movq	%rdi, %rbx
	subq	$24, %rsp
	.cfi_def_cfa_offset 64
	movq	_ZTVN4asio2ip16resolver_serviceINS0_3tcpEEE@GOTPCREL(%rip), %rax
	movq	104(%rdi), %r12
	addq	$16, %rax
	movq	%rax, (%rdi)
	testq	%r12, %r12
	je	.L401
	movq	(%r12), %rbp
	lock subq	$1, 184(%rbp)
	je	.L479
.L402:
	movl	$8, %esi
	movq	%r12, %rdi
	call	_ZdlPvm@PLT
.L401:
	movq	88(%rbx), %rax
	movq	$0, 104(%rbx)
	testq	%rax, %rax
	je	.L480
	movq	8(%rax), %rbp
	leaq	48(%rbp), %r12
	movq	%r12, %rdi
	call	pthread_mutex_lock@PLT
	movb	$1, 208(%rbp)
	leaq	88(%rbp), %rdi
	orq	$1, 136(%rbp)
	call	pthread_cond_broadcast@PLT
	cmpb	$0, 176(%rbp)
	jne	.L406
	movq	144(%rbp), %rax
	testq	%rax, %rax
	je	.L406
	movb	$1, 176(%rbp)
	leaq	88(%rax), %rdx
	leaq	4(%rsp), %rcx
	movl	$3, %esi
	movq	%rdx, 8(%rsp)
	movl	88(%rax), %edx
	movl	$-2147483639, 4(%rsp)
	movl	96(%rax), %edi
	call	epoll_ctl@PLT
.L406:
	movq	%r12, %rdi
	call	pthread_mutex_unlock@PLT
	movq	112(%rbx), %rbp
	testq	%rbp, %rbp
	je	.L407
	cmpb	$0, 8(%rbp)
	je	.L481
.L408:
	movl	$16, %esi
	movq	%rbp, %rdi
	call	_ZdlPvm@PLT
.L409:
	movq	88(%rbx), %r13
	movq	$0, 112(%rbx)
	testq	%r13, %r13
	je	.L413
.L412:
	movq	0(%r13), %r12
	testq	%r12, %r12
	je	.L414
	movq	56(%r12), %rbp
	testq	%rbp, %rbp
	je	.L416
	.p2align 4
	.p2align 3
.L415:
	movq	0(%rbp), %rax
	movq	%rbp, %rdi
	call	*16(%rax)
	movq	32(%rbp), %rbp
	testq	%rbp, %rbp
	jne	.L415
	movq	56(%r12), %rbp
	testq	%rbp, %rbp
	je	.L416
	.p2align 4
	.p2align 3
.L417:
	movq	%rbp, %rdi
	movq	32(%rbp), %rbp
	movq	(%rdi), %rax
	call	*8(%rax)
	movq	%rbp, 56(%r12)
	testq	%rbp, %rbp
	jne	.L417
.L416:
	leaq	8(%r12), %rdi
	call	pthread_mutex_destroy@PLT
	movl	$64, %esi
	movq	%r12, %rdi
	call	_ZdlPvm@PLT
.L414:
	movl	$16, %esi
	movq	%r13, %rdi
	call	_ZdlPvm@PLT
	movq	$0, 88(%rbx)
	movq	112(%rbx), %rbp
.L405:
	testq	%rbp, %rbp
	je	.L413
	cmpb	$0, 8(%rbp)
	je	.L482
.L418:
	movl	$16, %esi
	movq	%rbp, %rdi
	call	_ZdlPvm@PLT
.L413:
	movq	104(%rbx), %r12
	testq	%r12, %r12
	je	.L419
	movq	(%r12), %rbp
	lock subq	$1, 184(%rbp)
	je	.L483
.L420:
	movl	$8, %esi
	movq	%r12, %rdi
	call	_ZdlPvm@PLT
.L419:
	movq	88(%rbx), %r13
	testq	%r13, %r13
	je	.L422
	movq	0(%r13), %r12
	testq	%r12, %r12
	je	.L423
	movq	56(%r12), %rbp
	testq	%rbp, %rbp
	je	.L425
	.p2align 4
	.p2align 3
.L424:
	movq	0(%rbp), %rax
	movq	%rbp, %rdi
	call	*16(%rax)
	movq	32(%rbp), %rbp
	testq	%rbp, %rbp
	jne	.L424
	movq	56(%r12), %rbp
	testq	%rbp, %rbp
	je	.L425
	.p2align 4
	.p2align 3
.L426:
	movq	%rbp, %rdi
	movq	32(%rbp), %rbp
	movq	(%rdi), %rax
	call	*8(%rax)
	movq	%rbp, 56(%r12)
	testq	%rbp, %rbp
	jne	.L426
.L425:
	leaq	8(%r12), %rdi
	call	pthread_mutex_destroy@PLT
	movl	$64, %esi
	movq	%r12, %rdi
	call	_ZdlPvm@PLT
.L423:
	movl	$16, %esi
	movq	%r13, %rdi
	call	_ZdlPvm@PLT
.L422:
	addq	$24, %rsp
	.cfi_remember_state
	.cfi_def_cfa_offset 40
	leaq	48(%rbx), %rdi
	popq	%rbx
	.cfi_def_cfa_offset 32
	popq	%rbp
	.cfi_def_cfa_offset 24
	popq	%r12
	.cfi_def_cfa_offset 16
	popq	%r13
	.cfi_def_cfa_offset 8
.LEHB8:
	jmp	pthread_mutex_destroy@PLT
.LEHE8:
	.p2align 4,,10
	.p2align 3
.L480:
	.cfi_restore_state
	movq	112(%rbx), %rbp
	jmp	.L405
	.p2align 4,,10
	.p2align 3
.L482:
	movq	0(%rbp), %rdi
	call	pthread_detach@PLT
	jmp	.L418
	.p2align 4,,10
	.p2align 3
.L479:
	leaq	48(%rbp), %r13
	movq	%r13, %rdi
	call	pthread_mutex_lock@PLT
	movb	$1, 208(%rbp)
	leaq	88(%rbp), %rdi
	orq	$1, 136(%rbp)
	call	pthread_cond_broadcast@PLT
	cmpb	$0, 176(%rbp)
	jne	.L403
	movq	144(%rbp), %rax
	testq	%rax, %rax
	je	.L403
	movb	$1, 176(%rbp)
	leaq	88(%rax), %rdx
	leaq	4(%rsp), %rcx
	movl	$3, %esi
	movq	%rdx, 8(%rsp)
	movl	88(%rax), %edx
	movl	$-2147483639, 4(%rsp)
	movl	96(%rax), %edi
	call	epoll_ctl@PLT
.L403:
	movq	%r13, %rdi
	call	pthread_mutex_unlock@PLT
	jmp	.L402
	.p2align 4,,10
	.p2align 3
.L407:
	movq	88(%rbx), %r13
	testq	%r13, %r13
	jne	.L412
	jmp	.L413
	.p2align 4,,10
	.p2align 3
.L483:
	leaq	48(%rbp), %r13
	movq	%r13, %rdi
	call	pthread_mutex_lock@PLT
	movb	$1, 208(%rbp)
	leaq	88(%rbp), %rdi
	orq	$1, 136(%rbp)
	call	pthread_cond_broadcast@PLT
	cmpb	$0, 176(%rbp)
	jne	.L421
	movq	144(%rbp), %rax
	testq	%rax, %rax
	je	.L421
	movb	$1, 176(%rbp)
	leaq	88(%rax), %rdx
	leaq	4(%rsp), %rcx
	movl	$3, %esi
	movq	%rdx, 8(%rsp)
	movl	88(%rax), %edx
	movl	$-2147483639, 4(%rsp)
	movl	96(%rax), %edi
	call	epoll_ctl@PLT
.L421:
	movq	%r13, %rdi
	call	pthread_mutex_unlock@PLT
	jmp	.L420
	.p2align 4,,10
	.p2align 3
.L481:
	movq	0(%rbp), %rdi
	xorl	%esi, %esi
	call	pthread_join@PLT
	movb	$1, 8(%rbp)
	movq	112(%rbx), %rbp
	testq	%rbp, %rbp
	je	.L409
	cmpb	$0, 8(%rbp)
	jne	.L408
	movq	0(%rbp), %rdi
	call	pthread_detach@PLT
	jmp	.L408
	.cfi_endproc
.LFE10129:
	.section	.gcc_except_table._ZN4asio2ip16resolver_serviceINS0_3tcpEED2Ev,"aG",@progbits,_ZN4asio2ip16resolver_serviceINS0_3tcpEED5Ev,comdat
.LLSDA10129:
	.byte	0xff
	.byte	0xff
	.byte	0x1
	.uleb128 .LLSDACSE10129-.LLSDACSB10129
.LLSDACSB10129:
	.uleb128 .LEHB8-.LFB10129
	.uleb128 .LEHE8-.LEHB8
	.uleb128 0
	.uleb128 0
.LLSDACSE10129:
	.section	.text._ZN4asio2ip16resolver_serviceINS0_3tcpEED2Ev,"axG",@progbits,_ZN4asio2ip16resolver_serviceINS0_3tcpEED5Ev,comdat
	.size	_ZN4asio2ip16resolver_serviceINS0_3tcpEED2Ev, .-_ZN4asio2ip16resolver_serviceINS0_3tcpEED2Ev
	.weak	_ZN4asio2ip16resolver_serviceINS0_3tcpEED1Ev
	.set	_ZN4asio2ip16resolver_serviceINS0_3tcpEED1Ev,_ZN4asio2ip16resolver_serviceINS0_3tcpEED2Ev
	.section	.text._ZNK4asio6detail15system_category7messageB5cxx11Ei,"axG",@progbits,_ZNK4asio6detail15system_category7messageB5cxx11Ei,comdat
	.align 2
	.p2align 4
	.weak	_ZNK4asio6detail15system_category7messageB5cxx11Ei
	.type	_ZNK4asio6detail15system_category7messageB5cxx11Ei, @function
_ZNK4asio6detail15system_category7messageB5cxx11Ei:
.LFB2279:
	.cfi_startproc
	pushq	%r12
	.cfi_def_cfa_offset 16
	.cfi_offset 12, -16
	pushq	%rbp
	.cfi_def_cfa_offset 24
	.cfi_offset 6, -24
	pushq	%rbx
	.cfi_def_cfa_offset 32
	.cfi_offset 3, -32
	movq	%rdi, %rbx
	subq	$288, %rsp
	.cfi_def_cfa_offset 320
	cmpl	$125, %edx
	je	.L496
	pxor	%xmm0, %xmm0
	leaq	32(%rsp), %rsi
	leaq	16(%rbx), %rbp
	movl	%edx, %edi
	movl	$256, %edx
	movaps	%xmm0, 32(%rsp)
	movaps	%xmm0, 48(%rsp)
	movaps	%xmm0, 64(%rsp)
	movaps	%xmm0, 80(%rsp)
	movaps	%xmm0, 96(%rsp)
	movaps	%xmm0, 112(%rsp)
	movaps	%xmm0, 128(%rsp)
	movaps	%xmm0, 144(%rsp)
	movaps	%xmm0, 160(%rsp)
	movaps	%xmm0, 176(%rsp)
	movaps	%xmm0, 192(%rsp)
	movaps	%xmm0, 208(%rsp)
	movaps	%xmm0, 224(%rsp)
	movaps	%xmm0, 240(%rsp)
	movaps	%xmm0, 256(%rsp)
	movaps	%xmm0, 272(%rsp)
	call	strerror_r@PLT
	movq	%rbp, (%rbx)
	movq	%rax, %r12
	testq	%rax, %rax
	je	.L497
	movq	%rax, %rdi
	call	strlen@PLT
	movq	%rax, 24(%rsp)
	movq	%rax, %rcx
	cmpq	$15, %rax
	ja	.L498
	cmpq	$1, %rax
	jne	.L490
	movzbl	(%r12), %edx
	movb	%dl, 16(%rbx)
.L491:
	movq	%rax, 8(%rbx)
	movb	$0, 0(%rbp,%rax)
	addq	$288, %rsp
	.cfi_remember_state
	.cfi_def_cfa_offset 32
	movq	%rbx, %rax
	popq	%rbx
	.cfi_def_cfa_offset 24
	popq	%rbp
	.cfi_def_cfa_offset 16
	popq	%r12
	.cfi_def_cfa_offset 8
	ret
	.p2align 4,,10
	.p2align 3
.L498:
	.cfi_restore_state
	leaq	24(%rsp), %rsi
	xorl	%edx, %edx
	movq	%rbx, %rdi
	movq	%rax, 8(%rsp)
	call	_ZNSt7__cxx1112basic_stringIcSt11char_traitsIcESaIcEE9_M_createERmm@PLT
	movq	8(%rsp), %rcx
	movq	%rax, (%rbx)
	movq	%rax, %rbp
	movq	24(%rsp), %rax
	movq	%rax, 16(%rbx)
.L489:
	movq	%rbp, %rdi
	movq	%rcx, %rdx
	movq	%r12, %rsi
	call	memcpy@PLT
	movq	24(%rsp), %rax
	movq	(%rbx), %rbp
	jmp	.L491
	.p2align 4,,10
	.p2align 3
.L496:
	leaq	16(%rdi), %rax
	leaq	32(%rsp), %rsi
	xorl	%edx, %edx
	movq	$18, 32(%rsp)
	movq	%rax, (%rdi)
	call	_ZNSt7__cxx1112basic_stringIcSt11char_traitsIcESaIcEE9_M_createERmm@PLT
	movq	32(%rsp), %rdx
	movdqa	.LC6(%rip), %xmm0
	movq	%rax, (%rbx)
	movq	%rdx, 16(%rbx)
	movl	$11876, %edx
	movw	%dx, 16(%rax)
	movups	%xmm0, (%rax)
	movq	32(%rsp), %rax
	movq	(%rbx), %rdx
	movq	%rax, 8(%rbx)
	movb	$0, (%rdx,%rax)
	addq	$288, %rsp
	.cfi_remember_state
	.cfi_def_cfa_offset 32
	movq	%rbx, %rax
	popq	%rbx
	.cfi_def_cfa_offset 24
	popq	%rbp
	.cfi_def_cfa_offset 16
	popq	%r12
	.cfi_def_cfa_offset 8
	ret
	.p2align 4,,10
	.p2align 3
.L490:
	.cfi_restore_state
	testq	%rax, %rax
	je	.L491
	jmp	.L489
.L497:
	leaq	.LC4(%rip), %rdi
	call	_ZSt19__throw_logic_errorPKc@PLT
	.cfi_endproc
.LFE2279:
	.size	_ZNK4asio6detail15system_category7messageB5cxx11Ei, .-_ZNK4asio6detail15system_category7messageB5cxx11Ei
	.section	.text._ZNK4asio5error6detail17addrinfo_category7messageB5cxx11Ei,"axG",@progbits,_ZNK4asio5error6detail17addrinfo_category7messageB5cxx11Ei,comdat
	.align 2
	.p2align 4
	.weak	_ZNK4asio5error6detail17addrinfo_category7messageB5cxx11Ei
	.type	_ZNK4asio5error6detail17addrinfo_category7messageB5cxx11Ei, @function
_ZNK4asio5error6detail17addrinfo_category7messageB5cxx11Ei:
.LFB2333:
	.cfi_startproc
	pushq	%rbx
	.cfi_def_cfa_offset 16
	.cfi_offset 3, -16
	leaq	16(%rdi), %rax
	movq	%rdi, %rbx
	subq	$16, %rsp
	.cfi_def_cfa_offset 32
	movq	%rax, (%rdi)
	cmpl	$-8, %edx
	je	.L504
	cmpl	$-7, %edx
	je	.L505
	movq	$19, 8(%rsp)
	leaq	8(%rsp), %rsi
	xorl	%edx, %edx
	call	_ZNSt7__cxx1112basic_stringIcSt11char_traitsIcESaIcEE9_M_createERmm@PLT
	movq	8(%rsp), %rdx
	movdqa	.LC11(%rip), %xmm0
	movq	%rax, (%rbx)
	movq	%rdx, 16(%rbx)
	movups	%xmm0, (%rax)
	movl	$1919906418, 15(%rax)
	movq	8(%rsp), %rax
	movq	(%rbx), %rdx
	movq	%rax, 8(%rbx)
	movb	$0, (%rdx,%rax)
	addq	$16, %rsp
	.cfi_remember_state
	.cfi_def_cfa_offset 16
	movq	%rbx, %rax
	popq	%rbx
	.cfi_def_cfa_offset 8
	ret
	.p2align 4,,10
	.p2align 3
.L505:
	.cfi_restore_state
	movq	$25, 8(%rsp)
	leaq	8(%rsp), %rsi
	xorl	%edx, %edx
	call	_ZNSt7__cxx1112basic_stringIcSt11char_traitsIcESaIcEE9_M_createERmm@PLT
	movq	8(%rsp), %rdx
	movdqa	.LC9(%rip), %xmm0
	movq	%rax, (%rbx)
	movq	%rdx, 16(%rbx)
	movups	%xmm0, (%rax)
	movdqa	.LC10(%rip), %xmm0
	movups	%xmm0, 9(%rax)
	movq	8(%rsp), %rax
	movq	(%rbx), %rdx
	movq	%rax, 8(%rbx)
	movb	$0, (%rdx,%rax)
	addq	$16, %rsp
	.cfi_remember_state
	.cfi_def_cfa_offset 16
	movq	%rbx, %rax
	popq	%rbx
	.cfi_def_cfa_offset 8
	ret
	.p2align 4,,10
	.p2align 3
.L504:
	.cfi_restore_state
	movq	$17, 8(%rsp)
	leaq	8(%rsp), %rsi
	xorl	%edx, %edx
	call	_ZNSt7__cxx1112basic_stringIcSt11char_traitsIcESaIcEE9_M_createERmm@PLT
	movq	8(%rsp), %rdx
	movdqa	.LC8(%rip), %xmm0
	movq	%rax, (%rbx)
	movq	%rdx, 16(%rbx)
	movb	$100, 16(%rax)
	movups	%xmm0, (%rax)
	movq	8(%rsp), %rax
	movq	(%rbx), %rdx
	movq	%rax, 8(%rbx)
	movb	$0, (%rdx,%rax)
	addq	$16, %rsp
	.cfi_def_cfa_offset 16
	movq	%rbx, %rax
	popq	%rbx
	.cfi_def_cfa_offset 8
	ret
	.cfi_endproc
.LFE2333:
	.size	_ZNK4asio5error6detail17addrinfo_category7messageB5cxx11Ei, .-_ZNK4asio5error6detail17addrinfo_category7messageB5cxx11Ei
	.section	.rodata._ZNK4asio5error6detail13misc_category7messageB5cxx11Ei.str1.1,"aMS",@progbits,1
.LC12:
	.string	"Element not found"
	.section	.text._ZNK4asio5error6detail13misc_category7messageB5cxx11Ei,"axG",@progbits,_ZNK4asio5error6detail13misc_category7messageB5cxx11Ei,comdat
	.align 2
	.p2align 4
	.weak	_ZNK4asio5error6detail13misc_category7messageB5cxx11Ei
	.type	_ZNK4asio5error6detail13misc_category7messageB5cxx11Ei, @function
_ZNK4asio5error6detail13misc_category7messageB5cxx11Ei:
.LFB2343:
	.cfi_startproc
	cmpl	$1, %edx
	je	.L515
	cmpl	$2, %edx
	je	.L516
	subq	$40, %rsp
	.cfi_def_cfa_offset 48
	cmpl	$3, %edx
	je	.L517
	leaq	16(%rdi), %rax
	movq	%rax, (%rdi)
	cmpl	$4, %edx
	je	.L518
	movabsq	$8316298233121436513, %rcx
	movq	$15, 8(%rdi)
	movq	%rdi, %rax
	movabsq	$8245935278387127155, %rsi
	movq	%rcx, 16(%rdi)
	movq	%rsi, 23(%rdi)
	movb	$0, 31(%rdi)
	addq	$40, %rsp
	.cfi_def_cfa_offset 8
	ret
	.p2align 4,,10
	.p2align 3
.L515:
	leaq	16(%rdi), %rax
	movl	$1852141679, 24(%rdi)
	movabsq	$2340011850872286273, %rcx
	movq	%rax, (%rdi)
	movq	%rdi, %rax
	movq	%rcx, 16(%rdi)
	movq	$12, 8(%rdi)
	movb	$0, 28(%rdi)
	ret
	.p2align 4,,10
	.p2align 3
.L518:
	.cfi_def_cfa_offset 48
	leaq	24(%rsp), %rsi
	xorl	%edx, %edx
	movq	%rdi, 8(%rsp)
	movq	$57, 24(%rsp)
	call	_ZNSt7__cxx1112basic_stringIcSt11char_traitsIcESaIcEE9_M_createERmm@PLT
	movq	8(%rsp), %rdi
	movq	24(%rsp), %rdx
	movdqa	.LC13(%rip), %xmm0
	movq	%rax, (%rdi)
	movq	%rdx, 16(%rdi)
	movups	%xmm0, (%rax)
	movdqa	.LC14(%rip), %xmm0
	movups	%xmm0, 16(%rax)
	movdqa	.LC15(%rip), %xmm0
	movups	%xmm0, 32(%rax)
	movdqa	.LC16(%rip), %xmm0
	movups	%xmm0, 41(%rax)
	movq	(%rdi), %rax
	movq	%rdx, 8(%rdi)
	movb	$0, (%rax,%rdx)
	movq	%rdi, %rax
	addq	$40, %rsp
	.cfi_def_cfa_offset 8
	ret
	.p2align 4,,10
	.p2align 3
.L516:
	leaq	16(%rdi), %rax
	movq	$11, 8(%rdi)
	movabsq	$7358994418594246213, %rcx
	movq	%rax, (%rdi)
	movq	%rdi, %rax
	movq	%rcx, 16(%rdi)
	movb	$0, 27(%rdi)
	movl	$1701603686, 23(%rdi)
	ret
	.p2align 4,,10
	.p2align 3
.L517:
	.cfi_def_cfa_offset 48
	leaq	.LC12(%rip), %rsi
	movq	%rdi, 8(%rsp)
	call	_ZNSt7__cxx1112basic_stringIcSt11char_traitsIcESaIcEEC2EPKcRKS3_.isra.0
	movq	8(%rsp), %rdi
	addq	$40, %rsp
	.cfi_def_cfa_offset 8
	movq	%rdi, %rax
	ret
	.cfi_endproc
.LFE2343:
	.size	_ZNK4asio5error6detail13misc_category7messageB5cxx11Ei, .-_ZNK4asio5error6detail13misc_category7messageB5cxx11Ei
	.section	.rodata._ZNK4asio5error6detail14netdb_category7messageB5cxx11Ei.str1.8,"aMS",@progbits,1
	.align 8
.LC17:
	.string	"The query is valid, but it does not have associated data"
	.section	.text._ZNK4asio5error6detail14netdb_category7messageB5cxx11Ei,"axG",@progbits,_ZNK4asio5error6detail14netdb_category7messageB5cxx11Ei,comdat
	.align 2
	.p2align 4
	.weak	_ZNK4asio5error6detail14netdb_category7messageB5cxx11Ei
	.type	_ZNK4asio5error6detail14netdb_category7messageB5cxx11Ei, @function
_ZNK4asio5error6detail14netdb_category7messageB5cxx11Ei:
.LFB2323:
	.cfi_startproc
	pushq	%rbx
	.cfi_def_cfa_offset 16
	.cfi_offset 3, -16
	movq	%rdi, %rbx
	subq	$16, %rsp
	.cfi_def_cfa_offset 32
	cmpl	$1, %edx
	je	.L526
	cmpl	$2, %edx
	je	.L527
	cmpl	$4, %edx
	je	.L528
	leaq	16(%rdi), %rax
	movq	%rax, (%rdi)
	cmpl	$3, %edx
	je	.L529
	movq	$16, 8(%rsp)
	leaq	8(%rsp), %rsi
	xorl	%edx, %edx
	call	_ZNSt7__cxx1112basic_stringIcSt11char_traitsIcESaIcEE9_M_createERmm@PLT
	movq	8(%rsp), %rdx
	movdqa	.LC25(%rip), %xmm0
	movq	%rax, (%rbx)
	movq	%rdx, 16(%rbx)
	movups	%xmm0, (%rax)
	movq	8(%rsp), %rax
	movq	(%rbx), %rdx
	movq	%rax, 8(%rbx)
	movb	$0, (%rdx,%rax)
	addq	$16, %rsp
	.cfi_remember_state
	.cfi_def_cfa_offset 16
	movq	%rbx, %rax
	popq	%rbx
	.cfi_def_cfa_offset 8
	ret
	.p2align 4,,10
	.p2align 3
.L526:
	.cfi_restore_state
	leaq	16(%rdi), %rax
	leaq	8(%rsp), %rsi
	xorl	%edx, %edx
	movq	$30, 8(%rsp)
	movq	%rax, (%rdi)
	call	_ZNSt7__cxx1112basic_stringIcSt11char_traitsIcESaIcEE9_M_createERmm@PLT
	movq	8(%rsp), %rdx
	movdqa	.LC18(%rip), %xmm0
	movq	%rax, (%rbx)
	movq	%rdx, 16(%rbx)
	movups	%xmm0, (%rax)
	movdqa	.LC19(%rip), %xmm0
	movups	%xmm0, 14(%rax)
	movq	8(%rsp), %rax
	movq	(%rbx), %rdx
	movq	%rax, 8(%rbx)
	movb	$0, (%rdx,%rax)
	addq	$16, %rsp
	.cfi_remember_state
	.cfi_def_cfa_offset 16
	movq	%rbx, %rax
	popq	%rbx
	.cfi_def_cfa_offset 8
	ret
	.p2align 4,,10
	.p2align 3
.L529:
	.cfi_restore_state
	movq	$55, 8(%rsp)
	leaq	8(%rsp), %rsi
	xorl	%edx, %edx
	call	_ZNSt7__cxx1112basic_stringIcSt11char_traitsIcESaIcEE9_M_createERmm@PLT
	movq	8(%rsp), %rdx
	movdqa	.LC22(%rip), %xmm0
	movabsq	$8103501230877974629, %rcx
	movq	%rax, (%rbx)
	movq	%rdx, 16(%rbx)
	movups	%xmm0, (%rax)
	movdqa	.LC23(%rip), %xmm0
	movups	%xmm0, 16(%rax)
	movdqa	.LC24(%rip), %xmm0
	movups	%xmm0, 32(%rax)
	movq	%rcx, 47(%rax)
	movq	8(%rsp), %rax
	movq	(%rbx), %rdx
	movq	%rax, 8(%rbx)
	movb	$0, (%rdx,%rax)
	addq	$16, %rsp
	.cfi_remember_state
	.cfi_def_cfa_offset 16
	movq	%rbx, %rax
	popq	%rbx
	.cfi_def_cfa_offset 8
	ret
	.p2align 4,,10
	.p2align 3
.L527:
	.cfi_restore_state
	leaq	16(%rdi), %rax
	leaq	8(%rsp), %rsi
	xorl	%edx, %edx
	movq	$51, 8(%rsp)
	movq	%rax, (%rdi)
	call	_ZNSt7__cxx1112basic_stringIcSt11char_traitsIcESaIcEE9_M_createERmm@PLT
	movq	8(%rsp), %rdx
	movdqa	.LC18(%rip), %xmm0
	movq	%rax, (%rbx)
	movq	%rdx, 16(%rbx)
	movups	%xmm0, (%rax)
	movdqa	.LC20(%rip), %xmm0
	movups	%xmm0, 16(%rax)
	movdqa	.LC21(%rip), %xmm0
	movups	%xmm0, 32(%rax)
	movl	$1919251553, 47(%rax)
	movq	8(%rsp), %rax
	movq	(%rbx), %rdx
	movq	%rax, 8(%rbx)
	movb	$0, (%rdx,%rax)
	addq	$16, %rsp
	.cfi_remember_state
	.cfi_def_cfa_offset 16
	movq	%rbx, %rax
	popq	%rbx
	.cfi_def_cfa_offset 8
	ret
	.p2align 4,,10
	.p2align 3
.L528:
	.cfi_restore_state
	leaq	.LC17(%rip), %rsi
	call	_ZNSt7__cxx1112basic_stringIcSt11char_traitsIcESaIcEEC2EPKcRKS3_.isra.0
	addq	$16, %rsp
	.cfi_def_cfa_offset 16
	movq	%rbx, %rax
	popq	%rbx
	.cfi_def_cfa_offset 8
	ret
	.cfi_endproc
.LFE2323:
	.size	_ZNK4asio5error6detail14netdb_category7messageB5cxx11Ei, .-_ZNK4asio5error6detail14netdb_category7messageB5cxx11Ei
	.section	.text._ZN4asio6detail16thread_info_base8allocateEPS1_m,"axG",@progbits,_ZN4asio6detail16thread_info_base8allocateEPS1_m,comdat
	.p2align 4
	.weak	_ZN4asio6detail16thread_info_base8allocateEPS1_m
	.type	_ZN4asio6detail16thread_info_base8allocateEPS1_m, @function
_ZN4asio6detail16thread_info_base8allocateEPS1_m:
.LFB2106:
	.cfi_startproc
	pushq	%rbx
	.cfi_def_cfa_offset 16
	.cfi_offset 3, -16
	movq	%rsi, %rbx
	testq	%rdi, %rdi
	je	.L531
	movq	(%rdi), %rax
	testq	%rax, %rax
	je	.L531
	movq	$0, (%rdi)
	movzbl	(%rax), %ecx
	movq	%rcx, %rdx
	cmpq	%rsi, %rcx
	jb	.L532
	movb	%dl, (%rax,%rbx)
	popq	%rbx
	.cfi_remember_state
	.cfi_def_cfa_offset 8
	ret
	.p2align 4,,10
	.p2align 3
.L532:
	.cfi_restore_state
	movq	%rax, %rdi
	call	_ZdlPv@PLT
.L531:
	leaq	1(%rbx), %rdi
	call	_Znwm@PLT
	xorl	%edx, %edx
	cmpq	$256, %rbx
	cmovb	%rbx, %rdx
	movb	%dl, (%rax,%rbx)
	popq	%rbx
	.cfi_def_cfa_offset 8
	ret
	.cfi_endproc
.LFE2106:
	.size	_ZN4asio6detail16thread_info_base8allocateEPS1_m, .-_ZN4asio6detail16thread_info_base8allocateEPS1_m
	.section	.text._ZN4asio15system_categoryEv,"axG",@progbits,_ZN4asio15system_categoryEv,comdat
	.p2align 4
	.weak	_ZN4asio15system_categoryEv
	.type	_ZN4asio15system_categoryEv, @function
_ZN4asio15system_categoryEv:
.LFB2282:
	.cfi_startproc
	movq	_ZGVZN4asio15system_categoryEvE8instance@GOTPCREL(%rip), %rax
	movzbl	(%rax), %eax
	testb	%al, %al
	je	.L545
	movq	_ZZN4asio15system_categoryEvE8instance@GOTPCREL(%rip), %rax
	ret
	.p2align 4,,10
	.p2align 3
.L545:
	subq	$24, %rsp
	.cfi_def_cfa_offset 32
	movq	_ZGVZN4asio15system_categoryEvE8instance@GOTPCREL(%rip), %rdi
	call	__cxa_guard_acquire@PLT
	movq	_ZZN4asio15system_categoryEvE8instance@GOTPCREL(%rip), %rcx
	testl	%eax, %eax
	jne	.L550
	movq	%rcx, %rax
	addq	$24, %rsp
	.cfi_remember_state
	.cfi_def_cfa_offset 8
	ret
	.p2align 4,,10
	.p2align 3
.L550:
	.cfi_restore_state
	movq	_ZN4asio6detail15system_categoryD1Ev@GOTPCREL(%rip), %rdi
	movq	%rcx, %rsi
	movq	%rcx, 8(%rsp)
	leaq	__dso_handle(%rip), %rdx
	call	__cxa_atexit@PLT
	movq	_ZGVZN4asio15system_categoryEvE8instance@GOTPCREL(%rip), %rdi
	call	__cxa_guard_release@PLT
	movq	8(%rsp), %rcx
	addq	$24, %rsp
	.cfi_def_cfa_offset 8
	movq	%rcx, %rax
	ret
	.cfi_endproc
.LFE2282:
	.size	_ZN4asio15system_categoryEv, .-_ZN4asio15system_categoryEv
	.section	.text._ZN4asio6detail31reactive_socket_connect_op_base10do_performEPNS0_10reactor_opE,"axG",@progbits,_ZN4asio6detail31reactive_socket_connect_op_base10do_performEPNS0_10reactor_opE,comdat
	.p2align 4
	.weak	_ZN4asio6detail31reactive_socket_connect_op_base10do_performEPNS0_10reactor_opE
	.type	_ZN4asio6detail31reactive_socket_connect_op_base10do_performEPNS0_10reactor_opE, @function
_ZN4asio6detail31reactive_socket_connect_op_base10do_performEPNS0_10reactor_opE:
.LFB3765:
	.cfi_startproc
	pushq	%rbp
	.cfi_def_cfa_offset 16
	.cfi_offset 6, -16
	xorl	%edx, %edx
	movl	$1, %esi
	pushq	%rbx
	.cfi_def_cfa_offset 24
	.cfi_offset 3, -24
	movq	%rdi, %rbx
	subq	$40, %rsp
	.cfi_def_cfa_offset 64
	movl	56(%rdi), %ebp
	leaq	24(%rsp), %rdi
	movl	$4, 28(%rsp)
	movl	%ebp, 24(%rsp)
	call	poll@PLT
	testl	%eax, %eax
	jne	.L564
	addq	$40, %rsp
	.cfi_remember_state
	.cfi_def_cfa_offset 24
	xorl	%eax, %eax
	popq	%rbx
	.cfi_def_cfa_offset 16
	popq	%rbp
	.cfi_def_cfa_offset 8
	ret
	.p2align 4,,10
	.p2align 3
.L564:
	.cfi_restore_state
	movl	$0, 16(%rsp)
	cmpl	$-1, %ebp
	je	.L565
	call	__errno_location@PLT
	movl	$4, %edx
	movl	%ebp, %edi
	leaq	16(%rsp), %rcx
	movl	$0, (%rax)
	leaq	20(%rsp), %r8
	movl	$1, %esi
	movq	%rax, 8(%rsp)
	movl	$4, 20(%rsp)
	call	getsockopt@PLT
	movl	%eax, %ebp
	call	_ZN4asio15system_categoryEv@PLT
	movq	8(%rsp), %r9
	movl	(%r9), %edx
	movq	%rax, 32(%rbx)
	movl	%edx, 24(%rbx)
	testl	%ebp, %ebp
	jne	.L557
	call	_ZNSt3_V215system_categoryEv@PLT
	movl	$0, 24(%rbx)
	movq	%rax, 32(%rbx)
	movl	16(%rsp), %eax
	testl	%eax, %eax
	jne	.L566
.L557:
	addq	$40, %rsp
	.cfi_remember_state
	.cfi_def_cfa_offset 24
	movl	$1, %eax
	popq	%rbx
	.cfi_def_cfa_offset 16
	popq	%rbp
	.cfi_def_cfa_offset 8
	ret
	.p2align 4,,10
	.p2align 3
.L566:
	.cfi_restore_state
	call	_ZN4asio15system_categoryEv@PLT
	movl	16(%rsp), %edx
	movq	%rax, 32(%rbx)
	movl	%edx, 24(%rbx)
	jmp	.L557
.L565:
	call	_ZN4asio15system_categoryEv@PLT
	movl	$9, 24(%rbx)
	movq	%rax, 32(%rbx)
	jmp	.L557
	.cfi_endproc
.LFE3765:
	.size	_ZN4asio6detail31reactive_socket_connect_op_base10do_performEPNS0_10reactor_opE, .-_ZN4asio6detail31reactive_socket_connect_op_base10do_performEPNS0_10reactor_opE
	.text
	.p2align 4
	.type	_ZN4asio6detail10socket_ops5closeEiRhbRSt10error_code.isra.0, @function
_ZN4asio6detail10socket_ops5closeEiRhbRSt10error_code.isra.0:
.LFB10312:
	.cfi_startproc
	pushq	%r13
	.cfi_def_cfa_offset 16
	.cfi_offset 13, -16
	pushq	%r12
	.cfi_def_cfa_offset 24
	.cfi_offset 12, -24
	pushq	%rbp
	.cfi_def_cfa_offset 32
	.cfi_offset 6, -32
	pushq	%rbx
	.cfi_def_cfa_offset 40
	.cfi_offset 3, -40
	movq	%rcx, %rbx
	subq	$40, %rsp
	.cfi_def_cfa_offset 80
	cmpl	$-1, %edi
	je	.L574
	movl	%edx, (%rsp)
	movl	%edi, %ebp
	movq	%rsi, %r13
	call	__errno_location@PLT
	movq	%rax, %r12
	cmpb	$0, (%rsp)
	je	.L570
	movzbl	0(%r13), %eax
	testb	$8, %al
	jne	.L593
.L570:
	movl	$0, (%r12)
	movl	%ebp, %edi
	call	close@PLT
	movl	%eax, %r8d
	movq	_ZGVZN4asio15system_categoryEvE8instance@GOTPCREL(%rip), %rax
	movzbl	(%rax), %eax
	testb	%al, %al
	je	.L571
.L592:
	movq	_ZZN4asio15system_categoryEvE8instance@GOTPCREL(%rip), %rcx
.L572:
	movl	(%r12), %eax
	movq	%rcx, 8(%rbx)
	movl	%eax, (%rbx)
	testl	%r8d, %r8d
	jne	.L594
.L574:
	call	_ZNSt3_V215system_categoryEv@PLT
	movl	$0, (%rbx)
	movq	%rax, 8(%rbx)
.L567:
	addq	$40, %rsp
	.cfi_remember_state
	.cfi_def_cfa_offset 40
	popq	%rbx
	.cfi_def_cfa_offset 32
	popq	%rbp
	.cfi_def_cfa_offset 24
	popq	%r12
	.cfi_def_cfa_offset 16
	popq	%r13
	.cfi_def_cfa_offset 8
	ret
	.p2align 4,,10
	.p2align 3
.L594:
	.cfi_restore_state
	call	_ZN4asio15system_categoryEv@PLT
	cmpq	8(%rbx), %rax
	je	.L595
.L575:
	call	_ZN4asio15system_categoryEv@PLT
	cmpq	8(%rbx), %rax
	jne	.L567
	cmpl	$11, (%rbx)
	jne	.L567
.L578:
	leaq	24(%rsp), %rdx
	movl	$21537, %esi
	movl	%ebp, %edi
	xorl	%eax, %eax
	movl	$0, 24(%rsp)
	call	ioctl@PLT
	andb	$-4, 0(%r13)
	movl	%ebp, %edi
	movl	$0, (%r12)
	call	close@PLT
	movl	%eax, %ebp
	call	_ZN4asio15system_categoryEv@PLT
	movl	(%r12), %edx
	movq	%rax, 8(%rbx)
	movl	%edx, (%rbx)
	testl	%ebp, %ebp
	jne	.L567
	jmp	.L574
	.p2align 4,,10
	.p2align 3
.L571:
	movq	_ZGVZN4asio15system_categoryEvE8instance@GOTPCREL(%rip), %rdi
	movl	%r8d, (%rsp)
	call	__cxa_guard_acquire@PLT
	movl	(%rsp), %r8d
	testl	%eax, %eax
	je	.L592
	movq	_ZZN4asio15system_categoryEvE8instance@GOTPCREL(%rip), %rcx
	movq	_ZN4asio6detail15system_categoryD1Ev@GOTPCREL(%rip), %rdi
	movl	%r8d, 12(%rsp)
	leaq	__dso_handle(%rip), %rdx
	movq	%rcx, %rsi
	movq	%rcx, (%rsp)
	call	__cxa_atexit@PLT
	movq	_ZGVZN4asio15system_categoryEvE8instance@GOTPCREL(%rip), %rdi
	call	__cxa_guard_release@PLT
	movl	12(%rsp), %r8d
	movq	(%rsp), %rcx
	jmp	.L572
	.p2align 4,,10
	.p2align 3
.L593:
	orl	$8, %eax
	leaq	24(%rsp), %rcx
	movl	$8, %r8d
	movl	%ebp, %edi
	movb	%al, 0(%r13)
	movl	$13, %edx
	movl	$1, %esi
	movq	$0, 24(%rsp)
	movl	$0, (%r12)
	call	setsockopt@PLT
	call	_ZN4asio15system_categoryEv@PLT
	jmp	.L570
	.p2align 4,,10
	.p2align 3
.L595:
	cmpl	$11, (%rbx)
	jne	.L575
	jmp	.L578
	.cfi_endproc
.LFE10312:
	.size	_ZN4asio6detail10socket_ops5closeEiRhbRSt10error_code.isra.0, .-_ZN4asio6detail10socket_ops5closeEiRhbRSt10error_code.isra.0
	.section	.text._ZN4asio6detail16service_registry14do_use_serviceERKNS_10io_service7service3keyEPFPS3_RS2_E,"axG",@progbits,_ZN4asio6detail16service_registry14do_use_serviceERKNS_10io_service7service3keyEPFPS3_RS2_E,comdat
	.align 2
	.p2align 4
	.weak	_ZN4asio6detail16service_registry14do_use_serviceERKNS_10io_service7service3keyEPFPS3_RS2_E
	.type	_ZN4asio6detail16service_registry14do_use_serviceERKNS_10io_service7service3keyEPFPS3_RS2_E, @function
_ZN4asio6detail16service_registry14do_use_serviceERKNS_10io_service7service3keyEPFPS3_RS2_E:
.LFB2699:
	.cfi_startproc
	pushq	%r15
	.cfi_def_cfa_offset 16
	.cfi_offset 15, -16
	leaq	8(%rdi), %rax
	pushq	%r14
	.cfi_def_cfa_offset 24
	.cfi_offset 14, -24
	pushq	%r13
	.cfi_def_cfa_offset 32
	.cfi_offset 13, -32
	pushq	%r12
	.cfi_def_cfa_offset 40
	.cfi_offset 12, -40
	movq	%rdi, %r12
	movq	%rax, %rdi
	pushq	%rbp
	.cfi_def_cfa_offset 48
	.cfi_offset 6, -48
	movq	%rsi, %rbp
	pushq	%rbx
	.cfi_def_cfa_offset 56
	.cfi_offset 3, -56
	subq	$40, %rsp
	.cfi_def_cfa_offset 96
	movq	%rdx, 24(%rsp)
	movq	%rax, 16(%rsp)
	call	pthread_mutex_lock@PLT
	movq	56(%r12), %rbx
	testq	%rbx, %rbx
	je	.L597
	movq	8(%rbp), %r15
	movq	0(%rbp), %r13
	testq	%r15, %r15
	setne	%r8b
	testq	%r13, %r13
	setne	%r14b
	.p2align 4
	.p2align 3
.L602:
	movq	16(%rbx), %rax
	cmpq	%r15, %rax
	sete	%sil
	testq	%rax, %rax
	setne	%al
	testb	%al, %sil
	je	.L609
	testb	%r8b, %r8b
	jne	.L598
.L609:
	movq	8(%rbx), %rax
	testq	%rax, %rax
	je	.L600
	testb	%r14b, %r14b
	je	.L600
	movq	8(%rax), %rdi
	movq	8(%r13), %rsi
	cmpq	%rsi, %rdi
	je	.L598
	cmpb	$42, (%rdi)
	je	.L600
	xorl	%eax, %eax
	cmpb	$42, (%rsi)
	movb	%r8b, 8(%rsp)
	sete	%al
	addq	%rax, %rsi
	call	strcmp@PLT
	movzbl	8(%rsp), %r8d
	testl	%eax, %eax
	jne	.L600
.L598:
	movq	16(%rsp), %rdi
	call	pthread_mutex_unlock@PLT
	addq	$40, %rsp
	.cfi_remember_state
	.cfi_def_cfa_offset 56
	movq	%rbx, %rax
	popq	%rbx
	.cfi_def_cfa_offset 48
	popq	%rbp
	.cfi_def_cfa_offset 40
	popq	%r12
	.cfi_def_cfa_offset 32
	popq	%r13
	.cfi_def_cfa_offset 24
	popq	%r14
	.cfi_def_cfa_offset 16
	popq	%r15
	.cfi_def_cfa_offset 8
	ret
	.p2align 4,,10
	.p2align 3
.L600:
	.cfi_restore_state
	movq	32(%rbx), %rbx
	testq	%rbx, %rbx
	jne	.L602
.L597:
	movq	16(%rsp), %rbx
	movq	%rbx, %rdi
	call	pthread_mutex_unlock@PLT
	movq	48(%r12), %rdi
	call	*24(%rsp)
	movdqu	0(%rbp), %xmm0
	movq	%rbx, %rdi
	movq	%rax, %r15
	movups	%xmm0, 8(%rax)
	call	pthread_mutex_lock@PLT
	movq	56(%r12), %r13
	testq	%r13, %r13
	je	.L603
	movq	0(%rbp), %rcx
	movq	8(%rbp), %rbp
	movq	%r13, %rbx
	testq	%rbp, %rbp
	setne	%r8b
	testq	%rcx, %rcx
	setne	%r14b
	.p2align 4
	.p2align 3
.L608:
	movq	16(%rbx), %rax
	cmpq	%rbp, %rax
	sete	%sil
	testq	%rax, %rax
	setne	%al
	testb	%al, %sil
	je	.L610
	testb	%r8b, %r8b
	jne	.L604
.L610:
	movq	8(%rbx), %rax
	testq	%rax, %rax
	je	.L606
	testb	%r14b, %r14b
	je	.L606
	movq	8(%rax), %rdi
	movq	8(%rcx), %rsi
	cmpq	%rsi, %rdi
	je	.L604
	cmpb	$42, (%rdi)
	je	.L606
	xorl	%eax, %eax
	cmpb	$42, (%rsi)
	movb	%r8b, 24(%rsp)
	sete	%al
	movq	%rcx, 8(%rsp)
	addq	%rax, %rsi
	call	strcmp@PLT
	movq	8(%rsp), %rcx
	movzbl	24(%rsp), %r8d
	testl	%eax, %eax
	jne	.L606
.L604:
	movq	(%r15), %rax
	movq	%r15, %rdi
	call	*8(%rax)
	jmp	.L598
	.p2align 4,,10
	.p2align 3
.L606:
	movq	32(%rbx), %rbx
	testq	%rbx, %rbx
	jne	.L608
.L603:
	movq	%r13, 32(%r15)
	movq	%r15, %rbx
	movq	%r15, 56(%r12)
	jmp	.L598
	.cfi_endproc
.LFE2699:
	.size	_ZN4asio6detail16service_registry14do_use_serviceERKNS_10io_service7service3keyEPFPS3_RS2_E, .-_ZN4asio6detail16service_registry14do_use_serviceERKNS_10io_service7service3keyEPFPS3_RS2_E
	.section	.text._ZN4asio6detail13epoll_reactor3runEbRNS0_8op_queueINS0_25task_io_service_operationEEE,"axG",@progbits,_ZN4asio6detail13epoll_reactor3runEbRNS0_8op_queueINS0_25task_io_service_operationEEE,comdat
	.align 2
	.p2align 4
	.weak	_ZN4asio6detail13epoll_reactor3runEbRNS0_8op_queueINS0_25task_io_service_operationEEE
	.type	_ZN4asio6detail13epoll_reactor3runEbRNS0_8op_queueINS0_25task_io_service_operationEEE, @function
_ZN4asio6detail13epoll_reactor3runEbRNS0_8op_queueINS0_25task_io_service_operationEEE:
.LFB3237:
	.cfi_startproc
	.cfi_personality 0x9b,DW.ref.__gxx_personality_v0
	.cfi_lsda 0x1b,.LLSDA3237
	pushq	%r13
	.cfi_def_cfa_offset 16
	.cfi_offset 13, -16
	pushq	%r12
	.cfi_def_cfa_offset 24
	.cfi_offset 12, -24
	movq	%rdi, %r12
	pushq	%rbp
	.cfi_def_cfa_offset 32
	.cfi_offset 6, -32
	movq	%rdx, %rbp
	pushq	%rbx
	.cfi_def_cfa_offset 40
	.cfi_offset 3, -40
	subq	$1624, %rsp
	.cfi_def_cfa_offset 1664
	cmpl	$-1, 100(%rdi)
	je	.L645
	movzbl	%sil, %ecx
	negl	%ecx
.L646:
	movl	96(%r12), %edi
	movl	$128, %edx
	leaq	80(%rsp), %rsi
.LEHB9:
	call	epoll_wait@PLT
.LEHE9:
	cmpl	$-1, 100(%r12)
	sete	%r8b
	testl	%eax, %eax
	jle	.L650
	cltq
	leaq	80(%rsp), %rdx
	leaq	88(%r12), %rsi
	leaq	(%rax,%rax,2), %rax
	leaq	100(%r12), %r9
	leaq	(%rdx,%rax,4), %rdi
	jmp	.L655
	.p2align 4,,10
	.p2align 3
.L651:
	cmpq	%r9, %rax
	je	.L670
	movl	(%rdx), %ecx
	movq	$0, (%rax)
	movl	%ecx, 16(%rax)
	movq	8(%rbp), %rcx
	testq	%rcx, %rcx
	je	.L653
	movq	%rax, (%rcx)
	movq	%rax, 8(%rbp)
.L652:
	addq	$12, %rdx
	cmpq	%rdx, %rdi
	je	.L650
.L655:
	movq	4(%rdx), %rax
	cmpq	%rsi, %rax
	jne	.L651
	cmpl	$-1, 100(%r12)
	sete	%al
	addq	$12, %rdx
	orl	%eax, %r8d
	cmpq	%rdx, %rdi
	jne	.L655
.L650:
	testb	%r8b, %r8b
	jne	.L685
	addq	$1624, %rsp
	.cfi_remember_state
	.cfi_def_cfa_offset 40
	popq	%rbx
	.cfi_def_cfa_offset 32
	popq	%rbp
	.cfi_def_cfa_offset 24
	popq	%r12
	.cfi_def_cfa_offset 16
	popq	%r13
	.cfi_def_cfa_offset 8
	ret
	.p2align 4,,10
	.p2align 3
.L670:
	.cfi_restore_state
	movl	$1, %r8d
	jmp	.L652
	.p2align 4,,10
	.p2align 3
.L653:
	movq	%rax, %xmm0
	punpcklqdq	%xmm0, %xmm0
	movups	%xmm0, 0(%rbp)
	jmp	.L652
	.p2align 4,,10
	.p2align 3
.L685:
	leaq	48(%r12), %r13
	movq	%r13, %rdi
	call	pthread_mutex_lock@PLT
	movq	104(%r12), %rbx
	testq	%rbx, %rbx
	je	.L660
	.p2align 4
	.p2align 3
.L657:
	movq	(%rbx), %rax
	movq	%rbp, %rsi
	movq	%rbx, %rdi
.LEHB10:
	call	*40(%rax)
	movq	8(%rbx), %rbx
	testq	%rbx, %rbx
	jne	.L657
.L660:
	movl	100(%r12), %edi
	cmpl	$-1, %edi
	je	.L659
	movq	104(%r12), %rbx
	pxor	%xmm0, %xmm0
	movaps	%xmm0, 16(%rsp)
	testq	%rbx, %rbx
	je	.L661
	movl	$300000000, %esi
	.p2align 4
	.p2align 3
.L662:
	movq	(%rbx), %rax
	movq	%rbx, %rdi
	call	*32(%rax)
.LEHE10:
	movq	8(%rbx), %rbx
	movq	%rax, %rsi
	testq	%rbx, %rbx
	jne	.L662
	movabsq	$4835703278458516699, %rax
	movl	100(%r12), %edi
	movl	$1, %ecx
	imulq	%rsi
	movq	%rsi, %rax
	sarq	$63, %rax
	sarq	$18, %rdx
	subq	%rax, %rdx
	movl	$1, %eax
	movq	%rdx, 32(%rsp)
	testq	%rsi, %rsi
	jne	.L686
.L665:
	movq	%rcx, 40(%rsp)
	leaq	16(%rsp), %rdx
	leaq	48(%rsp), %rcx
	movl	%eax, %esi
	call	timerfd_settime@PLT
.L659:
	movq	%r13, %rdi
	call	pthread_mutex_unlock@PLT
	addq	$1624, %rsp
	.cfi_remember_state
	.cfi_def_cfa_offset 40
	popq	%rbx
	.cfi_def_cfa_offset 32
	popq	%rbp
	.cfi_def_cfa_offset 24
	popq	%r12
	.cfi_def_cfa_offset 16
	popq	%r13
	.cfi_def_cfa_offset 8
	ret
	.p2align 4,,10
	.p2align 3
.L645:
	.cfi_restore_state
	leaq	48(%rdi), %rbx
	movl	%esi, 12(%rsp)
	movq	%rbx, %rdi
	call	pthread_mutex_lock@PLT
	cmpb	$0, 12(%rsp)
	je	.L668
	movq	104(%r12), %r13
	testq	%r13, %r13
	je	.L669
	movl	$300000, %esi
	.p2align 4
	.p2align 3
.L649:
	movq	0(%r13), %rax
	movq	%r13, %rdi
.LEHB11:
	call	*24(%rax)
.LEHE11:
	movq	8(%r13), %r13
	movq	%rax, %rsi
	testq	%r13, %r13
	jne	.L649
	movl	%eax, %ecx
.L647:
	movq	%rbx, %rdi
	movl	%ecx, 12(%rsp)
	call	pthread_mutex_unlock@PLT
	movl	12(%rsp), %ecx
	jmp	.L646
.L668:
	xorl	%ecx, %ecx
	jmp	.L647
.L686:
	imulq	$1000000, %rdx, %rdx
	xorl	%eax, %eax
	subq	%rdx, %rsi
	imulq	$1000, %rsi, %rcx
	jmp	.L665
.L661:
	movq	$300, 32(%rsp)
	xorl	%ecx, %ecx
	xorl	%eax, %eax
	jmp	.L665
.L669:
	movl	$300000, %ecx
	jmp	.L647
.L672:
	movq	%rax, %rbp
	jmp	.L666
.L673:
	movq	%rax, %rbx
	jmp	.L667
.L666:
	movq	%rbx, %rdi
	call	pthread_mutex_unlock@PLT
	movq	%rbp, %rdi
.LEHB12:
	call	_Unwind_Resume@PLT
.L667:
	movq	%r13, %rdi
	call	pthread_mutex_unlock@PLT
	movq	%rbx, %rdi
	call	_Unwind_Resume@PLT
.LEHE12:
	.cfi_endproc
.LFE3237:
	.section	.gcc_except_table._ZN4asio6detail13epoll_reactor3runEbRNS0_8op_queueINS0_25task_io_service_operationEEE,"aG",@progbits,_ZN4asio6detail13epoll_reactor3runEbRNS0_8op_queueINS0_25task_io_service_operationEEE,comdat
.LLSDA3237:
	.byte	0xff
	.byte	0xff
	.byte	0x1
	.uleb128 .LLSDACSE3237-.LLSDACSB3237
.LLSDACSB3237:
	.uleb128 .LEHB9-.LFB3237
	.uleb128 .LEHE9-.LEHB9
	.uleb128 0
	.uleb128 0
	.uleb128 .LEHB10-.LFB3237
	.uleb128 .LEHE10-.LEHB10
	.uleb128 .L673-.LFB3237
	.uleb128 0
	.uleb128 .LEHB11-.LFB3237
	.uleb128 .LEHE11-.LEHB11
	.uleb128 .L672-.LFB3237
	.uleb128 0
	.uleb128 .LEHB12-.LFB3237
	.uleb128 .LEHE12-.LEHB12
	.uleb128 0
	.uleb128 0
.LLSDACSE3237:
	.section	.text._ZN4asio6detail13epoll_reactor3runEbRNS0_8op_queueINS0_25task_io_service_operationEEE,"axG",@progbits,_ZN4asio6detail13epoll_reactor3runEbRNS0_8op_queueINS0_25task_io_service_operationEEE,comdat
	.size	_ZN4asio6detail13epoll_reactor3runEbRNS0_8op_queueINS0_25task_io_service_operationEEE, .-_ZN4asio6detail13epoll_reactor3runEbRNS0_8op_queueINS0_25task_io_service_operationEEE
	.section	.text._ZN4asio6detail13epoll_reactor32perform_io_cleanup_on_block_exitD2Ev,"axG",@progbits,_ZN4asio6detail13epoll_reactor32perform_io_cleanup_on_block_exitD5Ev,comdat
	.align 2
	.p2align 4
	.weak	_ZN4asio6detail13epoll_reactor32perform_io_cleanup_on_block_exitD2Ev
	.type	_ZN4asio6detail13epoll_reactor32perform_io_cleanup_on_block_exitD2Ev, @function
_ZN4asio6detail13epoll_reactor32perform_io_cleanup_on_block_exitD2Ev:
.LFB3252:
	.cfi_startproc
	.cfi_personality 0x9b,DW.ref.__gxx_personality_v0
	.cfi_lsda 0x1b,.LLSDA3252
	pushq	%r12
	.cfi_def_cfa_offset 16
	.cfi_offset 12, -16
	pushq	%rbp
	.cfi_def_cfa_offset 24
	.cfi_offset 6, -24
	pushq	%rbx
	.cfi_def_cfa_offset 32
	.cfi_offset 3, -32
	movq	%rdi, %rbx
	subq	$32, %rsp
	.cfi_def_cfa_offset 64
	cmpq	$0, 24(%rdi)
	je	.L688
	movq	8(%rdi), %r12
	testq	%r12, %r12
	je	.L687
	movq	(%rdi), %rax
	movq	40(%rax), %rbp
	cmpb	$0, 40(%rbp)
	je	.L690
	data16	leaq	_ZN4asio6detail15keyword_tss_ptrINS0_10call_stackINS0_15task_io_serviceENS0_27task_io_service_thread_infoEE7contextEE6value_E@tlsgd(%rip), %rdi
	.value	0x6666
	rex64
	call	__tls_get_addr@PLT
	movq	(%rax), %rax
	testq	%rax, %rax
	jne	.L693
	.p2align 4
	.p2align 3
.L690:
	leaq	48(%rbp), %r12
	movq	%r12, %rdi
	call	pthread_mutex_lock@PLT
	movq	8(%rbx), %rax
	testq	%rax, %rax
	je	.L696
	movq	200(%rbp), %rdx
	testq	%rdx, %rdx
	je	.L697
	movq	%rax, (%rdx)
.L698:
	movq	16(%rbx), %rax
	pxor	%xmm0, %xmm0
	movq	%rax, 200(%rbp)
	movups	%xmm0, 8(%rbx)
.L696:
	movq	136(%rbp), %rax
	movq	%rax, %rdx
	orq	$1, %rdx
	movq	%rdx, 136(%rbp)
	cmpq	$1, %rax
	jbe	.L699
	movq	%r12, %rdi
	call	pthread_mutex_unlock@PLT
	leaq	88(%rbp), %rdi
	call	pthread_cond_signal@PLT
.L703:
	movq	8(%rbx), %rsi
	testq	%rsi, %rsi
	je	.L687
	movq	%rsi, 8(%rsp)
	leaq	16(%rsp), %rbp
	call	_ZNSt3_V215system_categoryEv@PLT
	movq	8(%rsp), %rsi
	movq	%rax, %r12
	jmp	.L706
	.p2align 4,,10
	.p2align 3
.L704:
	movq	$0, (%rsi)
	movq	8(%rsi), %rax
	xorl	%ecx, %ecx
	movq	%rbp, %rdx
	movl	$0, 16(%rsp)
	xorl	%edi, %edi
	movq	%r12, 24(%rsp)
	call	*%rax
	movq	8(%rbx), %rsi
	testq	%rsi, %rsi
	je	.L687
.L706:
	movq	(%rsi), %rax
	movq	%rax, 8(%rbx)
	testq	%rax, %rax
	jne	.L704
	movq	$0, 16(%rbx)
	jmp	.L704
	.p2align 4
	.p2align 4,,10
	.p2align 3
.L691:
	movq	16(%rax), %rax
	testq	%rax, %rax
	je	.L690
.L693:
	cmpq	(%rax), %rbp
	jne	.L691
	movq	8(%rax), %rax
	testq	%rax, %rax
	je	.L690
	movq	16(%rax), %rdx
	testq	%rdx, %rdx
	je	.L694
	movq	%r12, (%rdx)
.L695:
	movq	16(%rbx), %rdx
	movq	%rdx, 16(%rax)
.L687:
	addq	$32, %rsp
	.cfi_remember_state
	.cfi_def_cfa_offset 32
	popq	%rbx
	.cfi_def_cfa_offset 24
	popq	%rbp
	.cfi_def_cfa_offset 16
	popq	%r12
	.cfi_def_cfa_offset 8
	ret
	.p2align 4,,10
	.p2align 3
.L688:
	.cfi_restore_state
	movq	(%rdi), %rax
	movq	40(%rax), %rax
	lock addq	$1, 184(%rax)
	jmp	.L703
	.p2align 4,,10
	.p2align 3
.L699:
	cmpb	$0, 176(%rbp)
	jne	.L701
	movq	144(%rbp), %rax
	testq	%rax, %rax
	je	.L701
	movb	$1, 176(%rbp)
	leaq	88(%rax), %rdx
	leaq	16(%rsp), %rbp
	movl	$3, %esi
	movq	%rdx, 20(%rsp)
	movl	88(%rax), %edx
	movq	%rbp, %rcx
	movl	$-2147483639, 16(%rsp)
	movl	96(%rax), %edi
	call	epoll_ctl@PLT
.L701:
	movq	%r12, %rdi
	call	pthread_mutex_unlock@PLT
	jmp	.L703
.L697:
	movq	%rax, 192(%rbp)
	jmp	.L698
.L694:
	movq	%r12, 8(%rax)
	jmp	.L695
	.cfi_endproc
.LFE3252:
	.section	.gcc_except_table._ZN4asio6detail13epoll_reactor32perform_io_cleanup_on_block_exitD2Ev,"aG",@progbits,_ZN4asio6detail13epoll_reactor32perform_io_cleanup_on_block_exitD5Ev,comdat
.LLSDA3252:
	.byte	0xff
	.byte	0xff
	.byte	0x1
	.uleb128 .LLSDACSE3252-.LLSDACSB3252
.LLSDACSB3252:
.LLSDACSE3252:
	.section	.text._ZN4asio6detail13epoll_reactor32perform_io_cleanup_on_block_exitD2Ev,"axG",@progbits,_ZN4asio6detail13epoll_reactor32perform_io_cleanup_on_block_exitD5Ev,comdat
	.size	_ZN4asio6detail13epoll_reactor32perform_io_cleanup_on_block_exitD2Ev, .-_ZN4asio6detail13epoll_reactor32perform_io_cleanup_on_block_exitD2Ev
	.weak	_ZN4asio6detail13epoll_reactor32perform_io_cleanup_on_block_exitD1Ev
	.set	_ZN4asio6detail13epoll_reactor32perform_io_cleanup_on_block_exitD1Ev,_ZN4asio6detail13epoll_reactor32perform_io_cleanup_on_block_exitD2Ev
	.section	.text._ZN4asio6detail15task_io_service12task_cleanupD2Ev,"axG",@progbits,_ZN4asio6detail15task_io_service12task_cleanupD5Ev,comdat
	.align 2
	.p2align 4
	.weak	_ZN4asio6detail15task_io_service12task_cleanupD2Ev
	.type	_ZN4asio6detail15task_io_service12task_cleanupD2Ev, @function
_ZN4asio6detail15task_io_service12task_cleanupD2Ev:
.LFB3260:
	.cfi_startproc
	subq	$24, %rsp
	.cfi_def_cfa_offset 32
	movq	16(%rdi), %rdx
	movq	%rdi, %rcx
	movq	24(%rdx), %rax
	testq	%rax, %rax
	jle	.L725
	movq	(%rdi), %rdx
	lock addq	%rax, 184(%rdx)
	movq	16(%rdi), %rdx
.L725:
	movq	8(%rcx), %rsi
	movq	$0, 24(%rdx)
	cmpb	$0, 8(%rsi)
	je	.L736
.L726:
	movq	(%rcx), %rax
	movq	8(%rdx), %rcx
	movb	$1, 176(%rax)
	testq	%rcx, %rcx
	je	.L727
	movq	200(%rax), %rsi
	testq	%rsi, %rsi
	je	.L728
	movq	%rcx, (%rsi)
.L729:
	movq	16(%rdx), %rcx
	pxor	%xmm0, %xmm0
	movq	%rcx, 200(%rax)
	movups	%xmm0, 8(%rdx)
.L727:
	movq	200(%rax), %rcx
	leaq	152(%rax), %rdx
	movq	$0, 152(%rax)
	testq	%rcx, %rcx
	je	.L730
	movq	%rdx, (%rcx)
	movq	%rdx, 200(%rax)
	addq	$24, %rsp
	.cfi_remember_state
	.cfi_def_cfa_offset 8
	ret
	.p2align 4,,10
	.p2align 3
.L728:
	.cfi_restore_state
	movq	%rcx, 192(%rax)
	jmp	.L729
	.p2align 4,,10
	.p2align 3
.L736:
	movq	(%rsi), %rdi
	movq	%rcx, 8(%rsp)
	movq	%rsi, (%rsp)
	call	pthread_mutex_lock@PLT
	movq	(%rsp), %rsi
	movq	8(%rsp), %rcx
	movb	$1, 8(%rsi)
	movq	16(%rcx), %rdx
	jmp	.L726
	.p2align 4,,10
	.p2align 3
.L730:
	movq	%rdx, %xmm0
	punpcklqdq	%xmm0, %xmm0
	movups	%xmm0, 192(%rax)
	addq	$24, %rsp
	.cfi_def_cfa_offset 8
	ret
	.cfi_endproc
.LFE3260:
	.size	_ZN4asio6detail15task_io_service12task_cleanupD2Ev, .-_ZN4asio6detail15task_io_service12task_cleanupD2Ev
	.weak	_ZN4asio6detail15task_io_service12task_cleanupD1Ev
	.set	_ZN4asio6detail15task_io_service12task_cleanupD1Ev,_ZN4asio6detail15task_io_service12task_cleanupD2Ev
	.section	.text._ZN4asio6detail15task_io_service12work_cleanupD2Ev,"axG",@progbits,_ZN4asio6detail15task_io_service12work_cleanupD5Ev,comdat
	.align 2
	.p2align 4
	.weak	_ZN4asio6detail15task_io_service12work_cleanupD2Ev
	.type	_ZN4asio6detail15task_io_service12work_cleanupD2Ev, @function
_ZN4asio6detail15task_io_service12work_cleanupD2Ev:
.LFB3263:
	.cfi_startproc
	pushq	%rbx
	.cfi_def_cfa_offset 16
	.cfi_offset 3, -16
	movq	%rdi, %r8
	subq	$32, %rsp
	.cfi_def_cfa_offset 48
	movq	16(%rdi), %rax
	movq	24(%rax), %rdx
	cmpq	$1, %rdx
	jg	.L762
	jne	.L763
.L739:
	movq	8(%rax), %rdx
	movq	$0, 24(%rax)
	testq	%rdx, %rdx
	je	.L737
	movq	8(%r8), %rcx
	cmpb	$0, 8(%rcx)
	je	.L764
.L760:
	movq	(%r8), %rcx
	movq	200(%rcx), %rsi
	testq	%rsi, %rsi
	je	.L746
	movq	%rdx, (%rsi)
.L747:
	movq	16(%rax), %rdx
	pxor	%xmm0, %xmm0
	movq	%rdx, 200(%rcx)
	movups	%xmm0, 8(%rax)
.L737:
	addq	$32, %rsp
	.cfi_remember_state
	.cfi_def_cfa_offset 16
	popq	%rbx
	.cfi_def_cfa_offset 8
	ret
	.p2align 4,,10
	.p2align 3
.L763:
	.cfi_restore_state
	movq	(%rdi), %rdx
	lock subq	$1, 184(%rdx)
	je	.L740
.L759:
	movq	16(%r8), %rax
	jmp	.L739
	.p2align 4,,10
	.p2align 3
.L764:
	movq	(%rcx), %rdi
	movq	%r8, 8(%rsp)
	movq	%rcx, (%rsp)
	call	pthread_mutex_lock@PLT
	movq	8(%rsp), %r8
	movq	(%rsp), %rcx
	movq	16(%r8), %rax
	movb	$1, 8(%rcx)
	movq	8(%rax), %rdx
	testq	%rdx, %rdx
	jne	.L760
	addq	$32, %rsp
	.cfi_remember_state
	.cfi_def_cfa_offset 16
	popq	%rbx
	.cfi_def_cfa_offset 8
	ret
	.p2align 4,,10
	.p2align 3
.L746:
	.cfi_restore_state
	movq	%rdx, 192(%rcx)
	jmp	.L747
	.p2align 4,,10
	.p2align 3
.L762:
	movq	(%rdi), %rax
	subq	$1, %rdx
	lock addq	%rdx, 184(%rax)
	movq	16(%rdi), %rax
	jmp	.L739
	.p2align 4,,10
	.p2align 3
.L740:
	movq	%rdi, 8(%rsp)
	leaq	48(%rdx), %rdi
	leaq	48(%rdx), %rbx
	movq	%rdx, (%rsp)
	call	pthread_mutex_lock@PLT
	movq	(%rsp), %rdx
	orq	$1, 136(%rdx)
	leaq	88(%rdx), %rdi
	movb	$1, 208(%rdx)
	call	pthread_cond_broadcast@PLT
	movq	(%rsp), %rdx
	movq	8(%rsp), %r8
	cmpb	$0, 176(%rdx)
	jne	.L741
	movq	144(%rdx), %rax
	testq	%rax, %rax
	je	.L741
	movb	$1, 176(%rdx)
	leaq	88(%rax), %rdx
	movl	96(%rax), %edi
	leaq	20(%rsp), %rcx
	movq	%rdx, 24(%rsp)
	movl	88(%rax), %edx
	movl	$3, %esi
	movq	%r8, (%rsp)
	movl	$-2147483639, 20(%rsp)
	call	epoll_ctl@PLT
	movq	(%rsp), %r8
.L741:
	movq	%rbx, %rdi
	movq	%r8, (%rsp)
	call	pthread_mutex_unlock@PLT
	movq	(%rsp), %r8
	jmp	.L759
	.cfi_endproc
.LFE3263:
	.size	_ZN4asio6detail15task_io_service12work_cleanupD2Ev, .-_ZN4asio6detail15task_io_service12work_cleanupD2Ev
	.weak	_ZN4asio6detail15task_io_service12work_cleanupD1Ev
	.set	_ZN4asio6detail15task_io_service12work_cleanupD1Ev,_ZN4asio6detail15task_io_service12work_cleanupD2Ev
	.section	.text._ZN4asio6detail27task_io_service_thread_infoD2Ev,"axG",@progbits,_ZN4asio6detail27task_io_service_thread_infoD5Ev,comdat
	.align 2
	.p2align 4
	.weak	_ZN4asio6detail27task_io_service_thread_infoD2Ev
	.type	_ZN4asio6detail27task_io_service_thread_infoD2Ev, @function
_ZN4asio6detail27task_io_service_thread_infoD2Ev:
.LFB3282:
	.cfi_startproc
	.cfi_personality 0x9b,DW.ref.__gxx_personality_v0
	.cfi_lsda 0x1b,.LLSDA3282
	pushq	%r12
	.cfi_def_cfa_offset 16
	.cfi_offset 12, -16
	pushq	%rbp
	.cfi_def_cfa_offset 24
	.cfi_offset 6, -24
	pushq	%rbx
	.cfi_def_cfa_offset 32
	.cfi_offset 3, -32
	movq	%rdi, %rbx
	subq	$32, %rsp
	.cfi_def_cfa_offset 64
	movq	8(%rdi), %rsi
	testq	%rsi, %rsi
	je	.L766
	movq	%rsi, 8(%rsp)
	leaq	16(%rsp), %rbp
	call	_ZNSt3_V215system_categoryEv@PLT
	movq	8(%rsp), %rsi
	movq	%rax, %r12
	jmp	.L769
	.p2align 4,,10
	.p2align 3
.L767:
	movq	$0, (%rsi)
	movq	8(%rsi), %rax
	xorl	%ecx, %ecx
	movq	%rbp, %rdx
	movl	$0, 16(%rsp)
	xorl	%edi, %edi
	movq	%r12, 24(%rsp)
	call	*%rax
	movq	8(%rbx), %rsi
	testq	%rsi, %rsi
	je	.L766
.L769:
	movq	(%rsi), %rax
	movq	%rax, 8(%rbx)
	testq	%rax, %rax
	jne	.L767
	movq	$0, 16(%rbx)
	jmp	.L767
	.p2align 4,,10
	.p2align 3
.L766:
	movq	(%rbx), %rdi
	testq	%rdi, %rdi
	je	.L765
	addq	$32, %rsp
	.cfi_remember_state
	.cfi_def_cfa_offset 32
	popq	%rbx
	.cfi_def_cfa_offset 24
	popq	%rbp
	.cfi_def_cfa_offset 16
	popq	%r12
	.cfi_def_cfa_offset 8
.LEHB13:
	jmp	_ZdlPv@PLT
.LEHE13:
	.p2align 4,,10
	.p2align 3
.L765:
	.cfi_restore_state
	addq	$32, %rsp
	.cfi_def_cfa_offset 32
	popq	%rbx
	.cfi_def_cfa_offset 24
	popq	%rbp
	.cfi_def_cfa_offset 16
	popq	%r12
	.cfi_def_cfa_offset 8
	ret
	.cfi_endproc
.LFE3282:
	.section	.gcc_except_table._ZN4asio6detail27task_io_service_thread_infoD2Ev,"aG",@progbits,_ZN4asio6detail27task_io_service_thread_infoD5Ev,comdat
.LLSDA3282:
	.byte	0xff
	.byte	0xff
	.byte	0x1
	.uleb128 .LLSDACSE3282-.LLSDACSB3282
.LLSDACSB3282:
	.uleb128 .LEHB13-.LFB3282
	.uleb128 .LEHE13-.LEHB13
	.uleb128 0
	.uleb128 0
.LLSDACSE3282:
	.section	.text._ZN4asio6detail27task_io_service_thread_infoD2Ev,"axG",@progbits,_ZN4asio6detail27task_io_service_thread_infoD5Ev,comdat
	.size	_ZN4asio6detail27task_io_service_thread_infoD2Ev, .-_ZN4asio6detail27task_io_service_thread_infoD2Ev
	.weak	_ZN4asio6detail27task_io_service_thread_infoD1Ev
	.set	_ZN4asio6detail27task_io_service_thread_infoD1Ev,_ZN4asio6detail27task_io_service_thread_infoD2Ev
	.section	.text._ZN4asio6detail15task_io_service25post_immediate_completionEPNS0_25task_io_service_operationEb,"axG",@progbits,_ZN4asio6detail15task_io_service25post_immediate_completionEPNS0_25task_io_service_operationEb,comdat
	.align 2
	.p2align 4
	.weak	_ZN4asio6detail15task_io_service25post_immediate_completionEPNS0_25task_io_service_operationEb
	.type	_ZN4asio6detail15task_io_service25post_immediate_completionEPNS0_25task_io_service_operationEb, @function
_ZN4asio6detail15task_io_service25post_immediate_completionEPNS0_25task_io_service_operationEb:
.LFB3290:
	.cfi_startproc
	pushq	%r12
	.cfi_def_cfa_offset 16
	.cfi_offset 12, -16
	movq	%rsi, %xmm0
	pushq	%rbp
	.cfi_def_cfa_offset 24
	.cfi_offset 6, -24
	punpcklqdq	%xmm0, %xmm0
	movq	%rsi, %rbp
	pushq	%rbx
	.cfi_def_cfa_offset 32
	.cfi_offset 3, -32
	movq	%rdi, %rbx
	subq	$32, %rsp
	.cfi_def_cfa_offset 64
	movaps	%xmm0, (%rsp)
	cmpb	$0, 40(%rdi)
	jne	.L790
	testb	%dl, %dl
	je	.L779
.L790:
	data16	leaq	_ZN4asio6detail15keyword_tss_ptrINS0_10call_stackINS0_15task_io_serviceENS0_27task_io_service_thread_infoEE7contextEE6value_E@tlsgd(%rip), %rdi
	.value	0x6666
	rex64
	call	__tls_get_addr@PLT
	movq	(%rax), %rax
	testq	%rax, %rax
	jne	.L783
	jmp	.L779
	.p2align 4
	.p2align 4,,10
	.p2align 3
.L781:
	movq	16(%rax), %rax
	testq	%rax, %rax
	je	.L779
.L783:
	cmpq	(%rax), %rbx
	jne	.L781
	movq	8(%rax), %rax
	testq	%rax, %rax
	je	.L779
	movq	16(%rax), %rdx
	addq	$1, 24(%rax)
	movq	$0, 0(%rbp)
	testq	%rdx, %rdx
	je	.L784
	movq	%rbp, (%rdx)
	movq	%rbp, 16(%rax)
	addq	$32, %rsp
	.cfi_remember_state
	.cfi_def_cfa_offset 32
	popq	%rbx
	.cfi_def_cfa_offset 24
	popq	%rbp
	.cfi_def_cfa_offset 16
	popq	%r12
	.cfi_def_cfa_offset 8
	ret
	.p2align 4,,10
	.p2align 3
.L779:
	.cfi_restore_state
	lock addq	$1, 184(%rbx)
	leaq	48(%rbx), %rdi
	call	pthread_mutex_lock@PLT
	movq	200(%rbx), %rax
	movq	$0, 0(%rbp)
	testq	%rax, %rax
	je	.L786
	movq	%rbp, (%rax)
	movq	%rbp, 200(%rbx)
.L787:
	movq	136(%rbx), %rax
	movq	%rax, %rdx
	orq	$1, %rdx
	movq	%rdx, 136(%rbx)
	cmpq	$1, %rax
	jbe	.L788
	leaq	48(%rbx), %rdi
	call	pthread_mutex_unlock@PLT
	addq	$32, %rsp
	.cfi_remember_state
	.cfi_def_cfa_offset 32
	leaq	88(%rbx), %rdi
	popq	%rbx
	.cfi_def_cfa_offset 24
	popq	%rbp
	.cfi_def_cfa_offset 16
	popq	%r12
	.cfi_def_cfa_offset 8
	jmp	pthread_cond_signal@PLT
	.p2align 4,,10
	.p2align 3
.L788:
	.cfi_restore_state
	cmpb	$0, 176(%rbx)
	jne	.L789
	movq	144(%rbx), %rax
	testq	%rax, %rax
	je	.L789
	leaq	88(%rax), %rdx
	movb	$1, 176(%rbx)
	movl	96(%rax), %edi
	leaq	20(%rsp), %rcx
	movq	%rdx, 24(%rsp)
	movl	88(%rax), %edx
	movl	$3, %esi
	movl	$-2147483639, 20(%rsp)
	call	epoll_ctl@PLT
.L789:
	addq	$32, %rsp
	.cfi_remember_state
	.cfi_def_cfa_offset 32
	leaq	48(%rbx), %rdi
	popq	%rbx
	.cfi_def_cfa_offset 24
	popq	%rbp
	.cfi_def_cfa_offset 16
	popq	%r12
	.cfi_def_cfa_offset 8
	jmp	pthread_mutex_unlock@PLT
	.p2align 4,,10
	.p2align 3
.L786:
	.cfi_restore_state
	movdqa	(%rsp), %xmm1
	movups	%xmm1, 192(%rbx)
	jmp	.L787
	.p2align 4,,10
	.p2align 3
.L784:
	movdqa	(%rsp), %xmm2
	movups	%xmm2, 8(%rax)
	addq	$32, %rsp
	.cfi_def_cfa_offset 32
	popq	%rbx
	.cfi_def_cfa_offset 24
	popq	%rbp
	.cfi_def_cfa_offset 16
	popq	%r12
	.cfi_def_cfa_offset 8
	ret
	.cfi_endproc
.LFE3290:
	.size	_ZN4asio6detail15task_io_service25post_immediate_completionEPNS0_25task_io_service_operationEb, .-_ZN4asio6detail15task_io_service25post_immediate_completionEPNS0_25task_io_service_operationEb
	.section	.text._ZN4asio6detail15task_io_service26wake_one_thread_and_unlockERNS0_11scoped_lockINS0_11posix_mutexEEE,"axG",@progbits,_ZN4asio6detail15task_io_service26wake_one_thread_and_unlockERNS0_11scoped_lockINS0_11posix_mutexEEE,comdat
	.align 2
	.p2align 4
	.weak	_ZN4asio6detail15task_io_service26wake_one_thread_and_unlockERNS0_11scoped_lockINS0_11posix_mutexEEE
	.type	_ZN4asio6detail15task_io_service26wake_one_thread_and_unlockERNS0_11scoped_lockINS0_11posix_mutexEEE, @function
_ZN4asio6detail15task_io_service26wake_one_thread_and_unlockERNS0_11scoped_lockINS0_11posix_mutexEEE:
.LFB3298:
	.cfi_startproc
	subq	$40, %rsp
	.cfi_def_cfa_offset 48
	movq	136(%rdi), %rax
	movq	%rdi, %rdx
	movq	%rsi, %r8
	movq	%rax, %rcx
	orq	$1, %rcx
	movq	%rcx, 136(%rdi)
	cmpq	$1, %rax
	jbe	.L800
	cmpb	$0, 8(%rsi)
	jne	.L808
	leaq	88(%rdx), %rdi
	addq	$40, %rsp
	.cfi_remember_state
	.cfi_def_cfa_offset 8
	jmp	pthread_cond_signal@PLT
	.p2align 4,,10
	.p2align 3
.L800:
	.cfi_restore_state
	cmpb	$0, 176(%rdi)
	jne	.L802
	movq	144(%rdi), %rax
	testq	%rax, %rax
	je	.L802
	leaq	88(%rax), %rdx
	movq	%rsi, (%rsp)
	leaq	20(%rsp), %rcx
	movl	$3, %esi
	movb	$1, 176(%rdi)
	movl	96(%rax), %edi
	movq	%rdx, 24(%rsp)
	movl	88(%rax), %edx
	movl	$-2147483639, 20(%rsp)
	call	epoll_ctl@PLT
	movq	(%rsp), %r8
.L802:
	cmpb	$0, 8(%r8)
	jne	.L809
	addq	$40, %rsp
	.cfi_remember_state
	.cfi_def_cfa_offset 8
	ret
	.p2align 4,,10
	.p2align 3
.L808:
	.cfi_restore_state
	movq	%rdi, 8(%rsp)
	movq	(%rsi), %rdi
	movq	%rsi, (%rsp)
	call	pthread_mutex_unlock@PLT
	movq	(%rsp), %r8
	movq	8(%rsp), %rdx
	movb	$0, 8(%r8)
	leaq	88(%rdx), %rdi
	addq	$40, %rsp
	.cfi_remember_state
	.cfi_def_cfa_offset 8
	jmp	pthread_cond_signal@PLT
	.p2align 4,,10
	.p2align 3
.L809:
	.cfi_restore_state
	movq	(%r8), %rdi
	movq	%r8, (%rsp)
	call	pthread_mutex_unlock@PLT
	movq	(%rsp), %r8
	movb	$0, 8(%r8)
	addq	$40, %rsp
	.cfi_def_cfa_offset 8
	ret
	.cfi_endproc
.LFE3298:
	.size	_ZN4asio6detail15task_io_service26wake_one_thread_and_unlockERNS0_11scoped_lockINS0_11posix_mutexEEE, .-_ZN4asio6detail15task_io_service26wake_one_thread_and_unlockERNS0_11scoped_lockINS0_11posix_mutexEEE
	.section	.text._ZN4asio6detail13epoll_reactor21deregister_descriptorEiRPNS1_16descriptor_stateEb,"axG",@progbits,_ZN4asio6detail13epoll_reactor21deregister_descriptorEiRPNS1_16descriptor_stateEb,comdat
	.align 2
	.p2align 4
	.weak	_ZN4asio6detail13epoll_reactor21deregister_descriptorEiRPNS1_16descriptor_stateEb
	.type	_ZN4asio6detail13epoll_reactor21deregister_descriptorEiRPNS1_16descriptor_stateEb, @function
_ZN4asio6detail13epoll_reactor21deregister_descriptorEiRPNS1_16descriptor_stateEb:
.LFB3235:
	.cfi_startproc
	pushq	%r15
	.cfi_def_cfa_offset 16
	.cfi_offset 15, -16
	pushq	%r14
	.cfi_def_cfa_offset 24
	.cfi_offset 14, -24
	pushq	%r13
	.cfi_def_cfa_offset 32
	.cfi_offset 13, -32
	pushq	%r12
	.cfi_def_cfa_offset 40
	.cfi_offset 12, -40
	pushq	%rbp
	.cfi_def_cfa_offset 48
	.cfi_offset 6, -48
	pushq	%rbx
	.cfi_def_cfa_offset 56
	.cfi_offset 3, -56
	subq	$56, %rsp
	.cfi_def_cfa_offset 112
	movq	(%rdx), %r12
	testq	%r12, %r12
	je	.L810
	leaq	40(%r12), %r15
	movq	%rdi, 16(%rsp)
	movq	%rdx, %rbp
	movl	%ecx, %ebx
	movq	%r15, %rdi
	movq	%r15, 24(%rsp)
	movl	%esi, %r13d
	call	pthread_mutex_lock@PLT
	movq	0(%rbp), %r10
	movq	%r15, %rdi
	cmpb	$0, 144(%r10)
	jne	.L866
	testb	%bl, %bl
	je	.L869
.L813:
	movq	$0, 8(%rsp)
	xorl	%r12d, %r12d
	movl	$0, 4(%rsp)
.L814:
	movslq	4(%rsp), %rax
	salq	$4, %rax
	movq	96(%rax,%r10), %rbx
	testq	%rbx, %rbx
	je	.L864
	movq	_ZGVZN4asio15system_categoryEvE8instance@GOTPCREL(%rip), %r13
	movq	_ZZN4asio15system_categoryEvE8instance@GOTPCREL(%rip), %r14
	movq	%rax, %r15
	jmp	.L826
	.p2align 4,,10
	.p2align 3
.L816:
	movq	0(%rbp), %r10
	movl	$125, 24(%rbx)
	movq	%r14, 32(%rbx)
	leaq	(%r10,%r15), %rdi
	movq	96(%rdi), %rax
	testq	%rax, %rax
	je	.L868
	movq	(%rax), %rdx
	movq	%rdx, 96(%rdi)
	testq	%rdx, %rdx
	je	.L821
	movq	$0, (%rax)
	movq	$0, (%rbx)
	testq	%r12, %r12
	je	.L840
	movq	%rbx, (%r12)
.L822:
	movq	%rbx, %r12
	movq	%rdx, %rbx
.L826:
	movzbl	0(%r13), %eax
	testb	%al, %al
	jne	.L816
	movq	%r13, %rdi
	call	__cxa_guard_acquire@PLT
	testl	%eax, %eax
	je	.L816
	movq	_ZN4asio6detail15system_categoryD1Ev@GOTPCREL(%rip), %rdi
	leaq	__dso_handle(%rip), %rdx
	movq	%r14, %rsi
	call	__cxa_atexit@PLT
	movq	%r13, %rdi
	call	__cxa_guard_release@PLT
	jmp	.L816
	.p2align 4,,10
	.p2align 3
.L825:
	movl	$-1, 88(%r10)
	movq	24(%rsp), %rdi
	movb	$1, 144(%r10)
	call	pthread_mutex_unlock@PLT
	movq	16(%rsp), %r14
	movq	0(%rbp), %r12
	leaq	120(%r14), %r13
	movq	%r13, %rdi
	call	pthread_mutex_lock@PLT
	cmpq	160(%r14), %r12
	je	.L870
.L827:
	movq	32(%r12), %rax
	testq	%rax, %rax
	je	.L828
	movq	24(%r12), %rdx
	movq	%rdx, 24(%rax)
.L828:
	movq	24(%r12), %rax
	testq	%rax, %rax
	je	.L829
	movq	32(%r12), %rdx
	movq	%rdx, 32(%rax)
.L829:
	movq	16(%rsp), %r14
	movq	%r13, %rdi
	movq	168(%r14), %rax
	movq	$0, 32(%r12)
	movq	%rax, 24(%r12)
	movq	%r12, 168(%r14)
	call	pthread_mutex_unlock@PLT
	movq	$0, 0(%rbp)
	cmpq	$0, 8(%rsp)
	je	.L810
	movq	40(%r14), %rbp
	cmpb	$0, 40(%rbp)
	je	.L831
	data16	leaq	_ZN4asio6detail15keyword_tss_ptrINS0_10call_stackINS0_15task_io_serviceENS0_27task_io_service_thread_infoEE7contextEE6value_E@tlsgd(%rip), %rdi
	.value	0x6666
	rex64
	call	__tls_get_addr@PLT
	movq	(%rax), %rax
	testq	%rax, %rax
	jne	.L834
	jmp	.L831
	.p2align 4
	.p2align 4,,10
	.p2align 3
.L832:
	movq	16(%rax), %rax
	testq	%rax, %rax
	je	.L831
.L834:
	cmpq	(%rax), %rbp
	jne	.L832
	movq	8(%rax), %rax
	testq	%rax, %rax
	je	.L831
	movq	16(%rax), %rdx
	movq	8(%rsp), %rcx
	testq	%rdx, %rdx
	je	.L835
	movq	%rcx, (%rdx)
.L836:
	movq	%rbx, 16(%rax)
.L810:
	addq	$56, %rsp
	.cfi_remember_state
	.cfi_def_cfa_offset 56
	popq	%rbx
	.cfi_def_cfa_offset 48
	popq	%rbp
	.cfi_def_cfa_offset 40
	popq	%r12
	.cfi_def_cfa_offset 32
	popq	%r13
	.cfi_def_cfa_offset 24
	popq	%r14
	.cfi_def_cfa_offset 16
	popq	%r15
	.cfi_def_cfa_offset 8
	ret
	.p2align 4,,10
	.p2align 3
.L831:
	.cfi_restore_state
	leaq	48(%rbp), %rdi
	movq	%rdi, 32(%rsp)
	call	pthread_mutex_lock@PLT
	movq	200(%rbp), %rax
	movb	$1, 40(%rsp)
	testq	%rax, %rax
	je	.L837
	movq	8(%rsp), %rcx
	movq	%rcx, (%rax)
.L838:
	movq	%rbx, 200(%rbp)
	leaq	32(%rsp), %rsi
	movq	%rbp, %rdi
	call	_ZN4asio6detail15task_io_service26wake_one_thread_and_unlockERNS0_11scoped_lockINS0_11posix_mutexEEE@PLT
	cmpb	$0, 40(%rsp)
	je	.L810
	movq	32(%rsp), %rdi
.L866:
	addq	$56, %rsp
	.cfi_remember_state
	.cfi_def_cfa_offset 56
	popq	%rbx
	.cfi_def_cfa_offset 48
	popq	%rbp
	.cfi_def_cfa_offset 40
	popq	%r12
	.cfi_def_cfa_offset 32
	popq	%r13
	.cfi_def_cfa_offset 24
	popq	%r14
	.cfi_def_cfa_offset 16
	popq	%r15
	.cfi_def_cfa_offset 8
	jmp	pthread_mutex_unlock@PLT
	.p2align 4,,10
	.p2align 3
.L821:
	.cfi_restore_state
	movq	$0, 104(%rdi)
	movq	$0, (%rax)
.L868:
	movq	$0, (%rbx)
	testq	%r12, %r12
	je	.L871
	movq	%rbx, (%r12)
.L824:
	addl	$1, 4(%rsp)
	cmpl	$3, 4(%rsp)
	je	.L825
	movq	%rbx, %r12
	jmp	.L814
	.p2align 4,,10
	.p2align 3
.L840:
	movq	%rbx, 8(%rsp)
	jmp	.L822
	.p2align 4,,10
	.p2align 3
.L871:
	movq	%rbx, 8(%rsp)
	jmp	.L824
	.p2align 4,,10
	.p2align 3
.L869:
	movq	16(%rsp), %rax
	leaq	32(%rsp), %rcx
	movl	%r13d, %edx
	movl	$2, %esi
	movl	$0, 32(%rsp)
	movq	$0, 36(%rsp)
	movl	96(%rax), %edi
	call	epoll_ctl@PLT
	movq	0(%rbp), %r10
	jmp	.L813
	.p2align 4,,10
	.p2align 3
.L864:
	movq	%r12, %rbx
	jmp	.L824
	.p2align 4,,10
	.p2align 3
.L870:
	movq	24(%r12), %rax
	movq	16(%rsp), %rcx
	movq	%rax, 160(%rcx)
	jmp	.L827
.L837:
	movq	8(%rsp), %rax
	movq	%rax, 192(%rbp)
	jmp	.L838
.L835:
	movq	%rcx, 8(%rax)
	jmp	.L836
	.cfi_endproc
.LFE3235:
	.size	_ZN4asio6detail13epoll_reactor21deregister_descriptorEiRPNS1_16descriptor_stateEb, .-_ZN4asio6detail13epoll_reactor21deregister_descriptorEiRPNS1_16descriptor_stateEb
	.section	.text._ZN4asio6detail13epoll_reactor16descriptor_state11do_completeEPNS0_15task_io_serviceEPNS0_25task_io_service_operationERKSt10error_codem,"axG",@progbits,_ZN4asio6detail13epoll_reactor16descriptor_state11do_completeEPNS0_15task_io_serviceEPNS0_25task_io_service_operationERKSt10error_codem,comdat
	.align 2
	.p2align 4
	.weak	_ZN4asio6detail13epoll_reactor16descriptor_state11do_completeEPNS0_15task_io_serviceEPNS0_25task_io_service_operationERKSt10error_codem
	.type	_ZN4asio6detail13epoll_reactor16descriptor_state11do_completeEPNS0_15task_io_serviceEPNS0_25task_io_service_operationERKSt10error_codem, @function
_ZN4asio6detail13epoll_reactor16descriptor_state11do_completeEPNS0_15task_io_serviceEPNS0_25task_io_service_operationERKSt10error_codem:
.LFB3258:
	.cfi_startproc
	.cfi_personality 0x9b,DW.ref.__gxx_personality_v0
	.cfi_lsda 0x1b,.LLSDA3258
	testq	%rdi, %rdi
	je	.L916
	pushq	%r15
	.cfi_def_cfa_offset 16
	.cfi_offset 15, -16
	leaq	40(%rsi), %rax
	pushq	%r14
	.cfi_def_cfa_offset 24
	.cfi_offset 14, -24
	xorl	%r14d, %r14d
	pushq	%r13
	.cfi_def_cfa_offset 32
	.cfi_offset 13, -32
	pushq	%r12
	.cfi_def_cfa_offset 40
	.cfi_offset 12, -40
	movq	%rsi, %r12
	pushq	%rbp
	.cfi_def_cfa_offset 48
	.cfi_offset 6, -48
	subq	$-128, %r12
	xorl	%ebp, %ebp
	pushq	%rbx
	.cfi_def_cfa_offset 56
	.cfi_offset 3, -56
	subq	$104, %rsp
	.cfi_def_cfa_offset 160
	movq	%rdi, 32(%rsp)
	movq	%rax, %rdi
	movq	%rcx, 8(%rsp)
	movq	%rdx, 40(%rsp)
	movq	%rax, 16(%rsp)
	call	pthread_mutex_lock@PLT
	movq	-48(%r12), %rax
	movq	_ZZN4asio6detail13epoll_reactor16descriptor_state10perform_ioEjE4flag@GOTPCREL(%rip), %r15
	movq	$0, 88(%rsp)
	movq	%rax, 24(%rsp)
	leaq	-12(%r15), %r13
	movq	%rax, 64(%rsp)
.L881:
	movl	8(%r15), %eax
	orl	$24, %eax
	testl	%eax, 8(%rsp)
	jne	.L921
.L874:
	subq	$4, %r15
	subq	$16, %r12
	cmpq	%r15, %r13
	jne	.L881
	movq	%rbp, 88(%rsp)
	testq	%rbp, %rbp
	je	.L922
	movq	0(%rbp), %rbx
	testq	%rbx, %rbx
	je	.L923
	movq	$0, 0(%rbp)
	movq	16(%rsp), %rdi
	call	pthread_mutex_unlock@PLT
	movq	24(%rsp), %rax
	movq	40(%rax), %r12
	cmpb	$0, 40(%r12)
	je	.L885
	data16	leaq	_ZN4asio6detail15keyword_tss_ptrINS0_10call_stackINS0_15task_io_serviceENS0_27task_io_service_thread_infoEE7contextEE6value_E@tlsgd(%rip), %rdi
	.value	0x6666
	rex64
	call	__tls_get_addr@PLT
	movq	(%rax), %rax
	testq	%rax, %rax
	jne	.L888
	jmp	.L885
	.p2align 4
	.p2align 4,,10
	.p2align 3
.L886:
	movq	16(%rax), %rax
	testq	%rax, %rax
	je	.L885
.L888:
	cmpq	(%rax), %r12
	jne	.L886
	movq	8(%rax), %rax
	testq	%rax, %rax
	je	.L885
	movq	16(%rax), %rdx
	testq	%rdx, %rdx
	je	.L889
	movq	%rbx, (%rdx)
.L890:
	movq	%r14, 16(%rax)
	jmp	.L884
	.p2align 4,,10
	.p2align 3
.L921:
	movq	(%r12), %rax
	testq	%rax, %rax
	je	.L874
	movq	%r14, %rbx
	movq	%rax, %r14
	jmp	.L875
	.p2align 4,,10
	.p2align 3
.L876:
	movq	(%rax), %rdx
	movq	%rdx, (%r12)
	testq	%rdx, %rdx
	je	.L878
	movq	$0, (%rax)
	movq	$0, (%r14)
	testq	%rbx, %rbx
	je	.L899
	movq	%r14, (%rbx)
.L879:
	movq	%r14, %rbx
	movq	%rdx, %r14
.L875:
	movq	%r14, %rdi
.LEHB14:
	call	*48(%r14)
.LEHE14:
	testb	%al, %al
	je	.L898
	movq	(%r12), %rax
	testq	%rax, %rax
	jne	.L876
	movq	$0, (%r14)
	testq	%rbx, %rbx
	je	.L924
.L880:
	movq	%r14, (%rbx)
	jmp	.L874
	.p2align 4,,10
	.p2align 3
.L878:
	movq	$0, 8(%r12)
	movq	$0, (%rax)
	movq	$0, (%r14)
	testq	%rbx, %rbx
	jne	.L880
.L924:
	movq	%r14, %rbp
	jmp	.L874
	.p2align 4,,10
	.p2align 3
.L899:
	movq	%r14, %rbp
	jmp	.L879
	.p2align 4,,10
	.p2align 3
.L916:
	.cfi_def_cfa_offset 8
	.cfi_restore 3
	.cfi_restore 6
	.cfi_restore 12
	.cfi_restore 13
	.cfi_restore 14
	.cfi_restore 15
	ret
	.p2align 4,,10
	.p2align 3
.L898:
	.cfi_def_cfa_offset 160
	.cfi_offset 3, -56
	.cfi_offset 6, -48
	.cfi_offset 12, -40
	.cfi_offset 13, -32
	.cfi_offset 14, -24
	.cfi_offset 15, -16
	movq	%rbx, %r14
	jmp	.L874
	.p2align 4,,10
	.p2align 3
.L923:
	movq	16(%rsp), %rdi
	call	pthread_mutex_unlock@PLT
.L884:
	movq	8(%rbp), %rax
	movq	40(%rsp), %rdx
	movq	%rbp, %rsi
	xorl	%ecx, %ecx
	movq	32(%rsp), %rdi
	addq	$104, %rsp
	.cfi_remember_state
	.cfi_def_cfa_offset 56
	popq	%rbx
	.cfi_restore 3
	.cfi_def_cfa_offset 48
	popq	%rbp
	.cfi_restore 6
	.cfi_def_cfa_offset 40
	popq	%r12
	.cfi_restore 12
	.cfi_def_cfa_offset 32
	popq	%r13
	.cfi_restore 13
	.cfi_def_cfa_offset 24
	popq	%r14
	.cfi_restore 14
	.cfi_def_cfa_offset 16
	popq	%r15
	.cfi_restore 15
	.cfi_def_cfa_offset 8
.LEHB15:
	jmp	*%rax
	.p2align 4,,10
	.p2align 3
.L922:
	.cfi_restore_state
	movq	16(%rsp), %rdi
	call	pthread_mutex_unlock@PLT
	movq	24(%rsp), %rax
	movq	40(%rax), %rax
	lock addq	$1, 184(%rax)
	addq	$104, %rsp
	.cfi_remember_state
	.cfi_def_cfa_offset 56
	popq	%rbx
	.cfi_def_cfa_offset 48
	popq	%rbp
	.cfi_def_cfa_offset 40
	popq	%r12
	.cfi_def_cfa_offset 32
	popq	%r13
	.cfi_def_cfa_offset 24
	popq	%r14
	.cfi_def_cfa_offset 16
	popq	%r15
	.cfi_def_cfa_offset 8
	ret
	.p2align 4,,10
	.p2align 3
.L885:
	.cfi_restore_state
	leaq	48(%r12), %rdi
	movq	%rdi, 48(%rsp)
	call	pthread_mutex_lock@PLT
	movq	200(%r12), %rax
	movb	$1, 56(%rsp)
	testq	%rax, %rax
	je	.L892
	movq	%rbx, (%rax)
.L893:
	movq	%r14, 200(%r12)
	leaq	48(%rsp), %rsi
	movq	%r12, %rdi
	call	_ZN4asio6detail15task_io_service26wake_one_thread_and_unlockERNS0_11scoped_lockINS0_11posix_mutexEEE@PLT
	cmpb	$0, 56(%rsp)
	je	.L884
	movq	48(%rsp), %rdi
	call	pthread_mutex_unlock@PLT
	jmp	.L884
.L889:
	movq	%rbx, 8(%rax)
	jmp	.L890
.L892:
	movq	%rbx, 192(%r12)
	jmp	.L893
.L900:
	movq	%rax, %r12
.L895:
	movq	16(%rsp), %rdi
	call	pthread_mutex_unlock@PLT
	leaq	64(%rsp), %rdi
	movq	%rbp, 72(%rsp)
	movq	%rbx, 80(%rsp)
	call	_ZN4asio6detail13epoll_reactor32perform_io_cleanup_on_block_exitD1Ev@PLT
	movq	%r12, %rdi
	call	_Unwind_Resume@PLT
.LEHE15:
	.cfi_endproc
.LFE3258:
	.section	.gcc_except_table._ZN4asio6detail13epoll_reactor16descriptor_state11do_completeEPNS0_15task_io_serviceEPNS0_25task_io_service_operationERKSt10error_codem,"aG",@progbits,_ZN4asio6detail13epoll_reactor16descriptor_state11do_completeEPNS0_15task_io_serviceEPNS0_25task_io_service_operationERKSt10error_codem,comdat
.LLSDA3258:
	.byte	0xff
	.byte	0xff
	.byte	0x1
	.uleb128 .LLSDACSE3258-.LLSDACSB3258
.LLSDACSB3258:
	.uleb128 .LEHB14-.LFB3258
	.uleb128 .LEHE14-.LEHB14
	.uleb128 .L900-.LFB3258
	.uleb128 0
	.uleb128 .LEHB15-.LFB3258
	.uleb128 .LEHE15-.LEHB15
	.uleb128 0
	.uleb128 0
.LLSDACSE3258:
	.section	.text._ZN4asio6detail13epoll_reactor16descriptor_state11do_completeEPNS0_15task_io_serviceEPNS0_25task_io_service_operationERKSt10error_codem,"axG",@progbits,_ZN4asio6detail13epoll_reactor16descriptor_state11do_completeEPNS0_15task_io_serviceEPNS0_25task_io_service_operationERKSt10error_codem,comdat
	.size	_ZN4asio6detail13epoll_reactor16descriptor_state11do_completeEPNS0_15task_io_serviceEPNS0_25task_io_service_operationERKSt10error_codem, .-_ZN4asio6detail13epoll_reactor16descriptor_state11do_completeEPNS0_15task_io_serviceEPNS0_25task_io_service_operationERKSt10error_codem
	.section	.text._ZN4asio6detail13socket_holderD2Ev,"axG",@progbits,_ZN4asio6detail13socket_holderD5Ev,comdat
	.align 2
	.p2align 4
	.weak	_ZN4asio6detail13socket_holderD2Ev
	.type	_ZN4asio6detail13socket_holderD2Ev, @function
_ZN4asio6detail13socket_holderD2Ev:
.LFB3747:
	.cfi_startproc
	.cfi_personality 0x9b,DW.ref.__gxx_personality_v0
	.cfi_lsda 0x1b,.LLSDA3747
	pushq	%r15
	.cfi_def_cfa_offset 16
	.cfi_offset 15, -16
	pushq	%r14
	.cfi_def_cfa_offset 24
	.cfi_offset 14, -24
	pushq	%rbx
	.cfi_def_cfa_offset 32
	.cfi_offset 3, -32
	subq	$32, %rsp
	.cfi_def_cfa_offset 64
	movl	(%rdi), %ebx
	cmpl	$-1, %ebx
	jne	.L940
.L925:
	addq	$32, %rsp
	.cfi_remember_state
	.cfi_def_cfa_offset 32
	popq	%rbx
	.cfi_def_cfa_offset 24
	popq	%r14
	.cfi_def_cfa_offset 16
	popq	%r15
	.cfi_def_cfa_offset 8
	ret
	.p2align 4,,10
	.p2align 3
.L940:
	.cfi_restore_state
	call	__errno_location@PLT
	movl	%ebx, %edi
	movl	$0, (%rax)
	movq	%rax, %r15
	call	close@PLT
	movl	%eax, %r14d
	call	_ZN4asio15system_categoryEv@PLT
	testl	%r14d, %r14d
	je	.L925
	movq	%rax, 8(%rsp)
	movl	(%r15), %r14d
	call	_ZN4asio15system_categoryEv@PLT
	cmpq	%rax, 8(%rsp)
	je	.L941
	call	_ZN4asio15system_categoryEv@PLT
	cmpq	%rax, 8(%rsp)
	jne	.L925
	cmpl	$11, %r14d
	jne	.L925
.L931:
	leaq	28(%rsp), %rdx
	movl	$21537, %esi
	movl	%ebx, %edi
	xorl	%eax, %eax
	movl	$0, 28(%rsp)
	call	ioctl@PLT
	movl	$0, (%r15)
	movl	%ebx, %edi
	call	close@PLT
	call	_ZN4asio15system_categoryEv@PLT
	jmp	.L925
	.p2align 4,,10
	.p2align 3
.L941:
	cmpl	$11, %r14d
	je	.L931
	addq	$32, %rsp
	.cfi_def_cfa_offset 32
	popq	%rbx
	.cfi_def_cfa_offset 24
	popq	%r14
	.cfi_def_cfa_offset 16
	popq	%r15
	.cfi_def_cfa_offset 8
.LEHB16:
	jmp	_ZN4asio15system_categoryEv@PLT
.LEHE16:
	.cfi_endproc
.LFE3747:
	.section	.gcc_except_table._ZN4asio6detail13socket_holderD2Ev,"aG",@progbits,_ZN4asio6detail13socket_holderD5Ev,comdat
.LLSDA3747:
	.byte	0xff
	.byte	0xff
	.byte	0x1
	.uleb128 .LLSDACSE3747-.LLSDACSB3747
.LLSDACSB3747:
	.uleb128 .LEHB16-.LFB3747
	.uleb128 .LEHE16-.LEHB16
	.uleb128 0
	.uleb128 0
.LLSDACSE3747:
	.section	.text._ZN4asio6detail13socket_holderD2Ev,"axG",@progbits,_ZN4asio6detail13socket_holderD5Ev,comdat
	.size	_ZN4asio6detail13socket_holderD2Ev, .-_ZN4asio6detail13socket_holderD2Ev
	.weak	_ZN4asio6detail13socket_holderD1Ev
	.set	_ZN4asio6detail13socket_holderD1Ev,_ZN4asio6detail13socket_holderD2Ev
	.section	.text._ZN4asio6detail28reactive_socket_service_base7destroyERNS1_24base_implementation_typeE,"axG",@progbits,_ZN4asio6detail28reactive_socket_service_base7destroyERNS1_24base_implementation_typeE,comdat
	.align 2
	.p2align 4
	.weak	_ZN4asio6detail28reactive_socket_service_base7destroyERNS1_24base_implementation_typeE
	.type	_ZN4asio6detail28reactive_socket_service_base7destroyERNS1_24base_implementation_typeE, @function
_ZN4asio6detail28reactive_socket_service_base7destroyERNS1_24base_implementation_typeE:
.LFB3830:
	.cfi_startproc
	pushq	%r15
	.cfi_def_cfa_offset 16
	.cfi_offset 15, -16
	pushq	%r14
	.cfi_def_cfa_offset 24
	.cfi_offset 14, -24
	pushq	%r12
	.cfi_def_cfa_offset 32
	.cfi_offset 12, -32
	pushq	%rbp
	.cfi_def_cfa_offset 40
	.cfi_offset 6, -40
	pushq	%rbx
	.cfi_def_cfa_offset 48
	.cfi_offset 3, -48
	movq	%rsi, %rbx
	subq	$32, %rsp
	.cfi_def_cfa_offset 80
	movl	(%rsi), %esi
	cmpl	$-1, %esi
	jne	.L964
.L942:
	addq	$32, %rsp
	.cfi_remember_state
	.cfi_def_cfa_offset 48
	popq	%rbx
	.cfi_def_cfa_offset 40
	popq	%rbp
	.cfi_def_cfa_offset 32
	popq	%r12
	.cfi_def_cfa_offset 24
	popq	%r14
	.cfi_def_cfa_offset 16
	popq	%r15
	.cfi_def_cfa_offset 8
	ret
	.p2align 4,,10
	.p2align 3
.L964:
	.cfi_restore_state
	movzbl	4(%rbx), %ecx
	movq	(%rdi), %rdi
	leaq	8(%rbx), %rdx
	shrb	$6, %cl
	andl	$1, %ecx
	xorl	$1, %ecx
	call	_ZN4asio6detail13epoll_reactor21deregister_descriptorEiRPNS1_16descriptor_stateEb@PLT
	movl	(%rbx), %ebp
	cmpl	$-1, %ebp
	je	.L942
	movzbl	4(%rbx), %edx
	movb	%dl, 15(%rsp)
	call	__errno_location@PLT
	movzbl	15(%rsp), %edx
	movq	%rax, %r15
	testb	$8, %dl
	jne	.L965
.L946:
	movl	$0, (%r15)
	movl	%ebp, %edi
	call	close@PLT
	movl	%eax, %r14d
	call	_ZN4asio15system_categoryEv@PLT
	movq	%rax, %r12
	testl	%r14d, %r14d
	je	.L942
	movl	(%r15), %r14d
	call	_ZN4asio15system_categoryEv@PLT
	cmpq	%rax, %r12
	je	.L966
	call	_ZN4asio15system_categoryEv@PLT
	cmpl	$11, %r14d
	jne	.L942
	cmpq	%rax, %r12
	jne	.L942
.L949:
	leaq	24(%rsp), %rdx
	movl	$21537, %esi
	movl	%ebp, %edi
	xorl	%eax, %eax
	movl	$0, 24(%rsp)
	call	ioctl@PLT
	andb	$-4, 4(%rbx)
	movl	%ebp, %edi
	movl	$0, (%r15)
	call	close@PLT
	call	_ZN4asio15system_categoryEv@PLT
	jmp	.L942
	.p2align 4,,10
	.p2align 3
.L965:
	orl	$8, %edx
	leaq	24(%rsp), %rcx
	movl	$8, %r8d
	movl	%ebp, %edi
	movb	%dl, 4(%rbx)
	movl	$1, %esi
	movl	$13, %edx
	movq	$0, 24(%rsp)
	movl	$0, (%rax)
	call	setsockopt@PLT
	call	_ZN4asio15system_categoryEv@PLT
	jmp	.L946
	.p2align 4,,10
	.p2align 3
.L966:
	cmpl	$11, %r14d
	je	.L949
	addq	$32, %rsp
	.cfi_def_cfa_offset 48
	popq	%rbx
	.cfi_def_cfa_offset 40
	popq	%rbp
	.cfi_def_cfa_offset 32
	popq	%r12
	.cfi_def_cfa_offset 24
	popq	%r14
	.cfi_def_cfa_offset 16
	popq	%r15
	.cfi_def_cfa_offset 8
	jmp	_ZN4asio15system_categoryEv@PLT
	.cfi_endproc
.LFE3830:
	.size	_ZN4asio6detail28reactive_socket_service_base7destroyERNS1_24base_implementation_typeE, .-_ZN4asio6detail28reactive_socket_service_base7destroyERNS1_24base_implementation_typeE
	.section	.text._ZN4asio6detail14strand_service16on_dispatch_exitD2Ev,"axG",@progbits,_ZN4asio6detail14strand_service16on_dispatch_exitD5Ev,comdat
	.align 2
	.p2align 4
	.weak	_ZN4asio6detail14strand_service16on_dispatch_exitD2Ev
	.type	_ZN4asio6detail14strand_service16on_dispatch_exitD2Ev, @function
_ZN4asio6detail14strand_service16on_dispatch_exitD2Ev:
.LFB6390:
	.cfi_startproc
	pushq	%rbp
	.cfi_def_cfa_offset 16
	.cfi_offset 6, -16
	movq	%rdi, %rbp
	pushq	%rbx
	.cfi_def_cfa_offset 24
	.cfi_offset 3, -24
	subq	$8, %rsp
	.cfi_def_cfa_offset 32
	movq	8(%rdi), %rax
	leaq	24(%rax), %rdi
	call	pthread_mutex_lock@PLT
	movq	8(%rbp), %rdi
	movq	72(%rdi), %rbx
	testq	%rbx, %rbx
	je	.L974
	movq	96(%rdi), %rax
	testq	%rax, %rax
	je	.L970
	movq	%rbx, (%rax)
	movq	88(%rdi), %rbx
.L971:
	movq	80(%rdi), %rax
	pxor	%xmm0, %xmm0
	movups	%xmm0, 72(%rdi)
	movq	%rax, 96(%rdi)
.L969:
	testq	%rbx, %rbx
	setne	64(%rdi)
	addq	$24, %rdi
	call	pthread_mutex_unlock@PLT
	testq	%rbx, %rbx
	je	.L967
	movq	8(%rbp), %rsi
	movq	0(%rbp), %rdi
	addq	$8, %rsp
	.cfi_remember_state
	.cfi_def_cfa_offset 24
	xorl	%edx, %edx
	popq	%rbx
	.cfi_def_cfa_offset 16
	popq	%rbp
	.cfi_def_cfa_offset 8
	jmp	_ZN4asio6detail15task_io_service25post_immediate_completionEPNS0_25task_io_service_operationEb@PLT
	.p2align 4,,10
	.p2align 3
.L970:
	.cfi_restore_state
	movq	%rbx, 88(%rdi)
	jmp	.L971
	.p2align 4,,10
	.p2align 3
.L967:
	addq	$8, %rsp
	.cfi_remember_state
	.cfi_def_cfa_offset 24
	popq	%rbx
	.cfi_def_cfa_offset 16
	popq	%rbp
	.cfi_def_cfa_offset 8
	ret
	.p2align 4,,10
	.p2align 3
.L974:
	.cfi_restore_state
	movq	88(%rdi), %rbx
	jmp	.L969
	.cfi_endproc
.LFE6390:
	.size	_ZN4asio6detail14strand_service16on_dispatch_exitD2Ev, .-_ZN4asio6detail14strand_service16on_dispatch_exitD2Ev
	.weak	_ZN4asio6detail14strand_service16on_dispatch_exitD1Ev
	.set	_ZN4asio6detail14strand_service16on_dispatch_exitD1Ev,_ZN4asio6detail14strand_service16on_dispatch_exitD2Ev
	.section	.text._ZN4asio6detail14strand_service11do_dispatchERPNS1_11strand_implEPNS0_25task_io_service_operationE,"axG",@progbits,_ZN4asio6detail14strand_service11do_dispatchERPNS1_11strand_implEPNS0_25task_io_service_operationE,comdat
	.align 2
	.p2align 4
	.weak	_ZN4asio6detail14strand_service11do_dispatchERPNS1_11strand_implEPNS0_25task_io_service_operationE
	.type	_ZN4asio6detail14strand_service11do_dispatchERPNS1_11strand_implEPNS0_25task_io_service_operationE, @function
_ZN4asio6detail14strand_service11do_dispatchERPNS1_11strand_implEPNS0_25task_io_service_operationE:
.LFB6407:
	.cfi_startproc
	pushq	%r13
	.cfi_def_cfa_offset 16
	.cfi_offset 13, -16
	movq	%rdx, %xmm0
	pushq	%r12
	.cfi_def_cfa_offset 24
	.cfi_offset 12, -24
	punpcklqdq	%xmm0, %xmm0
	movq	%rdi, %r12
	pushq	%rbp
	.cfi_def_cfa_offset 32
	.cfi_offset 6, -32
	movq	%rsi, %rbp
	pushq	%rbx
	.cfi_def_cfa_offset 40
	.cfi_offset 3, -40
	movq	%rdx, %rbx
	subq	$24, %rsp
	.cfi_def_cfa_offset 64
	movaps	%xmm0, (%rsp)
	data16	leaq	_ZN4asio6detail15keyword_tss_ptrINS0_10call_stackINS0_15task_io_serviceENS0_27task_io_service_thread_infoEE7contextEE6value_E@tlsgd(%rip), %rdi
	.value	0x6666
	rex64
	call	__tls_get_addr@PLT
	movq	(%rax), %rax
	testq	%rax, %rax
	je	.L991
	movq	40(%r12), %rdx
	jmp	.L980
	.p2align 4
	.p2align 4,,10
	.p2align 3
.L977:
	movq	16(%rax), %rax
	testq	%rax, %rax
	je	.L991
.L980:
	cmpq	(%rax), %rdx
	jne	.L977
	movq	8(%rax), %r13
	movq	0(%rbp), %rax
	leaq	24(%rax), %rdi
	call	pthread_mutex_lock@PLT
	testq	%r13, %r13
	je	.L979
	movq	0(%rbp), %rdi
	cmpb	$0, 64(%rdi)
	je	.L993
.L982:
	movq	80(%rdi), %rax
	movq	$0, (%rbx)
	testq	%rax, %rax
	je	.L985
	movq	%rbx, (%rax)
	movq	%rbx, 80(%rdi)
.L986:
	addq	$24, %rdi
	call	pthread_mutex_unlock@PLT
.L989:
	addq	$24, %rsp
	.cfi_remember_state
	.cfi_def_cfa_offset 40
	xorl	%eax, %eax
	popq	%rbx
	.cfi_def_cfa_offset 32
	popq	%rbp
	.cfi_def_cfa_offset 24
	popq	%r12
	.cfi_def_cfa_offset 16
	popq	%r13
	.cfi_def_cfa_offset 8
	ret
	.p2align 4,,10
	.p2align 3
.L991:
	.cfi_restore_state
	movq	0(%rbp), %rax
	leaq	24(%rax), %rdi
	call	pthread_mutex_lock@PLT
.L979:
	movq	0(%rbp), %rdi
	cmpb	$0, 64(%rdi)
	jne	.L982
	movb	$1, 64(%rdi)
	addq	$24, %rdi
	call	pthread_mutex_unlock@PLT
	movq	0(%rbp), %rsi
	movq	$0, (%rbx)
	movq	96(%rsi), %rax
	testq	%rax, %rax
	je	.L987
	movq	%rbx, (%rax)
	movq	%rbx, 96(%rsi)
.L988:
	movq	40(%r12), %rdi
	xorl	%edx, %edx
	call	_ZN4asio6detail15task_io_service25post_immediate_completionEPNS0_25task_io_service_operationEb@PLT
	jmp	.L989
	.p2align 4,,10
	.p2align 3
.L985:
	movdqa	(%rsp), %xmm1
	movups	%xmm1, 72(%rdi)
	jmp	.L986
.L987:
	movdqa	(%rsp), %xmm2
	movups	%xmm2, 88(%rsi)
	jmp	.L988
	.p2align 4,,10
	.p2align 3
.L993:
	movb	$1, 64(%rdi)
	addq	$24, %rdi
	call	pthread_mutex_unlock@PLT
	addq	$24, %rsp
	.cfi_def_cfa_offset 40
	movl	$1, %eax
	popq	%rbx
	.cfi_def_cfa_offset 32
	popq	%rbp
	.cfi_def_cfa_offset 24
	popq	%r12
	.cfi_def_cfa_offset 16
	popq	%r13
	.cfi_def_cfa_offset 8
	ret
	.cfi_endproc
.LFE6407:
	.size	_ZN4asio6detail14strand_service11do_dispatchERPNS1_11strand_implEPNS0_25task_io_service_operationE, .-_ZN4asio6detail14strand_service11do_dispatchERPNS1_11strand_implEPNS0_25task_io_service_operationE
	.section	.text._ZNSt16_Sp_counted_baseILN9__gnu_cxx12_Lock_policyE2EE24_M_release_last_use_coldEv,"axG",@progbits,_ZNSt16_Sp_counted_baseILN9__gnu_cxx12_Lock_policyE2EE24_M_release_last_use_coldEv,comdat
	.align 2
	.p2align 4
	.weak	_ZNSt16_Sp_counted_baseILN9__gnu_cxx12_Lock_policyE2EE24_M_release_last_use_coldEv
	.type	_ZNSt16_Sp_counted_baseILN9__gnu_cxx12_Lock_policyE2EE24_M_release_last_use_coldEv, @function
_ZNSt16_Sp_counted_baseILN9__gnu_cxx12_Lock_policyE2EE24_M_release_last_use_coldEv:
.LFB7387:
	.cfi_startproc
	pushq	%rbx
	.cfi_def_cfa_offset 16
	.cfi_offset 3, -16
	movq	(%rdi), %rax
	movq	%rdi, %rbx
	call	*16(%rax)
	movq	__libc_single_threaded@GOTPCREL(%rip), %rax
	cmpb	$0, (%rax)
	je	.L995
	movl	12(%rbx), %eax
	leal	-1(%rax), %edx
	movl	%edx, 12(%rbx)
.L996:
	cmpl	$1, %eax
	je	.L999
	popq	%rbx
	.cfi_remember_state
	.cfi_def_cfa_offset 8
	ret
	.p2align 4,,10
	.p2align 3
.L999:
	.cfi_restore_state
	movq	(%rbx), %rax
	movq	%rbx, %rdi
	popq	%rbx
	.cfi_remember_state
	.cfi_def_cfa_offset 8
	movq	24(%rax), %rax
	jmp	*%rax
	.p2align 4,,10
	.p2align 3
.L995:
	.cfi_restore_state
	movl	$-1, %eax
	lock xaddl	%eax, 12(%rbx)
	jmp	.L996
	.cfi_endproc
.LFE7387:
	.size	_ZNSt16_Sp_counted_baseILN9__gnu_cxx12_Lock_policyE2EE24_M_release_last_use_coldEv, .-_ZNSt16_Sp_counted_baseILN9__gnu_cxx12_Lock_policyE2EE24_M_release_last_use_coldEv
	.section	.text._ZNSt16_Sp_counted_baseILN9__gnu_cxx12_Lock_policyE2EE10_M_releaseEv,"axG",@progbits,_ZNSt16_Sp_counted_baseILN9__gnu_cxx12_Lock_policyE2EE10_M_releaseEv,comdat
	.align 2
	.p2align 4
	.weak	_ZNSt16_Sp_counted_baseILN9__gnu_cxx12_Lock_policyE2EE10_M_releaseEv
	.type	_ZNSt16_Sp_counted_baseILN9__gnu_cxx12_Lock_policyE2EE10_M_releaseEv, @function
_ZNSt16_Sp_counted_baseILN9__gnu_cxx12_Lock_policyE2EE10_M_releaseEv:
.LFB1694:
	.cfi_startproc
	movabsq	$4294967297, %rax
	movq	8(%rdi), %rdx
	cmpq	%rax, %rdx
	je	.L1008
	movq	__libc_single_threaded@GOTPCREL(%rip), %rax
	cmpb	$0, (%rax)
	je	.L1002
	movl	8(%rdi), %eax
	leal	-1(%rax), %edx
	movl	%edx, 8(%rdi)
.L1003:
	cmpl	$1, %eax
	je	.L1009
	ret
	.p2align 4,,10
	.p2align 3
.L1002:
	leaq	8(%rdi), %rcx
	movl	$-1, %eax
	lock xaddl	%eax, (%rcx)
	jmp	.L1003
	.p2align 4,,10
	.p2align 3
.L1008:
	subq	$24, %rsp
	.cfi_def_cfa_offset 32
	movq	(%rdi), %rax
	movq	$0, 8(%rdi)
	movq	%rdi, 8(%rsp)
	call	*16(%rax)
	movq	8(%rsp), %rdi
	movq	(%rdi), %rax
	movq	24(%rax), %rax
	addq	$24, %rsp
	.cfi_def_cfa_offset 8
	jmp	*%rax
	.p2align 4,,10
	.p2align 3
.L1009:
	jmp	_ZNSt16_Sp_counted_baseILN9__gnu_cxx12_Lock_policyE2EE24_M_release_last_use_coldEv@PLT
	.cfi_endproc
.LFE1694:
	.size	_ZNSt16_Sp_counted_baseILN9__gnu_cxx12_Lock_policyE2EE10_M_releaseEv, .-_ZNSt16_Sp_counted_baseILN9__gnu_cxx12_Lock_policyE2EE10_M_releaseEv
	.section	.text._ZN7openpal6LoggerD2Ev,"axG",@progbits,_ZN7openpal6LoggerD5Ev,comdat
	.align 2
	.p2align 4
	.weak	_ZN7openpal6LoggerD2Ev
	.type	_ZN7openpal6LoggerD2Ev, @function
_ZN7openpal6LoggerD2Ev:
.LFB6973:
	.cfi_startproc
	movq	%rdi, %rax
	movq	24(%rdi), %rdi
	testq	%rdi, %rdi
	je	.L1017
	subq	$24, %rsp
	.cfi_def_cfa_offset 32
	movq	%rax, 8(%rsp)
	call	_ZNSt16_Sp_counted_baseILN9__gnu_cxx12_Lock_policyE2EE10_M_releaseEv@PLT
	movq	8(%rsp), %rax
	movq	8(%rax), %rdi
	testq	%rdi, %rdi
	je	.L1010
	addq	$24, %rsp
	.cfi_remember_state
	.cfi_def_cfa_offset 8
	jmp	_ZNSt16_Sp_counted_baseILN9__gnu_cxx12_Lock_policyE2EE10_M_releaseEv@PLT
	.p2align 4,,10
	.p2align 3
.L1010:
	.cfi_restore_state
	addq	$24, %rsp
	.cfi_def_cfa_offset 8
	ret
	.p2align 4,,10
	.p2align 3
.L1017:
	movq	8(%rax), %rdi
	testq	%rdi, %rdi
	je	.L1019
	jmp	_ZNSt16_Sp_counted_baseILN9__gnu_cxx12_Lock_policyE2EE10_M_releaseEv@PLT
	.p2align 4,,10
	.p2align 3
.L1019:
	ret
	.cfi_endproc
.LFE6973:
	.size	_ZN7openpal6LoggerD2Ev, .-_ZN7openpal6LoggerD2Ev
	.weak	_ZN7openpal6LoggerD1Ev
	.set	_ZN7openpal6LoggerD1Ev,_ZN7openpal6LoggerD2Ev
	.text
	.align 2
	.p2align 4
	.type	_ZZN7asiopal9TCPClient12BeginConnectERKSt8functionIFvRKSt10shared_ptrINS_8ExecutorEEN4asio19basic_stream_socketINS7_2ip3tcpENS7_21stream_socket_serviceISA_EEEERKSt10error_codeEEENUlSG_NS9_23basic_resolver_iteratorISA_EEE_D2Ev, @function
_ZZN7asiopal9TCPClient12BeginConnectERKSt8functionIFvRKSt10shared_ptrINS_8ExecutorEEN4asio19basic_stream_socketINS7_2ip3tcpENS7_21stream_socket_serviceISA_EEEERKSt10error_codeEEENUlSG_NS9_23basic_resolver_iteratorISA_EEE_D2Ev:
.LFB7056:
	.cfi_startproc
	.cfi_personality 0x9b,DW.ref.__gxx_personality_v0
	.cfi_lsda 0x1b,.LLSDA7056
	pushq	%rbx
	.cfi_def_cfa_offset 16
	.cfi_offset 3, -16
	movq	32(%rdi), %rax
	movq	%rdi, %rbx
	testq	%rax, %rax
	je	.L1023
	leaq	16(%rdi), %rdi
	movl	$3, %edx
	movq	%rdi, %rsi
	call	*%rax
.L1023:
	movq	8(%rbx), %rdi
	testq	%rdi, %rdi
	je	.L1022
	popq	%rbx
	.cfi_remember_state
	.cfi_def_cfa_offset 8
.LEHB17:
	jmp	_ZNSt16_Sp_counted_baseILN9__gnu_cxx12_Lock_policyE2EE10_M_releaseEv@PLT
.LEHE17:
	.p2align 4,,10
	.p2align 3
.L1022:
	.cfi_restore_state
	popq	%rbx
	.cfi_def_cfa_offset 8
	ret
	.cfi_endproc
.LFE7056:
	.section	.gcc_except_table,"a",@progbits
.LLSDA7056:
	.byte	0xff
	.byte	0xff
	.byte	0x1
	.uleb128 .LLSDACSE7056-.LLSDACSB7056
.LLSDACSB7056:
	.uleb128 .LEHB17-.LFB7056
	.uleb128 .LEHE17-.LEHB17
	.uleb128 0
	.uleb128 0
.LLSDACSE7056:
	.text
	.size	_ZZN7asiopal9TCPClient12BeginConnectERKSt8functionIFvRKSt10shared_ptrINS_8ExecutorEEN4asio19basic_stream_socketINS7_2ip3tcpENS7_21stream_socket_serviceISA_EEEERKSt10error_codeEEENUlSG_NS9_23basic_resolver_iteratorISA_EEE_D2Ev, .-_ZZN7asiopal9TCPClient12BeginConnectERKSt8functionIFvRKSt10shared_ptrINS_8ExecutorEEN4asio19basic_stream_socketINS7_2ip3tcpENS7_21stream_socket_serviceISA_EEEERKSt10error_codeEEENUlSG_NS9_23basic_resolver_iteratorISA_EEE_D2Ev
	.set	_ZZN7asiopal9TCPClient12BeginConnectERKSt8functionIFvRKSt10shared_ptrINS_8ExecutorEEN4asio19basic_stream_socketINS7_2ip3tcpENS7_21stream_socket_serviceISA_EEEERKSt10error_codeEEENUlSG_NS9_23basic_resolver_iteratorISA_EEE_D1Ev,_ZZN7asiopal9TCPClient12BeginConnectERKSt8functionIFvRKSt10shared_ptrINS_8ExecutorEEN4asio19basic_stream_socketINS7_2ip3tcpENS7_21stream_socket_serviceISA_EEEERKSt10error_codeEEENUlSG_NS9_23basic_resolver_iteratorISA_EEE_D2Ev
	.align 2
	.p2align 4
	.type	_ZZN7asiopal9TCPClient12BeginConnectERKSt8functionIFvRKSt10shared_ptrINS_8ExecutorEEN4asio19basic_stream_socketINS7_2ip3tcpENS7_21stream_socket_serviceISA_EEEERKSt10error_codeEEENUlSG_E_D2Ev, @function
_ZZN7asiopal9TCPClient12BeginConnectERKSt8functionIFvRKSt10shared_ptrINS_8ExecutorEEN4asio19basic_stream_socketINS7_2ip3tcpENS7_21stream_socket_serviceISA_EEEERKSt10error_codeEEENUlSG_E_D2Ev:
.LFB7072:
	.cfi_startproc
	.cfi_personality 0x9b,DW.ref.__gxx_personality_v0
	.cfi_lsda 0x1b,.LLSDA7072
	pushq	%rbx
	.cfi_def_cfa_offset 16
	.cfi_offset 3, -16
	movq	32(%rdi), %rax
	movq	%rdi, %rbx
	testq	%rax, %rax
	je	.L1030
	leaq	16(%rdi), %rdi
	movl	$3, %edx
	movq	%rdi, %rsi
	call	*%rax
.L1030:
	movq	8(%rbx), %rdi
	testq	%rdi, %rdi
	je	.L1029
	popq	%rbx
	.cfi_remember_state
	.cfi_def_cfa_offset 8
.LEHB18:
	jmp	_ZNSt16_Sp_counted_baseILN9__gnu_cxx12_Lock_policyE2EE10_M_releaseEv@PLT
.LEHE18:
	.p2align 4,,10
	.p2align 3
.L1029:
	.cfi_restore_state
	popq	%rbx
	.cfi_def_cfa_offset 8
	ret
	.cfi_endproc
.LFE7072:
	.section	.gcc_except_table
.LLSDA7072:
	.byte	0xff
	.byte	0xff
	.byte	0x1
	.uleb128 .LLSDACSE7072-.LLSDACSB7072
.LLSDACSB7072:
	.uleb128 .LEHB18-.LFB7072
	.uleb128 .LEHE18-.LEHB18
	.uleb128 0
	.uleb128 0
.LLSDACSE7072:
	.text
	.size	_ZZN7asiopal9TCPClient12BeginConnectERKSt8functionIFvRKSt10shared_ptrINS_8ExecutorEEN4asio19basic_stream_socketINS7_2ip3tcpENS7_21stream_socket_serviceISA_EEEERKSt10error_codeEEENUlSG_E_D2Ev, .-_ZZN7asiopal9TCPClient12BeginConnectERKSt8functionIFvRKSt10shared_ptrINS_8ExecutorEEN4asio19basic_stream_socketINS7_2ip3tcpENS7_21stream_socket_serviceISA_EEEERKSt10error_codeEEENUlSG_E_D2Ev
	.set	_ZZN7asiopal9TCPClient12BeginConnectERKSt8functionIFvRKSt10shared_ptrINS_8ExecutorEEN4asio19basic_stream_socketINS7_2ip3tcpENS7_21stream_socket_serviceISA_EEEERKSt10error_codeEEENUlSG_E_D1Ev,_ZZN7asiopal9TCPClient12BeginConnectERKSt8functionIFvRKSt10shared_ptrINS_8ExecutorEEN4asio19basic_stream_socketINS7_2ip3tcpENS7_21stream_socket_serviceISA_EEEERKSt10error_codeEEENUlSG_E_D2Ev
	.align 2
	.p2align 4
	.type	_ZZN7asiopal9TCPClient19HandleResolveResultERKSt8functionIFvRKSt10shared_ptrINS_8ExecutorEEN4asio19basic_stream_socketINS7_2ip3tcpENS7_21stream_socket_serviceISA_EEEERKSt10error_codeEERKNS9_23basic_resolver_iteratorISA_EESG_ENUlSG_SM_E_D2Ev, @function
_ZZN7asiopal9TCPClient19HandleResolveResultERKSt8functionIFvRKSt10shared_ptrINS_8ExecutorEEN4asio19basic_stream_socketINS7_2ip3tcpENS7_21stream_socket_serviceISA_EEEERKSt10error_codeEERKNS9_23basic_resolver_iteratorISA_EESG_ENUlSG_SM_E_D2Ev:
.LFB7086:
	.cfi_startproc
	.cfi_personality 0x9b,DW.ref.__gxx_personality_v0
	.cfi_lsda 0x1b,.LLSDA7086
	pushq	%rbx
	.cfi_def_cfa_offset 16
	.cfi_offset 3, -16
	movq	32(%rdi), %rax
	movq	%rdi, %rbx
	testq	%rax, %rax
	je	.L1037
	leaq	16(%rdi), %rdi
	movl	$3, %edx
	movq	%rdi, %rsi
	call	*%rax
.L1037:
	movq	8(%rbx), %rdi
	testq	%rdi, %rdi
	je	.L1036
	popq	%rbx
	.cfi_remember_state
	.cfi_def_cfa_offset 8
.LEHB19:
	jmp	_ZNSt16_Sp_counted_baseILN9__gnu_cxx12_Lock_policyE2EE10_M_releaseEv@PLT
.LEHE19:
	.p2align 4,,10
	.p2align 3
.L1036:
	.cfi_restore_state
	popq	%rbx
	.cfi_def_cfa_offset 8
	ret
	.cfi_endproc
.LFE7086:
	.section	.gcc_except_table
.LLSDA7086:
	.byte	0xff
	.byte	0xff
	.byte	0x1
	.uleb128 .LLSDACSE7086-.LLSDACSB7086
.LLSDACSB7086:
	.uleb128 .LEHB19-.LFB7086
	.uleb128 .LEHE19-.LEHB19
	.uleb128 0
	.uleb128 0
.LLSDACSE7086:
	.text
	.size	_ZZN7asiopal9TCPClient19HandleResolveResultERKSt8functionIFvRKSt10shared_ptrINS_8ExecutorEEN4asio19basic_stream_socketINS7_2ip3tcpENS7_21stream_socket_serviceISA_EEEERKSt10error_codeEERKNS9_23basic_resolver_iteratorISA_EESG_ENUlSG_SM_E_D2Ev, .-_ZZN7asiopal9TCPClient19HandleResolveResultERKSt8functionIFvRKSt10shared_ptrINS_8ExecutorEEN4asio19basic_stream_socketINS7_2ip3tcpENS7_21stream_socket_serviceISA_EEEERKSt10error_codeEERKNS9_23basic_resolver_iteratorISA_EESG_ENUlSG_SM_E_D2Ev
	.set	_ZZN7asiopal9TCPClient19HandleResolveResultERKSt8functionIFvRKSt10shared_ptrINS_8ExecutorEEN4asio19basic_stream_socketINS7_2ip3tcpENS7_21stream_socket_serviceISA_EEEERKSt10error_codeEERKNS9_23basic_resolver_iteratorISA_EESG_ENUlSG_SM_E_D1Ev,_ZZN7asiopal9TCPClient19HandleResolveResultERKSt8functionIFvRKSt10shared_ptrINS_8ExecutorEEN4asio19basic_stream_socketINS7_2ip3tcpENS7_21stream_socket_serviceISA_EEEERKSt10error_codeEERKNS9_23basic_resolver_iteratorISA_EESG_ENUlSG_SM_E_D2Ev
	.section	.text.unlikely
	.align 2
	.type	_ZZN7asiopal9TCPClient16PostConnectErrorERKSt8functionIFvRKSt10shared_ptrINS_8ExecutorEEN4asio19basic_stream_socketINS7_2ip3tcpENS7_21stream_socket_serviceISA_EEEERKSt10error_codeEESG_ENUlvE_D2Ev, @function
_ZZN7asiopal9TCPClient16PostConnectErrorERKSt8functionIFvRKSt10shared_ptrINS_8ExecutorEEN4asio19basic_stream_socketINS7_2ip3tcpENS7_21stream_socket_serviceISA_EEEERKSt10error_codeEESG_ENUlvE_D2Ev:
.LFB7121:
	.cfi_startproc
	.cfi_personality 0x9b,DW.ref.__gxx_personality_v0
	.cfi_lsda 0x1b,.LLSDA7121
	pushq	%rbx
	.cfi_def_cfa_offset 16
	.cfi_offset 3, -16
	movq	48(%rdi), %rax
	movq	%rdi, %rbx
	testq	%rax, %rax
	je	.L1044
	leaq	32(%rdi), %rdi
	movl	$3, %edx
	movq	%rdi, %rsi
	call	*%rax
.L1044:
	movq	8(%rbx), %rdi
	testq	%rdi, %rdi
	je	.L1043
	popq	%rbx
	.cfi_remember_state
	.cfi_def_cfa_offset 8
.LEHB20:
	jmp	_ZNSt16_Sp_counted_baseILN9__gnu_cxx12_Lock_policyE2EE10_M_releaseEv@PLT
.LEHE20:
.L1043:
	.cfi_restore_state
	popq	%rbx
	.cfi_def_cfa_offset 8
	ret
	.cfi_endproc
.LFE7121:
	.section	.gcc_except_table
.LLSDA7121:
	.byte	0xff
	.byte	0xff
	.byte	0x1
	.uleb128 .LLSDACSE7121-.LLSDACSB7121
.LLSDACSB7121:
	.uleb128 .LEHB20-.LFB7121
	.uleb128 .LEHE20-.LEHB20
	.uleb128 0
	.uleb128 0
.LLSDACSE7121:
	.section	.text.unlikely
	.size	_ZZN7asiopal9TCPClient16PostConnectErrorERKSt8functionIFvRKSt10shared_ptrINS_8ExecutorEEN4asio19basic_stream_socketINS7_2ip3tcpENS7_21stream_socket_serviceISA_EEEERKSt10error_codeEESG_ENUlvE_D2Ev, .-_ZZN7asiopal9TCPClient16PostConnectErrorERKSt8functionIFvRKSt10shared_ptrINS_8ExecutorEEN4asio19basic_stream_socketINS7_2ip3tcpENS7_21stream_socket_serviceISA_EEEERKSt10error_codeEESG_ENUlvE_D2Ev
	.set	_ZZN7asiopal9TCPClient16PostConnectErrorERKSt8functionIFvRKSt10shared_ptrINS_8ExecutorEEN4asio19basic_stream_socketINS7_2ip3tcpENS7_21stream_socket_serviceISA_EEEERKSt10error_codeEESG_ENUlvE_D1Ev,_ZZN7asiopal9TCPClient16PostConnectErrorERKSt8functionIFvRKSt10shared_ptrINS_8ExecutorEEN4asio19basic_stream_socketINS7_2ip3tcpENS7_21stream_socket_serviceISA_EEEERKSt10error_codeEESG_ENUlvE_D2Ev
	.align 2
.LCOLDB27:
	.text
.LHOTB27:
	.align 2
	.p2align 4
	.type	_ZZN7asiopal9TCPClient12BeginConnectERKSt8functionIFvRKSt10shared_ptrINS_8ExecutorEEN4asio19basic_stream_socketINS7_2ip3tcpENS7_21stream_socket_serviceISA_EEEERKSt10error_codeEEENUlSG_NS9_23basic_resolver_iteratorISA_EEE_C2EOSN_, @function
_ZZN7asiopal9TCPClient12BeginConnectERKSt8functionIFvRKSt10shared_ptrINS_8ExecutorEEN4asio19basic_stream_socketINS7_2ip3tcpENS7_21stream_socket_serviceISA_EEEERKSt10error_codeEEENUlSG_NS9_23basic_resolver_iteratorISA_EEE_C2EOSN_:
.LFB7059:
	.cfi_startproc
	.cfi_personality 0x9b,DW.ref.__gxx_personality_v0
	.cfi_lsda 0x1b,.LLSDA7059
	movq	(%rsi), %rax
	movq	$0, 8(%rdi)
	pxor	%xmm0, %xmm0
	movq	%rax, (%rdi)
	movq	8(%rsi), %rax
	movups	%xmm0, (%rsi)
	pxor	%xmm0, %xmm0
	movq	%rax, 8(%rdi)
	movq	32(%rsi), %rax
	movq	$0, 32(%rdi)
	movq	$0, 40(%rdi)
	movups	%xmm0, 16(%rdi)
	testq	%rax, %rax
	je	.L1066
	pushq	%r12
	.cfi_def_cfa_offset 16
	.cfi_offset 12, -16
	movl	$2, %edx
	pushq	%rbp
	.cfi_def_cfa_offset 24
	.cfi_offset 6, -24
	movq	%rdi, %rbp
	leaq	16(%rdi), %rdi
	pushq	%rbx
	.cfi_def_cfa_offset 32
	.cfi_offset 3, -32
	movq	%rsi, %rbx
	leaq	16(%rsi), %rsi
.LEHB21:
	call	*%rax
.LEHE21:
	movdqu	32(%rbx), %xmm0
	movups	%xmm0, 32(%rbp)
	popq	%rbx
	.cfi_def_cfa_offset 24
	popq	%rbp
	.cfi_def_cfa_offset 16
	popq	%r12
	.cfi_def_cfa_offset 8
	ret
	.p2align 4,,10
	.p2align 3
.L1066:
	.cfi_restore 3
	.cfi_restore 6
	.cfi_restore 12
	ret
.L1055:
	.cfi_def_cfa_offset 32
	.cfi_offset 3, -32
	.cfi_offset 6, -24
	.cfi_offset 12, -16
	movq	%rax, %rbx
	jmp	.L1052
	.section	.gcc_except_table
.LLSDA7059:
	.byte	0xff
	.byte	0xff
	.byte	0x1
	.uleb128 .LLSDACSE7059-.LLSDACSB7059
.LLSDACSB7059:
	.uleb128 .LEHB21-.LFB7059
	.uleb128 .LEHE21-.LEHB21
	.uleb128 .L1055-.LFB7059
	.uleb128 0
.LLSDACSE7059:
	.text
	.cfi_endproc
	.section	.text.unlikely
	.cfi_startproc
	.cfi_personality 0x9b,DW.ref.__gxx_personality_v0
	.cfi_lsda 0x1b,.LLSDAC7059
	.type	_ZZN7asiopal9TCPClient12BeginConnectERKSt8functionIFvRKSt10shared_ptrINS_8ExecutorEEN4asio19basic_stream_socketINS7_2ip3tcpENS7_21stream_socket_serviceISA_EEEERKSt10error_codeEEENUlSG_NS9_23basic_resolver_iteratorISA_EEE_C2EOSN_.cold, @function
_ZZN7asiopal9TCPClient12BeginConnectERKSt8functionIFvRKSt10shared_ptrINS_8ExecutorEEN4asio19basic_stream_socketINS7_2ip3tcpENS7_21stream_socket_serviceISA_EEEERKSt10error_codeEEENUlSG_NS9_23basic_resolver_iteratorISA_EEE_C2EOSN_.cold:
.LFSB7059:
.L1052:
	.cfi_def_cfa_offset 32
	.cfi_offset 3, -32
	.cfi_offset 6, -24
	.cfi_offset 12, -16
	movq	32(%rbp), %rax
	testq	%rax, %rax
	je	.L1053
	movl	$3, %edx
	leaq	16(%rbp), %rsi
	leaq	16(%rbp), %rdi
	call	*%rax
.L1053:
	movq	8(%rbp), %rdi
	testq	%rdi, %rdi
	je	.L1054
	call	_ZNSt16_Sp_counted_baseILN9__gnu_cxx12_Lock_policyE2EE10_M_releaseEv@PLT
.L1054:
	movq	%rbx, %rdi
.LEHB22:
	call	_Unwind_Resume@PLT
.LEHE22:
	.cfi_endproc
.LFE7059:
	.section	.gcc_except_table
.LLSDAC7059:
	.byte	0xff
	.byte	0xff
	.byte	0x1
	.uleb128 .LLSDACSEC7059-.LLSDACSBC7059
.LLSDACSBC7059:
	.uleb128 .LEHB22-.LCOLDB27
	.uleb128 .LEHE22-.LEHB22
	.uleb128 0
	.uleb128 0
.LLSDACSEC7059:
	.section	.text.unlikely
	.text
	.size	_ZZN7asiopal9TCPClient12BeginConnectERKSt8functionIFvRKSt10shared_ptrINS_8ExecutorEEN4asio19basic_stream_socketINS7_2ip3tcpENS7_21stream_socket_serviceISA_EEEERKSt10error_codeEEENUlSG_NS9_23basic_resolver_iteratorISA_EEE_C2EOSN_, .-_ZZN7asiopal9TCPClient12BeginConnectERKSt8functionIFvRKSt10shared_ptrINS_8ExecutorEEN4asio19basic_stream_socketINS7_2ip3tcpENS7_21stream_socket_serviceISA_EEEERKSt10error_codeEEENUlSG_NS9_23basic_resolver_iteratorISA_EEE_C2EOSN_
	.section	.text.unlikely
	.size	_ZZN7asiopal9TCPClient12BeginConnectERKSt8functionIFvRKSt10shared_ptrINS_8ExecutorEEN4asio19basic_stream_socketINS7_2ip3tcpENS7_21stream_socket_serviceISA_EEEERKSt10error_codeEEENUlSG_NS9_23basic_resolver_iteratorISA_EEE_C2EOSN_.cold, .-_ZZN7asiopal9TCPClient12BeginConnectERKSt8functionIFvRKSt10shared_ptrINS_8ExecutorEEN4asio19basic_stream_socketINS7_2ip3tcpENS7_21stream_socket_serviceISA_EEEERKSt10error_codeEEENUlSG_NS9_23basic_resolver_iteratorISA_EEE_C2EOSN_.cold
.LCOLDE27:
	.text
.LHOTE27:
	.set	_ZZN7asiopal9TCPClient12BeginConnectERKSt8functionIFvRKSt10shared_ptrINS_8ExecutorEEN4asio19basic_stream_socketINS7_2ip3tcpENS7_21stream_socket_serviceISA_EEEERKSt10error_codeEEENUlSG_NS9_23basic_resolver_iteratorISA_EEE_C1EOSN_,_ZZN7asiopal9TCPClient12BeginConnectERKSt8functionIFvRKSt10shared_ptrINS_8ExecutorEEN4asio19basic_stream_socketINS7_2ip3tcpENS7_21stream_socket_serviceISA_EEEERKSt10error_codeEEENUlSG_NS9_23basic_resolver_iteratorISA_EEE_C2EOSN_
	.section	.text.unlikely
	.align 2
.LCOLDB28:
	.text
.LHOTB28:
	.align 2
	.p2align 4
	.type	_ZZN7asiopal9TCPClient12BeginConnectERKSt8functionIFvRKSt10shared_ptrINS_8ExecutorEEN4asio19basic_stream_socketINS7_2ip3tcpENS7_21stream_socket_serviceISA_EEEERKSt10error_codeEEENUlSG_E_C2EOSL_, @function
_ZZN7asiopal9TCPClient12BeginConnectERKSt8functionIFvRKSt10shared_ptrINS_8ExecutorEEN4asio19basic_stream_socketINS7_2ip3tcpENS7_21stream_socket_serviceISA_EEEERKSt10error_codeEEENUlSG_E_C2EOSL_:
.LFB7075:
	.cfi_startproc
	.cfi_personality 0x9b,DW.ref.__gxx_personality_v0
	.cfi_lsda 0x1b,.LLSDA7075
	movq	(%rsi), %rax
	movq	$0, 8(%rdi)
	pxor	%xmm0, %xmm0
	movq	%rax, (%rdi)
	movq	8(%rsi), %rax
	movups	%xmm0, (%rsi)
	pxor	%xmm0, %xmm0
	movq	%rax, 8(%rdi)
	movq	32(%rsi), %rax
	movq	$0, 32(%rdi)
	movq	$0, 40(%rdi)
	movups	%xmm0, 16(%rdi)
	testq	%rax, %rax
	je	.L1085
	pushq	%r12
	.cfi_def_cfa_offset 16
	.cfi_offset 12, -16
	movl	$2, %edx
	pushq	%rbp
	.cfi_def_cfa_offset 24
	.cfi_offset 6, -24
	movq	%rdi, %rbp
	leaq	16(%rdi), %rdi
	pushq	%rbx
	.cfi_def_cfa_offset 32
	.cfi_offset 3, -32
	movq	%rsi, %rbx
	leaq	16(%rsi), %rsi
.LEHB23:
	call	*%rax
.LEHE23:
	movdqu	32(%rbx), %xmm0
	movups	%xmm0, 32(%rbp)
	popq	%rbx
	.cfi_def_cfa_offset 24
	popq	%rbp
	.cfi_def_cfa_offset 16
	popq	%r12
	.cfi_def_cfa_offset 8
	ret
	.p2align 4,,10
	.p2align 3
.L1085:
	.cfi_restore 3
	.cfi_restore 6
	.cfi_restore 12
	ret
.L1074:
	.cfi_def_cfa_offset 32
	.cfi_offset 3, -32
	.cfi_offset 6, -24
	.cfi_offset 12, -16
	movq	%rax, %rbx
	jmp	.L1071
	.section	.gcc_except_table
.LLSDA7075:
	.byte	0xff
	.byte	0xff
	.byte	0x1
	.uleb128 .LLSDACSE7075-.LLSDACSB7075
.LLSDACSB7075:
	.uleb128 .LEHB23-.LFB7075
	.uleb128 .LEHE23-.LEHB23
	.uleb128 .L1074-.LFB7075
	.uleb128 0
.LLSDACSE7075:
	.text
	.cfi_endproc
	.section	.text.unlikely
	.cfi_startproc
	.cfi_personality 0x9b,DW.ref.__gxx_personality_v0
	.cfi_lsda 0x1b,.LLSDAC7075
	.type	_ZZN7asiopal9TCPClient12BeginConnectERKSt8functionIFvRKSt10shared_ptrINS_8ExecutorEEN4asio19basic_stream_socketINS7_2ip3tcpENS7_21stream_socket_serviceISA_EEEERKSt10error_codeEEENUlSG_E_C2EOSL_.cold, @function
_ZZN7asiopal9TCPClient12BeginConnectERKSt8functionIFvRKSt10shared_ptrINS_8ExecutorEEN4asio19basic_stream_socketINS7_2ip3tcpENS7_21stream_socket_serviceISA_EEEERKSt10error_codeEEENUlSG_E_C2EOSL_.cold:
.LFSB7075:
.L1071:
	.cfi_def_cfa_offset 32
	.cfi_offset 3, -32
	.cfi_offset 6, -24
	.cfi_offset 12, -16
	movq	32(%rbp), %rax
	testq	%rax, %rax
	je	.L1072
	movl	$3, %edx
	leaq	16(%rbp), %rsi
	leaq	16(%rbp), %rdi
	call	*%rax
.L1072:
	movq	8(%rbp), %rdi
	testq	%rdi, %rdi
	je	.L1073
	call	_ZNSt16_Sp_counted_baseILN9__gnu_cxx12_Lock_policyE2EE10_M_releaseEv@PLT
.L1073:
	movq	%rbx, %rdi
.LEHB24:
	call	_Unwind_Resume@PLT
.LEHE24:
	.cfi_endproc
.LFE7075:
	.section	.gcc_except_table
.LLSDAC7075:
	.byte	0xff
	.byte	0xff
	.byte	0x1
	.uleb128 .LLSDACSEC7075-.LLSDACSBC7075
.LLSDACSBC7075:
	.uleb128 .LEHB24-.LCOLDB28
	.uleb128 .LEHE24-.LEHB24
	.uleb128 0
	.uleb128 0
.LLSDACSEC7075:
	.section	.text.unlikely
	.text
	.size	_ZZN7asiopal9TCPClient12BeginConnectERKSt8functionIFvRKSt10shared_ptrINS_8ExecutorEEN4asio19basic_stream_socketINS7_2ip3tcpENS7_21stream_socket_serviceISA_EEEERKSt10error_codeEEENUlSG_E_C2EOSL_, .-_ZZN7asiopal9TCPClient12BeginConnectERKSt8functionIFvRKSt10shared_ptrINS_8ExecutorEEN4asio19basic_stream_socketINS7_2ip3tcpENS7_21stream_socket_serviceISA_EEEERKSt10error_codeEEENUlSG_E_C2EOSL_
	.section	.text.unlikely
	.size	_ZZN7asiopal9TCPClient12BeginConnectERKSt8functionIFvRKSt10shared_ptrINS_8ExecutorEEN4asio19basic_stream_socketINS7_2ip3tcpENS7_21stream_socket_serviceISA_EEEERKSt10error_codeEEENUlSG_E_C2EOSL_.cold, .-_ZZN7asiopal9TCPClient12BeginConnectERKSt8functionIFvRKSt10shared_ptrINS_8ExecutorEEN4asio19basic_stream_socketINS7_2ip3tcpENS7_21stream_socket_serviceISA_EEEERKSt10error_codeEEENUlSG_E_C2EOSL_.cold
.LCOLDE28:
	.text
.LHOTE28:
	.set	_ZZN7asiopal9TCPClient12BeginConnectERKSt8functionIFvRKSt10shared_ptrINS_8ExecutorEEN4asio19basic_stream_socketINS7_2ip3tcpENS7_21stream_socket_serviceISA_EEEERKSt10error_codeEEENUlSG_E_C1EOSL_,_ZZN7asiopal9TCPClient12BeginConnectERKSt8functionIFvRKSt10shared_ptrINS_8ExecutorEEN4asio19basic_stream_socketINS7_2ip3tcpENS7_21stream_socket_serviceISA_EEEERKSt10error_codeEEENUlSG_E_C2EOSL_
	.section	.text.unlikely
	.align 2
.LCOLDB31:
	.text
.LHOTB31:
	.align 2
	.p2align 4
	.globl	_ZN7asiopal9TCPClient6CancelEv
	.type	_ZN7asiopal9TCPClient6CancelEv, @function
_ZN7asiopal9TCPClient6CancelEv:
.LFB7042:
	.cfi_startproc
	.cfi_personality 0x9b,DW.ref.__gxx_personality_v0
	.cfi_lsda 0x1b,.LLSDA7042
	pushq	%r15
	.cfi_def_cfa_offset 16
	.cfi_offset 15, -16
	pushq	%r14
	.cfi_def_cfa_offset 24
	.cfi_offset 14, -24
	pushq	%r13
	.cfi_def_cfa_offset 32
	.cfi_offset 13, -32
	pushq	%r12
	.cfi_def_cfa_offset 40
	.cfi_offset 12, -40
	pushq	%rbp
	.cfi_def_cfa_offset 48
	.cfi_offset 6, -48
	pushq	%rbx
	.cfi_def_cfa_offset 56
	.cfi_offset 3, -56
	subq	$56, %rsp
	.cfi_def_cfa_offset 112
	cmpb	$0, 17(%rdi)
	jne	.L1121
	movzbl	16(%rdi), %eax
	movb	%al, 3(%rsp)
	testb	%al, %al
	jne	.L1152
.L1088:
	movzbl	3(%rsp), %eax
	addq	$56, %rsp
	.cfi_remember_state
	.cfi_def_cfa_offset 56
	popq	%rbx
	.cfi_def_cfa_offset 48
	popq	%rbp
	.cfi_def_cfa_offset 40
	popq	%r12
	.cfi_def_cfa_offset 32
	popq	%r13
	.cfi_def_cfa_offset 24
	popq	%r14
	.cfi_def_cfa_offset 16
	popq	%r15
	.cfi_def_cfa_offset 8
	ret
	.p2align 4,,10
	.p2align 3
.L1152:
	.cfi_restore_state
	movq	%rdi, %rbx
	cmpl	$-1, 136(%rdi)
	je	.L1153
	movq	144(%rdi), %rax
	testq	%rax, %rax
	je	.L1091
	movq	160(%rdi), %rdx
	addq	$40, %rax
	xorl	%r15d, %r15d
	movq	%rax, %rdi
	movq	%rax, 16(%rsp)
	movq	40(%rdx), %rcx
	movq	%rcx, 24(%rsp)
	call	pthread_mutex_lock@PLT
	movl	$0, 4(%rsp)
	movq	144(%rbx), %r9
	movq	$0, 8(%rsp)
.L1092:
	movslq	4(%rsp), %rax
	salq	$4, %rax
	movq	96(%rax,%r9), %r14
	testq	%r14, %r14
	je	.L1148
	movq	_ZGVZN4asio15system_categoryEvE8instance@GOTPCREL(%rip), %rbp
	movq	_ZZN4asio15system_categoryEvE8instance@GOTPCREL(%rip), %r12
	movq	%rax, %r13
	jmp	.L1104
	.p2align 4,,10
	.p2align 3
.L1094:
	movq	144(%rbx), %r9
	movl	$125, 24(%r14)
	movq	%r12, 32(%r14)
	leaq	(%r9,%r13), %rdi
	movq	96(%rdi), %rax
	testq	%rax, %rax
	je	.L1151
	movq	(%rax), %rdx
	movq	%rdx, 96(%rdi)
	testq	%rdx, %rdx
	je	.L1099
	movq	$0, (%rax)
	movq	$0, (%r14)
	testq	%r15, %r15
	je	.L1122
	movq	%r14, (%r15)
.L1100:
	movq	%r14, %r15
	movq	%rdx, %r14
.L1104:
	movzbl	0(%rbp), %eax
	testb	%al, %al
	jne	.L1094
	movq	%rbp, %rdi
	call	__cxa_guard_acquire@PLT
	testl	%eax, %eax
	je	.L1094
	movq	_ZN4asio6detail15system_categoryD1Ev@GOTPCREL(%rip), %rdi
	leaq	__dso_handle(%rip), %rdx
	movq	%r12, %rsi
	call	__cxa_atexit@PLT
	movq	%rbp, %rdi
	call	__cxa_guard_release@PLT
	jmp	.L1094
	.p2align 4,,10
	.p2align 3
.L1153:
	call	_ZN4asio15system_categoryEv@PLT
.L1091:
	movl	$24, %edi
.LEHB25:
	call	_Znwm@PLT
.LEHE25:
	movq	.LC29(%rip), %rdx
	movq	240(%rbx), %rdi
	pxor	%xmm0, %xmm0
	movq	%rax, %xmm1
	punpcklqdq	%xmm1, %xmm0
	movq	$0, 16(%rax)
	movq	%rdx, 8(%rax)
	movq	_ZTVSt19_Sp_counted_deleterIPvN4asio6detail10socket_ops12noop_deleterESaIvELN9__gnu_cxx12_Lock_policyE2EE@GOTPCREL(%rip), %rdx
	movups	%xmm0, 232(%rbx)
	addq	$16, %rdx
	movq	%rdx, (%rax)
	testq	%rdi, %rdi
	je	.L1118
	call	_ZNSt16_Sp_counted_baseILN9__gnu_cxx12_Lock_policyE2EE10_M_releaseEv@PLT
.L1118:
	movb	$1, 17(%rbx)
	jmp	.L1088
	.p2align 4,,10
	.p2align 3
.L1121:
	movb	$0, 3(%rsp)
	jmp	.L1088
	.p2align 4,,10
	.p2align 3
.L1099:
	movq	$0, 104(%rdi)
	movq	$0, (%rax)
.L1151:
	movq	$0, (%r14)
	testq	%r15, %r15
	je	.L1154
	movq	%r14, (%r15)
.L1102:
	addl	$1, 4(%rsp)
	cmpl	$3, 4(%rsp)
	je	.L1103
.L1155:
	movq	%r14, %r15
	jmp	.L1092
	.p2align 4,,10
	.p2align 3
.L1122:
	movq	%r14, 8(%rsp)
	jmp	.L1100
	.p2align 4,,10
	.p2align 3
.L1154:
	addl	$1, 4(%rsp)
	movq	%r14, 8(%rsp)
	cmpl	$3, 4(%rsp)
	jne	.L1155
.L1103:
	movq	16(%rsp), %rdi
	call	pthread_mutex_unlock@PLT
	cmpq	$0, 8(%rsp)
	je	.L1091
	movq	24(%rsp), %rax
	movq	40(%rax), %r12
	cmpb	$0, 40(%r12)
	je	.L1106
	data16	leaq	_ZN4asio6detail15keyword_tss_ptrINS0_10call_stackINS0_15task_io_serviceENS0_27task_io_service_thread_infoEE7contextEE6value_E@tlsgd(%rip), %rdi
	.value	0x6666
	rex64
	call	__tls_get_addr@PLT
	movq	(%rax), %rax
	testq	%rax, %rax
	jne	.L1109
	jmp	.L1106
	.p2align 4
	.p2align 4,,10
	.p2align 3
.L1107:
	movq	16(%rax), %rax
	testq	%rax, %rax
	je	.L1106
.L1109:
	cmpq	(%rax), %r12
	jne	.L1107
	movq	8(%rax), %rax
	testq	%rax, %rax
	je	.L1106
	movq	16(%rax), %rdx
	testq	%rdx, %rdx
	je	.L1110
	movq	8(%rsp), %rcx
	movq	%rcx, (%rdx)
.L1111:
	movq	%r14, 16(%rax)
	jmp	.L1091
	.p2align 4,,10
	.p2align 3
.L1106:
	leaq	48(%r12), %r15
	movq	%r15, %rdi
	call	pthread_mutex_lock@PLT
	movq	200(%r12), %rax
	testq	%rax, %rax
	je	.L1112
	movq	8(%rsp), %rcx
	movq	%rcx, (%rax)
.L1113:
	movq	136(%r12), %rax
	movq	%r14, 200(%r12)
	movq	%rax, %rdx
	orq	$1, %rdx
	movq	%rdx, 136(%r12)
	cmpq	$1, %rax
	jbe	.L1114
	movq	%r15, %rdi
	call	pthread_mutex_unlock@PLT
	leaq	88(%r12), %rdi
	call	pthread_cond_signal@PLT
	jmp	.L1091
.L1112:
	movq	8(%rsp), %rax
	movq	%rax, 192(%r12)
	jmp	.L1113
	.p2align 4,,10
	.p2align 3
.L1148:
	movq	%r15, %r14
	jmp	.L1102
.L1114:
	cmpb	$0, 176(%r12)
	jne	.L1116
	movq	144(%r12), %rax
	testq	%rax, %rax
	je	.L1116
	leaq	88(%rax), %rdx
	movl	96(%rax), %edi
	movb	$1, 176(%r12)
	leaq	36(%rsp), %rcx
	movq	%rdx, 40(%rsp)
	movl	88(%rax), %edx
	movl	$3, %esi
	movl	$-2147483639, 36(%rsp)
	call	epoll_ctl@PLT
.L1116:
	movq	%r15, %rdi
	call	pthread_mutex_unlock@PLT
	jmp	.L1091
.L1110:
	movq	8(%rsp), %rsi
	movq	%rsi, 8(%rax)
	jmp	.L1111
.L1124:
	jmp	.L1119
	.section	.gcc_except_table
	.align 4
.LLSDA7042:
	.byte	0xff
	.byte	0x9b
	.uleb128 .LLSDATT7042-.LLSDATTD7042
.LLSDATTD7042:
	.byte	0x1
	.uleb128 .LLSDACSE7042-.LLSDACSB7042
.LLSDACSB7042:
	.uleb128 .LEHB25-.LFB7042
	.uleb128 .LEHE25-.LEHB25
	.uleb128 .L1124-.LFB7042
	.uleb128 0x1
.LLSDACSE7042:
	.byte	0x1
	.byte	0
	.align 4
	.long	0

.LLSDATT7042:
	.text
	.cfi_endproc
	.section	.text.unlikely
	.cfi_startproc
	.cfi_personality 0x9b,DW.ref.__gxx_personality_v0
	.cfi_lsda 0x1b,.LLSDAC7042
	.type	_ZN7asiopal9TCPClient6CancelEv.cold, @function
_ZN7asiopal9TCPClient6CancelEv.cold:
.LFSB7042:
.L1119:
	.cfi_def_cfa_offset 112
	.cfi_offset 3, -56
	.cfi_offset 6, -48
	.cfi_offset 12, -40
	.cfi_offset 13, -32
	.cfi_offset 14, -24
	.cfi_offset 15, -16
	movq	%rax, %rdi
	call	__cxa_begin_catch@PLT
.LEHB26:
	call	__cxa_rethrow@PLT
.LEHE26:
.L1123:
	movq	%rax, %rbx
	call	__cxa_end_catch@PLT
	movq	%rbx, %rdi
.LEHB27:
	call	_Unwind_Resume@PLT
.LEHE27:
	.cfi_endproc
.LFE7042:
	.section	.gcc_except_table
	.align 4
.LLSDAC7042:
	.byte	0xff
	.byte	0x9b
	.uleb128 .LLSDATTC7042-.LLSDATTDC7042
.LLSDATTDC7042:
	.byte	0x1
	.uleb128 .LLSDACSEC7042-.LLSDACSBC7042
.LLSDACSBC7042:
	.uleb128 .LEHB26-.LCOLDB31
	.uleb128 .LEHE26-.LEHB26
	.uleb128 .L1123-.LCOLDB31
	.uleb128 0
	.uleb128 .LEHB27-.LCOLDB31
	.uleb128 .LEHE27-.LEHB27
	.uleb128 0
	.uleb128 0
.LLSDACSEC7042:
	.byte	0x1
	.byte	0
	.align 4
	.long	0

.LLSDATTC7042:
	.section	.text.unlikely
	.text
	.size	_ZN7asiopal9TCPClient6CancelEv, .-_ZN7asiopal9TCPClient6CancelEv
	.section	.text.unlikely
	.size	_ZN7asiopal9TCPClient6CancelEv.cold, .-_ZN7asiopal9TCPClient6CancelEv.cold
.LCOLDE31:
	.text
.LHOTE31:
	.section	.text.unlikely
	.align 2
.LCOLDB32:
	.text
.LHOTB32:
	.align 2
	.p2align 4
	.type	_ZN4asio6detail10connect_opINS_2ip3tcpENS_21stream_socket_serviceIS3_EENS2_23basic_resolver_iteratorIS3_EEN7asiopal26LoggingConnectionConditionENS0_15wrapped_handlerINS_10io_service6strandEZNS8_9TCPClient19HandleResolveResultERKSt8functionIFvRKSt10shared_ptrINS8_8ExecutorEENS_19basic_stream_socketIS3_S5_EERKSt10error_codeEERKS7_SO_EUlSO_S7_E_NS0_26is_continuation_if_runningEEEEC2EOSY_, @function
_ZN4asio6detail10connect_opINS_2ip3tcpENS_21stream_socket_serviceIS3_EENS2_23basic_resolver_iteratorIS3_EEN7asiopal26LoggingConnectionConditionENS0_15wrapped_handlerINS_10io_service6strandEZNS8_9TCPClient19HandleResolveResultERKSt8functionIFvRKSt10shared_ptrINS8_8ExecutorEENS_19basic_stream_socketIS3_S5_EERKSt10error_codeEERKS7_SO_EUlSO_S7_E_NS0_26is_continuation_if_runningEEEEC2EOSY_:
.LFB9090:
	.cfi_startproc
	.cfi_personality 0x9b,DW.ref.__gxx_personality_v0
	.cfi_lsda 0x1b,.LLSDA9090
	movdqu	(%rsi), %xmm0
	movhlps	%xmm0, %xmm1
	movups	%xmm0, (%rdi)
	movq	%xmm1, %rax
	testq	%rax, %rax
	je	.L1157
	movq	__libc_single_threaded@GOTPCREL(%rip), %rdx
	cmpb	$0, (%rdx)
	je	.L1158
	addl	$1, 8(%rax)
.L1157:
	movdqu	16(%rsi), %xmm0
	movhlps	%xmm0, %xmm2
	movups	%xmm0, 16(%rdi)
	movq	%xmm2, %rax
	testq	%rax, %rax
	je	.L1159
	movq	__libc_single_threaded@GOTPCREL(%rip), %rdx
	cmpb	$0, (%rdx)
	je	.L1160
	addl	$1, 8(%rax)
.L1159:
	movq	32(%rsi), %rax
	movq	%rax, 32(%rdi)
	movq	40(%rsi), %rax
	movq	%rax, 40(%rdi)
	movq	48(%rsi), %rax
	movq	%rax, 48(%rdi)
	testq	%rax, %rax
	je	.L1161
	movq	__libc_single_threaded@GOTPCREL(%rip), %rdx
	cmpb	$0, (%rdx)
	je	.L1162
	addl	$1, 8(%rax)
.L1161:
	movq	56(%rsi), %rax
	movq	%rax, 56(%rdi)
	movdqu	64(%rsi), %xmm0
	movhlps	%xmm0, %xmm3
	movups	%xmm0, 64(%rdi)
	movq	%xmm3, %rax
	testq	%rax, %rax
	je	.L1163
	movq	__libc_single_threaded@GOTPCREL(%rip), %rdx
	cmpb	$0, (%rdx)
	je	.L1164
	addl	$1, 8(%rax)
.L1163:
	movq	80(%rsi), %rax
	movdqu	96(%rsi), %xmm0
	movq	%rax, 80(%rdi)
	movl	88(%rsi), %eax
	movups	%xmm0, 96(%rdi)
	pxor	%xmm0, %xmm0
	movl	%eax, 88(%rdi)
	movq	112(%rsi), %rax
	movq	$0, 120(%rdi)
	movq	%rax, 112(%rdi)
	movq	120(%rsi), %rax
	movups	%xmm0, 112(%rsi)
	pxor	%xmm0, %xmm0
	movq	%rax, 120(%rdi)
	movq	144(%rsi), %rax
	movq	$0, 144(%rdi)
	movq	$0, 152(%rdi)
	movups	%xmm0, 128(%rdi)
	testq	%rax, %rax
	je	.L1200
	pushq	%r12
	.cfi_def_cfa_offset 16
	.cfi_offset 12, -16
	movl	$2, %edx
	pushq	%rbp
	.cfi_def_cfa_offset 24
	.cfi_offset 6, -24
	movq	%rdi, %rbp
	leaq	128(%rdi), %rdi
	pushq	%rbx
	.cfi_def_cfa_offset 32
	.cfi_offset 3, -32
	movq	%rsi, %rbx
	leaq	128(%rsi), %rsi
.LEHB28:
	call	*%rax
.LEHE28:
	movdqu	144(%rbx), %xmm0
	movups	%xmm0, 144(%rbp)
	popq	%rbx
	.cfi_def_cfa_offset 24
	popq	%rbp
	.cfi_def_cfa_offset 16
	popq	%r12
	.cfi_def_cfa_offset 8
	ret
	.p2align 4,,10
	.p2align 3
.L1162:
	.cfi_restore 3
	.cfi_restore 6
	.cfi_restore 12
	lock addl	$1, 8(%rax)
	jmp	.L1161
	.p2align 4,,10
	.p2align 3
.L1160:
	lock addl	$1, 8(%rax)
	jmp	.L1159
	.p2align 4,,10
	.p2align 3
.L1158:
	lock addl	$1, 8(%rax)
	jmp	.L1157
	.p2align 4,,10
	.p2align 3
.L1164:
	lock addl	$1, 8(%rax)
	jmp	.L1163
	.p2align 4,,10
	.p2align 3
.L1200:
	ret
.L1171:
	.cfi_def_cfa_offset 32
	.cfi_offset 3, -32
	.cfi_offset 6, -24
	.cfi_offset 12, -16
	movq	%rax, %rbx
	jmp	.L1166
	.section	.gcc_except_table
.LLSDA9090:
	.byte	0xff
	.byte	0xff
	.byte	0x1
	.uleb128 .LLSDACSE9090-.LLSDACSB9090
.LLSDACSB9090:
	.uleb128 .LEHB28-.LFB9090
	.uleb128 .LEHE28-.LEHB28
	.uleb128 .L1171-.LFB9090
	.uleb128 0
.LLSDACSE9090:
	.text
	.cfi_endproc
	.section	.text.unlikely
	.cfi_startproc
	.cfi_personality 0x9b,DW.ref.__gxx_personality_v0
	.cfi_lsda 0x1b,.LLSDAC9090
	.type	_ZN4asio6detail10connect_opINS_2ip3tcpENS_21stream_socket_serviceIS3_EENS2_23basic_resolver_iteratorIS3_EEN7asiopal26LoggingConnectionConditionENS0_15wrapped_handlerINS_10io_service6strandEZNS8_9TCPClient19HandleResolveResultERKSt8functionIFvRKSt10shared_ptrINS8_8ExecutorEENS_19basic_stream_socketIS3_S5_EERKSt10error_codeEERKS7_SO_EUlSO_S7_E_NS0_26is_continuation_if_runningEEEEC2EOSY_.cold, @function
_ZN4asio6detail10connect_opINS_2ip3tcpENS_21stream_socket_serviceIS3_EENS2_23basic_resolver_iteratorIS3_EEN7asiopal26LoggingConnectionConditionENS0_15wrapped_handlerINS_10io_service6strandEZNS8_9TCPClient19HandleResolveResultERKSt8functionIFvRKSt10shared_ptrINS8_8ExecutorEENS_19basic_stream_socketIS3_S5_EERKSt10error_codeEERKS7_SO_EUlSO_S7_E_NS0_26is_continuation_if_runningEEEEC2EOSY_.cold:
.LFSB9090:
.L1166:
	.cfi_def_cfa_offset 32
	.cfi_offset 3, -32
	.cfi_offset 6, -24
	.cfi_offset 12, -16
	movq	144(%rbp), %rax
	testq	%rax, %rax
	je	.L1167
	movl	$3, %edx
	leaq	128(%rbp), %rsi
	leaq	128(%rbp), %rdi
	call	*%rax
.L1167:
	movq	120(%rbp), %rdi
	testq	%rdi, %rdi
	je	.L1168
	call	_ZNSt16_Sp_counted_baseILN9__gnu_cxx12_Lock_policyE2EE10_M_releaseEv@PLT
.L1168:
	movq	72(%rbp), %rdi
	testq	%rdi, %rdi
	je	.L1169
	call	_ZNSt16_Sp_counted_baseILN9__gnu_cxx12_Lock_policyE2EE10_M_releaseEv@PLT
.L1169:
	movq	48(%rbp), %rdi
	testq	%rdi, %rdi
	je	.L1170
	call	_ZNSt16_Sp_counted_baseILN9__gnu_cxx12_Lock_policyE2EE10_M_releaseEv@PLT
.L1170:
	movq	%rbp, %rdi
	call	_ZN7openpal6LoggerD1Ev@PLT
	movq	%rbx, %rdi
.LEHB29:
	call	_Unwind_Resume@PLT
.LEHE29:
	.cfi_endproc
.LFE9090:
	.section	.gcc_except_table
.LLSDAC9090:
	.byte	0xff
	.byte	0xff
	.byte	0x1
	.uleb128 .LLSDACSEC9090-.LLSDACSBC9090
.LLSDACSBC9090:
	.uleb128 .LEHB29-.LCOLDB32
	.uleb128 .LEHE29-.LEHB29
	.uleb128 0
	.uleb128 0
.LLSDACSEC9090:
	.section	.text.unlikely
	.text
	.size	_ZN4asio6detail10connect_opINS_2ip3tcpENS_21stream_socket_serviceIS3_EENS2_23basic_resolver_iteratorIS3_EEN7asiopal26LoggingConnectionConditionENS0_15wrapped_handlerINS_10io_service6strandEZNS8_9TCPClient19HandleResolveResultERKSt8functionIFvRKSt10shared_ptrINS8_8ExecutorEENS_19basic_stream_socketIS3_S5_EERKSt10error_codeEERKS7_SO_EUlSO_S7_E_NS0_26is_continuation_if_runningEEEEC2EOSY_, .-_ZN4asio6detail10connect_opINS_2ip3tcpENS_21stream_socket_serviceIS3_EENS2_23basic_resolver_iteratorIS3_EEN7asiopal26LoggingConnectionConditionENS0_15wrapped_handlerINS_10io_service6strandEZNS8_9TCPClient19HandleResolveResultERKSt8functionIFvRKSt10shared_ptrINS8_8ExecutorEENS_19basic_stream_socketIS3_S5_EERKSt10error_codeEERKS7_SO_EUlSO_S7_E_NS0_26is_continuation_if_runningEEEEC2EOSY_
	.section	.text.unlikely
	.size	_ZN4asio6detail10connect_opINS_2ip3tcpENS_21stream_socket_serviceIS3_EENS2_23basic_resolver_iteratorIS3_EEN7asiopal26LoggingConnectionConditionENS0_15wrapped_handlerINS_10io_service6strandEZNS8_9TCPClient19HandleResolveResultERKSt8functionIFvRKSt10shared_ptrINS8_8ExecutorEENS_19basic_stream_socketIS3_S5_EERKSt10error_codeEERKS7_SO_EUlSO_S7_E_NS0_26is_continuation_if_runningEEEEC2EOSY_.cold, .-_ZN4asio6detail10connect_opINS_2ip3tcpENS_21stream_socket_serviceIS3_EENS2_23basic_resolver_iteratorIS3_EEN7asiopal26LoggingConnectionConditionENS0_15wrapped_handlerINS_10io_service6strandEZNS8_9TCPClient19HandleResolveResultERKSt8functionIFvRKSt10shared_ptrINS8_8ExecutorEENS_19basic_stream_socketIS3_S5_EERKSt10error_codeEERKS7_SO_EUlSO_S7_E_NS0_26is_continuation_if_runningEEEEC2EOSY_.cold
.LCOLDE32:
	.text
.LHOTE32:
	.set	_ZN4asio6detail10connect_opINS_2ip3tcpENS_21stream_socket_serviceIS3_EENS2_23basic_resolver_iteratorIS3_EEN7asiopal26LoggingConnectionConditionENS0_15wrapped_handlerINS_10io_service6strandEZNS8_9TCPClient19HandleResolveResultERKSt8functionIFvRKSt10shared_ptrINS8_8ExecutorEENS_19basic_stream_socketIS3_S5_EERKSt10error_codeEERKS7_SO_EUlSO_S7_E_NS0_26is_continuation_if_runningEEEEC1EOSY_,_ZN4asio6detail10connect_opINS_2ip3tcpENS_21stream_socket_serviceIS3_EENS2_23basic_resolver_iteratorIS3_EEN7asiopal26LoggingConnectionConditionENS0_15wrapped_handlerINS_10io_service6strandEZNS8_9TCPClient19HandleResolveResultERKSt8functionIFvRKSt10shared_ptrINS8_8ExecutorEENS_19basic_stream_socketIS3_S5_EERKSt10error_codeEERKS7_SO_EUlSO_S7_E_NS0_26is_continuation_if_runningEEEEC2EOSY_
	.section	.text.unlikely
	.align 2
	.type	_ZN4asio6detail18completion_handlerIZN7asiopal9TCPClient16PostConnectErrorERKSt8functionIFvRKSt10shared_ptrINS2_8ExecutorEENS_19basic_stream_socketINS_2ip3tcpENS_21stream_socket_serviceISC_EEEERKSt10error_codeEESI_EUlvE_E3ptr5resetEv, @function
_ZN4asio6detail18completion_handlerIZN7asiopal9TCPClient16PostConnectErrorERKSt8functionIFvRKSt10shared_ptrINS2_8ExecutorEENS_19basic_stream_socketINS_2ip3tcpENS_21stream_socket_serviceISC_EEEERKSt10error_codeEESI_EUlvE_E3ptr5resetEv:
.LFB9115:
	.cfi_startproc
	.cfi_personality 0x9b,DW.ref.__gxx_personality_v0
	.cfi_lsda 0x1b,.LLSDA9115
	pushq	%rbp
	.cfi_def_cfa_offset 16
	.cfi_offset 6, -16
	movq	%rdi, %rbp
	pushq	%rbx
	.cfi_def_cfa_offset 24
	.cfi_offset 3, -24
	pushq	%rsi
	.cfi_def_cfa_offset 32
	movq	16(%rdi), %rbx
	testq	%rbx, %rbx
	je	.L1204
	movq	72(%rbx), %rax
	testq	%rax, %rax
	je	.L1205
	leaq	56(%rbx), %rdi
	movl	$3, %edx
	movq	%rdi, %rsi
	call	*%rax
.L1205:
	movq	32(%rbx), %rdi
	testq	%rdi, %rdi
	je	.L1206
	call	_ZNSt16_Sp_counted_baseILN9__gnu_cxx12_Lock_policyE2EE10_M_releaseEv@PLT
.L1206:
	xorl	%ecx, %ecx
	movq	%rcx, 16(%rbp)
.L1204:
	movq	8(%rbp), %rbx
	testq	%rbx, %rbx
	je	.L1203
	data16	leaq	_ZN4asio6detail15keyword_tss_ptrINS0_10call_stackINS0_15task_io_serviceENS0_27task_io_service_thread_infoEE7contextEE6value_E@tlsgd(%rip), %rdi
	.value	0x6666
	rex64
	call	__tls_get_addr@PLT
	movq	(%rax), %rax
	testq	%rax, %rax
	je	.L1208
	movq	8(%rax), %rax
	testq	%rax, %rax
	je	.L1208
	cmpq	$0, (%rax)
	jne	.L1208
	movb	88(%rbx), %dl
	movb	%dl, (%rbx)
	movq	%rbx, (%rax)
	jmp	.L1209
.L1208:
	movq	%rbx, %rdi
	call	_ZdlPv@PLT
.L1209:
	xorl	%edx, %edx
	movq	%rdx, 8(%rbp)
.L1203:
	popq	%rax
	.cfi_def_cfa_offset 24
	popq	%rbx
	.cfi_def_cfa_offset 16
	popq	%rbp
	.cfi_def_cfa_offset 8
	ret
	.cfi_endproc
.LFE9115:
	.section	.gcc_except_table
.LLSDA9115:
	.byte	0xff
	.byte	0xff
	.byte	0x1
	.uleb128 .LLSDACSE9115-.LLSDACSB9115
.LLSDACSB9115:
.LLSDACSE9115:
	.section	.text.unlikely
	.size	_ZN4asio6detail18completion_handlerIZN7asiopal9TCPClient16PostConnectErrorERKSt8functionIFvRKSt10shared_ptrINS2_8ExecutorEENS_19basic_stream_socketINS_2ip3tcpENS_21stream_socket_serviceISC_EEEERKSt10error_codeEESI_EUlvE_E3ptr5resetEv, .-_ZN4asio6detail18completion_handlerIZN7asiopal9TCPClient16PostConnectErrorERKSt8functionIFvRKSt10shared_ptrINS2_8ExecutorEENS_19basic_stream_socketINS_2ip3tcpENS_21stream_socket_serviceISC_EEEERKSt10error_codeEESI_EUlvE_E3ptr5resetEv
	.align 2
.LCOLDB33:
	.text
.LHOTB33:
	.align 2
	.p2align 4
	.globl	_ZN7asiopal9TCPClient16PostConnectErrorERKSt8functionIFvRKSt10shared_ptrINS_8ExecutorEEN4asio19basic_stream_socketINS7_2ip3tcpENS7_21stream_socket_serviceISA_EEEERKSt10error_codeEESG_
	.type	_ZN7asiopal9TCPClient16PostConnectErrorERKSt8functionIFvRKSt10shared_ptrINS_8ExecutorEEN4asio19basic_stream_socketINS7_2ip3tcpENS7_21stream_socket_serviceISA_EEEERKSt10error_codeEESG_, @function
_ZN7asiopal9TCPClient16PostConnectErrorERKSt8functionIFvRKSt10shared_ptrINS_8ExecutorEEN4asio19basic_stream_socketINS7_2ip3tcpENS7_21stream_socket_serviceISA_EEEERKSt10error_codeEESG_:
.LFB7118:
	.cfi_startproc
	.cfi_personality 0x9b,DW.ref.__gxx_personality_v0
	.cfi_lsda 0x1b,.LLSDA7118
	pushq	%r14
	.cfi_def_cfa_offset 16
	.cfi_offset 14, -16
	pushq	%r13
	.cfi_def_cfa_offset 24
	.cfi_offset 13, -24
	pushq	%r12
	.cfi_def_cfa_offset 32
	.cfi_offset 12, -32
	pushq	%rbp
	.cfi_def_cfa_offset 40
	.cfi_offset 6, -40
	pushq	%rbx
	.cfi_def_cfa_offset 48
	.cfi_offset 3, -48
	subq	$192, %rsp
	.cfi_def_cfa_offset 240
	movq	8(%rdi), %rax
	movq	%rax, 56(%rsp)
	testq	%rax, %rax
	je	.L1231
	movq	%rdx, %rcx
	leaq	8(%rax), %rdx
	movl	8(%rax), %eax
	movq	%rdi, %rbp
	movq	%rsi, %rbx
.L1233:
	testl	%eax, %eax
	je	.L1231
	leal	1(%rax), %esi
	lock cmpxchgl	%esi, (%rdx)
	jne	.L1233
	movdqu	(%rcx), %xmm1
	movq	0(%rbp), %xmm0
	movq	$0, 96(%rsp)
	movq	$0, 104(%rsp)
	movq	16(%rbx), %rax
	movaps	%xmm1, 64(%rsp)
	pxor	%xmm1, %xmm1
	movq	%xmm0, 48(%rsp)
	movaps	%xmm1, 80(%rsp)
	testq	%rax, %rax
	je	.L1269
	movl	$2, %edx
	movq	%rbx, %rsi
	leaq	80(%rsp), %rdi
.LEHB30:
	call	*%rax
.LEHE30:
	movdqu	16(%rbx), %xmm0
	movq	16(%rbx), %rax
	movaps	%xmm0, 96(%rsp)
	movq	48(%rsp), %xmm0
.L1269:
	movq	56(%rsp), %rdx
	movq	56(%rbp), %rbp
	movq	%rdx, %xmm3
	punpcklqdq	%xmm3, %xmm0
	movaps	%xmm0, 112(%rsp)
	testq	%rdx, %rdx
	je	.L1235
	movq	__libc_single_threaded@GOTPCREL(%rip), %rcx
	cmpb	$0, (%rcx)
	je	.L1240
	addl	$1, 8(%rdx)
.L1235:
	movdqa	64(%rsp), %xmm0
	movq	$0, 160(%rsp)
	movq	$0, 168(%rsp)
	movaps	%xmm0, 128(%rsp)
	pxor	%xmm0, %xmm0
	movaps	%xmm0, 144(%rsp)
	testq	%rax, %rax
	je	.L1242
	leaq	80(%rsp), %rsi
	movl	$2, %edx
	leaq	144(%rsp), %rdi
.LEHB31:
	call	*%rax
.LEHE31:
	movdqa	96(%rsp), %xmm0
	movaps	%xmm0, 160(%rsp)
.L1242:
	pxor	%xmm0, %xmm0
	leaq	112(%rsp), %r13
	movq	40(%rbp), %r12
	movq	%r13, 16(%rsp)
	movups	%xmm0, 24(%rsp)
	data16	leaq	_ZN4asio6detail15keyword_tss_ptrINS0_10call_stackINS0_15task_io_serviceENS0_27task_io_service_thread_infoEE7contextEE6value_E@tlsgd(%rip), %rdi
	.value	0x6666
	rex64
	call	__tls_get_addr@PLT
	movq	(%rax), %rax
	testq	%rax, %rax
	je	.L1244
	movq	8(%rax), %rax
	testq	%rax, %rax
	je	.L1244
	movq	(%rax), %rbx
	testq	%rbx, %rbx
	je	.L1244
	movq	$0, (%rax)
	movzbl	(%rbx), %eax
	cmpb	$87, %al
	jbe	.L1249
	movb	%al, 88(%rbx)
	jmp	.L1250
	.p2align 4,,10
	.p2align 3
.L1249:
	movq	%rbx, %rdi
	call	_ZdlPv@PLT
.L1244:
	movl	$89, %edi
.LEHB32:
	call	_Znwm@PLT
.LEHE32:
	movb	$88, 88(%rax)
	movq	%rax, %rbx
.L1250:
	leaq	_ZN4asio6detail18completion_handlerIZN7asiopal9TCPClient16PostConnectErrorERKSt8functionIFvRKSt10shared_ptrINS2_8ExecutorEENS_19basic_stream_socketINS_2ip3tcpENS_21stream_socket_serviceISC_EEEERKSt10error_codeEESI_EUlvE_E11do_completeEPNS0_15task_io_serviceEPNS0_25task_io_service_operationESI_m(%rip), %rax
	movq	$0, (%rbx)
	movq	%rax, 8(%rbx)
	movdqa	112(%rsp), %xmm0
	movl	$0, 16(%rbx)
	movups	%xmm0, 24(%rbx)
	pxor	%xmm0, %xmm0
	movq	160(%rsp), %rax
	movaps	%xmm0, 112(%rsp)
	movdqa	128(%rsp), %xmm0
	movq	%rbx, 24(%rsp)
	movups	%xmm0, 40(%rbx)
	pxor	%xmm0, %xmm0
	movq	$0, 72(%rbx)
	movq	$0, 80(%rbx)
	movups	%xmm0, 56(%rbx)
	testq	%rax, %rax
	je	.L1251
	leaq	56(%rbx), %r14
	leaq	144(%rsp), %rsi
	movl	$2, %edx
	movq	%r14, %rdi
.LEHB33:
	call	*%rax
.LEHE33:
	movdqa	160(%rsp), %xmm0
	movups	%xmm0, 72(%rbx)
.L1251:
	movq	48(%rbp), %rax
	movq	%rbx, %xmm2
	punpcklqdq	%xmm2, %xmm2
	leaq	24(%rax), %rdi
	movaps	%xmm2, (%rsp)
	call	pthread_mutex_lock@PLT
	movq	48(%rbp), %rdi
	cmpb	$0, 64(%rdi)
	je	.L1316
	movq	80(%rdi), %rax
	movq	$0, (%rbx)
	testq	%rax, %rax
	je	.L1258
	movq	%rbx, (%rax)
	movq	%rbx, 80(%rdi)
.L1259:
	addq	$24, %rdi
	call	pthread_mutex_unlock@PLT
.L1260:
	movq	160(%rsp), %rax
	testq	%rax, %rax
	je	.L1263
	leaq	144(%rsp), %rdi
	movl	$3, %edx
	movq	%rdi, %rsi
	call	*%rax
.L1263:
	movq	120(%rsp), %rdi
	testq	%rdi, %rdi
	je	.L1264
	call	_ZNSt16_Sp_counted_baseILN9__gnu_cxx12_Lock_policyE2EE10_M_releaseEv@PLT
.L1264:
	movq	96(%rsp), %rax
	testq	%rax, %rax
	je	.L1266
	leaq	80(%rsp), %rdi
	movl	$3, %edx
	movq	%rdi, %rsi
	call	*%rax
.L1266:
	movq	56(%rsp), %rdi
	testq	%rdi, %rdi
	je	.L1287
	call	_ZNSt16_Sp_counted_baseILN9__gnu_cxx12_Lock_policyE2EE10_M_releaseEv@PLT
.L1287:
	addq	$192, %rsp
	.cfi_remember_state
	.cfi_def_cfa_offset 48
	movl	$1, %eax
	popq	%rbx
	.cfi_def_cfa_offset 40
	popq	%rbp
	.cfi_def_cfa_offset 32
	popq	%r12
	.cfi_def_cfa_offset 24
	popq	%r13
	.cfi_def_cfa_offset 16
	popq	%r14
	.cfi_def_cfa_offset 8
	ret
	.p2align 4,,10
	.p2align 3
.L1240:
	.cfi_restore_state
	lock addl	$1, 8(%rdx)
	movq	96(%rsp), %rax
	jmp	.L1235
	.p2align 4,,10
	.p2align 3
.L1258:
	movdqa	(%rsp), %xmm4
	movups	%xmm4, 72(%rdi)
	jmp	.L1259
	.p2align 4,,10
	.p2align 3
.L1316:
	movb	$1, 64(%rdi)
	addq	$24, %rdi
	call	pthread_mutex_unlock@PLT
	movq	48(%rbp), %rsi
	movq	$0, (%rbx)
	movq	96(%rsi), %rax
	testq	%rax, %rax
	je	.L1261
	movq	%rbx, (%rax)
	movq	%rbx, 96(%rsi)
.L1262:
	movq	40(%r12), %rdi
	xorl	%edx, %edx
	call	_ZN4asio6detail15task_io_service25post_immediate_completionEPNS0_25task_io_service_operationEb@PLT
	jmp	.L1260
	.p2align 4,,10
	.p2align 3
.L1261:
	movdqa	(%rsp), %xmm5
	movups	%xmm5, 88(%rsi)
	jmp	.L1262
.L1270:
	movq	%rax, %rbx
	jmp	.L1236
.L1273:
	movq	%rax, %rbp
	jmp	.L1254
.L1271:
	movq	%rax, %rbx
	jmp	.L1257
.L1272:
	movq	%rax, %rbp
	jmp	.L1245
	.section	.gcc_except_table
.LLSDA7118:
	.byte	0xff
	.byte	0xff
	.byte	0x1
	.uleb128 .LLSDACSE7118-.LLSDACSB7118
.LLSDACSB7118:
	.uleb128 .LEHB30-.LFB7118
	.uleb128 .LEHE30-.LEHB30
	.uleb128 .L1270-.LFB7118
	.uleb128 0
	.uleb128 .LEHB31-.LFB7118
	.uleb128 .LEHE31-.LEHB31
	.uleb128 .L1272-.LFB7118
	.uleb128 0
	.uleb128 .LEHB32-.LFB7118
	.uleb128 .LEHE32-.LEHB32
	.uleb128 .L1271-.LFB7118
	.uleb128 0
	.uleb128 .LEHB33-.LFB7118
	.uleb128 .LEHE33-.LEHB33
	.uleb128 .L1273-.LFB7118
	.uleb128 0
.LLSDACSE7118:
	.text
	.cfi_endproc
	.section	.text.unlikely
	.cfi_startproc
	.cfi_personality 0x9b,DW.ref.__gxx_personality_v0
	.cfi_lsda 0x1b,.LLSDAC7118
	.type	_ZN7asiopal9TCPClient16PostConnectErrorERKSt8functionIFvRKSt10shared_ptrINS_8ExecutorEEN4asio19basic_stream_socketINS7_2ip3tcpENS7_21stream_socket_serviceISA_EEEERKSt10error_codeEESG_.cold, @function
_ZN7asiopal9TCPClient16PostConnectErrorERKSt8functionIFvRKSt10shared_ptrINS_8ExecutorEEN4asio19basic_stream_socketINS7_2ip3tcpENS7_21stream_socket_serviceISA_EEEERKSt10error_codeEESG_.cold:
.LFSB7118:
.L1231:
	.cfi_def_cfa_offset 240
	.cfi_offset 3, -48
	.cfi_offset 6, -40
	.cfi_offset 12, -32
	.cfi_offset 13, -24
	.cfi_offset 14, -16
	movl	$8, %edi
	call	__cxa_allocate_exception@PLT
	movq	_ZTVSt12bad_weak_ptr@GOTPCREL(%rip), %rdx
	movq	_ZTISt12bad_weak_ptr@GOTPCREL(%rip), %rsi
	movq	%rax, %rdi
	addq	$16, %rdx
	movq	%rdx, (%rax)
	movq	_ZNSt12bad_weak_ptrD1Ev@GOTPCREL(%rip), %rdx
.LEHB34:
	call	__cxa_throw@PLT
.LEHE34:
.L1236:
	movq	96(%rsp), %rax
	testq	%rax, %rax
	je	.L1237
	movl	$3, %edx
	leaq	80(%rsp), %rsi
	leaq	80(%rsp), %rdi
	call	*%rax
.L1237:
	movq	56(%rsp), %rdi
	testq	%rdi, %rdi
	je	.L1239
	call	_ZNSt16_Sp_counted_baseILN9__gnu_cxx12_Lock_policyE2EE10_M_releaseEv@PLT
.L1239:
	movq	%rbx, %rdi
.LEHB35:
	call	_Unwind_Resume@PLT
.LEHE35:
.L1254:
	movq	72(%rbx), %rax
	testq	%rax, %rax
	je	.L1255
	movl	$3, %edx
	movq	%r14, %rsi
	movq	%r14, %rdi
	call	*%rax
.L1255:
	movq	32(%rbx), %rdi
	testq	%rdi, %rdi
	je	.L1256
	call	_ZNSt16_Sp_counted_baseILN9__gnu_cxx12_Lock_policyE2EE10_M_releaseEv@PLT
.L1256:
	leaq	16(%rsp), %rdi
	movq	%rbp, %rbx
	call	_ZN4asio6detail18completion_handlerIZN7asiopal9TCPClient16PostConnectErrorERKSt8functionIFvRKSt10shared_ptrINS2_8ExecutorEENS_19basic_stream_socketINS_2ip3tcpENS_21stream_socket_serviceISC_EEEERKSt10error_codeEESI_EUlvE_E3ptr5resetEv
.L1257:
	movq	%r13, %rdi
	call	_ZZN7asiopal9TCPClient16PostConnectErrorERKSt8functionIFvRKSt10shared_ptrINS_8ExecutorEEN4asio19basic_stream_socketINS7_2ip3tcpENS7_21stream_socket_serviceISA_EEEERKSt10error_codeEESG_ENUlvE_D1Ev
.L1248:
	leaq	48(%rsp), %rdi
	call	_ZZN7asiopal9TCPClient16PostConnectErrorERKSt8functionIFvRKSt10shared_ptrINS_8ExecutorEEN4asio19basic_stream_socketINS7_2ip3tcpENS7_21stream_socket_serviceISA_EEEERKSt10error_codeEESG_ENUlvE_D1Ev
	movq	%rbx, %rdi
.LEHB36:
	call	_Unwind_Resume@PLT
.LEHE36:
.L1245:
	movq	160(%rsp), %rax
	testq	%rax, %rax
	je	.L1246
	movl	$3, %edx
	leaq	144(%rsp), %rsi
	leaq	144(%rsp), %rdi
	call	*%rax
.L1246:
	movq	120(%rsp), %rdi
	testq	%rdi, %rdi
	je	.L1247
	call	_ZNSt16_Sp_counted_baseILN9__gnu_cxx12_Lock_policyE2EE10_M_releaseEv@PLT
.L1247:
	movq	%rbp, %rbx
	jmp	.L1248
	.cfi_endproc
.LFE7118:
	.section	.gcc_except_table
.LLSDAC7118:
	.byte	0xff
	.byte	0xff
	.byte	0x1
	.uleb128 .LLSDACSEC7118-.LLSDACSBC7118
.LLSDACSBC7118:
	.uleb128 .LEHB34-.LCOLDB33
	.uleb128 .LEHE34-.LEHB34
	.uleb128 0
	.uleb128 0
	.uleb128 .LEHB35-.LCOLDB33
	.uleb128 .LEHE35-.LEHB35
	.uleb128 0
	.uleb128 0
	.uleb128 .LEHB36-.LCOLDB33
	.uleb128 .LEHE36-.LEHB36
	.uleb128 0
	.uleb128 0
.LLSDACSEC7118:
	.section	.text.unlikely
	.text
	.size	_ZN7asiopal9TCPClient16PostConnectErrorERKSt8functionIFvRKSt10shared_ptrINS_8ExecutorEEN4asio19basic_stream_socketINS7_2ip3tcpENS7_21stream_socket_serviceISA_EEEERKSt10error_codeEESG_, .-_ZN7asiopal9TCPClient16PostConnectErrorERKSt8functionIFvRKSt10shared_ptrINS_8ExecutorEEN4asio19basic_stream_socketINS7_2ip3tcpENS7_21stream_socket_serviceISA_EEEERKSt10error_codeEESG_
	.section	.text.unlikely
	.size	_ZN7asiopal9TCPClient16PostConnectErrorERKSt8functionIFvRKSt10shared_ptrINS_8ExecutorEEN4asio19basic_stream_socketINS7_2ip3tcpENS7_21stream_socket_serviceISA_EEEERKSt10error_codeEESG_.cold, .-_ZN7asiopal9TCPClient16PostConnectErrorERKSt8functionIFvRKSt10shared_ptrINS_8ExecutorEEN4asio19basic_stream_socketINS7_2ip3tcpENS7_21stream_socket_serviceISA_EEEERKSt10error_codeEESG_.cold
.LCOLDE33:
	.text
.LHOTE33:
	.section	.text.unlikely
.LCOLDB34:
	.text
.LHOTB34:
	.p2align 4
	.type	_ZN4asio6detail18completion_handlerIZN7asiopal9TCPClient16PostConnectErrorERKSt8functionIFvRKSt10shared_ptrINS2_8ExecutorEENS_19basic_stream_socketINS_2ip3tcpENS_21stream_socket_serviceISC_EEEERKSt10error_codeEESI_EUlvE_E11do_completeEPNS0_15task_io_serviceEPNS0_25task_io_service_operationESI_m, @function
_ZN4asio6detail18completion_handlerIZN7asiopal9TCPClient16PostConnectErrorERKSt8functionIFvRKSt10shared_ptrINS2_8ExecutorEENS_19basic_stream_socketINS_2ip3tcpENS_21stream_socket_serviceISC_EEEERKSt10error_codeEESI_EUlvE_E11do_completeEPNS0_15task_io_serviceEPNS0_25task_io_service_operationESI_m:
.LFB9119:
	.cfi_startproc
	.cfi_personality 0x9b,DW.ref.__gxx_personality_v0
	.cfi_lsda 0x1b,.LLSDA9119
	pushq	%r13
	.cfi_def_cfa_offset 16
	.cfi_offset 13, -16
	leaq	24(%rsi), %rax
	pushq	%r12
	.cfi_def_cfa_offset 24
	.cfi_offset 12, -24
	movq	%rdi, %r12
	pushq	%rbp
	.cfi_def_cfa_offset 32
	.cfi_offset 6, -32
	pushq	%rbx
	.cfi_def_cfa_offset 40
	.cfi_offset 3, -40
	movq	%rsi, %rbx
	subq	$136, %rsp
	.cfi_def_cfa_offset 176
	movdqu	24(%rsi), %xmm0
	movq	%rax, (%rsp)
	movq	72(%rsi), %rax
	movaps	%xmm0, 64(%rsp)
	pxor	%xmm0, %xmm0
	movups	%xmm0, 24(%rsi)
	movdqu	40(%rsi), %xmm0
	movq	$0, 112(%rsp)
	movaps	%xmm0, 80(%rsp)
	pxor	%xmm0, %xmm0
	movq	$0, 120(%rsp)
	movaps	%xmm0, 96(%rsp)
	testq	%rax, %rax
	je	.L1365
	leaq	56(%rsi), %rbp
	movl	$2, %edx
	leaq	96(%rsp), %rdi
	movq	%rbp, %rsi
.LEHB37:
	call	*%rax
.LEHE37:
	movdqu	72(%rbx), %xmm0
	leaq	64(%rsp), %r13
	movq	%r13, (%rsp)
	movq	%xmm0, %rax
	movaps	%xmm0, 112(%rsp)
	testq	%rax, %rax
	je	.L1364
	movl	$3, %edx
	movq	%rbp, %rsi
	movq	%rbp, %rdi
	call	*%rax
.L1364:
	movq	32(%rbx), %rdi
	testq	%rdi, %rdi
	je	.L1319
	call	_ZNSt16_Sp_counted_baseILN9__gnu_cxx12_Lock_policyE2EE10_M_releaseEv@PLT
.L1319:
	data16	leaq	_ZN4asio6detail15keyword_tss_ptrINS0_10call_stackINS0_15task_io_serviceENS0_27task_io_service_thread_infoEE7contextEE6value_E@tlsgd(%rip), %rdi
	.value	0x6666
	rex64
	call	__tls_get_addr@PLT
	movq	(%rax), %rax
	testq	%rax, %rax
	je	.L1326
	movq	8(%rax), %rax
	testq	%rax, %rax
	je	.L1326
	cmpq	$0, (%rax)
	je	.L1366
.L1326:
	movq	%rbx, %rdi
	call	_ZdlPv@PLT
.L1327:
	testq	%r12, %r12
	je	.L1328
	movq	64(%rsp), %rsi
	movb	$0, 16(%rsi)
	cmpb	$0, 17(%rsi)
	je	.L1367
.L1329:
	sfence
.L1328:
	movq	112(%rsp), %rax
	testq	%rax, %rax
	je	.L1332
	leaq	96(%rsp), %rdi
	movl	$3, %edx
	movq	%rdi, %rsi
	call	*%rax
.L1332:
	movq	72(%rsp), %rdi
	testq	%rdi, %rdi
	je	.L1317
	call	_ZNSt16_Sp_counted_baseILN9__gnu_cxx12_Lock_policyE2EE10_M_releaseEv@PLT
.L1317:
	addq	$136, %rsp
	.cfi_remember_state
	.cfi_def_cfa_offset 40
	popq	%rbx
	.cfi_def_cfa_offset 32
	popq	%rbp
	.cfi_def_cfa_offset 24
	popq	%r12
	.cfi_def_cfa_offset 16
	popq	%r13
	.cfi_def_cfa_offset 8
	ret
	.p2align 4,,10
	.p2align 3
.L1367:
	.cfi_restore_state
	movq	160(%rsi), %rax
	addq	$56, %rsi
	movq	%rax, 56(%rsp)
	movl	80(%rsi), %eax
	movl	$-1, 80(%rsi)
	movl	%eax, 32(%rsp)
	movzbl	84(%rsi), %eax
	movb	$0, 84(%rsi)
	movb	%al, 36(%rsp)
	movq	88(%rsi), %rax
	movq	$0, 88(%rsi)
	movq	%rax, 40(%rsp)
	movl	96(%rsi), %eax
	movl	$2, 96(%rsi)
	movl	%eax, 48(%rsp)
	cmpq	$0, 112(%rsp)
	je	.L1362
	leaq	32(%rsp), %rbx
	leaq	80(%rsp), %rcx
	leaq	96(%rsp), %rdi
	movq	%rbx, %rdx
.LEHB38:
	call	*120(%rsp)
.LEHE38:
	movq	56(%rsp), %rax
	movq	%rbx, %rsi
	leaq	40(%rax), %rdi
	call	_ZN4asio6detail28reactive_socket_service_base7destroyERNS1_24base_implementation_typeE@PLT
	jmp	.L1329
	.p2align 4,,10
	.p2align 3
.L1365:
	leaq	64(%rsp), %r13
	movq	%r13, (%rsp)
	jmp	.L1319
	.p2align 4,,10
	.p2align 3
.L1366:
	movzbl	88(%rbx), %edx
	movb	%dl, (%rbx)
	movq	%rbx, (%rax)
	jmp	.L1327
.L1334:
	movq	%rax, %rbp
	jmp	.L1322
.L1360:
	jmp	.L1361
	.section	.gcc_except_table
.LLSDA9119:
	.byte	0xff
	.byte	0xff
	.byte	0x1
	.uleb128 .LLSDACSE9119-.LLSDACSB9119
.LLSDACSB9119:
	.uleb128 .LEHB37-.LFB9119
	.uleb128 .LEHE37-.LEHB37
	.uleb128 .L1334-.LFB9119
	.uleb128 0
	.uleb128 .LEHB38-.LFB9119
	.uleb128 .LEHE38-.LEHB38
	.uleb128 .L1360-.LFB9119
	.uleb128 0
.LLSDACSE9119:
	.text
	.cfi_endproc
	.section	.text.unlikely
	.cfi_startproc
	.cfi_personality 0x9b,DW.ref.__gxx_personality_v0
	.cfi_lsda 0x1b,.LLSDAC9119
	.type	_ZN4asio6detail18completion_handlerIZN7asiopal9TCPClient16PostConnectErrorERKSt8functionIFvRKSt10shared_ptrINS2_8ExecutorEENS_19basic_stream_socketINS_2ip3tcpENS_21stream_socket_serviceISC_EEEERKSt10error_codeEESI_EUlvE_E11do_completeEPNS0_15task_io_serviceEPNS0_25task_io_service_operationESI_m.cold, @function
_ZN4asio6detail18completion_handlerIZN7asiopal9TCPClient16PostConnectErrorERKSt8functionIFvRKSt10shared_ptrINS2_8ExecutorEENS_19basic_stream_socketINS_2ip3tcpENS_21stream_socket_serviceISC_EEEERKSt10error_codeEESI_EUlvE_E11do_completeEPNS0_15task_io_serviceEPNS0_25task_io_service_operationESI_m.cold:
.LFSB9119:
.L1362:
	.cfi_def_cfa_offset 176
	.cfi_offset 3, -40
	.cfi_offset 6, -32
	.cfi_offset 12, -24
	.cfi_offset 13, -16
	leaq	32(%rsp), %rbx
.LEHB39:
	call	_ZSt25__throw_bad_function_callv@PLT
.LEHE39:
.L1322:
	movq	112(%rsp), %rax
	testq	%rax, %rax
	je	.L1323
	movl	$3, %edx
	leaq	96(%rsp), %rsi
	leaq	96(%rsp), %rdi
	call	*%rax
.L1323:
	movq	72(%rsp), %rdi
	testq	%rdi, %rdi
	je	.L1325
	call	_ZNSt16_Sp_counted_baseILN9__gnu_cxx12_Lock_policyE2EE10_M_releaseEv@PLT
.L1325:
	movq	%rbx, %xmm0
	movq	%rsp, %rdi
	punpcklqdq	%xmm0, %xmm0
	movups	%xmm0, 8(%rsp)
	call	_ZN4asio6detail18completion_handlerIZN7asiopal9TCPClient16PostConnectErrorERKSt8functionIFvRKSt10shared_ptrINS2_8ExecutorEENS_19basic_stream_socketINS_2ip3tcpENS_21stream_socket_serviceISC_EEEERKSt10error_codeEESI_EUlvE_E3ptr5resetEv
	movq	%rbp, %rdi
.LEHB40:
	call	_Unwind_Resume@PLT
.LEHE40:
.L1335:
.L1361:
	movq	%rax, %rbp
	movq	56(%rsp), %rax
	movq	%rbx, %rsi
	xorl	%ebx, %ebx
	leaq	40(%rax), %rdi
	call	_ZN4asio6detail28reactive_socket_service_base7destroyERNS1_24base_implementation_typeE@PLT
	movq	%r13, %rdi
	sfence
	call	_ZZN7asiopal9TCPClient16PostConnectErrorERKSt8functionIFvRKSt10shared_ptrINS_8ExecutorEEN4asio19basic_stream_socketINS7_2ip3tcpENS7_21stream_socket_serviceISA_EEEERKSt10error_codeEESG_ENUlvE_D1Ev
	jmp	.L1325
	.cfi_endproc
.LFE9119:
	.section	.gcc_except_table
.LLSDAC9119:
	.byte	0xff
	.byte	0xff
	.byte	0x1
	.uleb128 .LLSDACSEC9119-.LLSDACSBC9119
.LLSDACSBC9119:
	.uleb128 .LEHB39-.LCOLDB34
	.uleb128 .LEHE39-.LEHB39
	.uleb128 .L1335-.LCOLDB34
	.uleb128 0
	.uleb128 .LEHB40-.LCOLDB34
	.uleb128 .LEHE40-.LEHB40
	.uleb128 0
	.uleb128 0
.LLSDACSEC9119:
	.section	.text.unlikely
	.text
	.size	_ZN4asio6detail18completion_handlerIZN7asiopal9TCPClient16PostConnectErrorERKSt8functionIFvRKSt10shared_ptrINS2_8ExecutorEENS_19basic_stream_socketINS_2ip3tcpENS_21stream_socket_serviceISC_EEEERKSt10error_codeEESI_EUlvE_E11do_completeEPNS0_15task_io_serviceEPNS0_25task_io_service_operationESI_m, .-_ZN4asio6detail18completion_handlerIZN7asiopal9TCPClient16PostConnectErrorERKSt8functionIFvRKSt10shared_ptrINS2_8ExecutorEENS_19basic_stream_socketINS_2ip3tcpENS_21stream_socket_serviceISC_EEEERKSt10error_codeEESI_EUlvE_E11do_completeEPNS0_15task_io_serviceEPNS0_25task_io_service_operationESI_m
	.section	.text.unlikely
	.size	_ZN4asio6detail18completion_handlerIZN7asiopal9TCPClient16PostConnectErrorERKSt8functionIFvRKSt10shared_ptrINS2_8ExecutorEENS_19basic_stream_socketINS_2ip3tcpENS_21stream_socket_serviceISC_EEEERKSt10error_codeEESI_EUlvE_E11do_completeEPNS0_15task_io_serviceEPNS0_25task_io_service_operationESI_m.cold, .-_ZN4asio6detail18completion_handlerIZN7asiopal9TCPClient16PostConnectErrorERKSt8functionIFvRKSt10shared_ptrINS2_8ExecutorEENS_19basic_stream_socketINS_2ip3tcpENS_21stream_socket_serviceISC_EEEERKSt10error_codeEESI_EUlvE_E11do_completeEPNS0_15task_io_serviceEPNS0_25task_io_service_operationESI_m.cold
.LCOLDE34:
	.text
.LHOTE34:
	.section	.text.unlikely
	.align 2
	.type	_ZN4asio6detail7binder2IZN7asiopal9TCPClient19HandleResolveResultERKSt8functionIFvRKSt10shared_ptrINS2_8ExecutorEENS_19basic_stream_socketINS_2ip3tcpENS_21stream_socket_serviceISC_EEEERKSt10error_codeEERKNSB_23basic_resolver_iteratorISC_EESI_EUlSI_SO_E_SG_SO_ED2Ev, @function
_ZN4asio6detail7binder2IZN7asiopal9TCPClient19HandleResolveResultERKSt8functionIFvRKSt10shared_ptrINS2_8ExecutorEENS_19basic_stream_socketINS_2ip3tcpENS_21stream_socket_serviceISC_EEEERKSt10error_codeEERKNSB_23basic_resolver_iteratorISC_EESI_EUlSI_SO_E_SG_SO_ED2Ev:
.LFB8854:
	.cfi_startproc
	.cfi_personality 0x9b,DW.ref.__gxx_personality_v0
	.cfi_lsda 0x1b,.LLSDA8854
	pushq	%rbx
	.cfi_def_cfa_offset 16
	.cfi_offset 3, -16
	movq	%rdi, %rbx
	movq	72(%rdi), %rdi
	testq	%rdi, %rdi
	je	.L1369
	call	_ZNSt16_Sp_counted_baseILN9__gnu_cxx12_Lock_policyE2EE10_M_releaseEv@PLT
.L1369:
	movq	32(%rbx), %rax
	testq	%rax, %rax
	je	.L1370
	leaq	16(%rbx), %rdi
	movl	$3, %edx
	movq	%rdi, %rsi
	call	*%rax
.L1370:
	movq	8(%rbx), %rdi
	testq	%rdi, %rdi
	je	.L1368
	popq	%rbx
	.cfi_remember_state
	.cfi_def_cfa_offset 8
.LEHB41:
	jmp	_ZNSt16_Sp_counted_baseILN9__gnu_cxx12_Lock_policyE2EE10_M_releaseEv@PLT
.LEHE41:
.L1368:
	.cfi_restore_state
	popq	%rbx
	.cfi_def_cfa_offset 8
	ret
	.cfi_endproc
.LFE8854:
	.section	.gcc_except_table
.LLSDA8854:
	.byte	0xff
	.byte	0xff
	.byte	0x1
	.uleb128 .LLSDACSE8854-.LLSDACSB8854
.LLSDACSB8854:
	.uleb128 .LEHB41-.LFB8854
	.uleb128 .LEHE41-.LEHB41
	.uleb128 0
	.uleb128 0
.LLSDACSE8854:
	.section	.text.unlikely
	.size	_ZN4asio6detail7binder2IZN7asiopal9TCPClient19HandleResolveResultERKSt8functionIFvRKSt10shared_ptrINS2_8ExecutorEENS_19basic_stream_socketINS_2ip3tcpENS_21stream_socket_serviceISC_EEEERKSt10error_codeEERKNSB_23basic_resolver_iteratorISC_EESI_EUlSI_SO_E_SG_SO_ED2Ev, .-_ZN4asio6detail7binder2IZN7asiopal9TCPClient19HandleResolveResultERKSt8functionIFvRKSt10shared_ptrINS2_8ExecutorEENS_19basic_stream_socketINS_2ip3tcpENS_21stream_socket_serviceISC_EEEERKSt10error_codeEERKNSB_23basic_resolver_iteratorISC_EESI_EUlSI_SO_E_SG_SO_ED2Ev
	.set	_ZN4asio6detail7binder2IZN7asiopal9TCPClient19HandleResolveResultERKSt8functionIFvRKSt10shared_ptrINS2_8ExecutorEENS_19basic_stream_socketINS_2ip3tcpENS_21stream_socket_serviceISC_EEEERKSt10error_codeEERKNSB_23basic_resolver_iteratorISC_EESI_EUlSI_SO_E_SG_SO_ED1Ev,_ZN4asio6detail7binder2IZN7asiopal9TCPClient19HandleResolveResultERKSt8functionIFvRKSt10shared_ptrINS2_8ExecutorEENS_19basic_stream_socketINS_2ip3tcpENS_21stream_socket_serviceISC_EEEERKSt10error_codeEERKNSB_23basic_resolver_iteratorISC_EESI_EUlSI_SO_E_SG_SO_ED2Ev
	.align 2
	.type	_ZN4asio6detail7binder2IZN7asiopal9TCPClient12BeginConnectERKSt8functionIFvRKSt10shared_ptrINS2_8ExecutorEENS_19basic_stream_socketINS_2ip3tcpENS_21stream_socket_serviceISC_EEEERKSt10error_codeEEEUlSI_NSB_23basic_resolver_iteratorISC_EEE_SG_SO_ED2Ev, @function
_ZN4asio6detail7binder2IZN7asiopal9TCPClient12BeginConnectERKSt8functionIFvRKSt10shared_ptrINS2_8ExecutorEENS_19basic_stream_socketINS_2ip3tcpENS_21stream_socket_serviceISC_EEEERKSt10error_codeEEEUlSI_NSB_23basic_resolver_iteratorISC_EEE_SG_SO_ED2Ev:
.LFB10013:
	.cfi_startproc
	.cfi_personality 0x9b,DW.ref.__gxx_personality_v0
	.cfi_lsda 0x1b,.LLSDA10013
	pushq	%rbx
	.cfi_def_cfa_offset 16
	.cfi_offset 3, -16
	movq	%rdi, %rbx
	movq	72(%rdi), %rdi
	testq	%rdi, %rdi
	je	.L1380
	call	_ZNSt16_Sp_counted_baseILN9__gnu_cxx12_Lock_policyE2EE10_M_releaseEv@PLT
.L1380:
	movq	32(%rbx), %rax
	testq	%rax, %rax
	je	.L1381
	leaq	16(%rbx), %rdi
	movl	$3, %edx
	movq	%rdi, %rsi
	call	*%rax
.L1381:
	movq	8(%rbx), %rdi
	testq	%rdi, %rdi
	je	.L1379
	popq	%rbx
	.cfi_remember_state
	.cfi_def_cfa_offset 8
.LEHB42:
	jmp	_ZNSt16_Sp_counted_baseILN9__gnu_cxx12_Lock_policyE2EE10_M_releaseEv@PLT
.LEHE42:
.L1379:
	.cfi_restore_state
	popq	%rbx
	.cfi_def_cfa_offset 8
	ret
	.cfi_endproc
.LFE10013:
	.section	.gcc_except_table
.LLSDA10013:
	.byte	0xff
	.byte	0xff
	.byte	0x1
	.uleb128 .LLSDACSE10013-.LLSDACSB10013
.LLSDACSB10013:
	.uleb128 .LEHB42-.LFB10013
	.uleb128 .LEHE42-.LEHB42
	.uleb128 0
	.uleb128 0
.LLSDACSE10013:
	.section	.text.unlikely
	.size	_ZN4asio6detail7binder2IZN7asiopal9TCPClient12BeginConnectERKSt8functionIFvRKSt10shared_ptrINS2_8ExecutorEENS_19basic_stream_socketINS_2ip3tcpENS_21stream_socket_serviceISC_EEEERKSt10error_codeEEEUlSI_NSB_23basic_resolver_iteratorISC_EEE_SG_SO_ED2Ev, .-_ZN4asio6detail7binder2IZN7asiopal9TCPClient12BeginConnectERKSt8functionIFvRKSt10shared_ptrINS2_8ExecutorEENS_19basic_stream_socketINS_2ip3tcpENS_21stream_socket_serviceISC_EEEERKSt10error_codeEEEUlSI_NSB_23basic_resolver_iteratorISC_EEE_SG_SO_ED2Ev
	.set	_ZN4asio6detail7binder2IZN7asiopal9TCPClient12BeginConnectERKSt8functionIFvRKSt10shared_ptrINS2_8ExecutorEENS_19basic_stream_socketINS_2ip3tcpENS_21stream_socket_serviceISC_EEEERKSt10error_codeEEEUlSI_NSB_23basic_resolver_iteratorISC_EEE_SG_SO_ED1Ev,_ZN4asio6detail7binder2IZN7asiopal9TCPClient12BeginConnectERKSt8functionIFvRKSt10shared_ptrINS2_8ExecutorEENS_19basic_stream_socketINS_2ip3tcpENS_21stream_socket_serviceISC_EEEERKSt10error_codeEEEUlSI_NSB_23basic_resolver_iteratorISC_EEE_SG_SO_ED2Ev
	.align 2
	.type	_ZN4asio6detail7binder2INS0_15wrapped_handlerINS_10io_service6strandEZN7asiopal9TCPClient12BeginConnectERKSt8functionIFvRKSt10shared_ptrINS5_8ExecutorEENS_19basic_stream_socketINS_2ip3tcpENS_21stream_socket_serviceISF_EEEERKSt10error_codeEEEUlSL_NSE_23basic_resolver_iteratorISF_EEE_NS0_26is_continuation_if_runningEEESJ_SR_ED2Ev, @function
_ZN4asio6detail7binder2INS0_15wrapped_handlerINS_10io_service6strandEZN7asiopal9TCPClient12BeginConnectERKSt8functionIFvRKSt10shared_ptrINS5_8ExecutorEENS_19basic_stream_socketINS_2ip3tcpENS_21stream_socket_serviceISF_EEEERKSt10error_codeEEEUlSL_NSE_23basic_resolver_iteratorISF_EEE_NS0_26is_continuation_if_runningEEESJ_SR_ED2Ev:
.LFB9325:
	.cfi_startproc
	.cfi_personality 0x9b,DW.ref.__gxx_personality_v0
	.cfi_lsda 0x1b,.LLSDA9325
	pushq	%rbx
	.cfi_def_cfa_offset 16
	.cfi_offset 3, -16
	movq	%rdi, %rbx
	movq	88(%rdi), %rdi
	testq	%rdi, %rdi
	je	.L1391
	call	_ZNSt16_Sp_counted_baseILN9__gnu_cxx12_Lock_policyE2EE10_M_releaseEv@PLT
.L1391:
	movq	48(%rbx), %rax
	testq	%rax, %rax
	je	.L1392
	leaq	32(%rbx), %rdi
	movl	$3, %edx
	movq	%rdi, %rsi
	call	*%rax
.L1392:
	movq	24(%rbx), %rdi
	testq	%rdi, %rdi
	je	.L1390
	popq	%rbx
	.cfi_remember_state
	.cfi_def_cfa_offset 8
.LEHB43:
	jmp	_ZNSt16_Sp_counted_baseILN9__gnu_cxx12_Lock_policyE2EE10_M_releaseEv@PLT
.LEHE43:
.L1390:
	.cfi_restore_state
	popq	%rbx
	.cfi_def_cfa_offset 8
	ret
	.cfi_endproc
.LFE9325:
	.section	.gcc_except_table
.LLSDA9325:
	.byte	0xff
	.byte	0xff
	.byte	0x1
	.uleb128 .LLSDACSE9325-.LLSDACSB9325
.LLSDACSB9325:
	.uleb128 .LEHB43-.LFB9325
	.uleb128 .LEHE43-.LEHB43
	.uleb128 0
	.uleb128 0
.LLSDACSE9325:
	.section	.text.unlikely
	.size	_ZN4asio6detail7binder2INS0_15wrapped_handlerINS_10io_service6strandEZN7asiopal9TCPClient12BeginConnectERKSt8functionIFvRKSt10shared_ptrINS5_8ExecutorEENS_19basic_stream_socketINS_2ip3tcpENS_21stream_socket_serviceISF_EEEERKSt10error_codeEEEUlSL_NSE_23basic_resolver_iteratorISF_EEE_NS0_26is_continuation_if_runningEEESJ_SR_ED2Ev, .-_ZN4asio6detail7binder2INS0_15wrapped_handlerINS_10io_service6strandEZN7asiopal9TCPClient12BeginConnectERKSt8functionIFvRKSt10shared_ptrINS5_8ExecutorEENS_19basic_stream_socketINS_2ip3tcpENS_21stream_socket_serviceISF_EEEERKSt10error_codeEEEUlSL_NSE_23basic_resolver_iteratorISF_EEE_NS0_26is_continuation_if_runningEEESJ_SR_ED2Ev
	.set	_ZN4asio6detail7binder2INS0_15wrapped_handlerINS_10io_service6strandEZN7asiopal9TCPClient12BeginConnectERKSt8functionIFvRKSt10shared_ptrINS5_8ExecutorEENS_19basic_stream_socketINS_2ip3tcpENS_21stream_socket_serviceISF_EEEERKSt10error_codeEEEUlSL_NSE_23basic_resolver_iteratorISF_EEE_NS0_26is_continuation_if_runningEEESJ_SR_ED1Ev,_ZN4asio6detail7binder2INS0_15wrapped_handlerINS_10io_service6strandEZN7asiopal9TCPClient12BeginConnectERKSt8functionIFvRKSt10shared_ptrINS5_8ExecutorEENS_19basic_stream_socketINS_2ip3tcpENS_21stream_socket_serviceISF_EEEERKSt10error_codeEEEUlSL_NSE_23basic_resolver_iteratorISF_EEE_NS0_26is_continuation_if_runningEEESJ_SR_ED2Ev
	.text
	.align 2
	.p2align 4
	.type	_ZN4asio6detail10connect_opINS_2ip3tcpENS_21stream_socket_serviceIS3_EENS2_23basic_resolver_iteratorIS3_EEN7asiopal26LoggingConnectionConditionENS0_15wrapped_handlerINS_10io_service6strandEZNS8_9TCPClient19HandleResolveResultERKSt8functionIFvRKSt10shared_ptrINS8_8ExecutorEENS_19basic_stream_socketIS3_S5_EERKSt10error_codeEERKS7_SO_EUlSO_S7_E_NS0_26is_continuation_if_runningEEEED2Ev, @function
_ZN4asio6detail10connect_opINS_2ip3tcpENS_21stream_socket_serviceIS3_EENS2_23basic_resolver_iteratorIS3_EEN7asiopal26LoggingConnectionConditionENS0_15wrapped_handlerINS_10io_service6strandEZNS8_9TCPClient19HandleResolveResultERKSt8functionIFvRKSt10shared_ptrINS8_8ExecutorEENS_19basic_stream_socketIS3_S5_EERKSt10error_codeEERKS7_SO_EUlSO_S7_E_NS0_26is_continuation_if_runningEEEED2Ev:
.LFB8013:
	.cfi_startproc
	.cfi_personality 0x9b,DW.ref.__gxx_personality_v0
	.cfi_lsda 0x1b,.LLSDA8013
	pushq	%rbx
	.cfi_def_cfa_offset 16
	.cfi_offset 3, -16
	movq	144(%rdi), %rax
	movq	%rdi, %rbx
	testq	%rax, %rax
	je	.L1402
	leaq	128(%rdi), %rdi
	movl	$3, %edx
	movq	%rdi, %rsi
	call	*%rax
.L1402:
	movq	120(%rbx), %rdi
	testq	%rdi, %rdi
	je	.L1403
	call	_ZNSt16_Sp_counted_baseILN9__gnu_cxx12_Lock_policyE2EE10_M_releaseEv@PLT
.L1403:
	movq	72(%rbx), %rdi
	testq	%rdi, %rdi
	je	.L1404
	call	_ZNSt16_Sp_counted_baseILN9__gnu_cxx12_Lock_policyE2EE10_M_releaseEv@PLT
.L1404:
	movq	48(%rbx), %rdi
	testq	%rdi, %rdi
	je	.L1405
	call	_ZNSt16_Sp_counted_baseILN9__gnu_cxx12_Lock_policyE2EE10_M_releaseEv@PLT
.L1405:
	movq	24(%rbx), %rdi
	testq	%rdi, %rdi
	je	.L1406
	call	_ZNSt16_Sp_counted_baseILN9__gnu_cxx12_Lock_policyE2EE10_M_releaseEv@PLT
.L1406:
	movq	8(%rbx), %rdi
	testq	%rdi, %rdi
	je	.L1401
	popq	%rbx
	.cfi_remember_state
	.cfi_def_cfa_offset 8
.LEHB44:
	jmp	_ZNSt16_Sp_counted_baseILN9__gnu_cxx12_Lock_policyE2EE10_M_releaseEv@PLT
.LEHE44:
	.p2align 4,,10
	.p2align 3
.L1401:
	.cfi_restore_state
	popq	%rbx
	.cfi_def_cfa_offset 8
	ret
	.cfi_endproc
.LFE8013:
	.section	.gcc_except_table
.LLSDA8013:
	.byte	0xff
	.byte	0xff
	.byte	0x1
	.uleb128 .LLSDACSE8013-.LLSDACSB8013
.LLSDACSB8013:
	.uleb128 .LEHB44-.LFB8013
	.uleb128 .LEHE44-.LEHB44
	.uleb128 0
	.uleb128 0
.LLSDACSE8013:
	.text
	.size	_ZN4asio6detail10connect_opINS_2ip3tcpENS_21stream_socket_serviceIS3_EENS2_23basic_resolver_iteratorIS3_EEN7asiopal26LoggingConnectionConditionENS0_15wrapped_handlerINS_10io_service6strandEZNS8_9TCPClient19HandleResolveResultERKSt8functionIFvRKSt10shared_ptrINS8_8ExecutorEENS_19basic_stream_socketIS3_S5_EERKSt10error_codeEERKS7_SO_EUlSO_S7_E_NS0_26is_continuation_if_runningEEEED2Ev, .-_ZN4asio6detail10connect_opINS_2ip3tcpENS_21stream_socket_serviceIS3_EENS2_23basic_resolver_iteratorIS3_EEN7asiopal26LoggingConnectionConditionENS0_15wrapped_handlerINS_10io_service6strandEZNS8_9TCPClient19HandleResolveResultERKSt8functionIFvRKSt10shared_ptrINS8_8ExecutorEENS_19basic_stream_socketIS3_S5_EERKSt10error_codeEERKS7_SO_EUlSO_S7_E_NS0_26is_continuation_if_runningEEEED2Ev
	.set	_ZN4asio6detail10connect_opINS_2ip3tcpENS_21stream_socket_serviceIS3_EENS2_23basic_resolver_iteratorIS3_EEN7asiopal26LoggingConnectionConditionENS0_15wrapped_handlerINS_10io_service6strandEZNS8_9TCPClient19HandleResolveResultERKSt8functionIFvRKSt10shared_ptrINS8_8ExecutorEENS_19basic_stream_socketIS3_S5_EERKSt10error_codeEERKS7_SO_EUlSO_S7_E_NS0_26is_continuation_if_runningEEEED1Ev,_ZN4asio6detail10connect_opINS_2ip3tcpENS_21stream_socket_serviceIS3_EENS2_23basic_resolver_iteratorIS3_EEN7asiopal26LoggingConnectionConditionENS0_15wrapped_handlerINS_10io_service6strandEZNS8_9TCPClient19HandleResolveResultERKSt8functionIFvRKSt10shared_ptrINS8_8ExecutorEENS_19basic_stream_socketIS3_S5_EERKSt10error_codeEERKS7_SO_EUlSO_S7_E_NS0_26is_continuation_if_runningEEEED2Ev
	.section	.text.unlikely
	.align 2
	.type	_ZN4asio6detail18completion_handlerINS0_7binder1INS0_10connect_opINS_2ip3tcpENS_21stream_socket_serviceIS5_EENS4_23basic_resolver_iteratorIS5_EEN7asiopal26LoggingConnectionConditionENS0_15wrapped_handlerINS_10io_service6strandEZNSA_9TCPClient19HandleResolveResultERKSt8functionIFvRKSt10shared_ptrINSA_8ExecutorEENS_19basic_stream_socketIS5_S7_EERKSt10error_codeEERKS9_SQ_EUlSQ_S9_E_NS0_26is_continuation_if_runningEEEEESO_EEE3ptr5resetEv, @function
_ZN4asio6detail18completion_handlerINS0_7binder1INS0_10connect_opINS_2ip3tcpENS_21stream_socket_serviceIS5_EENS4_23basic_resolver_iteratorIS5_EEN7asiopal26LoggingConnectionConditionENS0_15wrapped_handlerINS_10io_service6strandEZNSA_9TCPClient19HandleResolveResultERKSt8functionIFvRKSt10shared_ptrINSA_8ExecutorEENS_19basic_stream_socketIS5_S7_EERKSt10error_codeEERKS9_SQ_EUlSQ_S9_E_NS0_26is_continuation_if_runningEEEEESO_EEE3ptr5resetEv:
.LFB9590:
	.cfi_startproc
	pushq	%rbp
	.cfi_def_cfa_offset 16
	.cfi_offset 6, -16
	movq	%rdi, %rbp
	pushq	%rbx
	.cfi_def_cfa_offset 24
	.cfi_offset 3, -24
	pushq	%rsi
	.cfi_def_cfa_offset 32
	movq	16(%rdi), %rdi
	testq	%rdi, %rdi
	je	.L1425
	addq	$24, %rdi
	call	_ZN4asio6detail10connect_opINS_2ip3tcpENS_21stream_socket_serviceIS3_EENS2_23basic_resolver_iteratorIS3_EEN7asiopal26LoggingConnectionConditionENS0_15wrapped_handlerINS_10io_service6strandEZNS8_9TCPClient19HandleResolveResultERKSt8functionIFvRKSt10shared_ptrINS8_8ExecutorEENS_19basic_stream_socketIS3_S5_EERKSt10error_codeEERKS7_SO_EUlSO_S7_E_NS0_26is_continuation_if_runningEEEED1Ev
	xorl	%ecx, %ecx
	movq	%rcx, 16(%rbp)
.L1425:
	movq	8(%rbp), %rbx
	testq	%rbx, %rbx
	je	.L1424
	data16	leaq	_ZN4asio6detail15keyword_tss_ptrINS0_10call_stackINS0_15task_io_serviceENS0_27task_io_service_thread_infoEE7contextEE6value_E@tlsgd(%rip), %rdi
	.value	0x6666
	rex64
	call	__tls_get_addr@PLT
	movq	(%rax), %rax
	testq	%rax, %rax
	je	.L1427
	movq	8(%rax), %rax
	testq	%rax, %rax
	je	.L1427
	cmpq	$0, (%rax)
	jne	.L1427
	movb	200(%rbx), %dl
	movb	%dl, (%rbx)
	movq	%rbx, (%rax)
	jmp	.L1428
.L1427:
	movq	%rbx, %rdi
	call	_ZdlPv@PLT
.L1428:
	xorl	%edx, %edx
	movq	%rdx, 8(%rbp)
.L1424:
	popq	%rax
	.cfi_def_cfa_offset 24
	popq	%rbx
	.cfi_def_cfa_offset 16
	popq	%rbp
	.cfi_def_cfa_offset 8
	ret
	.cfi_endproc
.LFE9590:
	.size	_ZN4asio6detail18completion_handlerINS0_7binder1INS0_10connect_opINS_2ip3tcpENS_21stream_socket_serviceIS5_EENS4_23basic_resolver_iteratorIS5_EEN7asiopal26LoggingConnectionConditionENS0_15wrapped_handlerINS_10io_service6strandEZNSA_9TCPClient19HandleResolveResultERKSt8functionIFvRKSt10shared_ptrINSA_8ExecutorEENS_19basic_stream_socketIS5_S7_EERKSt10error_codeEERKS9_SQ_EUlSQ_S9_E_NS0_26is_continuation_if_runningEEEEESO_EEE3ptr5resetEv, .-_ZN4asio6detail18completion_handlerINS0_7binder1INS0_10connect_opINS_2ip3tcpENS_21stream_socket_serviceIS5_EENS4_23basic_resolver_iteratorIS5_EEN7asiopal26LoggingConnectionConditionENS0_15wrapped_handlerINS_10io_service6strandEZNSA_9TCPClient19HandleResolveResultERKSt8functionIFvRKSt10shared_ptrINSA_8ExecutorEENS_19basic_stream_socketIS5_S7_EERKSt10error_codeEERKS9_SQ_EUlSQ_S9_E_NS0_26is_continuation_if_runningEEEEESO_EEE3ptr5resetEv
	.align 2
	.type	_ZN4asio6detail26reactive_socket_connect_opINS0_10connect_opINS_2ip3tcpENS_21stream_socket_serviceIS4_EENS3_23basic_resolver_iteratorIS4_EEN7asiopal26LoggingConnectionConditionENS0_15wrapped_handlerINS_10io_service6strandEZNS9_9TCPClient19HandleResolveResultERKSt8functionIFvRKSt10shared_ptrINS9_8ExecutorEENS_19basic_stream_socketIS4_S6_EERKSt10error_codeEERKS8_SP_EUlSP_S8_E_NS0_26is_continuation_if_runningEEEEEE3ptr5resetEv, @function
_ZN4asio6detail26reactive_socket_connect_opINS0_10connect_opINS_2ip3tcpENS_21stream_socket_serviceIS4_EENS3_23basic_resolver_iteratorIS4_EEN7asiopal26LoggingConnectionConditionENS0_15wrapped_handlerINS_10io_service6strandEZNS9_9TCPClient19HandleResolveResultERKSt8functionIFvRKSt10shared_ptrINS9_8ExecutorEENS_19basic_stream_socketIS4_S6_EERKSt10error_codeEERKS8_SP_EUlSP_S8_E_NS0_26is_continuation_if_runningEEEEEE3ptr5resetEv:
.LFB9722:
	.cfi_startproc
	pushq	%rbp
	.cfi_def_cfa_offset 16
	.cfi_offset 6, -16
	movq	%rdi, %rbp
	pushq	%rbx
	.cfi_def_cfa_offset 24
	.cfi_offset 3, -24
	pushq	%rsi
	.cfi_def_cfa_offset 32
	movq	16(%rdi), %rdi
	testq	%rdi, %rdi
	je	.L1443
	addq	$64, %rdi
	call	_ZN4asio6detail10connect_opINS_2ip3tcpENS_21stream_socket_serviceIS3_EENS2_23basic_resolver_iteratorIS3_EEN7asiopal26LoggingConnectionConditionENS0_15wrapped_handlerINS_10io_service6strandEZNS8_9TCPClient19HandleResolveResultERKSt8functionIFvRKSt10shared_ptrINS8_8ExecutorEENS_19basic_stream_socketIS3_S5_EERKSt10error_codeEERKS7_SO_EUlSO_S7_E_NS0_26is_continuation_if_runningEEEED1Ev
	xorl	%ecx, %ecx
	movq	%rcx, 16(%rbp)
.L1443:
	movq	8(%rbp), %rbx
	testq	%rbx, %rbx
	je	.L1442
	data16	leaq	_ZN4asio6detail15keyword_tss_ptrINS0_10call_stackINS0_15task_io_serviceENS0_27task_io_service_thread_infoEE7contextEE6value_E@tlsgd(%rip), %rdi
	.value	0x6666
	rex64
	call	__tls_get_addr@PLT
	movq	(%rax), %rax
	testq	%rax, %rax
	je	.L1445
	movq	8(%rax), %rax
	testq	%rax, %rax
	je	.L1445
	cmpq	$0, (%rax)
	jne	.L1445
	movb	224(%rbx), %dl
	movb	%dl, (%rbx)
	movq	%rbx, (%rax)
	jmp	.L1446
.L1445:
	movq	%rbx, %rdi
	call	_ZdlPv@PLT
.L1446:
	xorl	%edx, %edx
	movq	%rdx, 8(%rbp)
.L1442:
	popq	%rax
	.cfi_def_cfa_offset 24
	popq	%rbx
	.cfi_def_cfa_offset 16
	popq	%rbp
	.cfi_def_cfa_offset 8
	ret
	.cfi_endproc
.LFE9722:
	.size	_ZN4asio6detail26reactive_socket_connect_opINS0_10connect_opINS_2ip3tcpENS_21stream_socket_serviceIS4_EENS3_23basic_resolver_iteratorIS4_EEN7asiopal26LoggingConnectionConditionENS0_15wrapped_handlerINS_10io_service6strandEZNS9_9TCPClient19HandleResolveResultERKSt8functionIFvRKSt10shared_ptrINS9_8ExecutorEENS_19basic_stream_socketIS4_S6_EERKSt10error_codeEERKS8_SP_EUlSP_S8_E_NS0_26is_continuation_if_runningEEEEEE3ptr5resetEv, .-_ZN4asio6detail26reactive_socket_connect_opINS0_10connect_opINS_2ip3tcpENS_21stream_socket_serviceIS4_EENS3_23basic_resolver_iteratorIS4_EEN7asiopal26LoggingConnectionConditionENS0_15wrapped_handlerINS_10io_service6strandEZNS9_9TCPClient19HandleResolveResultERKSt8functionIFvRKSt10shared_ptrINS9_8ExecutorEENS_19basic_stream_socketIS4_S6_EERKSt10error_codeEERKS8_SP_EUlSP_S8_E_NS0_26is_continuation_if_runningEEEEEE3ptr5resetEv
	.align 2
	.type	_ZN4asio6detail18completion_handlerINS0_17rewrapped_handlerINS0_7binder1INS0_10connect_opINS_2ip3tcpENS_21stream_socket_serviceIS6_EENS5_23basic_resolver_iteratorIS6_EEN7asiopal26LoggingConnectionConditionENS0_15wrapped_handlerINS_10io_service6strandEZNSB_9TCPClient19HandleResolveResultERKSt8functionIFvRKSt10shared_ptrINSB_8ExecutorEENS_19basic_stream_socketIS6_S8_EERKSt10error_codeEERKSA_SR_EUlSR_SA_E_NS0_26is_continuation_if_runningEEEEESP_EESY_EEE3ptr5resetEv, @function
_ZN4asio6detail18completion_handlerINS0_17rewrapped_handlerINS0_7binder1INS0_10connect_opINS_2ip3tcpENS_21stream_socket_serviceIS6_EENS5_23basic_resolver_iteratorIS6_EEN7asiopal26LoggingConnectionConditionENS0_15wrapped_handlerINS_10io_service6strandEZNSB_9TCPClient19HandleResolveResultERKSt8functionIFvRKSt10shared_ptrINSB_8ExecutorEENS_19basic_stream_socketIS6_S8_EERKSt10error_codeEERKSA_SR_EUlSR_SA_E_NS0_26is_continuation_if_runningEEEEESP_EESY_EEE3ptr5resetEv:
.LFB10019:
	.cfi_startproc
	.cfi_personality 0x9b,DW.ref.__gxx_personality_v0
	.cfi_lsda 0x1b,.LLSDA10019
	pushq	%rbp
	.cfi_def_cfa_offset 16
	.cfi_offset 6, -16
	movq	%rdi, %rbp
	pushq	%rbx
	.cfi_def_cfa_offset 24
	.cfi_offset 3, -24
	pushq	%rsi
	.cfi_def_cfa_offset 32
	movq	16(%rdi), %rbx
	testq	%rbx, %rbx
	je	.L1461
	leaq	72(%rbx), %rdi
	call	_ZN4asio6detail10connect_opINS_2ip3tcpENS_21stream_socket_serviceIS3_EENS2_23basic_resolver_iteratorIS3_EEN7asiopal26LoggingConnectionConditionENS0_15wrapped_handlerINS_10io_service6strandEZNS8_9TCPClient19HandleResolveResultERKSt8functionIFvRKSt10shared_ptrINS8_8ExecutorEENS_19basic_stream_socketIS3_S5_EERKSt10error_codeEERKS7_SO_EUlSO_S7_E_NS0_26is_continuation_if_runningEEEED1Ev
	movq	56(%rbx), %rax
	testq	%rax, %rax
	je	.L1462
	leaq	40(%rbx), %rdi
	movl	$3, %edx
	movq	%rdi, %rsi
	call	*%rax
.L1462:
	movq	32(%rbx), %rdi
	testq	%rdi, %rdi
	je	.L1463
	call	_ZNSt16_Sp_counted_baseILN9__gnu_cxx12_Lock_policyE2EE10_M_releaseEv@PLT
.L1463:
	xorl	%ecx, %ecx
	movq	%rcx, 16(%rbp)
.L1461:
	movq	8(%rbp), %rbx
	testq	%rbx, %rbx
	je	.L1460
	data16	leaq	_ZN4asio6detail15keyword_tss_ptrINS0_10call_stackINS0_15task_io_serviceENS0_27task_io_service_thread_infoEE7contextEE6value_E@tlsgd(%rip), %rdi
	.value	0x6666
	rex64
	call	__tls_get_addr@PLT
	movq	(%rax), %rax
	testq	%rax, %rax
	je	.L1465
	movq	8(%rax), %rax
	testq	%rax, %rax
	je	.L1465
	cmpq	$0, (%rax)
	jne	.L1465
	movb	248(%rbx), %dl
	movb	%dl, (%rbx)
	movq	%rbx, (%rax)
	jmp	.L1466
.L1465:
	movq	%rbx, %rdi
	call	_ZdlPv@PLT
.L1466:
	xorl	%edx, %edx
	movq	%rdx, 8(%rbp)
.L1460:
	popq	%rax
	.cfi_def_cfa_offset 24
	popq	%rbx
	.cfi_def_cfa_offset 16
	popq	%rbp
	.cfi_def_cfa_offset 8
	ret
	.cfi_endproc
.LFE10019:
	.section	.gcc_except_table
.LLSDA10019:
	.byte	0xff
	.byte	0xff
	.byte	0x1
	.uleb128 .LLSDACSE10019-.LLSDACSB10019
.LLSDACSB10019:
.LLSDACSE10019:
	.section	.text.unlikely
	.size	_ZN4asio6detail18completion_handlerINS0_17rewrapped_handlerINS0_7binder1INS0_10connect_opINS_2ip3tcpENS_21stream_socket_serviceIS6_EENS5_23basic_resolver_iteratorIS6_EEN7asiopal26LoggingConnectionConditionENS0_15wrapped_handlerINS_10io_service6strandEZNSB_9TCPClient19HandleResolveResultERKSt8functionIFvRKSt10shared_ptrINSB_8ExecutorEENS_19basic_stream_socketIS6_S8_EERKSt10error_codeEERKSA_SR_EUlSR_SA_E_NS0_26is_continuation_if_runningEEEEESP_EESY_EEE3ptr5resetEv, .-_ZN4asio6detail18completion_handlerINS0_17rewrapped_handlerINS0_7binder1INS0_10connect_opINS_2ip3tcpENS_21stream_socket_serviceIS6_EENS5_23basic_resolver_iteratorIS6_EEN7asiopal26LoggingConnectionConditionENS0_15wrapped_handlerINS_10io_service6strandEZNSB_9TCPClient19HandleResolveResultERKSt8functionIFvRKSt10shared_ptrINSB_8ExecutorEENS_19basic_stream_socketIS6_S8_EERKSt10error_codeEERKSA_SR_EUlSR_SA_E_NS0_26is_continuation_if_runningEEEEESP_EESY_EEE3ptr5resetEv
	.align 2
	.type	_ZN4asio6detail18completion_handlerINS0_7binder2IZN7asiopal9TCPClient19HandleResolveResultERKSt8functionIFvRKSt10shared_ptrINS3_8ExecutorEENS_19basic_stream_socketINS_2ip3tcpENS_21stream_socket_serviceISD_EEEERKSt10error_codeEERKNSC_23basic_resolver_iteratorISD_EESJ_EUlSJ_SP_E_SH_SP_EEE3ptr5resetEv, @function
_ZN4asio6detail18completion_handlerINS0_7binder2IZN7asiopal9TCPClient19HandleResolveResultERKSt8functionIFvRKSt10shared_ptrINS3_8ExecutorEENS_19basic_stream_socketINS_2ip3tcpENS_21stream_socket_serviceISD_EEEERKSt10error_codeEERKNSC_23basic_resolver_iteratorISD_EESJ_EUlSJ_SP_E_SH_SP_EEE3ptr5resetEv:
.LFB9732:
	.cfi_startproc
	.cfi_personality 0x9b,DW.ref.__gxx_personality_v0
	.cfi_lsda 0x1b,.LLSDA9732
	pushq	%rbp
	.cfi_def_cfa_offset 16
	.cfi_offset 6, -16
	movq	%rdi, %rbp
	pushq	%rbx
	.cfi_def_cfa_offset 24
	.cfi_offset 3, -24
	pushq	%rsi
	.cfi_def_cfa_offset 32
	movq	16(%rdi), %rbx
	testq	%rbx, %rbx
	je	.L1487
	movq	96(%rbx), %rdi
	testq	%rdi, %rdi
	je	.L1488
	call	_ZNSt16_Sp_counted_baseILN9__gnu_cxx12_Lock_policyE2EE10_M_releaseEv@PLT
.L1488:
	movq	56(%rbx), %rax
	testq	%rax, %rax
	je	.L1489
	leaq	40(%rbx), %rdi
	movl	$3, %edx
	movq	%rdi, %rsi
	call	*%rax
.L1489:
	movq	32(%rbx), %rdi
	testq	%rdi, %rdi
	je	.L1490
	call	_ZNSt16_Sp_counted_baseILN9__gnu_cxx12_Lock_policyE2EE10_M_releaseEv@PLT
.L1490:
	xorl	%ecx, %ecx
	movq	%rcx, 16(%rbp)
.L1487:
	movq	8(%rbp), %rbx
	testq	%rbx, %rbx
	je	.L1486
	data16	leaq	_ZN4asio6detail15keyword_tss_ptrINS0_10call_stackINS0_15task_io_serviceENS0_27task_io_service_thread_infoEE7contextEE6value_E@tlsgd(%rip), %rdi
	.value	0x6666
	rex64
	call	__tls_get_addr@PLT
	movq	(%rax), %rax
	testq	%rax, %rax
	je	.L1492
	movq	8(%rax), %rax
	testq	%rax, %rax
	je	.L1492
	cmpq	$0, (%rax)
	jne	.L1492
	movb	112(%rbx), %dl
	movb	%dl, (%rbx)
	movq	%rbx, (%rax)
	jmp	.L1493
.L1492:
	movq	%rbx, %rdi
	call	_ZdlPv@PLT
.L1493:
	xorl	%edx, %edx
	movq	%rdx, 8(%rbp)
.L1486:
	popq	%rax
	.cfi_def_cfa_offset 24
	popq	%rbx
	.cfi_def_cfa_offset 16
	popq	%rbp
	.cfi_def_cfa_offset 8
	ret
	.cfi_endproc
.LFE9732:
	.section	.gcc_except_table
.LLSDA9732:
	.byte	0xff
	.byte	0xff
	.byte	0x1
	.uleb128 .LLSDACSE9732-.LLSDACSB9732
.LLSDACSB9732:
.LLSDACSE9732:
	.section	.text.unlikely
	.size	_ZN4asio6detail18completion_handlerINS0_7binder2IZN7asiopal9TCPClient19HandleResolveResultERKSt8functionIFvRKSt10shared_ptrINS3_8ExecutorEENS_19basic_stream_socketINS_2ip3tcpENS_21stream_socket_serviceISD_EEEERKSt10error_codeEERKNSC_23basic_resolver_iteratorISD_EESJ_EUlSJ_SP_E_SH_SP_EEE3ptr5resetEv, .-_ZN4asio6detail18completion_handlerINS0_7binder2IZN7asiopal9TCPClient19HandleResolveResultERKSt8functionIFvRKSt10shared_ptrINS3_8ExecutorEENS_19basic_stream_socketINS_2ip3tcpENS_21stream_socket_serviceISD_EEEERKSt10error_codeEERKNSC_23basic_resolver_iteratorISD_EESJ_EUlSJ_SP_E_SH_SP_EEE3ptr5resetEv
	.align 2
	.type	_ZN4asio6detail18completion_handlerINS0_7binder2IZN7asiopal9TCPClient12BeginConnectERKSt8functionIFvRKSt10shared_ptrINS3_8ExecutorEENS_19basic_stream_socketINS_2ip3tcpENS_21stream_socket_serviceISD_EEEERKSt10error_codeEEEUlSJ_NSC_23basic_resolver_iteratorISD_EEE_SH_SP_EEE3ptr5resetEv, @function
_ZN4asio6detail18completion_handlerINS0_7binder2IZN7asiopal9TCPClient12BeginConnectERKSt8functionIFvRKSt10shared_ptrINS3_8ExecutorEENS_19basic_stream_socketINS_2ip3tcpENS_21stream_socket_serviceISD_EEEERKSt10error_codeEEEUlSJ_NSC_23basic_resolver_iteratorISD_EEE_SH_SP_EEE3ptr5resetEv:
.LFB10073:
	.cfi_startproc
	.cfi_personality 0x9b,DW.ref.__gxx_personality_v0
	.cfi_lsda 0x1b,.LLSDA10073
	pushq	%rbp
	.cfi_def_cfa_offset 16
	.cfi_offset 6, -16
	movq	%rdi, %rbp
	pushq	%rbx
	.cfi_def_cfa_offset 24
	.cfi_offset 3, -24
	pushq	%rsi
	.cfi_def_cfa_offset 32
	movq	16(%rdi), %rbx
	testq	%rbx, %rbx
	je	.L1517
	movq	96(%rbx), %rdi
	testq	%rdi, %rdi
	je	.L1518
	call	_ZNSt16_Sp_counted_baseILN9__gnu_cxx12_Lock_policyE2EE10_M_releaseEv@PLT
.L1518:
	movq	56(%rbx), %rax
	testq	%rax, %rax
	je	.L1519
	leaq	40(%rbx), %rdi
	movl	$3, %edx
	movq	%rdi, %rsi
	call	*%rax
.L1519:
	movq	32(%rbx), %rdi
	testq	%rdi, %rdi
	je	.L1520
	call	_ZNSt16_Sp_counted_baseILN9__gnu_cxx12_Lock_policyE2EE10_M_releaseEv@PLT
.L1520:
	xorl	%ecx, %ecx
	movq	%rcx, 16(%rbp)
.L1517:
	movq	8(%rbp), %rbx
	testq	%rbx, %rbx
	je	.L1516
	data16	leaq	_ZN4asio6detail15keyword_tss_ptrINS0_10call_stackINS0_15task_io_serviceENS0_27task_io_service_thread_infoEE7contextEE6value_E@tlsgd(%rip), %rdi
	.value	0x6666
	rex64
	call	__tls_get_addr@PLT
	movq	(%rax), %rax
	testq	%rax, %rax
	je	.L1522
	movq	8(%rax), %rax
	testq	%rax, %rax
	je	.L1522
	cmpq	$0, (%rax)
	jne	.L1522
	movb	112(%rbx), %dl
	movb	%dl, (%rbx)
	movq	%rbx, (%rax)
	jmp	.L1523
.L1522:
	movq	%rbx, %rdi
	call	_ZdlPv@PLT
.L1523:
	xorl	%edx, %edx
	movq	%rdx, 8(%rbp)
.L1516:
	popq	%rax
	.cfi_def_cfa_offset 24
	popq	%rbx
	.cfi_def_cfa_offset 16
	popq	%rbp
	.cfi_def_cfa_offset 8
	ret
	.cfi_endproc
.LFE10073:
	.section	.gcc_except_table
.LLSDA10073:
	.byte	0xff
	.byte	0xff
	.byte	0x1
	.uleb128 .LLSDACSE10073-.LLSDACSB10073
.LLSDACSB10073:
.LLSDACSE10073:
	.section	.text.unlikely
	.size	_ZN4asio6detail18completion_handlerINS0_7binder2IZN7asiopal9TCPClient12BeginConnectERKSt8functionIFvRKSt10shared_ptrINS3_8ExecutorEENS_19basic_stream_socketINS_2ip3tcpENS_21stream_socket_serviceISD_EEEERKSt10error_codeEEEUlSJ_NSC_23basic_resolver_iteratorISD_EEE_SH_SP_EEE3ptr5resetEv, .-_ZN4asio6detail18completion_handlerINS0_7binder2IZN7asiopal9TCPClient12BeginConnectERKSt8functionIFvRKSt10shared_ptrINS3_8ExecutorEENS_19basic_stream_socketINS_2ip3tcpENS_21stream_socket_serviceISD_EEEERKSt10error_codeEEEUlSJ_NSC_23basic_resolver_iteratorISD_EEE_SH_SP_EEE3ptr5resetEv
	.align 2
	.type	_ZN4asio6detail18completion_handlerINS0_17rewrapped_handlerINS0_7binder2INS0_15wrapped_handlerINS_10io_service6strandEZN7asiopal9TCPClient12BeginConnectERKSt8functionIFvRKSt10shared_ptrINS7_8ExecutorEENS_19basic_stream_socketINS_2ip3tcpENS_21stream_socket_serviceISH_EEEERKSt10error_codeEEEUlSN_NSG_23basic_resolver_iteratorISH_EEE_NS0_26is_continuation_if_runningEEESL_ST_EESU_EEE3ptr5resetEv, @function
_ZN4asio6detail18completion_handlerINS0_17rewrapped_handlerINS0_7binder2INS0_15wrapped_handlerINS_10io_service6strandEZN7asiopal9TCPClient12BeginConnectERKSt8functionIFvRKSt10shared_ptrINS7_8ExecutorEENS_19basic_stream_socketINS_2ip3tcpENS_21stream_socket_serviceISH_EEEERKSt10error_codeEEEUlSN_NSG_23basic_resolver_iteratorISH_EEE_NS0_26is_continuation_if_runningEEESL_ST_EESU_EEE3ptr5resetEv:
.LFB9911:
	.cfi_startproc
	.cfi_personality 0x9b,DW.ref.__gxx_personality_v0
	.cfi_lsda 0x1b,.LLSDA9911
	pushq	%rbp
	.cfi_def_cfa_offset 16
	.cfi_offset 6, -16
	movq	%rdi, %rbp
	pushq	%rbx
	.cfi_def_cfa_offset 24
	.cfi_offset 3, -24
	pushq	%rsi
	.cfi_def_cfa_offset 32
	movq	16(%rdi), %rbx
	testq	%rbx, %rbx
	je	.L1547
	movq	160(%rbx), %rdi
	testq	%rdi, %rdi
	je	.L1548
	call	_ZNSt16_Sp_counted_baseILN9__gnu_cxx12_Lock_policyE2EE10_M_releaseEv@PLT
.L1548:
	movq	120(%rbx), %rax
	testq	%rax, %rax
	je	.L1549
	leaq	104(%rbx), %rdi
	movl	$3, %edx
	movq	%rdi, %rsi
	call	*%rax
.L1549:
	movq	96(%rbx), %rdi
	testq	%rdi, %rdi
	je	.L1550
	call	_ZNSt16_Sp_counted_baseILN9__gnu_cxx12_Lock_policyE2EE10_M_releaseEv@PLT
.L1550:
	movq	56(%rbx), %rax
	testq	%rax, %rax
	je	.L1551
	leaq	40(%rbx), %rdi
	movl	$3, %edx
	movq	%rdi, %rsi
	call	*%rax
.L1551:
	movq	32(%rbx), %rdi
	testq	%rdi, %rdi
	je	.L1552
	call	_ZNSt16_Sp_counted_baseILN9__gnu_cxx12_Lock_policyE2EE10_M_releaseEv@PLT
.L1552:
	xorl	%ecx, %ecx
	movq	%rcx, 16(%rbp)
.L1547:
	movq	8(%rbp), %rbx
	testq	%rbx, %rbx
	je	.L1546
	data16	leaq	_ZN4asio6detail15keyword_tss_ptrINS0_10call_stackINS0_15task_io_serviceENS0_27task_io_service_thread_infoEE7contextEE6value_E@tlsgd(%rip), %rdi
	.value	0x6666
	rex64
	call	__tls_get_addr@PLT
	movq	(%rax), %rax
	testq	%rax, %rax
	je	.L1554
	movq	8(%rax), %rax
	testq	%rax, %rax
	je	.L1554
	cmpq	$0, (%rax)
	jne	.L1554
	movb	176(%rbx), %dl
	movb	%dl, (%rbx)
	movq	%rbx, (%rax)
	jmp	.L1555
.L1554:
	movq	%rbx, %rdi
	call	_ZdlPv@PLT
.L1555:
	xorl	%edx, %edx
	movq	%rdx, 8(%rbp)
.L1546:
	popq	%rax
	.cfi_def_cfa_offset 24
	popq	%rbx
	.cfi_def_cfa_offset 16
	popq	%rbp
	.cfi_def_cfa_offset 8
	ret
	.cfi_endproc
.LFE9911:
	.section	.gcc_except_table
.LLSDA9911:
	.byte	0xff
	.byte	0xff
	.byte	0x1
	.uleb128 .LLSDACSE9911-.LLSDACSB9911
.LLSDACSB9911:
.LLSDACSE9911:
	.section	.text.unlikely
	.size	_ZN4asio6detail18completion_handlerINS0_17rewrapped_handlerINS0_7binder2INS0_15wrapped_handlerINS_10io_service6strandEZN7asiopal9TCPClient12BeginConnectERKSt8functionIFvRKSt10shared_ptrINS7_8ExecutorEENS_19basic_stream_socketINS_2ip3tcpENS_21stream_socket_serviceISH_EEEERKSt10error_codeEEEUlSN_NSG_23basic_resolver_iteratorISH_EEE_NS0_26is_continuation_if_runningEEESL_ST_EESU_EEE3ptr5resetEv, .-_ZN4asio6detail18completion_handlerINS0_17rewrapped_handlerINS0_7binder2INS0_15wrapped_handlerINS_10io_service6strandEZN7asiopal9TCPClient12BeginConnectERKSt8functionIFvRKSt10shared_ptrINS7_8ExecutorEENS_19basic_stream_socketINS_2ip3tcpENS_21stream_socket_serviceISH_EEEERKSt10error_codeEEEUlSN_NSG_23basic_resolver_iteratorISH_EEE_NS0_26is_continuation_if_runningEEESL_ST_EESU_EEE3ptr5resetEv
	.align 2
	.type	_ZN4asio6detail18completion_handlerINS0_7binder1INS0_15wrapped_handlerINS_10io_service6strandEZN7asiopal9TCPClient12BeginConnectERKSt8functionIFvRKSt10shared_ptrINS6_8ExecutorEENS_19basic_stream_socketINS_2ip3tcpENS_21stream_socket_serviceISG_EEEERKSt10error_codeEEEUlSM_E_NS0_26is_continuation_if_runningEEESK_EEE3ptr5resetEv, @function
_ZN4asio6detail18completion_handlerINS0_7binder1INS0_15wrapped_handlerINS_10io_service6strandEZN7asiopal9TCPClient12BeginConnectERKSt8functionIFvRKSt10shared_ptrINS6_8ExecutorEENS_19basic_stream_socketINS_2ip3tcpENS_21stream_socket_serviceISG_EEEERKSt10error_codeEEEUlSM_E_NS0_26is_continuation_if_runningEEESK_EEE3ptr5resetEv:
.LFB9334:
	.cfi_startproc
	.cfi_personality 0x9b,DW.ref.__gxx_personality_v0
	.cfi_lsda 0x1b,.LLSDA9334
	pushq	%rbp
	.cfi_def_cfa_offset 16
	.cfi_offset 6, -16
	movq	%rdi, %rbp
	pushq	%rbx
	.cfi_def_cfa_offset 24
	.cfi_offset 3, -24
	pushq	%rsi
	.cfi_def_cfa_offset 32
	movq	16(%rdi), %rbx
	testq	%rbx, %rbx
	je	.L1585
	movq	72(%rbx), %rax
	testq	%rax, %rax
	je	.L1586
	leaq	56(%rbx), %rdi
	movl	$3, %edx
	movq	%rdi, %rsi
	call	*%rax
.L1586:
	movq	48(%rbx), %rdi
	testq	%rdi, %rdi
	je	.L1587
	call	_ZNSt16_Sp_counted_baseILN9__gnu_cxx12_Lock_policyE2EE10_M_releaseEv@PLT
.L1587:
	xorl	%ecx, %ecx
	movq	%rcx, 16(%rbp)
.L1585:
	movq	8(%rbp), %rbx
	testq	%rbx, %rbx
	je	.L1584
	data16	leaq	_ZN4asio6detail15keyword_tss_ptrINS0_10call_stackINS0_15task_io_serviceENS0_27task_io_service_thread_infoEE7contextEE6value_E@tlsgd(%rip), %rdi
	.value	0x6666
	rex64
	call	__tls_get_addr@PLT
	movq	(%rax), %rax
	testq	%rax, %rax
	je	.L1589
	movq	8(%rax), %rax
	testq	%rax, %rax
	je	.L1589
	cmpq	$0, (%rax)
	jne	.L1589
	movb	104(%rbx), %dl
	movb	%dl, (%rbx)
	movq	%rbx, (%rax)
	jmp	.L1590
.L1589:
	movq	%rbx, %rdi
	call	_ZdlPv@PLT
.L1590:
	xorl	%edx, %edx
	movq	%rdx, 8(%rbp)
.L1584:
	popq	%rax
	.cfi_def_cfa_offset 24
	popq	%rbx
	.cfi_def_cfa_offset 16
	popq	%rbp
	.cfi_def_cfa_offset 8
	ret
	.cfi_endproc
.LFE9334:
	.section	.gcc_except_table
.LLSDA9334:
	.byte	0xff
	.byte	0xff
	.byte	0x1
	.uleb128 .LLSDACSE9334-.LLSDACSB9334
.LLSDACSB9334:
.LLSDACSE9334:
	.section	.text.unlikely
	.size	_ZN4asio6detail18completion_handlerINS0_7binder1INS0_15wrapped_handlerINS_10io_service6strandEZN7asiopal9TCPClient12BeginConnectERKSt8functionIFvRKSt10shared_ptrINS6_8ExecutorEENS_19basic_stream_socketINS_2ip3tcpENS_21stream_socket_serviceISG_EEEERKSt10error_codeEEEUlSM_E_NS0_26is_continuation_if_runningEEESK_EEE3ptr5resetEv, .-_ZN4asio6detail18completion_handlerINS0_7binder1INS0_15wrapped_handlerINS_10io_service6strandEZN7asiopal9TCPClient12BeginConnectERKSt8functionIFvRKSt10shared_ptrINS6_8ExecutorEENS_19basic_stream_socketINS_2ip3tcpENS_21stream_socket_serviceISG_EEEERKSt10error_codeEEEUlSM_E_NS0_26is_continuation_if_runningEEESK_EEE3ptr5resetEv
	.align 2
	.type	_ZN4asio6detail18completion_handlerINS0_7binder1IZN7asiopal9TCPClient12BeginConnectERKSt8functionIFvRKSt10shared_ptrINS3_8ExecutorEENS_19basic_stream_socketINS_2ip3tcpENS_21stream_socket_serviceISD_EEEERKSt10error_codeEEEUlSJ_E_SH_EEE3ptr5resetEv, @function
_ZN4asio6detail18completion_handlerINS0_7binder1IZN7asiopal9TCPClient12BeginConnectERKSt8functionIFvRKSt10shared_ptrINS3_8ExecutorEENS_19basic_stream_socketINS_2ip3tcpENS_21stream_socket_serviceISD_EEEERKSt10error_codeEEEUlSJ_E_SH_EEE3ptr5resetEv:
.LFB10106:
	.cfi_startproc
	.cfi_personality 0x9b,DW.ref.__gxx_personality_v0
	.cfi_lsda 0x1b,.LLSDA10106
	pushq	%rbp
	.cfi_def_cfa_offset 16
	.cfi_offset 6, -16
	movq	%rdi, %rbp
	pushq	%rbx
	.cfi_def_cfa_offset 24
	.cfi_offset 3, -24
	pushq	%rsi
	.cfi_def_cfa_offset 32
	movq	16(%rdi), %rbx
	testq	%rbx, %rbx
	je	.L1611
	movq	56(%rbx), %rax
	testq	%rax, %rax
	je	.L1612
	leaq	40(%rbx), %rdi
	movl	$3, %edx
	movq	%rdi, %rsi
	call	*%rax
.L1612:
	movq	32(%rbx), %rdi
	testq	%rdi, %rdi
	je	.L1613
	call	_ZNSt16_Sp_counted_baseILN9__gnu_cxx12_Lock_policyE2EE10_M_releaseEv@PLT
.L1613:
	xorl	%ecx, %ecx
	movq	%rcx, 16(%rbp)
.L1611:
	movq	8(%rbp), %rbx
	testq	%rbx, %rbx
	je	.L1610
	data16	leaq	_ZN4asio6detail15keyword_tss_ptrINS0_10call_stackINS0_15task_io_serviceENS0_27task_io_service_thread_infoEE7contextEE6value_E@tlsgd(%rip), %rdi
	.value	0x6666
	rex64
	call	__tls_get_addr@PLT
	movq	(%rax), %rax
	testq	%rax, %rax
	je	.L1615
	movq	8(%rax), %rax
	testq	%rax, %rax
	je	.L1615
	cmpq	$0, (%rax)
	jne	.L1615
	movb	88(%rbx), %dl
	movb	%dl, (%rbx)
	movq	%rbx, (%rax)
	jmp	.L1616
.L1615:
	movq	%rbx, %rdi
	call	_ZdlPv@PLT
.L1616:
	xorl	%edx, %edx
	movq	%rdx, 8(%rbp)
.L1610:
	popq	%rax
	.cfi_def_cfa_offset 24
	popq	%rbx
	.cfi_def_cfa_offset 16
	popq	%rbp
	.cfi_def_cfa_offset 8
	ret
	.cfi_endproc
.LFE10106:
	.section	.gcc_except_table
.LLSDA10106:
	.byte	0xff
	.byte	0xff
	.byte	0x1
	.uleb128 .LLSDACSE10106-.LLSDACSB10106
.LLSDACSB10106:
.LLSDACSE10106:
	.section	.text.unlikely
	.size	_ZN4asio6detail18completion_handlerINS0_7binder1IZN7asiopal9TCPClient12BeginConnectERKSt8functionIFvRKSt10shared_ptrINS3_8ExecutorEENS_19basic_stream_socketINS_2ip3tcpENS_21stream_socket_serviceISD_EEEERKSt10error_codeEEEUlSJ_E_SH_EEE3ptr5resetEv, .-_ZN4asio6detail18completion_handlerINS0_7binder1IZN7asiopal9TCPClient12BeginConnectERKSt8functionIFvRKSt10shared_ptrINS3_8ExecutorEENS_19basic_stream_socketINS_2ip3tcpENS_21stream_socket_serviceISD_EEEERKSt10error_codeEEEUlSJ_E_SH_EEE3ptr5resetEv
	.align 2
	.type	_ZN4asio6detail26reactive_socket_connect_opINS0_15wrapped_handlerINS_10io_service6strandEZN7asiopal9TCPClient12BeginConnectERKSt8functionIFvRKSt10shared_ptrINS5_8ExecutorEENS_19basic_stream_socketINS_2ip3tcpENS_21stream_socket_serviceISF_EEEERKSt10error_codeEEEUlSL_E_NS0_26is_continuation_if_runningEEEE3ptr5resetEv, @function
_ZN4asio6detail26reactive_socket_connect_opINS0_15wrapped_handlerINS_10io_service6strandEZN7asiopal9TCPClient12BeginConnectERKSt8functionIFvRKSt10shared_ptrINS5_8ExecutorEENS_19basic_stream_socketINS_2ip3tcpENS_21stream_socket_serviceISF_EEEERKSt10error_codeEEEUlSL_E_NS0_26is_continuation_if_runningEEEE3ptr5resetEv:
.LFB9342:
	.cfi_startproc
	.cfi_personality 0x9b,DW.ref.__gxx_personality_v0
	.cfi_lsda 0x1b,.LLSDA9342
	pushq	%rbp
	.cfi_def_cfa_offset 16
	.cfi_offset 6, -16
	movq	%rdi, %rbp
	pushq	%rbx
	.cfi_def_cfa_offset 24
	.cfi_offset 3, -24
	pushq	%rsi
	.cfi_def_cfa_offset 32
	movq	16(%rdi), %rbx
	testq	%rbx, %rbx
	je	.L1637
	movq	112(%rbx), %rax
	testq	%rax, %rax
	je	.L1638
	leaq	96(%rbx), %rdi
	movl	$3, %edx
	movq	%rdi, %rsi
	call	*%rax
.L1638:
	movq	88(%rbx), %rdi
	testq	%rdi, %rdi
	je	.L1639
	call	_ZNSt16_Sp_counted_baseILN9__gnu_cxx12_Lock_policyE2EE10_M_releaseEv@PLT
.L1639:
	xorl	%ecx, %ecx
	movq	%rcx, 16(%rbp)
.L1637:
	movq	8(%rbp), %rbx
	testq	%rbx, %rbx
	je	.L1636
	data16	leaq	_ZN4asio6detail15keyword_tss_ptrINS0_10call_stackINS0_15task_io_serviceENS0_27task_io_service_thread_infoEE7contextEE6value_E@tlsgd(%rip), %rdi
	.value	0x6666
	rex64
	call	__tls_get_addr@PLT
	movq	(%rax), %rax
	testq	%rax, %rax
	je	.L1641
	movq	8(%rax), %rax
	testq	%rax, %rax
	je	.L1641
	cmpq	$0, (%rax)
	jne	.L1641
	movb	128(%rbx), %dl
	movb	%dl, (%rbx)
	movq	%rbx, (%rax)
	jmp	.L1642
.L1641:
	movq	%rbx, %rdi
	call	_ZdlPv@PLT
.L1642:
	xorl	%edx, %edx
	movq	%rdx, 8(%rbp)
.L1636:
	popq	%rax
	.cfi_def_cfa_offset 24
	popq	%rbx
	.cfi_def_cfa_offset 16
	popq	%rbp
	.cfi_def_cfa_offset 8
	ret
	.cfi_endproc
.LFE9342:
	.section	.gcc_except_table
.LLSDA9342:
	.byte	0xff
	.byte	0xff
	.byte	0x1
	.uleb128 .LLSDACSE9342-.LLSDACSB9342
.LLSDACSB9342:
.LLSDACSE9342:
	.section	.text.unlikely
	.size	_ZN4asio6detail26reactive_socket_connect_opINS0_15wrapped_handlerINS_10io_service6strandEZN7asiopal9TCPClient12BeginConnectERKSt8functionIFvRKSt10shared_ptrINS5_8ExecutorEENS_19basic_stream_socketINS_2ip3tcpENS_21stream_socket_serviceISF_EEEERKSt10error_codeEEEUlSL_E_NS0_26is_continuation_if_runningEEEE3ptr5resetEv, .-_ZN4asio6detail26reactive_socket_connect_opINS0_15wrapped_handlerINS_10io_service6strandEZN7asiopal9TCPClient12BeginConnectERKSt8functionIFvRKSt10shared_ptrINS5_8ExecutorEENS_19basic_stream_socketINS_2ip3tcpENS_21stream_socket_serviceISF_EEEERKSt10error_codeEEEUlSL_E_NS0_26is_continuation_if_runningEEEE3ptr5resetEv
.LCOLDB35:
	.text
.LHOTB35:
	.p2align 4
	.type	_ZN4asio6detail18completion_handlerINS0_7binder2IZN7asiopal9TCPClient19HandleResolveResultERKSt8functionIFvRKSt10shared_ptrINS3_8ExecutorEENS_19basic_stream_socketINS_2ip3tcpENS_21stream_socket_serviceISD_EEEERKSt10error_codeEERKNSC_23basic_resolver_iteratorISD_EESJ_EUlSJ_SP_E_SH_SP_EEE11do_completeEPNS0_15task_io_serviceEPNS0_25task_io_service_operationESJ_m, @function
_ZN4asio6detail18completion_handlerINS0_7binder2IZN7asiopal9TCPClient19HandleResolveResultERKSt8functionIFvRKSt10shared_ptrINS3_8ExecutorEENS_19basic_stream_socketINS_2ip3tcpENS_21stream_socket_serviceISD_EEEERKSt10error_codeEERKNSC_23basic_resolver_iteratorISD_EESJ_EUlSJ_SP_E_SH_SP_EEE11do_completeEPNS0_15task_io_serviceEPNS0_25task_io_service_operationESJ_m:
.LFB9607:
	.cfi_startproc
	.cfi_personality 0x9b,DW.ref.__gxx_personality_v0
	.cfi_lsda 0x1b,.LLSDA9607
	pushq	%r13
	.cfi_def_cfa_offset 16
	.cfi_offset 13, -16
	movq	%rdi, %r13
	pushq	%r12
	.cfi_def_cfa_offset 24
	.cfi_offset 12, -24
	pushq	%rbp
	.cfi_def_cfa_offset 32
	.cfi_offset 6, -32
	leaq	24(%rsi), %rbp
	pushq	%rbx
	.cfi_def_cfa_offset 40
	.cfi_offset 3, -40
	movq	%rsi, %rbx
	subq	$168, %rsp
	.cfi_def_cfa_offset 208
	movdqu	24(%rsi), %xmm0
	movq	56(%rsi), %rax
	movq	%rbp, (%rsp)
	movaps	%xmm0, 64(%rsp)
	pxor	%xmm0, %xmm0
	movups	%xmm0, 24(%rsi)
	pxor	%xmm0, %xmm0
	movq	$0, 96(%rsp)
	movq	$0, 104(%rsp)
	movaps	%xmm0, 80(%rsp)
	testq	%rax, %rax
	je	.L1663
	leaq	40(%rsi), %rsi
	movl	$2, %edx
	leaq	80(%rsp), %rdi
.LEHB45:
	call	*%rax
.LEHE45:
	movdqu	56(%rbx), %xmm0
	movaps	%xmm0, 96(%rsp)
.L1663:
	movdqu	72(%rbx), %xmm0
	movq	104(%rbx), %rax
	movq	%rbp, %rdi
	leaq	64(%rsp), %r12
	movq	%r12, (%rsp)
	movaps	%xmm0, 112(%rsp)
	movdqu	88(%rbx), %xmm0
	movq	%rax, 144(%rsp)
	movaps	%xmm0, 128(%rsp)
	call	_ZZN7asiopal9TCPClient19HandleResolveResultERKSt8functionIFvRKSt10shared_ptrINS_8ExecutorEEN4asio19basic_stream_socketINS7_2ip3tcpENS7_21stream_socket_serviceISA_EEEERKSt10error_codeEERKNS9_23basic_resolver_iteratorISA_EESG_ENUlSG_SM_E_D1Ev
	data16	leaq	_ZN4asio6detail15keyword_tss_ptrINS0_10call_stackINS0_15task_io_serviceENS0_27task_io_service_thread_infoEE7contextEE6value_E@tlsgd(%rip), %rdi
	.value	0x6666
	rex64
	call	__tls_get_addr@PLT
	movq	(%rax), %rax
	testq	%rax, %rax
	je	.L1665
	movq	8(%rax), %rax
	testq	%rax, %rax
	je	.L1665
	cmpq	$0, (%rax)
	je	.L1715
.L1665:
	movq	%rbx, %rdi
	call	_ZdlPv@PLT
.L1670:
	testq	%r13, %r13
	je	.L1671
	movq	136(%rsp), %rbx
	testq	%rbx, %rbx
	je	.L1672
	movq	__libc_single_threaded@GOTPCREL(%rip), %rax
	cmpb	$0, (%rax)
	je	.L1673
	movq	64(%rsp), %rsi
	addl	$1, 8(%rbx)
	movb	$0, 16(%rsi)
	cmpb	$0, 17(%rsi)
	jne	.L1674
.L1675:
	movq	160(%rsi), %rax
	addq	$56, %rsi
	movq	%rax, 56(%rsp)
	movl	80(%rsi), %eax
	movl	$-1, 80(%rsi)
	movl	%eax, 32(%rsp)
	movzbl	84(%rsi), %eax
	movb	$0, 84(%rsi)
	movb	%al, 36(%rsp)
	movq	88(%rsi), %rax
	movq	$0, 88(%rsi)
	movq	%rax, 40(%rsp)
	movl	96(%rsi), %eax
	movl	$2, 96(%rsi)
	movl	%eax, 48(%rsp)
	cmpq	$0, 96(%rsp)
	je	.L1713
	leaq	32(%rsp), %rbp
	leaq	112(%rsp), %rcx
	leaq	80(%rsp), %rdi
	movq	%rbp, %rdx
.LEHB46:
	call	*104(%rsp)
.LEHE46:
	movq	56(%rsp), %rax
	movq	%rbp, %rsi
	leaq	40(%rax), %rdi
	call	_ZN4asio6detail28reactive_socket_service_base7destroyERNS1_24base_implementation_typeE@PLT
	testq	%rbx, %rbx
	je	.L1676
.L1674:
	movq	%rbx, %rdi
	call	_ZNSt16_Sp_counted_baseILN9__gnu_cxx12_Lock_policyE2EE10_M_releaseEv@PLT
.L1676:
	sfence
.L1671:
	movq	136(%rsp), %rdi
	testq	%rdi, %rdi
	je	.L1682
	call	_ZNSt16_Sp_counted_baseILN9__gnu_cxx12_Lock_policyE2EE10_M_releaseEv@PLT
.L1682:
	movq	96(%rsp), %rax
	testq	%rax, %rax
	je	.L1683
	leaq	80(%rsp), %rdi
	movl	$3, %edx
	movq	%rdi, %rsi
	call	*%rax
.L1683:
	movq	72(%rsp), %rdi
	testq	%rdi, %rdi
	je	.L1662
	call	_ZNSt16_Sp_counted_baseILN9__gnu_cxx12_Lock_policyE2EE10_M_releaseEv@PLT
.L1662:
	addq	$168, %rsp
	.cfi_remember_state
	.cfi_def_cfa_offset 40
	popq	%rbx
	.cfi_def_cfa_offset 32
	popq	%rbp
	.cfi_def_cfa_offset 24
	popq	%r12
	.cfi_def_cfa_offset 16
	popq	%r13
	.cfi_def_cfa_offset 8
	ret
	.p2align 4,,10
	.p2align 3
.L1672:
	.cfi_restore_state
	movq	64(%rsp), %rsi
	movb	$0, 16(%rsi)
	cmpb	$0, 17(%rsi)
	jne	.L1676
	jmp	.L1675
	.p2align 4,,10
	.p2align 3
.L1715:
	movzbl	112(%rbx), %edx
	movb	%dl, (%rbx)
	movq	%rbx, (%rax)
	jmp	.L1670
	.p2align 4,,10
	.p2align 3
.L1673:
	lock addl	$1, 8(%rbx)
	movq	64(%rsp), %rsi
	movb	$0, 16(%rsi)
	cmpb	$0, 17(%rsi)
	jne	.L1674
	jmp	.L1675
.L1685:
	movq	%rax, %rbp
	jmp	.L1666
.L1711:
	jmp	.L1712
	.section	.gcc_except_table
.LLSDA9607:
	.byte	0xff
	.byte	0xff
	.byte	0x1
	.uleb128 .LLSDACSE9607-.LLSDACSB9607
.LLSDACSB9607:
	.uleb128 .LEHB45-.LFB9607
	.uleb128 .LEHE45-.LEHB45
	.uleb128 .L1685-.LFB9607
	.uleb128 0
	.uleb128 .LEHB46-.LFB9607
	.uleb128 .LEHE46-.LEHB46
	.uleb128 .L1711-.LFB9607
	.uleb128 0
.LLSDACSE9607:
	.text
	.cfi_endproc
	.section	.text.unlikely
	.cfi_startproc
	.cfi_personality 0x9b,DW.ref.__gxx_personality_v0
	.cfi_lsda 0x1b,.LLSDAC9607
	.type	_ZN4asio6detail18completion_handlerINS0_7binder2IZN7asiopal9TCPClient19HandleResolveResultERKSt8functionIFvRKSt10shared_ptrINS3_8ExecutorEENS_19basic_stream_socketINS_2ip3tcpENS_21stream_socket_serviceISD_EEEERKSt10error_codeEERKNSC_23basic_resolver_iteratorISD_EESJ_EUlSJ_SP_E_SH_SP_EEE11do_completeEPNS0_15task_io_serviceEPNS0_25task_io_service_operationESJ_m.cold, @function
_ZN4asio6detail18completion_handlerINS0_7binder2IZN7asiopal9TCPClient19HandleResolveResultERKSt8functionIFvRKSt10shared_ptrINS3_8ExecutorEENS_19basic_stream_socketINS_2ip3tcpENS_21stream_socket_serviceISD_EEEERKSt10error_codeEERKNSC_23basic_resolver_iteratorISD_EESJ_EUlSJ_SP_E_SH_SP_EEE11do_completeEPNS0_15task_io_serviceEPNS0_25task_io_service_operationESJ_m.cold:
.LFSB9607:
.L1713:
	.cfi_def_cfa_offset 208
	.cfi_offset 3, -40
	.cfi_offset 6, -32
	.cfi_offset 12, -24
	.cfi_offset 13, -16
	leaq	32(%rsp), %rbp
.LEHB47:
	call	_ZSt25__throw_bad_function_callv@PLT
.LEHE47:
.L1666:
	movq	96(%rsp), %rax
	testq	%rax, %rax
	je	.L1667
	movl	$3, %edx
	leaq	80(%rsp), %rsi
	leaq	80(%rsp), %rdi
	call	*%rax
.L1667:
	movq	72(%rsp), %rdi
	testq	%rdi, %rdi
	je	.L1669
	call	_ZNSt16_Sp_counted_baseILN9__gnu_cxx12_Lock_policyE2EE10_M_releaseEv@PLT
.L1669:
	movq	%rbx, %xmm0
	movq	%rsp, %rdi
	punpcklqdq	%xmm0, %xmm0
	movups	%xmm0, 8(%rsp)
	call	_ZN4asio6detail18completion_handlerINS0_7binder2IZN7asiopal9TCPClient19HandleResolveResultERKSt8functionIFvRKSt10shared_ptrINS3_8ExecutorEENS_19basic_stream_socketINS_2ip3tcpENS_21stream_socket_serviceISD_EEEERKSt10error_codeEERKNSC_23basic_resolver_iteratorISD_EESJ_EUlSJ_SP_E_SH_SP_EEE3ptr5resetEv
	movq	%rbp, %rdi
.LEHB48:
	call	_Unwind_Resume@PLT
.LEHE48:
.L1686:
.L1712:
	movq	%rax, %r13
	movq	56(%rsp), %rax
	movq	%rbp, %rsi
	leaq	40(%rax), %rdi
	call	_ZN4asio6detail28reactive_socket_service_base7destroyERNS1_24base_implementation_typeE@PLT
	testq	%rbx, %rbx
	je	.L1681
	movq	%rbx, %rdi
	call	_ZNSt16_Sp_counted_baseILN9__gnu_cxx12_Lock_policyE2EE10_M_releaseEv@PLT
.L1681:
	sfence
	movq	%r12, %rdi
	movq	%r13, %rbp
	xorl	%ebx, %ebx
	call	_ZN4asio6detail7binder2IZN7asiopal9TCPClient19HandleResolveResultERKSt8functionIFvRKSt10shared_ptrINS2_8ExecutorEENS_19basic_stream_socketINS_2ip3tcpENS_21stream_socket_serviceISC_EEEERKSt10error_codeEERKNSB_23basic_resolver_iteratorISC_EESI_EUlSI_SO_E_SG_SO_ED1Ev
	jmp	.L1669
	.cfi_endproc
.LFE9607:
	.section	.gcc_except_table
.LLSDAC9607:
	.byte	0xff
	.byte	0xff
	.byte	0x1
	.uleb128 .LLSDACSEC9607-.LLSDACSBC9607
.LLSDACSBC9607:
	.uleb128 .LEHB47-.LCOLDB35
	.uleb128 .LEHE47-.LEHB47
	.uleb128 .L1686-.LCOLDB35
	.uleb128 0
	.uleb128 .LEHB48-.LCOLDB35
	.uleb128 .LEHE48-.LEHB48
	.uleb128 0
	.uleb128 0
.LLSDACSEC9607:
	.section	.text.unlikely
	.text
	.size	_ZN4asio6detail18completion_handlerINS0_7binder2IZN7asiopal9TCPClient19HandleResolveResultERKSt8functionIFvRKSt10shared_ptrINS3_8ExecutorEENS_19basic_stream_socketINS_2ip3tcpENS_21stream_socket_serviceISD_EEEERKSt10error_codeEERKNSC_23basic_resolver_iteratorISD_EESJ_EUlSJ_SP_E_SH_SP_EEE11do_completeEPNS0_15task_io_serviceEPNS0_25task_io_service_operationESJ_m, .-_ZN4asio6detail18completion_handlerINS0_7binder2IZN7asiopal9TCPClient19HandleResolveResultERKSt8functionIFvRKSt10shared_ptrINS3_8ExecutorEENS_19basic_stream_socketINS_2ip3tcpENS_21stream_socket_serviceISD_EEEERKSt10error_codeEERKNSC_23basic_resolver_iteratorISD_EESJ_EUlSJ_SP_E_SH_SP_EEE11do_completeEPNS0_15task_io_serviceEPNS0_25task_io_service_operationESJ_m
	.section	.text.unlikely
	.size	_ZN4asio6detail18completion_handlerINS0_7binder2IZN7asiopal9TCPClient19HandleResolveResultERKSt8functionIFvRKSt10shared_ptrINS3_8ExecutorEENS_19basic_stream_socketINS_2ip3tcpENS_21stream_socket_serviceISD_EEEERKSt10error_codeEERKNSC_23basic_resolver_iteratorISD_EESJ_EUlSJ_SP_E_SH_SP_EEE11do_completeEPNS0_15task_io_serviceEPNS0_25task_io_service_operationESJ_m.cold, .-_ZN4asio6detail18completion_handlerINS0_7binder2IZN7asiopal9TCPClient19HandleResolveResultERKSt8functionIFvRKSt10shared_ptrINS3_8ExecutorEENS_19basic_stream_socketINS_2ip3tcpENS_21stream_socket_serviceISD_EEEERKSt10error_codeEERKNSC_23basic_resolver_iteratorISD_EESJ_EUlSJ_SP_E_SH_SP_EEE11do_completeEPNS0_15task_io_serviceEPNS0_25task_io_service_operationESJ_m.cold
.LCOLDE35:
	.text
.LHOTE35:
	.section	.text.unlikely
	.align 2
	.type	_ZN4asio6detail10resolve_opINS_2ip3tcpENS0_15wrapped_handlerINS_10io_service6strandEZN7asiopal9TCPClient12BeginConnectERKSt8functionIFvRKSt10shared_ptrINS7_8ExecutorEENS_19basic_stream_socketIS3_NS_21stream_socket_serviceIS3_EEEERKSt10error_codeEEEUlSL_NS2_23basic_resolver_iteratorIS3_EEE_NS0_26is_continuation_if_runningEEEE3ptr5resetEv, @function
_ZN4asio6detail10resolve_opINS_2ip3tcpENS0_15wrapped_handlerINS_10io_service6strandEZN7asiopal9TCPClient12BeginConnectERKSt8functionIFvRKSt10shared_ptrINS7_8ExecutorEENS_19basic_stream_socketIS3_NS_21stream_socket_serviceIS3_EEEERKSt10error_codeEEEUlSL_NS2_23basic_resolver_iteratorIS3_EEE_NS0_26is_continuation_if_runningEEEE3ptr5resetEv:
.LFB9319:
	.cfi_startproc
	.cfi_personality 0x9b,DW.ref.__gxx_personality_v0
	.cfi_lsda 0x1b,.LLSDA9319
	pushq	%rbp
	.cfi_def_cfa_offset 16
	.cfi_offset 6, -16
	movq	%rdi, %rbp
	pushq	%rbx
	.cfi_def_cfa_offset 24
	.cfi_offset 3, -24
	pushq	%rsi
	.cfi_def_cfa_offset 32
	movq	16(%rdi), %rbx
	testq	%rbx, %rbx
	je	.L1717
	movq	240(%rbx), %rdi
	testq	%rdi, %rdi
	je	.L1718
	call	freeaddrinfo@PLT
.L1718:
	movq	208(%rbx), %rax
	testq	%rax, %rax
	je	.L1719
	leaq	192(%rbx), %rdi
	movl	$3, %edx
	movq	%rdi, %rsi
	call	*%rax
.L1719:
	movq	184(%rbx), %rdi
	testq	%rdi, %rdi
	je	.L1720
	call	_ZNSt16_Sp_counted_baseILN9__gnu_cxx12_Lock_policyE2EE10_M_releaseEv@PLT
.L1720:
	movq	120(%rbx), %rdi
	leaq	136(%rbx), %rax
	cmpq	%rax, %rdi
	je	.L1721
	movq	136(%rbx), %rax
	leaq	1(%rax), %rsi
	call	_ZdlPvm@PLT
.L1721:
	movq	88(%rbx), %rdi
	leaq	104(%rbx), %rax
	cmpq	%rax, %rdi
	je	.L1722
	movq	104(%rbx), %rax
	leaq	1(%rax), %rsi
	call	_ZdlPvm@PLT
.L1722:
	movq	32(%rbx), %rdi
	testq	%rdi, %rdi
	je	.L1724
	movq	__libc_single_threaded@GOTPCREL(%rip), %rax
	cmpb	$0, (%rax)
	je	.L1725
	movl	12(%rdi), %eax
	leal	-1(%rax), %edx
	movl	%edx, 12(%rdi)
	jmp	.L1726
.L1725:
	movl	$-1, %eax
	lock xaddl	%eax, 12(%rdi)
.L1726:
	decl	%eax
	jne	.L1724
	movq	(%rdi), %rax
	call	*24(%rax)
.L1724:
	xorl	%ecx, %ecx
	movq	%rcx, 16(%rbp)
.L1717:
	movq	8(%rbp), %rbx
	testq	%rbx, %rbx
	je	.L1716
	data16	leaq	_ZN4asio6detail15keyword_tss_ptrINS0_10call_stackINS0_15task_io_serviceENS0_27task_io_service_thread_infoEE7contextEE6value_E@tlsgd(%rip), %rdi
	.value	0x6666
	rex64
	call	__tls_get_addr@PLT
	movq	(%rax), %rax
	testq	%rax, %rax
	je	.L1729
	movq	8(%rax), %rax
	testq	%rax, %rax
	je	.L1729
	cmpq	$0, (%rax)
	jne	.L1729
	movb	248(%rbx), %dl
	movb	%dl, (%rbx)
	movq	%rbx, (%rax)
	jmp	.L1730
.L1729:
	movq	%rbx, %rdi
	call	_ZdlPv@PLT
.L1730:
	xorl	%edx, %edx
	movq	%rdx, 8(%rbp)
.L1716:
	popq	%rax
	.cfi_def_cfa_offset 24
	popq	%rbx
	.cfi_def_cfa_offset 16
	popq	%rbp
	.cfi_def_cfa_offset 8
	ret
	.cfi_endproc
.LFE9319:
	.section	.gcc_except_table
.LLSDA9319:
	.byte	0xff
	.byte	0xff
	.byte	0x1
	.uleb128 .LLSDACSE9319-.LLSDACSB9319
.LLSDACSB9319:
.LLSDACSE9319:
	.section	.text.unlikely
	.size	_ZN4asio6detail10resolve_opINS_2ip3tcpENS0_15wrapped_handlerINS_10io_service6strandEZN7asiopal9TCPClient12BeginConnectERKSt8functionIFvRKSt10shared_ptrINS7_8ExecutorEENS_19basic_stream_socketIS3_NS_21stream_socket_serviceIS3_EEEERKSt10error_codeEEEUlSL_NS2_23basic_resolver_iteratorIS3_EEE_NS0_26is_continuation_if_runningEEEE3ptr5resetEv, .-_ZN4asio6detail10resolve_opINS_2ip3tcpENS0_15wrapped_handlerINS_10io_service6strandEZN7asiopal9TCPClient12BeginConnectERKSt8functionIFvRKSt10shared_ptrINS7_8ExecutorEENS_19basic_stream_socketIS3_NS_21stream_socket_serviceIS3_EEEERKSt10error_codeEEEUlSL_NS2_23basic_resolver_iteratorIS3_EEE_NS0_26is_continuation_if_runningEEEE3ptr5resetEv
	.align 2
	.type	_ZN4asio6detail18completion_handlerINS0_17rewrapped_handlerINS0_7binder1INS0_15wrapped_handlerINS_10io_service6strandEZN7asiopal9TCPClient12BeginConnectERKSt8functionIFvRKSt10shared_ptrINS7_8ExecutorEENS_19basic_stream_socketINS_2ip3tcpENS_21stream_socket_serviceISH_EEEERKSt10error_codeEEEUlSN_E_NS0_26is_continuation_if_runningEEESL_EESS_EEE3ptr5resetEv, @function
_ZN4asio6detail18completion_handlerINS0_17rewrapped_handlerINS0_7binder1INS0_15wrapped_handlerINS_10io_service6strandEZN7asiopal9TCPClient12BeginConnectERKSt8functionIFvRKSt10shared_ptrINS7_8ExecutorEENS_19basic_stream_socketINS_2ip3tcpENS_21stream_socket_serviceISH_EEEERKSt10error_codeEEEUlSN_E_NS0_26is_continuation_if_runningEEESL_EESS_EEE3ptr5resetEv:
.LFB9960:
	.cfi_startproc
	.cfi_personality 0x9b,DW.ref.__gxx_personality_v0
	.cfi_lsda 0x1b,.LLSDA9960
	pushq	%rbp
	.cfi_def_cfa_offset 16
	.cfi_offset 6, -16
	movq	%rdi, %rbp
	pushq	%rbx
	.cfi_def_cfa_offset 24
	.cfi_offset 3, -24
	pushq	%rsi
	.cfi_def_cfa_offset 32
	movq	16(%rdi), %rbx
	testq	%rbx, %rbx
	je	.L1754
	movq	120(%rbx), %rax
	testq	%rax, %rax
	je	.L1755
	leaq	104(%rbx), %rdi
	movl	$3, %edx
	movq	%rdi, %rsi
	call	*%rax
.L1755:
	movq	96(%rbx), %rdi
	testq	%rdi, %rdi
	je	.L1756
	call	_ZNSt16_Sp_counted_baseILN9__gnu_cxx12_Lock_policyE2EE10_M_releaseEv@PLT
.L1756:
	movq	56(%rbx), %rax
	testq	%rax, %rax
	je	.L1757
	leaq	40(%rbx), %rdi
	movl	$3, %edx
	movq	%rdi, %rsi
	call	*%rax
.L1757:
	movq	32(%rbx), %rdi
	testq	%rdi, %rdi
	je	.L1758
	call	_ZNSt16_Sp_counted_baseILN9__gnu_cxx12_Lock_policyE2EE10_M_releaseEv@PLT
.L1758:
	xorl	%ecx, %ecx
	movq	%rcx, 16(%rbp)
.L1754:
	movq	8(%rbp), %rbx
	testq	%rbx, %rbx
	je	.L1753
	data16	leaq	_ZN4asio6detail15keyword_tss_ptrINS0_10call_stackINS0_15task_io_serviceENS0_27task_io_service_thread_infoEE7contextEE6value_E@tlsgd(%rip), %rdi
	.value	0x6666
	rex64
	call	__tls_get_addr@PLT
	movq	(%rax), %rax
	testq	%rax, %rax
	je	.L1760
	movq	8(%rax), %rax
	testq	%rax, %rax
	je	.L1760
	cmpq	$0, (%rax)
	jne	.L1760
	movb	152(%rbx), %dl
	movb	%dl, (%rbx)
	movq	%rbx, (%rax)
	jmp	.L1761
.L1760:
	movq	%rbx, %rdi
	call	_ZdlPv@PLT
.L1761:
	xorl	%edx, %edx
	movq	%rdx, 8(%rbp)
.L1753:
	popq	%rax
	.cfi_def_cfa_offset 24
	popq	%rbx
	.cfi_def_cfa_offset 16
	popq	%rbp
	.cfi_def_cfa_offset 8
	ret
	.cfi_endproc
.LFE9960:
	.section	.gcc_except_table
.LLSDA9960:
	.byte	0xff
	.byte	0xff
	.byte	0x1
	.uleb128 .LLSDACSE9960-.LLSDACSB9960
.LLSDACSB9960:
.LLSDACSE9960:
	.section	.text.unlikely
	.size	_ZN4asio6detail18completion_handlerINS0_17rewrapped_handlerINS0_7binder1INS0_15wrapped_handlerINS_10io_service6strandEZN7asiopal9TCPClient12BeginConnectERKSt8functionIFvRKSt10shared_ptrINS7_8ExecutorEENS_19basic_stream_socketINS_2ip3tcpENS_21stream_socket_serviceISH_EEEERKSt10error_codeEEEUlSN_E_NS0_26is_continuation_if_runningEEESL_EESS_EEE3ptr5resetEv, .-_ZN4asio6detail18completion_handlerINS0_17rewrapped_handlerINS0_7binder1INS0_15wrapped_handlerINS_10io_service6strandEZN7asiopal9TCPClient12BeginConnectERKSt8functionIFvRKSt10shared_ptrINS7_8ExecutorEENS_19basic_stream_socketINS_2ip3tcpENS_21stream_socket_serviceISH_EEEERKSt10error_codeEEEUlSN_E_NS0_26is_continuation_if_runningEEESL_EESS_EEE3ptr5resetEv
.LCOLDB36:
	.text
.LHOTB36:
	.p2align 4
	.type	_ZN4asio6detail18completion_handlerINS0_7binder1IZN7asiopal9TCPClient12BeginConnectERKSt8functionIFvRKSt10shared_ptrINS3_8ExecutorEENS_19basic_stream_socketINS_2ip3tcpENS_21stream_socket_serviceISD_EEEERKSt10error_codeEEEUlSJ_E_SH_EEE11do_completeEPNS0_15task_io_serviceEPNS0_25task_io_service_operationESJ_m, @function
_ZN4asio6detail18completion_handlerINS0_7binder1IZN7asiopal9TCPClient12BeginConnectERKSt8functionIFvRKSt10shared_ptrINS3_8ExecutorEENS_19basic_stream_socketINS_2ip3tcpENS_21stream_socket_serviceISD_EEEERKSt10error_codeEEEUlSJ_E_SH_EEE11do_completeEPNS0_15task_io_serviceEPNS0_25task_io_service_operationESJ_m:
.LFB10100:
	.cfi_startproc
	.cfi_personality 0x9b,DW.ref.__gxx_personality_v0
	.cfi_lsda 0x1b,.LLSDA10100
	pushq	%r13
	.cfi_def_cfa_offset 16
	.cfi_offset 13, -16
	pushq	%r12
	.cfi_def_cfa_offset 24
	.cfi_offset 12, -24
	movq	%rdi, %r12
	pushq	%rbp
	.cfi_def_cfa_offset 32
	.cfi_offset 6, -32
	leaq	24(%rsi), %rbp
	pushq	%rbx
	.cfi_def_cfa_offset 40
	.cfi_offset 3, -40
	movq	%rsi, %rbx
	subq	$152, %rsp
	.cfi_def_cfa_offset 192
	movdqu	24(%rsi), %xmm0
	movq	56(%rsi), %rax
	movq	%rbp, 16(%rsp)
	movaps	%xmm0, 80(%rsp)
	pxor	%xmm0, %xmm0
	movups	%xmm0, 24(%rsi)
	pxor	%xmm0, %xmm0
	movq	$0, 112(%rsp)
	movq	$0, 120(%rsp)
	movaps	%xmm0, 96(%rsp)
	testq	%rax, %rax
	je	.L1833
	leaq	40(%rsi), %rsi
	movl	$2, %edx
	leaq	96(%rsp), %rdi
.LEHB49:
	call	*%rax
.LEHE49:
	movdqu	56(%rbx), %xmm0
	movaps	%xmm0, 112(%rsp)
.L1833:
	movdqu	72(%rbx), %xmm0
	movq	%rbp, %rdi
	leaq	80(%rsp), %r13
	movq	%r13, 16(%rsp)
	movaps	%xmm0, 128(%rsp)
	call	_ZZN7asiopal9TCPClient12BeginConnectERKSt8functionIFvRKSt10shared_ptrINS_8ExecutorEEN4asio19basic_stream_socketINS7_2ip3tcpENS7_21stream_socket_serviceISA_EEEERKSt10error_codeEEENUlSG_E_D1Ev
	data16	leaq	_ZN4asio6detail15keyword_tss_ptrINS0_10call_stackINS0_15task_io_serviceENS0_27task_io_service_thread_infoEE7contextEE6value_E@tlsgd(%rip), %rdi
	.value	0x6666
	rex64
	call	__tls_get_addr@PLT
	movq	(%rax), %rax
	testq	%rax, %rax
	je	.L1794
	movq	8(%rax), %rax
	testq	%rax, %rax
	je	.L1794
	cmpq	$0, (%rax)
	je	.L1834
.L1794:
	movq	%rbx, %rdi
	call	_ZdlPv@PLT
.L1795:
	testq	%r12, %r12
	je	.L1796
	movq	80(%rsp), %rsi
	movb	$0, 16(%rsi)
	cmpb	$0, 17(%rsi)
	je	.L1835
.L1797:
	sfence
.L1796:
	movq	112(%rsp), %rax
	testq	%rax, %rax
	je	.L1801
	leaq	96(%rsp), %rdi
	movl	$3, %edx
	movq	%rdi, %rsi
	call	*%rax
.L1801:
	movq	88(%rsp), %rdi
	testq	%rdi, %rdi
	je	.L1787
	call	_ZNSt16_Sp_counted_baseILN9__gnu_cxx12_Lock_policyE2EE10_M_releaseEv@PLT
.L1787:
	addq	$152, %rsp
	.cfi_remember_state
	.cfi_def_cfa_offset 40
	popq	%rbx
	.cfi_def_cfa_offset 32
	popq	%rbp
	.cfi_def_cfa_offset 24
	popq	%r12
	.cfi_def_cfa_offset 16
	popq	%r13
	.cfi_def_cfa_offset 8
	ret
	.p2align 4,,10
	.p2align 3
.L1835:
	.cfi_restore_state
	movq	160(%rsi), %rax
	addq	$56, %rsi
	movq	%rax, 72(%rsp)
	movl	80(%rsi), %eax
	movl	$-1, 80(%rsi)
	movl	%eax, 48(%rsp)
	movzbl	84(%rsi), %eax
	movb	$0, 84(%rsi)
	movb	%al, 52(%rsp)
	movq	88(%rsi), %rax
	movq	$0, 88(%rsi)
	movq	%rax, 56(%rsp)
	movl	96(%rsi), %eax
	movl	$2, 96(%rsi)
	movl	%eax, 64(%rsp)
	cmpq	$0, 112(%rsp)
	je	.L1831
	leaq	48(%rsp), %rbx
	leaq	128(%rsp), %rcx
	leaq	96(%rsp), %rdi
	movq	%rbx, %rdx
.LEHB50:
	call	*120(%rsp)
.LEHE50:
	movl	48(%rsp), %esi
	cmpl	$-1, %esi
	je	.L1797
	movzbl	52(%rsp), %ecx
	movq	72(%rsp), %rax
	leaq	56(%rsp), %rdx
	shrb	$6, %cl
	movq	40(%rax), %rdi
	andl	$1, %ecx
	xorl	$1, %ecx
	call	_ZN4asio6detail13epoll_reactor21deregister_descriptorEiRPNS1_16descriptor_stateEb@PLT
	movl	$0, (%rsp)
	call	_ZNSt3_V215system_categoryEv@PLT
	movl	48(%rsp), %edi
	movq	%rsp, %rcx
	leaq	52(%rsp), %rsi
	movl	$1, %edx
	movq	%rax, 8(%rsp)
	call	_ZN4asio6detail10socket_ops5closeEiRhbRSt10error_code.isra.0
	jmp	.L1797
	.p2align 4,,10
	.p2align 3
.L1834:
	movzbl	88(%rbx), %edx
	movb	%dl, (%rbx)
	movq	%rbx, (%rax)
	jmp	.L1795
.L1803:
	movq	%rax, %rbp
	jmp	.L1790
.L1829:
	jmp	.L1830
	.section	.gcc_except_table
.LLSDA10100:
	.byte	0xff
	.byte	0xff
	.byte	0x1
	.uleb128 .LLSDACSE10100-.LLSDACSB10100
.LLSDACSB10100:
	.uleb128 .LEHB49-.LFB10100
	.uleb128 .LEHE49-.LEHB49
	.uleb128 .L1803-.LFB10100
	.uleb128 0
	.uleb128 .LEHB50-.LFB10100
	.uleb128 .LEHE50-.LEHB50
	.uleb128 .L1829-.LFB10100
	.uleb128 0
.LLSDACSE10100:
	.text
	.cfi_endproc
	.section	.text.unlikely
	.cfi_startproc
	.cfi_personality 0x9b,DW.ref.__gxx_personality_v0
	.cfi_lsda 0x1b,.LLSDAC10100
	.type	_ZN4asio6detail18completion_handlerINS0_7binder1IZN7asiopal9TCPClient12BeginConnectERKSt8functionIFvRKSt10shared_ptrINS3_8ExecutorEENS_19basic_stream_socketINS_2ip3tcpENS_21stream_socket_serviceISD_EEEERKSt10error_codeEEEUlSJ_E_SH_EEE11do_completeEPNS0_15task_io_serviceEPNS0_25task_io_service_operationESJ_m.cold, @function
_ZN4asio6detail18completion_handlerINS0_7binder1IZN7asiopal9TCPClient12BeginConnectERKSt8functionIFvRKSt10shared_ptrINS3_8ExecutorEENS_19basic_stream_socketINS_2ip3tcpENS_21stream_socket_serviceISD_EEEERKSt10error_codeEEEUlSJ_E_SH_EEE11do_completeEPNS0_15task_io_serviceEPNS0_25task_io_service_operationESJ_m.cold:
.LFSB10100:
.L1831:
	.cfi_def_cfa_offset 192
	.cfi_offset 3, -40
	.cfi_offset 6, -32
	.cfi_offset 12, -24
	.cfi_offset 13, -16
	leaq	48(%rsp), %rbx
.LEHB51:
	call	_ZSt25__throw_bad_function_callv@PLT
.LEHE51:
.L1790:
	movq	112(%rsp), %rax
	testq	%rax, %rax
	je	.L1791
	movl	$3, %edx
	leaq	96(%rsp), %rsi
	leaq	96(%rsp), %rdi
	call	*%rax
.L1791:
	movq	88(%rsp), %rdi
	testq	%rdi, %rdi
	je	.L1793
	call	_ZNSt16_Sp_counted_baseILN9__gnu_cxx12_Lock_policyE2EE10_M_releaseEv@PLT
.L1793:
	movq	%rbx, %xmm0
	leaq	16(%rsp), %rdi
	punpcklqdq	%xmm0, %xmm0
	movups	%xmm0, 24(%rsp)
	call	_ZN4asio6detail18completion_handlerINS0_7binder1IZN7asiopal9TCPClient12BeginConnectERKSt8functionIFvRKSt10shared_ptrINS3_8ExecutorEENS_19basic_stream_socketINS_2ip3tcpENS_21stream_socket_serviceISD_EEEERKSt10error_codeEEEUlSJ_E_SH_EEE3ptr5resetEv
	movq	%rbp, %rdi
.LEHB52:
	call	_Unwind_Resume@PLT
.LEHE52:
.L1804:
.L1830:
	movq	%rax, %rbp
	movq	72(%rsp), %rax
	movq	%rbx, %rsi
	xorl	%ebx, %ebx
	leaq	40(%rax), %rdi
	call	_ZN4asio6detail28reactive_socket_service_base7destroyERNS1_24base_implementation_typeE@PLT
	movq	%r13, %rdi
	sfence
	call	_ZZN7asiopal9TCPClient12BeginConnectERKSt8functionIFvRKSt10shared_ptrINS_8ExecutorEEN4asio19basic_stream_socketINS7_2ip3tcpENS7_21stream_socket_serviceISA_EEEERKSt10error_codeEEENUlSG_E_D1Ev
	jmp	.L1793
	.cfi_endproc
.LFE10100:
	.section	.gcc_except_table
.LLSDAC10100:
	.byte	0xff
	.byte	0xff
	.byte	0x1
	.uleb128 .LLSDACSEC10100-.LLSDACSBC10100
.LLSDACSBC10100:
	.uleb128 .LEHB51-.LCOLDB36
	.uleb128 .LEHE51-.LEHB51
	.uleb128 .L1804-.LCOLDB36
	.uleb128 0
	.uleb128 .LEHB52-.LCOLDB36
	.uleb128 .LEHE52-.LEHB52
	.uleb128 0
	.uleb128 0
.LLSDACSEC10100:
	.section	.text.unlikely
	.text
	.size	_ZN4asio6detail18completion_handlerINS0_7binder1IZN7asiopal9TCPClient12BeginConnectERKSt8functionIFvRKSt10shared_ptrINS3_8ExecutorEENS_19basic_stream_socketINS_2ip3tcpENS_21stream_socket_serviceISD_EEEERKSt10error_codeEEEUlSJ_E_SH_EEE11do_completeEPNS0_15task_io_serviceEPNS0_25task_io_service_operationESJ_m, .-_ZN4asio6detail18completion_handlerINS0_7binder1IZN7asiopal9TCPClient12BeginConnectERKSt8functionIFvRKSt10shared_ptrINS3_8ExecutorEENS_19basic_stream_socketINS_2ip3tcpENS_21stream_socket_serviceISD_EEEERKSt10error_codeEEEUlSJ_E_SH_EEE11do_completeEPNS0_15task_io_serviceEPNS0_25task_io_service_operationESJ_m
	.section	.text.unlikely
