	.file	"TCPServer.cpp"
	.text
	.section	.rodata._ZNK4asio6detail15system_category4nameEv.str1.1,"aMS",@progbits,1
.LC0:
	.string	"asio.system"
	.section	.text._ZNK4asio6detail15system_category4nameEv,"axG",@progbits,_ZNK4asio6detail15system_category4nameEv,comdat
	.align 2
	.p2align 4
	.weak	_ZNK4asio6detail15system_category4nameEv
	.type	_ZNK4asio6detail15system_category4nameEv, @function
_ZNK4asio6detail15system_category4nameEv:
.LFB2289:
	.cfi_startproc
	leaq	.LC0(%rip), %rax
	ret
	.cfi_endproc
.LFE2289:
	.size	_ZNK4asio6detail15system_category4nameEv, .-_ZNK4asio6detail15system_category4nameEv
	.section	.rodata._ZNK4asio5error6detail14netdb_category4nameEv.str1.1,"aMS",@progbits,1
.LC1:
	.string	"asio.netdb"
	.section	.text._ZNK4asio5error6detail14netdb_category4nameEv,"axG",@progbits,_ZNK4asio5error6detail14netdb_category4nameEv,comdat
	.align 2
	.p2align 4
	.weak	_ZNK4asio5error6detail14netdb_category4nameEv
	.type	_ZNK4asio5error6detail14netdb_category4nameEv, @function
_ZNK4asio5error6detail14netdb_category4nameEv:
.LFB2333:
	.cfi_startproc
	leaq	.LC1(%rip), %rax
	ret
	.cfi_endproc
.LFE2333:
	.size	_ZNK4asio5error6detail14netdb_category4nameEv, .-_ZNK4asio5error6detail14netdb_category4nameEv
	.section	.rodata._ZNK4asio5error6detail17addrinfo_category4nameEv.str1.1,"aMS",@progbits,1
.LC2:
	.string	"asio.addrinfo"
	.section	.text._ZNK4asio5error6detail17addrinfo_category4nameEv,"axG",@progbits,_ZNK4asio5error6detail17addrinfo_category4nameEv,comdat
	.align 2
	.p2align 4
	.weak	_ZNK4asio5error6detail17addrinfo_category4nameEv
	.type	_ZNK4asio5error6detail17addrinfo_category4nameEv, @function
_ZNK4asio5error6detail17addrinfo_category4nameEv:
.LFB2343:
	.cfi_startproc
	leaq	.LC2(%rip), %rax
	ret
	.cfi_endproc
.LFE2343:
	.size	_ZNK4asio5error6detail17addrinfo_category4nameEv, .-_ZNK4asio5error6detail17addrinfo_category4nameEv
	.section	.rodata._ZNK4asio5error6detail13misc_category4nameEv.str1.1,"aMS",@progbits,1
.LC3:
	.string	"asio.misc"
	.section	.text._ZNK4asio5error6detail13misc_category4nameEv,"axG",@progbits,_ZNK4asio5error6detail13misc_category4nameEv,comdat
	.align 2
	.p2align 4
	.weak	_ZNK4asio5error6detail13misc_category4nameEv
	.type	_ZNK4asio5error6detail13misc_category4nameEv, @function
_ZNK4asio5error6detail13misc_category4nameEv:
.LFB2353:
	.cfi_startproc
	leaq	.LC3(%rip), %rax
	ret
	.cfi_endproc
.LFE2353:
	.size	_ZNK4asio5error6detail13misc_category4nameEv, .-_ZNK4asio5error6detail13misc_category4nameEv
	.section	.text._ZN4asio10io_service7service12fork_serviceENS0_10fork_eventE,"axG",@progbits,_ZN4asio10io_service7service12fork_serviceENS0_10fork_eventE,comdat
	.align 2
	.p2align 4
	.weak	_ZN4asio10io_service7service12fork_serviceENS0_10fork_eventE
	.type	_ZN4asio10io_service7service12fork_serviceENS0_10fork_eventE, @function
_ZN4asio10io_service7service12fork_serviceENS0_10fork_eventE:
.LFB3358:
	.cfi_startproc
	ret
	.cfi_endproc
.LFE3358:
	.size	_ZN4asio10io_service7service12fork_serviceENS0_10fork_eventE, .-_ZN4asio10io_service7service12fork_serviceENS0_10fork_eventE
	.section	.text._ZNKSt5ctypeIcE8do_widenEc,"axG",@progbits,_ZNKSt5ctypeIcE8do_widenEc,comdat
	.align 2
	.p2align 4
	.weak	_ZNKSt5ctypeIcE8do_widenEc
	.type	_ZNKSt5ctypeIcE8do_widenEc, @function
_ZNKSt5ctypeIcE8do_widenEc:
.LFB4589:
	.cfi_startproc
	movl	%esi, %eax
	ret
	.cfi_endproc
.LFE4589:
	.size	_ZNKSt5ctypeIcE8do_widenEc, .-_ZNKSt5ctypeIcE8do_widenEc
	.section	.text._ZN4asio21stream_socket_serviceINS_2ip3tcpEED2Ev,"axG",@progbits,_ZN4asio21stream_socket_serviceINS_2ip3tcpEED5Ev,comdat
	.align 2
	.p2align 4
	.weak	_ZN4asio21stream_socket_serviceINS_2ip3tcpEED2Ev
	.type	_ZN4asio21stream_socket_serviceINS_2ip3tcpEED2Ev, @function
_ZN4asio21stream_socket_serviceINS_2ip3tcpEED2Ev:
.LFB9346:
	.cfi_startproc
	ret
	.cfi_endproc
.LFE9346:
	.size	_ZN4asio21stream_socket_serviceINS_2ip3tcpEED2Ev, .-_ZN4asio21stream_socket_serviceINS_2ip3tcpEED2Ev
	.weak	_ZN4asio21stream_socket_serviceINS_2ip3tcpEED1Ev
	.set	_ZN4asio21stream_socket_serviceINS_2ip3tcpEED1Ev,_ZN4asio21stream_socket_serviceINS_2ip3tcpEED2Ev
	.section	.text._ZN4asio23socket_acceptor_serviceINS_2ip3tcpEED2Ev,"axG",@progbits,_ZN4asio23socket_acceptor_serviceINS_2ip3tcpEED5Ev,comdat
	.align 2
	.p2align 4
	.weak	_ZN4asio23socket_acceptor_serviceINS_2ip3tcpEED2Ev
	.type	_ZN4asio23socket_acceptor_serviceINS_2ip3tcpEED2Ev, @function
_ZN4asio23socket_acceptor_serviceINS_2ip3tcpEED2Ev:
.LFB9350:
	.cfi_startproc
	ret
	.cfi_endproc
.LFE9350:
	.size	_ZN4asio23socket_acceptor_serviceINS_2ip3tcpEED2Ev, .-_ZN4asio23socket_acceptor_serviceINS_2ip3tcpEED2Ev
	.weak	_ZN4asio23socket_acceptor_serviceINS_2ip3tcpEED1Ev
	.set	_ZN4asio23socket_acceptor_serviceINS_2ip3tcpEED1Ev,_ZN4asio23socket_acceptor_serviceINS_2ip3tcpEED2Ev
	.section	.text._ZN4asio21stream_socket_serviceINS_2ip3tcpEE16shutdown_serviceEv,"axG",@progbits,_ZN4asio21stream_socket_serviceINS_2ip3tcpEE16shutdown_serviceEv,comdat
	.align 2
	.p2align 4
	.weak	_ZN4asio21stream_socket_serviceINS_2ip3tcpEE16shutdown_serviceEv
	.type	_ZN4asio21stream_socket_serviceINS_2ip3tcpEE16shutdown_serviceEv, @function
_ZN4asio21stream_socket_serviceINS_2ip3tcpEE16shutdown_serviceEv:
.LFB9435:
	.cfi_startproc
	ret
	.cfi_endproc
.LFE9435:
	.size	_ZN4asio21stream_socket_serviceINS_2ip3tcpEE16shutdown_serviceEv, .-_ZN4asio21stream_socket_serviceINS_2ip3tcpEE16shutdown_serviceEv
	.section	.text._ZN4asio23socket_acceptor_serviceINS_2ip3tcpEE16shutdown_serviceEv,"axG",@progbits,_ZN4asio23socket_acceptor_serviceINS_2ip3tcpEE16shutdown_serviceEv,comdat
	.align 2
	.p2align 4
	.weak	_ZN4asio23socket_acceptor_serviceINS_2ip3tcpEE16shutdown_serviceEv
	.type	_ZN4asio23socket_acceptor_serviceINS_2ip3tcpEE16shutdown_serviceEv, @function
_ZN4asio23socket_acceptor_serviceINS_2ip3tcpEE16shutdown_serviceEv:
.LFB9436:
	.cfi_startproc
	ret
	.cfi_endproc
.LFE9436:
	.size	_ZN4asio23socket_acceptor_serviceINS_2ip3tcpEE16shutdown_serviceEv, .-_ZN4asio23socket_acceptor_serviceINS_2ip3tcpEE16shutdown_serviceEv
	.section	.text._ZN4asio23socket_acceptor_serviceINS_2ip3tcpEED0Ev,"axG",@progbits,_ZN4asio23socket_acceptor_serviceINS_2ip3tcpEED5Ev,comdat
	.align 2
	.p2align 4
	.weak	_ZN4asio23socket_acceptor_serviceINS_2ip3tcpEED0Ev
	.type	_ZN4asio23socket_acceptor_serviceINS_2ip3tcpEED0Ev, @function
_ZN4asio23socket_acceptor_serviceINS_2ip3tcpEED0Ev:
.LFB9352:
	.cfi_startproc
	movl	$48, %esi
	jmp	_ZdlPvm@PLT
	.cfi_endproc
.LFE9352:
	.size	_ZN4asio23socket_acceptor_serviceINS_2ip3tcpEED0Ev, .-_ZN4asio23socket_acceptor_serviceINS_2ip3tcpEED0Ev
	.section	.text._ZN4asio21stream_socket_serviceINS_2ip3tcpEED0Ev,"axG",@progbits,_ZN4asio21stream_socket_serviceINS_2ip3tcpEED5Ev,comdat
	.align 2
	.p2align 4
	.weak	_ZN4asio21stream_socket_serviceINS_2ip3tcpEED0Ev
	.type	_ZN4asio21stream_socket_serviceINS_2ip3tcpEED0Ev, @function
_ZN4asio21stream_socket_serviceINS_2ip3tcpEED0Ev:
.LFB9348:
	.cfi_startproc
	movl	$48, %esi
	jmp	_ZdlPvm@PLT
	.cfi_endproc
.LFE9348:
	.size	_ZN4asio21stream_socket_serviceINS_2ip3tcpEED0Ev, .-_ZN4asio21stream_socket_serviceINS_2ip3tcpEED0Ev
	.section	.text._ZN4asio6detail15system_categoryD2Ev,"axG",@progbits,_ZN4asio6detail15system_categoryD5Ev,comdat
	.align 2
	.p2align 4
	.weak	_ZN4asio6detail15system_categoryD2Ev
	.type	_ZN4asio6detail15system_categoryD2Ev, @function
_ZN4asio6detail15system_categoryD2Ev:
.LFB2301:
	.cfi_startproc
	movq	_ZTVN4asio6detail15system_categoryE@GOTPCREL(%rip), %rax
	addq	$16, %rax
	movq	%rax, (%rdi)
	jmp	_ZNSt3_V214error_categoryD2Ev@PLT
	.cfi_endproc
.LFE2301:
	.size	_ZN4asio6detail15system_categoryD2Ev, .-_ZN4asio6detail15system_categoryD2Ev
	.weak	_ZN4asio6detail15system_categoryD1Ev
	.set	_ZN4asio6detail15system_categoryD1Ev,_ZN4asio6detail15system_categoryD2Ev
	.section	.text._ZN4asio6detail15system_categoryD0Ev,"axG",@progbits,_ZN4asio6detail15system_categoryD5Ev,comdat
	.align 2
	.p2align 4
	.weak	_ZN4asio6detail15system_categoryD0Ev
	.type	_ZN4asio6detail15system_categoryD0Ev, @function
_ZN4asio6detail15system_categoryD0Ev:
.LFB2303:
	.cfi_startproc
	subq	$24, %rsp
	.cfi_def_cfa_offset 32
	movq	_ZTVN4asio6detail15system_categoryE@GOTPCREL(%rip), %rax
	movq	%rdi, 8(%rsp)
	addq	$16, %rax
	movq	%rax, (%rdi)
	call	_ZNSt3_V214error_categoryD2Ev@PLT
	movq	8(%rsp), %rdi
	movl	$8, %esi
	addq	$24, %rsp
	.cfi_def_cfa_offset 8
	jmp	_ZdlPvm@PLT
	.cfi_endproc
.LFE2303:
	.size	_ZN4asio6detail15system_categoryD0Ev, .-_ZN4asio6detail15system_categoryD0Ev
	.section	.text._ZN4asio5error6detail13misc_categoryD2Ev,"axG",@progbits,_ZN4asio5error6detail13misc_categoryD5Ev,comdat
	.align 2
	.p2align 4
	.weak	_ZN4asio5error6detail13misc_categoryD2Ev
	.type	_ZN4asio5error6detail13misc_categoryD2Ev, @function
_ZN4asio5error6detail13misc_categoryD2Ev:
.LFB2360:
	.cfi_startproc
	movq	_ZTVN4asio5error6detail13misc_categoryE@GOTPCREL(%rip), %rax
	addq	$16, %rax
	movq	%rax, (%rdi)
	jmp	_ZNSt3_V214error_categoryD2Ev@PLT
	.cfi_endproc
.LFE2360:
	.size	_ZN4asio5error6detail13misc_categoryD2Ev, .-_ZN4asio5error6detail13misc_categoryD2Ev
	.weak	_ZN4asio5error6detail13misc_categoryD1Ev
	.set	_ZN4asio5error6detail13misc_categoryD1Ev,_ZN4asio5error6detail13misc_categoryD2Ev
	.section	.text._ZN4asio5error6detail13misc_categoryD0Ev,"axG",@progbits,_ZN4asio5error6detail13misc_categoryD5Ev,comdat
	.align 2
	.p2align 4
	.weak	_ZN4asio5error6detail13misc_categoryD0Ev
	.type	_ZN4asio5error6detail13misc_categoryD0Ev, @function
_ZN4asio5error6detail13misc_categoryD0Ev:
.LFB2362:
	.cfi_startproc
	subq	$24, %rsp
	.cfi_def_cfa_offset 32
	movq	_ZTVN4asio5error6detail13misc_categoryE@GOTPCREL(%rip), %rax
	movq	%rdi, 8(%rsp)
	addq	$16, %rax
	movq	%rax, (%rdi)
	call	_ZNSt3_V214error_categoryD2Ev@PLT
	movq	8(%rsp), %rdi
	movl	$8, %esi
	addq	$24, %rsp
	.cfi_def_cfa_offset 8
	jmp	_ZdlPvm@PLT
	.cfi_endproc
.LFE2362:
	.size	_ZN4asio5error6detail13misc_categoryD0Ev, .-_ZN4asio5error6detail13misc_categoryD0Ev
	.section	.text._ZN4asio5error6detail14netdb_categoryD2Ev,"axG",@progbits,_ZN4asio5error6detail14netdb_categoryD5Ev,comdat
	.align 2
	.p2align 4
	.weak	_ZN4asio5error6detail14netdb_categoryD2Ev
	.type	_ZN4asio5error6detail14netdb_categoryD2Ev, @function
_ZN4asio5error6detail14netdb_categoryD2Ev:
.LFB2340:
	.cfi_startproc
	movq	_ZTVN4asio5error6detail14netdb_categoryE@GOTPCREL(%rip), %rax
	addq	$16, %rax
	movq	%rax, (%rdi)
	jmp	_ZNSt3_V214error_categoryD2Ev@PLT
	.cfi_endproc
.LFE2340:
	.size	_ZN4asio5error6detail14netdb_categoryD2Ev, .-_ZN4asio5error6detail14netdb_categoryD2Ev
	.weak	_ZN4asio5error6detail14netdb_categoryD1Ev
	.set	_ZN4asio5error6detail14netdb_categoryD1Ev,_ZN4asio5error6detail14netdb_categoryD2Ev
	.section	.text._ZN4asio5error6detail14netdb_categoryD0Ev,"axG",@progbits,_ZN4asio5error6detail14netdb_categoryD5Ev,comdat
	.align 2
	.p2align 4
	.weak	_ZN4asio5error6detail14netdb_categoryD0Ev
	.type	_ZN4asio5error6detail14netdb_categoryD0Ev, @function
_ZN4asio5error6detail14netdb_categoryD0Ev:
.LFB2342:
	.cfi_startproc
	subq	$24, %rsp
	.cfi_def_cfa_offset 32
	movq	_ZTVN4asio5error6detail14netdb_categoryE@GOTPCREL(%rip), %rax
	movq	%rdi, 8(%rsp)
	addq	$16, %rax
	movq	%rax, (%rdi)
	call	_ZNSt3_V214error_categoryD2Ev@PLT
	movq	8(%rsp), %rdi
	movl	$8, %esi
	addq	$24, %rsp
	.cfi_def_cfa_offset 8
	jmp	_ZdlPvm@PLT
	.cfi_endproc
.LFE2342:
	.size	_ZN4asio5error6detail14netdb_categoryD0Ev, .-_ZN4asio5error6detail14netdb_categoryD0Ev
	.section	.text._ZN4asio5error6detail17addrinfo_categoryD2Ev,"axG",@progbits,_ZN4asio5error6detail17addrinfo_categoryD5Ev,comdat
	.align 2
	.p2align 4
	.weak	_ZN4asio5error6detail17addrinfo_categoryD2Ev
	.type	_ZN4asio5error6detail17addrinfo_categoryD2Ev, @function
_ZN4asio5error6detail17addrinfo_categoryD2Ev:
.LFB2350:
	.cfi_startproc
	movq	_ZTVN4asio5error6detail17addrinfo_categoryE@GOTPCREL(%rip), %rax
	addq	$16, %rax
	movq	%rax, (%rdi)
	jmp	_ZNSt3_V214error_categoryD2Ev@PLT
	.cfi_endproc
.LFE2350:
	.size	_ZN4asio5error6detail17addrinfo_categoryD2Ev, .-_ZN4asio5error6detail17addrinfo_categoryD2Ev
	.weak	_ZN4asio5error6detail17addrinfo_categoryD1Ev
	.set	_ZN4asio5error6detail17addrinfo_categoryD1Ev,_ZN4asio5error6detail17addrinfo_categoryD2Ev
	.section	.text._ZN4asio5error6detail17addrinfo_categoryD0Ev,"axG",@progbits,_ZN4asio5error6detail17addrinfo_categoryD5Ev,comdat
	.align 2
	.p2align 4
	.weak	_ZN4asio5error6detail17addrinfo_categoryD0Ev
	.type	_ZN4asio5error6detail17addrinfo_categoryD0Ev, @function
_ZN4asio5error6detail17addrinfo_categoryD0Ev:
.LFB2352:
	.cfi_startproc
	subq	$24, %rsp
	.cfi_def_cfa_offset 32
	movq	_ZTVN4asio5error6detail17addrinfo_categoryE@GOTPCREL(%rip), %rax
	movq	%rdi, 8(%rsp)
	addq	$16, %rax
	movq	%rax, (%rdi)
	call	_ZNSt3_V214error_categoryD2Ev@PLT
	movq	8(%rsp), %rdi
	movl	$8, %esi
	addq	$24, %rsp
	.cfi_def_cfa_offset 8
	jmp	_ZdlPvm@PLT
	.cfi_endproc
.LFE2352:
	.size	_ZN4asio5error6detail17addrinfo_categoryD0Ev, .-_ZN4asio5error6detail17addrinfo_categoryD0Ev
	.section	.text.unlikely,"ax",@progbits
	.type	_ZN4asio6detail15throw_exceptionISt8bad_castEEvRKT_.isra.0, @function
_ZN4asio6detail15throw_exceptionISt8bad_castEEvRKT_.isra.0:
.LFB9504:
	.cfi_startproc
	pushq	%rax
	.cfi_def_cfa_offset 16
	movl	$8, %edi
	call	__cxa_allocate_exception@PLT
	movq	_ZTVSt8bad_cast@GOTPCREL(%rip), %rdx
	movq	_ZTISt8bad_cast@GOTPCREL(%rip), %rsi
	movq	%rax, %rdi
	addq	$16, %rdx
	movq	%rdx, (%rax)
	movq	_ZNSt8bad_castD1Ev@GOTPCREL(%rip), %rdx
	call	__cxa_throw@PLT
	.cfi_endproc
.LFE9504:
	.size	_ZN4asio6detail15throw_exceptionISt8bad_castEEvRKT_.isra.0, .-_ZN4asio6detail15throw_exceptionISt8bad_castEEvRKT_.isra.0
	.section	.text._ZN4asio6detail13epoll_reactorD2Ev,"axG",@progbits,_ZN4asio6detail13epoll_reactorD5Ev,comdat
	.align 2
	.p2align 4
	.weak	_ZN4asio6detail13epoll_reactorD2Ev
	.type	_ZN4asio6detail13epoll_reactorD2Ev, @function
_ZN4asio6detail13epoll_reactorD2Ev:
.LFB3235:
	.cfi_startproc
	.cfi_personality 0x9b,DW.ref.__gxx_personality_v0
	.cfi_lsda 0x1b,.LLSDA3235
	pushq	%r15
	.cfi_def_cfa_offset 16
	.cfi_offset 15, -16
	pushq	%r14
	.cfi_def_cfa_offset 24
	.cfi_offset 14, -24
	pushq	%r13
	.cfi_def_cfa_offset 32
	.cfi_offset 13, -32
	pushq	%r12
	.cfi_def_cfa_offset 40
	.cfi_offset 12, -40
	pushq	%rbp
	.cfi_def_cfa_offset 48
	.cfi_offset 6, -48
	pushq	%rbx
	.cfi_def_cfa_offset 56
	.cfi_offset 3, -56
	subq	$40, %rsp
	.cfi_def_cfa_offset 96
	movq	_ZTVN4asio6detail13epoll_reactorE@GOTPCREL(%rip), %rax
	movq	%rdi, 8(%rsp)
	addq	$16, %rax
	movq	%rax, (%rdi)
	movl	96(%rdi), %edi
	cmpl	$-1, %edi
	je	.L29
	call	close@PLT
.L29:
	movq	8(%rsp), %rax
	movl	100(%rax), %edi
	cmpl	$-1, %edi
	je	.L30
	call	close@PLT
.L30:
	movq	8(%rsp), %rax
	leaq	16(%rsp), %rbp
	movq	160(%rax), %r13
	testq	%r13, %r13
	je	.L41
	.p2align 4
	.p2align 3
.L31:
	movq	%r13, %r12
	movq	24(%r13), %r13
	leaq	128(%r12), %r15
	leaq	80(%r12), %r14
.L36:
	movq	(%r15), %rsi
	testq	%rsi, %rsi
	je	.L39
	movq	%rsi, (%rsp)
	call	_ZNSt3_V215system_categoryEv@PLT
	movq	(%rsp), %rsi
	movq	%rax, %rbx
	jmp	.L40
	.p2align 4,,10
	.p2align 3
.L37:
	movq	$0, (%rsi)
	movq	8(%rsi), %rax
	xorl	%ecx, %ecx
	movq	%rbp, %rdx
	movl	$0, 16(%rsp)
	xorl	%edi, %edi
	movq	%rbx, 24(%rsp)
	call	*%rax
	movq	(%r15), %rsi
	testq	%rsi, %rsi
	je	.L39
.L40:
	movq	(%rsi), %rax
	movq	%rax, (%r15)
	testq	%rax, %rax
	jne	.L37
	movq	$0, 8(%r15)
	jmp	.L37
	.p2align 4,,10
	.p2align 3
.L39:
	subq	$16, %r15
	cmpq	%r14, %r15
	jne	.L36
	leaq	40(%r12), %rdi
	call	pthread_mutex_destroy@PLT
	movl	$152, %esi
	movq	%r12, %rdi
	call	_ZdlPvm@PLT
	testq	%r13, %r13
	jne	.L31
.L41:
	movq	8(%rsp), %rax
	leaq	16(%rsp), %rbp
	movq	168(%rax), %r13
	testq	%r13, %r13
	je	.L33
	.p2align 4
	.p2align 3
.L32:
	movq	%r13, %r12
	movq	24(%r13), %r13
	leaq	128(%r12), %r15
	leaq	80(%r12), %r14
.L46:
	movq	(%r15), %rsi
	testq	%rsi, %rsi
	je	.L49
	movq	%rsi, (%rsp)
	call	_ZNSt3_V215system_categoryEv@PLT
	movq	(%rsp), %rsi
	movq	%rax, %rbx
	jmp	.L50
	.p2align 4,,10
	.p2align 3
.L47:
	movq	$0, (%rsi)
	movq	8(%rsi), %rax
	xorl	%ecx, %ecx
	movq	%rbp, %rdx
	movl	$0, 16(%rsp)
	xorl	%edi, %edi
	movq	%rbx, 24(%rsp)
	call	*%rax
	movq	(%r15), %rsi
	testq	%rsi, %rsi
	je	.L49
.L50:
	movq	(%rsi), %rax
	movq	%rax, (%r15)
	testq	%rax, %rax
	jne	.L47
	movq	$0, 8(%r15)
	jmp	.L47
	.p2align 4,,10
	.p2align 3
.L49:
	subq	$16, %r15
	cmpq	%r14, %r15
	jne	.L46
	leaq	40(%r12), %rdi
	call	pthread_mutex_destroy@PLT
	movl	$152, %esi
	movq	%r12, %rdi
	call	_ZdlPvm@PLT
	testq	%r13, %r13
	jne	.L32
.L33:
	movq	8(%rsp), %rbx
	leaq	120(%rbx), %rdi
	call	pthread_mutex_destroy@PLT
	movl	92(%rbx), %eax
	cmpl	$-1, %eax
	je	.L43
	movq	8(%rsp), %rdx
	movl	88(%rdx), %edi
	cmpl	%edi, %eax
	jne	.L75
.L51:
	call	close@PLT
	jmp	.L52
.L75:
	movl	%eax, %edi
	call	close@PLT
.L43:
	movq	8(%rsp), %rax
	movl	88(%rax), %edi
	cmpl	$-1, %edi
	jne	.L51
.L52:
	movq	8(%rsp), %rdi
	addq	$40, %rsp
	.cfi_def_cfa_offset 56
	popq	%rbx
	.cfi_def_cfa_offset 48
	popq	%rbp
	.cfi_def_cfa_offset 40
	addq	$48, %rdi
	popq	%r12
	.cfi_def_cfa_offset 32
	popq	%r13
	.cfi_def_cfa_offset 24
	popq	%r14
	.cfi_def_cfa_offset 16
	popq	%r15
	.cfi_def_cfa_offset 8
.LEHB0:
	jmp	pthread_mutex_destroy@PLT
.LEHE0:
	.cfi_endproc
.LFE3235:
	.section	.gcc_except_table._ZN4asio6detail13epoll_reactorD2Ev,"aG",@progbits,_ZN4asio6detail13epoll_reactorD5Ev,comdat
.LLSDA3235:
	.byte	0xff
	.byte	0xff
	.byte	0x1
	.uleb128 .LLSDACSE3235-.LLSDACSB3235
.LLSDACSB3235:
	.uleb128 .LEHB0-.LFB3235
	.uleb128 .LEHE0-.LEHB0
	.uleb128 0
	.uleb128 0
.LLSDACSE3235:
	.section	.text._ZN4asio6detail13epoll_reactorD2Ev,"axG",@progbits,_ZN4asio6detail13epoll_reactorD5Ev,comdat
	.size	_ZN4asio6detail13epoll_reactorD2Ev, .-_ZN4asio6detail13epoll_reactorD2Ev
	.weak	_ZN4asio6detail13epoll_reactorD1Ev
	.set	_ZN4asio6detail13epoll_reactorD1Ev,_ZN4asio6detail13epoll_reactorD2Ev
	.section	.text._ZN4asio6detail13epoll_reactorD0Ev,"axG",@progbits,_ZN4asio6detail13epoll_reactorD5Ev,comdat
	.align 2
	.p2align 4
	.weak	_ZN4asio6detail13epoll_reactorD0Ev
	.type	_ZN4asio6detail13epoll_reactorD0Ev, @function
_ZN4asio6detail13epoll_reactorD0Ev:
.LFB3237:
	.cfi_startproc
	.cfi_personality 0x9b,DW.ref.__gxx_personality_v0
	.cfi_lsda 0x1b,.LLSDA3237
	pushq	%r15
	.cfi_def_cfa_offset 16
	.cfi_offset 15, -16
	pushq	%r14
	.cfi_def_cfa_offset 24
	.cfi_offset 14, -24
	pushq	%r13
	.cfi_def_cfa_offset 32
	.cfi_offset 13, -32
	pushq	%r12
	.cfi_def_cfa_offset 40
	.cfi_offset 12, -40
	pushq	%rbp
	.cfi_def_cfa_offset 48
	.cfi_offset 6, -48
	pushq	%rbx
	.cfi_def_cfa_offset 56
	.cfi_offset 3, -56
	subq	$40, %rsp
	.cfi_def_cfa_offset 96
	movq	_ZTVN4asio6detail13epoll_reactorE@GOTPCREL(%rip), %rax
	movq	%rdi, 8(%rsp)
	addq	$16, %rax
	movq	%rax, (%rdi)
	movl	96(%rdi), %edi
	cmpl	$-1, %edi
	je	.L77
	call	close@PLT
.L77:
	movq	8(%rsp), %rax
	movl	100(%rax), %edi
	cmpl	$-1, %edi
	je	.L78
	call	close@PLT
.L78:
	movq	8(%rsp), %rax
	leaq	16(%rsp), %rbp
	movq	160(%rax), %r13
	testq	%r13, %r13
	je	.L89
	.p2align 4
	.p2align 3
.L79:
	movq	%r13, %r12
	movq	24(%r13), %r13
	leaq	128(%r12), %r15
	leaq	80(%r12), %r14
.L84:
	movq	(%r15), %rsi
	testq	%rsi, %rsi
	je	.L87
	movq	%rsi, (%rsp)
	call	_ZNSt3_V215system_categoryEv@PLT
	movq	(%rsp), %rsi
	movq	%rax, %rbx
	jmp	.L88
	.p2align 4,,10
	.p2align 3
.L85:
	movq	$0, (%rsi)
	movq	8(%rsi), %rax
	xorl	%ecx, %ecx
	movq	%rbp, %rdx
	movl	$0, 16(%rsp)
	xorl	%edi, %edi
	movq	%rbx, 24(%rsp)
	call	*%rax
	movq	(%r15), %rsi
	testq	%rsi, %rsi
	je	.L87
.L88:
	movq	(%rsi), %rax
	movq	%rax, (%r15)
	testq	%rax, %rax
	jne	.L85
	movq	$0, 8(%r15)
	jmp	.L85
	.p2align 4,,10
	.p2align 3
.L87:
	subq	$16, %r15
	cmpq	%r14, %r15
	jne	.L84
	leaq	40(%r12), %rdi
	call	pthread_mutex_destroy@PLT
	movl	$152, %esi
	movq	%r12, %rdi
	call	_ZdlPvm@PLT
	testq	%r13, %r13
	jne	.L79
.L89:
	movq	8(%rsp), %rax
	leaq	16(%rsp), %rbp
	movq	168(%rax), %r13
	testq	%r13, %r13
	je	.L81
	.p2align 4
	.p2align 3
.L80:
	movq	%r13, %r12
	movq	24(%r13), %r13
	leaq	128(%r12), %r15
	leaq	80(%r12), %r14
.L94:
	movq	(%r15), %rsi
	testq	%rsi, %rsi
	je	.L97
	movq	%rsi, (%rsp)
	call	_ZNSt3_V215system_categoryEv@PLT
	movq	(%rsp), %rsi
	movq	%rax, %rbx
	jmp	.L98
	.p2align 4,,10
	.p2align 3
.L95:
	movq	$0, (%rsi)
	movq	8(%rsi), %rax
	xorl	%ecx, %ecx
	movq	%rbp, %rdx
	movl	$0, 16(%rsp)
	xorl	%edi, %edi
	movq	%rbx, 24(%rsp)
	call	*%rax
	movq	(%r15), %rsi
	testq	%rsi, %rsi
	je	.L97
.L98:
	movq	(%rsi), %rax
	movq	%rax, (%r15)
	testq	%rax, %rax
	jne	.L95
	movq	$0, 8(%r15)
	jmp	.L95
	.p2align 4,,10
	.p2align 3
.L97:
	subq	$16, %r15
	cmpq	%r14, %r15
	jne	.L94
	leaq	40(%r12), %rdi
	call	pthread_mutex_destroy@PLT
	movl	$152, %esi
	movq	%r12, %rdi
	call	_ZdlPvm@PLT
	testq	%r13, %r13
	jne	.L80
.L81:
	movq	8(%rsp), %rbx
	leaq	120(%rbx), %rdi
	call	pthread_mutex_destroy@PLT
	movl	92(%rbx), %eax
	cmpl	$-1, %eax
	je	.L91
	movq	8(%rsp), %rdx
	movl	88(%rdx), %edi
	cmpl	%edi, %eax
	jne	.L123
.L99:
	call	close@PLT
	jmp	.L100
.L123:
	movl	%eax, %edi
	call	close@PLT
.L91:
	movq	8(%rsp), %rax
	movl	88(%rax), %edi
	cmpl	$-1, %edi
	jne	.L99
.L100:
	movq	8(%rsp), %rbx
	leaq	48(%rbx), %rdi
	call	pthread_mutex_destroy@PLT
	addq	$40, %rsp
	.cfi_def_cfa_offset 56
	movq	%rbx, %rdi
	movl	$176, %esi
	popq	%rbx
	.cfi_def_cfa_offset 48
	popq	%rbp
	.cfi_def_cfa_offset 40
	popq	%r12
	.cfi_def_cfa_offset 32
	popq	%r13
	.cfi_def_cfa_offset 24
	popq	%r14
	.cfi_def_cfa_offset 16
	popq	%r15
	.cfi_def_cfa_offset 8
.LEHB1:
	jmp	_ZdlPvm@PLT
.LEHE1:
	.cfi_endproc
.LFE3237:
	.section	.gcc_except_table._ZN4asio6detail13epoll_reactorD0Ev,"aG",@progbits,_ZN4asio6detail13epoll_reactorD5Ev,comdat
.LLSDA3237:
	.byte	0xff
	.byte	0xff
	.byte	0x1
	.uleb128 .LLSDACSE3237-.LLSDACSB3237
.LLSDACSB3237:
	.uleb128 .LEHB1-.LFB3237
	.uleb128 .LEHE1-.LEHB1
	.uleb128 0
	.uleb128 0
.LLSDACSE3237:
	.section	.text._ZN4asio6detail13epoll_reactorD0Ev,"axG",@progbits,_ZN4asio6detail13epoll_reactorD5Ev,comdat
	.size	_ZN4asio6detail13epoll_reactorD0Ev, .-_ZN4asio6detail13epoll_reactorD0Ev
	.section	.text._ZN4asio6detail13epoll_reactor16shutdown_serviceEv,"axG",@progbits,_ZN4asio6detail13epoll_reactor16shutdown_serviceEv,comdat
	.align 2
	.p2align 4
	.weak	_ZN4asio6detail13epoll_reactor16shutdown_serviceEv
	.type	_ZN4asio6detail13epoll_reactor16shutdown_serviceEv, @function
_ZN4asio6detail13epoll_reactor16shutdown_serviceEv:
.LFB3238:
	.cfi_startproc
	.cfi_personality 0x9b,DW.ref.__gxx_personality_v0
	.cfi_lsda 0x1b,.LLSDA3238
	pushq	%r14
	.cfi_def_cfa_offset 16
	.cfi_offset 14, -16
	pushq	%r12
	.cfi_def_cfa_offset 24
	.cfi_offset 12, -24
	pushq	%rbp
	.cfi_def_cfa_offset 32
	.cfi_offset 6, -32
	leaq	48(%rdi), %rbp
	pushq	%rbx
	.cfi_def_cfa_offset 40
	.cfi_offset 3, -40
	movq	%rdi, %rbx
	movq	%rbp, %rdi
	subq	$40, %rsp
	.cfi_def_cfa_offset 80
	call	pthread_mutex_lock@PLT
	movb	$1, 112(%rbx)
	movq	%rbp, %rdi
	call	pthread_mutex_unlock@PLT
	movq	160(%rbx), %rax
	pxor	%xmm0, %xmm0
	movaps	%xmm0, (%rsp)
	testq	%rax, %rax
	jne	.L125
	jmp	.L143
	.p2align 4,,10
	.p2align 3
.L129:
	movq	%rdx, (%rcx)
.L131:
	movq	104(%rax), %rdx
	movups	%xmm0, 96(%rax)
	movq	%rdx, 8(%rsp)
.L128:
	movq	112(%rax), %rdx
	testq	%rdx, %rdx
	je	.L132
	movq	8(%rsp), %rcx
	testq	%rcx, %rcx
	je	.L183
	movq	%rdx, (%rcx)
.L135:
	movq	120(%rax), %rdx
	movups	%xmm0, 112(%rax)
	movq	%rdx, 8(%rsp)
.L132:
	movq	128(%rax), %rdx
	testq	%rdx, %rdx
	je	.L136
	movq	8(%rsp), %rcx
	testq	%rcx, %rcx
	je	.L184
	movq	%rdx, (%rcx)
.L139:
	movq	136(%rax), %rdx
	movups	%xmm0, 128(%rax)
	movq	%rdx, 8(%rsp)
.L136:
	movq	24(%rax), %rcx
	movb	$1, 144(%rax)
	movq	%rcx, 160(%rbx)
	movq	32(%rax), %rdx
	testq	%rdx, %rdx
	je	.L140
	movq	%rcx, 24(%rdx)
.L140:
	movq	24(%rax), %rdx
	testq	%rdx, %rdx
	je	.L141
	movq	32(%rax), %rcx
	movq	%rcx, 32(%rdx)
.L141:
	movq	168(%rbx), %rdx
	movq	$0, 32(%rax)
	movq	%rdx, 24(%rax)
	movq	%rax, 168(%rbx)
	movq	160(%rbx), %rax
	testq	%rax, %rax
	je	.L143
.L125:
	movq	96(%rax), %rdx
	testq	%rdx, %rdx
	je	.L128
	movq	8(%rsp), %rcx
	testq	%rcx, %rcx
	jne	.L129
	movq	%rdx, (%rsp)
	jmp	.L131
	.p2align 4,,10
	.p2align 3
.L183:
	movq	%rdx, (%rsp)
	jmp	.L135
	.p2align 4,,10
	.p2align 3
.L184:
	movq	%rdx, (%rsp)
	jmp	.L139
	.p2align 4,,10
	.p2align 3
.L143:
	movq	104(%rbx), %rbx
	movq	%rsp, %rbp
	testq	%rbx, %rbx
	je	.L127
	.p2align 4
	.p2align 3
.L126:
	movq	(%rbx), %rax
	movq	%rbp, %rsi
	movq	%rbx, %rdi
.LEHB2:
	call	*48(%rax)
.LEHE2:
	movq	8(%rbx), %rbx
	testq	%rbx, %rbx
	jne	.L126
.L127:
	movq	(%rsp), %rbx
	testq	%rbx, %rbx
	je	.L124
	pxor	%xmm0, %xmm0
	leaq	16(%rsp), %rbp
	movaps	%xmm0, (%rsp)
	call	_ZNSt3_V215system_categoryEv@PLT
	movq	%rax, %r12
	.p2align 4
	.p2align 3
.L146:
	movq	%rbx, %rsi
	movq	(%rbx), %rbx
	xorl	%ecx, %ecx
	xorl	%edi, %edi
	movq	$0, (%rsi)
	movq	8(%rsi), %rax
	movq	%rbp, %rdx
	movl	$0, 16(%rsp)
	movq	%r12, 24(%rsp)
	call	*%rax
	testq	%rbx, %rbx
	jne	.L146
	movq	(%rsp), %rsi
	testq	%rsi, %rsi
	jne	.L147
	jmp	.L124
	.p2align 4,,10
	.p2align 3
.L148:
	movq	$0, (%rsi)
	movq	8(%rsi), %rax
	xorl	%ecx, %ecx
	movq	%rbp, %rdx
	movl	$0, 16(%rsp)
	xorl	%edi, %edi
	movq	%r12, 24(%rsp)
	call	*%rax
	movq	(%rsp), %rsi
	testq	%rsi, %rsi
	je	.L124
.L147:
	movq	(%rsi), %rax
	movq	%rax, (%rsp)
	testq	%rax, %rax
	jne	.L148
	movq	$0, 8(%rsp)
	jmp	.L148
	.p2align 4,,10
	.p2align 3
.L124:
	addq	$40, %rsp
	.cfi_remember_state
	.cfi_def_cfa_offset 40
	popq	%rbx
	.cfi_def_cfa_offset 32
	popq	%rbp
	.cfi_def_cfa_offset 24
	popq	%r12
	.cfi_def_cfa_offset 16
	popq	%r14
	.cfi_def_cfa_offset 8
	ret
.L153:
	.cfi_restore_state
	movq	%rax, %r14
	jmp	.L150
.L185:
	movq	(%rbx), %rax
	movq	%rax, (%rsp)
	testq	%rax, %rax
	jne	.L152
	xorl	%ecx, %ecx
	movq	%rcx, 8(%rsp)
.L152:
	xorl	%eax, %eax
	xorl	%edx, %edx
	movq	8(%rbx), %rbp
	movq	%rax, (%rbx)
	movl	%edx, 16(%rsp)
	call	_ZNSt3_V215system_categoryEv@PLT
	xorl	%ecx, %ecx
	leaq	16(%rsp), %rdx
	movq	%rbx, %rsi
	movq	%rax, 24(%rsp)
	xorl	%edi, %edi
	call	*%rbp
.L150:
	movq	(%rsp), %rbx
	testq	%rbx, %rbx
	jne	.L185
	movq	%r14, %rdi
.LEHB3:
	call	_Unwind_Resume@PLT
.LEHE3:
	.cfi_endproc
.LFE3238:
	.section	.gcc_except_table._ZN4asio6detail13epoll_reactor16shutdown_serviceEv,"aG",@progbits,_ZN4asio6detail13epoll_reactor16shutdown_serviceEv,comdat
.LLSDA3238:
	.byte	0xff
	.byte	0xff
	.byte	0x1
	.uleb128 .LLSDACSE3238-.LLSDACSB3238
.LLSDACSB3238:
	.uleb128 .LEHB2-.LFB3238
	.uleb128 .LEHE2-.LEHB2
	.uleb128 .L153-.LFB3238
	.uleb128 0
	.uleb128 .LEHB3-.LFB3238
	.uleb128 .LEHE3-.LEHB3
	.uleb128 0
	.uleb128 0
.LLSDACSE3238:
	.section	.text._ZN4asio6detail13epoll_reactor16shutdown_serviceEv,"axG",@progbits,_ZN4asio6detail13epoll_reactor16shutdown_serviceEv,comdat
	.size	_ZN4asio6detail13epoll_reactor16shutdown_serviceEv, .-_ZN4asio6detail13epoll_reactor16shutdown_serviceEv
	.section	.rodata._ZNK4asio6detail15system_category7messageB5cxx11Ei.str1.8,"aMS",@progbits,1
	.align 8
.LC4:
	.string	"basic_string: construction from null is not valid"
	.section	.text._ZNK4asio6detail15system_category7messageB5cxx11Ei,"axG",@progbits,_ZNK4asio6detail15system_category7messageB5cxx11Ei,comdat
	.align 2
	.p2align 4
	.weak	_ZNK4asio6detail15system_category7messageB5cxx11Ei
	.type	_ZNK4asio6detail15system_category7messageB5cxx11Ei, @function
_ZNK4asio6detail15system_category7messageB5cxx11Ei:
.LFB2290:
	.cfi_startproc
	pushq	%r12
	.cfi_def_cfa_offset 16
	.cfi_offset 12, -16
	pushq	%rbp
	.cfi_def_cfa_offset 24
	.cfi_offset 6, -24
	pushq	%rbx
	.cfi_def_cfa_offset 32
	.cfi_offset 3, -32
	movq	%rdi, %rbx
	subq	$288, %rsp
	.cfi_def_cfa_offset 320
	cmpl	$125, %edx
	je	.L198
	pxor	%xmm0, %xmm0
	leaq	32(%rsp), %rsi
	leaq	16(%rbx), %rbp
	movl	%edx, %edi
	movl	$256, %edx
	movaps	%xmm0, 32(%rsp)
	movaps	%xmm0, 48(%rsp)
	movaps	%xmm0, 64(%rsp)
	movaps	%xmm0, 80(%rsp)
	movaps	%xmm0, 96(%rsp)
	movaps	%xmm0, 112(%rsp)
	movaps	%xmm0, 128(%rsp)
	movaps	%xmm0, 144(%rsp)
	movaps	%xmm0, 160(%rsp)
	movaps	%xmm0, 176(%rsp)
	movaps	%xmm0, 192(%rsp)
	movaps	%xmm0, 208(%rsp)
	movaps	%xmm0, 224(%rsp)
	movaps	%xmm0, 240(%rsp)
	movaps	%xmm0, 256(%rsp)
	movaps	%xmm0, 272(%rsp)
	call	strerror_r@PLT
	movq	%rbp, (%rbx)
	movq	%rax, %r12
	testq	%rax, %rax
	je	.L199
	movq	%rax, %rdi
	call	strlen@PLT
	movq	%rax, 24(%rsp)
	movq	%rax, %rcx
	cmpq	$15, %rax
	ja	.L200
	cmpq	$1, %rax
	jne	.L192
	movzbl	(%r12), %edx
	movb	%dl, 16(%rbx)
.L193:
	movq	%rax, 8(%rbx)
	movb	$0, 0(%rbp,%rax)
	addq	$288, %rsp
	.cfi_remember_state
	.cfi_def_cfa_offset 32
	movq	%rbx, %rax
	popq	%rbx
	.cfi_def_cfa_offset 24
	popq	%rbp
	.cfi_def_cfa_offset 16
	popq	%r12
	.cfi_def_cfa_offset 8
	ret
	.p2align 4,,10
	.p2align 3
.L200:
	.cfi_restore_state
	leaq	24(%rsp), %rsi
	xorl	%edx, %edx
	movq	%rbx, %rdi
	movq	%rax, 8(%rsp)
	call	_ZNSt7__cxx1112basic_stringIcSt11char_traitsIcESaIcEE9_M_createERmm@PLT
	movq	8(%rsp), %rcx
	movq	%rax, (%rbx)
	movq	%rax, %rbp
	movq	24(%rsp), %rax
	movq	%rax, 16(%rbx)
.L191:
	movq	%rbp, %rdi
	movq	%rcx, %rdx
	movq	%r12, %rsi
	call	memcpy@PLT
	movq	24(%rsp), %rax
	movq	(%rbx), %rbp
	jmp	.L193
	.p2align 4,,10
	.p2align 3
.L198:
	leaq	16(%rdi), %rax
	leaq	32(%rsp), %rsi
	xorl	%edx, %edx
	movq	$18, 32(%rsp)
	movq	%rax, (%rdi)
	call	_ZNSt7__cxx1112basic_stringIcSt11char_traitsIcESaIcEE9_M_createERmm@PLT
	movq	32(%rsp), %rdx
	movdqa	.LC5(%rip), %xmm0
	movq	%rax, (%rbx)
	movq	%rdx, 16(%rbx)
	movl	$11876, %edx
	movw	%dx, 16(%rax)
	movups	%xmm0, (%rax)
	movq	32(%rsp), %rax
	movq	(%rbx), %rdx
	movq	%rax, 8(%rbx)
	movb	$0, (%rdx,%rax)
	addq	$288, %rsp
	.cfi_remember_state
	.cfi_def_cfa_offset 32
	movq	%rbx, %rax
	popq	%rbx
	.cfi_def_cfa_offset 24
	popq	%rbp
	.cfi_def_cfa_offset 16
	popq	%r12
	.cfi_def_cfa_offset 8
	ret
	.p2align 4,,10
	.p2align 3
.L192:
	.cfi_restore_state
	testq	%rax, %rax
	je	.L193
	jmp	.L191
.L199:
	leaq	.LC4(%rip), %rdi
	call	_ZSt19__throw_logic_errorPKc@PLT
	.cfi_endproc
.LFE2290:
	.size	_ZNK4asio6detail15system_category7messageB5cxx11Ei, .-_ZNK4asio6detail15system_category7messageB5cxx11Ei
	.section	.text._ZNK4asio5error6detail17addrinfo_category7messageB5cxx11Ei,"axG",@progbits,_ZNK4asio5error6detail17addrinfo_category7messageB5cxx11Ei,comdat
	.align 2
	.p2align 4
	.weak	_ZNK4asio5error6detail17addrinfo_category7messageB5cxx11Ei
	.type	_ZNK4asio5error6detail17addrinfo_category7messageB5cxx11Ei, @function
_ZNK4asio5error6detail17addrinfo_category7messageB5cxx11Ei:
.LFB2344:
	.cfi_startproc
	pushq	%rbx
	.cfi_def_cfa_offset 16
	.cfi_offset 3, -16
	leaq	16(%rdi), %rax
	movq	%rdi, %rbx
	subq	$16, %rsp
	.cfi_def_cfa_offset 32
	movq	%rax, (%rdi)
	cmpl	$-8, %edx
	je	.L206
	cmpl	$-7, %edx
	je	.L207
	movq	$19, 8(%rsp)
	leaq	8(%rsp), %rsi
	xorl	%edx, %edx
	call	_ZNSt7__cxx1112basic_stringIcSt11char_traitsIcESaIcEE9_M_createERmm@PLT
	movq	8(%rsp), %rdx
	movdqa	.LC10(%rip), %xmm0
	movq	%rax, (%rbx)
	movq	%rdx, 16(%rbx)
	movups	%xmm0, (%rax)
	movl	$1919906418, 15(%rax)
	movq	8(%rsp), %rax
	movq	(%rbx), %rdx
	movq	%rax, 8(%rbx)
	movb	$0, (%rdx,%rax)
	addq	$16, %rsp
	.cfi_remember_state
	.cfi_def_cfa_offset 16
	movq	%rbx, %rax
	popq	%rbx
	.cfi_def_cfa_offset 8
	ret
	.p2align 4,,10
	.p2align 3
.L207:
	.cfi_restore_state
	movq	$25, 8(%rsp)
	leaq	8(%rsp), %rsi
	xorl	%edx, %edx
	call	_ZNSt7__cxx1112basic_stringIcSt11char_traitsIcESaIcEE9_M_createERmm@PLT
	movq	8(%rsp), %rdx
	movdqa	.LC8(%rip), %xmm0
	movq	%rax, (%rbx)
	movq	%rdx, 16(%rbx)
	movups	%xmm0, (%rax)
	movdqa	.LC9(%rip), %xmm0
	movups	%xmm0, 9(%rax)
	movq	8(%rsp), %rax
	movq	(%rbx), %rdx
	movq	%rax, 8(%rbx)
	movb	$0, (%rdx,%rax)
	addq	$16, %rsp
	.cfi_remember_state
	.cfi_def_cfa_offset 16
	movq	%rbx, %rax
	popq	%rbx
	.cfi_def_cfa_offset 8
	ret
	.p2align 4,,10
	.p2align 3
.L206:
	.cfi_restore_state
	movq	$17, 8(%rsp)
	leaq	8(%rsp), %rsi
	xorl	%edx, %edx
	call	_ZNSt7__cxx1112basic_stringIcSt11char_traitsIcESaIcEE9_M_createERmm@PLT
	movq	8(%rsp), %rdx
	movdqa	.LC7(%rip), %xmm0
	movq	%rax, (%rbx)
	movq	%rdx, 16(%rbx)
	movb	$100, 16(%rax)
	movups	%xmm0, (%rax)
	movq	8(%rsp), %rax
	movq	(%rbx), %rdx
	movq	%rax, 8(%rbx)
	movb	$0, (%rdx,%rax)
	addq	$16, %rsp
	.cfi_def_cfa_offset 16
	movq	%rbx, %rax
	popq	%rbx
	.cfi_def_cfa_offset 8
	ret
	.cfi_endproc
.LFE2344:
	.size	_ZNK4asio5error6detail17addrinfo_category7messageB5cxx11Ei, .-_ZNK4asio5error6detail17addrinfo_category7messageB5cxx11Ei
	.section	.text._ZNK4asio5error6detail13misc_category7messageB5cxx11Ei,"axG",@progbits,_ZNK4asio5error6detail13misc_category7messageB5cxx11Ei,comdat
	.align 2
	.p2align 4
	.weak	_ZNK4asio5error6detail13misc_category7messageB5cxx11Ei
	.type	_ZNK4asio5error6detail13misc_category7messageB5cxx11Ei, @function
_ZNK4asio5error6detail13misc_category7messageB5cxx11Ei:
.LFB2354:
	.cfi_startproc
	cmpl	$1, %edx
	je	.L217
	cmpl	$2, %edx
	je	.L218
	leaq	16(%rdi), %rax
	subq	$40, %rsp
	.cfi_def_cfa_offset 48
	movq	%rax, (%rdi)
	cmpl	$3, %edx
	je	.L219
	cmpl	$4, %edx
	je	.L220
	movabsq	$8316298233121436513, %rcx
	movq	$15, 8(%rdi)
	movq	%rdi, %rax
	movq	%rcx, 16(%rdi)
	movabsq	$8245935278387127155, %rcx
	movq	%rcx, 23(%rdi)
	movb	$0, 31(%rdi)
	addq	$40, %rsp
	.cfi_def_cfa_offset 8
	ret
	.p2align 4,,10
	.p2align 3
.L217:
	leaq	16(%rdi), %rax
	movl	$1852141679, 24(%rdi)
	movabsq	$2340011850872286273, %rsi
	movq	%rax, (%rdi)
	movq	%rdi, %rax
	movq	%rsi, 16(%rdi)
	movq	$12, 8(%rdi)
	movb	$0, 28(%rdi)
	ret
	.p2align 4,,10
	.p2align 3
.L220:
	.cfi_def_cfa_offset 48
	leaq	24(%rsp), %rsi
	xorl	%edx, %edx
	movq	%rdi, 8(%rsp)
	movq	$57, 24(%rsp)
	call	_ZNSt7__cxx1112basic_stringIcSt11char_traitsIcESaIcEE9_M_createERmm@PLT
	movq	24(%rsp), %rdx
	movq	8(%rsp), %rdi
	movdqa	.LC12(%rip), %xmm0
	movq	%rax, (%rdi)
	movq	%rdx, 16(%rdi)
	movups	%xmm0, (%rax)
	movdqa	.LC13(%rip), %xmm0
	movups	%xmm0, 16(%rax)
	movdqa	.LC14(%rip), %xmm0
	movups	%xmm0, 32(%rax)
	movdqa	.LC15(%rip), %xmm0
	movups	%xmm0, 41(%rax)
	movq	24(%rsp), %rax
	movq	(%rdi), %rdx
	movq	%rax, 8(%rdi)
	movb	$0, (%rdx,%rax)
	movq	%rdi, %rax
	addq	$40, %rsp
	.cfi_def_cfa_offset 8
	ret
	.p2align 4,,10
	.p2align 3
.L218:
	leaq	16(%rdi), %rax
	movq	$11, 8(%rdi)
	movabsq	$7358994418594246213, %rsi
	movq	%rax, (%rdi)
	movq	%rdi, %rax
	movq	%rsi, 16(%rdi)
	movb	$0, 27(%rdi)
	movl	$1701603686, 23(%rdi)
	ret
	.p2align 4,,10
	.p2align 3
.L219:
	.cfi_def_cfa_offset 48
	leaq	24(%rsp), %rsi
	xorl	%edx, %edx
	movq	%rdi, 8(%rsp)
	movq	$17, 24(%rsp)
	call	_ZNSt7__cxx1112basic_stringIcSt11char_traitsIcESaIcEE9_M_createERmm@PLT
	movq	8(%rsp), %rdi
	movq	24(%rsp), %rdx
	movdqa	.LC11(%rip), %xmm0
	movq	%rax, (%rdi)
	movq	%rdx, 16(%rdi)
	movb	$100, 16(%rax)
	movups	%xmm0, (%rax)
	movq	24(%rsp), %rax
	movq	(%rdi), %rdx
	movq	%rax, 8(%rdi)
	movb	$0, (%rdx,%rax)
	movq	%rdi, %rax
	addq	$40, %rsp
	.cfi_def_cfa_offset 8
	ret
	.cfi_endproc
.LFE2354:
	.size	_ZNK4asio5error6detail13misc_category7messageB5cxx11Ei, .-_ZNK4asio5error6detail13misc_category7messageB5cxx11Ei
	.section	.text._ZNK4asio5error6detail14netdb_category7messageB5cxx11Ei,"axG",@progbits,_ZNK4asio5error6detail14netdb_category7messageB5cxx11Ei,comdat
	.align 2
	.p2align 4
	.weak	_ZNK4asio5error6detail14netdb_category7messageB5cxx11Ei
	.type	_ZNK4asio5error6detail14netdb_category7messageB5cxx11Ei, @function
_ZNK4asio5error6detail14netdb_category7messageB5cxx11Ei:
.LFB2334:
	.cfi_startproc
	pushq	%rbx
	.cfi_def_cfa_offset 16
	.cfi_offset 3, -16
	leaq	16(%rdi), %rax
	movq	%rdi, %rbx
	subq	$16, %rsp
	.cfi_def_cfa_offset 32
	movq	%rax, (%rdi)
	cmpl	$1, %edx
	je	.L228
	cmpl	$2, %edx
	je	.L229
	cmpl	$4, %edx
	je	.L230
	cmpl	$3, %edx
	je	.L231
	movq	$16, 8(%rsp)
	leaq	8(%rsp), %rsi
	xorl	%edx, %edx
	call	_ZNSt7__cxx1112basic_stringIcSt11char_traitsIcESaIcEE9_M_createERmm@PLT
	movq	8(%rsp), %rdx
	movdqa	.LC26(%rip), %xmm0
	movq	%rax, (%rbx)
	movq	%rdx, 16(%rbx)
	movups	%xmm0, (%rax)
	movq	8(%rsp), %rax
	movq	(%rbx), %rdx
	movq	%rax, 8(%rbx)
	movb	$0, (%rdx,%rax)
	addq	$16, %rsp
	.cfi_remember_state
	.cfi_def_cfa_offset 16
	movq	%rbx, %rax
	popq	%rbx
	.cfi_def_cfa_offset 8
	ret
	.p2align 4,,10
	.p2align 3
.L228:
	.cfi_restore_state
	movq	$30, 8(%rsp)
	leaq	8(%rsp), %rsi
	xorl	%edx, %edx
	call	_ZNSt7__cxx1112basic_stringIcSt11char_traitsIcESaIcEE9_M_createERmm@PLT
	movq	8(%rsp), %rdx
	movdqa	.LC16(%rip), %xmm0
	movq	%rax, (%rbx)
	movq	%rdx, 16(%rbx)
	movups	%xmm0, (%rax)
	movdqa	.LC17(%rip), %xmm0
	movups	%xmm0, 14(%rax)
	movq	8(%rsp), %rax
	movq	(%rbx), %rdx
	movq	%rax, 8(%rbx)
	movb	$0, (%rdx,%rax)
	addq	$16, %rsp
	.cfi_remember_state
	.cfi_def_cfa_offset 16
	movq	%rbx, %rax
	popq	%rbx
	.cfi_def_cfa_offset 8
	ret
	.p2align 4,,10
	.p2align 3
.L231:
	.cfi_restore_state
	movq	$55, 8(%rsp)
	leaq	8(%rsp), %rsi
	xorl	%edx, %edx
	call	_ZNSt7__cxx1112basic_stringIcSt11char_traitsIcESaIcEE9_M_createERmm@PLT
	movq	8(%rsp), %rdx
	movdqa	.LC23(%rip), %xmm0
	movabsq	$8103501230877974629, %rcx
	movq	%rax, (%rbx)
	movq	%rdx, 16(%rbx)
	movups	%xmm0, (%rax)
	movdqa	.LC24(%rip), %xmm0
	movups	%xmm0, 16(%rax)
	movdqa	.LC25(%rip), %xmm0
	movups	%xmm0, 32(%rax)
	movq	%rcx, 47(%rax)
	movq	8(%rsp), %rax
	movq	(%rbx), %rdx
	movq	%rax, 8(%rbx)
	movb	$0, (%rdx,%rax)
	addq	$16, %rsp
	.cfi_remember_state
	.cfi_def_cfa_offset 16
	movq	%rbx, %rax
	popq	%rbx
	.cfi_def_cfa_offset 8
	ret
	.p2align 4,,10
	.p2align 3
.L229:
	.cfi_restore_state
	movq	$51, 8(%rsp)
	leaq	8(%rsp), %rsi
	xorl	%edx, %edx
	call	_ZNSt7__cxx1112basic_stringIcSt11char_traitsIcESaIcEE9_M_createERmm@PLT
	movq	8(%rsp), %rdx
	movdqa	.LC16(%rip), %xmm0
	movq	%rax, (%rbx)
	movq	%rdx, 16(%rbx)
	movups	%xmm0, (%rax)
	movdqa	.LC18(%rip), %xmm0
	movups	%xmm0, 16(%rax)
	movdqa	.LC19(%rip), %xmm0
	movups	%xmm0, 32(%rax)
	movl	$1919251553, 47(%rax)
	movq	8(%rsp), %rax
	movq	(%rbx), %rdx
	movq	%rax, 8(%rbx)
	movb	$0, (%rdx,%rax)
	addq	$16, %rsp
	.cfi_remember_state
	.cfi_def_cfa_offset 16
	movq	%rbx, %rax
	popq	%rbx
	.cfi_def_cfa_offset 8
	ret
	.p2align 4,,10
	.p2align 3
.L230:
	.cfi_restore_state
	movq	$56, 8(%rsp)
	leaq	8(%rsp), %rsi
	xorl	%edx, %edx
	call	_ZNSt7__cxx1112basic_stringIcSt11char_traitsIcESaIcEE9_M_createERmm@PLT
	movq	8(%rsp), %rdx
	movdqa	.LC20(%rip), %xmm0
	movabsq	$7022344801645520244, %rcx
	movq	%rax, (%rbx)
	movq	%rdx, 16(%rbx)
	movups	%xmm0, (%rax)
	movdqa	.LC21(%rip), %xmm0
	movq	%rcx, 48(%rax)
	movups	%xmm0, 16(%rax)
	movdqa	.LC22(%rip), %xmm0
	movups	%xmm0, 32(%rax)
	movq	8(%rsp), %rax
	movq	(%rbx), %rdx
	movq	%rax, 8(%rbx)
	movb	$0, (%rdx,%rax)
	addq	$16, %rsp
	.cfi_def_cfa_offset 16
	movq	%rbx, %rax
	popq	%rbx
	.cfi_def_cfa_offset 8
	ret
	.cfi_endproc
.LFE2334:
	.size	_ZNK4asio5error6detail14netdb_category7messageB5cxx11Ei, .-_ZNK4asio5error6detail14netdb_category7messageB5cxx11Ei
	.section	.text._ZN4asio15system_categoryEv,"axG",@progbits,_ZN4asio15system_categoryEv,comdat
	.p2align 4
	.weak	_ZN4asio15system_categoryEv
	.type	_ZN4asio15system_categoryEv, @function
_ZN4asio15system_categoryEv:
.LFB2293:
	.cfi_startproc
	movq	_ZGVZN4asio15system_categoryEvE8instance@GOTPCREL(%rip), %rax
	movzbl	(%rax), %eax
	testb	%al, %al
	je	.L233
	movq	_ZZN4asio15system_categoryEvE8instance@GOTPCREL(%rip), %rax
	ret
	.p2align 4,,10
	.p2align 3
.L233:
	subq	$24, %rsp
	.cfi_def_cfa_offset 32
	movq	_ZGVZN4asio15system_categoryEvE8instance@GOTPCREL(%rip), %rdi
	call	__cxa_guard_acquire@PLT
	movq	_ZZN4asio15system_categoryEvE8instance@GOTPCREL(%rip), %rcx
	testl	%eax, %eax
	jne	.L238
	movq	%rcx, %rax
	addq	$24, %rsp
	.cfi_remember_state
	.cfi_def_cfa_offset 8
	ret
	.p2align 4,,10
	.p2align 3
.L238:
	.cfi_restore_state
	movq	_ZN4asio6detail15system_categoryD1Ev@GOTPCREL(%rip), %rdi
	movq	%rcx, %rsi
	movq	%rcx, 8(%rsp)
	leaq	__dso_handle(%rip), %rdx
	call	__cxa_atexit@PLT
	movq	_ZGVZN4asio15system_categoryEvE8instance@GOTPCREL(%rip), %rdi
	call	__cxa_guard_release@PLT
	movq	8(%rsp), %rcx
	addq	$24, %rsp
	.cfi_def_cfa_offset 8
	movq	%rcx, %rax
	ret
	.cfi_endproc
.LFE2293:
	.size	_ZN4asio15system_categoryEv, .-_ZN4asio15system_categoryEv
	.section	.rodata.str1.8,"aMS",@progbits,1
	.align 8
.LC27:
	.string	"/opt/PLC/OpenPLC_v3/utils/dnp3_src/cpp/libs/src/asiopal/TCPServer.cpp(57)"
	.section	.text.unlikely
	.align 2
.LCOLDB28:
	.text
.LHOTB28:
	.align 2
	.p2align 4
	.globl	_ZN7asiopal9TCPServer8ShutdownEv
	.type	_ZN7asiopal9TCPServer8ShutdownEv, @function
_ZN7asiopal9TCPServer8ShutdownEv:
.LFB7044:
	.cfi_startproc
	.cfi_personality 0x9b,DW.ref.__gxx_personality_v0
	.cfi_lsda 0x1b,.LLSDA7044
	pushq	%r15
	.cfi_def_cfa_offset 16
	.cfi_offset 15, -16
	pushq	%r14
	.cfi_def_cfa_offset 24
	.cfi_offset 14, -24
	movq	%rdi, %r14
	pushq	%r13
	.cfi_def_cfa_offset 32
	.cfi_offset 13, -32
	pushq	%r12
	.cfi_def_cfa_offset 40
	.cfi_offset 12, -40
	pushq	%rbp
	.cfi_def_cfa_offset 48
	.cfi_offset 6, -48
	pushq	%rbx
	.cfi_def_cfa_offset 56
	.cfi_offset 3, -56
	subq	$88, %rsp
	.cfi_def_cfa_offset 144
	movl	104(%rdi), %ebx
	cmpl	$-1, %ebx
	jne	.L243
.L277:
	movl	$-1, 104(%r14)
	movb	$0, 108(%r14)
.L242:
	addq	$88, %rsp
	.cfi_remember_state
	.cfi_def_cfa_offset 56
	popq	%rbx
	.cfi_def_cfa_offset 48
	popq	%rbp
	.cfi_def_cfa_offset 40
	popq	%r12
	.cfi_def_cfa_offset 32
	popq	%r13
	.cfi_def_cfa_offset 24
	popq	%r14
	.cfi_def_cfa_offset 16
	popq	%r15
	.cfi_def_cfa_offset 8
	ret
	.p2align 4,,10
	.p2align 3
.L243:
	.cfi_restore_state
	movq	112(%rdi), %rax
	testq	%rax, %rax
	je	.L245
	movq	128(%rdi), %rdx
	leaq	40(%rax), %r15
	movzbl	108(%rdi), %ebp
	movq	%r15, %rdi
	movq	%r15, 24(%rsp)
	movq	40(%rdx), %rcx
	movq	%rcx, 16(%rsp)
	call	pthread_mutex_lock@PLT
	movq	112(%r14), %r9
	cmpb	$0, 144(%r9)
	jne	.L353
	andl	$64, %ebp
	jne	.L354
.L248:
	movq	$0, 8(%rsp)
	xorl	%r15d, %r15d
	movl	$0, 4(%rsp)
.L249:
	movslq	4(%rsp), %rax
	salq	$4, %rax
	movq	96(%rax,%r9), %rbx
	testq	%rbx, %rbx
	je	.L349
	movq	_ZGVZN4asio15system_categoryEvE8instance@GOTPCREL(%rip), %r13
	movq	_ZZN4asio15system_categoryEvE8instance@GOTPCREL(%rip), %rbp
	movq	%rax, %r12
	jmp	.L261
	.p2align 4,,10
	.p2align 3
.L251:
	movq	112(%r14), %r9
	movl	$125, 24(%rbx)
	movq	%rbp, 32(%rbx)
	leaq	(%r9,%r12), %rdi
	movq	96(%rdi), %rax
	testq	%rax, %rax
	je	.L352
	movq	(%rax), %rdx
	movq	%rdx, 96(%rdi)
	testq	%rdx, %rdx
	je	.L256
	movq	$0, (%rax)
	movq	$0, (%rbx)
	testq	%r15, %r15
	je	.L294
	movq	%rbx, (%r15)
.L257:
	movq	%rbx, %r15
	movq	%rdx, %rbx
.L261:
	movzbl	0(%r13), %eax
	testb	%al, %al
	jne	.L251
	movq	%r13, %rdi
	call	__cxa_guard_acquire@PLT
	testl	%eax, %eax
	je	.L251
	movq	_ZN4asio6detail15system_categoryD1Ev@GOTPCREL(%rip), %rdi
	leaq	__dso_handle(%rip), %rdx
	movq	%rbp, %rsi
	call	__cxa_atexit@PLT
	movq	%r13, %rdi
	call	__cxa_guard_release@PLT
	jmp	.L251
	.p2align 4,,10
	.p2align 3
.L353:
	movq	%r15, %rdi
	call	pthread_mutex_unlock@PLT
.L247:
	movl	104(%r14), %ebx
	cmpl	$-1, %ebx
	je	.L277
.L245:
	call	__errno_location@PLT
	movl	%ebx, %edi
	movl	$0, (%rax)
	movq	%rax, %rbp
.LEHB4:
	call	close@PLT
	movq	_ZGVZN4asio15system_categoryEvE8instance@GOTPCREL(%rip), %r13
	movl	%eax, %r12d
	movzbl	0(%r13), %eax
	testb	%al, %al
	je	.L355
.L279:
	testl	%r12d, %r12d
	je	.L277
	movl	0(%rbp), %r12d
	movzbl	0(%r13), %eax
	testb	%al, %al
	je	.L356
.L282:
	cmpl	$11, %r12d
	je	.L284
	movzbl	0(%r13), %eax
	testb	%al, %al
	je	.L357
.L286:
	movl	$-1, 104(%r14)
	movb	$0, 108(%r14)
	testl	%r12d, %r12d
	je	.L242
	leaq	48(%rsp), %rsi
	leaq	24(%r14), %rdi
	movl	$2, 48(%rsp)
	call	_ZNK7openpal6Logger9IsEnabledERKNS_10LogFiltersE@PLT
	testb	%al, %al
	je	.L242
	movq	_ZZN4asio15system_categoryEvE8instance@GOTPCREL(%rip), %rsi
	movl	%r12d, %edx
	leaq	48(%rsp), %rdi
	call	_ZNK4asio6detail15system_category7messageB5cxx11Ei@PLT
.LEHE4:
	movq	48(%rsp), %rcx
	leaq	44(%rsp), %rsi
	leaq	.LC27(%rip), %rdx
	leaq	24(%r14), %rdi
	movl	$2, 44(%rsp)
.LEHB5:
	call	_ZN7openpal6Logger3LogERKNS_10LogFiltersEPKcS5_@PLT
.LEHE5:
	movq	48(%rsp), %rdi
	leaq	64(%rsp), %rax
	cmpq	%rax, %rdi
	je	.L242
	movq	64(%rsp), %rax
	leaq	1(%rax), %rsi
	call	_ZdlPvm@PLT
	addq	$88, %rsp
	.cfi_remember_state
	.cfi_def_cfa_offset 56
	popq	%rbx
	.cfi_def_cfa_offset 48
	popq	%rbp
	.cfi_def_cfa_offset 40
	popq	%r12
	.cfi_def_cfa_offset 32
	popq	%r13
	.cfi_def_cfa_offset 24
	popq	%r14
	.cfi_def_cfa_offset 16
	popq	%r15
	.cfi_def_cfa_offset 8
	ret
	.p2align 4,,10
	.p2align 3
.L355:
	.cfi_restore_state
	movq	%r13, %rdi
	call	__cxa_guard_acquire@PLT
	testl	%eax, %eax
	je	.L279
	movq	_ZZN4asio15system_categoryEvE8instance@GOTPCREL(%rip), %rsi
	movq	_ZN4asio6detail15system_categoryD1Ev@GOTPCREL(%rip), %rdi
	leaq	__dso_handle(%rip), %rdx
	call	__cxa_atexit@PLT
	movq	%r13, %rdi
	call	__cxa_guard_release@PLT
	jmp	.L279
	.p2align 4,,10
	.p2align 3
.L356:
	movq	%r13, %rdi
	call	__cxa_guard_acquire@PLT
	testl	%eax, %eax
	je	.L282
	movq	_ZZN4asio15system_categoryEvE8instance@GOTPCREL(%rip), %rsi
	movq	_ZN4asio6detail15system_categoryD1Ev@GOTPCREL(%rip), %rdi
	leaq	__dso_handle(%rip), %rdx
	call	__cxa_atexit@PLT
	movq	%r13, %rdi
	call	__cxa_guard_release@PLT
	jmp	.L282
	.p2align 4,,10
	.p2align 3
.L256:
	movq	$0, 104(%rdi)
	movq	$0, (%rax)
.L352:
	movq	$0, (%rbx)
	testq	%r15, %r15
	je	.L358
	movq	%rbx, (%r15)
.L259:
	addl	$1, 4(%rsp)
	cmpl	$3, 4(%rsp)
	je	.L260
.L359:
	movq	%rbx, %r15
	jmp	.L249
	.p2align 4,,10
	.p2align 3
.L294:
	movq	%rbx, 8(%rsp)
	jmp	.L257
	.p2align 4,,10
	.p2align 3
.L358:
	addl	$1, 4(%rsp)
	movq	%rbx, 8(%rsp)
	cmpl	$3, 4(%rsp)
	jne	.L359
.L260:
	movl	$-1, 88(%r9)
	movq	24(%rsp), %rdi
	movb	$1, 144(%r9)
	call	pthread_mutex_unlock@PLT
	movq	16(%rsp), %r12
	movq	112(%r14), %rbp
	leaq	120(%r12), %r15
	movq	%r15, %rdi
	call	pthread_mutex_lock@PLT
	cmpq	160(%r12), %rbp
	je	.L360
.L262:
	movq	32(%rbp), %rax
	testq	%rax, %rax
	je	.L263
	movq	24(%rbp), %rdx
	movq	%rdx, 24(%rax)
.L263:
	movq	24(%rbp), %rax
	testq	%rax, %rax
	je	.L264
	movq	32(%rbp), %rdx
	movq	%rdx, 32(%rax)
.L264:
	movq	16(%rsp), %r12
	movq	%r15, %rdi
	movq	168(%r12), %rax
	movq	$0, 32(%rbp)
	movq	%rax, 24(%rbp)
	movq	%rbp, 168(%r12)
	call	pthread_mutex_unlock@PLT
	movq	$0, 112(%r14)
	cmpq	$0, 8(%rsp)
	je	.L247
	movq	40(%r12), %rbp
	cmpb	$0, 40(%rbp)
	je	.L266
	data16	leaq	_ZN4asio6detail15keyword_tss_ptrINS0_10call_stackINS0_15task_io_serviceENS0_27task_io_service_thread_infoEE7contextEE6value_E@tlsgd(%rip), %rdi
	.value	0x6666
	rex64
	call	__tls_get_addr@PLT
	movq	(%rax), %rax
	testq	%rax, %rax
	jne	.L269
	jmp	.L266
	.p2align 4
	.p2align 4,,10
	.p2align 3
.L267:
	movq	16(%rax), %rax
	testq	%rax, %rax
	je	.L266
.L269:
	cmpq	(%rax), %rbp
	jne	.L267
	movq	8(%rax), %rax
	testq	%rax, %rax
	je	.L266
	movq	16(%rax), %rdx
	movq	8(%rsp), %rcx
	testq	%rdx, %rdx
	je	.L270
	movq	%rcx, (%rdx)
.L271:
	movq	%rbx, 16(%rax)
	jmp	.L247
	.p2align 4,,10
	.p2align 3
.L266:
	leaq	48(%rbp), %r13
	movq	%r13, %rdi
	call	pthread_mutex_lock@PLT
	movq	200(%rbp), %rax
	testq	%rax, %rax
	je	.L272
	movq	8(%rsp), %rcx
	movq	%rcx, (%rax)
.L273:
	movq	136(%rbp), %rax
	movq	%rbx, 200(%rbp)
	movq	%rax, %rdx
	orq	$1, %rdx
	movq	%rdx, 136(%rbp)
	cmpq	$1, %rax
	ja	.L361
	cmpb	$0, 176(%rbp)
	jne	.L276
	movq	144(%rbp), %rax
	testq	%rax, %rax
	je	.L276
	movb	$1, 176(%rbp)
	leaq	88(%rax), %rdx
	leaq	48(%rsp), %rcx
	movl	$3, %esi
	movq	%rdx, 52(%rsp)
	movl	88(%rax), %edx
	movl	$-2147483639, 48(%rsp)
	movl	96(%rax), %edi
	call	epoll_ctl@PLT
.L276:
	movq	%r13, %rdi
	call	pthread_mutex_unlock@PLT
	jmp	.L247
	.p2align 4,,10
	.p2align 3
.L357:
	movq	%r13, %rdi
	call	__cxa_guard_acquire@PLT
	testl	%eax, %eax
	je	.L286
	movq	_ZZN4asio15system_categoryEvE8instance@GOTPCREL(%rip), %rsi
	movq	_ZN4asio6detail15system_categoryD1Ev@GOTPCREL(%rip), %rdi
	leaq	__dso_handle(%rip), %rdx
	call	__cxa_atexit@PLT
	movq	%r13, %rdi
	call	__cxa_guard_release@PLT
	jmp	.L286
	.p2align 4,,10
	.p2align 3
.L349:
	movq	%r15, %rbx
	jmp	.L259
	.p2align 4,,10
	.p2align 3
.L354:
	movq	16(%rsp), %rax
	movl	$0, 48(%rsp)
	leaq	48(%rsp), %rcx
	movl	%ebx, %edx
	movq	$0, 52(%rsp)
	movl	$2, %esi
	movl	96(%rax), %edi
	call	epoll_ctl@PLT
	movq	112(%r14), %r9
	jmp	.L248
	.p2align 4,,10
	.p2align 3
.L360:
	movq	24(%rbp), %rax
	movq	16(%rsp), %rcx
	movq	%rax, 160(%rcx)
	jmp	.L262
	.p2align 4,,10
	.p2align 3
.L284:
	movl	%ebx, %edi
	leaq	48(%rsp), %rdx
	movl	$21537, %esi
	xorl	%eax, %eax
	movl	$0, 48(%rsp)
	call	ioctl@PLT
	andb	$-4, 108(%r14)
	movl	%ebx, %edi
	movl	$0, 0(%rbp)
.LEHB6:
	call	close@PLT
.LEHE6:
	movl	%eax, %ebx
	movzbl	0(%r13), %eax
	testb	%al, %al
	je	.L362
.L288:
	movl	0(%rbp), %r12d
	testl	%ebx, %ebx
	jne	.L286
	jmp	.L277
.L361:
	movq	%r13, %rdi
	call	pthread_mutex_unlock@PLT
	leaq	88(%rbp), %rdi
	call	pthread_cond_signal@PLT
	jmp	.L247
.L272:
	movq	8(%rsp), %rax
	movq	%rax, 192(%rbp)
	jmp	.L273
.L362:
	movq	%r13, %rdi
	call	__cxa_guard_acquire@PLT
	testl	%eax, %eax
	je	.L288
	movq	_ZZN4asio15system_categoryEvE8instance@GOTPCREL(%rip), %rsi
	movq	_ZN4asio6detail15system_categoryD1Ev@GOTPCREL(%rip), %rdi
	leaq	__dso_handle(%rip), %rdx
	call	__cxa_atexit@PLT
	movq	%r13, %rdi
	call	__cxa_guard_release@PLT
	jmp	.L288
.L270:
	movq	%rcx, 8(%rax)
	jmp	.L271
.L295:
	movq	%rax, %rbp
	jmp	.L293
	.section	.gcc_except_table,"a",@progbits
.LLSDA7044:
	.byte	0xff
	.byte	0xff
	.byte	0x1
	.uleb128 .LLSDACSE7044-.LLSDACSB7044
.LLSDACSB7044:
	.uleb128 .LEHB4-.LFB7044
	.uleb128 .LEHE4-.LEHB4
	.uleb128 0
	.uleb128 0
	.uleb128 .LEHB5-.LFB7044
	.uleb128 .LEHE5-.LEHB5
	.uleb128 .L295-.LFB7044
	.uleb128 0
	.uleb128 .LEHB6-.LFB7044
	.uleb128 .LEHE6-.LEHB6
	.uleb128 0
	.uleb128 0
.LLSDACSE7044:
	.text
	.cfi_endproc
	.section	.text.unlikely
	.cfi_startproc
	.cfi_personality 0x9b,DW.ref.__gxx_personality_v0
	.cfi_lsda 0x1b,.LLSDAC7044
	.type	_ZN7asiopal9TCPServer8ShutdownEv.cold, @function
_ZN7asiopal9TCPServer8ShutdownEv.cold:
.LFSB7044:
.L293:
	.cfi_def_cfa_offset 144
	.cfi_offset 3, -56
	.cfi_offset 6, -48
	.cfi_offset 12, -40
	.cfi_offset 13, -32
	.cfi_offset 14, -24
	.cfi_offset 15, -16
	leaq	48(%rsp), %rdi
	call	_ZNSt7__cxx1112basic_stringIcSt11char_traitsIcESaIcEE10_M_disposeEv@PLT
	movq	%rbp, %rdi
.LEHB7:
	call	_Unwind_Resume@PLT
.LEHE7:
	.cfi_endproc
.LFE7044:
	.section	.gcc_except_table
.LLSDAC7044:
	.byte	0xff
	.byte	0xff
	.byte	0x1
	.uleb128 .LLSDACSEC7044-.LLSDACSBC7044
.LLSDACSBC7044:
	.uleb128 .LEHB7-.LCOLDB28
	.uleb128 .LEHE7-.LEHB7
	.uleb128 0
	.uleb128 0
.LLSDACSEC7044:
	.section	.text.unlikely
	.text
	.size	_ZN7asiopal9TCPServer8ShutdownEv, .-_ZN7asiopal9TCPServer8ShutdownEv
	.section	.text.unlikely
	.size	_ZN7asiopal9TCPServer8ShutdownEv.cold, .-_ZN7asiopal9TCPServer8ShutdownEv.cold
.LCOLDE28:
	.text
.LHOTE28:
	.section	.text._ZN4asio6detail13epoll_reactor32perform_io_cleanup_on_block_exitD2Ev,"axG",@progbits,_ZN4asio6detail13epoll_reactor32perform_io_cleanup_on_block_exitD5Ev,comdat
	.align 2
	.p2align 4
	.weak	_ZN4asio6detail13epoll_reactor32perform_io_cleanup_on_block_exitD2Ev
	.type	_ZN4asio6detail13epoll_reactor32perform_io_cleanup_on_block_exitD2Ev, @function
_ZN4asio6detail13epoll_reactor32perform_io_cleanup_on_block_exitD2Ev:
.LFB3263:
	.cfi_startproc
	.cfi_personality 0x9b,DW.ref.__gxx_personality_v0
	.cfi_lsda 0x1b,.LLSDA3263
	pushq	%r12
	.cfi_def_cfa_offset 16
	.cfi_offset 12, -16
	pushq	%rbp
	.cfi_def_cfa_offset 24
	.cfi_offset 6, -24
	pushq	%rbx
	.cfi_def_cfa_offset 32
	.cfi_offset 3, -32
	movq	%rdi, %rbx
	subq	$32, %rsp
	.cfi_def_cfa_offset 64
	cmpq	$0, 24(%rdi)
	je	.L364
	movq	8(%rdi), %r12
	testq	%r12, %r12
	je	.L363
	movq	(%rdi), %rax
	movq	40(%rax), %rbp
	cmpb	$0, 40(%rbp)
	je	.L366
	data16	leaq	_ZN4asio6detail15keyword_tss_ptrINS0_10call_stackINS0_15task_io_serviceENS0_27task_io_service_thread_infoEE7contextEE6value_E@tlsgd(%rip), %rdi
	.value	0x6666
	rex64
	call	__tls_get_addr@PLT
	movq	(%rax), %rax
	testq	%rax, %rax
	jne	.L369
	.p2align 4
	.p2align 3
.L366:
	leaq	48(%rbp), %r12
	movq	%r12, %rdi
	call	pthread_mutex_lock@PLT
	movq	8(%rbx), %rax
	testq	%rax, %rax
	je	.L372
	movq	200(%rbp), %rdx
	testq	%rdx, %rdx
	je	.L373
	movq	%rax, (%rdx)
.L374:
	movq	16(%rbx), %rax
	pxor	%xmm0, %xmm0
	movq	%rax, 200(%rbp)
	movups	%xmm0, 8(%rbx)
.L372:
	movq	136(%rbp), %rax
	movq	%rax, %rdx
	orq	$1, %rdx
	movq	%rdx, 136(%rbp)
	cmpq	$1, %rax
	jbe	.L375
	movq	%r12, %rdi
	call	pthread_mutex_unlock@PLT
	leaq	88(%rbp), %rdi
	call	pthread_cond_signal@PLT
.L379:
	movq	8(%rbx), %rsi
	testq	%rsi, %rsi
	je	.L363
	movq	%rsi, 8(%rsp)
	leaq	16(%rsp), %rbp
	call	_ZNSt3_V215system_categoryEv@PLT
	movq	8(%rsp), %rsi
	movq	%rax, %r12
	jmp	.L382
	.p2align 4,,10
	.p2align 3
.L380:
	movq	$0, (%rsi)
	movq	8(%rsi), %rax
	xorl	%ecx, %ecx
	movq	%rbp, %rdx
	movl	$0, 16(%rsp)
	xorl	%edi, %edi
	movq	%r12, 24(%rsp)
	call	*%rax
	movq	8(%rbx), %rsi
	testq	%rsi, %rsi
	je	.L363
.L382:
	movq	(%rsi), %rax
	movq	%rax, 8(%rbx)
	testq	%rax, %rax
	jne	.L380
	movq	$0, 16(%rbx)
	jmp	.L380
	.p2align 4
	.p2align 4,,10
	.p2align 3
.L367:
	movq	16(%rax), %rax
	testq	%rax, %rax
	je	.L366
.L369:
	cmpq	(%rax), %rbp
	jne	.L367
	movq	8(%rax), %rax
	testq	%rax, %rax
	je	.L366
	movq	16(%rax), %rdx
	testq	%rdx, %rdx
	je	.L370
	movq	%r12, (%rdx)
.L371:
	movq	16(%rbx), %rdx
	movq	%rdx, 16(%rax)
.L363:
	addq	$32, %rsp
	.cfi_remember_state
	.cfi_def_cfa_offset 32
	popq	%rbx
	.cfi_def_cfa_offset 24
	popq	%rbp
	.cfi_def_cfa_offset 16
	popq	%r12
	.cfi_def_cfa_offset 8
	ret
	.p2align 4,,10
	.p2align 3
.L364:
	.cfi_restore_state
	movq	(%rdi), %rax
	movq	40(%rax), %rax
	lock addq	$1, 184(%rax)
	jmp	.L379
	.p2align 4,,10
	.p2align 3
.L375:
	cmpb	$0, 176(%rbp)
	jne	.L377
	movq	144(%rbp), %rax
	testq	%rax, %rax
	je	.L377
	movb	$1, 176(%rbp)
	leaq	88(%rax), %rdx
	leaq	16(%rsp), %rbp
	movl	$3, %esi
	movq	%rdx, 20(%rsp)
	movl	88(%rax), %edx
	movq	%rbp, %rcx
	movl	$-2147483639, 16(%rsp)
	movl	96(%rax), %edi
	call	epoll_ctl@PLT
.L377:
	movq	%r12, %rdi
	call	pthread_mutex_unlock@PLT
	jmp	.L379
.L373:
	movq	%rax, 192(%rbp)
	jmp	.L374
.L370:
	movq	%r12, 8(%rax)
	jmp	.L371
	.cfi_endproc
.LFE3263:
	.section	.gcc_except_table
.LLSDA3263:
	.byte	0xff
	.byte	0xff
	.byte	0x1
	.uleb128 .LLSDACSE3263-.LLSDACSB3263
.LLSDACSB3263:
.LLSDACSE3263:
	.section	.text._ZN4asio6detail13epoll_reactor32perform_io_cleanup_on_block_exitD2Ev,"axG",@progbits,_ZN4asio6detail13epoll_reactor32perform_io_cleanup_on_block_exitD5Ev,comdat
	.size	_ZN4asio6detail13epoll_reactor32perform_io_cleanup_on_block_exitD2Ev, .-_ZN4asio6detail13epoll_reactor32perform_io_cleanup_on_block_exitD2Ev
	.weak	_ZN4asio6detail13epoll_reactor32perform_io_cleanup_on_block_exitD1Ev
	.set	_ZN4asio6detail13epoll_reactor32perform_io_cleanup_on_block_exitD1Ev,_ZN4asio6detail13epoll_reactor32perform_io_cleanup_on_block_exitD2Ev
	.section	.text._ZN4asio6detail13epoll_reactor16descriptor_state11do_completeEPNS0_15task_io_serviceEPNS0_25task_io_service_operationERKSt10error_codem,"axG",@progbits,_ZN4asio6detail13epoll_reactor16descriptor_state11do_completeEPNS0_15task_io_serviceEPNS0_25task_io_service_operationERKSt10error_codem,comdat
	.align 2
	.p2align 4
	.weak	_ZN4asio6detail13epoll_reactor16descriptor_state11do_completeEPNS0_15task_io_serviceEPNS0_25task_io_service_operationERKSt10error_codem
	.type	_ZN4asio6detail13epoll_reactor16descriptor_state11do_completeEPNS0_15task_io_serviceEPNS0_25task_io_service_operationERKSt10error_codem, @function
_ZN4asio6detail13epoll_reactor16descriptor_state11do_completeEPNS0_15task_io_serviceEPNS0_25task_io_service_operationERKSt10error_codem:
.LFB3269:
	.cfi_startproc
	.cfi_personality 0x9b,DW.ref.__gxx_personality_v0
	.cfi_lsda 0x1b,.LLSDA3269
	testq	%rdi, %rdi
	je	.L449
	pushq	%r15
	.cfi_def_cfa_offset 16
	.cfi_offset 15, -16
	leaq	40(%rsi), %rax
	pushq	%r14
	.cfi_def_cfa_offset 24
	.cfi_offset 14, -24
	xorl	%r14d, %r14d
	pushq	%r13
	.cfi_def_cfa_offset 32
	.cfi_offset 13, -32
	pushq	%r12
	.cfi_def_cfa_offset 40
	.cfi_offset 12, -40
	movq	%rsi, %r12
	pushq	%rbp
	.cfi_def_cfa_offset 48
	.cfi_offset 6, -48
	subq	$-128, %r12
	xorl	%ebp, %ebp
	pushq	%rbx
	.cfi_def_cfa_offset 56
	.cfi_offset 3, -56
	subq	$104, %rsp
	.cfi_def_cfa_offset 160
	movq	%rdi, 32(%rsp)
	movq	%rax, %rdi
	movq	%rcx, 8(%rsp)
	movq	%rdx, 40(%rsp)
	movq	%rax, 16(%rsp)
	call	pthread_mutex_lock@PLT
	movq	-48(%r12), %rax
	movq	_ZZN4asio6detail13epoll_reactor16descriptor_state10perform_ioEjE4flag@GOTPCREL(%rip), %r15
	movq	$0, 88(%rsp)
	movq	%rax, 24(%rsp)
	leaq	-12(%r15), %r13
	movq	%rax, 64(%rsp)
.L409:
	movl	8(%r15), %eax
	orl	$24, %eax
	testl	%eax, 8(%rsp)
	jne	.L454
.L402:
	subq	$4, %r15
	subq	$16, %r12
	cmpq	%r13, %r15
	jne	.L409
	movq	%rbp, 88(%rsp)
	testq	%rbp, %rbp
	je	.L455
	movq	0(%rbp), %rbx
	testq	%rbx, %rbx
	je	.L456
	movq	$0, 0(%rbp)
	movq	16(%rsp), %rdi
	call	pthread_mutex_unlock@PLT
	movq	24(%rsp), %rax
	movq	40(%rax), %r12
	cmpb	$0, 40(%r12)
	je	.L413
	data16	leaq	_ZN4asio6detail15keyword_tss_ptrINS0_10call_stackINS0_15task_io_serviceENS0_27task_io_service_thread_infoEE7contextEE6value_E@tlsgd(%rip), %rdi
	.value	0x6666
	rex64
	call	__tls_get_addr@PLT
	movq	(%rax), %rax
	testq	%rax, %rax
	jne	.L416
	jmp	.L413
	.p2align 4
	.p2align 4,,10
	.p2align 3
.L414:
	movq	16(%rax), %rax
	testq	%rax, %rax
	je	.L413
.L416:
	cmpq	(%rax), %r12
	jne	.L414
	movq	8(%rax), %rax
	testq	%rax, %rax
	je	.L413
	movq	16(%rax), %rdx
	testq	%rdx, %rdx
	je	.L417
	movq	%rbx, (%rdx)
.L418:
	movq	%r14, 16(%rax)
	jmp	.L412
	.p2align 4,,10
	.p2align 3
.L454:
	movq	(%r12), %rax
	testq	%rax, %rax
	je	.L402
	movq	%r14, %rbx
	movq	%rax, %r14
	jmp	.L403
	.p2align 4,,10
	.p2align 3
.L404:
	movq	(%rax), %rdx
	movq	%rdx, (%r12)
	testq	%rdx, %rdx
	je	.L406
	movq	$0, (%rax)
	movq	$0, (%r14)
	testq	%rbx, %rbx
	je	.L429
	movq	%r14, (%rbx)
.L407:
	movq	%r14, %rbx
	movq	%rdx, %r14
.L403:
	movq	%r14, %rdi
.LEHB8:
	call	*48(%r14)
.LEHE8:
	testb	%al, %al
	je	.L428
	movq	(%r12), %rax
	testq	%rax, %rax
	jne	.L404
	movq	$0, (%r14)
	testq	%rbx, %rbx
	je	.L457
.L408:
	movq	%r14, (%rbx)
	jmp	.L402
	.p2align 4,,10
	.p2align 3
.L406:
	movq	$0, 8(%r12)
	movq	$0, (%rax)
	movq	$0, (%r14)
	testq	%rbx, %rbx
	jne	.L408
.L457:
	movq	%r14, %rbp
	jmp	.L402
	.p2align 4,,10
	.p2align 3
.L429:
	movq	%r14, %rbp
	jmp	.L407
	.p2align 4,,10
	.p2align 3
.L449:
	.cfi_def_cfa_offset 8
	.cfi_restore 3
	.cfi_restore 6
	.cfi_restore 12
	.cfi_restore 13
	.cfi_restore 14
	.cfi_restore 15
	ret
	.p2align 4,,10
	.p2align 3
.L428:
	.cfi_def_cfa_offset 160
	.cfi_offset 3, -56
	.cfi_offset 6, -48
	.cfi_offset 12, -40
	.cfi_offset 13, -32
	.cfi_offset 14, -24
	.cfi_offset 15, -16
	movq	%rbx, %r14
	jmp	.L402
	.p2align 4,,10
	.p2align 3
.L456:
	movq	16(%rsp), %rdi
	call	pthread_mutex_unlock@PLT
.L412:
	movq	8(%rbp), %rax
	movq	40(%rsp), %rdx
	movq	%rbp, %rsi
	xorl	%ecx, %ecx
	movq	32(%rsp), %rdi
	addq	$104, %rsp
	.cfi_remember_state
	.cfi_def_cfa_offset 56
	popq	%rbx
	.cfi_restore 3
	.cfi_def_cfa_offset 48
	popq	%rbp
	.cfi_restore 6
	.cfi_def_cfa_offset 40
	popq	%r12
	.cfi_restore 12
	.cfi_def_cfa_offset 32
	popq	%r13
	.cfi_restore 13
	.cfi_def_cfa_offset 24
	popq	%r14
	.cfi_restore 14
	.cfi_def_cfa_offset 16
	popq	%r15
	.cfi_restore 15
	.cfi_def_cfa_offset 8
.LEHB9:
	jmp	*%rax
	.p2align 4,,10
	.p2align 3
.L455:
	.cfi_restore_state
	movq	16(%rsp), %rdi
	call	pthread_mutex_unlock@PLT
	movq	24(%rsp), %rax
	movq	40(%rax), %rax
	lock addq	$1, 184(%rax)
	addq	$104, %rsp
	.cfi_remember_state
	.cfi_def_cfa_offset 56
	popq	%rbx
	.cfi_def_cfa_offset 48
	popq	%rbp
	.cfi_def_cfa_offset 40
	popq	%r12
	.cfi_def_cfa_offset 32
	popq	%r13
	.cfi_def_cfa_offset 24
	popq	%r14
	.cfi_def_cfa_offset 16
	popq	%r15
	.cfi_def_cfa_offset 8
	ret
	.p2align 4,,10
	.p2align 3
.L413:
	.cfi_restore_state
	leaq	48(%r12), %r13
	movq	%r13, %rdi
	call	pthread_mutex_lock@PLT
	movq	200(%r12), %rax
	testq	%rax, %rax
	je	.L420
	movq	%rbx, (%rax)
.L421:
	movq	136(%r12), %rax
	movq	%r14, 200(%r12)
	movq	%rax, %rdx
	orq	$1, %rdx
	movq	%rdx, 136(%r12)
	cmpq	$1, %rax
	jbe	.L422
	movq	%r13, %rdi
	call	pthread_mutex_unlock@PLT
	leaq	88(%r12), %rdi
	call	pthread_cond_signal@PLT
	jmp	.L412
	.p2align 4,,10
	.p2align 3
.L422:
	cmpb	$0, 176(%r12)
	jne	.L424
	movq	144(%r12), %rax
	testq	%rax, %rax
	je	.L424
	leaq	88(%rax), %rdx
	movl	96(%rax), %edi
	movb	$1, 176(%r12)
	leaq	52(%rsp), %rcx
	movq	%rdx, 56(%rsp)
	movl	88(%rax), %edx
	movl	$3, %esi
	movl	$-2147483639, 52(%rsp)
	call	epoll_ctl@PLT
.L424:
	movq	%r13, %rdi
	call	pthread_mutex_unlock@PLT
	jmp	.L412
.L417:
	movq	%rbx, 8(%rax)
	jmp	.L418
.L420:
	movq	%rbx, 192(%r12)
	jmp	.L421
.L430:
	movq	%rax, %r12
.L425:
	movq	16(%rsp), %rdi
	call	pthread_mutex_unlock@PLT
	leaq	64(%rsp), %rdi
	movq	%rbp, 72(%rsp)
	movq	%rbx, 80(%rsp)
	call	_ZN4asio6detail13epoll_reactor32perform_io_cleanup_on_block_exitD1Ev@PLT
	movq	%r12, %rdi
	call	_Unwind_Resume@PLT
.LEHE9:
	.cfi_endproc
.LFE3269:
	.section	.gcc_except_table
.LLSDA3269:
	.byte	0xff
	.byte	0xff
	.byte	0x1
	.uleb128 .LLSDACSE3269-.LLSDACSB3269
.LLSDACSB3269:
	.uleb128 .LEHB8-.LFB3269
	.uleb128 .LEHE8-.LEHB8
	.uleb128 .L430-.LFB3269
	.uleb128 0
	.uleb128 .LEHB9-.LFB3269
	.uleb128 .LEHE9-.LEHB9
	.uleb128 0
	.uleb128 0
.LLSDACSE3269:
	.section	.text._ZN4asio6detail13epoll_reactor16descriptor_state11do_completeEPNS0_15task_io_serviceEPNS0_25task_io_service_operationERKSt10error_codem,"axG",@progbits,_ZN4asio6detail13epoll_reactor16descriptor_state11do_completeEPNS0_15task_io_serviceEPNS0_25task_io_service_operationERKSt10error_codem,comdat
	.size	_ZN4asio6detail13epoll_reactor16descriptor_state11do_completeEPNS0_15task_io_serviceEPNS0_25task_io_service_operationERKSt10error_codem, .-_ZN4asio6detail13epoll_reactor16descriptor_state11do_completeEPNS0_15task_io_serviceEPNS0_25task_io_service_operationERKSt10error_codem
	.section	.text._ZN4asio6detail13socket_holderD2Ev,"axG",@progbits,_ZN4asio6detail13socket_holderD5Ev,comdat
	.align 2
	.p2align 4
	.weak	_ZN4asio6detail13socket_holderD2Ev
	.type	_ZN4asio6detail13socket_holderD2Ev, @function
_ZN4asio6detail13socket_holderD2Ev:
.LFB3758:
	.cfi_startproc
	.cfi_personality 0x9b,DW.ref.__gxx_personality_v0
	.cfi_lsda 0x1b,.LLSDA3758
	pushq	%r14
	.cfi_def_cfa_offset 16
	.cfi_offset 14, -16
	pushq	%rbx
	.cfi_def_cfa_offset 24
	.cfi_offset 3, -24
	subq	$40, %rsp
	.cfi_def_cfa_offset 64
	movl	(%rdi), %ebx
	cmpl	$-1, %ebx
	jne	.L488
.L458:
	addq	$40, %rsp
	.cfi_remember_state
	.cfi_def_cfa_offset 24
	popq	%rbx
	.cfi_def_cfa_offset 16
	popq	%r14
	.cfi_def_cfa_offset 8
	ret
	.p2align 4,,10
	.p2align 3
.L488:
	.cfi_restore_state
	call	__errno_location@PLT
	movl	%ebx, %edi
	movl	$0, (%rax)
	movq	%rax, %r14
	call	close@PLT
	movl	%eax, %ecx
	movq	_ZGVZN4asio15system_categoryEvE8instance@GOTPCREL(%rip), %rax
	movzbl	(%rax), %eax
	testb	%al, %al
	je	.L489
.L462:
	testl	%ecx, %ecx
	je	.L458
	movq	_ZGVZN4asio15system_categoryEvE8instance@GOTPCREL(%rip), %rax
	movl	(%r14), %ecx
	movzbl	(%rax), %eax
	testb	%al, %al
	je	.L490
.L466:
	cmpl	$11, %ecx
	je	.L468
	movq	_ZGVZN4asio15system_categoryEvE8instance@GOTPCREL(%rip), %rax
	movzbl	(%rax), %eax
	testb	%al, %al
	jne	.L458
	movq	_ZGVZN4asio15system_categoryEvE8instance@GOTPCREL(%rip), %rdi
	call	__cxa_guard_acquire@PLT
	testl	%eax, %eax
	je	.L458
	movq	_ZN4asio6detail15system_categoryD1Ev@GOTPCREL(%rip), %rdi
	movq	_ZZN4asio15system_categoryEvE8instance@GOTPCREL(%rip), %rsi
	leaq	__dso_handle(%rip), %rdx
	call	__cxa_atexit@PLT
	movq	_ZGVZN4asio15system_categoryEvE8instance@GOTPCREL(%rip), %rdi
	addq	$40, %rsp
	.cfi_remember_state
	.cfi_def_cfa_offset 24
	popq	%rbx
	.cfi_def_cfa_offset 16
	popq	%r14
	.cfi_def_cfa_offset 8
.LEHB10:
	jmp	__cxa_guard_release@PLT
.LEHE10:
	.p2align 4,,10
	.p2align 3
.L489:
	.cfi_restore_state
	movq	_ZGVZN4asio15system_categoryEvE8instance@GOTPCREL(%rip), %rdi
	movl	%ecx, 12(%rsp)
	call	__cxa_guard_acquire@PLT
	movl	12(%rsp), %ecx
	testl	%eax, %eax
	je	.L462
	movq	_ZZN4asio15system_categoryEvE8instance@GOTPCREL(%rip), %rsi
	movq	_ZN4asio6detail15system_categoryD1Ev@GOTPCREL(%rip), %rdi
	leaq	__dso_handle(%rip), %rdx
	call	__cxa_atexit@PLT
	movq	_ZGVZN4asio15system_categoryEvE8instance@GOTPCREL(%rip), %rdi
	call	__cxa_guard_release@PLT
	movl	12(%rsp), %ecx
	jmp	.L462
	.p2align 4,,10
	.p2align 3
.L490:
	movq	_ZGVZN4asio15system_categoryEvE8instance@GOTPCREL(%rip), %rdi
	movl	%ecx, 12(%rsp)
	call	__cxa_guard_acquire@PLT
	movl	12(%rsp), %ecx
	testl	%eax, %eax
	je	.L466
	movq	_ZZN4asio15system_categoryEvE8instance@GOTPCREL(%rip), %rsi
	movq	_ZN4asio6detail15system_categoryD1Ev@GOTPCREL(%rip), %rdi
	leaq	__dso_handle(%rip), %rdx
	call	__cxa_atexit@PLT
	movq	_ZGVZN4asio15system_categoryEvE8instance@GOTPCREL(%rip), %rdi
	call	__cxa_guard_release@PLT
	movl	12(%rsp), %ecx
	jmp	.L466
	.p2align 4,,10
	.p2align 3
.L468:
	leaq	28(%rsp), %rdx
	movl	$21537, %esi
	movl	%ebx, %edi
	xorl	%eax, %eax
	movl	$0, 28(%rsp)
	call	ioctl@PLT
	movl	$0, (%r14)
	movl	%ebx, %edi
	call	close@PLT
	movq	_ZGVZN4asio15system_categoryEvE8instance@GOTPCREL(%rip), %rax
	movzbl	(%rax), %eax
	testb	%al, %al
	jne	.L458
	movq	_ZGVZN4asio15system_categoryEvE8instance@GOTPCREL(%rip), %rdi
	call	__cxa_guard_acquire@PLT
	testl	%eax, %eax
	je	.L458
	movq	_ZZN4asio15system_categoryEvE8instance@GOTPCREL(%rip), %rsi
	movq	_ZN4asio6detail15system_categoryD1Ev@GOTPCREL(%rip), %rdi
	leaq	__dso_handle(%rip), %rdx
	call	__cxa_atexit@PLT
	movq	_ZGVZN4asio15system_categoryEvE8instance@GOTPCREL(%rip), %rdi
	call	__cxa_guard_release@PLT
	jmp	.L458
	.cfi_endproc
.LFE3758:
	.section	.gcc_except_table
.LLSDA3758:
	.byte	0xff
	.byte	0xff
	.byte	0x1
	.uleb128 .LLSDACSE3758-.LLSDACSB3758
.LLSDACSB3758:
	.uleb128 .LEHB10-.LFB3758
	.uleb128 .LEHE10-.LEHB10
	.uleb128 0
	.uleb128 0
.LLSDACSE3758:
	.section	.text._ZN4asio6detail13socket_holderD2Ev,"axG",@progbits,_ZN4asio6detail13socket_holderD5Ev,comdat
	.size	_ZN4asio6detail13socket_holderD2Ev, .-_ZN4asio6detail13socket_holderD2Ev
	.weak	_ZN4asio6detail13socket_holderD1Ev
	.set	_ZN4asio6detail13socket_holderD1Ev,_ZN4asio6detail13socket_holderD2Ev
	.section	.text._ZN4asio6detail28reactive_socket_service_base7destroyERNS1_24base_implementation_typeE,"axG",@progbits,_ZN4asio6detail28reactive_socket_service_base7destroyERNS1_24base_implementation_typeE,comdat
	.align 2
	.p2align 4
	.weak	_ZN4asio6detail28reactive_socket_service_base7destroyERNS1_24base_implementation_typeE
	.type	_ZN4asio6detail28reactive_socket_service_base7destroyERNS1_24base_implementation_typeE, @function
_ZN4asio6detail28reactive_socket_service_base7destroyERNS1_24base_implementation_typeE:
.LFB3841:
	.cfi_startproc
	pushq	%r15
	.cfi_def_cfa_offset 16
	.cfi_offset 15, -16
	pushq	%r14
	.cfi_def_cfa_offset 24
	.cfi_offset 14, -24
	pushq	%r13
	.cfi_def_cfa_offset 32
	.cfi_offset 13, -32
	pushq	%r12
	.cfi_def_cfa_offset 40
	.cfi_offset 12, -40
	pushq	%rbp
	.cfi_def_cfa_offset 48
	.cfi_offset 6, -48
	pushq	%rbx
	.cfi_def_cfa_offset 56
	.cfi_offset 3, -56
	subq	$56, %rsp
	.cfi_def_cfa_offset 112
	movl	(%rsi), %ebx
	cmpl	$-1, %ebx
	jne	.L599
.L491:
	addq	$56, %rsp
	.cfi_remember_state
	.cfi_def_cfa_offset 56
	popq	%rbx
	.cfi_def_cfa_offset 48
	popq	%rbp
	.cfi_def_cfa_offset 40
	popq	%r12
	.cfi_def_cfa_offset 32
	popq	%r13
	.cfi_def_cfa_offset 24
	popq	%r14
	.cfi_def_cfa_offset 16
	popq	%r15
	.cfi_def_cfa_offset 8
	ret
	.p2align 4,,10
	.p2align 3
.L599:
	.cfi_restore_state
	movq	8(%rsi), %rax
	movzbl	4(%rsi), %r12d
	movq	%rsi, %rbp
	testq	%rax, %rax
	je	.L494
	movq	(%rdi), %rcx
	leaq	40(%rax), %r14
	movq	%r14, %rdi
	movq	%r14, 24(%rsp)
	movq	%rcx, 16(%rsp)
	call	pthread_mutex_lock@PLT
	movq	8(%rbp), %r9
	cmpb	$0, 144(%r9)
	jne	.L525
	andl	$64, %r12d
	jne	.L600
.L497:
	movq	$0, 8(%rsp)
	xorl	%r15d, %r15d
	movl	$0, 4(%rsp)
.L498:
	movslq	4(%rsp), %rax
	salq	$4, %rax
	movq	96(%rax,%r9), %rbx
	testq	%rbx, %rbx
	je	.L594
	movq	_ZGVZN4asio15system_categoryEvE8instance@GOTPCREL(%rip), %r14
	movq	_ZZN4asio15system_categoryEvE8instance@GOTPCREL(%rip), %r12
	movq	%rax, %r13
	jmp	.L510
	.p2align 4,,10
	.p2align 3
.L500:
	movq	8(%rbp), %r9
	movl	$125, 24(%rbx)
	movq	%r12, 32(%rbx)
	leaq	(%r9,%r13), %rdi
	movq	96(%rdi), %rax
	testq	%rax, %rax
	je	.L598
	movq	(%rax), %rdx
	movq	%rdx, 96(%rdi)
	testq	%rdx, %rdx
	je	.L505
	movq	$0, (%rax)
	movq	$0, (%rbx)
	testq	%r15, %r15
	je	.L541
	movq	%rbx, (%r15)
.L506:
	movq	%rbx, %r15
	movq	%rdx, %rbx
.L510:
	movzbl	(%r14), %eax
	testb	%al, %al
	jne	.L500
	movq	%r14, %rdi
	call	__cxa_guard_acquire@PLT
	testl	%eax, %eax
	je	.L500
	movq	_ZN4asio6detail15system_categoryD1Ev@GOTPCREL(%rip), %rdi
	leaq	__dso_handle(%rip), %rdx
	movq	%r12, %rsi
	call	__cxa_atexit@PLT
	movq	%r14, %rdi
	call	__cxa_guard_release@PLT
	jmp	.L500
	.p2align 4,,10
	.p2align 3
.L515:
	leaq	48(%r12), %r14
	movq	%r14, %rdi
	call	pthread_mutex_lock@PLT
	movq	200(%r12), %rax
	testq	%rax, %rax
	je	.L521
	movq	8(%rsp), %rcx
	movq	%rcx, (%rax)
.L522:
	movq	136(%r12), %rax
	movq	%rbx, 200(%r12)
	movq	%rax, %rdx
	orq	$1, %rdx
	movq	%rdx, 136(%r12)
	cmpq	$1, %rax
	ja	.L601
	cmpb	$0, 176(%r12)
	jne	.L525
	movq	144(%r12), %rax
	testq	%rax, %rax
	je	.L525
	leaq	88(%rax), %rdx
	leaq	32(%rsp), %rcx
	movl	$3, %esi
	movb	$1, 176(%r12)
	movq	%rdx, 36(%rsp)
	movl	88(%rax), %edx
	movl	$-2147483639, 32(%rsp)
	movl	96(%rax), %edi
	call	epoll_ctl@PLT
	.p2align 4
	.p2align 3
.L525:
	movq	%r14, %rdi
	call	pthread_mutex_unlock@PLT
.L496:
	movl	0(%rbp), %ebx
	cmpl	$-1, %ebx
	je	.L491
	movzbl	4(%rbp), %r12d
.L494:
	call	__errno_location@PLT
	movq	%rax, %r13
	testb	$8, %r12b
	jne	.L595
	movq	_ZGVZN4asio15system_categoryEvE8instance@GOTPCREL(%rip), %r14
.L527:
	movl	$0, 0(%r13)
	movl	%ebx, %edi
	call	close@PLT
	movl	%eax, %r12d
	movzbl	(%r14), %eax
	testb	%al, %al
	je	.L602
.L532:
	testl	%r12d, %r12d
	je	.L491
	movl	0(%r13), %r12d
	movzbl	(%r14), %eax
	testb	%al, %al
	je	.L603
.L535:
	cmpl	$11, %r12d
	je	.L537
	movzbl	(%r14), %eax
	testb	%al, %al
	jne	.L491
	movq	%r14, %rdi
	call	__cxa_guard_acquire@PLT
	testl	%eax, %eax
	je	.L491
	movq	_ZN4asio6detail15system_categoryD1Ev@GOTPCREL(%rip), %rdi
	movq	_ZZN4asio15system_categoryEvE8instance@GOTPCREL(%rip), %rsi
	leaq	__dso_handle(%rip), %rdx
	call	__cxa_atexit@PLT
	addq	$56, %rsp
	.cfi_remember_state
	.cfi_def_cfa_offset 56
	movq	%r14, %rdi
	popq	%rbx
	.cfi_def_cfa_offset 48
	popq	%rbp
	.cfi_def_cfa_offset 40
	popq	%r12
	.cfi_def_cfa_offset 32
	popq	%r13
	.cfi_def_cfa_offset 24
	popq	%r14
	.cfi_def_cfa_offset 16
	popq	%r15
	.cfi_def_cfa_offset 8
	jmp	__cxa_guard_release@PLT
	.p2align 4,,10
	.p2align 3
.L505:
	.cfi_restore_state
	movq	$0, 104(%rdi)
	movq	$0, (%rax)
.L598:
	movq	$0, (%rbx)
	testq	%r15, %r15
	je	.L604
	movq	%rbx, (%r15)
.L508:
	addl	$1, 4(%rsp)
	cmpl	$3, 4(%rsp)
	je	.L509
.L605:
	movq	%rbx, %r15
	jmp	.L498
	.p2align 4,,10
	.p2align 3
.L541:
	movq	%rbx, 8(%rsp)
	jmp	.L506
	.p2align 4,,10
	.p2align 3
.L604:
	addl	$1, 4(%rsp)
	movq	%rbx, 8(%rsp)
	cmpl	$3, 4(%rsp)
	jne	.L605
.L509:
	movl	$-1, 88(%r9)
	movq	24(%rsp), %rdi
	movb	$1, 144(%r9)
	call	pthread_mutex_unlock@PLT
	movq	16(%rsp), %r14
	movq	8(%rbp), %r12
	leaq	120(%r14), %r15
	movq	%r15, %rdi
	call	pthread_mutex_lock@PLT
	cmpq	160(%r14), %r12
	je	.L606
.L511:
	movq	32(%r12), %rax
	testq	%rax, %rax
	je	.L512
	movq	24(%r12), %rdx
	movq	%rdx, 24(%rax)
.L512:
	movq	24(%r12), %rax
	testq	%rax, %rax
	je	.L513
	movq	32(%r12), %rdx
	movq	%rdx, 32(%rax)
.L513:
	movq	16(%rsp), %r14
	movq	%r15, %rdi
	movq	168(%r14), %rax
	movq	$0, 32(%r12)
	movq	%rax, 24(%r12)
	movq	%r12, 168(%r14)
	call	pthread_mutex_unlock@PLT
	movq	$0, 8(%rbp)
	cmpq	$0, 8(%rsp)
	je	.L496
	movq	40(%r14), %r12
	cmpb	$0, 40(%r12)
	je	.L515
	data16	leaq	_ZN4asio6detail15keyword_tss_ptrINS0_10call_stackINS0_15task_io_serviceENS0_27task_io_service_thread_infoEE7contextEE6value_E@tlsgd(%rip), %rdi
	.value	0x6666
	rex64
	call	__tls_get_addr@PLT
	movq	(%rax), %rax
	testq	%rax, %rax
	jne	.L518
	jmp	.L515
	.p2align 4
	.p2align 4,,10
	.p2align 3
.L516:
	movq	16(%rax), %rax
	testq	%rax, %rax
	je	.L515
.L518:
	cmpq	(%rax), %r12
	jne	.L516
	movq	8(%rax), %rax
	testq	%rax, %rax
	je	.L515
	movq	16(%rax), %rdx
	movq	8(%rsp), %rcx
	testq	%rdx, %rdx
	je	.L519
	movq	%rcx, (%rdx)
.L520:
	movq	%rbx, 16(%rax)
	jmp	.L496
	.p2align 4,,10
	.p2align 3
.L602:
	movq	%r14, %rdi
	call	__cxa_guard_acquire@PLT
	testl	%eax, %eax
	je	.L532
	movq	_ZZN4asio15system_categoryEvE8instance@GOTPCREL(%rip), %rsi
	movq	_ZN4asio6detail15system_categoryD1Ev@GOTPCREL(%rip), %rdi
	leaq	__dso_handle(%rip), %rdx
	call	__cxa_atexit@PLT
	movq	%r14, %rdi
	call	__cxa_guard_release@PLT
	jmp	.L532
	.p2align 4,,10
	.p2align 3
.L595:
	orl	$8, %r12d
	leaq	32(%rsp), %rcx
	movl	$13, %edx
	movl	%ebx, %edi
	movb	%r12b, 4(%rbp)
	movl	$8, %r8d
	movl	$1, %esi
	movq	$0, 32(%rsp)
	movl	$0, (%rax)
	call	setsockopt@PLT
	movq	_ZGVZN4asio15system_categoryEvE8instance@GOTPCREL(%rip), %r14
	movzbl	(%r14), %eax
	testb	%al, %al
	jne	.L527
	movq	%r14, %rdi
	call	__cxa_guard_acquire@PLT
	testl	%eax, %eax
	je	.L527
	movq	_ZZN4asio15system_categoryEvE8instance@GOTPCREL(%rip), %rsi
	movq	_ZN4asio6detail15system_categoryD1Ev@GOTPCREL(%rip), %rdi
	leaq	__dso_handle(%rip), %rdx
	call	__cxa_atexit@PLT
	movq	%r14, %rdi
	call	__cxa_guard_release@PLT
	jmp	.L527
	.p2align 4,,10
	.p2align 3
.L594:
	movq	%r15, %rbx
	jmp	.L508
	.p2align 4,,10
	.p2align 3
.L600:
	movq	16(%rsp), %rax
	movl	$0, 32(%rsp)
	leaq	32(%rsp), %rcx
	movl	%ebx, %edx
	movq	$0, 36(%rsp)
	movl	$2, %esi
	movl	96(%rax), %edi
	call	epoll_ctl@PLT
	movq	8(%rbp), %r9
	jmp	.L497
	.p2align 4,,10
	.p2align 3
.L606:
	movq	24(%r12), %rax
	movq	16(%rsp), %rcx
	movq	%rax, 160(%rcx)
	jmp	.L511
.L601:
	movq	%r14, %rdi
	call	pthread_mutex_unlock@PLT
	leaq	88(%r12), %rdi
	call	pthread_cond_signal@PLT
	jmp	.L496
.L603:
	movq	%r14, %rdi
	call	__cxa_guard_acquire@PLT
	testl	%eax, %eax
	je	.L535
	movq	_ZZN4asio15system_categoryEvE8instance@GOTPCREL(%rip), %rsi
	movq	_ZN4asio6detail15system_categoryD1Ev@GOTPCREL(%rip), %rdi
	leaq	__dso_handle(%rip), %rdx
	call	__cxa_atexit@PLT
	movq	%r14, %rdi
	call	__cxa_guard_release@PLT
	jmp	.L535
.L537:
	leaq	32(%rsp), %rdx
	movl	$21537, %esi
	movl	%ebx, %edi
	xorl	%eax, %eax
	movl	$0, 32(%rsp)
	call	ioctl@PLT
	andb	$-4, 4(%rbp)
	movl	%ebx, %edi
	movl	$0, 0(%r13)
	call	close@PLT
	movzbl	(%r14), %eax
	testb	%al, %al
	jne	.L491
	movq	%r14, %rdi
	call	__cxa_guard_acquire@PLT
	testl	%eax, %eax
	je	.L491
	movq	_ZZN4asio15system_categoryEvE8instance@GOTPCREL(%rip), %rsi
	movq	_ZN4asio6detail15system_categoryD1Ev@GOTPCREL(%rip), %rdi
	leaq	__dso_handle(%rip), %rdx
	call	__cxa_atexit@PLT
	movq	%r14, %rdi
	call	__cxa_guard_release@PLT
	jmp	.L491
.L521:
	movq	8(%rsp), %rax
	movq	%rax, 192(%r12)
	jmp	.L522
.L519:
	movq	%rcx, 8(%rax)
	jmp	.L520
	.cfi_endproc
.LFE3841:
	.size	_ZN4asio6detail28reactive_socket_service_base7destroyERNS1_24base_implementation_typeE, .-_ZN4asio6detail28reactive_socket_service_base7destroyERNS1_24base_implementation_typeE
	.section	.text._ZN4asio6detail14strand_service16on_dispatch_exitD2Ev,"axG",@progbits,_ZN4asio6detail14strand_service16on_dispatch_exitD5Ev,comdat
	.align 2
	.p2align 4
	.weak	_ZN4asio6detail14strand_service16on_dispatch_exitD2Ev
	.type	_ZN4asio6detail14strand_service16on_dispatch_exitD2Ev, @function
_ZN4asio6detail14strand_service16on_dispatch_exitD2Ev:
.LFB6401:
	.cfi_startproc
	pushq	%rbp
	.cfi_def_cfa_offset 16
	.cfi_offset 6, -16
	movq	%rdi, %rbp
	pushq	%rbx
	.cfi_def_cfa_offset 24
	.cfi_offset 3, -24
	subq	$56, %rsp
	.cfi_def_cfa_offset 80
	movq	8(%rdi), %rax
	leaq	24(%rax), %rdi
	call	pthread_mutex_lock@PLT
	movq	8(%rbp), %rdi
	movq	72(%rdi), %rbx
	testq	%rbx, %rbx
	je	.L633
	movq	96(%rdi), %rax
	testq	%rax, %rax
	je	.L610
	movq	%rbx, (%rax)
	movq	88(%rdi), %rbx
.L611:
	movq	80(%rdi), %rax
	pxor	%xmm0, %xmm0
	movups	%xmm0, 72(%rdi)
	movq	%rax, 96(%rdi)
.L609:
	testq	%rbx, %rbx
	setne	64(%rdi)
	addq	$24, %rdi
	call	pthread_mutex_unlock@PLT
	testq	%rbx, %rbx
	je	.L607
	movdqu	0(%rbp), %xmm0
	movq	0(%rbp), %rbx
	movdqa	%xmm0, %xmm1
	movhlps	%xmm0, %xmm2
	punpckhqdq	%xmm0, %xmm1
	movq	%xmm2, %rbp
	movaps	%xmm1, 16(%rsp)
	cmpb	$0, 40(%rbx)
	je	.L613
	data16	leaq	_ZN4asio6detail15keyword_tss_ptrINS0_10call_stackINS0_15task_io_serviceENS0_27task_io_service_thread_infoEE7contextEE6value_E@tlsgd(%rip), %rdi
	.value	0x6666
	rex64
	call	__tls_get_addr@PLT
	movq	(%rax), %rax
	testq	%rax, %rax
	jne	.L616
	jmp	.L613
	.p2align 4
	.p2align 4,,10
	.p2align 3
.L614:
	movq	16(%rax), %rax
	testq	%rax, %rax
	je	.L613
.L616:
	cmpq	(%rax), %rbx
	jne	.L614
	movq	8(%rax), %rax
	testq	%rax, %rax
	je	.L613
	movq	16(%rax), %rdx
	addq	$1, 24(%rax)
	movq	$0, 0(%rbp)
	testq	%rdx, %rdx
	je	.L617
	movq	%rbp, (%rdx)
	movq	%rbp, 16(%rax)
.L607:
	addq	$56, %rsp
	.cfi_remember_state
	.cfi_def_cfa_offset 24
	popq	%rbx
	.cfi_def_cfa_offset 16
	popq	%rbp
	.cfi_def_cfa_offset 8
	ret
	.p2align 4,,10
	.p2align 3
.L610:
	.cfi_restore_state
	movq	%rbx, 88(%rdi)
	jmp	.L611
	.p2align 4,,10
	.p2align 3
.L613:
	lock addq	$1, 184(%rbx)
	leaq	48(%rbx), %r8
	movq	%r8, %rdi
	movq	%r8, 8(%rsp)
	call	pthread_mutex_lock@PLT
	movq	200(%rbx), %rax
	movq	8(%rsp), %r8
	movq	$0, 0(%rbp)
	testq	%rax, %rax
	je	.L618
	movq	%rbp, (%rax)
	movq	%rbp, 200(%rbx)
.L619:
	movq	136(%rbx), %rax
	movq	%rax, %rdx
	orq	$1, %rdx
	movq	%rdx, 136(%rbx)
	cmpq	$1, %rax
	ja	.L634
	cmpb	$0, 176(%rbx)
	jne	.L621
	movq	144(%rbx), %rax
	testq	%rax, %rax
	je	.L621
	leaq	88(%rax), %rdx
	movb	$1, 176(%rbx)
	movl	96(%rax), %edi
	leaq	36(%rsp), %rcx
	movq	%rdx, 40(%rsp)
	movl	88(%rax), %edx
	movl	$3, %esi
	movq	%r8, 8(%rsp)
	movl	$-2147483639, 36(%rsp)
	call	epoll_ctl@PLT
	movq	8(%rsp), %r8
.L621:
	addq	$56, %rsp
	.cfi_remember_state
	.cfi_def_cfa_offset 24
	movq	%r8, %rdi
	popq	%rbx
	.cfi_def_cfa_offset 16
	popq	%rbp
	.cfi_def_cfa_offset 8
	jmp	pthread_mutex_unlock@PLT
	.p2align 4,,10
	.p2align 3
.L633:
	.cfi_restore_state
	movq	88(%rdi), %rbx
	jmp	.L609
	.p2align 4,,10
	.p2align 3
.L634:
	movq	%r8, %rdi
	call	pthread_mutex_unlock@PLT
	addq	$56, %rsp
	.cfi_remember_state
	.cfi_def_cfa_offset 24
	leaq	88(%rbx), %rdi
	popq	%rbx
	.cfi_def_cfa_offset 16
	popq	%rbp
	.cfi_def_cfa_offset 8
	jmp	pthread_cond_signal@PLT
	.p2align 4,,10
	.p2align 3
.L618:
	.cfi_restore_state
	movdqa	16(%rsp), %xmm3
	movups	%xmm3, 192(%rbx)
	jmp	.L619
	.p2align 4,,10
	.p2align 3
.L617:
	movdqa	16(%rsp), %xmm4
	movups	%xmm4, 8(%rax)
	jmp	.L607
	.cfi_endproc
.LFE6401:
	.size	_ZN4asio6detail14strand_service16on_dispatch_exitD2Ev, .-_ZN4asio6detail14strand_service16on_dispatch_exitD2Ev
	.weak	_ZN4asio6detail14strand_service16on_dispatch_exitD1Ev
	.set	_ZN4asio6detail14strand_service16on_dispatch_exitD1Ev,_ZN4asio6detail14strand_service16on_dispatch_exitD2Ev
	.section	.text._ZNSt16_Sp_counted_baseILN9__gnu_cxx12_Lock_policyE2EE24_M_release_last_use_coldEv,"axG",@progbits,_ZNSt16_Sp_counted_baseILN9__gnu_cxx12_Lock_policyE2EE24_M_release_last_use_coldEv,comdat
	.align 2
	.p2align 4
	.weak	_ZNSt16_Sp_counted_baseILN9__gnu_cxx12_Lock_policyE2EE24_M_release_last_use_coldEv
	.type	_ZNSt16_Sp_counted_baseILN9__gnu_cxx12_Lock_policyE2EE24_M_release_last_use_coldEv, @function
_ZNSt16_Sp_counted_baseILN9__gnu_cxx12_Lock_policyE2EE24_M_release_last_use_coldEv:
.LFB7339:
	.cfi_startproc
	pushq	%rbx
	.cfi_def_cfa_offset 16
	.cfi_offset 3, -16
	movq	(%rdi), %rax
	movq	%rdi, %rbx
	call	*16(%rax)
	movq	__libc_single_threaded@GOTPCREL(%rip), %rax
	cmpb	$0, (%rax)
	je	.L636
	movl	12(%rbx), %eax
	leal	-1(%rax), %edx
	movl	%edx, 12(%rbx)
.L637:
	cmpl	$1, %eax
	je	.L640
	popq	%rbx
	.cfi_remember_state
	.cfi_def_cfa_offset 8
	ret
	.p2align 4,,10
	.p2align 3
.L640:
	.cfi_restore_state
	movq	(%rbx), %rax
	movq	%rbx, %rdi
	popq	%rbx
	.cfi_remember_state
	.cfi_def_cfa_offset 8
	movq	24(%rax), %rax
	jmp	*%rax
	.p2align 4,,10
	.p2align 3
.L636:
	.cfi_restore_state
	movl	$-1, %eax
	lock xaddl	%eax, 12(%rbx)
	jmp	.L637
	.cfi_endproc
.LFE7339:
	.size	_ZNSt16_Sp_counted_baseILN9__gnu_cxx12_Lock_policyE2EE24_M_release_last_use_coldEv, .-_ZNSt16_Sp_counted_baseILN9__gnu_cxx12_Lock_policyE2EE24_M_release_last_use_coldEv
	.section	.text._ZNSt16_Sp_counted_baseILN9__gnu_cxx12_Lock_policyE2EE10_M_releaseEv,"axG",@progbits,_ZNSt16_Sp_counted_baseILN9__gnu_cxx12_Lock_policyE2EE10_M_releaseEv,comdat
	.align 2
	.p2align 4
	.weak	_ZNSt16_Sp_counted_baseILN9__gnu_cxx12_Lock_policyE2EE10_M_releaseEv
	.type	_ZNSt16_Sp_counted_baseILN9__gnu_cxx12_Lock_policyE2EE10_M_releaseEv, @function
_ZNSt16_Sp_counted_baseILN9__gnu_cxx12_Lock_policyE2EE10_M_releaseEv:
.LFB1705:
	.cfi_startproc
	movabsq	$4294967297, %rax
	movq	8(%rdi), %rdx
	cmpq	%rax, %rdx
	je	.L649
	movq	__libc_single_threaded@GOTPCREL(%rip), %rax
	cmpb	$0, (%rax)
	je	.L643
	movl	8(%rdi), %eax
	leal	-1(%rax), %edx
	movl	%edx, 8(%rdi)
.L644:
	cmpl	$1, %eax
	je	.L650
	ret
	.p2align 4,,10
	.p2align 3
.L643:
	leaq	8(%rdi), %rcx
	movl	$-1, %eax
	lock xaddl	%eax, (%rcx)
	jmp	.L644
	.p2align 4,,10
	.p2align 3
.L649:
	subq	$24, %rsp
	.cfi_def_cfa_offset 32
	movq	(%rdi), %rax
	movq	$0, 8(%rdi)
	movq	%rdi, 8(%rsp)
	call	*16(%rax)
	movq	8(%rsp), %rdi
	movq	(%rdi), %rax
	movq	24(%rax), %rax
	addq	$24, %rsp
	.cfi_def_cfa_offset 8
	jmp	*%rax
	.p2align 4,,10
	.p2align 3
.L650:
	jmp	_ZNSt16_Sp_counted_baseILN9__gnu_cxx12_Lock_policyE2EE24_M_release_last_use_coldEv@PLT
	.cfi_endproc
.LFE1705:
	.size	_ZNSt16_Sp_counted_baseILN9__gnu_cxx12_Lock_policyE2EE10_M_releaseEv, .-_ZNSt16_Sp_counted_baseILN9__gnu_cxx12_Lock_policyE2EE10_M_releaseEv
	.section	.text.unlikely
	.align 2
	.type	_ZN4asio6detail17rewrapped_handlerINS0_7binder1INS0_15wrapped_handlerINS_10io_service6strandEZN7asiopal9TCPServer11StartAcceptEvEUlSt10error_codeE_NS0_26is_continuation_if_runningEEES8_EES9_ED2Ev, @function
_ZN4asio6detail17rewrapped_handlerINS0_7binder1INS0_15wrapped_handlerINS_10io_service6strandEZN7asiopal9TCPServer11StartAcceptEvEUlSt10error_codeE_NS0_26is_continuation_if_runningEEES8_EES9_ED2Ev:
.LFB9223:
	.cfi_startproc
	pushq	%rbp
	.cfi_def_cfa_offset 16
	.cfi_offset 6, -16
	movq	%rdi, %rbp
	pushq	%rbx
	.cfi_def_cfa_offset 24
	.cfi_offset 3, -24
	pushq	%r8
	.cfi_def_cfa_offset 32
	movq	40(%rdi), %rbx
	testq	%rbx, %rbx
	je	.L653
	movq	8(%rbx), %rcx
	leaq	8(%rbx), %rdx
	movabsq	$4294967297, %rax
	cmpq	%rax, %rcx
	jne	.L654
	movq	(%rbx), %rax
	xorl	%edi, %edi
	movq	%rdi, 8(%rbx)
	movq	%rbx, %rdi
	call	*16(%rax)
	movq	(%rbx), %rax
	movq	%rbx, %rdi
	call	*24(%rax)
	jmp	.L653
.L654:
	movq	__libc_single_threaded@GOTPCREL(%rip), %rax
	cmpb	$0, (%rax)
	je	.L655
	movl	8(%rbx), %eax
	leal	-1(%rax), %edx
	movl	%edx, 8(%rbx)
	jmp	.L656
.L655:
	movl	$-1, %eax
	lock xaddl	%eax, (%rdx)
.L656:
	decl	%eax
	jne	.L653
	movq	%rbx, %rdi
	call	_ZNSt16_Sp_counted_baseILN9__gnu_cxx12_Lock_policyE2EE24_M_release_last_use_coldEv@PLT
.L653:
	movq	8(%rbp), %rbx
	testq	%rbx, %rbx
	je	.L651
	movq	8(%rbx), %rcx
	leaq	8(%rbx), %rdx
	movabsq	$4294967297, %rax
	cmpq	%rax, %rcx
	jne	.L660
	movq	(%rbx), %rax
	xorl	%ecx, %ecx
	movq	%rbx, %rdi
	movq	%rcx, 8(%rbx)
	call	*16(%rax)
	movq	(%rbx), %rax
	movq	%rbx, %rdi
	movq	24(%rax), %rax
	popq	%rsi
	.cfi_remember_state
	.cfi_def_cfa_offset 24
	popq	%rbx
	.cfi_def_cfa_offset 16
	popq	%rbp
	.cfi_def_cfa_offset 8
	jmp	*%rax
.L660:
	.cfi_restore_state
	movq	__libc_single_threaded@GOTPCREL(%rip), %rax
	cmpb	$0, (%rax)
	je	.L661
	movl	8(%rbx), %eax
	leal	-1(%rax), %edx
	movl	%edx, 8(%rbx)
	jmp	.L662
.L661:
	movl	$-1, %eax
	lock xaddl	%eax, (%rdx)
.L662:
	decl	%eax
	jne	.L651
	popq	%rdx
	.cfi_remember_state
	.cfi_def_cfa_offset 24
	movq	%rbx, %rdi
	popq	%rbx
	.cfi_def_cfa_offset 16
	popq	%rbp
	.cfi_def_cfa_offset 8
	jmp	_ZNSt16_Sp_counted_baseILN9__gnu_cxx12_Lock_policyE2EE24_M_release_last_use_coldEv@PLT
.L651:
	.cfi_restore_state
	popq	%rax
	.cfi_def_cfa_offset 24
	popq	%rbx
	.cfi_def_cfa_offset 16
	popq	%rbp
	.cfi_def_cfa_offset 8
	ret
	.cfi_endproc
.LFE9223:
	.size	_ZN4asio6detail17rewrapped_handlerINS0_7binder1INS0_15wrapped_handlerINS_10io_service6strandEZN7asiopal9TCPServer11StartAcceptEvEUlSt10error_codeE_NS0_26is_continuation_if_runningEEES8_EES9_ED2Ev, .-_ZN4asio6detail17rewrapped_handlerINS0_7binder1INS0_15wrapped_handlerINS_10io_service6strandEZN7asiopal9TCPServer11StartAcceptEvEUlSt10error_codeE_NS0_26is_continuation_if_runningEEES8_EES9_ED2Ev
	.set	_ZN4asio6detail17rewrapped_handlerINS0_7binder1INS0_15wrapped_handlerINS_10io_service6strandEZN7asiopal9TCPServer11StartAcceptEvEUlSt10error_codeE_NS0_26is_continuation_if_runningEEES8_EES9_ED1Ev,_ZN4asio6detail17rewrapped_handlerINS0_7binder1INS0_15wrapped_handlerINS_10io_service6strandEZN7asiopal9TCPServer11StartAcceptEvEUlSt10error_codeE_NS0_26is_continuation_if_runningEEES8_EES9_ED2Ev
	.align 2
	.type	_ZN4asio6detail18completion_handlerINS0_7binder1IZN7asiopal9TCPServer11StartAcceptEvEUlSt10error_codeE_S5_EEE3ptr5resetEv, @function
_ZN4asio6detail18completion_handlerINS0_7binder1IZN7asiopal9TCPServer11StartAcceptEvEUlSt10error_codeE_S5_EEE3ptr5resetEv:
.LFB9332:
	.cfi_startproc
	pushq	%rbp
	.cfi_def_cfa_offset 16
	.cfi_offset 6, -16
	movq	%rdi, %rbp
	pushq	%rbx
	.cfi_def_cfa_offset 24
	.cfi_offset 3, -24
	pushq	%r8
	.cfi_def_cfa_offset 32
	movq	16(%rdi), %rax
	testq	%rax, %rax
	je	.L666
	movq	32(%rax), %rbx
	testq	%rbx, %rbx
	je	.L668
	movq	8(%rbx), %rcx
	leaq	8(%rbx), %rdx
	movabsq	$4294967297, %rax
	cmpq	%rax, %rcx
	jne	.L669
	movq	(%rbx), %rax
	xorl	%esi, %esi
	movq	%rbx, %rdi
	movq	%rsi, 8(%rbx)
	call	*16(%rax)
	movq	(%rbx), %rax
	movq	%rbx, %rdi
	call	*24(%rax)
	jmp	.L668
.L669:
	movq	__libc_single_threaded@GOTPCREL(%rip), %rax
	cmpb	$0, (%rax)
	je	.L670
	movl	8(%rbx), %eax
	leal	-1(%rax), %edx
	movl	%edx, 8(%rbx)
	jmp	.L671
.L670:
	movl	$-1, %eax
	lock xaddl	%eax, (%rdx)
.L671:
	decl	%eax
	jne	.L668
	movq	%rbx, %rdi
	call	_ZNSt16_Sp_counted_baseILN9__gnu_cxx12_Lock_policyE2EE24_M_release_last_use_coldEv@PLT
.L668:
	xorl	%ecx, %ecx
	movq	%rcx, 16(%rbp)
.L666:
	movq	8(%rbp), %rbx
	testq	%rbx, %rbx
	je	.L665
	data16	leaq	_ZN4asio6detail15keyword_tss_ptrINS0_10call_stackINS0_15task_io_serviceENS0_27task_io_service_thread_infoEE7contextEE6value_E@tlsgd(%rip), %rdi
	.value	0x6666
	rex64
	call	__tls_get_addr@PLT
	movq	(%rax), %rax
	testq	%rax, %rax
	je	.L674
	movq	8(%rax), %rax
	testq	%rax, %rax
	je	.L674
	cmpq	$0, (%rax)
	jne	.L674
	movb	56(%rbx), %dl
	movb	%dl, (%rbx)
	movq	%rbx, (%rax)
	jmp	.L675
.L674:
	movq	%rbx, %rdi
	call	_ZdlPv@PLT
.L675:
	xorl	%edx, %edx
	movq	%rdx, 8(%rbp)
.L665:
	popq	%rax
	.cfi_def_cfa_offset 24
	popq	%rbx
	.cfi_def_cfa_offset 16
	popq	%rbp
	.cfi_def_cfa_offset 8
	ret
	.cfi_endproc
.LFE9332:
	.size	_ZN4asio6detail18completion_handlerINS0_7binder1IZN7asiopal9TCPServer11StartAcceptEvEUlSt10error_codeE_S5_EEE3ptr5resetEv, .-_ZN4asio6detail18completion_handlerINS0_7binder1IZN7asiopal9TCPServer11StartAcceptEvEUlSt10error_codeE_S5_EEE3ptr5resetEv
	.align 2
	.type	_ZN4asio6detail25reactive_socket_accept_opINS_12basic_socketINS_2ip3tcpENS_21stream_socket_serviceIS4_EEEES4_NS0_15wrapped_handlerINS_10io_service6strandEZN7asiopal9TCPServer11StartAcceptEvEUlSt10error_codeE_NS0_26is_continuation_if_runningEEEE3ptr5resetEv, @function
_ZN4asio6detail25reactive_socket_accept_opINS_12basic_socketINS_2ip3tcpENS_21stream_socket_serviceIS4_EEEES4_NS0_15wrapped_handlerINS_10io_service6strandEZN7asiopal9TCPServer11StartAcceptEvEUlSt10error_codeE_NS0_26is_continuation_if_runningEEEE3ptr5resetEv:
.LFB8989:
	.cfi_startproc
	pushq	%rbp
	.cfi_def_cfa_offset 16
	.cfi_offset 6, -16
	movq	%rdi, %rbp
	pushq	%rbx
	.cfi_def_cfa_offset 24
	.cfi_offset 3, -24
	pushq	%r8
	.cfi_def_cfa_offset 32
	movq	16(%rdi), %rax
	testq	%rax, %rax
	je	.L690
	movq	112(%rax), %rbx
	testq	%rbx, %rbx
	je	.L692
	movq	8(%rbx), %rcx
	leaq	8(%rbx), %rdx
	movabsq	$4294967297, %rax
	cmpq	%rax, %rcx
	jne	.L693
	movq	(%rbx), %rax
	xorl	%esi, %esi
	movq	%rbx, %rdi
	movq	%rsi, 8(%rbx)
	call	*16(%rax)
	movq	(%rbx), %rax
	movq	%rbx, %rdi
	call	*24(%rax)
	jmp	.L692
.L693:
	movq	__libc_single_threaded@GOTPCREL(%rip), %rax
	cmpb	$0, (%rax)
	je	.L694
	movl	8(%rbx), %eax
	leal	-1(%rax), %edx
	movl	%edx, 8(%rbx)
	jmp	.L695
.L694:
	movl	$-1, %eax
	lock xaddl	%eax, (%rdx)
.L695:
	decl	%eax
	jne	.L692
	movq	%rbx, %rdi
	call	_ZNSt16_Sp_counted_baseILN9__gnu_cxx12_Lock_policyE2EE24_M_release_last_use_coldEv@PLT
.L692:
	xorl	%ecx, %ecx
	movq	%rcx, 16(%rbp)
.L690:
	movq	8(%rbp), %rbx
	testq	%rbx, %rbx
	je	.L689
	data16	leaq	_ZN4asio6detail15keyword_tss_ptrINS0_10call_stackINS0_15task_io_serviceENS0_27task_io_service_thread_infoEE7contextEE6value_E@tlsgd(%rip), %rdi
	.value	0x6666
	rex64
	call	__tls_get_addr@PLT
	movq	(%rax), %rax
	testq	%rax, %rax
	je	.L698
	movq	8(%rax), %rax
	testq	%rax, %rax
	je	.L698
	cmpq	$0, (%rax)
	jne	.L698
	movb	120(%rbx), %dl
	movb	%dl, (%rbx)
	movq	%rbx, (%rax)
	jmp	.L699
.L698:
	movq	%rbx, %rdi
	call	_ZdlPv@PLT
.L699:
	xorl	%edx, %edx
	movq	%rdx, 8(%rbp)
.L689:
	popq	%rax
	.cfi_def_cfa_offset 24
	popq	%rbx
	.cfi_def_cfa_offset 16
	popq	%rbp
	.cfi_def_cfa_offset 8
	ret
	.cfi_endproc
.LFE8989:
	.size	_ZN4asio6detail25reactive_socket_accept_opINS_12basic_socketINS_2ip3tcpENS_21stream_socket_serviceIS4_EEEES4_NS0_15wrapped_handlerINS_10io_service6strandEZN7asiopal9TCPServer11StartAcceptEvEUlSt10error_codeE_NS0_26is_continuation_if_runningEEEE3ptr5resetEv, .-_ZN4asio6detail25reactive_socket_accept_opINS_12basic_socketINS_2ip3tcpENS_21stream_socket_serviceIS4_EEEES4_NS0_15wrapped_handlerINS_10io_service6strandEZN7asiopal9TCPServer11StartAcceptEvEUlSt10error_codeE_NS0_26is_continuation_if_runningEEEE3ptr5resetEv
	.align 2
	.type	_ZN4asio6detail18completion_handlerINS0_17rewrapped_handlerINS0_7binder1INS0_15wrapped_handlerINS_10io_service6strandEZN7asiopal9TCPServer11StartAcceptEvEUlSt10error_codeE_NS0_26is_continuation_if_runningEEES9_EESA_EEE3ptr5resetEv, @function
_ZN4asio6detail18completion_handlerINS0_17rewrapped_handlerINS0_7binder1INS0_15wrapped_handlerINS_10io_service6strandEZN7asiopal9TCPServer11StartAcceptEvEUlSt10error_codeE_NS0_26is_continuation_if_runningEEES9_EESA_EEE3ptr5resetEv:
.LFB9285:
	.cfi_startproc
	pushq	%r12
	.cfi_def_cfa_offset 16
	.cfi_offset 12, -16
	pushq	%rbp
	.cfi_def_cfa_offset 24
	.cfi_offset 6, -24
	movq	%rdi, %rbp
	pushq	%rbx
	.cfi_def_cfa_offset 32
	.cfi_offset 3, -32
	movq	16(%rdi), %r12
	testq	%r12, %r12
	je	.L714
	movq	64(%r12), %rbx
	testq	%rbx, %rbx
	je	.L716
	movq	8(%rbx), %rcx
	leaq	8(%rbx), %rdx
	movabsq	$4294967297, %rax
	cmpq	%rax, %rcx
	jne	.L717
	movq	(%rbx), %rax
	xorl	%esi, %esi
	movq	%rbx, %rdi
	movq	%rsi, 8(%rbx)
	call	*16(%rax)
	movq	(%rbx), %rax
	movq	%rbx, %rdi
	call	*24(%rax)
	jmp	.L716
.L717:
	movq	__libc_single_threaded@GOTPCREL(%rip), %rax
	cmpb	$0, (%rax)
	je	.L718
	movl	8(%rbx), %eax
	leal	-1(%rax), %edx
	movl	%edx, 8(%rbx)
	jmp	.L719
.L718:
	movl	$-1, %eax
	lock xaddl	%eax, (%rdx)
.L719:
	decl	%eax
	jne	.L716
	movq	%rbx, %rdi
	call	_ZNSt16_Sp_counted_baseILN9__gnu_cxx12_Lock_policyE2EE24_M_release_last_use_coldEv@PLT
.L716:
	movq	32(%r12), %rbx
	testq	%rbx, %rbx
	je	.L722
	movq	8(%rbx), %rcx
	leaq	8(%rbx), %rdx
	movabsq	$4294967297, %rax
	cmpq	%rax, %rcx
	jne	.L723
	movq	(%rbx), %rax
	xorl	%ecx, %ecx
	movq	%rbx, %rdi
	movq	%rcx, 8(%rbx)
	call	*16(%rax)
	movq	(%rbx), %rax
	movq	%rbx, %rdi
	call	*24(%rax)
	jmp	.L722
.L723:
	movq	__libc_single_threaded@GOTPCREL(%rip), %rax
	cmpb	$0, (%rax)
	je	.L724
	movl	8(%rbx), %eax
	leal	-1(%rax), %edx
	movl	%edx, 8(%rbx)
	jmp	.L725
.L724:
	movl	$-1, %eax
	lock xaddl	%eax, (%rdx)
.L725:
	decl	%eax
	jne	.L722
	movq	%rbx, %rdi
	call	_ZNSt16_Sp_counted_baseILN9__gnu_cxx12_Lock_policyE2EE24_M_release_last_use_coldEv@PLT
.L722:
	xorl	%edx, %edx
	movq	%rdx, 16(%rbp)
.L714:
	movq	8(%rbp), %rbx
	testq	%rbx, %rbx
	je	.L713
	data16	leaq	_ZN4asio6detail15keyword_tss_ptrINS0_10call_stackINS0_15task_io_serviceENS0_27task_io_service_thread_infoEE7contextEE6value_E@tlsgd(%rip), %rdi
	.value	0x6666
	rex64
	call	__tls_get_addr@PLT
	movq	(%rax), %rax
	testq	%rax, %rax
	je	.L728
	movq	8(%rax), %rax
	testq	%rax, %rax
	je	.L728
	cmpq	$0, (%rax)
	jne	.L728
	movb	88(%rbx), %dl
	movb	%dl, (%rbx)
	movq	%rbx, (%rax)
	jmp	.L729
.L728:
	movq	%rbx, %rdi
	call	_ZdlPv@PLT
.L729:
	xorl	%eax, %eax
	movq	%rax, 8(%rbp)
.L713:
	popq	%rbx
	.cfi_def_cfa_offset 24
	popq	%rbp
	.cfi_def_cfa_offset 16
	popq	%r12
	.cfi_def_cfa_offset 8
	ret
	.cfi_endproc
.LFE9285:
	.size	_ZN4asio6detail18completion_handlerINS0_17rewrapped_handlerINS0_7binder1INS0_15wrapped_handlerINS_10io_service6strandEZN7asiopal9TCPServer11StartAcceptEvEUlSt10error_codeE_NS0_26is_continuation_if_runningEEES9_EESA_EEE3ptr5resetEv, .-_ZN4asio6detail18completion_handlerINS0_17rewrapped_handlerINS0_7binder1INS0_15wrapped_handlerINS_10io_service6strandEZN7asiopal9TCPServer11StartAcceptEvEUlSt10error_codeE_NS0_26is_continuation_if_runningEEES9_EESA_EEE3ptr5resetEv
	.align 2
.LCOLDB29:
	.text
.LHOTB29:
	.align 2
	.p2align 4
	.globl	_ZN7asiopal9TCPServer11StartAcceptEv
	.type	_ZN7asiopal9TCPServer11StartAcceptEv, @function
_ZN7asiopal9TCPServer11StartAcceptEv:
.LFB7046:
	.cfi_startproc
	.cfi_personality 0x9b,DW.ref.__gxx_personality_v0
	.cfi_lsda 0x1b,.LLSDA7046
	pushq	%r15
	.cfi_def_cfa_offset 16
	.cfi_offset 15, -16
	pushq	%r14
	.cfi_def_cfa_offset 24
	.cfi_offset 14, -24
	pushq	%r13
	.cfi_def_cfa_offset 32
	.cfi_offset 13, -32
	pushq	%r12
	.cfi_def_cfa_offset 40
	.cfi_offset 12, -40
	pushq	%rbp
	.cfi_def_cfa_offset 48
	.cfi_offset 6, -48
	pushq	%rbx
	.cfi_def_cfa_offset 56
	.cfi_offset 3, -56
	subq	$168, %rsp
	.cfi_def_cfa_offset 224
	movq	16(%rdi), %rbx
	testq	%rbx, %rbx
	je	.L745
	leaq	8(%rbx), %rax
	movq	%rdi, %rbp
	movq	%rax, 32(%rsp)
	movl	8(%rbx), %eax
.L747:
	testl	%eax, %eax
	je	.L745
	movq	32(%rsp), %rsi
	leal	1(%rax), %edx
	lock cmpxchgl	%edx, (%rsi)
	jne	.L747
	movq	8(%rbp), %rax
	movq	__libc_single_threaded@GOTPCREL(%rip), %rsi
	movq	%rbx, %xmm3
	movq	%rax, %xmm1
	movq	%rax, 8(%rsp)
	movq	56(%rbp), %rax
	punpcklqdq	%xmm3, %xmm1
	cmpb	$0, (%rsi)
	je	.L943
	addl	$1, 8(%rbx)
.L748:
	movdqu	40(%rax), %xmm0
	movq	128(%rbp), %rax
	movaps	%xmm1, 128(%rsp)
	movq	%rax, 40(%rsp)
	movaps	%xmm0, 112(%rsp)
	movaps	%xmm0, 16(%rsp)
	data16	leaq	_ZN4asio6detail15keyword_tss_ptrINS0_10call_stackINS0_14strand_service11strand_implEhE7contextEE6value_E@tlsgd(%rip), %rdi
	.value	0x6666
	rex64
	call	__tls_get_addr@PLT
	movq	(%rax), %r15
	testq	%r15, %r15
	je	.L749
	movq	24(%rsp), %rax
	jmp	.L751
	.p2align 4
	.p2align 4,,10
	.p2align 3
.L750:
	movq	16(%r15), %r15
	testq	%r15, %r15
	je	.L749
.L751:
	cmpq	%rax, (%r15)
	jne	.L750
	movq	8(%r15), %r15
.L749:
	pxor	%xmm0, %xmm0
	leaq	112(%rsp), %rax
	movq	%rax, 80(%rsp)
	movups	%xmm0, 88(%rsp)
	data16	leaq	_ZN4asio6detail15keyword_tss_ptrINS0_10call_stackINS0_15task_io_serviceENS0_27task_io_service_thread_infoEE7contextEE6value_E@tlsgd(%rip), %rdi
	.value	0x6666
	rex64
	call	__tls_get_addr@PLT
	movq	(%rax), %rax
	testq	%rax, %rax
	je	.L752
	movq	8(%rax), %rax
	testq	%rax, %rax
	je	.L752
	movq	(%rax), %r14
	testq	%r14, %r14
	je	.L752
	movq	$0, (%rax)
	movzbl	(%r14), %eax
	cmpb	$119, %al
	jbe	.L753
	movb	%al, 120(%r14)
	movq	%rbx, 16(%rsp)
	jmp	.L754
	.p2align 4,,10
	.p2align 3
.L753:
	movq	%r14, %rdi
	call	_ZdlPv@PLT
.L752:
	movl	$121, %edi
.LEHB11:
	call	_Znwm@PLT
.LEHE11:
	movb	$120, 120(%rax)
	movq	%rax, %r14
	movq	128(%rsp), %rax
	movq	%rax, 8(%rsp)
	movq	136(%rsp), %rax
	movq	%rax, 16(%rsp)
.L754:
	leaq	_ZN4asio6detail25reactive_socket_accept_opINS_12basic_socketINS_2ip3tcpENS_21stream_socket_serviceIS4_EEEES4_NS0_15wrapped_handlerINS_10io_service6strandEZN7asiopal9TCPServer11StartAcceptEvEUlSt10error_codeE_NS0_26is_continuation_if_runningEEEE11do_completeEPNS0_15task_io_serviceEPNS0_25task_io_service_operationERKSD_m(%rip), %rax
	movzbl	108(%rbp), %r13d
	movl	104(%rbp), %r12d
	movq	$0, (%r14)
	movq	%rax, 8(%r14)
	movq	%r14, %xmm2
	movl	$0, 16(%r14)
	punpcklqdq	%xmm2, %xmm2
	movl	$0, 24(%r14)
	movq	%r14, 88(%rsp)
	movaps	%xmm2, 48(%rsp)
	call	_ZNSt3_V215system_categoryEv@PLT
	movdqa	112(%rsp), %xmm0
	movl	%r12d, 56(%r14)
	movq	%rax, 32(%r14)
	movq	%rax, %rcx
	movq	_ZN4asio6detail30reactive_socket_accept_op_baseINS_12basic_socketINS_2ip3tcpENS_21stream_socket_serviceIS4_EEEES4_E10do_performEPNS0_10reactor_opE@GOTPCREL(%rip), %rax
	movq	$0, 40(%r14)
	movq	%rax, 48(%r14)
	leaq	136(%rbp), %rax
	movq	%rax, 64(%r14)
	movl	120(%rbp), %eax
	movups	%xmm0, 88(%r14)
	pxor	%xmm0, %xmm0
	movl	%eax, 72(%r14)
	leaq	168(%rbp), %rax
	movq	%rax, 80(%r14)
	movq	8(%rsp), %rax
	movb	%r13b, 60(%r14)
	movq	%rax, 104(%r14)
	movq	16(%rsp), %rax
	movq	%r14, 96(%rsp)
	movq	%rax, 112(%r14)
	movaps	%xmm0, 128(%rsp)
	cmpl	$-1, 136(%rbp)
	jne	.L755
	andl	$3, %r13d
	jne	.L756
	cmpl	$-1, %r12d
	je	.L944
	movq	%rcx, 8(%rsp)
	call	__errno_location@PLT
	movl	%r12d, %edi
	leaq	68(%rsp), %rdx
	movl	$21537, %esi
	movl	$0, (%rax)
	movq	%rax, %r13
	xorl	%eax, %eax
	movl	$1, 68(%rsp)
	call	ioctl@PLT
	movl	%eax, %r12d
	movq	_ZGVZN4asio15system_categoryEvE8instance@GOTPCREL(%rip), %rax
	movzbl	(%rax), %eax
	testb	%al, %al
	movq	8(%rsp), %rcx
	je	.L762
.L925:
	movq	_ZZN4asio15system_categoryEvE8instance@GOTPCREL(%rip), %rsi
.L763:
	movl	0(%r13), %eax
	movq	%rsi, 32(%r14)
	movl	%eax, 24(%r14)
	testl	%r12d, %r12d
	jns	.L945
.L761:
	movq	40(%rsp), %rax
	movq	40(%rax), %rax
	movq	40(%rax), %r12
	data16	leaq	_ZN4asio6detail15keyword_tss_ptrINS0_10call_stackINS0_15task_io_serviceENS0_27task_io_service_thread_infoEE7contextEE6value_E@tlsgd(%rip), %rdi
	.value	0x6666
	rex64
	call	__tls_get_addr@PLT
	movq	(%rax), %rax
	testq	%rax, %rax
	jne	.L812
	jmp	.L809
	.p2align 4
	.p2align 4,,10
	.p2align 3
.L810:
	movq	16(%rax), %rax
	testq	%rax, %rax
	je	.L809
.L812:
	cmpq	(%rax), %r12
	jne	.L810
	movq	8(%rax), %rax
	testq	%rax, %rax
	je	.L809
	movq	16(%rax), %rdx
	addq	$1, 24(%rax)
	movq	$0, (%r14)
	testq	%rdx, %rdx
	je	.L813
.L928:
	movq	%r14, (%rdx)
	movq	%r14, 16(%rax)
.L774:
	movq	136(%rsp), %r12
	testq	%r12, %r12
	je	.L834
	movq	8(%r12), %rdx
	leaq	8(%r12), %rcx
	movabsq	$4294967297, %rax
	cmpq	%rax, %rdx
	je	.L946
	movq	__libc_single_threaded@GOTPCREL(%rip), %rax
	cmpb	$0, (%rax)
	je	.L836
	movl	8(%r12), %eax
	leal	-1(%rax), %edx
	movl	%edx, 8(%r12)
.L837:
	cmpl	$1, %eax
	je	.L947
.L834:
	movabsq	$4294967297, %rax
	movq	8(%rbx), %rdx
	cmpq	%rax, %rdx
	je	.L948
	movq	__libc_single_threaded@GOTPCREL(%rip), %rax
	cmpb	$0, (%rax)
	je	.L842
	movl	8(%rbx), %eax
	leal	-1(%rax), %edx
	movl	%edx, 8(%rbx)
.L843:
	cmpl	$1, %eax
	je	.L949
	addq	$168, %rsp
	.cfi_remember_state
	.cfi_def_cfa_offset 56
	popq	%rbx
	.cfi_def_cfa_offset 48
	popq	%rbp
	.cfi_def_cfa_offset 40
	popq	%r12
	.cfi_def_cfa_offset 32
	popq	%r13
	.cfi_def_cfa_offset 24
	popq	%r14
	.cfi_def_cfa_offset 16
	popq	%r15
	.cfi_def_cfa_offset 8
	ret
	.p2align 4,,10
	.p2align 3
.L755:
	.cfi_restore_state
	movq	_ZGVZN4asio5error17get_misc_categoryEvE8instance@GOTPCREL(%rip), %r12
	movzbl	(%r12), %eax
	testb	%al, %al
	je	.L819
	movq	_ZZN4asio5error17get_misc_categoryEvE8instance@GOTPCREL(%rip), %r13
.L820:
	movq	40(%rsp), %rax
	movl	$1, 24(%r14)
	movq	%r13, 32(%r14)
	movq	40(%rax), %rax
	movq	40(%rax), %r12
	cmpb	$0, 40(%r12)
	jne	.L849
	testq	%r15, %r15
	je	.L822
.L849:
	data16	leaq	_ZN4asio6detail15keyword_tss_ptrINS0_10call_stackINS0_15task_io_serviceENS0_27task_io_service_thread_infoEE7contextEE6value_E@tlsgd(%rip), %rdi
	.value	0x6666
	rex64
	call	__tls_get_addr@PLT
	movq	(%rax), %rax
	testq	%rax, %rax
	jne	.L826
	jmp	.L822
	.p2align 4
	.p2align 4,,10
	.p2align 3
.L824:
	movq	16(%rax), %rax
	testq	%rax, %rax
	je	.L822
.L826:
	cmpq	(%rax), %r12
	jne	.L824
	movq	8(%rax), %rax
	testq	%rax, %rax
	je	.L822
.L825:
	addq	$1, 24(%rax)
	movq	$0, (%r14)
	movq	16(%rax), %rdx
	testq	%rdx, %rdx
	jne	.L928
	movdqa	48(%rsp), %xmm6
	movups	%xmm6, 8(%rax)
	jmp	.L774
	.p2align 4,,10
	.p2align 3
.L945:
	movl	$0, 24(%r14)
	movl	104(%rbp), %r12d
	movq	%rcx, 32(%r14)
	orb	$2, 108(%rbp)
.L756:
	movq	40(%rsp), %rax
	movq	112(%rbp), %r13
	movq	40(%rax), %r8
	testq	%r13, %r13
	je	.L950
	addq	$40, %r13
	movq	%r8, 8(%rsp)
	movq	%r13, %rdi
	call	pthread_mutex_lock@PLT
	movq	112(%rbp), %rax
	movq	8(%rsp), %r8
	cmpb	$0, 144(%rax)
	jne	.L951
	cmpq	$0, 96(%rax)
	je	.L952
.L792:
	movq	104(%rax), %rdx
	movq	$0, (%r14)
	testq	%rdx, %rdx
	je	.L805
	movq	%r14, (%rdx)
	movq	%r14, 104(%rax)
.L806:
	movq	40(%r8), %rax
	lock addq	$1, 184(%rax)
	movq	%r13, %rdi
	call	pthread_mutex_unlock@PLT
	jmp	.L774
	.p2align 4,,10
	.p2align 3
.L822:
	lock addq	$1, 184(%r12)
	leaq	48(%r12), %r13
	movq	%r13, %rdi
	call	pthread_mutex_lock@PLT
	movq	200(%r12), %rax
	movq	$0, (%r14)
	testq	%rax, %rax
	je	.L828
.L941:
	movq	%r14, (%rax)
	movq	%r14, 200(%r12)
.L829:
	movq	136(%r12), %rax
	movq	%rax, %rdx
	orq	$1, %rdx
	movq	%rdx, 136(%r12)
	cmpq	$1, %rax
	jbe	.L830
	movq	%r13, %rdi
	call	pthread_mutex_unlock@PLT
	leaq	88(%r12), %rdi
	call	pthread_cond_signal@PLT
	jmp	.L774
	.p2align 4,,10
	.p2align 3
.L943:
	lock addl	$1, 8(%rbx)
	jmp	.L748
	.p2align 4,,10
	.p2align 3
.L830:
	cmpb	$0, 176(%r12)
	jne	.L832
	movq	144(%r12), %rax
	testq	%rax, %rax
	je	.L832
	leaq	88(%rax), %rdx
	leaq	68(%rsp), %rcx
	movl	$3, %esi
	movb	$1, 176(%r12)
	movl	$-2147483639, 68(%rsp)
	movq	%rdx, 72(%rsp)
	movl	88(%rax), %edx
	movl	96(%rax), %edi
	call	epoll_ctl@PLT
.L832:
	movq	%r13, %rdi
	call	pthread_mutex_unlock@PLT
	jmp	.L774
	.p2align 4,,10
	.p2align 3
.L819:
	movq	%r12, %rdi
	call	__cxa_guard_acquire@PLT
	movq	_ZZN4asio5error17get_misc_categoryEvE8instance@GOTPCREL(%rip), %r13
	testl	%eax, %eax
	je	.L820
	movq	_ZN4asio5error6detail13misc_categoryD1Ev@GOTPCREL(%rip), %rdi
	leaq	__dso_handle(%rip), %rdx
	movq	%r13, %rsi
	call	__cxa_atexit@PLT
	movq	%r12, %rdi
	call	__cxa_guard_release@PLT
	jmp	.L820
	.p2align 4,,10
	.p2align 3
.L762:
	movq	_ZGVZN4asio15system_categoryEvE8instance@GOTPCREL(%rip), %rdi
	movq	%rcx, 8(%rsp)
	call	__cxa_guard_acquire@PLT
	movq	8(%rsp), %rcx
	testl	%eax, %eax
	je	.L925
	movq	_ZZN4asio15system_categoryEvE8instance@GOTPCREL(%rip), %rsi
	movq	_ZN4asio6detail15system_categoryD1Ev@GOTPCREL(%rip), %rdi
	movq	%rcx, 16(%rsp)
	leaq	__dso_handle(%rip), %rdx
	movq	%rsi, 8(%rsp)
	call	__cxa_atexit@PLT
	movq	_ZGVZN4asio15system_categoryEvE8instance@GOTPCREL(%rip), %rdi
	call	__cxa_guard_release@PLT
	movq	16(%rsp), %rcx
	movq	8(%rsp), %rsi
	jmp	.L763
	.p2align 4,,10
	.p2align 3
.L842:
	movq	32(%rsp), %rcx
	movl	$-1, %eax
	lock xaddl	%eax, (%rcx)
	jmp	.L843
	.p2align 4,,10
	.p2align 3
.L836:
	movl	$-1, %eax
	lock xaddl	%eax, (%rcx)
	jmp	.L837
	.p2align 4,,10
	.p2align 3
.L809:
	lock addq	$1, 184(%r12)
	leaq	48(%r12), %r13
	movq	%r13, %rdi
	call	pthread_mutex_lock@PLT
	movq	$0, (%r14)
	movq	200(%r12), %rax
	testq	%rax, %rax
	jne	.L941
	movdqa	48(%rsp), %xmm6
	movups	%xmm6, 192(%r12)
	jmp	.L829
	.p2align 4,,10
	.p2align 3
.L948:
	movq	(%rbx), %rax
	movq	%rbx, %rdi
	movq	$0, 8(%rbx)
	call	*16(%rax)
	movq	(%rbx), %rax
	movq	%rbx, %rdi
	movq	24(%rax), %rax
	addq	$168, %rsp
	.cfi_remember_state
	.cfi_def_cfa_offset 56
	popq	%rbx
	.cfi_def_cfa_offset 48
	popq	%rbp
	.cfi_def_cfa_offset 40
	popq	%r12
	.cfi_def_cfa_offset 32
	popq	%r13
	.cfi_def_cfa_offset 24
	popq	%r14
	.cfi_def_cfa_offset 16
	popq	%r15
	.cfi_def_cfa_offset 8
.LEHB12:
	jmp	*%rax
.LEHE12:
	.p2align 4,,10
	.p2align 3
.L946:
	.cfi_restore_state
	movq	$0, 8(%r12)
	movq	(%r12), %rax
	movq	%r12, %rdi
	call	*16(%rax)
	movq	(%r12), %rax
	movq	%r12, %rdi
	call	*24(%rax)
	jmp	.L834
	.p2align 4,,10
	.p2align 3
.L828:
	movdqa	48(%rsp), %xmm5
	movups	%xmm5, 192(%r12)
	jmp	.L829
.L952:
	testq	%r15, %r15
	je	.L793
	cmpq	$0, 128(%rax)
	jne	.L793
	movq	%r8, 8(%rsp)
	movq	%r14, %rdi
.LEHB13:
	call	*48(%r14)
.LEHE13:
	testb	%al, %al
	movq	8(%rsp), %r8
	jne	.L794
	movq	112(%rbp), %rax
	jmp	.L792
.L805:
	movdqa	48(%rsp), %xmm7
	movups	%xmm7, 96(%rax)
	jmp	.L806
.L950:
	movq	_ZGVZN4asio15system_categoryEvE8instance@GOTPCREL(%rip), %r12
	movzbl	(%r12), %eax
	testb	%al, %al
	je	.L766
.L926:
	movq	_ZZN4asio15system_categoryEvE8instance@GOTPCREL(%rip), %rsi
.L767:
	movl	$9, 24(%r14)
	movq	40(%r8), %r12
	movq	%rsi, 32(%r14)
	data16	leaq	_ZN4asio6detail15keyword_tss_ptrINS0_10call_stackINS0_15task_io_serviceENS0_27task_io_service_thread_infoEE7contextEE6value_E@tlsgd(%rip), %rdi
	.value	0x6666
	rex64
	call	__tls_get_addr@PLT
	movq	(%rax), %rax
	testq	%rax, %rax
	jne	.L772
	jmp	.L809
	.p2align 4
	.p2align 4,,10
	.p2align 3
.L770:
	movq	16(%rax), %rax
	testq	%rax, %rax
	je	.L809
.L772:
	cmpq	(%rax), %r12
	jne	.L770
	movq	8(%rax), %rax
	testq	%rax, %rax
	je	.L809
	movq	16(%rax), %rdx
	addq	$1, 24(%rax)
	movq	$0, (%r14)
	testq	%rdx, %rdx
	jne	.L928
	movdqa	48(%rsp), %xmm5
	movups	%xmm5, 8(%rax)
	jmp	.L774
.L951:
	movq	40(%r8), %rbp
	data16	leaq	_ZN4asio6detail15keyword_tss_ptrINS0_10call_stackINS0_15task_io_serviceENS0_27task_io_service_thread_infoEE7contextEE6value_E@tlsgd(%rip), %rdi
	.value	0x6666
	rex64
	call	__tls_get_addr@PLT
	movq	(%rax), %rax
	testq	%rax, %rax
	jne	.L784
	jmp	.L781
	.p2align 4
	.p2align 4,,10
	.p2align 3
.L782:
	movq	16(%rax), %rax
	testq	%rax, %rax
	je	.L781
.L784:
	cmpq	(%rax), %rbp
	jne	.L782
	movq	8(%rax), %rax
	testq	%rax, %rax
	je	.L781
	movq	16(%rax), %rdx
	addq	$1, 24(%rax)
	movq	$0, (%r14)
	testq	%rdx, %rdx
	je	.L785
	movq	%r14, (%rdx)
	movq	%r14, 16(%rax)
	jmp	.L832
.L813:
	movdqa	48(%rsp), %xmm7
	movups	%xmm7, 8(%rax)
	jmp	.L774
.L793:
	movl	92(%rax), %edx
	movq	%rax, 72(%rsp)
	leaq	68(%rsp), %rcx
	movl	$3, %esi
	movq	%r8, 8(%rsp)
	movl	%edx, 68(%rsp)
	movl	96(%r8), %edi
	movl	%r12d, %edx
	call	epoll_ctl@PLT
	movq	112(%rbp), %rax
	movq	8(%rsp), %r8
	jmp	.L792
.L766:
	movq	%r12, %rdi
	movq	%r8, 8(%rsp)
	call	__cxa_guard_acquire@PLT
	movq	8(%rsp), %r8
	testl	%eax, %eax
	je	.L926
	movq	_ZZN4asio15system_categoryEvE8instance@GOTPCREL(%rip), %rsi
	movq	_ZN4asio6detail15system_categoryD1Ev@GOTPCREL(%rip), %rdi
	movq	%r8, 16(%rsp)
	leaq	__dso_handle(%rip), %rdx
	movq	%rsi, 8(%rsp)
	call	__cxa_atexit@PLT
	movq	%r12, %rdi
	call	__cxa_guard_release@PLT
	movq	16(%rsp), %r8
	movq	8(%rsp), %rsi
	jmp	.L767
.L947:
	movq	%r12, %rdi
	call	_ZNSt16_Sp_counted_baseILN9__gnu_cxx12_Lock_policyE2EE24_M_release_last_use_coldEv@PLT
	jmp	.L834
.L949:
	addq	$168, %rsp
	.cfi_remember_state
	.cfi_def_cfa_offset 56
	movq	%rbx, %rdi
	popq	%rbx
	.cfi_def_cfa_offset 48
	popq	%rbp
	.cfi_def_cfa_offset 40
	popq	%r12
	.cfi_def_cfa_offset 32
	popq	%r13
	.cfi_def_cfa_offset 24
	popq	%r14
	.cfi_def_cfa_offset 16
	popq	%r15
	.cfi_def_cfa_offset 8
.LEHB14:
	jmp	_ZNSt16_Sp_counted_baseILN9__gnu_cxx12_Lock_policyE2EE24_M_release_last_use_coldEv@PLT
.LEHE14:
.L944:
	.cfi_restore_state
	movq	_ZGVZN4asio15system_categoryEvE8instance@GOTPCREL(%rip), %r12
	movzbl	(%r12), %eax
	testb	%al, %al
	je	.L758
	movq	_ZZN4asio15system_categoryEvE8instance@GOTPCREL(%rip), %rsi
.L759:
	movl	$9, 24(%r14)
	movq	%rsi, 32(%r14)
	jmp	.L761
.L781:
	lock addq	$1, 184(%rbp)
	leaq	48(%rbp), %r12
	movq	%r12, %rdi
	call	pthread_mutex_lock@PLT
	movq	200(%rbp), %rax
	movq	$0, (%r14)
	testq	%rax, %rax
	je	.L787
	movq	%r14, (%rax)
	movq	%r14, 200(%rbp)
.L788:
	movq	136(%rbp), %rax
	movq	%rax, %rdx
	orq	$1, %rdx
	movq	%rdx, 136(%rbp)
	cmpq	$1, %rax
	jbe	.L789
	movq	%r12, %rdi
	call	pthread_mutex_unlock@PLT
	leaq	88(%rbp), %rdi
	call	pthread_cond_signal@PLT
	jmp	.L832
.L758:
	movq	%r12, %rdi
	call	__cxa_guard_acquire@PLT
	movq	_ZZN4asio15system_categoryEvE8instance@GOTPCREL(%rip), %rsi
	testl	%eax, %eax
	je	.L759
	movq	_ZN4asio6detail15system_categoryD1Ev@GOTPCREL(%rip), %rdi
	leaq	__dso_handle(%rip), %rdx
	movq	%rsi, 8(%rsp)
	call	__cxa_atexit@PLT
	movq	%r12, %rdi
	call	__cxa_guard_release@PLT
	movq	8(%rsp), %rsi
	jmp	.L759
.L789:
	cmpb	$0, 176(%rbp)
	jne	.L791
	movq	144(%rbp), %rax
	testq	%rax, %rax
	je	.L791
	movb	$1, 176(%rbp)
	leaq	88(%rax), %rdx
	leaq	68(%rsp), %rcx
	movl	$3, %esi
	movq	%rdx, 72(%rsp)
	movl	88(%rax), %edx
	movl	$-2147483639, 68(%rsp)
	movl	96(%rax), %edi
	call	epoll_ctl@PLT
.L791:
	movq	%r12, %rdi
	call	pthread_mutex_unlock@PLT
	jmp	.L832
.L785:
	movdqa	48(%rsp), %xmm7
	movups	%xmm7, 8(%rax)
	jmp	.L832
.L787:
	movdqa	48(%rsp), %xmm5
	movups	%xmm5, 192(%rbp)
	jmp	.L788
.L794:
	movq	%r13, %rdi
	movq	%r8, 8(%rsp)
	call	pthread_mutex_unlock@PLT
	movq	8(%rsp), %r8
	movq	40(%r8), %r12
	data16	leaq	_ZN4asio6detail15keyword_tss_ptrINS0_10call_stackINS0_15task_io_serviceENS0_27task_io_service_thread_infoEE7contextEE6value_E@tlsgd(%rip), %rdi
	.value	0x6666
	rex64
	call	__tls_get_addr@PLT
	movq	(%rax), %rax
	testq	%rax, %rax
	jne	.L798
	jmp	.L795
	.p2align 4
	.p2align 4,,10
	.p2align 3
.L796:
	movq	16(%rax), %rax
	testq	%rax, %rax
	je	.L795
.L798:
	cmpq	(%rax), %r12
	jne	.L796
	movq	8(%rax), %rax
	testq	%rax, %rax
	jne	.L825
.L795:
	lock addq	$1, 184(%r12)
	leaq	48(%r12), %r13
	movq	%r13, %rdi
	call	pthread_mutex_lock@PLT
	xorl	%eax, %eax
	movq	%rax, (%r14)
	movq	200(%r12), %rax
	testq	%rax, %rax
	jne	.L941
	movdqa	48(%rsp), %xmm7
	movups	%xmm7, 192(%r12)
	jmp	.L829
.L848:
	movq	%rax, %rbp
	jmp	.L807
.L847:
	movq	%rax, %rbp
	jmp	.L808
	.section	.gcc_except_table
.LLSDA7046:
	.byte	0xff
	.byte	0xff
	.byte	0x1
	.uleb128 .LLSDACSE7046-.LLSDACSB7046
.LLSDACSB7046:
	.uleb128 .LEHB11-.LFB7046
	.uleb128 .LEHE11-.LEHB11
	.uleb128 .L847-.LFB7046
	.uleb128 0
	.uleb128 .LEHB12-.LFB7046
	.uleb128 .LEHE12-.LEHB12
	.uleb128 0
	.uleb128 0
	.uleb128 .LEHB13-.LFB7046
	.uleb128 .LEHE13-.LEHB13
	.uleb128 .L848-.LFB7046
	.uleb128 0
	.uleb128 .LEHB14-.LFB7046
	.uleb128 .LEHE14-.LEHB14
	.uleb128 0
	.uleb128 0
.LLSDACSE7046:
	.text
	.cfi_endproc
	.section	.text.unlikely
	.cfi_startproc
	.cfi_personality 0x9b,DW.ref.__gxx_personality_v0
	.cfi_lsda 0x1b,.LLSDAC7046
	.type	_ZN7asiopal9TCPServer11StartAcceptEv.cold, @function
_ZN7asiopal9TCPServer11StartAcceptEv.cold:
.LFSB7046:
.L745:
	.cfi_def_cfa_offset 224
	.cfi_offset 3, -56
	.cfi_offset 6, -48
	.cfi_offset 12, -40
	.cfi_offset 13, -32
	.cfi_offset 14, -24
	.cfi_offset 15, -16
	movl	$8, %edi
	call	__cxa_allocate_exception@PLT
	movq	_ZTVSt12bad_weak_ptr@GOTPCREL(%rip), %rdx
	movq	_ZTISt12bad_weak_ptr@GOTPCREL(%rip), %rsi
	movq	%rax, %rdi
	addq	$16, %rdx
	movq	%rdx, (%rax)
	movq	_ZNSt12bad_weak_ptrD1Ev@GOTPCREL(%rip), %rdx
.LEHB15:
	call	__cxa_throw@PLT
.L807:
	movq	%r13, %rdi
	call	pthread_mutex_unlock@PLT
	leaq	80(%rsp), %rdi
	call	_ZN4asio6detail25reactive_socket_accept_opINS_12basic_socketINS_2ip3tcpENS_21stream_socket_serviceIS4_EEEES4_NS0_15wrapped_handlerINS_10io_service6strandEZN7asiopal9TCPServer11StartAcceptEvEUlSt10error_codeE_NS0_26is_continuation_if_runningEEEE3ptr5resetEv
.L808:
	movq	136(%rsp), %rdi
	testq	%rdi, %rdi
	je	.L841
	call	_ZNSt16_Sp_counted_baseILN9__gnu_cxx12_Lock_policyE2EE10_M_releaseEv@PLT
.L841:
	movq	%rbx, %rdi
	call	_ZNSt16_Sp_counted_baseILN9__gnu_cxx12_Lock_policyE2EE10_M_releaseEv@PLT
	movq	%rbp, %rdi
	call	_Unwind_Resume@PLT
.LEHE15:
	.cfi_endproc
.LFE7046:
	.section	.gcc_except_table
.LLSDAC7046:
	.byte	0xff
	.byte	0xff
	.byte	0x1
	.uleb128 .LLSDACSEC7046-.LLSDACSBC7046
.LLSDACSBC7046:
	.uleb128 .LEHB15-.LCOLDB29
	.uleb128 .LEHE15-.LEHB15
	.uleb128 0
	.uleb128 0
.LLSDACSEC7046:
	.section	.text.unlikely
	.text
	.size	_ZN7asiopal9TCPServer11StartAcceptEv, .-_ZN7asiopal9TCPServer11StartAcceptEv
	.section	.text.unlikely
	.size	_ZN7asiopal9TCPServer11StartAcceptEv.cold, .-_ZN7asiopal9TCPServer11StartAcceptEv.cold
.LCOLDE29:
	.text
.LHOTE29:
	.section	.text.unlikely._ZN4asio6detail15throw_exceptionISt12system_errorEEvRKT_,"axG",@progbits,_ZN4asio6detail15throw_exceptionISt12system_errorEEvRKT_,comdat
	.weak	_ZN4asio6detail15throw_exceptionISt12system_errorEEvRKT_
	.type	_ZN4asio6detail15throw_exceptionISt12system_errorEEvRKT_, @function
_ZN4asio6detail15throw_exceptionISt12system_errorEEvRKT_:
.LFB7350:
	.cfi_startproc
	pushq	%rbp
	.cfi_def_cfa_offset 16
	.cfi_offset 6, -16
	movq	%rdi, %rbp
	movl	$32, %edi
	pushq	%rbx
	.cfi_def_cfa_offset 24
	.cfi_offset 3, -24
	pushq	%rax
	.cfi_def_cfa_offset 32
	call	__cxa_allocate_exception@PLT
	movq	%rbp, %rsi
	movq	%rax, %rdi
	movq	%rax, %rbx
	call	_ZNSt13runtime_errorC2ERKS_@PLT
	movq	_ZTVSt12system_error@GOTPCREL(%rip), %rax
	movups	16(%rbp), %xmm0
	movq	%rbx, %rdi
	movq	_ZNSt12system_errorD1Ev@GOTPCREL(%rip), %rdx
	movq	_ZTISt12system_error@GOTPCREL(%rip), %rsi
	addq	$16, %rax
	movups	%xmm0, 16(%rbx)
	movq	%rax, (%rbx)
	call	__cxa_throw@PLT
	.cfi_endproc
.LFE7350:
	.size	_ZN4asio6detail15throw_exceptionISt12system_errorEEvRKT_, .-_ZN4asio6detail15throw_exceptionISt12system_errorEEvRKT_
	.section	.text._ZN4asio6detail14do_throw_errorERKSt10error_code,"axG",@progbits,_ZN4asio6detail14do_throw_errorERKSt10error_code,comdat
	.p2align 4
	.weak	_ZN4asio6detail14do_throw_errorERKSt10error_code
	.type	_ZN4asio6detail14do_throw_errorERKSt10error_code, @function
_ZN4asio6detail14do_throw_errorERKSt10error_code:
.LFB2326:
	.cfi_startproc
	.cfi_personality 0x9b,DW.ref.__gxx_personality_v0
	.cfi_lsda 0x1b,.LLSDA2326
	pushq	%r13
	.cfi_def_cfa_offset 16
	.cfi_offset 13, -16
	pushq	%r12
	.cfi_def_cfa_offset 24
	.cfi_offset 12, -24
	pushq	%rbp
	.cfi_def_cfa_offset 32
	.cfi_offset 6, -32
	pushq	%rbx
	.cfi_def_cfa_offset 40
	.cfi_offset 3, -40
	subq	$72, %rsp
	.cfi_def_cfa_offset 112
	movq	8(%rdi), %rbx
	movl	(%rdi), %r13d
	leaq	32(%rsp), %rdi
	movq	%rsp, %rbp
	movq	(%rbx), %rax
	movq	%rbx, %rsi
	movl	%r13d, %edx
.LEHB16:
	call	*32(%rax)
.LEHE16:
	leaq	32(%rsp), %rsi
	movq	%rsp, %rdi
.LEHB17:
	call	_ZNSt13runtime_errorC2ERKNSt7__cxx1112basic_stringIcSt11char_traitsIcESaIcEEE@PLT
.LEHE17:
	movq	32(%rsp), %rdi
	leaq	48(%rsp), %rax
	cmpq	%rax, %rdi
	je	.L956
	movq	48(%rsp), %rax
	leaq	1(%rax), %rsi
	call	_ZdlPvm@PLT
.L956:
	movq	_ZTVSt12system_error@GOTPCREL(%rip), %rax
	movq	%rbp, %rdi
	movl	%r13d, 16(%rsp)
	movq	%rbx, 24(%rsp)
	addq	$16, %rax
	movq	%rax, (%rsp)
.LEHB18:
	call	_ZN4asio6detail15throw_exceptionISt12system_errorEEvRKT_@PLT
.LEHE18:
.L960:
	movq	%rax, %rbx
	jmp	.L957
.L959:
	movq	%rax, %rbx
	jmp	.L958
.L957:
	leaq	32(%rsp), %rdi
	call	_ZNSt7__cxx1112basic_stringIcSt11char_traitsIcESaIcEE10_M_disposeEv@PLT
	movq	%rbx, %rdi
.LEHB19:
	call	_Unwind_Resume@PLT
.L958:
	movq	%rbp, %rdi
	call	_ZNSt12system_errorD1Ev@PLT
	movq	%rbx, %rdi
	call	_Unwind_Resume@PLT
.LEHE19:
	.cfi_endproc
.LFE2326:
	.section	.gcc_except_table
.LLSDA2326:
	.byte	0xff
	.byte	0xff
	.byte	0x1
	.uleb128 .LLSDACSE2326-.LLSDACSB2326
.LLSDACSB2326:
	.uleb128 .LEHB16-.LFB2326
	.uleb128 .LEHE16-.LEHB16
	.uleb128 0
	.uleb128 0
	.uleb128 .LEHB17-.LFB2326
	.uleb128 .LEHE17-.LEHB17
	.uleb128 .L960-.LFB2326
	.uleb128 0
	.uleb128 .LEHB18-.LFB2326
	.uleb128 .LEHE18-.LEHB18
	.uleb128 .L959-.LFB2326
	.uleb128 0
	.uleb128 .LEHB19-.LFB2326
	.uleb128 .LEHE19-.LEHB19
	.uleb128 0
	.uleb128 0
.LLSDACSE2326:
	.section	.text._ZN4asio6detail14do_throw_errorERKSt10error_code,"axG",@progbits,_ZN4asio6detail14do_throw_errorERKSt10error_code,comdat
	.size	_ZN4asio6detail14do_throw_errorERKSt10error_code, .-_ZN4asio6detail14do_throw_errorERKSt10error_code
	.section	.rodata.str1.8
	.align 8
.LC30:
	.string	"/opt/PLC/OpenPLC_v3/utils/dnp3_src/cpp/libs/src/asiopal/TCPServer.cpp(109)"
	.section	.rodata.str1.1,"aMS",@progbits,1
.LC32:
	.string	"%lu"
.LC33:
	.string	"Accepted connection from: %s"
	.section	.rodata.str1.8
	.align 8
.LC34:
	.string	"/opt/PLC/OpenPLC_v3/utils/dnp3_src/cpp/libs/src/asiopal/TCPServer.cpp(118)"
	.section	.text.unlikely
	.align 2
.LCOLDB35:
	.text
.LHOTB35:
	.align 2
	.p2align 4
	.type	_ZZN7asiopal9TCPServer11StartAcceptEvENKUlSt10error_codeE_clES1_.isra.0, @function
_ZZN7asiopal9TCPServer11StartAcceptEvENKUlSt10error_codeE_clES1_.isra.0:
.LFB9525:
	.cfi_startproc
	.cfi_personality 0x9b,DW.ref.__gxx_personality_v0
	.cfi_lsda 0x1b,.LLSDA9525
	pushq	%r15
	.cfi_def_cfa_offset 16
	.cfi_offset 15, -16
	pushq	%r14
	.cfi_def_cfa_offset 24
	.cfi_offset 14, -24
	pushq	%r13
	.cfi_def_cfa_offset 32
	.cfi_offset 13, -32
	pushq	%r12
	.cfi_def_cfa_offset 40
	.cfi_offset 12, -40
	pushq	%rbp
	.cfi_def_cfa_offset 48
	.cfi_offset 6, -48
	movq	%rdi, %rbp
	pushq	%rbx
	.cfi_def_cfa_offset 56
	.cfi_offset 3, -56
	movl	%esi, %ebx
	subq	$264, %rsp
	.cfi_def_cfa_offset 320
	movq	(%rdi), %rdi
	testl	%esi, %esi
	je	.L963
	addq	$24, %rdi
	leaq	128(%rsp), %rsi
	movq	%rdx, %r13
	movl	$8, 128(%rsp)
.LEHB20:
	call	_ZNK7openpal6Logger9IsEnabledERKNS_10LogFiltersE@PLT
	testb	%al, %al
	je	.L964
	movq	0(%rbp), %rax
	movl	%ebx, %edx
	movq	%r13, %rsi
	leaq	128(%rsp), %rdi
	leaq	24(%rax), %r14
	movq	0(%r13), %rax
	call	*32(%rax)
.LEHE20:
	movq	128(%rsp), %rcx
	leaq	96(%rsp), %rsi
	movq	%r14, %rdi
	leaq	.LC30(%rip), %rdx
	movl	$8, 96(%rsp)
.LEHB21:
	call	_ZN7openpal6Logger3LogERKNS_10LogFiltersEPKcS5_@PLT
.LEHE21:
	movq	128(%rsp), %rdi
	leaq	144(%rsp), %rax
	cmpq	%rax, %rdi
	je	.L964
	movq	144(%rsp), %rax
	leaq	1(%rax), %rsi
	call	_ZdlPvm@PLT
.L964:
	movq	0(%rbp), %rdi
	movq	(%rdi), %rax
	movq	24(%rax), %rax
	addq	$264, %rsp
	.cfi_remember_state
	.cfi_def_cfa_offset 56
	popq	%rbx
	.cfi_def_cfa_offset 48
	popq	%rbp
	.cfi_def_cfa_offset 40
	popq	%r12
	.cfi_def_cfa_offset 32
	popq	%r13
	.cfi_def_cfa_offset 24
	popq	%r14
	.cfi_def_cfa_offset 16
	popq	%r15
	.cfi_def_cfa_offset 8
.LEHB22:
	jmp	*%rax
	.p2align 4,,10
	.p2align 3
.L963:
	.cfi_restore_state
	movq	200(%rdi), %r13
	leaq	128(%rsp), %r12
	addq	$24, %rdi
	movq	%r12, %rsi
	leaq	1(%r13), %rax
	movq	%rax, 176(%rdi)
	movl	$8, 128(%rsp)
	call	_ZNK7openpal6Logger9IsEnabledERKNS_10LogFiltersE@PLT
.LEHE22:
	testb	%al, %al
	jne	.L1169
.L966:
	movq	0(%rbp), %rdi
	movq	%r12, %rcx
	movq	%r13, %rsi
	movq	(%rdi), %rax
	movq	160(%rdi), %rdx
	movq	32(%rax), %rax
	movq	%rdx, 152(%rsp)
	movl	136(%rdi), %edx
	movl	$-1, 136(%rdi)
	movl	%edx, 128(%rsp)
	movzbl	140(%rdi), %edx
	movb	$0, 140(%rdi)
	movb	%dl, 132(%rsp)
	movq	144(%rdi), %rdx
	movq	$0, 144(%rdi)
	movq	%rdx, 136(%rsp)
	movl	152(%rdi), %edx
	movl	$2, 152(%rdi)
	movl	%edx, 144(%rsp)
	leaq	56(%rdi), %rdx
.LEHB23:
	call	*%rax
.LEHE23:
	movl	128(%rsp), %r14d
	cmpl	$-1, %r14d
	je	.L1011
	movq	136(%rsp), %r13
	movzbl	132(%rsp), %r12d
	testq	%r13, %r13
	je	.L1012
	movq	152(%rsp), %rax
	movq	40(%rax), %rax
	movq	%rax, 16(%rsp)
	leaq	40(%r13), %rax
	movq	%rax, %rdi
	movq	%rax, 24(%rsp)
	call	pthread_mutex_lock@PLT
	movq	136(%rsp), %r8
	cmpb	$0, 144(%r8)
	jne	.L1013
	andl	$64, %r12d
	jne	.L1170
.L1014:
	movq	$0, 8(%rsp)
	xorl	%r14d, %r14d
.L1015:
	movslq	%ebx, %rax
	salq	$4, %rax
	movq	96(%rax,%r8), %r12
	testq	%r12, %r12
	je	.L1158
	movq	_ZGVZN4asio15system_categoryEvE8instance@GOTPCREL(%rip), %r15
	movq	_ZZN4asio15system_categoryEvE8instance@GOTPCREL(%rip), %rsi
	movq	%rax, %r13
	jmp	.L1027
	.p2align 4,,10
	.p2align 3
.L1017:
	movq	136(%rsp), %r8
	movq	%rsi, 32(%r12)
	movl	$125, 24(%r12)
	leaq	(%r8,%r13), %rdi
	movq	96(%rdi), %rax
	testq	%rax, %rax
	je	.L1164
	movq	(%rax), %rdx
	movq	%rdx, 96(%rdi)
	testq	%rdx, %rdx
	je	.L1022
	movq	$0, (%rax)
	movq	$0, (%r12)
	testq	%r14, %r14
	je	.L1061
	movq	%r12, (%r14)
.L1023:
	movq	%r12, %r14
	movq	%rdx, %r12
.L1027:
	movzbl	(%r15), %eax
	testb	%al, %al
	jne	.L1017
	movq	%r15, %rdi
	movq	%rsi, (%rsp)
	call	__cxa_guard_acquire@PLT
	movq	(%rsp), %rsi
	testl	%eax, %eax
	je	.L1017
	movq	_ZN4asio6detail15system_categoryD1Ev@GOTPCREL(%rip), %rdi
	leaq	__dso_handle(%rip), %rdx
	call	__cxa_atexit@PLT
	movq	%r15, %rdi
	call	__cxa_guard_release@PLT
	movq	(%rsp), %rsi
	jmp	.L1017
	.p2align 4,,10
	.p2align 3
.L1013:
	movq	24(%rsp), %rdi
	call	pthread_mutex_unlock@PLT
.L1043:
	movl	128(%rsp), %r14d
	cmpl	$-1, %r14d
	je	.L1011
	movzbl	132(%rsp), %r12d
.L1012:
	call	__errno_location@PLT
	movq	%rax, %rbx
	testb	$8, %r12b
	jne	.L1159
	movq	_ZGVZN4asio15system_categoryEvE8instance@GOTPCREL(%rip), %r15
.L1045:
	movl	$0, (%rbx)
	movl	%r14d, %edi
	call	close@PLT
	movl	%eax, %r12d
	movzbl	(%r15), %eax
	testb	%al, %al
	je	.L1171
.L1050:
	testl	%r12d, %r12d
	je	.L1011
	movl	(%rbx), %r12d
	movzbl	(%r15), %eax
	testb	%al, %al
	je	.L1172
.L1053:
	cmpl	$11, %r12d
	je	.L1055
.L1168:
	movzbl	(%r15), %eax
	testb	%al, %al
	je	.L1173
.L1011:
	movq	0(%rbp), %rdi
	addq	$264, %rsp
	.cfi_remember_state
	.cfi_def_cfa_offset 56
	popq	%rbx
	.cfi_def_cfa_offset 48
	popq	%rbp
	.cfi_def_cfa_offset 40
	popq	%r12
	.cfi_def_cfa_offset 32
	popq	%r13
	.cfi_def_cfa_offset 24
	popq	%r14
	.cfi_def_cfa_offset 16
	popq	%r15
	.cfi_def_cfa_offset 8
.LEHB24:
	jmp	_ZN7asiopal9TCPServer11StartAcceptEv@PLT
	.p2align 4,,10
	.p2align 3
.L1169:
	.cfi_restore_state
	call	_ZNSt3_V215system_categoryEv@PLT
	movq	0(%rbp), %r15
	movq	%rax, 8(%rsp)
	call	__errno_location@PLT
	movzwl	168(%r15), %r14d
	movq	8(%rsp), %rdx
	movq	%rax, (%rsp)
	cmpw	$2, %r14w
	je	.L1174
	movl	192(%r15), %r14d
	movq	(%rsp), %rax
	movq	$1, 64(%rsp)
	movl	$63, %ecx
	movdqu	176(%r15), %xmm0
	movq	%rdx, 56(%rsp)
	leaq	72(%rsp), %rsi
	movq	%r12, %rdx
	movq	%r14, 88(%rsp)
	movl	$10, %edi
	movups	%xmm0, 72(%rsp)
	movl	$0, (%rax)
	movl	%r14d, 8(%rsp)
	call	inet_ntop@PLT
	movq	_ZGVZN4asio15system_categoryEvE8instance@GOTPCREL(%rip), %r15
	movq	%rax, %rcx
	movzbl	(%r15), %eax
	testb	%al, %al
	je	.L970
.L1161:
	movq	_ZZN4asio15system_categoryEvE8instance@GOTPCREL(%rip), %rsi
.L971:
	movq	(%rsp), %rax
	movl	(%rax), %eax
	movq	%rsi, 56(%rsp)
	movl	%eax, 16(%rsp)
	testq	%rcx, %rcx
	je	.L973
	testq	%r14, %r14
	je	.L1175
	movzwl	72(%rsp), %eax
	movb	$0, 112(%rsp)
	movq	$37, 96(%rsp)
	movq	$0, 104(%rsp)
	movl	%eax, %edx
	andb	$-64, %dh
	cmpw	$-32514, %dx
	je	.L981
	andw	$4095, %ax
	cmpw	$767, %ax
	je	.L981
	leaq	97(%rsp), %r15
.L983:
	movq	%r14, %rdx
	leaq	.LC32(%rip), %rsi
	movq	%r15, %rdi
	xorl	%eax, %eax
	movq	%rcx, (%rsp)
	call	sprintf@PLT
	movq	(%rsp), %rcx
.L982:
	leaq	96(%rsp), %rax
	movq	%r12, %rdi
	movq	%rcx, 8(%rsp)
	movq	%rax, %rsi
	movq	%rax, (%rsp)
	call	strcat@PLT
	movq	8(%rsp), %rcx
.L975:
	movq	%rcx, %rdi
	leaq	112(%rsp), %r15
	movq	%rcx, 8(%rsp)
	movq	%r15, 96(%rsp)
	call	strlen@PLT
	movq	8(%rsp), %rcx
	cmpq	$15, %rax
	movq	%rax, 40(%rsp)
	movq	%rax, %r14
	ja	.L1176
	cmpq	$1, %rax
	je	.L1177
	testq	%rax, %rax
	jne	.L1178
.L989:
	movq	%r15, %rdx
.L988:
	movq	%rax, 104(%rsp)
	movb	$0, (%rdx,%rax)
	movl	16(%rsp), %eax
	testl	%eax, %eax
	jne	.L980
.L991:
	movq	96(%rsp), %rcx
	movq	%r12, %rdi
	movl	$120, %esi
	xorl	%eax, %eax
	leaq	.LC33(%rip), %rdx
	call	snprintf@PLT
	movq	96(%rsp), %rdi
	cmpq	%r15, %rdi
	je	.L1009
	movq	112(%rsp), %rax
	leaq	1(%rax), %rsi
	call	_ZdlPvm@PLT
.L1009:
	movq	0(%rbp), %rax
	movq	(%rsp), %rsi
	movq	%r12, %rcx
	leaq	.LC34(%rip), %rdx
	movl	$8, 96(%rsp)
	leaq	24(%rax), %rdi
	call	_ZN7openpal6Logger3LogERKNS_10LogFiltersEPKcS5_@PLT
.LEHE24:
	jmp	.L966
	.p2align 4,,10
	.p2align 3
.L1022:
	movq	$0, 104(%rdi)
	movq	$0, (%rax)
.L1164:
	movq	$0, (%r12)
	testq	%r14, %r14
	je	.L1179
	movq	%r12, (%r14)
.L1025:
	addl	$1, %ebx
	cmpl	$3, %ebx
	je	.L1026
	movq	%r12, %r14
	jmp	.L1015
	.p2align 4,,10
	.p2align 3
.L1061:
	movq	%r12, 8(%rsp)
	jmp	.L1023
	.p2align 4,,10
	.p2align 3
.L1179:
	movq	%r12, 8(%rsp)
	jmp	.L1025
	.p2align 4,,10
	.p2align 3
.L1174:
	movl	172(%r15), %eax
	pxor	%xmm0, %xmm0
	movq	%rdx, 56(%rsp)
	leaq	68(%rsp), %rsi
	movl	$0, 64(%rsp)
	movl	$16, %ecx
	movq	%r12, %rdx
	movl	$2, %edi
	movl	%eax, 68(%rsp)
	movq	(%rsp), %rax
	movq	$0, 88(%rsp)
	movups	%xmm0, 72(%rsp)
	movl	$0, (%rax)
	call	inet_ntop@PLT
	movq	_ZGVZN4asio15system_categoryEvE8instance@GOTPCREL(%rip), %r15
	movq	%rax, %r14
	movzbl	(%r15), %eax
	testb	%al, %al
	je	.L968
	movq	_ZZN4asio15system_categoryEvE8instance@GOTPCREL(%rip), %rsi
.L969:
	movq	(%rsp), %rax
	movl	(%rax), %ecx
	movq	%rsi, 56(%rsp)
	testq	%r14, %r14
	je	.L1180
	leaq	96(%rsp), %rax
	leaq	112(%rsp), %r15
	movq	%r14, %rdi
	movl	%ecx, 8(%rsp)
	movq	%rax, (%rsp)
	movq	%r15, 96(%rsp)
	call	strlen@PLT
	movl	8(%rsp), %ecx
	cmpq	$15, %rax
	movq	%rax, 40(%rsp)
	movq	%rax, %r8
	ja	.L1181
	cmpq	$1, %rax
	je	.L1182
	testq	%rax, %rax
	jne	.L1183
.L1006:
	movq	%r15, %rdx
.L1005:
	movq	%rax, 104(%rsp)
	movb	$0, (%rdx,%rax)
	testl	%ecx, %ecx
	je	.L991
.L999:
	leaq	48(%rsp), %rdi
	movl	%ecx, 48(%rsp)
.LEHB25:
	call	_ZN4asio6detail14do_throw_errorERKSt10error_code@PLT
.LEHE25:
	.p2align 4,,10
	.p2align 3
.L1026:
	movl	$-1, 88(%r8)
	movq	24(%rsp), %rdi
	movb	$1, 144(%r8)
	call	pthread_mutex_unlock@PLT
	movq	16(%rsp), %r15
	movq	136(%rsp), %rbx
	leaq	120(%r15), %r13
	movq	%r13, %rdi
	call	pthread_mutex_lock@PLT
	cmpq	160(%r15), %rbx
	je	.L1184
.L1028:
	movq	32(%rbx), %rax
	testq	%rax, %rax
	je	.L1029
	movq	24(%rbx), %rdx
	movq	%rdx, 24(%rax)
.L1029:
	movq	24(%rbx), %rax
	testq	%rax, %rax
	je	.L1030
	movq	32(%rbx), %rdx
	movq	%rdx, 32(%rax)
.L1030:
	movq	16(%rsp), %r15
	movq	%r13, %rdi
	movq	168(%r15), %rax
	movq	$0, 32(%rbx)
	movq	%rax, 24(%rbx)
	movq	%rbx, 168(%r15)
	call	pthread_mutex_unlock@PLT
	movq	$0, 136(%rsp)
	cmpq	$0, 8(%rsp)
	je	.L1043
	movq	40(%r15), %rbx
	cmpb	$0, 40(%rbx)
	je	.L1032
	data16	leaq	_ZN4asio6detail15keyword_tss_ptrINS0_10call_stackINS0_15task_io_serviceENS0_27task_io_service_thread_infoEE7contextEE6value_E@tlsgd(%rip), %rdi
	.value	0x6666
	rex64
	call	__tls_get_addr@PLT
	movq	(%rax), %rax
	testq	%rax, %rax
	jne	.L1035
	jmp	.L1032
	.p2align 4
	.p2align 4,,10
	.p2align 3
.L1033:
	movq	16(%rax), %rax
	testq	%rax, %rax
	je	.L1032
.L1035:
	cmpq	(%rax), %rbx
	jne	.L1033
	movq	8(%rax), %rax
	testq	%rax, %rax
	je	.L1032
	movq	16(%rax), %rdx
	movq	8(%rsp), %rcx
	testq	%rdx, %rdx
	je	.L1036
	movq	%rcx, (%rdx)
.L1037:
	movq	%r12, 16(%rax)
	jmp	.L1043
	.p2align 4,,10
	.p2align 3
.L1171:
	movq	%r15, %rdi
	call	__cxa_guard_acquire@PLT
	testl	%eax, %eax
	je	.L1050
	movq	_ZZN4asio15system_categoryEvE8instance@GOTPCREL(%rip), %rsi
	movq	_ZN4asio6detail15system_categoryD1Ev@GOTPCREL(%rip), %rdi
	leaq	__dso_handle(%rip), %rdx
	call	__cxa_atexit@PLT
	movq	%r15, %rdi
	call	__cxa_guard_release@PLT
	jmp	.L1050
	.p2align 4,,10
	.p2align 3
.L1159:
	orl	$8, %r12d
	leaq	96(%rsp), %rcx
	movl	$13, %edx
	movq	$0, 96(%rsp)
	movb	%r12b, 132(%rsp)
	movl	$8, %r8d
	movl	$1, %esi
	movl	%r14d, %edi
	movl	$0, (%rax)
	call	setsockopt@PLT
	movq	_ZGVZN4asio15system_categoryEvE8instance@GOTPCREL(%rip), %r15
	movzbl	(%r15), %eax
	testb	%al, %al
	jne	.L1045
	movq	%r15, %rdi
	call	__cxa_guard_acquire@PLT
	testl	%eax, %eax
	je	.L1045
	movq	_ZZN4asio15system_categoryEvE8instance@GOTPCREL(%rip), %rsi
	movq	_ZN4asio6detail15system_categoryD1Ev@GOTPCREL(%rip), %rdi
	leaq	__dso_handle(%rip), %rdx
	call	__cxa_atexit@PLT
	movq	%r15, %rdi
	call	__cxa_guard_release@PLT
	jmp	.L1045
	.p2align 4,,10
	.p2align 3
.L1032:
	leaq	48(%rbx), %r13
	movq	%r13, %rdi
	call	pthread_mutex_lock@PLT
	movq	200(%rbx), %rax
	testq	%rax, %rax
	je	.L1038
	movq	8(%rsp), %rcx
	movq	%rcx, (%rax)
.L1039:
	movq	136(%rbx), %rax
	movq	%r12, 200(%rbx)
	movq	%rax, %rdx
	orq	$1, %rdx
	movq	%rdx, 136(%rbx)
	cmpq	$1, %rax
	jbe	.L1040
	movq	%r13, %rdi
	call	pthread_mutex_unlock@PLT
	leaq	88(%rbx), %rdi
	call	pthread_cond_signal@PLT
	jmp	.L1043
.L1173:
	movq	%r15, %rdi
	call	__cxa_guard_acquire@PLT
	testl	%eax, %eax
	je	.L1011
	movq	_ZZN4asio15system_categoryEvE8instance@GOTPCREL(%rip), %rsi
	movq	_ZN4asio6detail15system_categoryD1Ev@GOTPCREL(%rip), %rdi
	leaq	__dso_handle(%rip), %rdx
	call	__cxa_atexit@PLT
	movq	%r15, %rdi
	call	__cxa_guard_release@PLT
	jmp	.L1011
.L1055:
	movl	%r14d, %edi
	leaq	96(%rsp), %rdx
	movl	$21537, %esi
	xorl	%eax, %eax
	movl	$0, 96(%rsp)
	call	ioctl@PLT
	andb	$-4, 132(%rsp)
	movl	%r14d, %edi
	movl	$0, (%rbx)
	call	close@PLT
	jmp	.L1168
.L1172:
	movq	%r15, %rdi
	call	__cxa_guard_acquire@PLT
	testl	%eax, %eax
	je	.L1053
	movq	_ZZN4asio15system_categoryEvE8instance@GOTPCREL(%rip), %rsi
	movq	_ZN4asio6detail15system_categoryD1Ev@GOTPCREL(%rip), %rdi
	leaq	__dso_handle(%rip), %rdx
	call	__cxa_atexit@PLT
	movq	%r15, %rdi
	call	__cxa_guard_release@PLT
	jmp	.L1053
.L973:
	movl	16(%rsp), %edx
	testl	%edx, %edx
	je	.L1185
	leaq	112(%rsp), %rax
	movb	$0, 112(%rsp)
	movq	%rax, 96(%rsp)
	leaq	96(%rsp), %rax
	movq	$0, 104(%rsp)
	movq	%rax, (%rsp)
.L980:
	movl	16(%rsp), %eax
	leaq	48(%rsp), %rdi
	movl	%eax, 48(%rsp)
.LEHB26:
	call	_ZN4asio6detail14do_throw_errorERKSt10error_code@PLT
.LEHE26:
	.p2align 4,,10
	.p2align 3
.L1182:
	movzbl	(%r14), %edx
	movb	%dl, 112(%rsp)
	jmp	.L1006
	.p2align 4,,10
	.p2align 3
.L968:
	movq	%r15, %rdi
	call	__cxa_guard_acquire@PLT
	movq	_ZZN4asio15system_categoryEvE8instance@GOTPCREL(%rip), %rsi
	testl	%eax, %eax
	je	.L969
	movq	_ZN4asio6detail15system_categoryD1Ev@GOTPCREL(%rip), %rdi
	leaq	__dso_handle(%rip), %rdx
	movq	%rsi, 8(%rsp)
	call	__cxa_atexit@PLT
	movq	%r15, %rdi
	call	__cxa_guard_release@PLT
	movq	8(%rsp), %rsi
	jmp	.L969
	.p2align 4,,10
	.p2align 3
.L1180:
	testl	%ecx, %ecx
	je	.L1186
	leaq	112(%rsp), %rax
	movb	$0, 112(%rsp)
	movq	%rax, 96(%rsp)
	leaq	96(%rsp), %rax
	movq	$0, 104(%rsp)
	movq	%rax, (%rsp)
	jmp	.L999
	.p2align 4,,10
	.p2align 3
.L1158:
	movq	%r14, %r12
	jmp	.L1025
	.p2align 4,,10
	.p2align 3
.L1170:
	movq	16(%rsp), %rax
	movl	$0, 96(%rsp)
	leaq	96(%rsp), %rcx
	movl	%r14d, %edx
	movq	$0, 100(%rsp)
	movl	$2, %esi
	movl	96(%rax), %edi
	call	epoll_ctl@PLT
	movq	136(%rsp), %r8
	jmp	.L1014
	.p2align 4,,10
	.p2align 3
.L1184:
	movq	24(%rbx), %rax
	movq	16(%rsp), %rcx
	movq	%rax, 160(%rcx)
	jmp	.L1028
.L1175:
	leaq	96(%rsp), %rax
	movq	%rax, (%rsp)
	jmp	.L975
	.p2align 4,,10
	.p2align 3
.L1181:
	movq	(%rsp), %rdi
	leaq	40(%rsp), %rsi
	xorl	%edx, %edx
	movl	%ecx, 8(%rsp)
	movq	%rax, 16(%rsp)
.LEHB27:
	call	_ZNSt7__cxx1112basic_stringIcSt11char_traitsIcESaIcEE9_M_createERmm@PLT
	movl	8(%rsp), %ecx
	movq	16(%rsp), %r8
	movq	%rax, 96(%rsp)
	movq	%rax, %rdi
	movq	40(%rsp), %rax
	movq	%rax, 112(%rsp)
.L1003:
	movq	%r8, %rdx
	movq	%r14, %rsi
	movl	%ecx, 8(%rsp)
	call	memcpy@PLT
	movq	40(%rsp), %rax
	movq	96(%rsp), %rdx
	movl	8(%rsp), %ecx
	jmp	.L1005
.L1040:
	cmpb	$0, 176(%rbx)
	jne	.L1042
	movq	144(%rbx), %rax
	testq	%rax, %rax
	je	.L1042
	movb	$1, 176(%rbx)
	leaq	88(%rax), %rdx
	leaq	96(%rsp), %rcx
	movl	$3, %esi
	movq	%rdx, 100(%rsp)
	movl	88(%rax), %edx
	movl	$-2147483639, 96(%rsp)
	movl	96(%rax), %edi
	call	epoll_ctl@PLT
.L1042:
	movq	%r13, %rdi
	call	pthread_mutex_unlock@PLT
	jmp	.L1043
	.p2align 4,,10
	.p2align 3
.L970:
	movq	%r15, %rdi
	movq	%rcx, 16(%rsp)
	call	__cxa_guard_acquire@PLT
	movq	16(%rsp), %rcx
	testl	%eax, %eax
	je	.L1161
	movq	_ZZN4asio15system_categoryEvE8instance@GOTPCREL(%rip), %rsi
	movq	_ZN4asio6detail15system_categoryD1Ev@GOTPCREL(%rip), %rdi
	movq	%rcx, 24(%rsp)
	leaq	__dso_handle(%rip), %rdx
	movq	%rsi, 16(%rsp)
	call	__cxa_atexit@PLT
	movq	%r15, %rdi
	call	__cxa_guard_release@PLT
	movq	24(%rsp), %rcx
	movq	16(%rsp), %rsi
	jmp	.L971
.L1186:
	movzbl	(%r15), %eax
	testb	%al, %al
	je	.L1187
.L997:
	leaq	112(%rsp), %rax
	movq	%rsi, 56(%rsp)
	movl	$22, %ecx
	movq	%rax, 96(%rsp)
	leaq	96(%rsp), %rax
	movq	$0, 104(%rsp)
	movb	$0, 112(%rsp)
	movq	%rax, (%rsp)
	jmp	.L999
.L1177:
	movzbl	(%rcx), %edx
	movb	%dl, 112(%rsp)
	jmp	.L989
.L1176:
	movq	(%rsp), %rdi
	leaq	40(%rsp), %rsi
	xorl	%edx, %edx
	call	_ZNSt7__cxx1112basic_stringIcSt11char_traitsIcESaIcEE9_M_createERmm@PLT
.LEHE27:
	movq	8(%rsp), %rcx
	movq	%rax, 96(%rsp)
	movq	%rax, %rdi
	movq	40(%rsp), %rax
	movq	%rax, 112(%rsp)
.L986:
	movq	%r14, %rdx
	movq	%rcx, %rsi
	call	memcpy@PLT
	movq	40(%rsp), %rax
	movq	96(%rsp), %rdx
	jmp	.L988
.L981:
	movl	8(%rsp), %edi
	leaq	97(%rsp), %r15
	movq	%rcx, (%rsp)
	movq	%r15, %rsi
	call	if_indextoname@PLT
	movq	(%rsp), %rcx
	testq	%rax, %rax
	jne	.L982
	jmp	.L983
.L1038:
	movq	8(%rsp), %rax
	movq	%rax, 192(%rbx)
	jmp	.L1039
.L1036:
	movq	%rcx, 8(%rax)
	jmp	.L1037
.L1183:
	movq	%r15, %rdi
	jmp	.L1003
.L1185:
	movzbl	(%r15), %eax
	testb	%al, %al
	je	.L1188
.L978:
	leaq	112(%rsp), %rax
	movq	%rsi, 56(%rsp)
	movq	%rax, 96(%rsp)
	leaq	96(%rsp), %rax
	movq	$0, 104(%rsp)
	movb	$0, 112(%rsp)
	movl	$22, 16(%rsp)
	movq	%rax, (%rsp)
	jmp	.L980
.L1187:
	movq	%r15, %rdi
	movq	%rsi, (%rsp)
	call	__cxa_guard_acquire@PLT
	movq	(%rsp), %rsi
	testl	%eax, %eax
	je	.L997
	movq	_ZN4asio6detail15system_categoryD1Ev@GOTPCREL(%rip), %rdi
	leaq	__dso_handle(%rip), %rdx
	call	__cxa_atexit@PLT
	movq	%r15, %rdi
	call	__cxa_guard_release@PLT
	movq	(%rsp), %rsi
	jmp	.L997
.L1178:
	movq	%r15, %rdi
	jmp	.L986
.L1188:
	movq	%r15, %rdi
	movq	%rsi, (%rsp)
	call	__cxa_guard_acquire@PLT
	movq	(%rsp), %rsi
	testl	%eax, %eax
	je	.L978
	movq	_ZN4asio6detail15system_categoryD1Ev@GOTPCREL(%rip), %rdi
	leaq	__dso_handle(%rip), %rdx
	call	__cxa_atexit@PLT
	movq	%r15, %rdi
	call	__cxa_guard_release@PLT
	movq	(%rsp), %rsi
	jmp	.L978
.L1065:
	movq	%rax, %rbx
	jmp	.L1008
.L1062:
	movq	%rax, %rbx
	jmp	.L1060
.L1063:
	movq	%rax, %rbx
	jmp	.L1059
.L1064:
	movq	%rax, %rbx
	jmp	.L1008
	.section	.gcc_except_table
.LLSDA9525:
	.byte	0xff
	.byte	0xff
	.byte	0x1
	.uleb128 .LLSDACSE9525-.LLSDACSB9525
.LLSDACSB9525:
	.uleb128 .LEHB20-.LFB9525
	.uleb128 .LEHE20-.LEHB20
	.uleb128 0
	.uleb128 0
	.uleb128 .LEHB21-.LFB9525
	.uleb128 .LEHE21-.LEHB21
	.uleb128 .L1063-.LFB9525
	.uleb128 0
	.uleb128 .LEHB22-.LFB9525
	.uleb128 .LEHE22-.LEHB22
	.uleb128 0
	.uleb128 0
	.uleb128 .LEHB23-.LFB9525
	.uleb128 .LEHE23-.LEHB23
	.uleb128 .L1062-.LFB9525
	.uleb128 0
	.uleb128 .LEHB24-.LFB9525
	.uleb128 .LEHE24-.LEHB24
	.uleb128 0
	.uleb128 0
	.uleb128 .LEHB25-.LFB9525
	.uleb128 .LEHE25-.LEHB25
	.uleb128 .L1065-.LFB9525
	.uleb128 0
	.uleb128 .LEHB26-.LFB9525
	.uleb128 .LEHE26-.LEHB26
	.uleb128 .L1064-.LFB9525
	.uleb128 0
	.uleb128 .LEHB27-.LFB9525
	.uleb128 .LEHE27-.LEHB27
	.uleb128 0
	.uleb128 0
.LLSDACSE9525:
	.text
	.cfi_endproc
	.section	.text.unlikely
	.cfi_startproc
	.cfi_personality 0x9b,DW.ref.__gxx_personality_v0
	.cfi_lsda 0x1b,.LLSDAC9525
	.type	_ZZN7asiopal9TCPServer11StartAcceptEvENKUlSt10error_codeE_clES1_.isra.0.cold, @function
_ZZN7asiopal9TCPServer11StartAcceptEvENKUlSt10error_codeE_clES1_.isra.0.cold:
.LFSB9525:
.L1008:
	.cfi_def_cfa_offset 320
	.cfi_offset 3, -56
	.cfi_offset 6, -48
	.cfi_offset 12, -40
	.cfi_offset 13, -32
	.cfi_offset 14, -24
	.cfi_offset 15, -16
	movq	(%rsp), %rdi
	call	_ZNSt7__cxx1112basic_stringIcSt11char_traitsIcESaIcEE10_M_disposeEv@PLT
	movq	%rbx, %rdi
.LEHB28:
	call	_Unwind_Resume@PLT
.LEHE28:
.L1060:
	movq	152(%rsp), %rax
	movq	%r12, %rsi
	leaq	40(%rax), %rdi
	call	_ZN4asio6detail28reactive_socket_service_base7destroyERNS1_24base_implementation_typeE@PLT
	movq	%rbx, %rdi
.LEHB29:
	call	_Unwind_Resume@PLT
.L1059:
	leaq	128(%rsp), %rdi
	call	_ZNSt7__cxx1112basic_stringIcSt11char_traitsIcESaIcEE10_M_disposeEv@PLT
	movq	%rbx, %rdi
	call	_Unwind_Resume@PLT
.LEHE29:
	.cfi_endproc
.LFE9525:
	.section	.gcc_except_table
.LLSDAC9525:
	.byte	0xff
	.byte	0xff
	.byte	0x1
	.uleb128 .LLSDACSEC9525-.LLSDACSBC9525
.LLSDACSBC9525:
	.uleb128 .LEHB28-.LCOLDB35
	.uleb128 .LEHE28-.LEHB28
	.uleb128 0
	.uleb128 0
	.uleb128 .LEHB29-.LCOLDB35
	.uleb128 .LEHE29-.LEHB29
	.uleb128 0
	.uleb128 0
.LLSDACSEC9525:
	.section	.text.unlikely
	.text
	.size	_ZZN7asiopal9TCPServer11StartAcceptEvENKUlSt10error_codeE_clES1_.isra.0, .-_ZZN7asiopal9TCPServer11StartAcceptEvENKUlSt10error_codeE_clES1_.isra.0
	.section	.text.unlikely
	.size	_ZZN7asiopal9TCPServer11StartAcceptEvENKUlSt10error_codeE_clES1_.isra.0.cold, .-_ZZN7asiopal9TCPServer11StartAcceptEvENKUlSt10error_codeE_clES1_.isra.0.cold
.LCOLDE35:
	.text
.LHOTE35:
	.section	.text.unlikely
.LCOLDB36:
	.text
.LHOTB36:
	.p2align 4
	.type	_ZN4asio6detail18completion_handlerINS0_7binder1IZN7asiopal9TCPServer11StartAcceptEvEUlSt10error_codeE_S5_EEE11do_completeEPNS0_15task_io_serviceEPNS0_25task_io_service_operationERKS5_m, @function
_ZN4asio6detail18completion_handlerINS0_7binder1IZN7asiopal9TCPServer11StartAcceptEvEUlSt10error_codeE_S5_EEE11do_completeEPNS0_15task_io_serviceEPNS0_25task_io_service_operationERKS5_m:
.LFB9328:
	.cfi_startproc
	.cfi_personality 0x9b,DW.ref.__gxx_personality_v0
	.cfi_lsda 0x1b,.LLSDA9328
	pushq	%r12
	.cfi_def_cfa_offset 16
	.cfi_offset 12, -16
	movq	%rdi, %r12
	pushq	%rbp
	.cfi_def_cfa_offset 24
	.cfi_offset 6, -24
	pushq	%rbx
	.cfi_def_cfa_offset 32
	.cfi_offset 3, -32
	movq	%rsi, %rbx
	subq	$64, %rsp
	.cfi_def_cfa_offset 96
	movdqu	24(%rsi), %xmm0
	leaq	32(%rsp), %rbp
	movaps	%xmm0, 32(%rsp)
	movdqu	40(%rsi), %xmm0
	movq	%rbp, (%rsp)
	movaps	%xmm0, 48(%rsp)
	data16	leaq	_ZN4asio6detail15keyword_tss_ptrINS0_10call_stackINS0_15task_io_serviceENS0_27task_io_service_thread_infoEE7contextEE6value_E@tlsgd(%rip), %rdi
	.value	0x6666
	rex64
	call	__tls_get_addr@PLT
	movq	(%rax), %rax
	testq	%rax, %rax
	je	.L1191
	movq	8(%rax), %rax
	testq	%rax, %rax
	je	.L1191
	cmpq	$0, (%rax)
	je	.L1212
.L1191:
	movq	%rbx, %rdi
	call	_ZdlPv@PLT
.L1193:
	testq	%r12, %r12
	je	.L1211
	movq	56(%rsp), %rdx
	movl	48(%rsp), %esi
	movq	%rbp, %rdi
.LEHB30:
	call	_ZZN7asiopal9TCPServer11StartAcceptEvENKUlSt10error_codeE_clES1_.isra.0
.LEHE30:
	sfence
.L1211:
	movq	40(%rsp), %rbx
	testq	%rbx, %rbx
	je	.L1189
	movq	8(%rbx), %rdx
	leaq	8(%rbx), %rcx
	movabsq	$4294967297, %rax
	cmpq	%rax, %rdx
	je	.L1213
	movq	__libc_single_threaded@GOTPCREL(%rip), %rax
	cmpb	$0, (%rax)
	je	.L1198
	movl	8(%rbx), %eax
	leal	-1(%rax), %edx
	movl	%edx, 8(%rbx)
.L1199:
	cmpl	$1, %eax
	je	.L1214
.L1189:
	addq	$64, %rsp
	.cfi_remember_state
	.cfi_def_cfa_offset 32
	popq	%rbx
	.cfi_def_cfa_offset 24
	popq	%rbp
	.cfi_def_cfa_offset 16
	popq	%r12
	.cfi_def_cfa_offset 8
	ret
	.p2align 4,,10
	.p2align 3
.L1213:
	.cfi_restore_state
	movq	(%rbx), %rax
	movq	%rbx, %rdi
	movq	$0, 8(%rbx)
	call	*16(%rax)
	movq	(%rbx), %rax
	movq	%rbx, %rdi
	call	*24(%rax)
	addq	$64, %rsp
	.cfi_remember_state
	.cfi_def_cfa_offset 32
	popq	%rbx
	.cfi_def_cfa_offset 24
	popq	%rbp
	.cfi_def_cfa_offset 16
	popq	%r12
	.cfi_def_cfa_offset 8
	ret
	.p2align 4,,10
	.p2align 3
.L1212:
	.cfi_restore_state
	movzbl	56(%rbx), %edx
	movb	%dl, (%rbx)
	movq	%rbx, (%rax)
	jmp	.L1193
	.p2align 4,,10
	.p2align 3
.L1198:
	movl	$-1, %eax
	lock xaddl	%eax, (%rcx)
	jmp	.L1199
	.p2align 4,,10
	.p2align 3
.L1214:
	movq	%rbx, %rdi
	call	_ZNSt16_Sp_counted_baseILN9__gnu_cxx12_Lock_policyE2EE24_M_release_last_use_coldEv@PLT
	jmp	.L1189
.L1203:
	movq	%rax, %rbx
	jmp	.L1201
	.section	.gcc_except_table
.LLSDA9328:
	.byte	0xff
	.byte	0xff
	.byte	0x1
	.uleb128 .LLSDACSE9328-.LLSDACSB9328
.LLSDACSB9328:
	.uleb128 .LEHB30-.LFB9328
	.uleb128 .LEHE30-.LEHB30
	.uleb128 .L1203-.LFB9328
	.uleb128 0
.LLSDACSE9328:
	.text
	.cfi_endproc
	.section	.text.unlikely
	.cfi_startproc
	.cfi_personality 0x9b,DW.ref.__gxx_personality_v0
	.cfi_lsda 0x1b,.LLSDAC9328
	.type	_ZN4asio6detail18completion_handlerINS0_7binder1IZN7asiopal9TCPServer11StartAcceptEvEUlSt10error_codeE_S5_EEE11do_completeEPNS0_15task_io_serviceEPNS0_25task_io_service_operationERKS5_m.cold, @function
_ZN4asio6detail18completion_handlerINS0_7binder1IZN7asiopal9TCPServer11StartAcceptEvEUlSt10error_codeE_S5_EEE11do_completeEPNS0_15task_io_serviceEPNS0_25task_io_service_operationERKS5_m.cold:
.LFSB9328:
.L1201:
	.cfi_def_cfa_offset 96
	.cfi_offset 3, -32
	.cfi_offset 6, -24
	.cfi_offset 12, -16
	sfence
	movq	40(%rsp), %rdi
	testq	%rdi, %rdi
	je	.L1202
	call	_ZNSt16_Sp_counted_baseILN9__gnu_cxx12_Lock_policyE2EE10_M_releaseEv@PLT
.L1202:
	pxor	%xmm0, %xmm0
	movq	%rsp, %rdi
	movups	%xmm0, 8(%rsp)
	call	_ZN4asio6detail18completion_handlerINS0_7binder1IZN7asiopal9TCPServer11StartAcceptEvEUlSt10error_codeE_S5_EEE3ptr5resetEv
	movq	%rbx, %rdi
.LEHB31:
	call	_Unwind_Resume@PLT
.LEHE31:
	.cfi_endproc
.LFE9328:
	.section	.gcc_except_table
.LLSDAC9328:
	.byte	0xff
	.byte	0xff
	.byte	0x1
	.uleb128 .LLSDACSEC9328-.LLSDACSBC9328
.LLSDACSBC9328:
	.uleb128 .LEHB31-.LCOLDB36
	.uleb128 .LEHE31-.LEHB31
	.uleb128 0
	.uleb128 0
.LLSDACSEC9328:
	.section	.text.unlikely
	.text
	.size	_ZN4asio6detail18completion_handlerINS0_7binder1IZN7asiopal9TCPServer11StartAcceptEvEUlSt10error_codeE_S5_EEE11do_completeEPNS0_15task_io_serviceEPNS0_25task_io_service_operationERKS5_m, .-_ZN4asio6detail18completion_handlerINS0_7binder1IZN7asiopal9TCPServer11StartAcceptEvEUlSt10error_codeE_S5_EEE11do_completeEPNS0_15task_io_serviceEPNS0_25task_io_service_operationERKS5_m
	.section	.text.unlikely
	.size	_ZN4asio6detail18completion_handlerINS0_7binder1IZN7asiopal9TCPServer11StartAcceptEvEUlSt10error_codeE_S5_EEE11do_completeEPNS0_15task_io_serviceEPNS0_25task_io_service_operationERKS5_m.cold, .-_ZN4asio6detail18completion_handlerINS0_7binder1IZN7asiopal9TCPServer11StartAcceptEvEUlSt10error_codeE_S5_EEE11do_completeEPNS0_15task_io_serviceEPNS0_25task_io_service_operationERKS5_m.cold
.LCOLDE36:
	.text
.LHOTE36:
	.section	.text.unlikely
.LCOLDB37:
	.text
.LHOTB37:
	.p2align 4
	.type	_ZN4asio6detail18completion_handlerINS0_17rewrapped_handlerINS0_7binder1INS0_15wrapped_handlerINS_10io_service6strandEZN7asiopal9TCPServer11StartAcceptEvEUlSt10error_codeE_NS0_26is_continuation_if_runningEEES9_EESA_EEE11do_completeEPNS0_15task_io_serviceEPNS0_25task_io_service_operationERKS9_m, @function
_ZN4asio6detail18completion_handlerINS0_17rewrapped_handlerINS0_7binder1INS0_15wrapped_handlerINS_10io_service6strandEZN7asiopal9TCPServer11StartAcceptEvEUlSt10error_codeE_NS0_26is_continuation_if_runningEEES9_EESA_EEE11do_completeEPNS0_15task_io_serviceEPNS0_25task_io_service_operationERKS9_m:
.LFB9280:
	.cfi_startproc
	.cfi_personality 0x9b,DW.ref.__gxx_personality_v0
	.cfi_lsda 0x1b,.LLSDA9280
	pushq	%r14
	.cfi_def_cfa_offset 16
	.cfi_offset 14, -16
	pushq	%r13
	.cfi_def_cfa_offset 24
	.cfi_offset 13, -24
	movq	%rdi, %r13
	pushq	%r12
	.cfi_def_cfa_offset 32
	.cfi_offset 12, -32
	pushq	%rbp
	.cfi_def_cfa_offset 40
	.cfi_offset 6, -40
	movq	%rsi, %rbp
	pushq	%rbx
	.cfi_def_cfa_offset 48
	.cfi_offset 3, -48
	subq	$304, %rsp
	.cfi_def_cfa_offset 352
	movdqu	24(%rsi), %xmm0
	movdqu	72(%rsi), %xmm1
	leaq	240(%rsp), %r12
	movaps	%xmm0, 240(%rsp)
	movdqu	40(%rsi), %xmm0
	movq	%r12, 32(%rsp)
	movaps	%xmm0, 256(%rsp)
	movdqu	56(%rsi), %xmm0
	movaps	%xmm1, 288(%rsp)
	movaps	%xmm0, 272(%rsp)
	movaps	%xmm0, (%rsp)
	data16	leaq	_ZN4asio6detail15keyword_tss_ptrINS0_10call_stackINS0_15task_io_serviceENS0_27task_io_service_thread_infoEE7contextEE6value_E@tlsgd(%rip), %rdi
	.value	0x6666
	rex64
	call	__tls_get_addr@PLT
	movq	(%rax), %rax
	testq	%rax, %rax
	je	.L1216
	movq	8(%rax), %rax
	testq	%rax, %rax
	je	.L1216
	cmpq	$0, (%rax)
	je	.L1360
.L1216:
	movq	%rbp, %rdi
	call	_ZdlPv@PLT
	movq	280(%rsp), %rbx
.L1217:
	testq	%r13, %r13
	je	.L1218
	movq	272(%rsp), %xmm0
	movq	%rbx, %xmm3
	movq	272(%rsp), %r14
	punpcklqdq	%xmm3, %xmm0
	testq	%rbx, %rbx
	je	.L1219
	movq	__libc_single_threaded@GOTPCREL(%rip), %rax
	cmpb	$0, (%rax)
	je	.L1220
	addl	$1, 8(%rbx)
.L1219:
	movl	288(%rsp), %eax
	movaps	%xmm0, 192(%rsp)
	movl	%eax, 208(%rsp)
	movq	296(%rsp), %rax
	movq	%rax, 216(%rsp)
	data16	leaq	_ZN4asio6detail15keyword_tss_ptrINS0_10call_stackINS0_14strand_service11strand_implEhE7contextEE6value_E@tlsgd(%rip), %rdi
	.value	0x6666
	rex64
	call	__tls_get_addr@PLT
	movq	(%rax), %rax
	testq	%rax, %rax
	je	.L1221
	movq	264(%rsp), %rdx
	jmp	.L1224
	.p2align 4
	.p2align 4,,10
	.p2align 3
.L1222:
	movq	16(%rax), %rax
	testq	%rax, %rax
	je	.L1221
.L1224:
	cmpq	(%rax), %rdx
	jne	.L1222
	cmpq	$0, 8(%rax)
	je	.L1221
	lfence
	movq	216(%rsp), %rdx
	leaq	192(%rsp), %rdi
	movl	208(%rsp), %esi
.LEHB32:
	call	_ZZN7asiopal9TCPServer11StartAcceptEvENKUlSt10error_codeE_clES1_.isra.0
.LEHE32:
	sfence
.L1225:
	movq	200(%rsp), %rbx
	testq	%rbx, %rbx
	je	.L1282
	movq	8(%rbx), %rdx
	leaq	8(%rbx), %rcx
	movabsq	$4294967297, %rax
	cmpq	%rax, %rdx
	je	.L1361
	movq	__libc_single_threaded@GOTPCREL(%rip), %rax
	cmpb	$0, (%rax)
	je	.L1285
	movl	8(%rbx), %eax
	leal	-1(%rax), %edx
	movl	%edx, 8(%rbx)
.L1286:
	cmpl	$1, %eax
	je	.L1362
.L1282:
	sfence
	movq	280(%rsp), %rbx
.L1218:
	testq	%rbx, %rbx
	je	.L1290
	movq	8(%rbx), %rdx
	leaq	8(%rbx), %rcx
	movabsq	$4294967297, %rax
	cmpq	%rax, %rdx
	je	.L1363
	movq	__libc_single_threaded@GOTPCREL(%rip), %rax
	cmpb	$0, (%rax)
	je	.L1292
	movl	8(%rbx), %eax
	leal	-1(%rax), %edx
	movl	%edx, 8(%rbx)
.L1293:
	cmpl	$1, %eax
	je	.L1364
.L1290:
	movq	248(%rsp), %rbx
	testq	%rbx, %rbx
	je	.L1215
	movq	8(%rbx), %rdx
	leaq	8(%rbx), %rcx
	movabsq	$4294967297, %rax
	cmpq	%rax, %rdx
	je	.L1365
	movq	__libc_single_threaded@GOTPCREL(%rip), %rax
	cmpb	$0, (%rax)
	je	.L1298
	movl	8(%rbx), %eax
	leal	-1(%rax), %edx
	movl	%edx, 8(%rbx)
.L1299:
	cmpl	$1, %eax
	je	.L1366
.L1215:
	addq	$304, %rsp
	.cfi_remember_state
	.cfi_def_cfa_offset 48
	popq	%rbx
	.cfi_def_cfa_offset 40
	popq	%rbp
	.cfi_def_cfa_offset 32
	popq	%r12
	.cfi_def_cfa_offset 24
	popq	%r13
	.cfi_def_cfa_offset 16
	popq	%r14
	.cfi_def_cfa_offset 8
	ret
	.p2align 4,,10
	.p2align 3
.L1221:
	.cfi_restore_state
	leaq	192(%rsp), %rax
	movq	256(%rsp), %rbp
	movq	%rax, 64(%rsp)
	data16	leaq	_ZN4asio6detail15keyword_tss_ptrINS0_10call_stackINS0_15task_io_serviceENS0_27task_io_service_thread_infoEE7contextEE6value_E@tlsgd(%rip), %rdi
	.value	0x6666
	rex64
	call	__tls_get_addr@PLT
	movq	(%rax), %rax
	testq	%rax, %rax
	je	.L1226
	movq	8(%rax), %rax
	testq	%rax, %rax
	je	.L1226
	movq	(%rax), %r13
	testq	%r13, %r13
	je	.L1226
	movq	$0, (%rax)
	movzbl	0(%r13), %eax
	cmpb	$55, %al
	jbe	.L1227
	movb	%al, 56(%r13)
	jmp	.L1228
	.p2align 4,,10
	.p2align 3
.L1227:
	movq	%r13, %rdi
	call	_ZdlPv@PLT
.L1226:
	movl	$57, %edi
.LEHB33:
	call	_Znwm@PLT
.LEHE33:
	movb	$56, 56(%rax)
	movq	192(%rsp), %r14
	movq	%rax, %r13
	movq	200(%rsp), %rbx
.L1228:
	leaq	_ZN4asio6detail18completion_handlerINS0_7binder1IZN7asiopal9TCPServer11StartAcceptEvEUlSt10error_codeE_S5_EEE11do_completeEPNS0_15task_io_serviceEPNS0_25task_io_service_operationERKS5_m(%rip), %rax
	pxor	%xmm0, %xmm0
	movq	%r14, 24(%r13)
	movq	%r13, %xmm2
	movq	$0, 0(%r13)
	punpcklqdq	%xmm2, %xmm2
	movq	%rax, 8(%r13)
	movl	$0, 16(%r13)
	movaps	%xmm0, 192(%rsp)
	movdqa	208(%rsp), %xmm0
	movq	%rbx, 32(%r13)
	movups	%xmm0, 40(%r13)
	movaps	%xmm2, (%rsp)
	data16	leaq	_ZN4asio6detail15keyword_tss_ptrINS0_10call_stackINS0_15task_io_serviceENS0_27task_io_service_thread_infoEE7contextEE6value_E@tlsgd(%rip), %rdi
	.value	0x6666
	rex64
	call	__tls_get_addr@PLT
	movq	264(%rsp), %rdi
	movq	(%rax), %rax
	testq	%rax, %rax
	je	.L1356
	movq	40(%rbp), %rdx
	jmp	.L1233
	.p2align 4
	.p2align 4,,10
	.p2align 3
.L1230:
	movq	16(%rax), %rax
	testq	%rax, %rax
	je	.L1356
.L1233:
	cmpq	(%rax), %rdx
	jne	.L1230
	movq	8(%rax), %rbx
	addq	$24, %rdi
	call	pthread_mutex_lock@PLT
	testq	%rbx, %rbx
	je	.L1232
	movq	264(%rsp), %rdi
	cmpb	$0, 64(%rdi)
	je	.L1367
.L1235:
	movq	80(%rdi), %rax
	movq	$0, 0(%r13)
	testq	%rax, %rax
	je	.L1239
	movq	%r13, (%rax)
	movq	%r13, 80(%rdi)
.L1240:
	addq	$24, %rdi
	call	pthread_mutex_unlock@PLT
	jmp	.L1225
	.p2align 4,,10
	.p2align 3
.L1367:
	movb	$1, 64(%rdi)
	addq	$24, %rdi
	call	pthread_mutex_unlock@PLT
	movq	264(%rsp), %rbx
	movq	%rbx, 96(%rsp)
	data16	leaq	_ZN4asio6detail15keyword_tss_ptrINS0_10call_stackINS0_14strand_service11strand_implEhE7contextEE6value_E@tlsgd(%rip), %rdi
	.value	0x6666
	rex64
	call	__tls_get_addr@PLT
	movdqu	24(%r13), %xmm0
	movq	40(%rbp), %rbp
	movaps	%xmm0, 160(%rsp)
	movdqu	40(%r13), %xmm0
	movaps	%xmm0, 176(%rsp)
	movq	(%rax), %rdx
	movq	%rdx, 112(%rsp)
	leaq	96(%rsp), %rdx
	movq	%rdx, (%rax)
	leaq	160(%rsp), %rax
	movq	%rdx, 104(%rsp)
	movq	%rax, %r14
	movq	%rax, 128(%rsp)
	data16	leaq	_ZN4asio6detail15keyword_tss_ptrINS0_10call_stackINS0_15task_io_serviceENS0_27task_io_service_thread_infoEE7contextEE6value_E@tlsgd(%rip), %rdi
	.value	0x6666
	rex64
	call	__tls_get_addr@PLT
	movq	(%rax), %rax
	testq	%rax, %rax
	je	.L1237
	movq	8(%rax), %rax
	testq	%rax, %rax
	je	.L1237
	cmpq	$0, (%rax)
	je	.L1368
.L1237:
	movq	%r13, %rdi
	call	_ZdlPv@PLT
.L1254:
	testq	%rbp, %rbp
	je	.L1359
	movq	184(%rsp), %rdx
	movl	176(%rsp), %esi
	movq	%r14, %rdi
.LEHB34:
	call	_ZZN7asiopal9TCPServer11StartAcceptEvENKUlSt10error_codeE_clES1_.isra.0
.LEHE34:
	sfence
.L1359:
	movq	168(%rsp), %r12
	testq	%r12, %r12
	je	.L1259
	movq	8(%r12), %rdx
	leaq	8(%r12), %rcx
	movabsq	$4294967297, %rax
	cmpq	%rax, %rdx
	je	.L1369
	movq	__libc_single_threaded@GOTPCREL(%rip), %rax
	cmpb	$0, (%rax)
	je	.L1261
	movl	8(%r12), %eax
	leal	-1(%rax), %edx
	movl	%edx, 8(%r12)
.L1262:
	cmpl	$1, %eax
	je	.L1370
.L1259:
	leaq	24(%rbx), %r13
	movq	%r13, %rdi
	call	pthread_mutex_lock@PLT
	movq	72(%rbx), %r12
	testq	%r12, %r12
	je	.L1371
	movq	96(%rbx), %rax
	testq	%rax, %rax
	je	.L1268
	movq	%r12, (%rax)
	movq	88(%rbx), %r12
.L1269:
	movq	80(%rbx), %rax
	pxor	%xmm0, %xmm0
	movups	%xmm0, 72(%rbx)
	movq	%rax, 96(%rbx)
.L1264:
	testq	%r12, %r12
	movq	%r13, %rdi
	setne	64(%rbx)
	call	pthread_mutex_unlock@PLT
	testq	%r12, %r12
	je	.L1270
	movq	%rbx, %xmm5
	punpcklqdq	%xmm5, %xmm5
	movaps	%xmm5, (%rsp)
	cmpb	$0, 40(%rbp)
	je	.L1271
	data16	leaq	_ZN4asio6detail15keyword_tss_ptrINS0_10call_stackINS0_15task_io_serviceENS0_27task_io_service_thread_infoEE7contextEE6value_E@tlsgd(%rip), %rdi
	.value	0x6666
	rex64
	call	__tls_get_addr@PLT
	movq	(%rax), %rax
	testq	%rax, %rax
	jne	.L1274
	jmp	.L1271
	.p2align 4
	.p2align 4,,10
	.p2align 3
.L1272:
	movq	16(%rax), %rax
	testq	%rax, %rax
	je	.L1271
.L1274:
	cmpq	(%rax), %rbp
	jne	.L1272
	movq	8(%rax), %rax
	testq	%rax, %rax
	je	.L1271
	movq	16(%rax), %rdx
	addq	$1, 24(%rax)
	movq	$0, (%rbx)
	testq	%rdx, %rdx
	je	.L1275
	movq	%rbx, (%rdx)
	movq	%rbx, 16(%rax)
	.p2align 4
	.p2align 3
.L1270:
	data16	leaq	_ZN4asio6detail15keyword_tss_ptrINS0_10call_stackINS0_14strand_service11strand_implEhE7contextEE6value_E@tlsgd(%rip), %rdi
	.value	0x6666
	rex64
	call	__tls_get_addr@PLT
	movq	112(%rsp), %rdx
	movq	%rdx, (%rax)
	jmp	.L1225
	.p2align 4,,10
	.p2align 3
.L1365:
	movq	(%rbx), %rax
	movq	%rbx, %rdi
	movq	$0, 8(%rbx)
	call	*16(%rax)
	movq	(%rbx), %rax
	movq	%rbx, %rdi
	call	*24(%rax)
	addq	$304, %rsp
	.cfi_remember_state
	.cfi_def_cfa_offset 48
	popq	%rbx
	.cfi_def_cfa_offset 40
	popq	%rbp
	.cfi_def_cfa_offset 32
	popq	%r12
	.cfi_def_cfa_offset 24
	popq	%r13
	.cfi_def_cfa_offset 16
	popq	%r14
	.cfi_def_cfa_offset 8
	ret
	.p2align 4,,10
	.p2align 3
.L1363:
	.cfi_restore_state
	movq	(%rbx), %rax
	movq	%rbx, %rdi
	movq	$0, 8(%rbx)
	call	*16(%rax)
	movq	(%rbx), %rax
	movq	%rbx, %rdi
	call	*24(%rax)
	jmp	.L1290
	.p2align 4,,10
	.p2align 3
.L1285:
	movl	$-1, %eax
	lock xaddl	%eax, (%rcx)
	jmp	.L1286
	.p2align 4,,10
	.p2align 3
.L1360:
	movzbl	88(%rbp), %edx
	movq	8(%rsp), %rbx
	movb	%dl, 0(%rbp)
	movq	%rbp, (%rax)
	jmp	.L1217
	.p2align 4,,10
	.p2align 3
.L1239:
	movdqa	(%rsp), %xmm7
	movups	%xmm7, 72(%rdi)
	jmp	.L1240
	.p2align 4,,10
	.p2align 3
.L1220:
	lock addl	$1, 8(%rbx)
	jmp	.L1219
	.p2align 4,,10
	.p2align 3
.L1298:
	movl	$-1, %eax
	lock xaddl	%eax, (%rcx)
	jmp	.L1299
	.p2align 4,,10
	.p2align 3
.L1292:
	movl	$-1, %eax
	lock xaddl	%eax, (%rcx)
	jmp	.L1293
	.p2align 4,,10
	.p2align 3
.L1356:
	addq	$24, %rdi
	call	pthread_mutex_lock@PLT
.L1232:
	movq	264(%rsp), %rdi
	cmpb	$0, 64(%rdi)
	jne	.L1235
	movb	$1, 64(%rdi)
	addq	$24, %rdi
	call	pthread_mutex_unlock@PLT
	movq	264(%rsp), %r12
	movq	$0, 0(%r13)
	movq	%r12, %xmm4
	movq	96(%r12), %rax
	punpcklqdq	%xmm4, %xmm4
	movaps	%xmm4, 16(%rsp)
	testq	%rax, %rax
	je	.L1242
	movq	%r13, (%rax)
	movq	%r13, 96(%r12)
.L1243:
	movq	40(%rbp), %rbx
	cmpb	$0, 40(%rbx)
	je	.L1244
	data16	leaq	_ZN4asio6detail15keyword_tss_ptrINS0_10call_stackINS0_15task_io_serviceENS0_27task_io_service_thread_infoEE7contextEE6value_E@tlsgd(%rip), %rdi
	.value	0x6666
	rex64
	call	__tls_get_addr@PLT
	movq	(%rax), %rax
	testq	%rax, %rax
	jne	.L1247
	jmp	.L1244
	.p2align 4
	.p2align 4,,10
	.p2align 3
.L1245:
	movq	16(%rax), %rax
	testq	%rax, %rax
	je	.L1244
.L1247:
	cmpq	(%rax), %rbx
	jne	.L1245
	movq	8(%rax), %rax
	testq	%rax, %rax
	je	.L1244
	movq	16(%rax), %rdx
	addq	$1, 24(%rax)
	movq	$0, (%r12)
	testq	%rdx, %rdx
	je	.L1248
	movq	%r12, (%rdx)
	movq	%r12, 16(%rax)
	jmp	.L1225
	.p2align 4,,10
	.p2align 3
.L1244:
	lock addq	$1, 184(%rbx)
	leaq	48(%rbx), %rbp
	movq	%rbp, %rdi
	call	pthread_mutex_lock@PLT
	movq	200(%rbx), %rax
	movq	$0, (%r12)
	testq	%rax, %rax
	je	.L1249
	movq	%r12, (%rax)
	movq	%r12, 200(%rbx)
.L1250:
	movq	136(%rbx), %rax
	movq	%rax, %rdx
	orq	$1, %rdx
	movq	%rdx, 136(%rbx)
	cmpq	$1, %rax
	ja	.L1372
	cmpb	$0, 176(%rbx)
	jne	.L1253
	movq	144(%rbx), %rax
	testq	%rax, %rax
	je	.L1253
	movb	$1, 176(%rbx)
	leaq	88(%rax), %rdx
	movl	$3, %esi
	leaq	160(%rsp), %rcx
	movq	%rdx, 164(%rsp)
	movl	88(%rax), %edx
	movl	$-2147483639, 160(%rsp)
	movl	96(%rax), %edi
	call	epoll_ctl@PLT
.L1253:
	movq	%rbp, %rdi
	call	pthread_mutex_unlock@PLT
	jmp	.L1225
	.p2align 4,,10
	.p2align 3
.L1271:
	lock addq	$1, 184(%rbp)
	leaq	48(%rbp), %r12
	movq	%r12, %rdi
	call	pthread_mutex_lock@PLT
	movq	200(%rbp), %rax
	movq	$0, (%rbx)
	testq	%rax, %rax
	je	.L1276
	movq	%rbx, (%rax)
	movq	%rbx, 200(%rbp)
.L1277:
	movq	136(%rbp), %rax
	movq	%rax, %rdx
	orq	$1, %rdx
	movq	%rdx, 136(%rbp)
	cmpq	$1, %rax
	ja	.L1373
	cmpb	$0, 176(%rbp)
	jne	.L1280
	movq	144(%rbp), %rax
	testq	%rax, %rax
	je	.L1280
	movb	$1, 176(%rbp)
	leaq	88(%rax), %rdx
	movq	%r14, %rcx
	movl	$3, %esi
	movq	%rdx, 164(%rsp)
	movl	88(%rax), %edx
	movl	$-2147483639, 160(%rsp)
	movl	96(%rax), %edi
	call	epoll_ctl@PLT
.L1280:
	movq	%r12, %rdi
	call	pthread_mutex_unlock@PLT
	jmp	.L1270
	.p2align 4,,10
	.p2align 3
.L1361:
	movq	(%rbx), %rax
	movq	%rbx, %rdi
	movq	$0, 8(%rbx)
	call	*16(%rax)
	movq	(%rbx), %rax
	movq	%rbx, %rdi
	call	*24(%rax)
	jmp	.L1282
	.p2align 4,,10
	.p2align 3
.L1371:
	movq	88(%rbx), %r12
	jmp	.L1264
.L1372:
	movq	%rbp, %rdi
	call	pthread_mutex_unlock@PLT
	leaq	88(%rbx), %rdi
	call	pthread_cond_signal@PLT
	jmp	.L1225
.L1373:
	movq	%r12, %rdi
	call	pthread_mutex_unlock@PLT
	leaq	88(%rbp), %rdi
	call	pthread_cond_signal@PLT
	jmp	.L1270
.L1364:
	movq	%rbx, %rdi
	call	_ZNSt16_Sp_counted_baseILN9__gnu_cxx12_Lock_policyE2EE24_M_release_last_use_coldEv@PLT
	jmp	.L1290
.L1366:
	movq	%rbx, %rdi
	call	_ZNSt16_Sp_counted_baseILN9__gnu_cxx12_Lock_policyE2EE24_M_release_last_use_coldEv@PLT
	jmp	.L1215
.L1362:
	movq	%rbx, %rdi
	call	_ZNSt16_Sp_counted_baseILN9__gnu_cxx12_Lock_policyE2EE24_M_release_last_use_coldEv@PLT
	jmp	.L1282
.L1268:
	movq	%r12, 88(%rbx)
	jmp	.L1269
.L1242:
	movdqa	(%rsp), %xmm7
	movups	%xmm7, 88(%r12)
	jmp	.L1243
.L1261:
	movl	$-1, %eax
	lock xaddl	%eax, (%rcx)
	jmp	.L1262
.L1249:
	movdqa	16(%rsp), %xmm6
	movups	%xmm6, 192(%rbx)
	jmp	.L1250
.L1276:
	movdqa	(%rsp), %xmm6
	movups	%xmm6, 192(%rbp)
	jmp	.L1277
.L1369:
	movq	$0, 8(%r12)
	movq	(%r12), %rax
	movq	%r12, %rdi
	call	*16(%rax)
	movq	(%r12), %rax
	movq	%r12, %rdi
	call	*24(%rax)
	jmp	.L1259
.L1368:
	movzbl	56(%r13), %edx
	movb	%dl, 0(%r13)
	movq	%r13, (%rax)
	jmp	.L1254
.L1275:
	movdqa	(%rsp), %xmm7
	movups	%xmm7, 8(%rax)
	jmp	.L1270
.L1248:
	movdqa	16(%rsp), %xmm7
	movups	%xmm7, 8(%rax)
	jmp	.L1225
.L1370:
	movq	%r12, %rdi
	call	_ZNSt16_Sp_counted_baseILN9__gnu_cxx12_Lock_policyE2EE24_M_release_last_use_coldEv@PLT
	jmp	.L1259
.L1301:
	movq	%rax, %r13
	jmp	.L1267
.L1302:
	jmp	.L1283
.L1303:
	movq	%rax, %r13
	jmp	.L1265
	.section	.gcc_except_table
.LLSDA9280:
	.byte	0xff
	.byte	0xff
	.byte	0x1
	.uleb128 .LLSDACSE9280-.LLSDACSB9280
.LLSDACSB9280:
	.uleb128 .LEHB32-.LFB9280
	.uleb128 .LEHE32-.LEHB32
	.uleb128 .L1302-.LFB9280
	.uleb128 0
	.uleb128 .LEHB33-.LFB9280
	.uleb128 .LEHE33-.LEHB33
	.uleb128 .L1301-.LFB9280
	.uleb128 0
	.uleb128 .LEHB34-.LFB9280
	.uleb128 .LEHE34-.LEHB34
	.uleb128 .L1303-.LFB9280
	.uleb128 0
.LLSDACSE9280:
	.text
	.cfi_endproc
	.section	.text.unlikely
	.cfi_startproc
	.cfi_personality 0x9b,DW.ref.__gxx_personality_v0
	.cfi_lsda 0x1b,.LLSDAC9280
	.type	_ZN4asio6detail18completion_handlerINS0_17rewrapped_handlerINS0_7binder1INS0_15wrapped_handlerINS_10io_service6strandEZN7asiopal9TCPServer11StartAcceptEvEUlSt10error_codeE_NS0_26is_continuation_if_runningEEES9_EESA_EEE11do_completeEPNS0_15task_io_serviceEPNS0_25task_io_service_operationERKS9_m.cold, @function
_ZN4asio6detail18completion_handlerINS0_17rewrapped_handlerINS0_7binder1INS0_15wrapped_handlerINS_10io_service6strandEZN7asiopal9TCPServer11StartAcceptEvEUlSt10error_codeE_NS0_26is_continuation_if_runningEEES9_EESA_EEE11do_completeEPNS0_15task_io_serviceEPNS0_25task_io_service_operationERKS9_m.cold:
.LFSB9280:
.L1265:
	.cfi_def_cfa_offset 352
	.cfi_offset 3, -48
	.cfi_offset 6, -40
	.cfi_offset 12, -32
	.cfi_offset 13, -24
	.cfi_offset 14, -16
	movq	%rbp, %xmm7
	movq	%rbx, %xmm6
	punpcklqdq	%xmm6, %xmm7
	movaps	%xmm7, (%rsp)
	sfence
	movq	168(%rsp), %rdi
	testq	%rdi, %rdi
	jne	.L1374
.L1266:
	pxor	%xmm0, %xmm0
	leaq	128(%rsp), %rdi
	movups	%xmm0, 136(%rsp)
	call	_ZN4asio6detail18completion_handlerINS0_7binder1IZN7asiopal9TCPServer11StartAcceptEvEUlSt10error_codeE_S5_EEE3ptr5resetEv
	movdqa	(%rsp), %xmm7
	movq	%r14, %rdi
	movaps	%xmm7, 160(%rsp)
	call	_ZN4asio6detail14strand_service16on_dispatch_exitD1Ev@PLT
	data16	leaq	_ZN4asio6detail15keyword_tss_ptrINS0_10call_stackINS0_14strand_service11strand_implEhE7contextEE6value_E@tlsgd(%rip), %rdi
	.value	0x6666
	rex64
	call	__tls_get_addr@PLT
	movq	112(%rsp), %rdx
	pxor	%xmm0, %xmm0
	leaq	64(%rsp), %rdi
	movups	%xmm0, 72(%rsp)
	movq	%rdx, (%rax)
	call	_ZN4asio6detail18completion_handlerINS0_7binder1IZN7asiopal9TCPServer11StartAcceptEvEUlSt10error_codeE_S5_EEE3ptr5resetEv
.L1267:
	movq	200(%rsp), %rdi
	testq	%rdi, %rdi
	je	.L1288
	call	_ZNSt16_Sp_counted_baseILN9__gnu_cxx12_Lock_policyE2EE10_M_releaseEv@PLT
.L1288:
	sfence
	movq	%r12, %rdi
	call	_ZN4asio6detail17rewrapped_handlerINS0_7binder1INS0_15wrapped_handlerINS_10io_service6strandEZN7asiopal9TCPServer11StartAcceptEvEUlSt10error_codeE_NS0_26is_continuation_if_runningEEES8_EES9_ED1Ev
	pxor	%xmm0, %xmm0
	leaq	32(%rsp), %rdi
	movups	%xmm0, 40(%rsp)
	call	_ZN4asio6detail18completion_handlerINS0_17rewrapped_handlerINS0_7binder1INS0_15wrapped_handlerINS_10io_service6strandEZN7asiopal9TCPServer11StartAcceptEvEUlSt10error_codeE_NS0_26is_continuation_if_runningEEES9_EESA_EEE3ptr5resetEv
	movq	%r13, %rdi
.LEHB35:
	call	_Unwind_Resume@PLT
.LEHE35:
.L1283:
	sfence
	movq	%rax, %r13
	jmp	.L1267
.L1374:
	call	_ZNSt16_Sp_counted_baseILN9__gnu_cxx12_Lock_policyE2EE10_M_releaseEv@PLT
	jmp	.L1266
	.cfi_endproc
.LFE9280:
	.section	.gcc_except_table
.LLSDAC9280:
	.byte	0xff
	.byte	0xff
	.byte	0x1
	.uleb128 .LLSDACSEC9280-.LLSDACSBC9280
.LLSDACSBC9280:
	.uleb128 .LEHB35-.LCOLDB37
	.uleb128 .LEHE35-.LEHB35
	.uleb128 0
	.uleb128 0
.LLSDACSEC9280:
	.section	.text.unlikely
	.text
	.size	_ZN4asio6detail18completion_handlerINS0_17rewrapped_handlerINS0_7binder1INS0_15wrapped_handlerINS_10io_service6strandEZN7asiopal9TCPServer11StartAcceptEvEUlSt10error_codeE_NS0_26is_continuation_if_runningEEES9_EESA_EEE11do_completeEPNS0_15task_io_serviceEPNS0_25task_io_service_operationERKS9_m, .-_ZN4asio6detail18completion_handlerINS0_17rewrapped_handlerINS0_7binder1INS0_15wrapped_handlerINS_10io_service6strandEZN7asiopal9TCPServer11StartAcceptEvEUlSt10error_codeE_NS0_26is_continuation_if_runningEEES9_EESA_EEE11do_completeEPNS0_15task_io_serviceEPNS0_25task_io_service_operationERKS9_m
	.section	.text.unlikely
	.size	_ZN4asio6detail18completion_handlerINS0_17rewrapped_handlerINS0_7binder1INS0_15wrapped_handlerINS_10io_service6strandEZN7asiopal9TCPServer11StartAcceptEvEUlSt10error_codeE_NS0_26is_continuation_if_runningEEES9_EESA_EEE11do_completeEPNS0_15task_io_serviceEPNS0_25task_io_service_operationERKS9_m.cold, .-_ZN4asio6detail18completion_handlerINS0_17rewrapped_handlerINS0_7binder1INS0_15wrapped_handlerINS_10io_service6strandEZN7asiopal9TCPServer11StartAcceptEvEUlSt10error_codeE_NS0_26is_continuation_if_runningEEES9_EESA_EEE11do_completeEPNS0_15task_io_serviceEPNS0_25task_io_service_operationERKS9_m.cold
.LCOLDE37:
	.text
.LHOTE37:
	.section	.text.unlikely
.LCOLDB38:
	.text
.LHOTB38:
	.p2align 4
	.type	_ZN4asio6detail25reactive_socket_accept_opINS_12basic_socketINS_2ip3tcpENS_21stream_socket_serviceIS4_EEEES4_NS0_15wrapped_handlerINS_10io_service6strandEZN7asiopal9TCPServer11StartAcceptEvEUlSt10error_codeE_NS0_26is_continuation_if_runningEEEE11do_completeEPNS0_15task_io_serviceEPNS0_25task_io_service_operationERKSD_m, @function
_ZN4asio6detail25reactive_socket_accept_opINS_12basic_socketINS_2ip3tcpENS_21stream_socket_serviceIS4_EEEES4_NS0_15wrapped_handlerINS_10io_service6strandEZN7asiopal9TCPServer11StartAcceptEvEUlSt10error_codeE_NS0_26is_continuation_if_runningEEEE11do_completeEPNS0_15task_io_serviceEPNS0_25task_io_service_operationERKSD_m:
.LFB8993:
	.cfi_startproc
	.cfi_personality 0x9b,DW.ref.__gxx_personality_v0
	.cfi_lsda 0x1b,.LLSDA8993
	pushq	%r15
	.cfi_def_cfa_offset 16
	.cfi_offset 15, -16
	pushq	%r14
	.cfi_def_cfa_offset 24
	.cfi_offset 14, -24
	pushq	%r12
	.cfi_def_cfa_offset 32
	.cfi_offset 12, -32
	movq	%rdi, %r12
	pushq	%rbp
	.cfi_def_cfa_offset 40
	.cfi_offset 6, -40
	movq	%rsi, %rbp
	pushq	%rbx
	.cfi_def_cfa_offset 48
	.cfi_offset 3, -48
	subq	$432, %rsp
	.cfi_def_cfa_offset 480
	movdqu	88(%rsi), %xmm0
	movdqu	24(%rsi), %xmm1
	leaq	240(%rsp), %rax
	movaps	%xmm0, 240(%rsp)
	movdqu	104(%rsi), %xmm0
	movq	%rax, 32(%rsp)
	movaps	%xmm0, 256(%rsp)
	movaps	%xmm0, (%rsp)
	movaps	%xmm1, 272(%rsp)
	data16	leaq	_ZN4asio6detail15keyword_tss_ptrINS0_10call_stackINS0_15task_io_serviceENS0_27task_io_service_thread_infoEE7contextEE6value_E@tlsgd(%rip), %rdi
	.value	0x6666
	rex64
	call	__tls_get_addr@PLT
	movq	(%rax), %rax
	testq	%rax, %rax
	je	.L1376
	movq	8(%rax), %rax
	testq	%rax, %rax
	je	.L1376
	cmpq	$0, (%rax)
	je	.L1614
.L1376:
	movq	%rbp, %rdi
	call	_ZdlPv@PLT
	movq	264(%rsp), %rbx
.L1377:
	testq	%r12, %r12
	je	.L1613
	movq	256(%rsp), %xmm2
	movq	%rbx, %xmm5
	movq	256(%rsp), %r14
	punpcklqdq	%xmm5, %xmm2
	testq	%rbx, %rbx
	je	.L1383
	movq	__libc_single_threaded@GOTPCREL(%rip), %rax
	cmpb	$0, (%rax)
	je	.L1382
	addl	$1, 8(%rbx)
.L1383:
	movdqa	%xmm2, %xmm3
.L1381:
	pxor	%xmm0, %xmm0
	movaps	%xmm2, 352(%rsp)
	movdqa	240(%rsp), %xmm1
	movaps	%xmm0, 256(%rsp)
	movdqa	272(%rsp), %xmm0
	movq	$0, 320(%rsp)
	movaps	%xmm1, 304(%rsp)
	movaps	%xmm0, 336(%rsp)
	movaps	%xmm1, 368(%rsp)
	movaps	%xmm3, 384(%rsp)
	movaps	%xmm0, 400(%rsp)
	data16	leaq	_ZN4asio6detail15keyword_tss_ptrINS0_10call_stackINS0_14strand_service11strand_implEhE7contextEE6value_E@tlsgd(%rip), %rdi
	.value	0x6666
	rex64
	call	__tls_get_addr@PLT
	movq	(%rax), %rax
	testq	%rax, %rax
	je	.L1384
	movq	248(%rsp), %rdx
	jmp	.L1387
	.p2align 4
	.p2align 4,,10
	.p2align 3
.L1385:
	movq	16(%rax), %rax
	testq	%rax, %rax
	je	.L1384
.L1387:
	cmpq	(%rax), %rdx
	jne	.L1385
	cmpq	$0, 8(%rax)
	je	.L1384
	lfence
	movdqa	384(%rsp), %xmm7
	movhlps	%xmm7, %xmm3
	movaps	%xmm7, (%rsp)
	movq	%xmm3, %r12
	testq	%r12, %r12
	je	.L1388
	movq	__libc_single_threaded@GOTPCREL(%rip), %rax
	cmpb	$0, (%rax)
	je	.L1389
	addl	$1, 8(%r12)
.L1388:
	movl	400(%rsp), %eax
	movdqa	(%rsp), %xmm7
	movl	%eax, 208(%rsp)
	movq	408(%rsp), %rax
	movaps	%xmm7, 192(%rsp)
	movq	%rax, 216(%rsp)
	data16	leaq	_ZN4asio6detail15keyword_tss_ptrINS0_10call_stackINS0_14strand_service11strand_implEhE7contextEE6value_E@tlsgd(%rip), %rdi
	.value	0x6666
	rex64
	call	__tls_get_addr@PLT
	movq	(%rax), %rax
	testq	%rax, %rax
	je	.L1390
	movq	376(%rsp), %rdx
	jmp	.L1393
	.p2align 4
	.p2align 4,,10
	.p2align 3
.L1391:
	movq	16(%rax), %rax
	testq	%rax, %rax
	je	.L1390
.L1393:
	cmpq	(%rax), %rdx
	jne	.L1391
	cmpq	$0, 8(%rax)
	je	.L1390
	lfence
	movq	216(%rsp), %rdx
	leaq	192(%rsp), %rdi
	movl	208(%rsp), %esi
.LEHB36:
	call	_ZZN7asiopal9TCPServer11StartAcceptEvENKUlSt10error_codeE_clES1_.isra.0
.LEHE36:
	sfence
.L1394:
	movq	200(%rsp), %rbx
	testq	%rbx, %rbx
	je	.L1451
	movq	8(%rbx), %rdx
	leaq	8(%rbx), %rcx
	movabsq	$4294967297, %rax
	cmpq	%rax, %rdx
	je	.L1615
	movq	__libc_single_threaded@GOTPCREL(%rip), %rax
	cmpb	$0, (%rax)
	je	.L1454
	movl	8(%rbx), %eax
	leal	-1(%rax), %edx
	movl	%edx, 8(%rbx)
.L1455:
	cmpl	$1, %eax
	je	.L1616
.L1451:
	sfence
	jmp	.L1457
	.p2align 4,,10
	.p2align 3
.L1461:
	movq	%r12, %rdi
	call	_ZdlPv@PLT
.L1460:
	movl	$89, %edi
.LEHB37:
	call	_Znwm@PLT
.LEHE37:
	movb	$88, 88(%rax)
	movq	352(%rsp), %r14
	movq	%rax, %r12
	movq	360(%rsp), %rbx
.L1462:
	leaq	_ZN4asio6detail18completion_handlerINS0_17rewrapped_handlerINS0_7binder1INS0_15wrapped_handlerINS_10io_service6strandEZN7asiopal9TCPServer11StartAcceptEvEUlSt10error_codeE_NS0_26is_continuation_if_runningEEES9_EESA_EEE11do_completeEPNS0_15task_io_serviceEPNS0_25task_io_service_operationERKS9_m(%rip), %rax
	movq	%r14, 24(%r12)
	movdqa	368(%rsp), %xmm1
	pxor	%xmm0, %xmm0
	movq	$0, (%r12)
	movq	%r12, %xmm4
	movq	%rax, 8(%r12)
	punpcklqdq	%xmm4, %xmm4
	movl	$0, 16(%r12)
	movq	%rbx, 32(%r12)
	movups	%xmm1, 40(%r12)
	movdqa	384(%rsp), %xmm1
	movaps	%xmm0, 352(%rsp)
	movups	%xmm1, 56(%r12)
	movaps	%xmm0, 384(%rsp)
	movdqa	400(%rsp), %xmm0
	movaps	%xmm4, (%rsp)
	movups	%xmm0, 72(%r12)
	data16	leaq	_ZN4asio6detail15keyword_tss_ptrINS0_10call_stackINS0_15task_io_serviceENS0_27task_io_service_thread_infoEE7contextEE6value_E@tlsgd(%rip), %rdi
	.value	0x6666
	rex64
	call	__tls_get_addr@PLT
	movq	248(%rsp), %rdi
	movq	(%rax), %rax
	testq	%rax, %rax
	je	.L1609
	movq	40(%rbp), %rdx
	jmp	.L1467
	.p2align 4
	.p2align 4,,10
	.p2align 3
.L1464:
	movq	16(%rax), %rax
	testq	%rax, %rax
	je	.L1609
.L1467:
	cmpq	(%rax), %rdx
	jne	.L1464
	movq	8(%rax), %rbx
	addq	$24, %rdi
	call	pthread_mutex_lock@PLT
	testq	%rbx, %rbx
	je	.L1466
	movq	248(%rsp), %rdi
	cmpb	$0, 64(%rdi)
	je	.L1617
.L1469:
	movq	80(%rdi), %rax
	movq	$0, (%r12)
	testq	%rax, %rax
	je	.L1472
	movq	%r12, (%rax)
	movq	%r12, 80(%rdi)
.L1473:
	addq	$24, %rdi
	call	pthread_mutex_unlock@PLT
.L1457:
	movq	392(%rsp), %rbx
	testq	%rbx, %rbx
	je	.L1503
	movq	8(%rbx), %rdx
	leaq	8(%rbx), %rcx
	movabsq	$4294967297, %rax
	cmpq	%rax, %rdx
	je	.L1618
	movq	__libc_single_threaded@GOTPCREL(%rip), %rax
	cmpb	$0, (%rax)
	je	.L1506
	movl	8(%rbx), %eax
	leal	-1(%rax), %edx
	movl	%edx, 8(%rbx)
.L1507:
	cmpl	$1, %eax
	je	.L1619
.L1503:
	movq	360(%rsp), %rbx
	testq	%rbx, %rbx
	je	.L1510
	movq	8(%rbx), %rdx
	leaq	8(%rbx), %rcx
	movabsq	$4294967297, %rax
	cmpq	%rax, %rdx
	je	.L1620
	movq	__libc_single_threaded@GOTPCREL(%rip), %rax
	cmpb	$0, (%rax)
	je	.L1512
	movl	8(%rbx), %eax
	leal	-1(%rax), %edx
	movl	%edx, 8(%rbx)
.L1513:
	cmpl	$1, %eax
	je	.L1621
.L1510:
	sfence
	movq	264(%rsp), %rbx
.L1613:
	testq	%rbx, %rbx
	je	.L1375
	movq	8(%rbx), %rdx
	leaq	8(%rbx), %rcx
	movabsq	$4294967297, %rax
	cmpq	%rax, %rdx
	je	.L1622
	movq	__libc_single_threaded@GOTPCREL(%rip), %rax
	cmpb	$0, (%rax)
	je	.L1519
	movl	8(%rbx), %eax
	leal	-1(%rax), %edx
	movl	%edx, 8(%rbx)
.L1520:
	cmpl	$1, %eax
	je	.L1623
.L1375:
	addq	$432, %rsp
	.cfi_remember_state
	.cfi_def_cfa_offset 48
	popq	%rbx
	.cfi_def_cfa_offset 40
	popq	%rbp
	.cfi_def_cfa_offset 32
	popq	%r12
	.cfi_def_cfa_offset 24
	popq	%r14
	.cfi_def_cfa_offset 16
	popq	%r15
	.cfi_def_cfa_offset 8
	ret
	.p2align 4,,10
	.p2align 3
.L1384:
	.cfi_restore_state
	leaq	352(%rsp), %rax
	movq	240(%rsp), %rbp
	movq	%rax, 160(%rsp)
	movq	%rax, %r15
	data16	leaq	_ZN4asio6detail15keyword_tss_ptrINS0_10call_stackINS0_15task_io_serviceENS0_27task_io_service_thread_infoEE7contextEE6value_E@tlsgd(%rip), %rdi
	.value	0x6666
	rex64
	call	__tls_get_addr@PLT
	movq	(%rax), %rax
	testq	%rax, %rax
	je	.L1460
	movq	8(%rax), %rax
	testq	%rax, %rax
	je	.L1460
	movq	(%rax), %r12
	testq	%r12, %r12
	je	.L1460
	movq	$0, (%rax)
	movzbl	(%r12), %eax
	cmpb	$87, %al
	jbe	.L1461
	movb	%al, 88(%r12)
	jmp	.L1462
	.p2align 4,,10
	.p2align 3
.L1622:
	movq	(%rbx), %rax
	movq	%rbx, %rdi
	movq	$0, 8(%rbx)
	call	*16(%rax)
	movq	(%rbx), %rax
	movq	%rbx, %rdi
	call	*24(%rax)
	addq	$432, %rsp
	.cfi_remember_state
	.cfi_def_cfa_offset 48
	popq	%rbx
	.cfi_def_cfa_offset 40
	popq	%rbp
	.cfi_def_cfa_offset 32
	popq	%r12
	.cfi_def_cfa_offset 24
	popq	%r14
	.cfi_def_cfa_offset 16
	popq	%r15
	.cfi_def_cfa_offset 8
	ret
	.p2align 4,,10
	.p2align 3
.L1614:
	.cfi_restore_state
	movzbl	120(%rbp), %edx
	movq	8(%rsp), %rbx
	movb	%dl, 0(%rbp)
	movq	%rbp, (%rax)
	jmp	.L1377
	.p2align 4,,10
	.p2align 3
.L1617:
	movb	$1, 64(%rdi)
	addq	$24, %rdi
	call	pthread_mutex_unlock@PLT
	movq	248(%rsp), %rbx
	movq	%rbx, 192(%rsp)
	data16	leaq	_ZN4asio6detail15keyword_tss_ptrINS0_10call_stackINS0_14strand_service11strand_implEhE7contextEE6value_E@tlsgd(%rip), %rdi
	.value	0x6666
	rex64
	call	__tls_get_addr@PLT
	movq	40(%rbp), %rbp
	movq	%rbx, %xmm5
	xorl	%ecx, %ecx
	movq	%r12, %rsi
	movq	%rbp, %xmm0
	movq	%rbp, %rdi
	punpcklqdq	%xmm5, %xmm0
	movaps	%xmm0, 96(%rsp)
	movq	(%rax), %rdx
	movq	%rdx, 208(%rsp)
	leaq	192(%rsp), %rdx
	movq	%rdx, 200(%rsp)
	movq	%rdx, (%rax)
	leaq	128(%rsp), %rdx
.LEHB38:
	call	_ZN4asio6detail18completion_handlerINS0_17rewrapped_handlerINS0_7binder1INS0_15wrapped_handlerINS_10io_service6strandEZN7asiopal9TCPServer11StartAcceptEvEUlSt10error_codeE_NS0_26is_continuation_if_runningEEES9_EESA_EEE11do_completeEPNS0_15task_io_serviceEPNS0_25task_io_service_operationERKS9_m
.LEHE38:
	leaq	24(%rbx), %rdi
	movq	%rdi, (%rsp)
	call	pthread_mutex_lock@PLT
	movq	72(%rbx), %r12
	movq	(%rsp), %rdi
	testq	%r12, %r12
	je	.L1624
	movq	96(%rbx), %rax
	testq	%rax, %rax
	je	.L1489
	movq	%r12, (%rax)
	movq	88(%rbx), %r12
.L1490:
	movq	80(%rbx), %rax
	pxor	%xmm0, %xmm0
	movups	%xmm0, 72(%rbx)
	movq	%rax, 96(%rbx)
.L1488:
	testq	%r12, %r12
	setne	64(%rbx)
	call	pthread_mutex_unlock@PLT
	testq	%r12, %r12
	je	.L1491
	movq	%rbx, %xmm3
	punpcklqdq	%xmm3, %xmm3
	movaps	%xmm3, (%rsp)
	cmpb	$0, 40(%rbp)
	je	.L1492
	data16	leaq	_ZN4asio6detail15keyword_tss_ptrINS0_10call_stackINS0_15task_io_serviceENS0_27task_io_service_thread_infoEE7contextEE6value_E@tlsgd(%rip), %rdi
	.value	0x6666
	rex64
	call	__tls_get_addr@PLT
	movq	(%rax), %rax
	testq	%rax, %rax
	jne	.L1495
	jmp	.L1492
	.p2align 4
	.p2align 4,,10
	.p2align 3
.L1493:
	movq	16(%rax), %rax
	testq	%rax, %rax
	je	.L1492
.L1495:
	cmpq	(%rax), %rbp
	jne	.L1493
	movq	8(%rax), %rax
	testq	%rax, %rax
	je	.L1492
	movq	16(%rax), %rdx
	addq	$1, 24(%rax)
	movq	$0, (%rbx)
	testq	%rdx, %rdx
	je	.L1496
	movq	%rbx, (%rdx)
	movq	%rbx, 16(%rax)
	.p2align 4
	.p2align 3
.L1491:
	data16	leaq	_ZN4asio6detail15keyword_tss_ptrINS0_10call_stackINS0_14strand_service11strand_implEhE7contextEE6value_E@tlsgd(%rip), %rdi
	.value	0x6666
	rex64
	call	__tls_get_addr@PLT
	movq	208(%rsp), %rdx
	movq	%rdx, (%rax)
	jmp	.L1457
	.p2align 4,,10
	.p2align 3
.L1492:
	lock addq	$1, 184(%rbp)
	leaq	48(%rbp), %r12
	movq	%r12, %rdi
	call	pthread_mutex_lock@PLT
	movq	200(%rbp), %rax
	movq	$0, (%rbx)
	testq	%rax, %rax
	je	.L1497
	movq	%rbx, (%rax)
	movq	%rbx, 200(%rbp)
.L1498:
	movq	136(%rbp), %rax
	movq	%rax, %rdx
	orq	$1, %rdx
	movq	%rdx, 136(%rbp)
	cmpq	$1, %rax
	jbe	.L1499
	movq	%r12, %rdi
	call	pthread_mutex_unlock@PLT
	leaq	88(%rbp), %rdi
	call	pthread_cond_signal@PLT
	jmp	.L1491
	.p2align 4,,10
	.p2align 3
.L1519:
	movl	$-1, %eax
	lock xaddl	%eax, (%rcx)
	jmp	.L1520
	.p2align 4,,10
	.p2align 3
.L1390:
	leaq	192(%rsp), %rax
	movq	368(%rsp), %rbp
	movq	%rax, 64(%rsp)
	data16	leaq	_ZN4asio6detail15keyword_tss_ptrINS0_10call_stackINS0_15task_io_serviceENS0_27task_io_service_thread_infoEE7contextEE6value_E@tlsgd(%rip), %rdi
	.value	0x6666
	rex64
	call	__tls_get_addr@PLT
	movq	(%rax), %rax
	testq	%rax, %rax
	je	.L1395
	movq	8(%rax), %rax
	testq	%rax, %rax
	je	.L1395
	movq	(%rax), %rbx
	testq	%rbx, %rbx
	je	.L1395
	movq	$0, (%rax)
	movzbl	(%rbx), %eax
	cmpb	$55, %al
	jbe	.L1396
	movb	%al, 56(%rbx)
	movdqa	(%rsp), %xmm0
	jmp	.L1397
	.p2align 4,,10
	.p2align 3
.L1382:
	lock addl	$1, 8(%rbx)
	movdqa	256(%rsp), %xmm3
	jmp	.L1381
	.p2align 4,,10
	.p2align 3
.L1609:
	addq	$24, %rdi
	call	pthread_mutex_lock@PLT
.L1466:
	movq	248(%rsp), %rdi
	cmpb	$0, 64(%rdi)
	jne	.L1469
	movb	$1, 64(%rdi)
	addq	$24, %rdi
	call	pthread_mutex_unlock@PLT
	movq	248(%rsp), %rdx
	movq	$0, (%r12)
	movq	%rdx, %xmm6
	movq	96(%rdx), %rax
	punpcklqdq	%xmm6, %xmm6
	movaps	%xmm6, 16(%rsp)
	testq	%rax, %rax
	je	.L1475
	movq	%r12, (%rax)
	movq	%r12, 96(%rdx)
.L1476:
	movq	40(%rbp), %rbx
	cmpb	$0, 40(%rbx)
	je	.L1477
	movq	%rdx, (%rsp)
	data16	leaq	_ZN4asio6detail15keyword_tss_ptrINS0_10call_stackINS0_15task_io_serviceENS0_27task_io_service_thread_infoEE7contextEE6value_E@tlsgd(%rip), %rdi
	.value	0x6666
	rex64
	call	__tls_get_addr@PLT
	movq	(%rsp), %rdx
	movq	(%rax), %rax
	testq	%rax, %rax
	jne	.L1480
	jmp	.L1477
	.p2align 4
	.p2align 4,,10
	.p2align 3
.L1478:
	movq	16(%rax), %rax
	testq	%rax, %rax
	je	.L1477
.L1480:
	cmpq	(%rax), %rbx
	jne	.L1478
	movq	8(%rax), %rax
	testq	%rax, %rax
	je	.L1477
	movq	16(%rax), %rcx
	addq	$1, 24(%rax)
	movq	$0, (%rdx)
	testq	%rcx, %rcx
	je	.L1481
	movq	%rdx, (%rcx)
	movq	%rdx, 16(%rax)
	jmp	.L1457
	.p2align 4,,10
	.p2align 3
.L1477:
	movq	%rdx, (%rsp)
	lock addq	$1, 184(%rbx)
	leaq	48(%rbx), %rbp
	movq	%rbp, %rdi
	call	pthread_mutex_lock@PLT
	movq	(%rsp), %rdx
	movq	200(%rbx), %rax
	movq	$0, (%rdx)
	testq	%rax, %rax
	je	.L1482
	movq	%rdx, (%rax)
	movq	%rdx, 200(%rbx)
.L1483:
	movq	136(%rbx), %rax
	movq	%rax, %rdx
	orq	$1, %rdx
	movq	%rdx, 136(%rbx)
	cmpq	$1, %rax
	jbe	.L1484
	movq	%rbp, %rdi
	call	pthread_mutex_unlock@PLT
	leaq	88(%rbx), %rdi
	call	pthread_cond_signal@PLT
	jmp	.L1457
.L1396:
	movq	%rbx, %rdi
	call	_ZdlPv@PLT
.L1395:
	movl	$57, %edi
.LEHB39:
	call	_Znwm@PLT
.LEHE39:
	movb	$56, 56(%rax)
	movq	200(%rsp), %r12
	movq	%rax, %rbx
	movq	192(%rsp), %xmm0
.L1397:
	leaq	_ZN4asio6detail18completion_handlerINS0_7binder1IZN7asiopal9TCPServer11StartAcceptEvEUlSt10error_codeE_S5_EEE11do_completeEPNS0_15task_io_serviceEPNS0_25task_io_service_operationERKS5_m(%rip), %rax
	movq	%r12, 32(%rbx)
	movq	%rbx, %xmm6
	movq	%xmm0, 24(%rbx)
	pxor	%xmm0, %xmm0
	punpcklqdq	%xmm6, %xmm6
	movq	$0, (%rbx)
	movq	%rax, 8(%rbx)
	movl	$0, 16(%rbx)
	movaps	%xmm0, 192(%rsp)
	movdqa	208(%rsp), %xmm0
	movaps	%xmm6, (%rsp)
	movups	%xmm0, 40(%rbx)
	data16	leaq	_ZN4asio6detail15keyword_tss_ptrINS0_10call_stackINS0_15task_io_serviceENS0_27task_io_service_thread_infoEE7contextEE6value_E@tlsgd(%rip), %rdi
	.value	0x6666
	rex64
	call	__tls_get_addr@PLT
	movq	376(%rsp), %rdi
	movq	(%rax), %rax
	testq	%rax, %rax
	je	.L1607
	movq	40(%rbp), %rdx
	jmp	.L1402
	.p2align 4
	.p2align 4,,10
	.p2align 3
.L1399:
	movq	16(%rax), %rax
	testq	%rax, %rax
	je	.L1607
.L1402:
	cmpq	(%rax), %rdx
	jne	.L1399
	movq	8(%rax), %r12
	addq	$24, %rdi
	call	pthread_mutex_lock@PLT
	testq	%r12, %r12
	je	.L1401
	movq	376(%rsp), %rax
	cmpb	$0, 64(%rax)
	je	.L1625
.L1404:
	movq	80(%rax), %rdx
	movq	$0, (%rbx)
	testq	%rdx, %rdx
	je	.L1408
	movq	%rbx, (%rdx)
	movq	%rbx, 80(%rax)
.L1409:
	leaq	24(%rax), %rdi
	call	pthread_mutex_unlock@PLT
	jmp	.L1394
	.p2align 4,,10
	.p2align 3
.L1506:
	movl	$-1, %eax
	lock xaddl	%eax, (%rcx)
	jmp	.L1507
	.p2align 4,,10
	.p2align 3
.L1512:
	movl	$-1, %eax
	lock xaddl	%eax, (%rcx)
	jmp	.L1513
.L1625:
	movb	$1, 64(%rax)
	leaq	24(%rax), %rdi
	call	pthread_mutex_unlock@PLT
	movq	376(%rsp), %r12
	movq	%r12, 96(%rsp)
	data16	leaq	_ZN4asio6detail15keyword_tss_ptrINS0_10call_stackINS0_14strand_service11strand_implEhE7contextEE6value_E@tlsgd(%rip), %rdi
	.value	0x6666
	rex64
	call	__tls_get_addr@PLT
	movq	40(%rbp), %rbp
	movq	(%rax), %rdx
	movq	%rdx, 112(%rsp)
	leaq	96(%rsp), %rdx
	movq	%rdx, 104(%rsp)
	movdqu	24(%rbx), %xmm0
	movq	%rdx, (%rax)
	leaq	160(%rsp), %rax
	movaps	%xmm0, 160(%rsp)
	movdqu	40(%rbx), %xmm0
	movq	%rax, %r15
	movq	%rax, 128(%rsp)
	movaps	%xmm0, 176(%rsp)
	data16	leaq	_ZN4asio6detail15keyword_tss_ptrINS0_10call_stackINS0_15task_io_serviceENS0_27task_io_service_thread_infoEE7contextEE6value_E@tlsgd(%rip), %rdi
	.value	0x6666
	rex64
	call	__tls_get_addr@PLT
	movq	(%rax), %rax
	testq	%rax, %rax
	je	.L1406
	movq	8(%rax), %rax
	testq	%rax, %rax
	je	.L1406
	cmpq	$0, (%rax)
	je	.L1626
.L1406:
	movq	%rbx, %rdi
	call	_ZdlPv@PLT
.L1423:
	testq	%rbp, %rbp
	je	.L1612
	movq	184(%rsp), %rdx
	movl	176(%rsp), %esi
	movq	%r15, %rdi
.LEHB40:
	call	_ZZN7asiopal9TCPServer11StartAcceptEvENKUlSt10error_codeE_clES1_.isra.0
.LEHE40:
	sfence
.L1612:
	movq	168(%rsp), %rbx
	testq	%rbx, %rbx
	je	.L1428
	movq	8(%rbx), %rdx
	leaq	8(%rbx), %rcx
	movabsq	$4294967297, %rax
	cmpq	%rax, %rdx
	je	.L1627
	movq	__libc_single_threaded@GOTPCREL(%rip), %rax
	cmpb	$0, (%rax)
	je	.L1430
	movl	8(%rbx), %eax
	leal	-1(%rax), %edx
	movl	%edx, 8(%rbx)
.L1431:
	cmpl	$1, %eax
	je	.L1628
.L1428:
	leaq	24(%r12), %rdi
	movq	%rdi, (%rsp)
	call	pthread_mutex_lock@PLT
	movq	72(%r12), %rbx
	movq	(%rsp), %rdi
	testq	%rbx, %rbx
	je	.L1629
	movq	96(%r12), %rax
	testq	%rax, %rax
	je	.L1437
	movq	%rbx, (%rax)
	movq	88(%r12), %rbx
.L1438:
	movq	80(%r12), %rax
	pxor	%xmm0, %xmm0
	movups	%xmm0, 72(%r12)
	movq	%rax, 96(%r12)
.L1433:
	testq	%rbx, %rbx
	setne	64(%r12)
	call	pthread_mutex_unlock@PLT
	testq	%rbx, %rbx
	je	.L1439
	movq	%r12, %xmm3
	punpcklqdq	%xmm3, %xmm3
	movaps	%xmm3, (%rsp)
	cmpb	$0, 40(%rbp)
	je	.L1440
	data16	leaq	_ZN4asio6detail15keyword_tss_ptrINS0_10call_stackINS0_15task_io_serviceENS0_27task_io_service_thread_infoEE7contextEE6value_E@tlsgd(%rip), %rdi
	.value	0x6666
	rex64
	call	__tls_get_addr@PLT
	movq	(%rax), %rax
	testq	%rax, %rax
	jne	.L1443
	jmp	.L1440
	.p2align 4
	.p2align 4,,10
	.p2align 3
.L1441:
	movq	16(%rax), %rax
	testq	%rax, %rax
	je	.L1440
.L1443:
	cmpq	(%rax), %rbp
	jne	.L1441
	movq	8(%rax), %rax
	testq	%rax, %rax
	je	.L1440
	movq	16(%rax), %rdx
	addq	$1, 24(%rax)
	movq	$0, (%r12)
	testq	%rdx, %rdx
	je	.L1444
	movq	%r12, (%rdx)
	movq	%r12, 16(%rax)
	.p2align 4
	.p2align 3
.L1439:
	data16	leaq	_ZN4asio6detail15keyword_tss_ptrINS0_10call_stackINS0_14strand_service11strand_implEhE7contextEE6value_E@tlsgd(%rip), %rdi
	.value	0x6666
	rex64
	call	__tls_get_addr@PLT
	movq	112(%rsp), %rdx
	movq	%rdx, (%rax)
	jmp	.L1394
	.p2align 4,,10
	.p2align 3
.L1618:
	movq	(%rbx), %rax
	movq	%rbx, %rdi
	movq	$0, 8(%rbx)
	call	*16(%rax)
	movq	(%rbx), %rax
	movq	%rbx, %rdi
	call	*24(%rax)
	jmp	.L1503
	.p2align 4,,10
	.p2align 3
.L1620:
	movq	(%rbx), %rax
	movq	%rbx, %rdi
	movq	$0, 8(%rbx)
	call	*16(%rax)
	movq	(%rbx), %rax
	movq	%rbx, %rdi
	call	*24(%rax)
	jmp	.L1510
	.p2align 4,,10
	.p2align 3
.L1472:
	movdqa	(%rsp), %xmm7
	movups	%xmm7, 72(%rdi)
	jmp	.L1473
	.p2align 4,,10
	.p2align 3
.L1624:
	movq	88(%rbx), %r12
	jmp	.L1488
.L1623:
	movq	%rbx, %rdi
	call	_ZNSt16_Sp_counted_baseILN9__gnu_cxx12_Lock_policyE2EE24_M_release_last_use_coldEv@PLT
	jmp	.L1375
.L1482:
	movdqa	16(%rsp), %xmm5
	movups	%xmm5, 192(%rbx)
	jmp	.L1483
.L1497:
	movdqa	(%rsp), %xmm6
	movups	%xmm6, 192(%rbp)
	jmp	.L1498
.L1389:
	lock addl	$1, 8(%r12)
	jmp	.L1388
	.p2align 4,,10
	.p2align 3
.L1607:
	addq	$24, %rdi
	call	pthread_mutex_lock@PLT
.L1401:
	movq	376(%rsp), %rax
	cmpb	$0, 64(%rax)
	jne	.L1404
	movb	$1, 64(%rax)
	leaq	24(%rax), %rdi
	call	pthread_mutex_unlock@PLT
	movq	376(%rsp), %r12
	movq	$0, (%rbx)
	movq	%r12, %xmm6
	movq	96(%r12), %rax
	punpcklqdq	%xmm6, %xmm6
	movaps	%xmm6, 16(%rsp)
	testq	%rax, %rax
	je	.L1411
	movq	%rbx, (%rax)
	movq	%rbx, 96(%r12)
.L1412:
	movq	40(%rbp), %rbx
	cmpb	$0, 40(%rbx)
	je	.L1413
	data16	leaq	_ZN4asio6detail15keyword_tss_ptrINS0_10call_stackINS0_15task_io_serviceENS0_27task_io_service_thread_infoEE7contextEE6value_E@tlsgd(%rip), %rdi
	.value	0x6666
	rex64
	call	__tls_get_addr@PLT
	movq	(%rax), %rax
	testq	%rax, %rax
	jne	.L1416
	jmp	.L1413
	.p2align 4
	.p2align 4,,10
	.p2align 3
.L1414:
	movq	16(%rax), %rax
	testq	%rax, %rax
	je	.L1413
.L1416:
	cmpq	(%rax), %rbx
	jne	.L1414
	movq	8(%rax), %rax
	testq	%rax, %rax
	je	.L1413
	movq	16(%rax), %rdx
	addq	$1, 24(%rax)
	movq	$0, (%r12)
	testq	%rdx, %rdx
	je	.L1417
	movq	%r12, (%rdx)
	movq	%r12, 16(%rax)
	jmp	.L1394
.L1489:
	movq	%r12, 88(%rbx)
	jmp	.L1490
.L1484:
	cmpb	$0, 176(%rbx)
	jne	.L1486
	movq	144(%rbx), %rax
	testq	%rax, %rax
	je	.L1486
	movb	$1, 176(%rbx)
	leaq	88(%rax), %rdx
	movl	$3, %esi
	leaq	192(%rsp), %rcx
	movq	%rdx, 196(%rsp)
	movl	88(%rax), %edx
	movl	$-2147483639, 192(%rsp)
	movl	96(%rax), %edi
	call	epoll_ctl@PLT
.L1486:
	movq	%rbp, %rdi
	call	pthread_mutex_unlock@PLT
	jmp	.L1457
.L1499:
	cmpb	$0, 176(%rbp)
	jne	.L1501
	movq	144(%rbp), %rax
	testq	%rax, %rax
	je	.L1501
	movb	$1, 176(%rbp)
	leaq	88(%rax), %rdx
	movl	$3, %esi
	leaq	128(%rsp), %rcx
	movq	%rdx, 132(%rsp)
	movl	88(%rax), %edx
	movl	$-2147483639, 128(%rsp)
	movl	96(%rax), %edi
	call	epoll_ctl@PLT
.L1501:
	movq	%r12, %rdi
	call	pthread_mutex_unlock@PLT
	jmp	.L1491
.L1475:
	movdqa	(%rsp), %xmm5
	movups	%xmm5, 88(%rdx)
	jmp	.L1476
.L1454:
	movl	$-1, %eax
	lock xaddl	%eax, (%rcx)
	jmp	.L1455
.L1413:
	lock addq	$1, 184(%rbx)
	leaq	48(%rbx), %rbp
	movq	%rbp, %rdi
	call	pthread_mutex_lock@PLT
	movq	200(%rbx), %rax
	movq	$0, (%r12)
	testq	%rax, %rax
	je	.L1418
	movq	%r12, (%rax)
	movq	%r12, 200(%rbx)
.L1419:
	movq	136(%rbx), %rax
	movq	%rax, %rdx
	orq	$1, %rdx
	movq	%rdx, 136(%rbx)
	cmpq	$1, %rax
	jbe	.L1420
	movq	%rbp, %rdi
	call	pthread_mutex_unlock@PLT
	leaq	88(%rbx), %rdi
	call	pthread_cond_signal@PLT
	jmp	.L1394
.L1440:
	lock addq	$1, 184(%rbp)
	leaq	48(%rbp), %rbx
	movq	%rbx, %rdi
	call	pthread_mutex_lock@PLT
	movq	200(%rbp), %rax
	movq	$0, (%r12)
	testq	%rax, %rax
	je	.L1445
	movq	%r12, (%rax)
	movq	%r12, 200(%rbp)
.L1446:
	movq	136(%rbp), %rax
	movq	%rax, %rdx
	orq	$1, %rdx
	movq	%rdx, 136(%rbp)
	cmpq	$1, %rax
	jbe	.L1447
	movq	%rbx, %rdi
	call	pthread_mutex_unlock@PLT
	leaq	88(%rbp), %rdi
	call	pthread_cond_signal@PLT
	jmp	.L1439
.L1619:
	movq	%rbx, %rdi
	call	_ZNSt16_Sp_counted_baseILN9__gnu_cxx12_Lock_policyE2EE24_M_release_last_use_coldEv@PLT
	jmp	.L1503
.L1621:
	movq	%rbx, %rdi
	call	_ZNSt16_Sp_counted_baseILN9__gnu_cxx12_Lock_policyE2EE24_M_release_last_use_coldEv@PLT
	jmp	.L1510
.L1615:
	movq	(%rbx), %rax
	movq	%rbx, %rdi
	movq	$0, 8(%rbx)
	call	*16(%rax)
	movq	(%rbx), %rax
	movq	%rbx, %rdi
	call	*24(%rax)
	jmp	.L1451
.L1408:
	movdqa	(%rsp), %xmm6
	movups	%xmm6, 72(%rax)
	jmp	.L1409
.L1629:
	movq	88(%r12), %rbx
	jmp	.L1433
.L1437:
	movq	%rbx, 88(%r12)
	jmp	.L1438
.L1420:
	cmpb	$0, 176(%rbx)
	jne	.L1422
	movq	144(%rbx), %rax
	testq	%rax, %rax
	je	.L1422
	movb	$1, 176(%rbx)
	leaq	88(%rax), %rdx
	movl	$3, %esi
	leaq	160(%rsp), %rcx
	movq	%rdx, 164(%rsp)
	movl	88(%rax), %edx
	movl	$-2147483639, 160(%rsp)
	movl	96(%rax), %edi
	call	epoll_ctl@PLT
.L1422:
	movq	%rbp, %rdi
	call	pthread_mutex_unlock@PLT
	jmp	.L1394
.L1447:
	cmpb	$0, 176(%rbp)
	jne	.L1449
	movq	144(%rbp), %rax
	testq	%rax, %rax
	je	.L1449
	movb	$1, 176(%rbp)
	leaq	88(%rax), %rdx
	movq	%r15, %rcx
	movl	$3, %esi
	movq	%rdx, 164(%rsp)
	movl	88(%rax), %edx
	movl	$-2147483639, 160(%rsp)
	movl	96(%rax), %edi
	call	epoll_ctl@PLT
.L1449:
	movq	%rbx, %rdi
	call	pthread_mutex_unlock@PLT
	jmp	.L1439
.L1411:
	movdqa	(%rsp), %xmm6
	movups	%xmm6, 88(%r12)
	jmp	.L1412
.L1430:
	movl	$-1, %eax
	lock xaddl	%eax, (%rcx)
	jmp	.L1431
.L1616:
	movq	%rbx, %rdi
	call	_ZNSt16_Sp_counted_baseILN9__gnu_cxx12_Lock_policyE2EE24_M_release_last_use_coldEv@PLT
	jmp	.L1451
.L1481:
	movdqa	16(%rsp), %xmm5
	movups	%xmm5, 8(%rax)
	jmp	.L1457
.L1418:
	movdqa	16(%rsp), %xmm7
	movups	%xmm7, 192(%rbx)
	jmp	.L1419
.L1496:
	movdqa	(%rsp), %xmm6
	movups	%xmm6, 8(%rax)
	jmp	.L1491
.L1445:
	movdqa	(%rsp), %xmm7
	movups	%xmm7, 192(%rbp)
	jmp	.L1446
.L1627:
	movq	(%rbx), %rax
	movq	%rbx, %rdi
	movq	$0, 8(%rbx)
	call	*16(%rax)
	movq	(%rbx), %rax
	movq	%rbx, %rdi
	call	*24(%rax)
	jmp	.L1428
.L1626:
	movzbl	56(%rbx), %edx
	movb	%dl, (%rbx)
	movq	%rbx, (%rax)
	jmp	.L1423
.L1444:
	movdqa	(%rsp), %xmm3
	movups	%xmm3, 8(%rax)
	jmp	.L1439
.L1417:
	movdqa	16(%rsp), %xmm7
	movups	%xmm7, 8(%rax)
	jmp	.L1394
.L1628:
	movq	%rbx, %rdi
	call	_ZNSt16_Sp_counted_baseILN9__gnu_cxx12_Lock_policyE2EE24_M_release_last_use_coldEv@PLT
	jmp	.L1428
.L1526:
	movq	%rax, %rbx
	jmp	.L1434
.L1523:
	movq	%rax, %rbx
	jmp	.L1504
.L1524:
	movq	%rax, %rbx
	jmp	.L1436
.L1522:
	movq	%rax, %rbx
	jmp	.L1459
.L1525:
	jmp	.L1452
	.section	.gcc_except_table
.LLSDA8993:
	.byte	0xff
	.byte	0xff
	.byte	0x1
	.uleb128 .LLSDACSE8993-.LLSDACSB8993
.LLSDACSB8993:
	.uleb128 .LEHB36-.LFB8993
	.uleb128 .LEHE36-.LEHB36
	.uleb128 .L1525-.LFB8993
	.uleb128 0
	.uleb128 .LEHB37-.LFB8993
	.uleb128 .LEHE37-.LEHB37
	.uleb128 .L1522-.LFB8993
	.uleb128 0
	.uleb128 .LEHB38-.LFB8993
	.uleb128 .LEHE38-.LEHB38
	.uleb128 .L1523-.LFB8993
	.uleb128 0
	.uleb128 .LEHB39-.LFB8993
	.uleb128 .LEHE39-.LEHB39
	.uleb128 .L1524-.LFB8993
	.uleb128 0
	.uleb128 .LEHB40-.LFB8993
	.uleb128 .LEHE40-.LEHB40
	.uleb128 .L1526-.LFB8993
	.uleb128 0
.LLSDACSE8993:
	.text
	.cfi_endproc
	.section	.text.unlikely
	.cfi_startproc
	.cfi_personality 0x9b,DW.ref.__gxx_personality_v0
	.cfi_lsda 0x1b,.LLSDAC8993
	.type	_ZN4asio6detail25reactive_socket_accept_opINS_12basic_socketINS_2ip3tcpENS_21stream_socket_serviceIS4_EEEES4_NS0_15wrapped_handlerINS_10io_service6strandEZN7asiopal9TCPServer11StartAcceptEvEUlSt10error_codeE_NS0_26is_continuation_if_runningEEEE11do_completeEPNS0_15task_io_serviceEPNS0_25task_io_service_operationERKSD_m.cold, @function
_ZN4asio6detail25reactive_socket_accept_opINS_12basic_socketINS_2ip3tcpENS_21stream_socket_serviceIS4_EEEES4_NS0_15wrapped_handlerINS_10io_service6strandEZN7asiopal9TCPServer11StartAcceptEvEUlSt10error_codeE_NS0_26is_continuation_if_runningEEEE11do_completeEPNS0_15task_io_serviceEPNS0_25task_io_service_operationERKSD_m.cold:
.LFSB8993:
.L1434:
	.cfi_def_cfa_offset 480
	.cfi_offset 3, -48
	.cfi_offset 6, -40
	.cfi_offset 12, -32
	.cfi_offset 14, -24
	.cfi_offset 15, -16
	movq	%rbp, %xmm5
	movq	%r12, %xmm6
	punpcklqdq	%xmm6, %xmm5
	movaps	%xmm5, (%rsp)
	sfence
	movq	168(%rsp), %rdi
	testq	%rdi, %rdi
	je	.L1435
	call	_ZNSt16_Sp_counted_baseILN9__gnu_cxx12_Lock_policyE2EE10_M_releaseEv@PLT
.L1435:
	pxor	%xmm0, %xmm0
	leaq	128(%rsp), %rdi
	movups	%xmm0, 136(%rsp)
	call	_ZN4asio6detail18completion_handlerINS0_7binder1IZN7asiopal9TCPServer11StartAcceptEvEUlSt10error_codeE_S5_EEE3ptr5resetEv
	movdqa	(%rsp), %xmm5
	movq	%r15, %rdi
	movaps	%xmm5, 160(%rsp)
	call	_ZN4asio6detail14strand_service16on_dispatch_exitD1Ev@PLT
	data16	leaq	_ZN4asio6detail15keyword_tss_ptrINS0_10call_stackINS0_14strand_service11strand_implEhE7contextEE6value_E@tlsgd(%rip), %rdi
	.value	0x6666
	rex64
	call	__tls_get_addr@PLT
	movq	112(%rsp), %rdx
	pxor	%xmm0, %xmm0
	leaq	64(%rsp), %rdi
	movups	%xmm0, 72(%rsp)
	movq	%rdx, (%rax)
	call	_ZN4asio6detail18completion_handlerINS0_7binder1IZN7asiopal9TCPServer11StartAcceptEvEUlSt10error_codeE_S5_EEE3ptr5resetEv
.L1436:
	movq	200(%rsp), %rdi
	testq	%rdi, %rdi
	je	.L1458
	call	_ZNSt16_Sp_counted_baseILN9__gnu_cxx12_Lock_policyE2EE10_M_releaseEv@PLT
.L1458:
	sfence
	leaq	352(%rsp), %r15
	jmp	.L1459
.L1504:
	leaq	96(%rsp), %rdi
	call	_ZN4asio6detail14strand_service16on_dispatch_exitD1Ev@PLT
	data16	leaq	_ZN4asio6detail15keyword_tss_ptrINS0_10call_stackINS0_14strand_service11strand_implEhE7contextEE6value_E@tlsgd(%rip), %rdi
	.value	0x6666
	rex64
	call	__tls_get_addr@PLT
	movq	208(%rsp), %rdx
	pxor	%xmm0, %xmm0
	leaq	160(%rsp), %rdi
	movups	%xmm0, 168(%rsp)
	movq	%rdx, (%rax)
	call	_ZN4asio6detail18completion_handlerINS0_17rewrapped_handlerINS0_7binder1INS0_15wrapped_handlerINS_10io_service6strandEZN7asiopal9TCPServer11StartAcceptEvEUlSt10error_codeE_NS0_26is_continuation_if_runningEEES9_EESA_EEE3ptr5resetEv
.L1459:
	movq	%r15, %rdi
	call	_ZN4asio6detail17rewrapped_handlerINS0_7binder1INS0_15wrapped_handlerINS_10io_service6strandEZN7asiopal9TCPServer11StartAcceptEvEUlSt10error_codeE_NS0_26is_continuation_if_runningEEES8_EES9_ED1Ev
	pxor	%xmm0, %xmm0
	xorl	%eax, %eax
	leaq	288(%rsp), %rdi
	movq	%rax, 328(%rsp)
	movaps	%xmm0, 288(%rsp)
	call	_ZN4asio6detail17rewrapped_handlerINS0_7binder1INS0_15wrapped_handlerINS_10io_service6strandEZN7asiopal9TCPServer11StartAcceptEvEUlSt10error_codeE_NS0_26is_continuation_if_runningEEES8_EES9_ED1Ev
	sfence
	movq	264(%rsp), %rdi
	testq	%rdi, %rdi
	je	.L1517
	call	_ZNSt16_Sp_counted_baseILN9__gnu_cxx12_Lock_policyE2EE10_M_releaseEv@PLT
.L1517:
	pxor	%xmm0, %xmm0
	leaq	32(%rsp), %rdi
	movups	%xmm0, 40(%rsp)
	call	_ZN4asio6detail25reactive_socket_accept_opINS_12basic_socketINS_2ip3tcpENS_21stream_socket_serviceIS4_EEEES4_NS0_15wrapped_handlerINS_10io_service6strandEZN7asiopal9TCPServer11StartAcceptEvEUlSt10error_codeE_NS0_26is_continuation_if_runningEEEE3ptr5resetEv
	movq	%rbx, %rdi
.LEHB41:
	call	_Unwind_Resume@PLT
.LEHE41:
.L1452:
	sfence
	movq	%rax, %rbx
	jmp	.L1436
	.cfi_endproc
.LFE8993:
	.section	.gcc_except_table
.LLSDAC8993:
	.byte	0xff
	.byte	0xff
	.byte	0x1
	.uleb128 .LLSDACSEC8993-.LLSDACSBC8993
.LLSDACSBC8993:
	.uleb128 .LEHB41-.LCOLDB38
	.uleb128 .LEHE41-.LEHB41
	.uleb128 0
	.uleb128 0
.LLSDACSEC8993:
	.section	.text.unlikely
	.text
	.size	_ZN4asio6detail25reactive_socket_accept_opINS_12basic_socketINS_2ip3tcpENS_21stream_socket_serviceIS4_EEEES4_NS0_15wrapped_handlerINS_10io_service6strandEZN7asiopal9TCPServer11StartAcceptEvEUlSt10error_codeE_NS0_26is_continuation_if_runningEEEE11do_completeEPNS0_15task_io_serviceEPNS0_25task_io_service_operationERKSD_m, .-_ZN4asio6detail25reactive_socket_accept_opINS_12basic_socketINS_2ip3tcpENS_21stream_socket_serviceIS4_EEEES4_NS0_15wrapped_handlerINS_10io_service6strandEZN7asiopal9TCPServer11StartAcceptEvEUlSt10error_codeE_NS0_26is_continuation_if_runningEEEE11do_completeEPNS0_15task_io_serviceEPNS0_25task_io_service_operationERKSD_m
	.section	.text.unlikely
	.size	_ZN4asio6detail25reactive_socket_accept_opINS_12basic_socketINS_2ip3tcpENS_21stream_socket_serviceIS4_EEEES4_NS0_15wrapped_handlerINS_10io_service6strandEZN7asiopal9TCPServer11StartAcceptEvEUlSt10error_codeE_NS0_26is_continuation_if_runningEEEE11do_completeEPNS0_15task_io_serviceEPNS0_25task_io_service_operationERKSD_m.cold, .-_ZN4asio6detail25reactive_socket_accept_opINS_12basic_socketINS_2ip3tcpENS_21stream_socket_serviceIS4_EEEES4_NS0_15wrapped_handlerINS_10io_service6strandEZN7asiopal9TCPServer11StartAcceptEvEUlSt10error_codeE_NS0_26is_continuation_if_runningEEEE11do_completeEPNS0_15task_io_serviceEPNS0_25task_io_service_operationERKSD_m.cold
.LCOLDE38:
	.text
.LHOTE38:
	.section	.rodata._ZN4asio6detail14do_throw_errorERKSt10error_codePKc.str1.1,"aMS",@progbits,1
.LC39:
	.string	": "
	.section	.text._ZN4asio6detail14do_throw_errorERKSt10error_codePKc,"axG",@progbits,_ZN4asio6detail14do_throw_errorERKSt10error_codePKc,comdat
	.p2align 4
	.weak	_ZN4asio6detail14do_throw_errorERKSt10error_codePKc
	.type	_ZN4asio6detail14do_throw_errorERKSt10error_codePKc, @function
_ZN4asio6detail14do_throw_errorERKSt10error_codePKc:
.LFB2327:
	.cfi_startproc
	.cfi_personality 0x9b,DW.ref.__gxx_personality_v0
	.cfi_lsda 0x1b,.LLSDA2327
	pushq	%r15
	.cfi_def_cfa_offset 16
	.cfi_offset 15, -16
	pushq	%r14
	.cfi_def_cfa_offset 24
	.cfi_offset 14, -24
	pushq	%r13
	.cfi_def_cfa_offset 32
	.cfi_offset 13, -32
	pushq	%r12
	.cfi_def_cfa_offset 40
	.cfi_offset 12, -40
	movq	%rsi, %r12
	pushq	%rbp
	.cfi_def_cfa_offset 48
	.cfi_offset 6, -48
	pushq	%rbx
	.cfi_def_cfa_offset 56
	.cfi_offset 3, -56
	subq	$152, %rsp
	.cfi_def_cfa_offset 208
	movq	8(%rdi), %rbx
	movl	(%rdi), %r14d
	leaq	48(%rsp), %rdi
	movq	(%rbx), %rax
	movl	%r14d, %edx
	movq	%rbx, %rsi
.LEHB42:
	call	*32(%rax)
.LEHE42:
	movl	$2, %r8d
	xorl	%edx, %edx
	xorl	%esi, %esi
	leaq	.LC39(%rip), %rcx
	leaq	48(%rsp), %rdi
.LEHB43:
	call	_ZNSt7__cxx1112basic_stringIcSt11char_traitsIcESaIcEE10_M_replaceEmmPKcm@PLT
.LEHE43:
	leaq	96(%rsp), %rbp
	leaq	16(%rax), %rdx
	movq	%rbp, 80(%rsp)
	movq	(%rax), %rcx
	cmpq	%rdx, %rcx
	je	.L1647
	movq	%rcx, 80(%rsp)
	movq	16(%rax), %rcx
	movq	%rcx, 96(%rsp)
.L1632:
	movq	8(%rax), %rcx
	movq	%rdx, (%rax)
	movq	%r12, %rdi
	movq	$0, 8(%rax)
	movb	$0, 16(%rax)
	movq	%rcx, 88(%rsp)
	call	strlen@PLT
	movq	%r12, %rcx
	xorl	%edx, %edx
	xorl	%esi, %esi
	movq	%rax, %r8
	leaq	80(%rsp), %rax
	movq	%rax, %rdi
	movq	%rax, 8(%rsp)
.LEHB44:
	call	_ZNSt7__cxx1112basic_stringIcSt11char_traitsIcESaIcEE10_M_replaceEmmPKcm@PLT
.LEHE44:
	leaq	128(%rsp), %r15
	leaq	16(%rax), %r8
	movq	%r15, 112(%rsp)
	movq	(%rax), %rcx
	cmpq	%r8, %rcx
	je	.L1648
	movq	%rcx, 112(%rsp)
	movq	16(%rax), %rcx
	movq	%rcx, 128(%rsp)
.L1634:
	movq	8(%rax), %rcx
	movq	%r8, (%rax)
	leaq	16(%rsp), %r12
	movq	$0, 8(%rax)
	movq	%r12, %rdi
	movb	$0, 16(%rax)
	leaq	112(%rsp), %rax
	movq	%rax, %rsi
	movq	%rcx, 120(%rsp)
	movq	%rax, (%rsp)
.LEHB45:
	call	_ZNSt13runtime_errorC2ERKNSt7__cxx1112basic_stringIcSt11char_traitsIcESaIcEEE@PLT
.LEHE45:
	movq	112(%rsp), %rdi
	cmpq	%r15, %rdi
	je	.L1635
	movq	128(%rsp), %rax
	leaq	1(%rax), %rsi
	call	_ZdlPvm@PLT
.L1635:
	movq	80(%rsp), %rdi
	cmpq	%rbp, %rdi
	je	.L1636
	movq	96(%rsp), %rax
	leaq	1(%rax), %rsi
	call	_ZdlPvm@PLT
.L1636:
	movq	48(%rsp), %rdi
	leaq	64(%rsp), %rax
	cmpq	%rax, %rdi
	je	.L1637
	movq	64(%rsp), %rax
	leaq	1(%rax), %rsi
	call	_ZdlPvm@PLT
.L1637:
	movq	_ZTVSt12system_error@GOTPCREL(%rip), %rax
	movq	%r12, %rdi
	movl	%r14d, 32(%rsp)
	movq	%rbx, 40(%rsp)
	addq	$16, %rax
	movq	%rax, 16(%rsp)
.LEHB46:
	call	_ZN4asio6detail15throw_exceptionISt12system_errorEEvRKT_@PLT
.LEHE46:
.L1647:
	movq	8(%rax), %rcx
	movq	%rbp, %rdi
	movq	%rdx, %rsi
	addl	$1, %ecx
	rep movsb
	jmp	.L1632
.L1648:
	movq	8(%rax), %rcx
	movq	%r15, %rdi
	movq	%r8, %rsi
	addl	$1, %ecx
	rep movsb
	jmp	.L1634
.L1645:
	movq	%rax, %rbx
	jmp	.L1638
.L1644:
	movq	%rax, %rbx
	jmp	.L1639
.L1638:
	movq	(%rsp), %rdi
	call	_ZNSt7__cxx1112basic_stringIcSt11char_traitsIcESaIcEE10_M_disposeEv@PLT
.L1639:
	movq	8(%rsp), %rdi
	call	_ZNSt7__cxx1112basic_stringIcSt11char_traitsIcESaIcEE10_M_disposeEv@PLT
.L1640:
	leaq	48(%rsp), %rdi
	call	_ZNSt7__cxx1112basic_stringIcSt11char_traitsIcESaIcEE10_M_disposeEv@PLT
	movq	%rbx, %rdi
.LEHB47:
	call	_Unwind_Resume@PLT
.L1642:
	movq	%rax, %rbx
	jmp	.L1641
.L1643:
	movq	%rax, %rbx
	jmp	.L1640
.L1641:
	movq	%r12, %rdi
	call	_ZNSt12system_errorD1Ev@PLT
	movq	%rbx, %rdi
	call	_Unwind_Resume@PLT
.LEHE47:
	.cfi_endproc
.LFE2327:
	.section	.gcc_except_table
.LLSDA2327:
	.byte	0xff
	.byte	0xff
	.byte	0x1
	.uleb128 .LLSDACSE2327-.LLSDACSB2327
.LLSDACSB2327:
	.uleb128 .LEHB42-.LFB2327
	.uleb128 .LEHE42-.LEHB42
	.uleb128 0
	.uleb128 0
	.uleb128 .LEHB43-.LFB2327
	.uleb128 .LEHE43-.LEHB43
	.uleb128 .L1643-.LFB2327
	.uleb128 0
	.uleb128 .LEHB44-.LFB2327
	.uleb128 .LEHE44-.LEHB44
	.uleb128 .L1644-.LFB2327
	.uleb128 0
	.uleb128 .LEHB45-.LFB2327
	.uleb128 .LEHE45-.LEHB45
	.uleb128 .L1645-.LFB2327
	.uleb128 0
	.uleb128 .LEHB46-.LFB2327
	.uleb128 .LEHE46-.LEHB46
	.uleb128 .L1642-.LFB2327
	.uleb128 0
	.uleb128 .LEHB47-.LFB2327
	.uleb128 .LEHE47-.LEHB47
	.uleb128 0
	.uleb128 0
.LLSDACSE2327:
	.section	.text._ZN4asio6detail14do_throw_errorERKSt10error_codePKc,"axG",@progbits,_ZN4asio6detail14do_throw_errorERKSt10error_codePKc,comdat
	.size	_ZN4asio6detail14do_throw_errorERKSt10error_codePKc, .-_ZN4asio6detail14do_throw_errorERKSt10error_codePKc
	.section	.rodata._ZN4asio6detail13epoll_reactor12fork_serviceENS_10io_service10fork_eventE.str1.1,"aMS",@progbits,1
.LC40:
	.string	"epoll"
.LC42:
	.string	"eventfd_select_interrupter"
.LC43:
	.string	"epoll re-registration"
	.section	.text._ZN4asio6detail13epoll_reactor12fork_serviceENS_10io_service10fork_eventE,"axG",@progbits,_ZN4asio6detail13epoll_reactor12fork_serviceENS_10io_service10fork_eventE,comdat
	.align 2
	.p2align 4
	.weak	_ZN4asio6detail13epoll_reactor12fork_serviceENS_10io_service10fork_eventE
	.type	_ZN4asio6detail13epoll_reactor12fork_serviceENS_10io_service10fork_eventE, @function
_ZN4asio6detail13epoll_reactor12fork_serviceENS_10io_service10fork_eventE:
.LFB3239:
	.cfi_startproc
	.cfi_personality 0x9b,DW.ref.__gxx_personality_v0
	.cfi_lsda 0x1b,.LLSDA3239
	cmpl	$2, %esi
	je	.L1752
	ret
	.p2align 4,,10
	.p2align 3
.L1752:
	pushq	%r15
	.cfi_def_cfa_offset 16
	.cfi_offset 15, -16
	pushq	%r14
	.cfi_def_cfa_offset 24
	.cfi_offset 14, -24
	pushq	%r13
	.cfi_def_cfa_offset 32
	.cfi_offset 13, -32
	pushq	%r12
	.cfi_def_cfa_offset 40
	.cfi_offset 12, -40
	pushq	%rbp
	.cfi_def_cfa_offset 48
	.cfi_offset 6, -48
	pushq	%rbx
	.cfi_def_cfa_offset 56
	.cfi_offset 3, -56
	movq	%rdi, %rbx
	subq	$88, %rsp
	.cfi_def_cfa_offset 144
	movl	96(%rdi), %edi
	cmpl	$-1, %edi
	jne	.L1753
.L1651:
	movl	$-1, 96(%rbx)
	movl	$524288, %edi
	call	epoll_create1@PLT
	movl	%eax, %ebp
	cmpl	$-1, %eax
	je	.L1754
.L1652:
	movl	100(%rbx), %edi
	movl	%ebp, 96(%rbx)
	cmpl	$-1, %edi
	jne	.L1755
.L1658:
	movl	$-1, 100(%rbx)
	movl	$524288, %esi
	movl	$1, %edi
	call	timerfd_create@PLT
	movl	%eax, %ebp
	cmpl	$-1, %eax
	je	.L1756
.L1659:
	movl	92(%rbx), %eax
	movl	%ebp, 100(%rbx)
	cmpl	$-1, %eax
	je	.L1661
	movl	88(%rbx), %edi
	cmpl	%edi, %eax
	jne	.L1757
.L1662:
.LEHB48:
	call	close@PLT
.L1663:
	movq	$-1, 88(%rbx)
	movl	$526336, %esi
	xorl	%edi, %edi
	call	eventfd@PLT
	movd	%eax, %xmm1
	movl	%eax, %edx
	pshufd	$0xe0, %xmm1, %xmm0
	movq	%xmm0, 88(%rbx)
	cmpl	$-1, %eax
	je	.L1758
.L1664:
	movl	96(%rbx), %edi
	leaq	4(%rsp), %rbp
	leaq	88(%rbx), %r12
	movl	$1, %esi
	movq	%rbp, %rcx
	movl	$-2147483639, 4(%rsp)
	movq	%r12, 8(%rsp)
	call	epoll_ctl@PLT
	movl	92(%rbx), %edi
	movl	$8, %edx
	leaq	48(%rsp), %rsi
	movq	$1, 48(%rsp)
	call	write@PLT
.LEHE48:
	movl	100(%rbx), %edx
	cmpl	$-1, %edx
	jne	.L1759
.L1672:
	movl	88(%rbx), %edx
	movl	96(%rbx), %edi
	leaq	48(%rsp), %rcx
	movl	$3, %esi
	movl	$-2147483639, 48(%rsp)
	movq	%r12, 52(%rsp)
	call	epoll_ctl@PLT
.L1678:
	leaq	120(%rbx), %rdi
	leaq	120(%rbx), %r14
	call	pthread_mutex_lock@PLT
	movq	160(%rbx), %r13
	testq	%r13, %r13
	jne	.L1679
	jmp	.L1685
	.p2align 4,,10
	.p2align 3
.L1680:
	movq	24(%r13), %r13
	testq	%r13, %r13
	je	.L1685
.L1679:
	movl	92(%r13), %eax
	movl	88(%r13), %edx
	movq	%rbp, %rcx
	movl	$1, %esi
	movl	96(%rbx), %edi
	movq	%r13, 8(%rsp)
	movl	%eax, 4(%rsp)
	call	epoll_ctl@PLT
	testl	%eax, %eax
	je	.L1680
	movq	_ZGVZN4asio15system_categoryEvE8instance@GOTPCREL(%rip), %rax
	movzbl	(%rax), %eax
	testb	%al, %al
	je	.L1681
	movq	_ZZN4asio15system_categoryEvE8instance@GOTPCREL(%rip), %r12
.L1682:
	call	__errno_location@PLT
	movq	%r12, 56(%rsp)
	movl	(%rax), %eax
	movl	%eax, 48(%rsp)
	testl	%eax, %eax
	je	.L1680
	leaq	.LC43(%rip), %rsi
	leaq	48(%rsp), %rdi
.LEHB49:
	call	_ZN4asio6detail14do_throw_errorERKSt10error_codePKc@PLT
.LEHE49:
	.p2align 4,,10
	.p2align 3
.L1757:
	movl	%eax, %edi
.LEHB50:
	call	close@PLT
.L1661:
	movl	88(%rbx), %edi
	cmpl	$-1, %edi
	je	.L1663
	jmp	.L1662
	.p2align 4,,10
	.p2align 3
.L1759:
	movl	96(%rbx), %edi
	leaq	100(%rbx), %rax
	movq	%rbp, %rcx
	movl	$1, %esi
	movl	$9, 4(%rsp)
	movq	%rax, 8(%rsp)
	call	epoll_ctl@PLT
	movl	100(%rbx), %edi
	cmpl	$-1, %edi
	je	.L1672
	movq	104(%rbx), %r12
	pxor	%xmm0, %xmm0
	movaps	%xmm0, 16(%rsp)
	testq	%r12, %r12
	je	.L1673
	movl	$300000000, %esi
	.p2align 4
	.p2align 3
.L1674:
	movq	(%r12), %rax
	movq	%r12, %rdi
	call	*32(%rax)
	movq	8(%r12), %r12
	movq	%rax, %rsi
	testq	%r12, %r12
	jne	.L1674
	movabsq	$4835703278458516699, %rax
	movl	100(%rbx), %edi
	movl	$1, %ecx
	imulq	%rsi
	movq	%rsi, %rax
	sarq	$63, %rax
	sarq	$18, %rdx
	subq	%rax, %rdx
	movl	$1, %eax
	movq	%rdx, 32(%rsp)
	testq	%rsi, %rsi
	jne	.L1760
.L1677:
	movq	%rcx, 40(%rsp)
	leaq	16(%rsp), %rdx
	leaq	48(%rsp), %rcx
	movl	%eax, %esi
	call	timerfd_settime@PLT
	jmp	.L1678
	.p2align 4,,10
	.p2align 3
.L1755:
	call	close@PLT
	jmp	.L1658
	.p2align 4,,10
	.p2align 3
.L1753:
	call	close@PLT
	jmp	.L1651
	.p2align 4,,10
	.p2align 3
.L1681:
	movq	_ZGVZN4asio15system_categoryEvE8instance@GOTPCREL(%rip), %rdi
	call	__cxa_guard_acquire@PLT
	movq	_ZZN4asio15system_categoryEvE8instance@GOTPCREL(%rip), %r12
	testl	%eax, %eax
	je	.L1682
	movq	_ZN4asio6detail15system_categoryD1Ev@GOTPCREL(%rip), %rdi
	leaq	__dso_handle(%rip), %rdx
	movq	%r12, %rsi
	call	__cxa_atexit@PLT
	movq	_ZGVZN4asio15system_categoryEvE8instance@GOTPCREL(%rip), %rdi
	call	__cxa_guard_release@PLT
	jmp	.L1682
	.p2align 4,,10
	.p2align 3
.L1685:
	movq	%r14, %rdi
	call	pthread_mutex_unlock@PLT
	addq	$88, %rsp
	.cfi_remember_state
	.cfi_def_cfa_offset 56
	popq	%rbx
	.cfi_def_cfa_offset 48
	popq	%rbp
	.cfi_def_cfa_offset 40
	popq	%r12
	.cfi_def_cfa_offset 32
	popq	%r13
	.cfi_def_cfa_offset 24
	popq	%r14
	.cfi_def_cfa_offset 16
	popq	%r15
	.cfi_def_cfa_offset 8
	ret
	.p2align 4,,10
	.p2align 3
.L1758:
	.cfi_restore_state
	call	__errno_location@PLT
	movq	%rax, %rbp
	cmpl	$22, (%rax)
	je	.L1761
.L1666:
	leaq	16(%rsp), %rdi
	call	pipe@PLT
	testl	%eax, %eax
	je	.L1687
	movq	_ZGVZN4asio15system_categoryEvE8instance@GOTPCREL(%rip), %r13
	movzbl	0(%r13), %eax
	testb	%al, %al
	je	.L1668
	movq	_ZZN4asio15system_categoryEvE8instance@GOTPCREL(%rip), %r12
.L1669:
	movl	0(%rbp), %eax
	movq	%r12, 56(%rsp)
	movl	%eax, 48(%rsp)
	testl	%eax, %eax
	jne	.L1762
.L1667:
	movl	88(%rbx), %edx
	jmp	.L1664
	.p2align 4,,10
	.p2align 3
.L1754:
	call	__errno_location@PLT
	movq	%rax, %r13
	movl	(%rax), %eax
	subl	$22, %eax
	andl	$-17, %eax
	je	.L1763
.L1653:
	movq	_ZGVZN4asio15system_categoryEvE8instance@GOTPCREL(%rip), %rax
	movzbl	(%rax), %eax
	testb	%al, %al
	je	.L1654
	movq	_ZZN4asio15system_categoryEvE8instance@GOTPCREL(%rip), %r12
.L1655:
	movl	0(%r13), %eax
	movq	%r12, 56(%rsp)
	movl	%eax, 48(%rsp)
	testl	%eax, %eax
	je	.L1652
	leaq	48(%rsp), %rdi
	leaq	.LC40(%rip), %rsi
	call	_ZN4asio6detail14do_throw_errorERKSt10error_codePKc@PLT
	.p2align 4,,10
	.p2align 3
.L1756:
	call	__errno_location@PLT
	cmpl	$22, (%rax)
	jne	.L1659
	xorl	%esi, %esi
	movl	$1, %edi
	call	timerfd_create@PLT
	movl	%eax, %ebp
	cmpl	$-1, %eax
	je	.L1659
	movl	%eax, %edi
	movl	$1, %edx
	movl	$2, %esi
	xorl	%eax, %eax
	call	fcntl@PLT
	jmp	.L1659
	.p2align 4,,10
	.p2align 3
.L1760:
	imulq	$1000000, %rdx, %rdx
	xorl	%eax, %eax
	subq	%rdx, %rsi
	imulq	$1000, %rsi, %rcx
	jmp	.L1677
.L1687:
	movl	16(%rsp), %edi
	movl	$2048, %edx
	movl	$4, %esi
	xorl	%eax, %eax
	movl	%edi, 88(%rbx)
	call	fcntl@PLT
	movl	88(%rbx), %edi
	movl	$1, %edx
	xorl	%eax, %eax
	movl	$2, %esi
	call	fcntl@PLT
	movl	20(%rsp), %edi
	movl	$2048, %edx
	xorl	%eax, %eax
	movl	$4, %esi
	movl	%edi, 92(%rbx)
	call	fcntl@PLT
	movl	92(%rbx), %edi
	movl	$1, %edx
	xorl	%eax, %eax
	movl	$2, %esi
	call	fcntl@PLT
	jmp	.L1667
.L1763:
	movl	$20000, %edi
	call	epoll_create@PLT
	cmpl	$-1, %eax
	je	.L1653
	movl	%eax, %edi
	movl	%eax, %ebp
	movl	$1, %edx
	movl	$2, %esi
	xorl	%eax, %eax
	call	fcntl@PLT
	jmp	.L1652
.L1761:
	xorl	%edi, %edi
	xorl	%esi, %esi
	call	eventfd@PLT
	movd	%eax, %xmm2
	movl	%eax, %edi
	pshufd	$0xe0, %xmm2, %xmm0
	movq	%xmm0, 88(%rbx)
	cmpl	$-1, %eax
	je	.L1666
	movl	$2048, %edx
	movl	$4, %esi
	xorl	%eax, %eax
	call	fcntl@PLT
	movl	88(%rbx), %edi
	movl	$1, %edx
	xorl	%eax, %eax
	movl	$2, %esi
	call	fcntl@PLT
	movl	88(%rbx), %edx
	cmpl	$-1, %edx
	jne	.L1664
	jmp	.L1666
	.p2align 4,,10
	.p2align 3
.L1673:
	movq	$300, 32(%rsp)
	xorl	%ecx, %ecx
	xorl	%eax, %eax
	jmp	.L1677
.L1654:
	movq	_ZGVZN4asio15system_categoryEvE8instance@GOTPCREL(%rip), %rdi
	call	__cxa_guard_acquire@PLT
	movq	_ZZN4asio15system_categoryEvE8instance@GOTPCREL(%rip), %r12
	testl	%eax, %eax
	je	.L1655
	movq	_ZN4asio6detail15system_categoryD1Ev@GOTPCREL(%rip), %rdi
	leaq	__dso_handle(%rip), %rdx
	movq	%r12, %rsi
	call	__cxa_atexit@PLT
	movq	_ZGVZN4asio15system_categoryEvE8instance@GOTPCREL(%rip), %rdi
	call	__cxa_guard_release@PLT
	jmp	.L1655
.L1668:
	movq	%r13, %rdi
	call	__cxa_guard_acquire@PLT
	movq	_ZZN4asio15system_categoryEvE8instance@GOTPCREL(%rip), %r12
	testl	%eax, %eax
	je	.L1669
	movq	_ZN4asio6detail15system_categoryD1Ev@GOTPCREL(%rip), %rdi
	leaq	__dso_handle(%rip), %rdx
	movq	%r12, %rsi
	call	__cxa_atexit@PLT
	movq	%r13, %rdi
	call	__cxa_guard_release@PLT
	jmp	.L1669
.L1762:
	leaq	48(%rsp), %rdi
	leaq	.LC42(%rip), %rsi
	call	_ZN4asio6detail14do_throw_errorERKSt10error_codePKc@PLT
.L1690:
	movq	%rax, %rbx
.L1686:
	movq	%r14, %rdi
	call	pthread_mutex_unlock@PLT
	movq	%rbx, %rdi
	call	_Unwind_Resume@PLT
.LEHE50:
	.cfi_endproc
.LFE3239:
	.section	.gcc_except_table
.LLSDA3239:
	.byte	0xff
	.byte	0xff
	.byte	0x1
	.uleb128 .LLSDACSE3239-.LLSDACSB3239
.LLSDACSB3239:
	.uleb128 .LEHB48-.LFB3239
	.uleb128 .LEHE48-.LEHB48
	.uleb128 0
	.uleb128 0
	.uleb128 .LEHB49-.LFB3239
	.uleb128 .LEHE49-.LEHB49
	.uleb128 .L1690-.LFB3239
	.uleb128 0
	.uleb128 .LEHB50-.LFB3239
	.uleb128 .LEHE50-.LEHB50
	.uleb128 0
	.uleb128 0
.LLSDACSE3239:
	.section	.text._ZN4asio6detail13epoll_reactor12fork_serviceENS_10io_service10fork_eventE,"axG",@progbits,_ZN4asio6detail13epoll_reactor12fork_serviceENS_10io_service10fork_eventE,comdat
	.size	_ZN4asio6detail13epoll_reactor12fork_serviceENS_10io_service10fork_eventE, .-_ZN4asio6detail13epoll_reactor12fork_serviceENS_10io_service10fork_eventE
	.section	.rodata._ZN4asio6detail30reactive_socket_accept_op_baseINS_12basic_socketINS_2ip3tcpENS_21stream_socket_serviceIS4_EEEES4_E10do_performEPNS0_10reactor_opE.str1.1,"aMS",@progbits,1
.LC45:
	.string	"mutex"
	.section	.text._ZN4asio6detail30reactive_socket_accept_op_baseINS_12basic_socketINS_2ip3tcpENS_21stream_socket_serviceIS4_EEEES4_E10do_performEPNS0_10reactor_opE,"axG",@progbits,_ZN4asio6detail30reactive_socket_accept_op_baseINS_12basic_socketINS_2ip3tcpENS_21stream_socket_serviceIS4_EEEES4_E10do_performEPNS0_10reactor_opE,comdat
	.p2align 4
	.weak	_ZN4asio6detail30reactive_socket_accept_op_baseINS_12basic_socketINS_2ip3tcpENS_21stream_socket_serviceIS4_EEEES4_E10do_performEPNS0_10reactor_opE
	.type	_ZN4asio6detail30reactive_socket_accept_op_baseINS_12basic_socketINS_2ip3tcpENS_21stream_socket_serviceIS4_EEEES4_E10do_performEPNS0_10reactor_opE, @function
_ZN4asio6detail30reactive_socket_accept_op_baseINS_12basic_socketINS_2ip3tcpENS_21stream_socket_serviceIS4_EEEES4_E10do_performEPNS0_10reactor_opE:
.LFB9142:
	.cfi_startproc
	.cfi_personality 0x9b,DW.ref.__gxx_personality_v0
	.cfi_lsda 0x1b,.LLSDA9142
	pushq	%r15
	.cfi_def_cfa_offset 16
	.cfi_offset 15, -16
	pushq	%r14
	.cfi_def_cfa_offset 24
	.cfi_offset 14, -24
	pushq	%r13
	.cfi_def_cfa_offset 32
	.cfi_offset 13, -32
	movq	%rdi, %r13
	pushq	%r12
	.cfi_def_cfa_offset 40
	.cfi_offset 12, -40
	pushq	%rbp
	.cfi_def_cfa_offset 48
	.cfi_offset 6, -48
	pushq	%rbx
	.cfi_def_cfa_offset 56
	.cfi_offset 3, -56
	subq	$72, %rsp
	.cfi_def_cfa_offset 128
	movzbl	60(%rdi), %eax
	movq	80(%rdi), %r15
	movb	%al, 8(%rsp)
	testq	%r15, %r15
	je	.L1765
	movl	56(%rdi), %eax
	movl	%eax, 24(%rsp)
	cmpl	$-1, %eax
	je	.L1766
	call	__errno_location@PLT
	movq	_ZGVZN4asio15system_categoryEvE8instance@GOTPCREL(%rip), %rbx
	movq	_ZZN4asio15system_categoryEvE8instance@GOTPCREL(%rip), %rbp
	movl	$28, %r14d
	movq	%rax, %r12
	leaq	48(%rsp), %rax
	movq	%rax, 16(%rsp)
	movq	%rax, %rdx
.L1783:
	movl	$0, (%r12)
	movl	24(%rsp), %edi
	movq	%r15, %rsi
	movl	%r14d, 48(%rsp)
.LEHB51:
	call	accept@PLT
.LEHE51:
	movl	48(%rsp), %r14d
	movl	%eax, 40(%rsp)
	movzbl	(%rbx), %eax
	testb	%al, %al
	je	.L1777
.L1780:
	movl	(%r12), %eax
	movq	%rbp, 32(%r13)
	movl	%eax, 24(%r13)
	cmpl	$-1, 40(%rsp)
	je	.L1919
.L1771:
	call	_ZNSt3_V215system_categoryEv@PLT
	movl	$0, 24(%r13)
	movq	%rax, 32(%r13)
	movq	%rax, %r10
	cmpq	$0, 80(%r13)
	je	.L1790
	cmpq	$128, %r14
	ja	.L1920
.L1790:
	movq	64(%r13), %r15
	cmpl	$-1, (%r15)
	je	.L1811
	movq	_ZGVZN4asio5error17get_misc_categoryEvE8instance@GOTPCREL(%rip), %r14
	movzbl	(%r14), %eax
	testb	%al, %al
	je	.L1812
	movq	_ZZN4asio5error17get_misc_categoryEvE8instance@GOTPCREL(%rip), %r15
.L1813:
	movl	$1, 24(%r13)
.L1815:
	movq	%r15, 32(%r13)
	movl	40(%rsp), %edi
	movl	$0, (%r12)
	call	close@PLT
	movl	%eax, %r14d
	movzbl	(%rbx), %eax
	testb	%al, %al
	je	.L1921
.L1832:
	testl	%r14d, %r14d
	jne	.L1922
.L1810:
	addq	$72, %rsp
	.cfi_remember_state
	.cfi_def_cfa_offset 56
	movl	$1, %eax
	popq	%rbx
	.cfi_def_cfa_offset 48
	popq	%rbp
	.cfi_def_cfa_offset 40
	popq	%r12
	.cfi_def_cfa_offset 32
	popq	%r13
	.cfi_def_cfa_offset 24
	popq	%r14
	.cfi_def_cfa_offset 16
	popq	%r15
	.cfi_def_cfa_offset 8
	ret
.L1919:
	.cfi_restore_state
	movzbl	(%rbx), %eax
	testb	%al, %al
	je	.L1923
.L1782:
	cmpq	%rbp, 32(%r13)
	je	.L1924
.L1775:
	movzbl	(%rbx), %eax
	testb	%al, %al
	je	.L1925
.L1794:
	cmpq	%rbp, 32(%r13)
	je	.L1926
.L1796:
	movzbl	(%rbx), %eax
	testb	%al, %al
	je	.L1927
.L1799:
	cmpq	%rbp, 32(%r13)
	je	.L1928
	movzbl	(%rbx), %eax
	testb	%al, %al
	je	.L1929
.L1803:
	movl	24(%r13), %eax
	cmpq	%rbp, 32(%r13)
	je	.L1930
.L1806:
	cmpl	$71, %eax
	jne	.L1810
.L1809:
	movzbl	8(%rsp), %eax
	addq	$72, %rsp
	.cfi_remember_state
	.cfi_def_cfa_offset 56
	popq	%rbx
	.cfi_def_cfa_offset 48
	popq	%rbp
	.cfi_def_cfa_offset 40
	shrb	$2, %al
	popq	%r12
	.cfi_def_cfa_offset 32
	popq	%r13
	.cfi_def_cfa_offset 24
	andl	$1, %eax
	popq	%r14
	.cfi_def_cfa_offset 16
	popq	%r15
	.cfi_def_cfa_offset 8
	ret
	.p2align 4,,10
	.p2align 3
.L1923:
	.cfi_restore_state
	movq	%rbx, %rdi
	call	__cxa_guard_acquire@PLT
	testl	%eax, %eax
	je	.L1782
	movq	_ZN4asio6detail15system_categoryD1Ev@GOTPCREL(%rip), %rdi
	leaq	__dso_handle(%rip), %rdx
	movq	%rbp, %rsi
	call	__cxa_atexit@PLT
	movq	%rbx, %rdi
	call	__cxa_guard_release@PLT
	jmp	.L1782
	.p2align 4,,10
	.p2align 3
.L1811:
	movq	24(%r15), %rax
	movq	%r10, 16(%rsp)
	movq	40(%rax), %rcx
	leaq	120(%rcx), %rax
	movq	%rcx, 8(%rsp)
	movq	%rax, %rdi
	movq	%rax, 24(%rsp)
	call	pthread_mutex_lock@PLT
	movq	8(%rsp), %rcx
	movq	16(%rsp), %r10
	movq	168(%rcx), %r14
	testq	%r14, %r14
	je	.L1816
	movq	24(%r14), %rax
	movq	%rax, 168(%rcx)
	leaq	40(%r14), %rax
	movq	%rax, 8(%rsp)
.L1817:
	movq	160(%rcx), %rax
	movq	$0, 32(%r14)
	movq	%rax, 24(%r14)
	movq	160(%rcx), %rax
	testq	%rax, %rax
	je	.L1824
	movq	%r14, 32(%rax)
.L1824:
	movq	%r14, 160(%rcx)
	movq	24(%rsp), %rdi
	movq	%r10, 32(%rsp)
	movq	%rcx, 16(%rsp)
	call	pthread_mutex_unlock@PLT
	movq	%r14, 8(%r15)
	movq	8(%rsp), %rdi
	call	pthread_mutex_lock@PLT
	movq	8(%r15), %rax
	movq	16(%rsp), %rcx
	movl	40(%rsp), %r14d
	movq	8(%rsp), %rdi
	movq	%rcx, 80(%rax)
	movl	%r14d, 88(%rax)
	movb	$0, 144(%rax)
	call	pthread_mutex_unlock@PLT
	movq	8(%r15), %rax
	movq	16(%rsp), %rcx
	movl	%r14d, %edx
	movl	$-2147483621, 48(%rsp)
	movl	$1, %esi
	movl	$-2147483621, 92(%rax)
	movq	%rax, 52(%rsp)
	movl	96(%rcx), %edi
	leaq	48(%rsp), %rcx
	call	epoll_ctl@PLT
	movq	32(%rsp), %r10
	testl	%eax, %eax
	jne	.L1931
.L1826:
	movl	40(%rsp), %eax
	movb	$80, 4(%r15)
	movl	%eax, (%r15)
	movl	72(%r13), %eax
	movl	$0, 24(%r13)
	movq	%r10, 32(%r13)
	movl	%eax, 16(%r15)
	jmp	.L1810
	.p2align 4,,10
	.p2align 3
.L1925:
	movq	%rbx, %rdi
	call	__cxa_guard_acquire@PLT
	testl	%eax, %eax
	je	.L1794
	movq	_ZN4asio6detail15system_categoryD1Ev@GOTPCREL(%rip), %rdi
	leaq	__dso_handle(%rip), %rdx
	movq	%rbp, %rsi
	call	__cxa_atexit@PLT
	movq	%rbx, %rdi
	call	__cxa_guard_release@PLT
	cmpq	%rbp, 32(%r13)
	jne	.L1796
	.p2align 4
	.p2align 3
.L1926:
	cmpl	$11, 24(%r13)
	jne	.L1796
.L1797:
	movzbl	8(%rsp), %eax
	addq	$72, %rsp
	.cfi_remember_state
	.cfi_def_cfa_offset 56
	popq	%rbx
	.cfi_def_cfa_offset 48
	popq	%rbp
	.cfi_def_cfa_offset 40
	andl	$1, %eax
	popq	%r12
	.cfi_def_cfa_offset 32
	popq	%r13
	.cfi_def_cfa_offset 24
	popq	%r14
	.cfi_def_cfa_offset 16
	popq	%r15
	.cfi_def_cfa_offset 8
	ret
	.p2align 4,,10
	.p2align 3
.L1765:
	.cfi_restore_state
	movl	56(%rdi), %r14d
	cmpl	$-1, %r14d
	je	.L1766
	call	__errno_location@PLT
	movq	_ZGVZN4asio15system_categoryEvE8instance@GOTPCREL(%rip), %rbx
	movq	_ZZN4asio15system_categoryEvE8instance@GOTPCREL(%rip), %rbp
	movq	%rax, %r12
.L1776:
	movl	$0, (%r12)
	xorl	%edx, %edx
	xorl	%esi, %esi
	movl	%r14d, %edi
	movl	$0, 48(%rsp)
.LEHB52:
	call	accept@PLT
.LEHE52:
	movl	%eax, 40(%rsp)
	movzbl	(%rbx), %eax
	testb	%al, %al
	je	.L1932
.L1769:
	movl	(%r12), %eax
	movq	%rbp, 32(%r13)
	movl	%eax, 24(%r13)
	cmpl	$-1, 40(%rsp)
	je	.L1933
	xorl	%r14d, %r14d
	jmp	.L1771
.L1933:
	movzbl	(%rbx), %eax
	testb	%al, %al
	je	.L1934
.L1773:
	cmpq	%rbp, 32(%r13)
	jne	.L1775
	cmpl	$4, 24(%r13)
	jne	.L1775
	jmp	.L1776
	.p2align 4,,10
	.p2align 3
.L1927:
	movq	%rbx, %rdi
	call	__cxa_guard_acquire@PLT
	testl	%eax, %eax
	je	.L1799
	movq	_ZN4asio6detail15system_categoryD1Ev@GOTPCREL(%rip), %rdi
	leaq	__dso_handle(%rip), %rdx
	movq	%rbp, %rsi
	call	__cxa_atexit@PLT
	movq	%rbx, %rdi
	call	__cxa_guard_release@PLT
	jmp	.L1799
	.p2align 4,,10
	.p2align 3
.L1928:
	cmpl	$11, 24(%r13)
	je	.L1797
	movzbl	(%rbx), %eax
	testb	%al, %al
	jne	.L1803
.L1929:
	movq	%rbx, %rdi
	call	__cxa_guard_acquire@PLT
	testl	%eax, %eax
	je	.L1803
	movq	_ZN4asio6detail15system_categoryD1Ev@GOTPCREL(%rip), %rdi
	leaq	__dso_handle(%rip), %rdx
	movq	%rbp, %rsi
	call	__cxa_atexit@PLT
	movq	%rbx, %rdi
	call	__cxa_guard_release@PLT
	jmp	.L1803
	.p2align 4,,10
	.p2align 3
.L1777:
	movq	%rbx, %rdi
	call	__cxa_guard_acquire@PLT
	testl	%eax, %eax
	je	.L1780
	movq	_ZN4asio6detail15system_categoryD1Ev@GOTPCREL(%rip), %rdi
	leaq	__dso_handle(%rip), %rdx
	movq	%rbp, %rsi
	call	__cxa_atexit@PLT
	movq	%rbx, %rdi
	call	__cxa_guard_release@PLT
	jmp	.L1780
	.p2align 4,,10
	.p2align 3
.L1930:
	cmpl	$103, %eax
	jne	.L1806
	jmp	.L1809
	.p2align 4,,10
	.p2align 3
.L1924:
	cmpl	$4, 24(%r13)
	jne	.L1775
	movq	16(%rsp), %rdx
	jmp	.L1783
	.p2align 4,,10
	.p2align 3
.L1922:
	movl	(%r12), %r14d
	movzbl	(%rbx), %eax
	testb	%al, %al
	je	.L1935
.L1836:
	cmpl	$11, %r14d
	je	.L1838
.L1918:
	movzbl	(%rbx), %eax
	testb	%al, %al
	jne	.L1810
	movq	%rbx, %rdi
	call	__cxa_guard_acquire@PLT
	testl	%eax, %eax
	je	.L1810
	movq	_ZN4asio6detail15system_categoryD1Ev@GOTPCREL(%rip), %rdi
	leaq	__dso_handle(%rip), %rdx
	movq	%rbp, %rsi
	call	__cxa_atexit@PLT
	movq	%rbx, %rdi
	call	__cxa_guard_release@PLT
	jmp	.L1810
	.p2align 4,,10
	.p2align 3
.L1812:
	movq	%r14, %rdi
	call	__cxa_guard_acquire@PLT
	movq	_ZZN4asio5error17get_misc_categoryEvE8instance@GOTPCREL(%rip), %r15
	testl	%eax, %eax
	je	.L1813
	movq	_ZN4asio5error6detail13misc_categoryD1Ev@GOTPCREL(%rip), %rdi
	leaq	__dso_handle(%rip), %rdx
	movq	%r15, %rsi
	call	__cxa_atexit@PLT
	movq	%r14, %rdi
	call	__cxa_guard_release@PLT
	jmp	.L1813
	.p2align 4,,10
	.p2align 3
.L1932:
	movq	%rbx, %rdi
	call	__cxa_guard_acquire@PLT
	testl	%eax, %eax
	je	.L1769
	movq	_ZN4asio6detail15system_categoryD1Ev@GOTPCREL(%rip), %rdi
	leaq	__dso_handle(%rip), %rdx
	movq	%rbp, %rsi
	call	__cxa_atexit@PLT
	movq	%rbx, %rdi
	call	__cxa_guard_release@PLT
	jmp	.L1769
	.p2align 4,,10
	.p2align 3
.L1934:
	movq	%rbx, %rdi
	call	__cxa_guard_acquire@PLT
	testl	%eax, %eax
	je	.L1773
	movq	_ZN4asio6detail15system_categoryD1Ev@GOTPCREL(%rip), %rdi
	leaq	__dso_handle(%rip), %rdx
	movq	%rbp, %rsi
	call	__cxa_atexit@PLT
	movq	%rbx, %rdi
	call	__cxa_guard_release@PLT
	jmp	.L1773
	.p2align 4,,10
	.p2align 3
.L1931:
	movl	(%r12), %r14d
	testl	%r14d, %r14d
	je	.L1826
	movzbl	(%rbx), %eax
	testb	%al, %al
	je	.L1936
.L1829:
	movl	%r14d, 24(%r13)
	movq	%rbp, %r15
	jmp	.L1815
	.p2align 4,,10
	.p2align 3
.L1921:
	movq	%rbx, %rdi
	call	__cxa_guard_acquire@PLT
	testl	%eax, %eax
	je	.L1832
	movq	_ZN4asio6detail15system_categoryD1Ev@GOTPCREL(%rip), %rdi
	leaq	__dso_handle(%rip), %rdx
	movq	%rbp, %rsi
	call	__cxa_atexit@PLT
	movq	%rbx, %rdi
	call	__cxa_guard_release@PLT
	jmp	.L1832
	.p2align 4,,10
	.p2align 3
.L1816:
	movl	$152, %edi
	movq	%r10, 32(%rsp)
	movq	%rcx, 16(%rsp)
.LEHB53:
	call	_Znwm@PLT
.LEHE53:
	movq	$0, (%rax)
	movq	%rax, %r14
	xorl	%esi, %esi
	movq	_ZN4asio6detail13epoll_reactor16descriptor_state11do_completeEPNS0_15task_io_serviceEPNS0_25task_io_service_operationERKSt10error_codem@GOTPCREL(%rip), %rax
	movl	$0, 16(%r14)
	movq	%rax, 8(%r14)
	leaq	40(%r14), %rax
	movq	%rax, %rdi
	movq	%rax, 8(%rsp)
	call	pthread_mutex_init@PLT
	movl	%eax, %r11d
	movzbl	(%rbx), %eax
	testb	%al, %al
	movq	16(%rsp), %rcx
	movq	32(%rsp), %r10
	je	.L1937
.L1819:
	movl	%r11d, 48(%rsp)
	movq	%rbp, 56(%rsp)
	testl	%r11d, %r11d
	jne	.L1938
	pxor	%xmm0, %xmm0
	movups	%xmm0, 96(%r14)
	movups	%xmm0, 112(%r14)
	movups	%xmm0, 128(%r14)
	jmp	.L1817
	.p2align 4,,10
	.p2align 3
.L1936:
	movq	%rbx, %rdi
	call	__cxa_guard_acquire@PLT
	testl	%eax, %eax
	je	.L1829
	movq	_ZN4asio6detail15system_categoryD1Ev@GOTPCREL(%rip), %rdi
	leaq	__dso_handle(%rip), %rdx
	movq	%rbp, %rsi
	call	__cxa_atexit@PLT
	movq	%rbx, %rdi
	call	__cxa_guard_release@PLT
	jmp	.L1829
	.p2align 4,,10
	.p2align 3
.L1838:
	movl	40(%rsp), %r15d
	leaq	48(%rsp), %rdx
	movl	$21537, %esi
	xorl	%eax, %eax
	movl	$0, 48(%rsp)
	movl	%r15d, %edi
	call	ioctl@PLT
	movl	$0, (%r12)
	movl	%r15d, %edi
	call	close@PLT
	jmp	.L1918
	.p2align 4,,10
	.p2align 3
.L1935:
	movq	%rbx, %rdi
	call	__cxa_guard_acquire@PLT
	testl	%eax, %eax
	je	.L1836
	movq	_ZN4asio6detail15system_categoryD1Ev@GOTPCREL(%rip), %rdi
	leaq	__dso_handle(%rip), %rdx
	movq	%rbp, %rsi
	call	__cxa_atexit@PLT
	movq	%rbx, %rdi
	call	__cxa_guard_release@PLT
	jmp	.L1836
.L1920:
	call	_ZN4asio15system_categoryEv@PLT
	leaq	48(%rsp), %rdi
	movl	$22, 48(%rsp)
	movq	%rax, 56(%rsp)
	movq	%rdi, 16(%rsp)
.LEHB54:
	call	_ZN4asio6detail14do_throw_errorERKSt10error_code@PLT
.LEHE54:
	.p2align 4,,10
	.p2align 3
.L1937:
	movq	%rbx, %rdi
	movl	%r11d, 44(%rsp)
	call	__cxa_guard_acquire@PLT
	movq	16(%rsp), %rcx
	movq	32(%rsp), %r10
	testl	%eax, %eax
	movl	44(%rsp), %r11d
	je	.L1819
	movq	_ZN4asio6detail15system_categoryD1Ev@GOTPCREL(%rip), %rdi
	leaq	__dso_handle(%rip), %rdx
	movq	%rbp, %rsi
	call	__cxa_atexit@PLT
	movq	%rbx, %rdi
	call	__cxa_guard_release@PLT
	movl	44(%rsp), %r11d
	movq	32(%rsp), %r10
	movq	16(%rsp), %rcx
	jmp	.L1819
.L1766:
	movq	_ZGVZN4asio15system_categoryEvE8instance@GOTPCREL(%rip), %rbx
	movq	_ZZN4asio15system_categoryEvE8instance@GOTPCREL(%rip), %rbp
.L1792:
	movzbl	(%rbx), %eax
	testb	%al, %al
	je	.L1939
.L1785:
	movl	$9, 24(%r13)
	movq	%rbp, 32(%r13)
	movzbl	(%rbx), %eax
	testb	%al, %al
	je	.L1940
.L1791:
	cmpq	%rbp, 32(%r13)
	jne	.L1775
	cmpl	$4, 24(%r13)
	jne	.L1775
	jmp	.L1792
.L1940:
	movq	%rbx, %rdi
	call	__cxa_guard_acquire@PLT
	testl	%eax, %eax
	je	.L1791
	movq	_ZN4asio6detail15system_categoryD1Ev@GOTPCREL(%rip), %rdi
	leaq	__dso_handle(%rip), %rdx
	movq	%rbp, %rsi
	call	__cxa_atexit@PLT
	movq	%rbx, %rdi
	call	__cxa_guard_release@PLT
	jmp	.L1791
.L1939:
	movq	%rbx, %rdi
	call	__cxa_guard_acquire@PLT
	testl	%eax, %eax
	je	.L1785
	movq	_ZN4asio6detail15system_categoryD1Ev@GOTPCREL(%rip), %rdi
	leaq	__dso_handle(%rip), %rdx
	movq	%rbp, %rsi
	call	__cxa_atexit@PLT
	movq	%rbx, %rdi
	call	__cxa_guard_release@PLT
	jmp	.L1785
.L1938:
	leaq	48(%rsp), %rdi
	leaq	.LC45(%rip), %rsi
	movq	%rdi, 16(%rsp)
.LEHB55:
	call	_ZN4asio6detail14do_throw_errorERKSt10error_codePKc@PLT
.LEHE55:
.L1844:
	movq	%rax, %rbx
	leaq	48(%rsp), %rax
	movq	%rax, 16(%rsp)
	jmp	.L1823
.L1843:
	movq	%rax, %rbx
	jmp	.L1827
.L1845:
	movq	%rax, %rbx
.L1822:
	movl	$152, %esi
	movq	%r14, %rdi
	call	_ZdlPvm@PLT
.L1823:
	movq	24(%rsp), %rdi
	call	pthread_mutex_unlock@PLT
.L1827:
	movl	40(%rsp), %eax
	movq	16(%rsp), %rdi
	movl	%eax, 48(%rsp)
	call	_ZN4asio6detail13socket_holderD1Ev@PLT
	movq	%rbx, %rdi
.LEHB56:
	call	_Unwind_Resume@PLT
.LEHE56:
	.cfi_endproc
.LFE9142:
	.section	.gcc_except_table
.LLSDA9142:
	.byte	0xff
	.byte	0xff
	.byte	0x1
	.uleb128 .LLSDACSE9142-.LLSDACSB9142
.LLSDACSB9142:
	.uleb128 .LEHB51-.LFB9142
	.uleb128 .LEHE51-.LEHB51
	.uleb128 0
	.uleb128 0
	.uleb128 .LEHB52-.LFB9142
	.uleb128 .LEHE52-.LEHB52
	.uleb128 0
	.uleb128 0
	.uleb128 .LEHB53-.LFB9142
	.uleb128 .LEHE53-.LEHB53
	.uleb128 .L1844-.LFB9142
	.uleb128 0
	.uleb128 .LEHB54-.LFB9142
	.uleb128 .LEHE54-.LEHB54
	.uleb128 .L1843-.LFB9142
	.uleb128 0
	.uleb128 .LEHB55-.LFB9142
	.uleb128 .LEHE55-.LEHB55
	.uleb128 .L1845-.LFB9142
	.uleb128 0
	.uleb128 .LEHB56-.LFB9142
	.uleb128 .LEHE56-.LEHB56
	.uleb128 0
	.uleb128 0
.LLSDACSE9142:
	.section	.text._ZN4asio6detail30reactive_socket_accept_op_baseINS_12basic_socketINS_2ip3tcpENS_21stream_socket_serviceIS4_EEEES4_E10do_performEPNS0_10reactor_opE,"axG",@progbits,_ZN4asio6detail30reactive_socket_accept_op_baseINS_12basic_socketINS_2ip3tcpENS_21stream_socket_serviceIS4_EEEES4_E10do_performEPNS0_10reactor_opE,comdat
	.size	_ZN4asio6detail30reactive_socket_accept_op_baseINS_12basic_socketINS_2ip3tcpENS_21stream_socket_serviceIS4_EEEES4_E10do_performEPNS0_10reactor_opE, .-_ZN4asio6detail30reactive_socket_accept_op_baseINS_12basic_socketINS_2ip3tcpENS_21stream_socket_serviceIS4_EEEES4_E10do_performEPNS0_10reactor_opE
	.section	.text._ZN4asio6detail11object_poolINS0_13epoll_reactor16descriptor_stateEED2Ev,"axG",@progbits,_ZN4asio6detail11object_poolINS0_13epoll_reactor16descriptor_stateEED5Ev,comdat
	.align 2
	.p2align 4
	.weak	_ZN4asio6detail11object_poolINS0_13epoll_reactor16descriptor_stateEED2Ev
	.type	_ZN4asio6detail11object_poolINS0_13epoll_reactor16descriptor_stateEED2Ev, @function
_ZN4asio6detail11object_poolINS0_13epoll_reactor16descriptor_stateEED2Ev:
.LFB7460:
	.cfi_startproc
	.cfi_personality 0x9b,DW.ref.__gxx_personality_v0
	.cfi_lsda 0x1b,.LLSDA7460
	pushq	%r15
	.cfi_def_cfa_offset 16
	.cfi_offset 15, -16
	pushq	%r14
	.cfi_def_cfa_offset 24
	.cfi_offset 14, -24
	pushq	%r13
	.cfi_def_cfa_offset 32
	.cfi_offset 13, -32
	pushq	%r12
	.cfi_def_cfa_offset 40
	.cfi_offset 12, -40
	pushq	%rbp
	.cfi_def_cfa_offset 48
	.cfi_offset 6, -48
	pushq	%rbx
	.cfi_def_cfa_offset 56
	.cfi_offset 3, -56
	subq	$40, %rsp
	.cfi_def_cfa_offset 96
	movq	(%rdi), %r13
	movq	%rdi, 8(%rsp)
	testq	%r13, %r13
	je	.L1942
	leaq	16(%rsp), %rbp
	.p2align 4
	.p2align 3
.L1948:
	movq	%r13, %r12
	movq	24(%r13), %r13
	leaq	128(%r12), %r15
	leaq	80(%r12), %r14
.L1947:
	movq	(%r15), %rsi
	testq	%rsi, %rsi
	je	.L1943
	movq	%rsi, (%rsp)
	call	_ZNSt3_V215system_categoryEv@PLT
	movq	(%rsp), %rsi
	movq	%rax, %rbx
	jmp	.L1946
	.p2align 4,,10
	.p2align 3
.L1944:
	movq	$0, (%rsi)
	movq	8(%rsi), %rax
	xorl	%ecx, %ecx
	movq	%rbp, %rdx
	movl	$0, 16(%rsp)
	xorl	%edi, %edi
	movq	%rbx, 24(%rsp)
	call	*%rax
	movq	(%r15), %rsi
	testq	%rsi, %rsi
	je	.L1943
.L1946:
	movq	(%rsi), %rax
	movq	%rax, (%r15)
	testq	%rax, %rax
	jne	.L1944
	movq	$0, 8(%r15)
	jmp	.L1944
	.p2align 4,,10
	.p2align 3
.L1943:
	subq	$16, %r15
	cmpq	%r15, %r14
	jne	.L1947
	leaq	40(%r12), %rdi
	call	pthread_mutex_destroy@PLT
	movl	$152, %esi
	movq	%r12, %rdi
	call	_ZdlPvm@PLT
	testq	%r13, %r13
	jne	.L1948
.L1942:
	movq	8(%rsp), %rax
	movq	8(%rax), %r13
	testq	%r13, %r13
	je	.L1941
	leaq	16(%rsp), %rbp
	.p2align 4
	.p2align 3
.L1955:
	movq	%r13, %r12
	movq	24(%r13), %r13
	leaq	128(%r12), %r15
	leaq	80(%r12), %r14
.L1954:
	movq	(%r15), %rsi
	testq	%rsi, %rsi
	je	.L1950
	movq	%rsi, (%rsp)
	call	_ZNSt3_V215system_categoryEv@PLT
	movq	(%rsp), %rsi
	movq	%rax, %rbx
	jmp	.L1953
	.p2align 4,,10
	.p2align 3
.L1951:
	movq	$0, (%rsi)
	movq	8(%rsi), %rax
	xorl	%ecx, %ecx
	movq	%rbp, %rdx
	movl	$0, 16(%rsp)
	xorl	%edi, %edi
	movq	%rbx, 24(%rsp)
	call	*%rax
	movq	(%r15), %rsi
	testq	%rsi, %rsi
	je	.L1950
.L1953:
	movq	(%rsi), %rax
	movq	%rax, (%r15)
	testq	%rax, %rax
	jne	.L1951
	movq	$0, 8(%r15)
	jmp	.L1951
	.p2align 4,,10
	.p2align 3
.L1950:
	subq	$16, %r15
	cmpq	%r15, %r14
	jne	.L1954
	leaq	40(%r12), %rdi
	call	pthread_mutex_destroy@PLT
	movl	$152, %esi
	movq	%r12, %rdi
	call	_ZdlPvm@PLT
	testq	%r13, %r13
	jne	.L1955
.L1941:
	addq	$40, %rsp
	.cfi_def_cfa_offset 56
	popq	%rbx
	.cfi_def_cfa_offset 48
	popq	%rbp
	.cfi_def_cfa_offset 40
	popq	%r12
	.cfi_def_cfa_offset 32
	popq	%r13
	.cfi_def_cfa_offset 24
	popq	%r14
	.cfi_def_cfa_offset 16
	popq	%r15
	.cfi_def_cfa_offset 8
	ret
	.cfi_endproc
.LFE7460:
	.section	.gcc_except_table
.LLSDA7460:
	.byte	0xff
	.byte	0xff
	.byte	0x1
	.uleb128 .LLSDACSE7460-.LLSDACSB7460
.LLSDACSB7460:
.LLSDACSE7460:
	.section	.text._ZN4asio6detail11object_poolINS0_13epoll_reactor16descriptor_stateEED2Ev,"axG",@progbits,_ZN4asio6detail11object_poolINS0_13epoll_reactor16descriptor_stateEED5Ev,comdat
	.size	_ZN4asio6detail11object_poolINS0_13epoll_reactor16descriptor_stateEED2Ev, .-_ZN4asio6detail11object_poolINS0_13epoll_reactor16descriptor_stateEED2Ev
	.weak	_ZN4asio6detail11object_poolINS0_13epoll_reactor16descriptor_stateEED1Ev
	.set	_ZN4asio6detail11object_poolINS0_13epoll_reactor16descriptor_stateEED1Ev,_ZN4asio6detail11object_poolINS0_13epoll_reactor16descriptor_stateEED2Ev
	.section	.rodata.str1.1
.LC46:
	.string	"Listening on: %s"
	.section	.rodata.str1.8
	.align 8
.LC47:
	.string	"/opt/PLC/OpenPLC_v3/utils/dnp3_src/cpp/libs/src/asiopal/TCPServer.cpp(98)"
	.section	.text.unlikely
	.align 2
.LCOLDB53:
	.text
.LHOTB53:
	.align 2
	.p2align 4
	.globl	_ZN7asiopal9TCPServer9ConfigureERKNSt7__cxx1112basic_stringIcSt11char_traitsIcESaIcEEERSt10error_code
	.type	_ZN7asiopal9TCPServer9ConfigureERKNSt7__cxx1112basic_stringIcSt11char_traitsIcESaIcEEERSt10error_code, @function
_ZN7asiopal9TCPServer9ConfigureERKNSt7__cxx1112basic_stringIcSt11char_traitsIcESaIcEEERSt10error_code:
.LFB7045:
	.cfi_startproc
	.cfi_personality 0x9b,DW.ref.__gxx_personality_v0
	.cfi_lsda 0x1b,.LLSDA7045
	pushq	%r15
	.cfi_def_cfa_offset 16
	.cfi_offset 15, -16
	pxor	%xmm0, %xmm0
	pushq	%r14
	.cfi_def_cfa_offset 24
	.cfi_offset 14, -24
	movq	%rdi, %r14
	pushq	%r13
	.cfi_def_cfa_offset 32
	.cfi_offset 13, -32
	pushq	%r12
	.cfi_def_cfa_offset 40
	.cfi_offset 12, -40
	pushq	%rbp
	.cfi_def_cfa_offset 48
	.cfi_offset 6, -48
	pushq	%rbx
	.cfi_def_cfa_offset 56
	.cfi_offset 3, -56
	movq	%rdx, %rbx
	subq	$1016, %rsp
	.cfi_def_cfa_offset 1072
	movq	(%rsi), %r15
	movaps	%xmm0, 240(%rsp)
	movq	$0, 256(%rsp)
	call	__errno_location@PLT
	movl	$37, %esi
	movq	%r15, %rdi
	movl	$0, (%rax)
	movq	%rax, %rbp
	call	strchr@PLT
	movq	%rax, %rcx
	testq	%rax, %rax
	je	.L2165
	subq	%r15, %rax
	cmpq	$63, %rax
	jg	.L2307
	leaq	624(%rsp), %rdi
	movq	%r15, %rdx
	movq	%rdi, 16(%rsp)
	cmpq	$8, %rax
	jnb	.L2308
.L1986:
	xorl	%esi, %esi
	testb	$4, %al
	jne	.L2309
	testb	$2, %al
	jne	.L2310
.L1990:
	testb	$1, %al
	jne	.L2311
.L1991:
	movb	$0, 624(%rsp,%rax)
	movq	16(%rsp), %rsi
.L1980:
	leaq	240(%rsp), %rax
	movl	$10, %edi
	movq	%rcx, 16(%rsp)
	movq	%rax, %rdx
	movq	%rax, 8(%rsp)
	call	inet_pton@PLT
	movq	_ZGVZN4asio15system_categoryEvE8instance@GOTPCREL(%rip), %r12
	movl	%eax, %r8d
	movzbl	(%r12), %eax
	testb	%al, %al
	movq	16(%rsp), %rcx
	je	.L1992
.L2293:
	movq	_ZZN4asio15system_categoryEvE8instance@GOTPCREL(%rip), %r13
.L1993:
	movl	0(%rbp), %edx
	movq	%r13, 8(%rbx)
	movl	%edx, (%rbx)
	testl	%r8d, %r8d
	jle	.L1995
	movq	$0, 256(%rsp)
	testq	%rcx, %rcx
	je	.L2312
	movzwl	240(%rsp), %eax
	movl	%eax, %edx
	andb	$-64, %dh
	cmpw	$-32514, %dx
	je	.L2003
	andw	$4095, %ax
	leaq	1(%rcx), %rdi
	cmpw	$767, %ax
	je	.L2003
.L2004:
	movl	$10, %edx
	xorl	%esi, %esi
	call	__isoc23_strtol@PLT
.L2294:
	movl	(%rbx), %edx
.L2002:
	movq	240(%rsp), %rsi
	movq	248(%rsp), %rdi
	movq	%rsi, 624(%rsp)
	movq	%rdi, 632(%rsp)
	testl	%edx, %edx
	jne	.L2005
	movq	%rsi, 152(%rsp)
	movzwl	74(%r14), %edx
	movl	$10, %ecx
	xorl	%r8d, %r8d
	movq	%rdi, 160(%rsp)
	movl	$10, %r15d
.L2006:
	movw	%cx, 72(%r14)
	movw	%dx, 74(%r14)
	movl	%r8d, 76(%r14)
	movq	%rsi, 80(%r14)
	movq	%rdi, 88(%r14)
	movl	%eax, 96(%r14)
	cmpl	$-1, 104(%r14)
	je	.L2018
	movq	_ZGVZN4asio5error17get_misc_categoryEvE8instance@GOTPCREL(%rip), %rbp
	movzbl	0(%rbp), %eax
	testb	%al, %al
	je	.L2019
	movq	_ZZN4asio5error17get_misc_categoryEvE8instance@GOTPCREL(%rip), %r12
.L2020:
	movl	$1, (%rbx)
	movq	%r12, 8(%rbx)
.L1979:
	addq	$1016, %rsp
	.cfi_remember_state
	.cfi_def_cfa_offset 56
	popq	%rbx
	.cfi_def_cfa_offset 48
	popq	%rbp
	.cfi_def_cfa_offset 40
	popq	%r12
	.cfi_def_cfa_offset 32
	popq	%r13
	.cfi_def_cfa_offset 24
	popq	%r14
	.cfi_def_cfa_offset 16
	popq	%r15
	.cfi_def_cfa_offset 8
	ret
	.p2align 4,,10
	.p2align 3
.L2307:
	.cfi_restore_state
	movq	_ZGVZN4asio15system_categoryEvE8instance@GOTPCREL(%rip), %r12
	movzbl	(%r12), %eax
	testb	%al, %al
	je	.L1982
	movq	_ZZN4asio15system_categoryEvE8instance@GOTPCREL(%rip), %r13
.L1983:
	leaq	240(%rsp), %rax
	movl	$22, (%rbx)
	movq	%r13, 8(%rbx)
	movq	%rax, 8(%rsp)
.L2005:
	movl	$0, 0(%rbp)
	movq	8(%rsp), %rdx
	movq	%r15, %rsi
	movl	$2, %edi
	movl	$0, 240(%rsp)
	call	inet_pton@PLT
	movl	%eax, %r15d
	movzbl	(%r12), %eax
	testb	%al, %al
	je	.L2313
.L2008:
	movl	0(%rbp), %eax
	movq	%r13, 8(%rbx)
	movl	%eax, (%rbx)
	testl	%r15d, %r15d
	jle	.L2314
	movl	240(%rsp), %r8d
	testl	%eax, %eax
	jne	.L1979
	movzwl	74(%r14), %edx
	movl	$2, %ecx
	xorl	%esi, %esi
	xorl	%edi, %edi
	movl	$2, %r15d
	jmp	.L2006
	.p2align 4,,10
	.p2align 3
.L1995:
	testl	%edx, %edx
	jne	.L2005
	movzbl	(%r12), %eax
	testb	%al, %al
	je	.L2315
.L2000:
	movl	$22, (%rbx)
	movq	%r13, 8(%rbx)
	jmp	.L2005
	.p2align 4,,10
	.p2align 3
.L2165:
	movq	%r15, %rsi
	jmp	.L1980
	.p2align 4,,10
	.p2align 3
.L1992:
	movq	%r12, %rdi
	movl	%r8d, 24(%rsp)
	movq	%rcx, 16(%rsp)
	call	__cxa_guard_acquire@PLT
	movq	16(%rsp), %rcx
	movl	24(%rsp), %r8d
	testl	%eax, %eax
	je	.L2293
	movq	_ZZN4asio15system_categoryEvE8instance@GOTPCREL(%rip), %r13
	movq	_ZN4asio6detail15system_categoryD1Ev@GOTPCREL(%rip), %rdi
	movl	%r8d, 24(%rsp)
	leaq	__dso_handle(%rip), %rdx
	movq	%rcx, 16(%rsp)
	movq	%r13, %rsi
	call	__cxa_atexit@PLT
	movq	%r12, %rdi
	call	__cxa_guard_release@PLT
	movl	24(%rsp), %r8d
	movq	16(%rsp), %rcx
	jmp	.L1993
	.p2align 4,,10
	.p2align 3
.L2311:
	movzbl	(%rdx,%rsi), %edx
	movb	%dl, (%rdi,%rsi)
	jmp	.L1991
	.p2align 4,,10
	.p2align 3
.L2310:
	movzwl	(%rdx,%rsi), %r8d
	movw	%r8w, (%rdi,%rsi)
	addq	$2, %rsi
	testb	$1, %al
	je	.L1991
	jmp	.L2311
	.p2align 4,,10
	.p2align 3
.L2309:
	movl	(%rdx), %esi
	movl	%esi, (%rdi)
	movl	$4, %esi
	testb	$2, %al
	je	.L1990
	jmp	.L2310
	.p2align 4,,10
	.p2align 3
.L2314:
	testl	%eax, %eax
	jne	.L1979
	movzbl	(%r12), %eax
	testb	%al, %al
	je	.L2316
.L2013:
	movl	$22, (%rbx)
	movq	%r13, 8(%rbx)
	jmp	.L1979
	.p2align 4,,10
	.p2align 3
.L1982:
	movq	%r12, %rdi
	call	__cxa_guard_acquire@PLT
	movq	_ZZN4asio15system_categoryEvE8instance@GOTPCREL(%rip), %r13
	testl	%eax, %eax
	je	.L1983
	movq	_ZN4asio6detail15system_categoryD1Ev@GOTPCREL(%rip), %rdi
	leaq	__dso_handle(%rip), %rdx
	movq	%r13, %rsi
	call	__cxa_atexit@PLT
	movq	%r12, %rdi
	call	__cxa_guard_release@PLT
	jmp	.L1983
	.p2align 4,,10
	.p2align 3
.L2308:
	movq	%rax, %rsi
	xorl	%edx, %edx
	andq	$-8, %rsi
.L1987:
	movq	(%r15,%rdx), %rdi
	movq	16(%rsp), %r9
	movq	%rdi, (%r9,%rdx)
	addq	$8, %rdx
	cmpq	%rsi, %rdx
	jb	.L1987
	leaq	(%r9,%rdx), %rdi
	addq	%r15, %rdx
	jmp	.L1986
	.p2align 4,,10
	.p2align 3
.L2003:
	leaq	1(%rcx), %rdi
	movq	%rdi, 16(%rsp)
	call	if_nametoindex@PLT
	movq	16(%rsp), %rdi
	movl	%eax, %eax
	testq	%rax, %rax
	movq	%rax, 256(%rsp)
	jne	.L2294
	jmp	.L2004
	.p2align 4,,10
	.p2align 3
.L2018:
	movq	128(%r14), %rax
	movl	$6, %edx
	movl	$1, %esi
	movl	%r15d, %edi
	movl	$0, 0(%rbp)
	movq	%rax, 16(%rsp)
	call	socket@PLT
	movl	%eax, 24(%rsp)
	movzbl	(%r12), %eax
	testb	%al, %al
	je	.L2317
.L2023:
	movl	0(%rbp), %eax
	movl	24(%rsp), %ecx
	movq	%r13, 8(%rbx)
	movl	%eax, (%rbx)
	testl	%ecx, %ecx
	js	.L2025
	call	_ZNSt3_V215system_categoryEv@PLT
	movl	$0, (%rbx)
	movq	%rax, 8(%rbx)
.L2026:
	movq	16(%rsp), %rax
	movq	40(%rax), %rcx
	leaq	120(%rcx), %rax
	movq	%rcx, 16(%rsp)
	movq	%rax, %rdi
	movq	%rax, 48(%rsp)
	call	pthread_mutex_lock@PLT
	movq	16(%rsp), %rcx
	movq	168(%rcx), %rdx
	movq	%rdx, 32(%rsp)
	testq	%rdx, %rdx
	je	.L2028
	movq	24(%rdx), %rax
	movq	%rdx, %rdi
	movq	%rax, 168(%rcx)
	leaq	40(%rdx), %rax
	movq	%rax, 16(%rsp)
.L2029:
	movq	160(%rcx), %rax
	movq	$0, 32(%rdi)
	movq	%rax, 24(%rdi)
	movq	160(%rcx), %rax
	testq	%rax, %rax
	je	.L2036
	movq	%rdi, 32(%rax)
.L2036:
	movq	32(%rsp), %rax
	movq	48(%rsp), %rdi
	movq	%rcx, 56(%rsp)
	movq	%rax, 160(%rcx)
	call	pthread_mutex_unlock@PLT
	movq	32(%rsp), %rax
	movq	16(%rsp), %rdi
	movq	%rax, 112(%r14)
	call	pthread_mutex_lock@PLT
	movq	112(%r14), %rax
	movq	56(%rsp), %rcx
	movq	16(%rsp), %rdi
	movq	%rcx, 80(%rax)
	movq	%rcx, 32(%rsp)
	movl	24(%rsp), %ecx
	movb	$0, 144(%rax)
	movl	%ecx, 88(%rax)
	call	pthread_mutex_unlock@PLT
	movq	112(%r14), %rax
	movq	32(%rsp), %rcx
	movl	$-2147483621, 624(%rsp)
	movl	24(%rsp), %edx
	movl	$1, %esi
	movl	$-2147483621, 92(%rax)
	movq	%rax, 628(%rsp)
	leaq	624(%rsp), %rax
	movl	96(%rcx), %edi
	movq	%rax, %rcx
	movq	%rax, 16(%rsp)
	call	epoll_ctl@PLT
	testl	%eax, %eax
	jne	.L2318
.L2038:
	movl	24(%rsp), %eax
	movb	$16, 108(%r14)
	movl	%eax, 104(%r14)
	call	_ZNSt3_V215system_categoryEv@PLT
	movl	$0, (%rbx)
	movq	%rax, 8(%rbx)
	movq	_ZTVSt15basic_streambufIcSt11char_traitsIcEE@GOTPCREL(%rip), %rax
	movl	%r15d, 120(%r14)
	movq	_ZTVNSt7__cxx1119basic_ostringstreamIcSt11char_traitsIcESaIcEEE@GOTPCREL(%rip), %r15
	movq	%rax, 24(%rsp)
	addq	$16, %rax
	leaq	24(%r15), %rdx
	movq	%rax, %xmm4
	movq	%rdx, %xmm2
	punpcklqdq	%xmm4, %xmm2
	movaps	%xmm2, 32(%rsp)
.L2044:
	movl	$1, 624(%rsp)
	movl	104(%r14), %edi
	cmpl	$-1, %edi
	je	.L2297
	movl	$4, %r8d
	movl	$2, %edx
	movl	$1, %esi
	movl	$0, 0(%rbp)
	leaq	624(%rsp), %rax
	movq	%rax, %rcx
	movq	%rax, 16(%rsp)
	call	setsockopt@PLT
	movl	%eax, %ecx
	movzbl	(%r12), %eax
	testb	%al, %al
	je	.L2319
.L2063:
	movl	0(%rbp), %eax
	movq	%r13, 8(%rbx)
	movl	%eax, (%rbx)
	testl	%ecx, %ecx
	jne	.L2065
	call	_ZNSt3_V215system_categoryEv@PLT
	movl	$0, (%rbx)
	movq	%rax, 8(%rbx)
.L2066:
	movl	104(%r14), %edi
	cmpw	$2, 72(%r14)
	movl	$28, %edx
	movl	$16, %eax
	cmove	%eax, %edx
	cmpl	$-1, %edi
	je	.L2297
	movl	$0, 0(%rbp)
	leaq	72(%r14), %rsi
	call	bind@PLT
	movl	%eax, %ecx
	movzbl	(%r12), %eax
	testb	%al, %al
	je	.L2320
.L2070:
	movl	0(%rbp), %eax
	movq	%r13, 8(%rbx)
	movl	%eax, (%rbx)
	testl	%ecx, %ecx
	jne	.L2072
	call	_ZNSt3_V215system_categoryEv@PLT
	movl	$0, (%rbx)
	movq	%rax, 8(%rbx)
.L2073:
	movl	104(%r14), %edi
	cmpl	$-1, %edi
	je	.L2297
	movl	$0, 0(%rbp)
	movl	$4096, %esi
	call	listen@PLT
	movl	%eax, %ecx
	movzbl	(%r12), %eax
	testb	%al, %al
	je	.L2321
.L2076:
	movl	0(%rbp), %eax
	movq	%r13, 8(%rbx)
	movl	%eax, (%rbx)
	testl	%ecx, %ecx
	jne	.L2078
	call	_ZNSt3_V215system_categoryEv@PLT
	movl	$0, (%rbx)
	movq	%rax, 8(%rbx)
.L2079:
	leaq	352(%rsp), %rbx
	movq	%rbx, %rdi
	movq	%rbx, 72(%rsp)
	call	_ZNSt8ios_baseC2Ev@PLT
	movq	_ZTVSt9basic_iosIcSt11char_traitsIcEE@GOTPCREL(%rip), %rax
	xorl	%edx, %edx
	xorl	%esi, %esi
	pxor	%xmm0, %xmm0
	movw	%dx, 576(%rsp)
	movq	8(%rsp), %rdi
	addq	$16, %rax
	movups	%xmm0, 584(%rsp)
	movq	%rax, 352(%rsp)
	movq	_ZTTNSt7__cxx1119basic_ostringstreamIcSt11char_traitsIcESaIcEEE@GOTPCREL(%rip), %rax
	movups	%xmm0, 600(%rsp)
	movq	$0, 568(%rsp)
	movq	8(%rax), %rcx
	movq	16(%rax), %rax
	addq	-24(%rcx), %rdi
	movq	%rcx, 240(%rsp)
	movq	%rax, (%rdi)
	movq	%rcx, 48(%rsp)
	movq	%rax, 56(%rsp)
.LEHB57:
	call	_ZNSt9basic_iosIcSt11char_traitsIcEE4initEPSt15basic_streambufIcS1_E@PLT
.LEHE57:
	leaq	64(%r15), %rax
	movdqa	32(%rsp), %xmm5
	pxor	%xmm0, %xmm0
	movq	%rax, 352(%rsp)
	leaq	304(%rsp), %rax
	movq	%rax, %rdi
	movq	%rax, 64(%rsp)
	movaps	%xmm5, 240(%rsp)
	movaps	%xmm0, 256(%rsp)
	movaps	%xmm0, 272(%rsp)
	movaps	%xmm0, 288(%rsp)
	call	_ZNSt6localeC1Ev@PLT
	movq	_ZTVNSt7__cxx1115basic_stringbufIcSt11char_traitsIcESaIcEEE@GOTPCREL(%rip), %rax
	movq	%rbx, %rdi
	leaq	248(%rsp), %rsi
	movl	$16, 312(%rsp)
	addq	$16, %rax
	movb	$0, 336(%rsp)
	movq	%rax, 248(%rsp)
	leaq	336(%rsp), %rax
	movq	%rax, 80(%rsp)
	movq	%rax, 320(%rsp)
	movq	$0, 328(%rsp)
.LEHB58:
	call	_ZNSt9basic_iosIcSt11char_traitsIcEE4initEPSt15basic_streambufIcS1_E@PLT
.LEHE58:
	call	_ZNSt3_V215system_categoryEv@PLT
	movzwl	72(%r14), %ebx
	movzwl	74(%r14), %ecx
	movw	%cx, 94(%rsp)
	cmpw	$2, %bx
	je	.L2322
	movl	96(%r14), %ebx
	movdqu	80(%r14), %xmm0
	movl	$0, 0(%rbp)
	movl	$63, %ecx
	movq	16(%rsp), %rdx
	leaq	216(%rsp), %rsi
	movl	$10, %edi
	movq	%rax, 136(%rsp)
	movl	%ebx, 104(%rsp)
	movq	$1, 208(%rsp)
	movq	%rbx, 232(%rsp)
	movups	%xmm0, 216(%rsp)
	call	inet_ntop@PLT
	movq	%rax, %rcx
	movzbl	(%r12), %eax
	testb	%al, %al
	je	.L2323
.L2087:
	movq	%r13, 136(%rsp)
	movl	0(%rbp), %ebp
	testq	%rcx, %rcx
	je	.L2306
	leaq	176(%rsp), %rax
	movq	%rax, 96(%rsp)
	testq	%rbx, %rbx
	je	.L2095
	movzwl	216(%rsp), %eax
	movb	$0, 192(%rsp)
	movq	$37, 176(%rsp)
	movq	$0, 184(%rsp)
	movl	%eax, %edx
	andb	$-64, %dh
	cmpw	$-32514, %dx
	je	.L2096
	andw	$4095, %ax
	cmpw	$767, %ax
	je	.L2096
	leaq	177(%rsp), %r12
.L2098:
	movq	%rbx, %rdx
	leaq	.LC32(%rip), %rsi
	movq	%r12, %rdi
	xorl	%eax, %eax
	movq	%rcx, 96(%rsp)
	call	sprintf@PLT
	movq	96(%rsp), %rcx
.L2097:
	leaq	176(%rsp), %rax
	movq	16(%rsp), %rdi
	movq	%rcx, 104(%rsp)
	movq	%rax, %rsi
	movq	%rax, 96(%rsp)
	call	strcat@PLT
	movq	104(%rsp), %rcx
.L2095:
	movq	%rcx, %rdi
	leaq	192(%rsp), %r13
	movq	%rcx, 104(%rsp)
	movq	%r13, 176(%rsp)
	call	strlen@PLT
	movq	104(%rsp), %rcx
	cmpq	$15, %rax
	movq	%rax, 120(%rsp)
	movq	%rax, %rbx
	ja	.L2324
	cmpq	$1, %rax
	je	.L2325
	testq	%rax, %rax
	jne	.L2326
.L2104:
	movq	%r13, %rdx
.L2103:
	movq	%rax, 184(%rsp)
	movl	$10, %ebx
	movb	$0, (%rdx,%rax)
.L2105:
	testl	%ebp, %ebp
	je	.L2119
.L2099:
	movq	176(%rsp), %rdi
	leaq	224(%rsp), %rbx
	movq	$0, 216(%rsp)
	movq	%rbx, 208(%rsp)
	movb	$0, 224(%rsp)
	cmpq	%r13, %rdi
	je	.L2112
	movq	192(%rsp), %rax
	leaq	1(%rax), %rsi
	call	_ZdlPvm@PLT
.L2112:
	movq	240(%rsp), %rax
	movq	8(%rsp), %rdi
	addq	-24(%rax), %rdi
	testb	$4, 28(%rdi)
	jne	.L2327
	movl	32(%rdi), %esi
	leaq	208(%rsp), %rax
	movq	%rax, 32(%rsp)
	orl	$4, %esi
.LEHB59:
	call	_ZNSt9basic_iosIcSt11char_traitsIcEE5clearESt12_Ios_Iostate@PLT
.LEHE59:
	movq	208(%rsp), %rdi
.L2145:
	cmpq	%rbx, %rdi
	je	.L2154
	movq	224(%rsp), %rax
	leaq	1(%rax), %rsi
	call	_ZdlPvm@PLT
.L2154:
	addq	$24, %r14
	movq	16(%rsp), %rsi
	movl	$8, 624(%rsp)
	movq	%r14, %rdi
.LEHB60:
	call	_ZNK7openpal6Logger9IsEnabledERKNS_10LogFiltersE@PLT
.LEHE60:
	testb	%al, %al
	je	.L2157
	movq	288(%rsp), %r8
	leaq	208(%rsp), %rdi
	movq	%rbx, 208(%rsp)
	movq	%rdi, 32(%rsp)
	movq	$0, 216(%rsp)
	movb	$0, 224(%rsp)
	testq	%r8, %r8
	je	.L2158
	movq	272(%rsp), %rax
	movq	%r8, %rdx
	movq	280(%rsp), %rcx
	cmpq	%r8, %rax
	cmovnb	%rax, %r8
	testq	%rax, %rax
	cmove	%rdx, %r8
	xorl	%edx, %edx
	xorl	%esi, %esi
	subq	%rcx, %r8
.LEHB61:
	call	_ZNSt7__cxx1112basic_stringIcSt11char_traitsIcESaIcEE10_M_replaceEmmPKcm@PLT
.LEHE61:
.L2160:
	movq	16(%rsp), %rdi
	movq	208(%rsp), %rcx
	leaq	.LC46(%rip), %rdx
	xorl	%eax, %eax
	movl	$120, %esi
	call	snprintf@PLT
	movq	208(%rsp), %rdi
	cmpq	%rbx, %rdi
	je	.L2161
	movq	224(%rsp), %rax
	leaq	1(%rax), %rsi
	call	_ZdlPvm@PLT
.L2161:
	movq	16(%rsp), %rcx
	movq	32(%rsp), %rsi
	leaq	.LC47(%rip), %rdx
	movq	%r14, %rdi
	movl	$8, 208(%rsp)
.LEHB62:
	call	_ZN7openpal6Logger3LogERKNS_10LogFiltersEPKcS5_@PLT
.LEHE62:
.L2157:
	leaq	24(%r15), %rax
	movq	320(%rsp), %rdi
	movq	%rax, 240(%rsp)
	leaq	64(%r15), %rax
	movq	%rax, 352(%rsp)
	cmpq	80(%rsp), %rdi
	je	.L2164
	movq	336(%rsp), %rax
	leaq	1(%rax), %rsi
	call	_ZdlPvm@PLT
.L2164:
	movq	24(%rsp), %rax
	movq	64(%rsp), %rdi
	addq	$16, %rax
	movq	%rax, 248(%rsp)
	call	_ZNSt6localeD1Ev@PLT
	movq	48(%rsp), %rax
	movq	56(%rsp), %rbx
	movq	72(%rsp), %rdi
	movq	%rax, 240(%rsp)
	movq	-24(%rax), %rax
	movq	%rbx, 240(%rsp,%rax)
	movq	_ZTVSt9basic_iosIcSt11char_traitsIcEE@GOTPCREL(%rip), %rax
	addq	$16, %rax
	movq	%rax, 352(%rsp)
	call	_ZNSt8ios_baseD2Ev@PLT
	jmp	.L1979
	.p2align 4,,10
	.p2align 3
.L2078:
	testl	%eax, %eax
	jne	.L1979
	jmp	.L2079
	.p2align 4,,10
	.p2align 3
.L2065:
	testl	%eax, %eax
	jne	.L1979
	jmp	.L2066
	.p2align 4,,10
	.p2align 3
.L2312:
	xorl	%eax, %eax
	jmp	.L2002
	.p2align 4,,10
	.p2align 3
.L2313:
	movq	%r12, %rdi
	call	__cxa_guard_acquire@PLT
	testl	%eax, %eax
	je	.L2008
	movq	_ZN4asio6detail15system_categoryD1Ev@GOTPCREL(%rip), %rdi
	leaq	__dso_handle(%rip), %rdx
	movq	%r13, %rsi
	call	__cxa_atexit@PLT
	movq	%r12, %rdi
	call	__cxa_guard_release@PLT
	jmp	.L2008
	.p2align 4,,10
	.p2align 3
.L2019:
	movq	%rbp, %rdi
	call	__cxa_guard_acquire@PLT
	movq	_ZZN4asio5error17get_misc_categoryEvE8instance@GOTPCREL(%rip), %r12
	testl	%eax, %eax
	je	.L2020
	movq	_ZN4asio5error6detail13misc_categoryD1Ev@GOTPCREL(%rip), %rdi
	leaq	__dso_handle(%rip), %rdx
	movq	%r12, %rsi
	call	__cxa_atexit@PLT
	movq	%rbp, %rdi
	call	__cxa_guard_release@PLT
	jmp	.L2020
	.p2align 4,,10
	.p2align 3
.L2072:
	testl	%eax, %eax
	jne	.L1979
	jmp	.L2073
	.p2align 4,,10
	.p2align 3
.L2319:
	movq	%r12, %rdi
	movl	%ecx, 48(%rsp)
	call	__cxa_guard_acquire@PLT
	movl	48(%rsp), %ecx
	testl	%eax, %eax
	je	.L2063
	movq	_ZN4asio6detail15system_categoryD1Ev@GOTPCREL(%rip), %rdi
	leaq	__dso_handle(%rip), %rdx
	movq	%r13, %rsi
	call	__cxa_atexit@PLT
	movq	%r12, %rdi
	call	__cxa_guard_release@PLT
	movl	48(%rsp), %ecx
	jmp	.L2063
	.p2align 4,,10
	.p2align 3
.L2025:
	cmpl	$-1, 24(%rsp)
	jne	.L2026
	testl	%eax, %eax
	jne	.L1979
	movl	%r15d, 120(%r14)
.L2283:
	movq	_ZTVSt15basic_streambufIcSt11char_traitsIcEE@GOTPCREL(%rip), %rax
	movq	_ZTVNSt7__cxx1119basic_ostringstreamIcSt11char_traitsIcESaIcEEE@GOTPCREL(%rip), %r15
	movq	%rax, 24(%rsp)
	leaq	24(%r15), %rdx
	addq	$16, %rax
	movq	%rdx, %xmm1
	movq	%rax, %xmm3
	punpcklqdq	%xmm3, %xmm1
	movaps	%xmm1, 32(%rsp)
	jmp	.L2044
	.p2align 4,,10
	.p2align 3
.L2317:
	movq	%r12, %rdi
	call	__cxa_guard_acquire@PLT
	testl	%eax, %eax
	je	.L2023
	movq	_ZN4asio6detail15system_categoryD1Ev@GOTPCREL(%rip), %rdi
	leaq	__dso_handle(%rip), %rdx
	movq	%r13, %rsi
	call	__cxa_atexit@PLT
	movq	%r12, %rdi
	call	__cxa_guard_release@PLT
	jmp	.L2023
	.p2align 4,,10
	.p2align 3
.L2320:
	movq	%r12, %rdi
	movl	%ecx, 48(%rsp)
	call	__cxa_guard_acquire@PLT
	movl	48(%rsp), %ecx
	testl	%eax, %eax
	je	.L2070
	movq	_ZN4asio6detail15system_categoryD1Ev@GOTPCREL(%rip), %rdi
	leaq	__dso_handle(%rip), %rdx
	movq	%r13, %rsi
	call	__cxa_atexit@PLT
	movq	%r12, %rdi
	call	__cxa_guard_release@PLT
	movl	48(%rsp), %ecx
	jmp	.L2070
	.p2align 4,,10
	.p2align 3
.L2315:
	movq	%r12, %rdi
	call	__cxa_guard_acquire@PLT
	testl	%eax, %eax
	je	.L2000
	movq	_ZN4asio6detail15system_categoryD1Ev@GOTPCREL(%rip), %rdi
	leaq	__dso_handle(%rip), %rdx
	movq	%r13, %rsi
	call	__cxa_atexit@PLT
	movq	%r12, %rdi
	call	__cxa_guard_release@PLT
	jmp	.L2000
	.p2align 4,,10
	.p2align 3
.L2318:
	movl	0(%rbp), %ecx
	testl	%ecx, %ecx
	je	.L2038
	movzbl	(%r12), %eax
	testb	%al, %al
	je	.L2328
.L2040:
	movl	%ecx, (%rbx)
	movl	24(%rsp), %edi
	movq	%r13, 8(%rbx)
	movl	$0, 0(%rbp)
	call	close@PLT
	movl	%eax, %r15d
	movzbl	(%r12), %eax
	testb	%al, %al
	je	.L2329
.L2043:
	testl	%r15d, %r15d
	jne	.L2046
.L2055:
	movl	(%rbx), %eax
	testl	%eax, %eax
	je	.L2283
	jmp	.L1979
	.p2align 4,,10
	.p2align 3
.L2321:
	movq	%r12, %rdi
	movl	%ecx, 48(%rsp)
	call	__cxa_guard_acquire@PLT
	movl	48(%rsp), %ecx
	testl	%eax, %eax
	je	.L2076
	movq	_ZN4asio6detail15system_categoryD1Ev@GOTPCREL(%rip), %rdi
	leaq	__dso_handle(%rip), %rdx
	movq	%r13, %rsi
	call	__cxa_atexit@PLT
	movq	%r12, %rdi
	call	__cxa_guard_release@PLT
	movl	48(%rsp), %ecx
	jmp	.L2076
	.p2align 4,,10
	.p2align 3
.L2046:
	movl	0(%rbp), %r15d
	movzbl	(%r12), %eax
	testb	%al, %al
	je	.L2330
.L2049:
	cmpl	$11, %r15d
	je	.L2051
.L2300:
	movzbl	(%r12), %eax
	testb	%al, %al
	jne	.L2055
	movq	%r12, %rdi
	call	__cxa_guard_acquire@PLT
	testl	%eax, %eax
	je	.L2055
	movq	_ZN4asio6detail15system_categoryD1Ev@GOTPCREL(%rip), %rdi
	leaq	__dso_handle(%rip), %rdx
	movq	%r13, %rsi
	call	__cxa_atexit@PLT
	movq	%r12, %rdi
	call	__cxa_guard_release@PLT
	jmp	.L2055
	.p2align 4,,10
	.p2align 3
.L2329:
	movq	%r12, %rdi
	call	__cxa_guard_acquire@PLT
	testl	%eax, %eax
	je	.L2043
	movq	_ZN4asio6detail15system_categoryD1Ev@GOTPCREL(%rip), %rdi
	leaq	__dso_handle(%rip), %rdx
	movq	%r13, %rsi
	call	__cxa_atexit@PLT
	movq	%r12, %rdi
	call	__cxa_guard_release@PLT
	jmp	.L2043
.L2322:
	movl	76(%r14), %edx
	movl	$0, 0(%rbp)
	pxor	%xmm0, %xmm0
	movl	$16, %ecx
	leaq	212(%rsp), %rsi
	movl	$2, %edi
	movq	%rax, 136(%rsp)
	movl	%edx, 212(%rsp)
	movq	16(%rsp), %rdx
	movl	$0, 208(%rsp)
	movq	$0, 232(%rsp)
	movups	%xmm0, 216(%rsp)
	call	inet_ntop@PLT
	movq	%rax, %rcx
	movzbl	(%r12), %eax
	testb	%al, %al
	je	.L2331
.L2085:
	movq	%r13, 136(%rsp)
	movl	0(%rbp), %ebp
	testq	%rcx, %rcx
	je	.L2306
	leaq	176(%rsp), %rax
	movq	%rcx, %rdi
	movq	%rcx, 104(%rsp)
	leaq	192(%rsp), %r13
	movq	%rax, 96(%rsp)
	movq	%r13, 176(%rsp)
	call	strlen@PLT
	movq	104(%rsp), %rcx
	cmpq	$15, %rax
	movq	%rax, 120(%rsp)
	movq	%rax, %r12
	ja	.L2332
	cmpq	$1, %rax
	je	.L2333
	testq	%rax, %rax
	jne	.L2334
.L2118:
	movq	%r13, %rdx
.L2117:
	movq	%rax, 184(%rsp)
	movb	$0, (%rdx,%rax)
	jmp	.L2105
	.p2align 4,,10
	.p2align 3
.L2316:
	movq	%r12, %rdi
	call	__cxa_guard_acquire@PLT
	testl	%eax, %eax
	je	.L2013
	movq	_ZN4asio6detail15system_categoryD1Ev@GOTPCREL(%rip), %rdi
	leaq	__dso_handle(%rip), %rdx
	movq	%r13, %rsi
	call	__cxa_atexit@PLT
	movq	%r12, %rdi
	call	__cxa_guard_release@PLT
	jmp	.L2013
	.p2align 4,,10
	.p2align 3
.L2028:
	movl	$152, %edi
	movq	%rcx, 56(%rsp)
.LEHB63:
	call	_Znwm@PLT
.LEHE63:
	movq	%rax, %rcx
	movq	$0, (%rax)
	xorl	%esi, %esi
	movq	%rax, 32(%rsp)
	movq	_ZN4asio6detail13epoll_reactor16descriptor_state11do_completeEPNS0_15task_io_serviceEPNS0_25task_io_service_operationERKSt10error_codem@GOTPCREL(%rip), %rax
	movl	$0, 16(%rcx)
	movq	%rax, 8(%rcx)
	leaq	40(%rcx), %rax
	movq	%rax, %rdi
	movq	%rax, 16(%rsp)
	call	pthread_mutex_init@PLT
	movl	%eax, %r8d
	movzbl	(%r12), %eax
	testb	%al, %al
	movq	56(%rsp), %rcx
	je	.L2335
.L2031:
	movl	%r8d, 624(%rsp)
	movq	%r13, 632(%rsp)
	testl	%r8d, %r8d
	jne	.L2336
	movq	32(%rsp), %rax
	pxor	%xmm0, %xmm0
	movups	%xmm0, 96(%rax)
	movq	%rax, %rdi
	movups	%xmm0, 112(%rax)
	movups	%xmm0, 128(%rax)
	jmp	.L2029
.L2328:
	movq	%r12, %rdi
	movl	%ecx, 32(%rsp)
	call	__cxa_guard_acquire@PLT
	movl	32(%rsp), %ecx
	testl	%eax, %eax
	je	.L2040
	movq	_ZN4asio6detail15system_categoryD1Ev@GOTPCREL(%rip), %rdi
	leaq	__dso_handle(%rip), %rdx
	movq	%r13, %rsi
	call	__cxa_atexit@PLT
	movq	%r12, %rdi
	call	__cxa_guard_release@PLT
	movl	32(%rsp), %ecx
	jmp	.L2040
.L2119:
	leaq	736(%rsp), %rbp
	movq	%rbp, %rdi
	call	_ZNSt8ios_baseC2Ev@PLT
	pxor	%xmm0, %xmm0
	movq	16(%rsp), %rdi
	xorl	%esi, %esi
	movq	_ZTVSt9basic_iosIcSt11char_traitsIcEE@GOTPCREL(%rip), %rax
	movups	%xmm0, 968(%rsp)
	movups	%xmm0, 984(%rsp)
	movq	$0, 952(%rsp)
	addq	$16, %rax
	movq	%rax, 736(%rsp)
	xorl	%eax, %eax
	movw	%ax, 960(%rsp)
	movq	48(%rsp), %rax
	movq	%rax, 624(%rsp)
	addq	-24(%rax), %rdi
	movq	56(%rsp), %rax
	movq	%rax, (%rdi)
.LEHB64:
	call	_ZNSt9basic_iosIcSt11char_traitsIcEE4initEPSt15basic_streambufIcS1_E@PLT
.LEHE64:
	leaq	64(%r15), %rax
	movdqa	32(%rsp), %xmm6
	pxor	%xmm0, %xmm0
	leaq	720(%rsp), %r12
	movq	%rax, 736(%rsp)
	leaq	688(%rsp), %rax
	movq	%rax, %rdi
	movq	%rax, 104(%rsp)
	movaps	%xmm6, 624(%rsp)
	movaps	%xmm0, 640(%rsp)
	movaps	%xmm0, 656(%rsp)
	movaps	%xmm0, 672(%rsp)
	call	_ZNSt6localeC1Ev@PLT
	movq	_ZTVNSt7__cxx1115basic_stringbufIcSt11char_traitsIcESaIcEEE@GOTPCREL(%rip), %rax
	movq	%rbp, %rdi
	leaq	632(%rsp), %rsi
	movl	$16, 696(%rsp)
	addq	$16, %rax
	movq	%r12, 704(%rsp)
	movq	%rax, 632(%rsp)
	movq	$0, 712(%rsp)
	movb	$0, 720(%rsp)
.LEHB65:
	call	_ZNSt9basic_iosIcSt11char_traitsIcEE4initEPSt15basic_streambufIcS1_E@PLT
.LEHE65:
.LEHB66:
	call	_ZNSt6locale7classicEv@PLT
	leaq	208(%rsp), %rcx
	movq	%rax, %rdx
	movq	%rbp, %rsi
	movq	%rcx, %rdi
	movq	%rcx, 32(%rsp)
	call	_ZNSt9basic_iosIcSt11char_traitsIcEE5imbueERKSt6locale@PLT
	movq	32(%rsp), %rdi
	call	_ZNSt6localeD1Ev@PLT
	cmpw	$2, %bx
	jne	.L2126
	movq	184(%rsp), %rdx
	movq	176(%rsp), %rsi
	movq	16(%rsp), %rdi
	call	_ZSt16__ostream_insertIcSt11char_traitsIcEERSt13basic_ostreamIT_T0_ES6_PKS3_l@PLT
.L2127:
	movq	624(%rsp), %rax
	movb	$58, 120(%rsp)
	movq	-24(%rax), %rax
	cmpq	$0, 640(%rsp,%rax)
	je	.L2132
	movq	16(%rsp), %rdi
	leaq	120(%rsp), %rsi
	movl	$1, %edx
	call	_ZSt16__ostream_insertIcSt11char_traitsIcEERSt13basic_ostreamIT_T0_ES6_PKS3_l@PLT
	movq	%rax, %rdi
.L2133:
	movzwl	94(%rsp), %edx
	rolw	$8, %dx
	movzwl	%dx, %esi
	call	_ZNSo9_M_insertImEERSoT_@PLT
.LEHE66:
	movq	672(%rsp), %r8
	leaq	224(%rsp), %rbx
	movq	$0, 216(%rsp)
	movq	%rbx, 208(%rsp)
	movb	$0, 224(%rsp)
	testq	%r8, %r8
	je	.L2134
	movq	656(%rsp), %rax
	movq	%r8, %rdx
	movq	32(%rsp), %rdi
	movq	664(%rsp), %rcx
	cmpq	%r8, %rax
	cmovnb	%rax, %r8
	testq	%rax, %rax
	cmove	%rdx, %r8
	xorl	%edx, %edx
	xorl	%esi, %esi
	subq	%rcx, %r8
.LEHB67:
	call	_ZNSt7__cxx1112basic_stringIcSt11char_traitsIcESaIcEE10_M_replaceEmmPKcm@PLT
.LEHE67:
.L2136:
	leaq	24(%r15), %rax
	movq	704(%rsp), %rdi
	movq	%rax, 624(%rsp)
	leaq	64(%r15), %rax
	movq	%rax, 736(%rsp)
	cmpq	%r12, %rdi
	je	.L2137
	movq	720(%rsp), %rax
	leaq	1(%rax), %rsi
	call	_ZdlPvm@PLT
.L2137:
	movq	24(%rsp), %rax
	movq	104(%rsp), %rdi
	addq	$16, %rax
	movq	%rax, 632(%rsp)
	call	_ZNSt6localeD1Ev@PLT
	movq	48(%rsp), %rax
	movq	56(%rsp), %rcx
	movq	%rbp, %rdi
	movq	%rax, 624(%rsp)
	movq	-24(%rax), %rax
	movq	%rcx, 624(%rsp,%rax)
	movq	_ZTVSt9basic_iosIcSt11char_traitsIcEE@GOTPCREL(%rip), %rax
	addq	$16, %rax
	movq	%rax, 736(%rsp)
	call	_ZNSt8ios_baseD2Ev@PLT
	movq	176(%rsp), %rdi
	cmpq	%r13, %rdi
	je	.L2141
	movq	192(%rsp), %rax
	leaq	1(%rax), %rsi
	call	_ZdlPvm@PLT
.L2141:
	movq	208(%rsp), %rdi
	movq	216(%rsp), %rax
	movq	%rdi, %r13
	jmp	.L2146
	.p2align 4,,10
	.p2align 3
.L2337:
	movq	16(%rsp), %rsi
	movq	8(%rsp), %rdi
	movl	$1, %edx
.LEHB68:
	call	_ZSt16__ostream_insertIcSt11char_traitsIcEERSt13basic_ostreamIT_T0_ES6_PKS3_l@PLT
.L2152:
	movq	208(%rsp), %rdi
	movq	216(%rsp), %rax
	addq	$1, %r13
.L2146:
	addq	%rdi, %rax
	cmpq	%rax, %r13
	je	.L2145
	movq	240(%rsp), %rax
	movq	8(%rsp), %rcx
	movzbl	0(%r13), %ebp
	addq	-24(%rax), %rcx
	movq	240(%rcx), %r12
	movq	%rcx, %rax
	testq	%r12, %r12
	je	.L2278
	cmpb	$0, 56(%r12)
	je	.L2148
	movzbl	57(%r12,%rbp), %ebp
.L2149:
	movb	%bpl, 624(%rsp)
	cmpq	$0, 16(%rax)
	jne	.L2337
	movq	8(%rsp), %rdi
	movsbl	%bpl, %esi
	call	_ZNSo3putEc@PLT
	jmp	.L2152
	.p2align 4,,10
	.p2align 3
.L2148:
	movq	%r12, %rdi
	call	_ZNKSt5ctypeIcE13_M_widen_initEv@PLT
	movq	(%r12), %rax
	movq	48(%rax), %rax
	cmpq	_ZNKSt5ctypeIcE8do_widenEc@GOTPCREL(%rip), %rax
	jne	.L2150
.L2296:
	movq	240(%rsp), %rax
	movq	8(%rsp), %rcx
	addq	-24(%rax), %rcx
	movq	%rcx, %rax
	jmp	.L2149
	.p2align 4,,10
	.p2align 3
.L2150:
	movsbl	%bpl, %esi
	movq	%r12, %rdi
	call	*%rax
.LEHE68:
	movl	%eax, %ebp
	jmp	.L2296
.L2306:
	testl	%ebp, %ebp
	je	.L2338
	leaq	192(%rsp), %r13
	movb	$0, 192(%rsp)
	movq	%r13, 176(%rsp)
	jmp	.L2099
.L2330:
	movq	%r12, %rdi
	call	__cxa_guard_acquire@PLT
	testl	%eax, %eax
	je	.L2049
	movq	_ZN4asio6detail15system_categoryD1Ev@GOTPCREL(%rip), %rdi
	leaq	__dso_handle(%rip), %rdx
	movq	%r13, %rsi
	call	__cxa_atexit@PLT
	movq	%r12, %rdi
	call	__cxa_guard_release@PLT
	jmp	.L2049
.L2331:
	movq	%r12, %rdi
	movq	%rcx, 96(%rsp)
	call	__cxa_guard_acquire@PLT
	movq	96(%rsp), %rcx
	testl	%eax, %eax
	je	.L2085
	movq	_ZN4asio6detail15system_categoryD1Ev@GOTPCREL(%rip), %rdi
	leaq	__dso_handle(%rip), %rdx
	movq	%r13, %rsi
	call	__cxa_atexit@PLT
	movq	%r12, %rdi
	call	__cxa_guard_release@PLT
	movq	96(%rsp), %rcx
	jmp	.L2085
.L2335:
	movq	%r12, %rdi
	movl	%r8d, 64(%rsp)
	call	__cxa_guard_acquire@PLT
	movq	56(%rsp), %rcx
	movl	64(%rsp), %r8d
	testl	%eax, %eax
	je	.L2031
	movq	_ZN4asio6detail15system_categoryD1Ev@GOTPCREL(%rip), %rdi
	leaq	__dso_handle(%rip), %rdx
	movq	%r13, %rsi
	call	__cxa_atexit@PLT
	movq	%r12, %rdi
	call	__cxa_guard_release@PLT
	movl	64(%rsp), %r8d
	movq	56(%rsp), %rcx
	jmp	.L2031
.L2132:
	movq	16(%rsp), %rbx
	movl	$58, %esi
	movq	%rbx, %rdi
.LEHB69:
	call	_ZNSo3putEc@PLT
	movq	%rbx, %rdi
	jmp	.L2133
.L2126:
	movq	624(%rsp), %rax
	movb	$91, 118(%rsp)
	movq	-24(%rax), %rax
	cmpq	$0, 640(%rsp,%rax)
	je	.L2128
	movq	16(%rsp), %rdi
	leaq	118(%rsp), %rsi
	movl	$1, %edx
	call	_ZSt16__ostream_insertIcSt11char_traitsIcEERSt13basic_ostreamIT_T0_ES6_PKS3_l@PLT
	movq	%rax, %rdi
.L2129:
	movq	184(%rsp), %rdx
	movq	176(%rsp), %rsi
	call	_ZSt16__ostream_insertIcSt11char_traitsIcEERSt13basic_ostreamIT_T0_ES6_PKS3_l@PLT
	movq	(%rax), %rdx
	movb	$93, 119(%rsp)
	movq	-24(%rdx), %rdx
	cmpq	$0, 16(%rax,%rdx)
	je	.L2130
	leaq	119(%rsp), %rsi
	movl	$1, %edx
	movq	%rax, %rdi
	call	_ZSt16__ostream_insertIcSt11char_traitsIcEERSt13basic_ostreamIT_T0_ES6_PKS3_l@PLT
.LEHE69:
	jmp	.L2127
.L2051:
	movl	24(%rsp), %r15d
	movq	16(%rsp), %rdx
	movl	$21537, %esi
	xorl	%eax, %eax
	movl	$0, 624(%rsp)
	movl	%r15d, %edi
	call	ioctl@PLT
	movl	$0, 0(%rbp)
	movl	%r15d, %edi
	call	close@PLT
	jmp	.L2300
.L2333:
	movzbl	(%rcx), %edx
	movb	%dl, 192(%rsp)
	jmp	.L2118
.L2332:
	movq	96(%rsp), %rdi
	leaq	120(%rsp), %rsi
	xorl	%edx, %edx
	movq	%rcx, 104(%rsp)
.LEHB70:
	call	_ZNSt7__cxx1112basic_stringIcSt11char_traitsIcESaIcEE9_M_createERmm@PLT
.LEHE70:
	movq	%rax, 176(%rsp)
	movq	%rax, %rdi
	movq	120(%rsp), %rax
	movq	104(%rsp), %rcx
	movq	%rax, 192(%rsp)
.L2115:
	movq	%r12, %rdx
	movq	%rcx, %rsi
	call	memcpy@PLT
	movq	120(%rsp), %rax
	movq	176(%rsp), %rdx
	jmp	.L2117
.L2323:
	movq	%r12, %rdi
	movq	%rcx, 96(%rsp)
	call	__cxa_guard_acquire@PLT
	movq	96(%rsp), %rcx
	testl	%eax, %eax
	je	.L2087
	movq	_ZN4asio6detail15system_categoryD1Ev@GOTPCREL(%rip), %rdi
	leaq	__dso_handle(%rip), %rdx
	movq	%r13, %rsi
	call	__cxa_atexit@PLT
	movq	%r12, %rdi
	call	__cxa_guard_release@PLT
	movq	96(%rsp), %rcx
	jmp	.L2087
.L2338:
	movzbl	(%r12), %eax
	testb	%al, %al
	je	.L2339
.L2110:
	leaq	224(%rsp), %rbx
	movq	%r13, 136(%rsp)
	movl	$22, %ebp
	movq	%rbx, 208(%rsp)
	movq	$0, 216(%rsp)
	movb	$0, 224(%rsp)
	jmp	.L2112
.L2130:
	movl	$93, %esi
	movq	%rax, %rdi
.LEHB71:
	call	_ZNSo3putEc@PLT
	jmp	.L2127
.L2128:
	movq	16(%rsp), %rbx
	movl	$91, %esi
	movq	%rbx, %rdi
	call	_ZNSo3putEc@PLT
.LEHE71:
	movq	%rbx, %rdi
	jmp	.L2129
.L2297:
	call	_ZN4asio15system_categoryEv@PLT
	movl	$9, (%rbx)
	movq	%rax, 8(%rbx)
	jmp	.L1979
.L2158:
	leaq	320(%rsp), %rsi
.LEHB72:
	call	_ZNSt7__cxx1112basic_stringIcSt11char_traitsIcESaIcEE9_M_assignERKS4_@PLT
.LEHE72:
	jmp	.L2160
.L2325:
	movzbl	(%rcx), %edx
	movb	%dl, 192(%rsp)
	jmp	.L2104
.L2324:
	movq	96(%rsp), %rdi
	leaq	120(%rsp), %rsi
	xorl	%edx, %edx
.LEHB73:
	call	_ZNSt7__cxx1112basic_stringIcSt11char_traitsIcESaIcEE9_M_createERmm@PLT
.LEHE73:
	movq	%rax, 176(%rsp)
	movq	%rax, %rdi
	movq	120(%rsp), %rax
	movq	104(%rsp), %rcx
	movq	%rax, 192(%rsp)
.L2101:
	movq	%rbx, %rdx
	movq	%rcx, %rsi
	call	memcpy@PLT
	movq	120(%rsp), %rax
	movq	176(%rsp), %rdx
	jmp	.L2103
.L2134:
	movq	32(%rsp), %rdi
	leaq	704(%rsp), %rsi
.LEHB74:
	call	_ZNSt7__cxx1112basic_stringIcSt11char_traitsIcESaIcEE9_M_assignERKS4_@PLT
.LEHE74:
	jmp	.L2136
.L2096:
	movl	104(%rsp), %edi
	leaq	177(%rsp), %r12
	movq	%rcx, 96(%rsp)
	movq	%r12, %rsi
	call	if_indextoname@PLT
	movq	96(%rsp), %rcx
	testq	%rax, %rax
	jne	.L2097
	jmp	.L2098
.L2334:
	movq	%r13, %rdi
	jmp	.L2115
.L2339:
	movq	%r12, %rdi
	call	__cxa_guard_acquire@PLT
	testl	%eax, %eax
	je	.L2110
	movq	_ZN4asio6detail15system_categoryD1Ev@GOTPCREL(%rip), %rdi
	leaq	__dso_handle(%rip), %rdx
	movq	%r13, %rsi
	call	__cxa_atexit@PLT
