	.file	"ThreadPool.cpp"
	.text
	.section	.rodata._ZNK4asio6detail15system_category4nameEv.str1.1,"aMS",@progbits,1
.LC0:
	.string	"asio.system"
	.section	.text._ZNK4asio6detail15system_category4nameEv,"axG",@progbits,_ZNK4asio6detail15system_category4nameEv,comdat
	.align 2
	.p2align 4
	.weak	_ZNK4asio6detail15system_category4nameEv
	.type	_ZNK4asio6detail15system_category4nameEv, @function
_ZNK4asio6detail15system_category4nameEv:
.LFB2695:
	.cfi_startproc
	leaq	.LC0(%rip), %rax
	ret
	.cfi_endproc
.LFE2695:
	.size	_ZNK4asio6detail15system_category4nameEv, .-_ZNK4asio6detail15system_category4nameEv
	.section	.rodata._ZNK4asio5error6detail14netdb_category4nameEv.str1.1,"aMS",@progbits,1
.LC1:
	.string	"asio.netdb"
	.section	.text._ZNK4asio5error6detail14netdb_category4nameEv,"axG",@progbits,_ZNK4asio5error6detail14netdb_category4nameEv,comdat
	.align 2
	.p2align 4
	.weak	_ZNK4asio5error6detail14netdb_category4nameEv
	.type	_ZNK4asio5error6detail14netdb_category4nameEv, @function
_ZNK4asio5error6detail14netdb_category4nameEv:
.LFB2739:
	.cfi_startproc
	leaq	.LC1(%rip), %rax
	ret
	.cfi_endproc
.LFE2739:
	.size	_ZNK4asio5error6detail14netdb_category4nameEv, .-_ZNK4asio5error6detail14netdb_category4nameEv
	.section	.rodata._ZNK4asio5error6detail17addrinfo_category4nameEv.str1.1,"aMS",@progbits,1
.LC2:
	.string	"asio.addrinfo"
	.section	.text._ZNK4asio5error6detail17addrinfo_category4nameEv,"axG",@progbits,_ZNK4asio5error6detail17addrinfo_category4nameEv,comdat
	.align 2
	.p2align 4
	.weak	_ZNK4asio5error6detail17addrinfo_category4nameEv
	.type	_ZNK4asio5error6detail17addrinfo_category4nameEv, @function
_ZNK4asio5error6detail17addrinfo_category4nameEv:
.LFB2749:
	.cfi_startproc
	leaq	.LC2(%rip), %rax
	ret
	.cfi_endproc
.LFE2749:
	.size	_ZNK4asio5error6detail17addrinfo_category4nameEv, .-_ZNK4asio5error6detail17addrinfo_category4nameEv
	.section	.rodata._ZNK4asio5error6detail13misc_category4nameEv.str1.1,"aMS",@progbits,1
.LC3:
	.string	"asio.misc"
	.section	.text._ZNK4asio5error6detail13misc_category4nameEv,"axG",@progbits,_ZNK4asio5error6detail13misc_category4nameEv,comdat
	.align 2
	.p2align 4
	.weak	_ZNK4asio5error6detail13misc_category4nameEv
	.type	_ZNK4asio5error6detail13misc_category4nameEv, @function
_ZNK4asio5error6detail13misc_category4nameEv:
.LFB2759:
	.cfi_startproc
	leaq	.LC3(%rip), %rax
	ret
	.cfi_endproc
.LFE2759:
	.size	_ZNK4asio5error6detail13misc_category4nameEv, .-_ZNK4asio5error6detail13misc_category4nameEv
	.section	.text._ZN4asio10io_service7service12fork_serviceENS0_10fork_eventE,"axG",@progbits,_ZN4asio10io_service7service12fork_serviceENS0_10fork_eventE,comdat
	.align 2
	.p2align 4
	.weak	_ZN4asio10io_service7service12fork_serviceENS0_10fork_eventE
	.type	_ZN4asio10io_service7service12fork_serviceENS0_10fork_eventE, @function
_ZN4asio10io_service7service12fork_serviceENS0_10fork_eventE:
.LFB3534:
	.cfi_startproc
	ret
	.cfi_endproc
.LFE3534:
	.size	_ZN4asio10io_service7service12fork_serviceENS0_10fork_eventE, .-_ZN4asio10io_service7service12fork_serviceENS0_10fork_eventE
	.section	.text._ZNSt6thread24_M_thread_deps_never_runEv,"axG",@progbits,_ZNSt6thread24_M_thread_deps_never_runEv,comdat
	.p2align 4
	.weak	_ZNSt6thread24_M_thread_deps_never_runEv
	.type	_ZNSt6thread24_M_thread_deps_never_runEv, @function
_ZNSt6thread24_M_thread_deps_never_runEv:
.LFB6674:
	.cfi_startproc
	ret
	.cfi_endproc
.LFE6674:
	.size	_ZNSt6thread24_M_thread_deps_never_runEv, .-_ZNSt6thread24_M_thread_deps_never_runEv
	.section	.text._ZN4asio22waitable_timer_serviceINSt6chrono3_V212steady_clockENS_11wait_traitsIS3_EEE16shutdown_serviceEv,"axG",@progbits,_ZN4asio22waitable_timer_serviceINSt6chrono3_V212steady_clockENS_11wait_traitsIS3_EEE16shutdown_serviceEv,comdat
	.align 2
	.p2align 4
	.weak	_ZN4asio22waitable_timer_serviceINSt6chrono3_V212steady_clockENS_11wait_traitsIS3_EEE16shutdown_serviceEv
	.type	_ZN4asio22waitable_timer_serviceINSt6chrono3_V212steady_clockENS_11wait_traitsIS3_EEE16shutdown_serviceEv, @function
_ZN4asio22waitable_timer_serviceINSt6chrono3_V212steady_clockENS_11wait_traitsIS3_EEE16shutdown_serviceEv:
.LFB9635:
	.cfi_startproc
	ret
	.cfi_endproc
.LFE9635:
	.size	_ZN4asio22waitable_timer_serviceINSt6chrono3_V212steady_clockENS_11wait_traitsIS3_EEE16shutdown_serviceEv, .-_ZN4asio22waitable_timer_serviceINSt6chrono3_V212steady_clockENS_11wait_traitsIS3_EEE16shutdown_serviceEv
	.section	.text._ZNK4asio6detail11timer_queueINS0_18chrono_time_traitsINSt6chrono3_V212steady_clockENS_11wait_traitsIS5_EEEEE5emptyEv,"axG",@progbits,_ZNK4asio6detail11timer_queueINS0_18chrono_time_traitsINSt6chrono3_V212steady_clockENS_11wait_traitsIS5_EEEEE5emptyEv,comdat
	.align 2
	.p2align 4
	.weak	_ZNK4asio6detail11timer_queueINS0_18chrono_time_traitsINSt6chrono3_V212steady_clockENS_11wait_traitsIS5_EEEEE5emptyEv
	.type	_ZNK4asio6detail11timer_queueINS0_18chrono_time_traitsINSt6chrono3_V212steady_clockENS_11wait_traitsIS5_EEEEE5emptyEv, @function
_ZNK4asio6detail11timer_queueINS0_18chrono_time_traitsINSt6chrono3_V212steady_clockENS_11wait_traitsIS5_EEEEE5emptyEv:
.LFB9636:
	.cfi_startproc
	cmpq	$0, 16(%rdi)
	sete	%al
	ret
	.cfi_endproc
.LFE9636:
	.size	_ZNK4asio6detail11timer_queueINS0_18chrono_time_traitsINSt6chrono3_V212steady_clockENS_11wait_traitsIS5_EEEEE5emptyEv, .-_ZNK4asio6detail11timer_queueINS0_18chrono_time_traitsINSt6chrono3_V212steady_clockENS_11wait_traitsIS5_EEEEE5emptyEv
	.section	.text._ZN4asio6detail11timer_queueINS0_18chrono_time_traitsINSt6chrono3_V212steady_clockENS_11wait_traitsIS5_EEEEE14get_all_timersERNS0_8op_queueINS0_25task_io_service_operationEEE,"axG",@progbits,_ZN4asio6detail11timer_queueINS0_18chrono_time_traitsINSt6chrono3_V212steady_clockENS_11wait_traitsIS5_EEEEE14get_all_timersERNS0_8op_queueINS0_25task_io_service_operationEEE,comdat
	.align 2
	.p2align 4
	.weak	_ZN4asio6detail11timer_queueINS0_18chrono_time_traitsINSt6chrono3_V212steady_clockENS_11wait_traitsIS5_EEEEE14get_all_timersERNS0_8op_queueINS0_25task_io_service_operationEEE
	.type	_ZN4asio6detail11timer_queueINS0_18chrono_time_traitsINSt6chrono3_V212steady_clockENS_11wait_traitsIS5_EEEEE14get_all_timersERNS0_8op_queueINS0_25task_io_service_operationEEE, @function
_ZN4asio6detail11timer_queueINS0_18chrono_time_traitsINSt6chrono3_V212steady_clockENS_11wait_traitsIS5_EEEEE14get_all_timersERNS0_8op_queueINS0_25task_io_service_operationEEE:
.LFB9640:
	.cfi_startproc
	movq	%rdi, %r8
	movq	%rsi, %rdi
	movq	16(%r8), %rax
	testq	%rax, %rax
	je	.L11
	pxor	%xmm0, %xmm0
	jmp	.L15
	.p2align 4,,10
	.p2align 3
.L24:
	movq	%rcx, (%rsi)
.L14:
	movq	8(%rdx), %rcx
	movq	%rcx, 8(%rdi)
	movups	%xmm0, (%rdx)
.L12:
	movups	%xmm0, 24(%rdx)
	testq	%rax, %rax
	je	.L11
.L15:
	movq	%rax, %rdx
	movq	24(%rax), %rax
	movq	(%rdx), %rcx
	movq	%rax, 16(%r8)
	testq	%rcx, %rcx
	je	.L12
	movq	8(%rdi), %rsi
	testq	%rsi, %rsi
	jne	.L24
	movq	%rcx, (%rdi)
	jmp	.L14
	.p2align 4,,10
	.p2align 3
.L11:
	movq	24(%r8), %rax
	cmpq	32(%r8), %rax
	je	.L10
	movq	%rax, 32(%r8)
.L10:
	ret
	.cfi_endproc
.LFE9640:
	.size	_ZN4asio6detail11timer_queueINS0_18chrono_time_traitsINSt6chrono3_V212steady_clockENS_11wait_traitsIS5_EEEEE14get_all_timersERNS0_8op_queueINS0_25task_io_service_operationEEE, .-_ZN4asio6detail11timer_queueINS0_18chrono_time_traitsINSt6chrono3_V212steady_clockENS_11wait_traitsIS5_EEEEE14get_all_timersERNS0_8op_queueINS0_25task_io_service_operationEEE
	.section	.text._ZN4asio6detail11timer_queueINS0_18chrono_time_traitsINSt6chrono3_V212steady_clockENS_11wait_traitsIS5_EEEEED2Ev,"axG",@progbits,_ZN4asio6detail11timer_queueINS0_18chrono_time_traitsINSt6chrono3_V212steady_clockENS_11wait_traitsIS5_EEEEED5Ev,comdat
	.align 2
	.p2align 4
	.weak	_ZN4asio6detail11timer_queueINS0_18chrono_time_traitsINSt6chrono3_V212steady_clockENS_11wait_traitsIS5_EEEEED2Ev
	.type	_ZN4asio6detail11timer_queueINS0_18chrono_time_traitsINSt6chrono3_V212steady_clockENS_11wait_traitsIS5_EEEEED2Ev, @function
_ZN4asio6detail11timer_queueINS0_18chrono_time_traitsINSt6chrono3_V212steady_clockENS_11wait_traitsIS5_EEEEED2Ev:
.LFB9341:
	.cfi_startproc
	movq	%rdi, %rax
	movq	24(%rdi), %rdi
	testq	%rdi, %rdi
	je	.L25
	movq	40(%rax), %rsi
	subq	%rdi, %rsi
	jmp	_ZdlPvm@PLT
	.p2align 4,,10
	.p2align 3
.L25:
	ret
	.cfi_endproc
.LFE9341:
	.size	_ZN4asio6detail11timer_queueINS0_18chrono_time_traitsINSt6chrono3_V212steady_clockENS_11wait_traitsIS5_EEEEED2Ev, .-_ZN4asio6detail11timer_queueINS0_18chrono_time_traitsINSt6chrono3_V212steady_clockENS_11wait_traitsIS5_EEEEED2Ev
	.weak	_ZN4asio6detail11timer_queueINS0_18chrono_time_traitsINSt6chrono3_V212steady_clockENS_11wait_traitsIS5_EEEEED1Ev
	.set	_ZN4asio6detail11timer_queueINS0_18chrono_time_traitsINSt6chrono3_V212steady_clockENS_11wait_traitsIS5_EEEEED1Ev,_ZN4asio6detail11timer_queueINS0_18chrono_time_traitsINSt6chrono3_V212steady_clockENS_11wait_traitsIS5_EEEEED2Ev
	.section	.text._ZN4asio6detail11timer_queueINS0_18chrono_time_traitsINSt6chrono3_V212steady_clockENS_11wait_traitsIS5_EEEEED0Ev,"axG",@progbits,_ZN4asio6detail11timer_queueINS0_18chrono_time_traitsINSt6chrono3_V212steady_clockENS_11wait_traitsIS5_EEEEED5Ev,comdat
	.align 2
	.p2align 4
	.weak	_ZN4asio6detail11timer_queueINS0_18chrono_time_traitsINSt6chrono3_V212steady_clockENS_11wait_traitsIS5_EEEEED0Ev
	.type	_ZN4asio6detail11timer_queueINS0_18chrono_time_traitsINSt6chrono3_V212steady_clockENS_11wait_traitsIS5_EEEEED0Ev, @function
_ZN4asio6detail11timer_queueINS0_18chrono_time_traitsINSt6chrono3_V212steady_clockENS_11wait_traitsIS5_EEEEED0Ev:
.LFB9343:
	.cfi_startproc
	movq	%rdi, %rax
	movq	24(%rdi), %rdi
	testq	%rdi, %rdi
	je	.L33
	subq	$24, %rsp
	.cfi_def_cfa_offset 32
	movq	40(%rax), %rsi
	movq	%rax, 8(%rsp)
	subq	%rdi, %rsi
	call	_ZdlPvm@PLT
	movq	8(%rsp), %rax
	movl	$48, %esi
	addq	$24, %rsp
	.cfi_def_cfa_offset 8
	movq	%rax, %rdi
	jmp	_ZdlPvm@PLT
	.p2align 4,,10
	.p2align 3
.L33:
	movl	$48, %esi
	movq	%rax, %rdi
	jmp	_ZdlPvm@PLT
	.cfi_endproc
.LFE9343:
	.size	_ZN4asio6detail11timer_queueINS0_18chrono_time_traitsINSt6chrono3_V212steady_clockENS_11wait_traitsIS5_EEEEED0Ev, .-_ZN4asio6detail11timer_queueINS0_18chrono_time_traitsINSt6chrono3_V212steady_clockENS_11wait_traitsIS5_EEEEED0Ev
	.section	.text._ZN4asio22waitable_timer_serviceINSt6chrono3_V212steady_clockENS_11wait_traitsIS3_EEED0Ev,"axG",@progbits,_ZN4asio22waitable_timer_serviceINSt6chrono3_V212steady_clockENS_11wait_traitsIS3_EEED5Ev,comdat
	.align 2
	.p2align 4
	.weak	_ZN4asio22waitable_timer_serviceINSt6chrono3_V212steady_clockENS_11wait_traitsIS3_EEED0Ev
	.type	_ZN4asio22waitable_timer_serviceINSt6chrono3_V212steady_clockENS_11wait_traitsIS3_EEED0Ev, @function
_ZN4asio22waitable_timer_serviceINSt6chrono3_V212steady_clockENS_11wait_traitsIS3_EEED0Ev:
.LFB9566:
	.cfi_startproc
	movq	_ZTVN4asio22waitable_timer_serviceINSt6chrono3_V212steady_clockENS_11wait_traitsIS3_EEEE@GOTPCREL(%rip), %rax
	pushq	%r12
	.cfi_def_cfa_offset 16
	.cfi_offset 12, -16
	pushq	%rbp
	.cfi_def_cfa_offset 24
	.cfi_offset 6, -24
	addq	$16, %rax
	pushq	%rbx
	.cfi_def_cfa_offset 32
	.cfi_offset 3, -32
	movq	88(%rdi), %rbp
	movq	%rdi, %rbx
	movq	%rax, (%rdi)
	leaq	48(%rbp), %rdi
	call	pthread_mutex_lock@PLT
	movq	104(%rbp), %rax
	testq	%rax, %rax
	je	.L37
	leaq	40(%rbx), %rdx
	cmpq	%rax, %rdx
	jne	.L38
	jmp	.L50
	.p2align 5
	.p2align 4,,10
	.p2align 3
.L39:
	cmpq	%rax, %rdx
	je	.L51
.L38:
	movq	%rax, %rcx
	movq	8(%rax), %rax
	testq	%rax, %rax
	jne	.L39
.L37:
	leaq	48(%rbp), %rdi
	call	pthread_mutex_unlock@PLT
	movq	64(%rbx), %rdi
	testq	%rdi, %rdi
	je	.L40
	movq	80(%rbx), %rsi
	subq	%rdi, %rsi
	call	_ZdlPvm@PLT
.L40:
	movq	%rbx, %rdi
	movl	$96, %esi
	popq	%rbx
	.cfi_remember_state
	.cfi_def_cfa_offset 24
	popq	%rbp
	.cfi_def_cfa_offset 16
	popq	%r12
	.cfi_def_cfa_offset 8
	jmp	_ZdlPvm@PLT
	.p2align 4,,10
	.p2align 3
.L51:
	.cfi_restore_state
	movq	48(%rbx), %rax
	movq	%rax, 8(%rcx)
	movq	$0, 48(%rbx)
	jmp	.L37
	.p2align 4,,10
	.p2align 3
.L50:
	movq	48(%rbx), %rax
	movq	%rax, 104(%rbp)
	movq	$0, 48(%rbx)
	jmp	.L37
	.cfi_endproc
.LFE9566:
	.size	_ZN4asio22waitable_timer_serviceINSt6chrono3_V212steady_clockENS_11wait_traitsIS3_EEED0Ev, .-_ZN4asio22waitable_timer_serviceINSt6chrono3_V212steady_clockENS_11wait_traitsIS3_EEED0Ev
	.section	.text._ZN4asio6detail15system_categoryD2Ev,"axG",@progbits,_ZN4asio6detail15system_categoryD5Ev,comdat
	.align 2
	.p2align 4
	.weak	_ZN4asio6detail15system_categoryD2Ev
	.type	_ZN4asio6detail15system_categoryD2Ev, @function
_ZN4asio6detail15system_categoryD2Ev:
.LFB2707:
	.cfi_startproc
	movq	_ZTVN4asio6detail15system_categoryE@GOTPCREL(%rip), %rax
	addq	$16, %rax
	movq	%rax, (%rdi)
	jmp	_ZNSt3_V214error_categoryD2Ev@PLT
	.cfi_endproc
.LFE2707:
	.size	_ZN4asio6detail15system_categoryD2Ev, .-_ZN4asio6detail15system_categoryD2Ev
	.weak	_ZN4asio6detail15system_categoryD1Ev
	.set	_ZN4asio6detail15system_categoryD1Ev,_ZN4asio6detail15system_categoryD2Ev
	.section	.text._ZN4asio6detail15system_categoryD0Ev,"axG",@progbits,_ZN4asio6detail15system_categoryD5Ev,comdat
	.align 2
	.p2align 4
	.weak	_ZN4asio6detail15system_categoryD0Ev
	.type	_ZN4asio6detail15system_categoryD0Ev, @function
_ZN4asio6detail15system_categoryD0Ev:
.LFB2709:
	.cfi_startproc
	subq	$24, %rsp
	.cfi_def_cfa_offset 32
	movq	_ZTVN4asio6detail15system_categoryE@GOTPCREL(%rip), %rax
	movq	%rdi, 8(%rsp)
	addq	$16, %rax
	movq	%rax, (%rdi)
	call	_ZNSt3_V214error_categoryD2Ev@PLT
	movq	8(%rsp), %rdi
	movl	$8, %esi
	addq	$24, %rsp
	.cfi_def_cfa_offset 8
	jmp	_ZdlPvm@PLT
	.cfi_endproc
.LFE2709:
	.size	_ZN4asio6detail15system_categoryD0Ev, .-_ZN4asio6detail15system_categoryD0Ev
	.section	.text._ZN4asio5error6detail14netdb_categoryD2Ev,"axG",@progbits,_ZN4asio5error6detail14netdb_categoryD5Ev,comdat
	.align 2
	.p2align 4
	.weak	_ZN4asio5error6detail14netdb_categoryD2Ev
	.type	_ZN4asio5error6detail14netdb_categoryD2Ev, @function
_ZN4asio5error6detail14netdb_categoryD2Ev:
.LFB2746:
	.cfi_startproc
	movq	_ZTVN4asio5error6detail14netdb_categoryE@GOTPCREL(%rip), %rax
	addq	$16, %rax
	movq	%rax, (%rdi)
	jmp	_ZNSt3_V214error_categoryD2Ev@PLT
	.cfi_endproc
.LFE2746:
	.size	_ZN4asio5error6detail14netdb_categoryD2Ev, .-_ZN4asio5error6detail14netdb_categoryD2Ev
	.weak	_ZN4asio5error6detail14netdb_categoryD1Ev
	.set	_ZN4asio5error6detail14netdb_categoryD1Ev,_ZN4asio5error6detail14netdb_categoryD2Ev
	.section	.text._ZN4asio5error6detail14netdb_categoryD0Ev,"axG",@progbits,_ZN4asio5error6detail14netdb_categoryD5Ev,comdat
	.align 2
	.p2align 4
	.weak	_ZN4asio5error6detail14netdb_categoryD0Ev
	.type	_ZN4asio5error6detail14netdb_categoryD0Ev, @function
_ZN4asio5error6detail14netdb_categoryD0Ev:
.LFB2748:
	.cfi_startproc
	subq	$24, %rsp
	.cfi_def_cfa_offset 32
	movq	_ZTVN4asio5error6detail14netdb_categoryE@GOTPCREL(%rip), %rax
	movq	%rdi, 8(%rsp)
	addq	$16, %rax
	movq	%rax, (%rdi)
	call	_ZNSt3_V214error_categoryD2Ev@PLT
	movq	8(%rsp), %rdi
	movl	$8, %esi
	addq	$24, %rsp
	.cfi_def_cfa_offset 8
	jmp	_ZdlPvm@PLT
	.cfi_endproc
.LFE2748:
	.size	_ZN4asio5error6detail14netdb_categoryD0Ev, .-_ZN4asio5error6detail14netdb_categoryD0Ev
	.section	.text._ZN4asio5error6detail17addrinfo_categoryD2Ev,"axG",@progbits,_ZN4asio5error6detail17addrinfo_categoryD5Ev,comdat
	.align 2
	.p2align 4
	.weak	_ZN4asio5error6detail17addrinfo_categoryD2Ev
	.type	_ZN4asio5error6detail17addrinfo_categoryD2Ev, @function
_ZN4asio5error6detail17addrinfo_categoryD2Ev:
.LFB2756:
	.cfi_startproc
	movq	_ZTVN4asio5error6detail17addrinfo_categoryE@GOTPCREL(%rip), %rax
	addq	$16, %rax
	movq	%rax, (%rdi)
	jmp	_ZNSt3_V214error_categoryD2Ev@PLT
	.cfi_endproc
.LFE2756:
	.size	_ZN4asio5error6detail17addrinfo_categoryD2Ev, .-_ZN4asio5error6detail17addrinfo_categoryD2Ev
	.weak	_ZN4asio5error6detail17addrinfo_categoryD1Ev
	.set	_ZN4asio5error6detail17addrinfo_categoryD1Ev,_ZN4asio5error6detail17addrinfo_categoryD2Ev
	.section	.text._ZN4asio5error6detail17addrinfo_categoryD0Ev,"axG",@progbits,_ZN4asio5error6detail17addrinfo_categoryD5Ev,comdat
	.align 2
	.p2align 4
	.weak	_ZN4asio5error6detail17addrinfo_categoryD0Ev
	.type	_ZN4asio5error6detail17addrinfo_categoryD0Ev, @function
_ZN4asio5error6detail17addrinfo_categoryD0Ev:
.LFB2758:
	.cfi_startproc
	subq	$24, %rsp
	.cfi_def_cfa_offset 32
	movq	_ZTVN4asio5error6detail17addrinfo_categoryE@GOTPCREL(%rip), %rax
	movq	%rdi, 8(%rsp)
	addq	$16, %rax
	movq	%rax, (%rdi)
	call	_ZNSt3_V214error_categoryD2Ev@PLT
	movq	8(%rsp), %rdi
	movl	$8, %esi
	addq	$24, %rsp
	.cfi_def_cfa_offset 8
	jmp	_ZdlPvm@PLT
	.cfi_endproc
.LFE2758:
	.size	_ZN4asio5error6detail17addrinfo_categoryD0Ev, .-_ZN4asio5error6detail17addrinfo_categoryD0Ev
	.section	.text._ZN4asio5error6detail13misc_categoryD2Ev,"axG",@progbits,_ZN4asio5error6detail13misc_categoryD5Ev,comdat
	.align 2
	.p2align 4
	.weak	_ZN4asio5error6detail13misc_categoryD2Ev
	.type	_ZN4asio5error6detail13misc_categoryD2Ev, @function
_ZN4asio5error6detail13misc_categoryD2Ev:
.LFB2766:
	.cfi_startproc
	movq	_ZTVN4asio5error6detail13misc_categoryE@GOTPCREL(%rip), %rax
	addq	$16, %rax
	movq	%rax, (%rdi)
	jmp	_ZNSt3_V214error_categoryD2Ev@PLT
	.cfi_endproc
.LFE2766:
	.size	_ZN4asio5error6detail13misc_categoryD2Ev, .-_ZN4asio5error6detail13misc_categoryD2Ev
	.weak	_ZN4asio5error6detail13misc_categoryD1Ev
	.set	_ZN4asio5error6detail13misc_categoryD1Ev,_ZN4asio5error6detail13misc_categoryD2Ev
	.section	.text._ZN4asio5error6detail13misc_categoryD0Ev,"axG",@progbits,_ZN4asio5error6detail13misc_categoryD5Ev,comdat
	.align 2
	.p2align 4
	.weak	_ZN4asio5error6detail13misc_categoryD0Ev
	.type	_ZN4asio5error6detail13misc_categoryD0Ev, @function
_ZN4asio5error6detail13misc_categoryD0Ev:
.LFB2768:
	.cfi_startproc
	subq	$24, %rsp
	.cfi_def_cfa_offset 32
	movq	_ZTVN4asio5error6detail13misc_categoryE@GOTPCREL(%rip), %rax
	movq	%rdi, 8(%rsp)
	addq	$16, %rax
	movq	%rax, (%rdi)
	call	_ZNSt3_V214error_categoryD2Ev@PLT
	movq	8(%rsp), %rdi
	movl	$8, %esi
	addq	$24, %rsp
	.cfi_def_cfa_offset 8
	jmp	_ZdlPvm@PLT
	.cfi_endproc
.LFE2768:
	.size	_ZN4asio5error6detail13misc_categoryD0Ev, .-_ZN4asio5error6detail13misc_categoryD0Ev
	.text
	.align 2
	.p2align 4
	.type	_ZNSt6thread11_State_implINS_8_InvokerISt5tupleIJZN7asiopal10ThreadPoolC4ERKN7openpal6LoggerERKSt10shared_ptrINS3_2IOEEjSt8functionIFvvEESG_EUlvE_EEEEED2Ev, @function
_ZNSt6thread11_State_implINS_8_InvokerISt5tupleIJZN7asiopal10ThreadPoolC4ERKN7openpal6LoggerERKSt10shared_ptrINS3_2IOEEjSt8functionIFvvEESG_EUlvE_EEEEED2Ev:
.LFB9544:
	.cfi_startproc
	leaq	16+_ZTVNSt6thread11_State_implINS_8_InvokerISt5tupleIJZN7asiopal10ThreadPoolC4ERKN7openpal6LoggerERKSt10shared_ptrINS3_2IOEEjSt8functionIFvvEESG_EUlvE_EEEEEE(%rip), %rax
	movq	%rax, (%rdi)
	jmp	_ZNSt6thread6_StateD2Ev@PLT
	.cfi_endproc
.LFE9544:
	.size	_ZNSt6thread11_State_implINS_8_InvokerISt5tupleIJZN7asiopal10ThreadPoolC4ERKN7openpal6LoggerERKSt10shared_ptrINS3_2IOEEjSt8functionIFvvEESG_EUlvE_EEEEED2Ev, .-_ZNSt6thread11_State_implINS_8_InvokerISt5tupleIJZN7asiopal10ThreadPoolC4ERKN7openpal6LoggerERKSt10shared_ptrINS3_2IOEEjSt8functionIFvvEESG_EUlvE_EEEEED2Ev
	.set	_ZNSt6thread11_State_implINS_8_InvokerISt5tupleIJZN7asiopal10ThreadPoolC4ERKN7openpal6LoggerERKSt10shared_ptrINS3_2IOEEjSt8functionIFvvEESG_EUlvE_EEEEED1Ev,_ZNSt6thread11_State_implINS_8_InvokerISt5tupleIJZN7asiopal10ThreadPoolC4ERKN7openpal6LoggerERKSt10shared_ptrINS3_2IOEEjSt8functionIFvvEESG_EUlvE_EEEEED2Ev
	.align 2
	.p2align 4
	.type	_ZNSt6thread11_State_implINS_8_InvokerISt5tupleIJZN7asiopal10ThreadPoolC4ERKN7openpal6LoggerERKSt10shared_ptrINS3_2IOEEjSt8functionIFvvEESG_EUlvE_EEEEED0Ev, @function
_ZNSt6thread11_State_implINS_8_InvokerISt5tupleIJZN7asiopal10ThreadPoolC4ERKN7openpal6LoggerERKSt10shared_ptrINS3_2IOEEjSt8functionIFvvEESG_EUlvE_EEEEED0Ev:
.LFB9546:
	.cfi_startproc
	leaq	16+_ZTVNSt6thread11_State_implINS_8_InvokerISt5tupleIJZN7asiopal10ThreadPoolC4ERKN7openpal6LoggerERKSt10shared_ptrINS3_2IOEEjSt8functionIFvvEESG_EUlvE_EEEEEE(%rip), %rax
	subq	$24, %rsp
	.cfi_def_cfa_offset 32
	movq	%rax, (%rdi)
	movq	%rdi, 8(%rsp)
	call	_ZNSt6thread6_StateD2Ev@PLT
	movq	8(%rsp), %rdi
	movl	$24, %esi
	addq	$24, %rsp
	.cfi_def_cfa_offset 8
	jmp	_ZdlPvm@PLT
	.cfi_endproc
.LFE9546:
	.size	_ZNSt6thread11_State_implINS_8_InvokerISt5tupleIJZN7asiopal10ThreadPoolC4ERKN7openpal6LoggerERKSt10shared_ptrINS3_2IOEEjSt8functionIFvvEESG_EUlvE_EEEEED0Ev, .-_ZNSt6thread11_State_implINS_8_InvokerISt5tupleIJZN7asiopal10ThreadPoolC4ERKN7openpal6LoggerERKSt10shared_ptrINS3_2IOEEjSt8functionIFvvEESG_EUlvE_EEEEED0Ev
	.section	.text._ZNK4asio6detail11timer_queueINS0_18chrono_time_traitsINSt6chrono3_V212steady_clockENS_11wait_traitsIS5_EEEEE18wait_duration_usecEl,"axG",@progbits,_ZNK4asio6detail11timer_queueINS0_18chrono_time_traitsINSt6chrono3_V212steady_clockENS_11wait_traitsIS5_EEEEE18wait_duration_usecEl,comdat
	.align 2
	.p2align 4
	.weak	_ZNK4asio6detail11timer_queueINS0_18chrono_time_traitsINSt6chrono3_V212steady_clockENS_11wait_traitsIS5_EEEEE18wait_duration_usecEl
	.type	_ZNK4asio6detail11timer_queueINS0_18chrono_time_traitsINSt6chrono3_V212steady_clockENS_11wait_traitsIS5_EEEEE18wait_duration_usecEl, @function
_ZNK4asio6detail11timer_queueINS0_18chrono_time_traitsINSt6chrono3_V212steady_clockENS_11wait_traitsIS5_EEEEE18wait_duration_usecEl:
.LFB9638:
	.cfi_startproc
	movq	32(%rdi), %rax
	cmpq	%rax, 24(%rdi)
	je	.L83
	pushq	%rbx
	.cfi_def_cfa_offset 16
	.cfi_offset 3, -16
	movq	%rsi, %rbx
	subq	$16, %rsp
	.cfi_def_cfa_offset 32
	movq	%rdi, 8(%rsp)
	call	_ZNSt6chrono3_V212steady_clock3nowEv@PLT
	movq	8(%rsp), %rdi
	movq	%rax, %rdx
	movq	24(%rdi), %rax
	movq	(%rax), %rax
	testq	%rax, %rax
	js	.L69
	testq	%rdx, %rdx
	js	.L70
.L86:
	subq	%rdx, %rax
	testq	%rax, %rax
	jle	.L79
.L73:
	shrq	$3, %rax
	movl	$1, %ecx
	movabsq	$2361183241434822607, %rdx
	mulq	%rdx
	shrq	$4, %rdx
	je	.L67
.L72:
	cmpq	%rdx, %rbx
	movq	%rdx, %rcx
	cmovle	%rbx, %rcx
.L67:
	addq	$16, %rsp
	.cfi_remember_state
	.cfi_def_cfa_offset 16
	movq	%rcx, %rax
	popq	%rbx
	.cfi_def_cfa_offset 8
	ret
	.p2align 4,,10
	.p2align 3
.L69:
	.cfi_restore_state
	xorl	%ecx, %ecx
	testq	%rdx, %rdx
	js	.L86
	addq	$16, %rsp
	.cfi_def_cfa_offset 16
	movq	%rcx, %rax
	popq	%rbx
	.cfi_def_cfa_offset 8
	ret
	.p2align 4,,10
	.p2align 3
.L83:
	.cfi_restore 3
	movq	%rsi, %rax
	ret
	.p2align 4,,10
	.p2align 3
.L70:
	.cfi_def_cfa_offset 32
	.cfi_offset 3, -16
	movabsq	$-9223372036854775808, %rcx
	cmpq	%rcx, %rdx
	je	.L77
	movq	%rdx, %rsi
	subq	$1, %rcx
	subq	%rax, %rcx
	negq	%rsi
	subq	%rdx, %rax
	cmpq	%rcx, %rsi
	jle	.L73
.L77:
	movabsq	$9223372036854775, %rdx
	jmp	.L72
	.p2align 4,,10
	.p2align 3
.L79:
	xorl	%ecx, %ecx
	jmp	.L67
	.cfi_endproc
.LFE9638:
	.size	_ZNK4asio6detail11timer_queueINS0_18chrono_time_traitsINSt6chrono3_V212steady_clockENS_11wait_traitsIS5_EEEEE18wait_duration_usecEl, .-_ZNK4asio6detail11timer_queueINS0_18chrono_time_traitsINSt6chrono3_V212steady_clockENS_11wait_traitsIS5_EEEEE18wait_duration_usecEl
	.section	.text._ZN4asio22waitable_timer_serviceINSt6chrono3_V212steady_clockENS_11wait_traitsIS3_EEED2Ev,"axG",@progbits,_ZN4asio22waitable_timer_serviceINSt6chrono3_V212steady_clockENS_11wait_traitsIS3_EEED5Ev,comdat
	.align 2
	.p2align 4
	.weak	_ZN4asio22waitable_timer_serviceINSt6chrono3_V212steady_clockENS_11wait_traitsIS3_EEED2Ev
	.type	_ZN4asio22waitable_timer_serviceINSt6chrono3_V212steady_clockENS_11wait_traitsIS3_EEED2Ev, @function
_ZN4asio22waitable_timer_serviceINSt6chrono3_V212steady_clockENS_11wait_traitsIS3_EEED2Ev:
.LFB9564:
	.cfi_startproc
	movq	_ZTVN4asio22waitable_timer_serviceINSt6chrono3_V212steady_clockENS_11wait_traitsIS3_EEEE@GOTPCREL(%rip), %rax
	pushq	%r12
	.cfi_def_cfa_offset 16
	.cfi_offset 12, -16
	pushq	%rbp
	.cfi_def_cfa_offset 24
	.cfi_offset 6, -24
	addq	$16, %rax
	pushq	%rbx
	.cfi_def_cfa_offset 32
	.cfi_offset 3, -32
	movq	88(%rdi), %rbp
	movq	%rdi, %rbx
	movq	%rax, (%rdi)
	leaq	48(%rbp), %rdi
	call	pthread_mutex_lock@PLT
	movq	104(%rbp), %rax
	testq	%rax, %rax
	je	.L89
	leaq	40(%rbx), %rdx
	cmpq	%rax, %rdx
	jne	.L90
	jmp	.L99
	.p2align 5
	.p2align 4,,10
	.p2align 3
.L91:
	cmpq	%rax, %rdx
	je	.L100
.L90:
	movq	%rax, %rcx
	movq	8(%rax), %rax
	testq	%rax, %rax
	jne	.L91
.L89:
	leaq	48(%rbp), %rdi
	call	pthread_mutex_unlock@PLT
	movq	64(%rbx), %rdi
	testq	%rdi, %rdi
	je	.L88
	movq	80(%rbx), %rsi
	popq	%rbx
	.cfi_remember_state
	.cfi_def_cfa_offset 24
	popq	%rbp
	.cfi_def_cfa_offset 16
	popq	%r12
	.cfi_def_cfa_offset 8
	subq	%rdi, %rsi
	jmp	_ZdlPvm@PLT
	.p2align 4,,10
	.p2align 3
.L88:
	.cfi_restore_state
	popq	%rbx
	.cfi_remember_state
	.cfi_def_cfa_offset 24
	popq	%rbp
	.cfi_def_cfa_offset 16
	popq	%r12
	.cfi_def_cfa_offset 8
	ret
	.p2align 4,,10
	.p2align 3
.L100:
	.cfi_restore_state
	movq	48(%rbx), %rax
	movq	%rax, 8(%rcx)
	movq	$0, 48(%rbx)
	jmp	.L89
	.p2align 4,,10
	.p2align 3
.L99:
	movq	48(%rbx), %rax
	movq	%rax, 104(%rbp)
	movq	$0, 48(%rbx)
	jmp	.L89
	.cfi_endproc
.LFE9564:
	.size	_ZN4asio22waitable_timer_serviceINSt6chrono3_V212steady_clockENS_11wait_traitsIS3_EEED2Ev, .-_ZN4asio22waitable_timer_serviceINSt6chrono3_V212steady_clockENS_11wait_traitsIS3_EEED2Ev
	.weak	_ZN4asio22waitable_timer_serviceINSt6chrono3_V212steady_clockENS_11wait_traitsIS3_EEED1Ev
	.set	_ZN4asio22waitable_timer_serviceINSt6chrono3_V212steady_clockENS_11wait_traitsIS3_EEED1Ev,_ZN4asio22waitable_timer_serviceINSt6chrono3_V212steady_clockENS_11wait_traitsIS3_EEED2Ev
	.text
	.p2align 4
	.type	_ZN4asio6detail12wait_handlerIZN7asiopal10ThreadPoolC4ERKN7openpal6LoggerERKSt10shared_ptrINS2_2IOEEjSt8functionIFvvEESF_EUlRKSt10error_codeE_E11do_completeEPNS0_15task_io_serviceEPNS0_25task_io_service_operationESI_m, @function
_ZN4asio6detail12wait_handlerIZN7asiopal10ThreadPoolC4ERKN7openpal6LoggerERKSt10shared_ptrINS2_2IOEEjSt8functionIFvvEESF_EUlRKSt10error_codeE_E11do_completeEPNS0_15task_io_serviceEPNS0_25task_io_service_operationESI_m:
.LFB9081:
	.cfi_startproc
	pushq	%rbp
	.cfi_def_cfa_offset 16
	.cfi_offset 6, -16
	movq	%rsi, %rbp
	pushq	%rbx
	.cfi_def_cfa_offset 24
	.cfi_offset 3, -24
	movq	%rdi, %rbx
	subq	$8, %rsp
	.cfi_def_cfa_offset 32
	data16	leaq	_ZN4asio6detail15keyword_tss_ptrINS0_10call_stackINS0_15task_io_serviceENS0_27task_io_service_thread_infoEE7contextEE6value_E@tlsgd(%rip), %rdi
	.value	0x6666
	rex64
	call	__tls_get_addr@PLT
	movq	(%rax), %rax
	testq	%rax, %rax
	je	.L102
	movq	8(%rax), %rax
	testq	%rax, %rax
	je	.L102
	cmpq	$0, (%rax)
	je	.L114
.L102:
	movq	%rbp, %rdi
	call	_ZdlPv@PLT
.L106:
	testq	%rbx, %rbx
	je	.L101
	sfence
.L101:
	addq	$8, %rsp
	.cfi_remember_state
	.cfi_def_cfa_offset 24
	popq	%rbx
	.cfi_def_cfa_offset 16
	popq	%rbp
	.cfi_def_cfa_offset 8
	ret
	.p2align 4,,10
	.p2align 3
.L114:
	.cfi_restore_state
	movzbl	48(%rbp), %edx
	movb	%dl, 0(%rbp)
	movq	%rbp, (%rax)
	jmp	.L106
	.cfi_endproc
.LFE9081:
	.size	_ZN4asio6detail12wait_handlerIZN7asiopal10ThreadPoolC4ERKN7openpal6LoggerERKSt10shared_ptrINS2_2IOEEjSt8functionIFvvEESF_EUlRKSt10error_codeE_E11do_completeEPNS0_15task_io_serviceEPNS0_25task_io_service_operationESI_m, .-_ZN4asio6detail12wait_handlerIZN7asiopal10ThreadPoolC4ERKN7openpal6LoggerERKSt10shared_ptrINS2_2IOEEjSt8functionIFvvEESF_EUlRKSt10error_codeE_E11do_completeEPNS0_15task_io_serviceEPNS0_25task_io_service_operationESI_m
	.section	.text._ZN4asio6detail13epoll_reactorD2Ev,"axG",@progbits,_ZN4asio6detail13epoll_reactorD5Ev,comdat
	.align 2
	.p2align 4
	.weak	_ZN4asio6detail13epoll_reactorD2Ev
	.type	_ZN4asio6detail13epoll_reactorD2Ev, @function
_ZN4asio6detail13epoll_reactorD2Ev:
.LFB3411:
	.cfi_startproc
	.cfi_personality 0x9b,DW.ref.__gxx_personality_v0
	.cfi_lsda 0x1b,.LLSDA3411
	pushq	%r15
	.cfi_def_cfa_offset 16
	.cfi_offset 15, -16
	pushq	%r14
	.cfi_def_cfa_offset 24
	.cfi_offset 14, -24
	pushq	%r13
	.cfi_def_cfa_offset 32
	.cfi_offset 13, -32
	pushq	%r12
	.cfi_def_cfa_offset 40
	.cfi_offset 12, -40
	pushq	%rbp
	.cfi_def_cfa_offset 48
	.cfi_offset 6, -48
	pushq	%rbx
	.cfi_def_cfa_offset 56
	.cfi_offset 3, -56
	subq	$40, %rsp
	.cfi_def_cfa_offset 96
	movq	_ZTVN4asio6detail13epoll_reactorE@GOTPCREL(%rip), %rax
	movq	%rdi, 8(%rsp)
	addq	$16, %rax
	movq	%rax, (%rdi)
	movl	96(%rdi), %edi
	cmpl	$-1, %edi
	je	.L116
	call	close@PLT
.L116:
	movq	8(%rsp), %rax
	movl	100(%rax), %edi
	cmpl	$-1, %edi
	je	.L117
	call	close@PLT
.L117:
	movq	8(%rsp), %rax
	leaq	16(%rsp), %rbp
	movq	160(%rax), %r13
	testq	%r13, %r13
	je	.L128
	.p2align 4
	.p2align 3
.L118:
	movq	%r13, %r12
	movq	24(%r13), %r13
	leaq	128(%r12), %r15
	leaq	80(%r12), %r14
.L123:
	movq	(%r15), %rsi
	testq	%rsi, %rsi
	je	.L126
	movq	%rsi, (%rsp)
	call	_ZNSt3_V215system_categoryEv@PLT
	movq	(%rsp), %rsi
	movq	%rax, %rbx
	jmp	.L127
	.p2align 4,,10
	.p2align 3
.L124:
	movq	$0, (%rsi)
	movq	8(%rsi), %rax
	xorl	%ecx, %ecx
	movq	%rbp, %rdx
	movl	$0, 16(%rsp)
	xorl	%edi, %edi
	movq	%rbx, 24(%rsp)
	call	*%rax
	movq	(%r15), %rsi
	testq	%rsi, %rsi
	je	.L126
.L127:
	movq	(%rsi), %rax
	movq	%rax, (%r15)
	testq	%rax, %rax
	jne	.L124
	movq	$0, 8(%r15)
	jmp	.L124
	.p2align 4,,10
	.p2align 3
.L126:
	subq	$16, %r15
	cmpq	%r14, %r15
	jne	.L123
	leaq	40(%r12), %rdi
	call	pthread_mutex_destroy@PLT
	movl	$152, %esi
	movq	%r12, %rdi
	call	_ZdlPvm@PLT
	testq	%r13, %r13
	jne	.L118
.L128:
	movq	8(%rsp), %rax
	leaq	16(%rsp), %rbp
	movq	168(%rax), %r13
	testq	%r13, %r13
	je	.L120
	.p2align 4
	.p2align 3
.L119:
	movq	%r13, %r12
	movq	24(%r13), %r13
	leaq	128(%r12), %r15
	leaq	80(%r12), %r14
.L133:
	movq	(%r15), %rsi
	testq	%rsi, %rsi
	je	.L136
	movq	%rsi, (%rsp)
	call	_ZNSt3_V215system_categoryEv@PLT
	movq	(%rsp), %rsi
	movq	%rax, %rbx
	jmp	.L137
	.p2align 4,,10
	.p2align 3
.L134:
	movq	$0, (%rsi)
	movq	8(%rsi), %rax
	xorl	%ecx, %ecx
	movq	%rbp, %rdx
	movl	$0, 16(%rsp)
	xorl	%edi, %edi
	movq	%rbx, 24(%rsp)
	call	*%rax
	movq	(%r15), %rsi
	testq	%rsi, %rsi
	je	.L136
.L137:
	movq	(%rsi), %rax
	movq	%rax, (%r15)
	testq	%rax, %rax
	jne	.L134
	movq	$0, 8(%r15)
	jmp	.L134
	.p2align 4,,10
	.p2align 3
.L136:
	subq	$16, %r15
	cmpq	%r14, %r15
	jne	.L133
	leaq	40(%r12), %rdi
	call	pthread_mutex_destroy@PLT
	movl	$152, %esi
	movq	%r12, %rdi
	call	_ZdlPvm@PLT
	testq	%r13, %r13
	jne	.L119
.L120:
	movq	8(%rsp), %rbx
	leaq	120(%rbx), %rdi
	call	pthread_mutex_destroy@PLT
	movl	92(%rbx), %eax
	cmpl	$-1, %eax
	je	.L130
	movq	8(%rsp), %rdx
	movl	88(%rdx), %edi
	cmpl	%edi, %eax
	jne	.L162
.L138:
	call	close@PLT
	jmp	.L139
.L162:
	movl	%eax, %edi
	call	close@PLT
.L130:
	movq	8(%rsp), %rax
	movl	88(%rax), %edi
	cmpl	$-1, %edi
	jne	.L138
.L139:
	movq	8(%rsp), %rdi
	addq	$40, %rsp
	.cfi_def_cfa_offset 56
	popq	%rbx
	.cfi_def_cfa_offset 48
	popq	%rbp
	.cfi_def_cfa_offset 40
	addq	$48, %rdi
	popq	%r12
	.cfi_def_cfa_offset 32
	popq	%r13
	.cfi_def_cfa_offset 24
	popq	%r14
	.cfi_def_cfa_offset 16
	popq	%r15
	.cfi_def_cfa_offset 8
.LEHB0:
	jmp	pthread_mutex_destroy@PLT
.LEHE0:
	.cfi_endproc
.LFE3411:
	.section	.gcc_except_table._ZN4asio6detail13epoll_reactorD2Ev,"aG",@progbits,_ZN4asio6detail13epoll_reactorD5Ev,comdat
.LLSDA3411:
	.byte	0xff
	.byte	0xff
	.byte	0x1
	.uleb128 .LLSDACSE3411-.LLSDACSB3411
.LLSDACSB3411:
	.uleb128 .LEHB0-.LFB3411
	.uleb128 .LEHE0-.LEHB0
	.uleb128 0
	.uleb128 0
.LLSDACSE3411:
	.section	.text._ZN4asio6detail13epoll_reactorD2Ev,"axG",@progbits,_ZN4asio6detail13epoll_reactorD5Ev,comdat
	.size	_ZN4asio6detail13epoll_reactorD2Ev, .-_ZN4asio6detail13epoll_reactorD2Ev
	.weak	_ZN4asio6detail13epoll_reactorD1Ev
	.set	_ZN4asio6detail13epoll_reactorD1Ev,_ZN4asio6detail13epoll_reactorD2Ev
	.section	.text._ZN4asio6detail13epoll_reactorD0Ev,"axG",@progbits,_ZN4asio6detail13epoll_reactorD5Ev,comdat
	.align 2
	.p2align 4
	.weak	_ZN4asio6detail13epoll_reactorD0Ev
	.type	_ZN4asio6detail13epoll_reactorD0Ev, @function
_ZN4asio6detail13epoll_reactorD0Ev:
.LFB3413:
	.cfi_startproc
	.cfi_personality 0x9b,DW.ref.__gxx_personality_v0
	.cfi_lsda 0x1b,.LLSDA3413
	pushq	%r15
	.cfi_def_cfa_offset 16
	.cfi_offset 15, -16
	pushq	%r14
	.cfi_def_cfa_offset 24
	.cfi_offset 14, -24
	pushq	%r13
	.cfi_def_cfa_offset 32
	.cfi_offset 13, -32
	pushq	%r12
	.cfi_def_cfa_offset 40
	.cfi_offset 12, -40
	pushq	%rbp
	.cfi_def_cfa_offset 48
	.cfi_offset 6, -48
	pushq	%rbx
	.cfi_def_cfa_offset 56
	.cfi_offset 3, -56
	subq	$40, %rsp
	.cfi_def_cfa_offset 96
	movq	_ZTVN4asio6detail13epoll_reactorE@GOTPCREL(%rip), %rax
	movq	%rdi, 8(%rsp)
	addq	$16, %rax
	movq	%rax, (%rdi)
	movl	96(%rdi), %edi
	cmpl	$-1, %edi
	je	.L164
	call	close@PLT
.L164:
	movq	8(%rsp), %rax
	movl	100(%rax), %edi
	cmpl	$-1, %edi
	je	.L165
	call	close@PLT
.L165:
	movq	8(%rsp), %rax
	leaq	16(%rsp), %rbp
	movq	160(%rax), %r13
	testq	%r13, %r13
	je	.L176
	.p2align 4
	.p2align 3
.L166:
	movq	%r13, %r12
	movq	24(%r13), %r13
	leaq	128(%r12), %r15
	leaq	80(%r12), %r14
.L171:
	movq	(%r15), %rsi
	testq	%rsi, %rsi
	je	.L174
	movq	%rsi, (%rsp)
	call	_ZNSt3_V215system_categoryEv@PLT
	movq	(%rsp), %rsi
	movq	%rax, %rbx
	jmp	.L175
	.p2align 4,,10
	.p2align 3
.L172:
	movq	$0, (%rsi)
	movq	8(%rsi), %rax
	xorl	%ecx, %ecx
	movq	%rbp, %rdx
	movl	$0, 16(%rsp)
	xorl	%edi, %edi
	movq	%rbx, 24(%rsp)
	call	*%rax
	movq	(%r15), %rsi
	testq	%rsi, %rsi
	je	.L174
.L175:
	movq	(%rsi), %rax
	movq	%rax, (%r15)
	testq	%rax, %rax
	jne	.L172
	movq	$0, 8(%r15)
	jmp	.L172
	.p2align 4,,10
	.p2align 3
.L174:
	subq	$16, %r15
	cmpq	%r14, %r15
	jne	.L171
	leaq	40(%r12), %rdi
	call	pthread_mutex_destroy@PLT
	movl	$152, %esi
	movq	%r12, %rdi
	call	_ZdlPvm@PLT
	testq	%r13, %r13
	jne	.L166
.L176:
	movq	8(%rsp), %rax
	leaq	16(%rsp), %rbp
	movq	168(%rax), %r13
	testq	%r13, %r13
	je	.L168
	.p2align 4
	.p2align 3
.L167:
	movq	%r13, %r12
	movq	24(%r13), %r13
	leaq	128(%r12), %r15
	leaq	80(%r12), %r14
.L181:
	movq	(%r15), %rsi
	testq	%rsi, %rsi
	je	.L184
	movq	%rsi, (%rsp)
	call	_ZNSt3_V215system_categoryEv@PLT
	movq	(%rsp), %rsi
	movq	%rax, %rbx
	jmp	.L185
	.p2align 4,,10
	.p2align 3
.L182:
	movq	$0, (%rsi)
	movq	8(%rsi), %rax
	xorl	%ecx, %ecx
	movq	%rbp, %rdx
	movl	$0, 16(%rsp)
	xorl	%edi, %edi
	movq	%rbx, 24(%rsp)
	call	*%rax
	movq	(%r15), %rsi
	testq	%rsi, %rsi
	je	.L184
.L185:
	movq	(%rsi), %rax
	movq	%rax, (%r15)
	testq	%rax, %rax
	jne	.L182
	movq	$0, 8(%r15)
	jmp	.L182
	.p2align 4,,10
	.p2align 3
.L184:
	subq	$16, %r15
	cmpq	%r14, %r15
	jne	.L181
	leaq	40(%r12), %rdi
	call	pthread_mutex_destroy@PLT
	movl	$152, %esi
	movq	%r12, %rdi
	call	_ZdlPvm@PLT
	testq	%r13, %r13
	jne	.L167
.L168:
	movq	8(%rsp), %rbx
	leaq	120(%rbx), %rdi
	call	pthread_mutex_destroy@PLT
	movl	92(%rbx), %eax
	cmpl	$-1, %eax
	je	.L178
	movq	8(%rsp), %rdx
	movl	88(%rdx), %edi
	cmpl	%edi, %eax
	jne	.L210
.L186:
	call	close@PLT
	jmp	.L187
.L210:
	movl	%eax, %edi
	call	close@PLT
.L178:
	movq	8(%rsp), %rax
	movl	88(%rax), %edi
	cmpl	$-1, %edi
	jne	.L186
.L187:
	movq	8(%rsp), %rbx
	leaq	48(%rbx), %rdi
	call	pthread_mutex_destroy@PLT
	addq	$40, %rsp
	.cfi_def_cfa_offset 56
	movq	%rbx, %rdi
	movl	$176, %esi
	popq	%rbx
	.cfi_def_cfa_offset 48
	popq	%rbp
	.cfi_def_cfa_offset 40
	popq	%r12
	.cfi_def_cfa_offset 32
	popq	%r13
	.cfi_def_cfa_offset 24
	popq	%r14
	.cfi_def_cfa_offset 16
	popq	%r15
	.cfi_def_cfa_offset 8
.LEHB1:
	jmp	_ZdlPvm@PLT
.LEHE1:
	.cfi_endproc
.LFE3413:
	.section	.gcc_except_table._ZN4asio6detail13epoll_reactorD0Ev,"aG",@progbits,_ZN4asio6detail13epoll_reactorD5Ev,comdat
.LLSDA3413:
	.byte	0xff
	.byte	0xff
	.byte	0x1
	.uleb128 .LLSDACSE3413-.LLSDACSB3413
.LLSDACSB3413:
	.uleb128 .LEHB1-.LFB3413
	.uleb128 .LEHE1-.LEHB1
	.uleb128 0
	.uleb128 0
.LLSDACSE3413:
	.section	.text._ZN4asio6detail13epoll_reactorD0Ev,"axG",@progbits,_ZN4asio6detail13epoll_reactorD5Ev,comdat
	.size	_ZN4asio6detail13epoll_reactorD0Ev, .-_ZN4asio6detail13epoll_reactorD0Ev
	.section	.text._ZN4asio6detail13epoll_reactor16shutdown_serviceEv,"axG",@progbits,_ZN4asio6detail13epoll_reactor16shutdown_serviceEv,comdat
	.align 2
	.p2align 4
	.weak	_ZN4asio6detail13epoll_reactor16shutdown_serviceEv
	.type	_ZN4asio6detail13epoll_reactor16shutdown_serviceEv, @function
_ZN4asio6detail13epoll_reactor16shutdown_serviceEv:
.LFB3414:
	.cfi_startproc
	.cfi_personality 0x9b,DW.ref.__gxx_personality_v0
	.cfi_lsda 0x1b,.LLSDA3414
	pushq	%r14
	.cfi_def_cfa_offset 16
	.cfi_offset 14, -16
	pushq	%r12
	.cfi_def_cfa_offset 24
	.cfi_offset 12, -24
	pushq	%rbp
	.cfi_def_cfa_offset 32
	.cfi_offset 6, -32
	leaq	48(%rdi), %rbp
	pushq	%rbx
	.cfi_def_cfa_offset 40
	.cfi_offset 3, -40
	movq	%rdi, %rbx
	movq	%rbp, %rdi
	subq	$40, %rsp
	.cfi_def_cfa_offset 80
	call	pthread_mutex_lock@PLT
	movb	$1, 112(%rbx)
	movq	%rbp, %rdi
	call	pthread_mutex_unlock@PLT
	movq	160(%rbx), %rax
	pxor	%xmm0, %xmm0
	movaps	%xmm0, (%rsp)
	testq	%rax, %rax
	jne	.L212
	jmp	.L230
	.p2align 4,,10
	.p2align 3
.L216:
	movq	%rdx, (%rcx)
.L218:
	movq	104(%rax), %rdx
	movups	%xmm0, 96(%rax)
	movq	%rdx, 8(%rsp)
.L215:
	movq	112(%rax), %rdx
	testq	%rdx, %rdx
	je	.L219
	movq	8(%rsp), %rcx
	testq	%rcx, %rcx
	je	.L283
	movq	%rdx, (%rcx)
.L222:
	movq	120(%rax), %rdx
	movups	%xmm0, 112(%rax)
	movq	%rdx, 8(%rsp)
.L219:
	movq	128(%rax), %rdx
	testq	%rdx, %rdx
	je	.L223
	movq	8(%rsp), %rcx
	testq	%rcx, %rcx
	je	.L284
	movq	%rdx, (%rcx)
.L226:
	movq	136(%rax), %rdx
	movups	%xmm0, 128(%rax)
	movq	%rdx, 8(%rsp)
.L223:
	movq	24(%rax), %rcx
	movb	$1, 144(%rax)
	movq	%rcx, 160(%rbx)
	movq	32(%rax), %rdx
	testq	%rdx, %rdx
	je	.L227
	movq	%rcx, 24(%rdx)
.L227:
	movq	24(%rax), %rdx
	testq	%rdx, %rdx
	je	.L228
	movq	32(%rax), %rcx
	movq	%rcx, 32(%rdx)
.L228:
	movq	168(%rbx), %rdx
	movq	$0, 32(%rax)
	movq	%rdx, 24(%rax)
	movq	%rax, 168(%rbx)
	movq	160(%rbx), %rax
	testq	%rax, %rax
	je	.L230
.L212:
	movq	96(%rax), %rdx
	testq	%rdx, %rdx
	je	.L215
	movq	8(%rsp), %rcx
	testq	%rcx, %rcx
	jne	.L216
	movq	%rdx, (%rsp)
	jmp	.L218
	.p2align 4,,10
	.p2align 3
.L283:
	movq	%rdx, (%rsp)
	jmp	.L222
	.p2align 4,,10
	.p2align 3
.L284:
	movq	%rdx, (%rsp)
	jmp	.L226
	.p2align 4,,10
	.p2align 3
.L230:
	movq	104(%rbx), %rbx
	testq	%rbx, %rbx
	je	.L214
	movq	_ZN4asio6detail11timer_queueINS0_18chrono_time_traitsINSt6chrono3_V212steady_clockENS_11wait_traitsIS5_EEEEE14get_all_timersERNS0_8op_queueINS0_25task_io_service_operationEEE@GOTPCREL(%rip), %r12
	movq	%rsp, %rbp
	pxor	%xmm0, %xmm0
	.p2align 4
	.p2align 3
.L213:
	movq	(%rbx), %rax
	movq	48(%rax), %rax
	cmpq	%r12, %rax
	jne	.L233
	movq	16(%rbx), %rax
	testq	%rax, %rax
	jne	.L234
	jmp	.L240
	.p2align 4,,10
	.p2align 3
.L285:
	movq	%rcx, (%rsi)
.L239:
	movq	8(%rdx), %rcx
	movq	%rcx, 8(%rsp)
	movups	%xmm0, (%rdx)
.L237:
	movups	%xmm0, 24(%rdx)
	testq	%rax, %rax
	je	.L240
.L234:
	movq	%rax, %rdx
	movq	24(%rax), %rax
	movq	(%rdx), %rcx
	movq	%rax, 16(%rbx)
	testq	%rcx, %rcx
	je	.L237
	movq	8(%rsp), %rsi
	testq	%rsi, %rsi
	jne	.L285
	movq	%rcx, (%rsp)
	jmp	.L239
	.p2align 4,,10
	.p2align 3
.L240:
	movq	24(%rbx), %rax
	cmpq	32(%rbx), %rax
	je	.L241
	movq	%rax, 32(%rbx)
.L241:
	movq	8(%rbx), %rbx
	testq	%rbx, %rbx
	jne	.L213
.L214:
	movq	(%rsp), %rbx
	testq	%rbx, %rbx
	je	.L211
	pxor	%xmm0, %xmm0
	leaq	16(%rsp), %rbp
	movaps	%xmm0, (%rsp)
	call	_ZNSt3_V215system_categoryEv@PLT
	movq	%rax, %r12
	.p2align 4
	.p2align 3
.L242:
	movq	%rbx, %rsi
	movq	(%rbx), %rbx
	xorl	%ecx, %ecx
	xorl	%edi, %edi
	movq	$0, (%rsi)
	movq	8(%rsi), %rax
	movq	%rbp, %rdx
	movl	$0, 16(%rsp)
	movq	%r12, 24(%rsp)
	call	*%rax
	testq	%rbx, %rbx
	jne	.L242
	movq	(%rsp), %rsi
	testq	%rsi, %rsi
	jne	.L243
	jmp	.L211
	.p2align 4,,10
	.p2align 3
.L244:
	movq	$0, (%rsi)
	movq	8(%rsi), %rax
	xorl	%ecx, %ecx
	movq	%rbp, %rdx
	movl	$0, 16(%rsp)
	xorl	%edi, %edi
	movq	%r12, 24(%rsp)
	call	*%rax
	movq	(%rsp), %rsi
	testq	%rsi, %rsi
	je	.L211
.L243:
	movq	(%rsi), %rax
	movq	%rax, (%rsp)
	testq	%rax, %rax
	jne	.L244
	movq	$0, 8(%rsp)
	jmp	.L244
	.p2align 4,,10
	.p2align 3
.L233:
	movq	%rbp, %rsi
	movq	%rbx, %rdi
.LEHB2:
	call	*%rax
.LEHE2:
	pxor	%xmm0, %xmm0
	jmp	.L241
	.p2align 4,,10
	.p2align 3
.L211:
	addq	$40, %rsp
	.cfi_remember_state
	.cfi_def_cfa_offset 40
	popq	%rbx
	.cfi_def_cfa_offset 32
	popq	%rbp
	.cfi_def_cfa_offset 24
	popq	%r12
	.cfi_def_cfa_offset 16
	popq	%r14
	.cfi_def_cfa_offset 8
	ret
.L249:
	.cfi_restore_state
	movq	%rax, %r14
	jmp	.L246
.L286:
	movq	(%rbx), %rax
	movq	%rax, (%rsp)
	testq	%rax, %rax
	jne	.L248
	xorl	%ecx, %ecx
	movq	%rcx, 8(%rsp)
.L248:
	xorl	%eax, %eax
	xorl	%edx, %edx
	movq	8(%rbx), %rbp
	movq	%rax, (%rbx)
	movl	%edx, 16(%rsp)
	call	_ZNSt3_V215system_categoryEv@PLT
	xorl	%ecx, %ecx
	leaq	16(%rsp), %rdx
	movq	%rbx, %rsi
	movq	%rax, 24(%rsp)
	xorl	%edi, %edi
	call	*%rbp
.L246:
	movq	(%rsp), %rbx
	testq	%rbx, %rbx
	jne	.L286
	movq	%r14, %rdi
.LEHB3:
	call	_Unwind_Resume@PLT
.LEHE3:
	.cfi_endproc
.LFE3414:
	.section	.gcc_except_table._ZN4asio6detail13epoll_reactor16shutdown_serviceEv,"aG",@progbits,_ZN4asio6detail13epoll_reactor16shutdown_serviceEv,comdat
.LLSDA3414:
	.byte	0xff
	.byte	0xff
	.byte	0x1
	.uleb128 .LLSDACSE3414-.LLSDACSB3414
.LLSDACSB3414:
	.uleb128 .LEHB2-.LFB3414
	.uleb128 .LEHE2-.LEHB2
	.uleb128 .L249-.LFB3414
	.uleb128 0
	.uleb128 .LEHB3-.LFB3414
	.uleb128 .LEHE3-.LEHB3
	.uleb128 0
	.uleb128 0
.LLSDACSE3414:
	.section	.text._ZN4asio6detail13epoll_reactor16shutdown_serviceEv,"axG",@progbits,_ZN4asio6detail13epoll_reactor16shutdown_serviceEv,comdat
	.size	_ZN4asio6detail13epoll_reactor16shutdown_serviceEv, .-_ZN4asio6detail13epoll_reactor16shutdown_serviceEv
	.section	.text._ZNK4asio6detail11timer_queueINS0_18chrono_time_traitsINSt6chrono3_V212steady_clockENS_11wait_traitsIS5_EEEEE18wait_duration_msecEl,"axG",@progbits,_ZNK4asio6detail11timer_queueINS0_18chrono_time_traitsINSt6chrono3_V212steady_clockENS_11wait_traitsIS5_EEEEE18wait_duration_msecEl,comdat
	.align 2
	.p2align 4
	.weak	_ZNK4asio6detail11timer_queueINS0_18chrono_time_traitsINSt6chrono3_V212steady_clockENS_11wait_traitsIS5_EEEEE18wait_duration_msecEl
	.type	_ZNK4asio6detail11timer_queueINS0_18chrono_time_traitsINSt6chrono3_V212steady_clockENS_11wait_traitsIS5_EEEEE18wait_duration_msecEl, @function
_ZNK4asio6detail11timer_queueINS0_18chrono_time_traitsINSt6chrono3_V212steady_clockENS_11wait_traitsIS5_EEEEE18wait_duration_msecEl:
.LFB9637:
	.cfi_startproc
	movq	32(%rdi), %rax
	cmpq	%rax, 24(%rdi)
	je	.L303
	pushq	%rbx
	.cfi_def_cfa_offset 16
	.cfi_offset 3, -16
	movq	%rsi, %rbx
	subq	$16, %rsp
	.cfi_def_cfa_offset 32
	movq	%rdi, 8(%rsp)
	call	_ZNSt6chrono3_V212steady_clock3nowEv@PLT
	movq	8(%rsp), %rdi
	movq	%rax, %rdx
	movq	24(%rdi), %rax
	movq	(%rax), %rax
	testq	%rax, %rax
	js	.L289
	testq	%rdx, %rdx
	js	.L290
.L306:
	subq	%rdx, %rax
	testq	%rax, %rax
	jle	.L299
.L293:
	movabsq	$4835703278458516699, %rdx
	movl	$1, %ecx
	mulq	%rdx
	shrq	$18, %rdx
	je	.L287
.L292:
	cmpq	%rdx, %rbx
	movq	%rdx, %rcx
	cmovle	%rbx, %rcx
.L287:
	addq	$16, %rsp
	.cfi_remember_state
	.cfi_def_cfa_offset 16
	movq	%rcx, %rax
	popq	%rbx
	.cfi_def_cfa_offset 8
	ret
	.p2align 4,,10
	.p2align 3
.L289:
	.cfi_restore_state
	xorl	%ecx, %ecx
	testq	%rdx, %rdx
	js	.L306
	addq	$16, %rsp
	.cfi_def_cfa_offset 16
	movq	%rcx, %rax
	popq	%rbx
	.cfi_def_cfa_offset 8
	ret
	.p2align 4,,10
	.p2align 3
.L303:
	.cfi_restore 3
	movq	%rsi, %rax
	ret
	.p2align 4,,10
	.p2align 3
.L290:
	.cfi_def_cfa_offset 32
	.cfi_offset 3, -16
	movabsq	$-9223372036854775808, %rcx
	cmpq	%rcx, %rdx
	je	.L297
	movq	%rdx, %rsi
	subq	$1, %rcx
	subq	%rax, %rcx
	negq	%rsi
	subq	%rdx, %rax
	cmpq	%rcx, %rsi
	jle	.L293
.L297:
	movabsq	$9223372036854, %rdx
	jmp	.L292
	.p2align 4,,10
	.p2align 3
.L299:
	xorl	%ecx, %ecx
	jmp	.L287
	.cfi_endproc
.LFE9637:
	.size	_ZNK4asio6detail11timer_queueINS0_18chrono_time_traitsINSt6chrono3_V212steady_clockENS_11wait_traitsIS5_EEEEE18wait_duration_msecEl, .-_ZNK4asio6detail11timer_queueINS0_18chrono_time_traitsINSt6chrono3_V212steady_clockENS_11wait_traitsIS5_EEEEE18wait_duration_msecEl
	.section	.text._ZN4asio6detail11timer_queueINS0_18chrono_time_traitsINSt6chrono3_V212steady_clockENS_11wait_traitsIS5_EEEEE16get_ready_timersERNS0_8op_queueINS0_25task_io_service_operationEEE,"axG",@progbits,_ZN4asio6detail11timer_queueINS0_18chrono_time_traitsINSt6chrono3_V212steady_clockENS_11wait_traitsIS5_EEEEE16get_ready_timersERNS0_8op_queueINS0_25task_io_service_operationEEE,comdat
	.align 2
	.p2align 4
	.weak	_ZN4asio6detail11timer_queueINS0_18chrono_time_traitsINSt6chrono3_V212steady_clockENS_11wait_traitsIS5_EEEEE16get_ready_timersERNS0_8op_queueINS0_25task_io_service_operationEEE
	.type	_ZN4asio6detail11timer_queueINS0_18chrono_time_traitsINSt6chrono3_V212steady_clockENS_11wait_traitsIS5_EEEEE16get_ready_timersERNS0_8op_queueINS0_25task_io_service_operationEEE, @function
_ZN4asio6detail11timer_queueINS0_18chrono_time_traitsINSt6chrono3_V212steady_clockENS_11wait_traitsIS5_EEEEE16get_ready_timersERNS0_8op_queueINS0_25task_io_service_operationEEE:
.LFB9639:
	.cfi_startproc
	movq	32(%rdi), %rax
	cmpq	%rax, 24(%rdi)
	je	.L341
	pushq	%r15
	.cfi_def_cfa_offset 16
	.cfi_offset 15, -16
	pushq	%r14
	.cfi_def_cfa_offset 24
	.cfi_offset 14, -24
	pushq	%r13
	.cfi_def_cfa_offset 32
	.cfi_offset 13, -32
	pushq	%r12
	.cfi_def_cfa_offset 40
	.cfi_offset 12, -40
	movq	%rsi, %r12
	pushq	%rbp
	.cfi_def_cfa_offset 48
	.cfi_offset 6, -48
	movq	%rdi, %rbp
	pushq	%rbx
	.cfi_def_cfa_offset 56
	.cfi_offset 3, -56
	subq	$8, %rsp
	.cfi_def_cfa_offset 64
	call	_ZNSt6chrono3_V212steady_clock3nowEv@PLT
	movq	32(%rbp), %r10
	movq	%rax, %r13
	movq	24(%rbp), %rax
	cmpq	%rax, %r10
	je	.L308
	pxor	%xmm1, %xmm1
	.p2align 4
	.p2align 3
.L310:
	cmpq	(%rax), %r13
	jl	.L308
	movq	8(%rax), %rcx
	movq	(%rcx), %rdx
	testq	%rdx, %rdx
	je	.L326
	movq	8(%r12), %rsi
	testq	%rsi, %rsi
	je	.L311
	movq	%rdx, (%rsi)
.L312:
	movq	8(%rcx), %rdx
	movq	%rdx, 8(%r12)
	movups	%xmm1, (%rcx)
.L326:
	movq	%r10, %rdi
	movq	16(%rcx), %rdx
	subq	%rax, %rdi
	movq	%rdi, %rsi
	sarq	$4, %rsi
	cmpq	%rsi, %rdx
	jnb	.L313
	subq	$1, %rsi
	subq	$16, %r10
	cmpq	%rsi, %rdx
	je	.L345
	movq	%rdx, %r8
	movdqu	-16(%rax,%rdi), %xmm0
	salq	$4, %r8
	addq	%rax, %r8
	movq	(%r8), %r9
	movq	8(%r8), %r11
	movups	%xmm0, (%r8)
	movq	%r9, -16(%rax,%rdi)
	movq	%r11, -8(%rax,%rdi)
	movq	8(%r8), %r9
	movq	%rdx, 16(%r9)
	movq	%rsi, 16(%r11)
	movq	%r10, 32(%rbp)
	testq	%rdx, %rdx
	je	.L316
	leaq	-1(%rdx), %rdi
	movq	(%r8), %r11
	movq	%rdi, %rsi
	shrq	%rsi
	salq	$4, %rsi
	cmpq	%r11, (%rax,%rsi)
	jg	.L317
.L316:
	movq	%r10, %r11
	leaq	1(%rdx,%rdx), %rsi
	subq	%rax, %r11
	sarq	$4, %r11
	cmpq	%r11, %rsi
	jnb	.L320
	movq	(%r8), %rbx
	jmp	.L319
	.p2align 4,,10
	.p2align 3
.L346:
	leaq	16(%rax,%r14), %r14
	movq	(%r14), %r15
	cmpq	%r9, %r15
	jg	.L327
	movq	%r15, %r9
	movq	%r14, %r8
	cmpq	%r9, %rbx
	jl	.L320
.L347:
	movq	%rdx, %rsi
	movdqu	(%r8), %xmm0
	salq	$4, %rsi
	addq	%rax, %rsi
	movq	8(%rsi), %r9
	movups	%xmm0, (%rsi)
	movq	%rbx, (%r8)
	movq	%r9, 8(%r8)
	movq	8(%rsi), %rsi
	movq	%rdx, 16(%rsi)
	leaq	1(%rdi,%rdi), %rsi
	movq	%rdi, 16(%r9)
	cmpq	%r11, %rsi
	jnb	.L320
	movq	%rdi, %rdx
.L319:
	movq	%rsi, %r14
	leaq	1(%rsi), %rdi
	salq	$4, %r14
	leaq	(%rax,%r14), %r8
	movq	(%r8), %r9
	cmpq	%r11, %rdi
	jne	.L346
.L327:
	movq	%rsi, %rdi
	cmpq	%r9, %rbx
	jge	.L347
	.p2align 4
	.p2align 3
.L320:
	movq	24(%rcx), %rdx
	cmpq	16(%rbp), %rcx
	je	.L348
.L321:
	movq	32(%rcx), %rsi
	testq	%rsi, %rsi
	je	.L322
	movq	%rdx, 24(%rsi)
	movq	24(%rcx), %rdx
.L322:
	testq	%rdx, %rdx
	je	.L323
	movq	%rsi, 32(%rdx)
	movups	%xmm1, 24(%rcx)
	cmpq	%r10, %rax
	jne	.L310
.L308:
	addq	$8, %rsp
	.cfi_remember_state
	.cfi_def_cfa_offset 56
	popq	%rbx
	.cfi_def_cfa_offset 48
	popq	%rbp
	.cfi_def_cfa_offset 40
	popq	%r12
	.cfi_def_cfa_offset 32
	popq	%r13
	.cfi_def_cfa_offset 24
	popq	%r14
	.cfi_def_cfa_offset 16
	popq	%r15
	.cfi_def_cfa_offset 8
	ret
	.p2align 4,,10
	.p2align 3
.L349:
	.cfi_restore_state
	leaq	-1(%rdx), %rdi
	movq	%rdi, %rsi
	shrq	%rsi
	salq	$4, %rsi
	cmpq	(%rax,%rsi), %r11
	jge	.L320
.L317:
	movq	%rdx, %r8
	movq	%rdi, %rdx
	shrq	%rdx
	movq	%r8, %rdi
	movq	%rdx, %rsi
	salq	$4, %rdi
	salq	$4, %rsi
	movdqu	(%rax,%rsi), %xmm0
	movups	%xmm0, (%rax,%rdi)
	movq	%r11, (%rax,%rsi)
	movq	%r9, 8(%rax,%rsi)
	movq	8(%rax,%rdi), %rsi
	movq	%r8, 16(%rsi)
	movq	%rdx, 16(%r9)
	testq	%rdx, %rdx
	jne	.L349
	movq	24(%rcx), %rdx
	cmpq	16(%rbp), %rcx
	jne	.L321
	.p2align 4
	.p2align 3
.L348:
	movq	%rdx, 16(%rbp)
	jmp	.L321
	.p2align 4,,10
	.p2align 3
.L313:
	movq	32(%rbp), %r10
	jmp	.L320
	.p2align 4,,10
	.p2align 3
.L323:
	movups	%xmm1, 24(%rcx)
	cmpq	%r10, %rax
	jne	.L310
	jmp	.L308
	.p2align 4,,10
	.p2align 3
.L311:
	movq	%rdx, (%r12)
	jmp	.L312
	.p2align 4,,10
	.p2align 3
.L345:
	movq	%r10, 32(%rbp)
	jmp	.L320
	.p2align 4,,10
	.p2align 3
.L341:
	.cfi_def_cfa_offset 8
	.cfi_restore 3
	.cfi_restore 6
	.cfi_restore 12
	.cfi_restore 13
	.cfi_restore 14
	.cfi_restore 15
	ret
	.cfi_endproc
.LFE9639:
	.size	_ZN4asio6detail11timer_queueINS0_18chrono_time_traitsINSt6chrono3_V212steady_clockENS_11wait_traitsIS5_EEEEE16get_ready_timersERNS0_8op_queueINS0_25task_io_service_operationEEE, .-_ZN4asio6detail11timer_queueINS0_18chrono_time_traitsINSt6chrono3_V212steady_clockENS_11wait_traitsIS5_EEEEE16get_ready_timersERNS0_8op_queueINS0_25task_io_service_operationEEE
	.section	.rodata._ZNK4asio6detail15system_category7messageB5cxx11Ei.str1.8,"aMS",@progbits,1
	.align 8
.LC4:
	.string	"basic_string: construction from null is not valid"
	.section	.text._ZNK4asio6detail15system_category7messageB5cxx11Ei,"axG",@progbits,_ZNK4asio6detail15system_category7messageB5cxx11Ei,comdat
	.align 2
	.p2align 4
	.weak	_ZNK4asio6detail15system_category7messageB5cxx11Ei
	.type	_ZNK4asio6detail15system_category7messageB5cxx11Ei, @function
_ZNK4asio6detail15system_category7messageB5cxx11Ei:
.LFB2696:
	.cfi_startproc
	pushq	%r12
	.cfi_def_cfa_offset 16
	.cfi_offset 12, -16
	pushq	%rbp
	.cfi_def_cfa_offset 24
	.cfi_offset 6, -24
	pushq	%rbx
	.cfi_def_cfa_offset 32
	.cfi_offset 3, -32
	movq	%rdi, %rbx
	subq	$288, %rsp
	.cfi_def_cfa_offset 320
	cmpl	$125, %edx
	je	.L362
	pxor	%xmm0, %xmm0
	leaq	32(%rsp), %rsi
	leaq	16(%rbx), %rbp
	movl	%edx, %edi
	movl	$256, %edx
	movaps	%xmm0, 32(%rsp)
	movaps	%xmm0, 48(%rsp)
	movaps	%xmm0, 64(%rsp)
	movaps	%xmm0, 80(%rsp)
	movaps	%xmm0, 96(%rsp)
	movaps	%xmm0, 112(%rsp)
	movaps	%xmm0, 128(%rsp)
	movaps	%xmm0, 144(%rsp)
	movaps	%xmm0, 160(%rsp)
	movaps	%xmm0, 176(%rsp)
	movaps	%xmm0, 192(%rsp)
	movaps	%xmm0, 208(%rsp)
	movaps	%xmm0, 224(%rsp)
	movaps	%xmm0, 240(%rsp)
	movaps	%xmm0, 256(%rsp)
	movaps	%xmm0, 272(%rsp)
	call	strerror_r@PLT
	movq	%rbp, (%rbx)
	movq	%rax, %r12
	testq	%rax, %rax
	je	.L363
	movq	%rax, %rdi
	call	strlen@PLT
	movq	%rax, 24(%rsp)
	movq	%rax, %rcx
	cmpq	$15, %rax
	ja	.L364
	cmpq	$1, %rax
	jne	.L356
	movzbl	(%r12), %edx
	movb	%dl, 16(%rbx)
.L357:
	movq	%rax, 8(%rbx)
	movb	$0, 0(%rbp,%rax)
	addq	$288, %rsp
	.cfi_remember_state
	.cfi_def_cfa_offset 32
	movq	%rbx, %rax
	popq	%rbx
	.cfi_def_cfa_offset 24
	popq	%rbp
	.cfi_def_cfa_offset 16
	popq	%r12
	.cfi_def_cfa_offset 8
	ret
	.p2align 4,,10
	.p2align 3
.L364:
	.cfi_restore_state
	leaq	24(%rsp), %rsi
	xorl	%edx, %edx
	movq	%rbx, %rdi
	movq	%rax, 8(%rsp)
	call	_ZNSt7__cxx1112basic_stringIcSt11char_traitsIcESaIcEE9_M_createERmm@PLT
	movq	8(%rsp), %rcx
	movq	%rax, (%rbx)
	movq	%rax, %rbp
	movq	24(%rsp), %rax
	movq	%rax, 16(%rbx)
.L355:
	movq	%rbp, %rdi
	movq	%rcx, %rdx
	movq	%r12, %rsi
	call	memcpy@PLT
	movq	24(%rsp), %rax
	movq	(%rbx), %rbp
	jmp	.L357
	.p2align 4,,10
	.p2align 3
.L362:
	leaq	16(%rdi), %rax
	leaq	32(%rsp), %rsi
	xorl	%edx, %edx
	movq	$18, 32(%rsp)
	movq	%rax, (%rdi)
	call	_ZNSt7__cxx1112basic_stringIcSt11char_traitsIcESaIcEE9_M_createERmm@PLT
	movq	32(%rsp), %rdx
	movdqa	.LC5(%rip), %xmm0
	movq	%rax, (%rbx)
	movq	%rdx, 16(%rbx)
	movl	$11876, %edx
	movw	%dx, 16(%rax)
	movups	%xmm0, (%rax)
	movq	32(%rsp), %rax
	movq	(%rbx), %rdx
	movq	%rax, 8(%rbx)
	movb	$0, (%rdx,%rax)
	addq	$288, %rsp
	.cfi_remember_state
	.cfi_def_cfa_offset 32
	movq	%rbx, %rax
	popq	%rbx
	.cfi_def_cfa_offset 24
	popq	%rbp
	.cfi_def_cfa_offset 16
	popq	%r12
	.cfi_def_cfa_offset 8
	ret
	.p2align 4,,10
	.p2align 3
.L356:
	.cfi_restore_state
	testq	%rax, %rax
	je	.L357
	jmp	.L355
.L363:
	leaq	.LC4(%rip), %rdi
	call	_ZSt19__throw_logic_errorPKc@PLT
	.cfi_endproc
.LFE2696:
	.size	_ZNK4asio6detail15system_category7messageB5cxx11Ei, .-_ZNK4asio6detail15system_category7messageB5cxx11Ei
	.text
	.align 2
	.p2align 4
	.type	_ZN4asio6detail13epoll_reactor12cancel_timerINS0_18chrono_time_traitsINSt6chrono3_V212steady_clockENS_11wait_traitsIS6_EEEEEEmRNS0_11timer_queueIT_EERNSC_14per_timer_dataEm.constprop.0.isra.0, @function
_ZN4asio6detail13epoll_reactor12cancel_timerINS0_18chrono_time_traitsINSt6chrono3_V212steady_clockENS_11wait_traitsIS6_EEEEEEmRNS0_11timer_queueIT_EERNSC_14per_timer_dataEm.constprop.0.isra.0:
.LFB9746:
	.cfi_startproc
	pushq	%r15
	.cfi_def_cfa_offset 16
	.cfi_offset 15, -16
	leaq	48(%rdi), %rax
	pushq	%r14
	.cfi_def_cfa_offset 24
	.cfi_offset 14, -24
	movq	%rsi, %r14
	pushq	%r13
	.cfi_def_cfa_offset 32
	.cfi_offset 13, -32
	pushq	%r12
	.cfi_def_cfa_offset 40
	.cfi_offset 12, -40
	pushq	%rbp
	.cfi_def_cfa_offset 48
	.cfi_offset 6, -48
	pushq	%rbx
	.cfi_def_cfa_offset 56
	.cfi_offset 3, -56
	movq	%rdx, %rbx
	subq	$56, %rsp
	.cfi_def_cfa_offset 112
	movq	%rdi, 16(%rsp)
	movq	%rax, %rdi
	movq	%rax, (%rsp)
	call	pthread_mutex_lock@PLT
	movq	32(%rbx), %r12
	testq	%r12, %r12
	je	.L445
	movq	%r14, 8(%rsp)
	movq	$-1, %r13
	xorl	%r15d, %r15d
	xorl	%r12d, %r12d
	jmp	.L374
	.p2align 4,,10
	.p2align 3
.L448:
	movq	_ZZN4asio15system_categoryEvE8instance@GOTPCREL(%rip), %rsi
.L369:
	movq	(%rbx), %rax
	movl	$125, 24(%r15)
	movq	%rsi, 32(%r15)
	testq	%rax, %rax
	je	.L371
	movq	(%rax), %rdx
	movq	%rdx, (%rbx)
	testq	%rdx, %rdx
	je	.L446
.L372:
	movq	$0, (%rax)
.L371:
	movq	$0, (%r15)
	testq	%r14, %r14
	je	.L401
	movq	%r15, (%r14)
	subq	$1, %r13
	je	.L447
.L374:
	movq	%r15, %r14
	movq	(%rbx), %r15
	testq	%r15, %r15
	je	.L439
	movq	_ZGVZN4asio15system_categoryEvE8instance@GOTPCREL(%rip), %rbp
	movzbl	0(%rbp), %eax
	testb	%al, %al
	jne	.L448
	movq	%rbp, %rdi
	call	__cxa_guard_acquire@PLT
	movq	_ZZN4asio15system_categoryEvE8instance@GOTPCREL(%rip), %rsi
	testl	%eax, %eax
	je	.L369
	movq	_ZN4asio6detail15system_categoryD1Ev@GOTPCREL(%rip), %rdi
	leaq	__dso_handle(%rip), %rdx
	movq	%rsi, 24(%rsp)
	call	__cxa_atexit@PLT
	movq	%rbp, %rdi
	call	__cxa_guard_release@PLT
	movq	24(%rsp), %rsi
	jmp	.L369
	.p2align 4,,10
	.p2align 3
.L401:
	movq	%r15, %r12
	subq	$1, %r13
	jne	.L374
.L447:
	movq	8(%rsp), %r14
	cmpq	$0, (%rbx)
	je	.L449
.L375:
	movq	(%rsp), %rdi
	call	pthread_mutex_unlock@PLT
	testq	%r12, %r12
	je	.L365
	movq	16(%rsp), %rax
	movq	40(%rax), %rbx
	cmpb	$0, 40(%rbx)
	je	.L387
	data16	leaq	_ZN4asio6detail15keyword_tss_ptrINS0_10call_stackINS0_15task_io_serviceENS0_27task_io_service_thread_infoEE7contextEE6value_E@tlsgd(%rip), %rdi
	.value	0x6666
	rex64
	call	__tls_get_addr@PLT
	movq	(%rax), %rax
	testq	%rax, %rax
	jne	.L390
	jmp	.L387
	.p2align 4
	.p2align 4,,10
	.p2align 3
.L388:
	movq	16(%rax), %rax
	testq	%rax, %rax
	je	.L387
.L390:
	cmpq	(%rax), %rbx
	jne	.L388
	movq	8(%rax), %rax
	testq	%rax, %rax
	je	.L387
	movq	16(%rax), %rdx
	testq	%rdx, %rdx
	je	.L391
	movq	%r12, (%rdx)
.L392:
	movq	%r15, 16(%rax)
.L365:
	addq	$56, %rsp
	.cfi_remember_state
	.cfi_def_cfa_offset 56
	popq	%rbx
	.cfi_def_cfa_offset 48
	popq	%rbp
	.cfi_def_cfa_offset 40
	popq	%r12
	.cfi_def_cfa_offset 32
	popq	%r13
	.cfi_def_cfa_offset 24
	popq	%r14
	.cfi_def_cfa_offset 16
	popq	%r15
	.cfi_def_cfa_offset 8
	ret
	.p2align 4,,10
	.p2align 3
.L446:
	.cfi_restore_state
	movq	$0, 8(%rbx)
	jmp	.L372
	.p2align 4,,10
	.p2align 3
.L387:
	leaq	48(%rbx), %rbp
	movq	%rbp, %rdi
	call	pthread_mutex_lock@PLT
	movq	200(%rbx), %rax
	testq	%rax, %rax
	je	.L394
	movq	%r12, (%rax)
.L395:
	movq	136(%rbx), %rax
	movq	%r15, 200(%rbx)
	movq	%rax, %rdx
	orq	$1, %rdx
	movq	%rdx, 136(%rbx)
	cmpq	$1, %rax
	jbe	.L396
	movq	%rbp, %rdi
	call	pthread_mutex_unlock@PLT
	addq	$56, %rsp
	.cfi_remember_state
	.cfi_def_cfa_offset 56
	leaq	88(%rbx), %rdi
	popq	%rbx
	.cfi_def_cfa_offset 48
	popq	%rbp
	.cfi_def_cfa_offset 40
	popq	%r12
	.cfi_def_cfa_offset 32
	popq	%r13
	.cfi_def_cfa_offset 24
	popq	%r14
	.cfi_def_cfa_offset 16
	popq	%r15
	.cfi_def_cfa_offset 8
	jmp	pthread_cond_signal@PLT
	.p2align 4,,10
	.p2align 3
.L439:
	.cfi_restore_state
	movq	%r14, %rbp
	movq	8(%rsp), %r14
.L367:
	movq	32(%r14), %rsi
	movq	24(%r14), %rdx
	cmpq	%rdx, %rsi
	je	.L378
	movq	%rsi, %r8
	movq	16(%rbx), %rax
	subq	%rdx, %r8
	movq	%r8, %rdi
	sarq	$4, %rdi
	cmpq	%rdi, %rax
	jnb	.L378
	subq	$1, %rdi
	subq	$16, %rsi
	cmpq	%rdi, %rax
	je	.L450
	movq	%rax, %r10
	movdqu	-16(%rdx,%r8), %xmm0
	salq	$4, %r10
	addq	%rdx, %r10
	movq	(%r10), %r11
	movq	8(%r10), %r9
	movups	%xmm0, (%r10)
	movq	%r11, -16(%rdx,%r8)
	movq	%r9, -8(%rdx,%r8)
	movq	8(%r10), %r8
	movq	%rax, 16(%r8)
	movq	%rdi, 16(%r9)
	movq	%rsi, 32(%r14)
	testq	%rax, %rax
	je	.L379
	leaq	-1(%rax), %rdi
	movq	(%r10), %r9
	movq	%rdi, %r11
	shrq	%r11
	salq	$4, %r11
	cmpq	%r9, (%rdx,%r11)
	jg	.L380
.L379:
	subq	%rdx, %rsi
	leaq	1(%rax,%rax), %r8
	sarq	$4, %rsi
	movq	%rsi, %r9
	cmpq	%rsi, %r8
	jnb	.L378
	movq	(%r10), %rcx
	jmp	.L382
	.p2align 4,,10
	.p2align 3
.L451:
	leaq	16(%rdx,%r11), %r11
	movq	(%r11), %r13
	cmpq	%rsi, %r13
	jg	.L402
	movq	%r13, %rsi
	movq	%r11, %r10
.L381:
	cmpq	%rsi, %rcx
	jl	.L378
	movq	%rax, %rsi
	movdqu	(%r10), %xmm0
	salq	$4, %rsi
	addq	%rdx, %rsi
	movq	8(%rsi), %r8
	movups	%xmm0, (%rsi)
	movq	%rcx, (%r10)
	movq	%r8, 8(%r10)
	movq	8(%rsi), %rsi
	movq	%rax, 16(%rsi)
	movq	%rdi, 16(%r8)
	leaq	1(%rdi,%rdi), %r8
	cmpq	%r9, %r8
	jnb	.L378
	movq	%rdi, %rax
.L382:
	movq	%r8, %r11
	leaq	1(%r8), %rdi
	salq	$4, %r11
	leaq	(%rdx,%r11), %r10
	movq	(%r10), %rsi
	cmpq	%r9, %rdi
	jne	.L451
.L402:
	movq	%r8, %rdi
	jmp	.L381
	.p2align 4,,10
	.p2align 3
.L445:
	movq	(%rsp), %rdi
	cmpq	16(%r14), %rbx
	je	.L452
.L444:
	addq	$56, %rsp
	.cfi_remember_state
	.cfi_def_cfa_offset 56
	popq	%rbx
	.cfi_def_cfa_offset 48
	popq	%rbp
	.cfi_def_cfa_offset 40
	popq	%r12
	.cfi_def_cfa_offset 32
	popq	%r13
	.cfi_def_cfa_offset 24
	popq	%r14
	.cfi_def_cfa_offset 16
	popq	%r15
	.cfi_def_cfa_offset 8
	jmp	pthread_mutex_unlock@PLT
	.p2align 4,,10
	.p2align 3
.L396:
	.cfi_restore_state
	cmpb	$0, 176(%rbx)
	jne	.L398
	movq	144(%rbx), %rax
	testq	%rax, %rax
	je	.L398
	leaq	88(%rax), %rdx
	movb	$1, 176(%rbx)
	movl	96(%rax), %edi
	leaq	36(%rsp), %rcx
	movq	%rdx, 40(%rsp)
	movl	88(%rax), %edx
	movl	$3, %esi
	movl	$-2147483639, 36(%rsp)
	call	epoll_ctl@PLT
.L398:
	movq	%rbp, %rdi
	jmp	.L444
	.p2align 4,,10
	.p2align 3
.L391:
	movq	%r12, 8(%rax)
	jmp	.L392
.L450:
	movq	%rsi, 32(%r14)
	.p2align 4
	.p2align 3
.L378:
	movq	24(%rbx), %rax
	cmpq	16(%r14), %rbx
	je	.L453
.L383:
	movq	32(%rbx), %rdx
	testq	%rdx, %rdx
	je	.L384
	movq	%rax, 24(%rdx)
	movq	24(%rbx), %rax
.L384:
	testq	%rax, %rax
	je	.L385
	movq	%rdx, 32(%rax)
.L385:
	pxor	%xmm0, %xmm0
	movq	%rbp, %r15
	movups	%xmm0, 24(%rbx)
	jmp	.L375
	.p2align 4,,10
	.p2align 3
.L394:
	movq	%r12, 192(%rbx)
	jmp	.L395
	.p2align 4,,10
	.p2align 3
.L452:
	movq	%r14, 8(%rsp)
	xorl	%r15d, %r15d
	movq	$-1, %r13
	jmp	.L374
.L454:
	leaq	-1(%rax), %rdi
	movq	%rdi, %rcx
	shrq	%rcx
	salq	$4, %rcx
	cmpq	(%rdx,%rcx), %r9
	jge	.L378
.L380:
	movq	%rax, %r10
	movq	%rdi, %rax
	shrq	%rax
	movq	%r10, %rsi
	movq	%rax, %rcx
	salq	$4, %rsi
	salq	$4, %rcx
	movdqu	(%rdx,%rcx), %xmm0
	movups	%xmm0, (%rdx,%rsi)
	movq	%r9, (%rdx,%rcx)
	movq	%r8, 8(%rdx,%rcx)
	movq	8(%rdx,%rsi), %rcx
	movq	%r10, 16(%rcx)
	movq	%rax, 16(%r8)
	testq	%rax, %rax
	jne	.L454
	jmp	.L378
	.p2align 4,,10
	.p2align 3
.L453:
	movq	%rax, 16(%r14)
	jmp	.L383
.L449:
	movq	%r15, %rbp
	jmp	.L367
	.cfi_endproc
.LFE9746:
	.size	_ZN4asio6detail13epoll_reactor12cancel_timerINS0_18chrono_time_traitsINSt6chrono3_V212steady_clockENS_11wait_traitsIS6_EEEEEEmRNS0_11timer_queueIT_EERNSC_14per_timer_dataEm.constprop.0.isra.0, .-_ZN4asio6detail13epoll_reactor12cancel_timerINS0_18chrono_time_traitsINSt6chrono3_V212steady_clockENS_11wait_traitsIS6_EEEEEEmRNS0_11timer_queueIT_EERNSC_14per_timer_dataEm.constprop.0.isra.0
	.section	.text._ZNK4asio5error6detail17addrinfo_category7messageB5cxx11Ei,"axG",@progbits,_ZNK4asio5error6detail17addrinfo_category7messageB5cxx11Ei,comdat
	.align 2
	.p2align 4
	.weak	_ZNK4asio5error6detail17addrinfo_category7messageB5cxx11Ei
	.type	_ZNK4asio5error6detail17addrinfo_category7messageB5cxx11Ei, @function
_ZNK4asio5error6detail17addrinfo_category7messageB5cxx11Ei:
.LFB2750:
	.cfi_startproc
	pushq	%rbx
	.cfi_def_cfa_offset 16
	.cfi_offset 3, -16
	leaq	16(%rdi), %rax
	movq	%rdi, %rbx
	subq	$16, %rsp
	.cfi_def_cfa_offset 32
	movq	%rax, (%rdi)
	cmpl	$-8, %edx
	je	.L460
	cmpl	$-7, %edx
	je	.L461
	movq	$19, 8(%rsp)
	leaq	8(%rsp), %rsi
	xorl	%edx, %edx
	call	_ZNSt7__cxx1112basic_stringIcSt11char_traitsIcESaIcEE9_M_createERmm@PLT
	movq	8(%rsp), %rdx
	movdqa	.LC10(%rip), %xmm0
	movq	%rax, (%rbx)
	movq	%rdx, 16(%rbx)
	movups	%xmm0, (%rax)
	movl	$1919906418, 15(%rax)
	movq	8(%rsp), %rax
	movq	(%rbx), %rdx
	movq	%rax, 8(%rbx)
	movb	$0, (%rdx,%rax)
	addq	$16, %rsp
	.cfi_remember_state
	.cfi_def_cfa_offset 16
	movq	%rbx, %rax
	popq	%rbx
	.cfi_def_cfa_offset 8
	ret
	.p2align 4,,10
	.p2align 3
.L461:
	.cfi_restore_state
	movq	$25, 8(%rsp)
	leaq	8(%rsp), %rsi
	xorl	%edx, %edx
	call	_ZNSt7__cxx1112basic_stringIcSt11char_traitsIcESaIcEE9_M_createERmm@PLT
	movq	8(%rsp), %rdx
	movdqa	.LC8(%rip), %xmm0
	movq	%rax, (%rbx)
	movq	%rdx, 16(%rbx)
	movups	%xmm0, (%rax)
	movdqa	.LC9(%rip), %xmm0
	movups	%xmm0, 9(%rax)
	movq	8(%rsp), %rax
	movq	(%rbx), %rdx
	movq	%rax, 8(%rbx)
	movb	$0, (%rdx,%rax)
	addq	$16, %rsp
	.cfi_remember_state
	.cfi_def_cfa_offset 16
	movq	%rbx, %rax
	popq	%rbx
	.cfi_def_cfa_offset 8
	ret
	.p2align 4,,10
	.p2align 3
.L460:
	.cfi_restore_state
	movq	$17, 8(%rsp)
	leaq	8(%rsp), %rsi
	xorl	%edx, %edx
	call	_ZNSt7__cxx1112basic_stringIcSt11char_traitsIcESaIcEE9_M_createERmm@PLT
	movq	8(%rsp), %rdx
	movdqa	.LC7(%rip), %xmm0
	movq	%rax, (%rbx)
	movq	%rdx, 16(%rbx)
	movb	$100, 16(%rax)
	movups	%xmm0, (%rax)
	movq	8(%rsp), %rax
	movq	(%rbx), %rdx
	movq	%rax, 8(%rbx)
	movb	$0, (%rdx,%rax)
	addq	$16, %rsp
	.cfi_def_cfa_offset 16
	movq	%rbx, %rax
	popq	%rbx
	.cfi_def_cfa_offset 8
	ret
	.cfi_endproc
.LFE2750:
	.size	_ZNK4asio5error6detail17addrinfo_category7messageB5cxx11Ei, .-_ZNK4asio5error6detail17addrinfo_category7messageB5cxx11Ei
	.section	.text._ZNK4asio5error6detail14netdb_category7messageB5cxx11Ei,"axG",@progbits,_ZNK4asio5error6detail14netdb_category7messageB5cxx11Ei,comdat
	.align 2
	.p2align 4
	.weak	_ZNK4asio5error6detail14netdb_category7messageB5cxx11Ei
	.type	_ZNK4asio5error6detail14netdb_category7messageB5cxx11Ei, @function
_ZNK4asio5error6detail14netdb_category7messageB5cxx11Ei:
.LFB2740:
	.cfi_startproc
	pushq	%rbx
	.cfi_def_cfa_offset 16
	.cfi_offset 3, -16
	leaq	16(%rdi), %rax
	movq	%rdi, %rbx
	subq	$16, %rsp
	.cfi_def_cfa_offset 32
	movq	%rax, (%rdi)
	cmpl	$1, %edx
	je	.L469
	cmpl	$2, %edx
	je	.L470
	cmpl	$4, %edx
	je	.L471
	cmpl	$3, %edx
	je	.L472
	movq	$16, 8(%rsp)
	leaq	8(%rsp), %rsi
	xorl	%edx, %edx
	call	_ZNSt7__cxx1112basic_stringIcSt11char_traitsIcESaIcEE9_M_createERmm@PLT
	movq	8(%rsp), %rdx
	movdqa	.LC21(%rip), %xmm0
	movq	%rax, (%rbx)
	movq	%rdx, 16(%rbx)
	movups	%xmm0, (%rax)
	movq	8(%rsp), %rax
	movq	(%rbx), %rdx
	movq	%rax, 8(%rbx)
	movb	$0, (%rdx,%rax)
	addq	$16, %rsp
	.cfi_remember_state
	.cfi_def_cfa_offset 16
	movq	%rbx, %rax
	popq	%rbx
	.cfi_def_cfa_offset 8
	ret
	.p2align 4,,10
	.p2align 3
.L469:
	.cfi_restore_state
	movq	$30, 8(%rsp)
	leaq	8(%rsp), %rsi
	xorl	%edx, %edx
	call	_ZNSt7__cxx1112basic_stringIcSt11char_traitsIcESaIcEE9_M_createERmm@PLT
	movq	8(%rsp), %rdx
	movdqa	.LC11(%rip), %xmm0
	movq	%rax, (%rbx)
	movq	%rdx, 16(%rbx)
	movups	%xmm0, (%rax)
	movdqa	.LC12(%rip), %xmm0
	movups	%xmm0, 14(%rax)
	movq	8(%rsp), %rax
	movq	(%rbx), %rdx
	movq	%rax, 8(%rbx)
	movb	$0, (%rdx,%rax)
	addq	$16, %rsp
	.cfi_remember_state
	.cfi_def_cfa_offset 16
	movq	%rbx, %rax
	popq	%rbx
	.cfi_def_cfa_offset 8
	ret
	.p2align 4,,10
	.p2align 3
.L472:
	.cfi_restore_state
	movq	$55, 8(%rsp)
	leaq	8(%rsp), %rsi
	xorl	%edx, %edx
	call	_ZNSt7__cxx1112basic_stringIcSt11char_traitsIcESaIcEE9_M_createERmm@PLT
	movq	8(%rsp), %rdx
	movdqa	.LC18(%rip), %xmm0
	movabsq	$8103501230877974629, %rcx
	movq	%rax, (%rbx)
	movq	%rdx, 16(%rbx)
	movups	%xmm0, (%rax)
	movdqa	.LC19(%rip), %xmm0
	movups	%xmm0, 16(%rax)
	movdqa	.LC20(%rip), %xmm0
	movups	%xmm0, 32(%rax)
	movq	%rcx, 47(%rax)
	movq	8(%rsp), %rax
	movq	(%rbx), %rdx
	movq	%rax, 8(%rbx)
	movb	$0, (%rdx,%rax)
	addq	$16, %rsp
	.cfi_remember_state
	.cfi_def_cfa_offset 16
	movq	%rbx, %rax
	popq	%rbx
	.cfi_def_cfa_offset 8
	ret
	.p2align 4,,10
	.p2align 3
.L470:
	.cfi_restore_state
	movq	$51, 8(%rsp)
	leaq	8(%rsp), %rsi
	xorl	%edx, %edx
	call	_ZNSt7__cxx1112basic_stringIcSt11char_traitsIcESaIcEE9_M_createERmm@PLT
	movq	8(%rsp), %rdx
	movdqa	.LC11(%rip), %xmm0
	movq	%rax, (%rbx)
	movq	%rdx, 16(%rbx)
	movups	%xmm0, (%rax)
	movdqa	.LC13(%rip), %xmm0
	movups	%xmm0, 16(%rax)
	movdqa	.LC14(%rip), %xmm0
	movups	%xmm0, 32(%rax)
	movl	$1919251553, 47(%rax)
	movq	8(%rsp), %rax
	movq	(%rbx), %rdx
	movq	%rax, 8(%rbx)
	movb	$0, (%rdx,%rax)
	addq	$16, %rsp
	.cfi_remember_state
	.cfi_def_cfa_offset 16
	movq	%rbx, %rax
	popq	%rbx
	.cfi_def_cfa_offset 8
	ret
	.p2align 4,,10
	.p2align 3
.L471:
	.cfi_restore_state
	movq	$56, 8(%rsp)
	leaq	8(%rsp), %rsi
	xorl	%edx, %edx
	call	_ZNSt7__cxx1112basic_stringIcSt11char_traitsIcESaIcEE9_M_createERmm@PLT
	movq	8(%rsp), %rdx
	movdqa	.LC15(%rip), %xmm0
	movabsq	$7022344801645520244, %rcx
	movq	%rax, (%rbx)
	movq	%rdx, 16(%rbx)
	movups	%xmm0, (%rax)
	movdqa	.LC16(%rip), %xmm0
	movq	%rcx, 48(%rax)
	movups	%xmm0, 16(%rax)
	movdqa	.LC17(%rip), %xmm0
	movups	%xmm0, 32(%rax)
	movq	8(%rsp), %rax
	movq	(%rbx), %rdx
	movq	%rax, 8(%rbx)
	movb	$0, (%rdx,%rax)
	addq	$16, %rsp
	.cfi_def_cfa_offset 16
	movq	%rbx, %rax
	popq	%rbx
	.cfi_def_cfa_offset 8
	ret
	.cfi_endproc
.LFE2740:
	.size	_ZNK4asio5error6detail14netdb_category7messageB5cxx11Ei, .-_ZNK4asio5error6detail14netdb_category7messageB5cxx11Ei
	.section	.text._ZNK4asio5error6detail13misc_category7messageB5cxx11Ei,"axG",@progbits,_ZNK4asio5error6detail13misc_category7messageB5cxx11Ei,comdat
	.align 2
	.p2align 4
	.weak	_ZNK4asio5error6detail13misc_category7messageB5cxx11Ei
	.type	_ZNK4asio5error6detail13misc_category7messageB5cxx11Ei, @function
_ZNK4asio5error6detail13misc_category7messageB5cxx11Ei:
.LFB2760:
	.cfi_startproc
	cmpl	$1, %edx
	je	.L482
	cmpl	$2, %edx
	je	.L483
	leaq	16(%rdi), %rax
	subq	$40, %rsp
	.cfi_def_cfa_offset 48
	movq	%rax, (%rdi)
	cmpl	$3, %edx
	je	.L484
	cmpl	$4, %edx
	je	.L485
	movabsq	$8316298233121436513, %rcx
	movq	$15, 8(%rdi)
	movq	%rdi, %rax
	movq	%rcx, 16(%rdi)
	movabsq	$8245935278387127155, %rcx
	movq	%rcx, 23(%rdi)
	movb	$0, 31(%rdi)
	addq	$40, %rsp
	.cfi_def_cfa_offset 8
	ret
	.p2align 4,,10
	.p2align 3
.L482:
	leaq	16(%rdi), %rax
	movl	$1852141679, 24(%rdi)
	movabsq	$2340011850872286273, %rsi
	movq	%rax, (%rdi)
	movq	%rdi, %rax
	movq	%rsi, 16(%rdi)
	movq	$12, 8(%rdi)
	movb	$0, 28(%rdi)
	ret
	.p2align 4,,10
	.p2align 3
.L485:
	.cfi_def_cfa_offset 48
	leaq	24(%rsp), %rsi
	xorl	%edx, %edx
	movq	%rdi, 8(%rsp)
	movq	$57, 24(%rsp)
	call	_ZNSt7__cxx1112basic_stringIcSt11char_traitsIcESaIcEE9_M_createERmm@PLT
	movq	24(%rsp), %rdx
	movq	8(%rsp), %rdi
	movdqa	.LC23(%rip), %xmm0
	movq	%rax, (%rdi)
	movq	%rdx, 16(%rdi)
	movups	%xmm0, (%rax)
	movdqa	.LC24(%rip), %xmm0
	movups	%xmm0, 16(%rax)
	movdqa	.LC25(%rip), %xmm0
	movups	%xmm0, 32(%rax)
	movdqa	.LC26(%rip), %xmm0
	movups	%xmm0, 41(%rax)
	movq	24(%rsp), %rax
	movq	(%rdi), %rdx
	movq	%rax, 8(%rdi)
	movb	$0, (%rdx,%rax)
	movq	%rdi, %rax
	addq	$40, %rsp
	.cfi_def_cfa_offset 8
	ret
	.p2align 4,,10
	.p2align 3
.L483:
	leaq	16(%rdi), %rax
	movq	$11, 8(%rdi)
	movabsq	$7358994418594246213, %rsi
	movq	%rax, (%rdi)
	movq	%rdi, %rax
	movq	%rsi, 16(%rdi)
	movb	$0, 27(%rdi)
	movl	$1701603686, 23(%rdi)
	ret
	.p2align 4,,10
	.p2align 3
.L484:
	.cfi_def_cfa_offset 48
	leaq	24(%rsp), %rsi
	xorl	%edx, %edx
	movq	%rdi, 8(%rsp)
	movq	$17, 24(%rsp)
	call	_ZNSt7__cxx1112basic_stringIcSt11char_traitsIcESaIcEE9_M_createERmm@PLT
	movq	8(%rsp), %rdi
	movq	24(%rsp), %rdx
	movdqa	.LC22(%rip), %xmm0
	movq	%rax, (%rdi)
	movq	%rdx, 16(%rdi)
	movb	$100, 16(%rax)
	movups	%xmm0, (%rax)
	movq	24(%rsp), %rax
	movq	(%rdi), %rdx
	movq	%rax, 8(%rdi)
	movb	$0, (%rdx,%rax)
	movq	%rdi, %rax
	addq	$40, %rsp
	.cfi_def_cfa_offset 8
	ret
	.cfi_endproc
.LFE2760:
	.size	_ZNK4asio5error6detail13misc_category7messageB5cxx11Ei, .-_ZNK4asio5error6detail13misc_category7messageB5cxx11Ei
	.section	.text._ZN4asio6detail15task_io_service12work_cleanupD2Ev,"axG",@progbits,_ZN4asio6detail15task_io_service12work_cleanupD5Ev,comdat
	.align 2
	.p2align 4
	.weak	_ZN4asio6detail15task_io_service12work_cleanupD2Ev
	.type	_ZN4asio6detail15task_io_service12work_cleanupD2Ev, @function
_ZN4asio6detail15task_io_service12work_cleanupD2Ev:
.LFB3450:
	.cfi_startproc
	pushq	%rbx
	.cfi_def_cfa_offset 16
	.cfi_offset 3, -16
	movq	%rdi, %r8
	subq	$32, %rsp
	.cfi_def_cfa_offset 48
	movq	16(%rdi), %rax
	movq	24(%rax), %rdx
	cmpq	$1, %rdx
	jg	.L511
	jne	.L512
.L488:
	movq	8(%rax), %rdx
	movq	$0, 24(%rax)
	testq	%rdx, %rdx
	je	.L486
	movq	8(%r8), %rcx
	cmpb	$0, 8(%rcx)
	je	.L513
.L509:
	movq	(%r8), %rcx
	movq	200(%rcx), %rsi
	testq	%rsi, %rsi
	je	.L495
	movq	%rdx, (%rsi)
.L496:
	movq	16(%rax), %rdx
	pxor	%xmm0, %xmm0
	movq	%rdx, 200(%rcx)
	movups	%xmm0, 8(%rax)
.L486:
	addq	$32, %rsp
	.cfi_remember_state
	.cfi_def_cfa_offset 16
	popq	%rbx
	.cfi_def_cfa_offset 8
	ret
	.p2align 4,,10
	.p2align 3
.L512:
	.cfi_restore_state
	movq	(%rdi), %rdx
	lock subq	$1, 184(%rdx)
	je	.L489
.L508:
	movq	16(%r8), %rax
	jmp	.L488
	.p2align 4,,10
	.p2align 3
.L513:
	movq	(%rcx), %rdi
	movq	%r8, 8(%rsp)
	movq	%rcx, (%rsp)
	call	pthread_mutex_lock@PLT
	movq	8(%rsp), %r8
	movq	(%rsp), %rcx
	movq	16(%r8), %rax
	movb	$1, 8(%rcx)
	movq	8(%rax), %rdx
	testq	%rdx, %rdx
	jne	.L509
	addq	$32, %rsp
	.cfi_remember_state
	.cfi_def_cfa_offset 16
	popq	%rbx
	.cfi_def_cfa_offset 8
	ret
	.p2align 4,,10
	.p2align 3
.L495:
	.cfi_restore_state
	movq	%rdx, 192(%rcx)
	jmp	.L496
	.p2align 4,,10
	.p2align 3
.L511:
	movq	(%rdi), %rax
	subq	$1, %rdx
	lock addq	%rdx, 184(%rax)
	movq	16(%rdi), %rax
	jmp	.L488
	.p2align 4,,10
	.p2align 3
.L489:
	movq	%rdi, 8(%rsp)
	leaq	48(%rdx), %rdi
	leaq	48(%rdx), %rbx
	movq	%rdx, (%rsp)
	call	pthread_mutex_lock@PLT
	movq	(%rsp), %rdx
	orq	$1, 136(%rdx)
	leaq	88(%rdx), %rdi
	movb	$1, 208(%rdx)
	call	pthread_cond_broadcast@PLT
	movq	(%rsp), %rdx
	movq	8(%rsp), %r8
	cmpb	$0, 176(%rdx)
	jne	.L490
	movq	144(%rdx), %rax
	testq	%rax, %rax
	je	.L490
	movb	$1, 176(%rdx)
	leaq	88(%rax), %rdx
	movl	96(%rax), %edi
	leaq	20(%rsp), %rcx
	movq	%rdx, 24(%rsp)
	movl	88(%rax), %edx
	movl	$3, %esi
	movq	%r8, (%rsp)
	movl	$-2147483639, 20(%rsp)
	call	epoll_ctl@PLT
	movq	(%rsp), %r8
.L490:
	movq	%rbx, %rdi
	movq	%r8, (%rsp)
	call	pthread_mutex_unlock@PLT
	movq	(%rsp), %r8
	jmp	.L508
	.cfi_endproc
.LFE3450:
	.size	_ZN4asio6detail15task_io_service12work_cleanupD2Ev, .-_ZN4asio6detail15task_io_service12work_cleanupD2Ev
	.weak	_ZN4asio6detail15task_io_service12work_cleanupD1Ev
	.set	_ZN4asio6detail15task_io_service12work_cleanupD1Ev,_ZN4asio6detail15task_io_service12work_cleanupD2Ev
	.section	.text._ZNSt16_Sp_counted_baseILN9__gnu_cxx12_Lock_policyE2EE24_M_release_last_use_coldEv,"axG",@progbits,_ZNSt16_Sp_counted_baseILN9__gnu_cxx12_Lock_policyE2EE24_M_release_last_use_coldEv,comdat
	.align 2
	.p2align 4
	.weak	_ZNSt16_Sp_counted_baseILN9__gnu_cxx12_Lock_policyE2EE24_M_release_last_use_coldEv
	.type	_ZNSt16_Sp_counted_baseILN9__gnu_cxx12_Lock_policyE2EE24_M_release_last_use_coldEv, @function
_ZNSt16_Sp_counted_baseILN9__gnu_cxx12_Lock_policyE2EE24_M_release_last_use_coldEv:
.LFB7083:
	.cfi_startproc
	pushq	%rbx
	.cfi_def_cfa_offset 16
	.cfi_offset 3, -16
	movq	(%rdi), %rax
	movq	%rdi, %rbx
	call	*16(%rax)
	movq	__libc_single_threaded@GOTPCREL(%rip), %rax
	cmpb	$0, (%rax)
	je	.L515
	movl	12(%rbx), %eax
	leal	-1(%rax), %edx
	movl	%edx, 12(%rbx)
.L516:
	cmpl	$1, %eax
	je	.L519
	popq	%rbx
	.cfi_remember_state
	.cfi_def_cfa_offset 8
	ret
	.p2align 4,,10
	.p2align 3
.L519:
	.cfi_restore_state
	movq	(%rbx), %rax
	movq	%rbx, %rdi
	popq	%rbx
	.cfi_remember_state
	.cfi_def_cfa_offset 8
	movq	24(%rax), %rax
	jmp	*%rax
	.p2align 4,,10
	.p2align 3
.L515:
	.cfi_restore_state
	movl	$-1, %eax
	lock xaddl	%eax, 12(%rbx)
	jmp	.L516
	.cfi_endproc
.LFE7083:
	.size	_ZNSt16_Sp_counted_baseILN9__gnu_cxx12_Lock_policyE2EE24_M_release_last_use_coldEv, .-_ZNSt16_Sp_counted_baseILN9__gnu_cxx12_Lock_policyE2EE24_M_release_last_use_coldEv
	.section	.text._ZNSt16_Sp_counted_baseILN9__gnu_cxx12_Lock_policyE2EE10_M_releaseEv,"axG",@progbits,_ZNSt16_Sp_counted_baseILN9__gnu_cxx12_Lock_policyE2EE10_M_releaseEv,comdat
	.align 2
	.p2align 4
	.weak	_ZNSt16_Sp_counted_baseILN9__gnu_cxx12_Lock_policyE2EE10_M_releaseEv
	.type	_ZNSt16_Sp_counted_baseILN9__gnu_cxx12_Lock_policyE2EE10_M_releaseEv, @function
_ZNSt16_Sp_counted_baseILN9__gnu_cxx12_Lock_policyE2EE10_M_releaseEv:
.LFB1188:
	.cfi_startproc
	movabsq	$4294967297, %rax
	movq	8(%rdi), %rdx
	cmpq	%rax, %rdx
	je	.L528
	movq	__libc_single_threaded@GOTPCREL(%rip), %rax
	cmpb	$0, (%rax)
	je	.L522
	movl	8(%rdi), %eax
	leal	-1(%rax), %edx
	movl	%edx, 8(%rdi)
.L523:
	cmpl	$1, %eax
	je	.L529
	ret
	.p2align 4,,10
	.p2align 3
.L522:
	leaq	8(%rdi), %rcx
	movl	$-1, %eax
	lock xaddl	%eax, (%rcx)
	jmp	.L523
	.p2align 4,,10
	.p2align 3
.L528:
	subq	$24, %rsp
	.cfi_def_cfa_offset 32
	movq	(%rdi), %rax
	movq	$0, 8(%rdi)
	movq	%rdi, 8(%rsp)
	call	*16(%rax)
	movq	8(%rsp), %rdi
	movq	(%rdi), %rax
	movq	24(%rax), %rax
	addq	$24, %rsp
	.cfi_def_cfa_offset 8
	jmp	*%rax
	.p2align 4,,10
	.p2align 3
.L529:
	jmp	_ZNSt16_Sp_counted_baseILN9__gnu_cxx12_Lock_policyE2EE24_M_release_last_use_coldEv@PLT
	.cfi_endproc
.LFE1188:
	.size	_ZNSt16_Sp_counted_baseILN9__gnu_cxx12_Lock_policyE2EE10_M_releaseEv, .-_ZNSt16_Sp_counted_baseILN9__gnu_cxx12_Lock_policyE2EE10_M_releaseEv
	.section	.text._ZN7openpal6LoggerD2Ev,"axG",@progbits,_ZN7openpal6LoggerD5Ev,comdat
	.align 2
	.p2align 4
	.weak	_ZN7openpal6LoggerD2Ev
	.type	_ZN7openpal6LoggerD2Ev, @function
_ZN7openpal6LoggerD2Ev:
.LFB1998:
	.cfi_startproc
	subq	$24, %rsp
	.cfi_def_cfa_offset 32
	movq	%rdi, %rax
	movq	24(%rdi), %rdi
	testq	%rdi, %rdi
	je	.L532
	movq	8(%rdi), %rcx
	leaq	8(%rdi), %rsi
	movabsq	$4294967297, %rdx
	cmpq	%rdx, %rcx
	je	.L544
	movq	__libc_single_threaded@GOTPCREL(%rip), %rdx
	cmpb	$0, (%rdx)
	je	.L534
	movl	8(%rdi), %edx
	leal	-1(%rdx), %ecx
	movl	%ecx, 8(%rdi)
.L535:
	cmpl	$1, %edx
	je	.L545
.L532:
	movq	8(%rax), %rdi
	testq	%rdi, %rdi
	je	.L530
	movq	8(%rdi), %rdx
	leaq	8(%rdi), %rcx
	movabsq	$4294967297, %rax
	cmpq	%rax, %rdx
	je	.L546
	movq	__libc_single_threaded@GOTPCREL(%rip), %rax
	cmpb	$0, (%rax)
	je	.L540
	movl	8(%rdi), %eax
	leal	-1(%rax), %edx
	movl	%edx, 8(%rdi)
.L541:
	cmpl	$1, %eax
	je	.L547
.L530:
	addq	$24, %rsp
	.cfi_remember_state
	.cfi_def_cfa_offset 8
	ret
	.p2align 4,,10
	.p2align 3
.L546:
	.cfi_restore_state
	movq	(%rdi), %rax
	movq	%rdi, (%rsp)
	movq	$0, 8(%rdi)
	call	*16(%rax)
	movq	(%rsp), %rdi
	movq	(%rdi), %rax
	movq	24(%rax), %rax
	addq	$24, %rsp
	.cfi_remember_state
	.cfi_def_cfa_offset 8
	jmp	*%rax
	.p2align 4,,10
	.p2align 3
.L544:
	.cfi_restore_state
	movq	(%rdi), %rdx
	movq	%rax, 8(%rsp)
	movq	$0, 8(%rdi)
	movq	%rdi, (%rsp)
	call	*16(%rdx)
	movq	(%rsp), %rdi
	movq	(%rdi), %rdx
	call	*24(%rdx)
	movq	8(%rsp), %rax
	jmp	.L532
	.p2align 4,,10
	.p2align 3
.L540:
	movl	$-1, %eax
	lock xaddl	%eax, (%rcx)
	jmp	.L541
	.p2align 4,,10
	.p2align 3
.L534:
	movl	$-1, %edx
	lock xaddl	%edx, (%rsi)
	jmp	.L535
	.p2align 4,,10
	.p2align 3
.L545:
	movq	%rax, (%rsp)
	call	_ZNSt16_Sp_counted_baseILN9__gnu_cxx12_Lock_policyE2EE24_M_release_last_use_coldEv@PLT
	movq	(%rsp), %rax
	jmp	.L532
	.p2align 4,,10
	.p2align 3
.L547:
	addq	$24, %rsp
	.cfi_def_cfa_offset 8
	jmp	_ZNSt16_Sp_counted_baseILN9__gnu_cxx12_Lock_policyE2EE24_M_release_last_use_coldEv@PLT
	.cfi_endproc
.LFE1998:
	.size	_ZN7openpal6LoggerD2Ev, .-_ZN7openpal6LoggerD2Ev
	.weak	_ZN7openpal6LoggerD1Ev
	.set	_ZN7openpal6LoggerD1Ev,_ZN7openpal6LoggerD2Ev
	.section	.text.unlikely._ZN4asio6detail15throw_exceptionISt12system_errorEEvRKT_,"axG",@progbits,_ZN4asio6detail15throw_exceptionISt12system_errorEEvRKT_,comdat
	.weak	_ZN4asio6detail15throw_exceptionISt12system_errorEEvRKT_
	.type	_ZN4asio6detail15throw_exceptionISt12system_errorEEvRKT_, @function
_ZN4asio6detail15throw_exceptionISt12system_errorEEvRKT_:
.LFB7373:
	.cfi_startproc
	pushq	%rbp
	.cfi_def_cfa_offset 16
	.cfi_offset 6, -16
	movq	%rdi, %rbp
	movl	$32, %edi
	pushq	%rbx
	.cfi_def_cfa_offset 24
	.cfi_offset 3, -24
	pushq	%rax
	.cfi_def_cfa_offset 32
	call	__cxa_allocate_exception@PLT
	movq	%rbp, %rsi
	movq	%rax, %rdi
	movq	%rax, %rbx
	call	_ZNSt13runtime_errorC2ERKS_@PLT
	movq	_ZTVSt12system_error@GOTPCREL(%rip), %rax
	movups	16(%rbp), %xmm0
	movq	%rbx, %rdi
	movq	_ZNSt12system_errorD1Ev@GOTPCREL(%rip), %rdx
	movq	_ZTISt12system_error@GOTPCREL(%rip), %rsi
	addq	$16, %rax
	movups	%xmm0, 16(%rbx)
	movq	%rax, (%rbx)
	call	__cxa_throw@PLT
	.cfi_endproc
.LFE7373:
	.size	_ZN4asio6detail15throw_exceptionISt12system_errorEEvRKT_, .-_ZN4asio6detail15throw_exceptionISt12system_errorEEvRKT_
	.section	.text._ZN4asio6detail14do_throw_errorERKSt10error_code,"axG",@progbits,_ZN4asio6detail14do_throw_errorERKSt10error_code,comdat
	.p2align 4
	.weak	_ZN4asio6detail14do_throw_errorERKSt10error_code
	.type	_ZN4asio6detail14do_throw_errorERKSt10error_code, @function
_ZN4asio6detail14do_throw_errorERKSt10error_code:
.LFB2732:
	.cfi_startproc
	.cfi_personality 0x9b,DW.ref.__gxx_personality_v0
	.cfi_lsda 0x1b,.LLSDA2732
	pushq	%r13
	.cfi_def_cfa_offset 16
	.cfi_offset 13, -16
	pushq	%r12
	.cfi_def_cfa_offset 24
	.cfi_offset 12, -24
	pushq	%rbp
	.cfi_def_cfa_offset 32
	.cfi_offset 6, -32
	pushq	%rbx
	.cfi_def_cfa_offset 40
	.cfi_offset 3, -40
	subq	$72, %rsp
	.cfi_def_cfa_offset 112
	movq	8(%rdi), %rbx
	movl	(%rdi), %r13d
	leaq	32(%rsp), %rdi
	movq	%rsp, %rbp
	movq	(%rbx), %rax
	movq	%rbx, %rsi
	movl	%r13d, %edx
.LEHB4:
	call	*32(%rax)
.LEHE4:
	leaq	32(%rsp), %rsi
	movq	%rsp, %rdi
.LEHB5:
	call	_ZNSt13runtime_errorC2ERKNSt7__cxx1112basic_stringIcSt11char_traitsIcESaIcEEE@PLT
.LEHE5:
	movq	32(%rsp), %rdi
	leaq	48(%rsp), %rax
	cmpq	%rax, %rdi
	je	.L551
	movq	48(%rsp), %rax
	leaq	1(%rax), %rsi
	call	_ZdlPvm@PLT
.L551:
	movq	_ZTVSt12system_error@GOTPCREL(%rip), %rax
	movq	%rbp, %rdi
	movl	%r13d, 16(%rsp)
	movq	%rbx, 24(%rsp)
	addq	$16, %rax
	movq	%rax, (%rsp)
.LEHB6:
	call	_ZN4asio6detail15throw_exceptionISt12system_errorEEvRKT_@PLT
.LEHE6:
.L555:
	movq	%rax, %rbx
	jmp	.L552
.L554:
	movq	%rax, %rbx
	jmp	.L553
.L552:
	leaq	32(%rsp), %rdi
	call	_ZNSt7__cxx1112basic_stringIcSt11char_traitsIcESaIcEE10_M_disposeEv@PLT
	movq	%rbx, %rdi
.LEHB7:
	call	_Unwind_Resume@PLT
.L553:
	movq	%rbp, %rdi
	call	_ZNSt12system_errorD1Ev@PLT
	movq	%rbx, %rdi
	call	_Unwind_Resume@PLT
.LEHE7:
	.cfi_endproc
.LFE2732:
	.section	.gcc_except_table._ZN4asio6detail14do_throw_errorERKSt10error_code,"aG",@progbits,_ZN4asio6detail14do_throw_errorERKSt10error_code,comdat
.LLSDA2732:
	.byte	0xff
	.byte	0xff
	.byte	0x1
	.uleb128 .LLSDACSE2732-.LLSDACSB2732
.LLSDACSB2732:
	.uleb128 .LEHB4-.LFB2732
	.uleb128 .LEHE4-.LEHB4
	.uleb128 0
	.uleb128 0
	.uleb128 .LEHB5-.LFB2732
	.uleb128 .LEHE5-.LEHB5
	.uleb128 .L555-.LFB2732
	.uleb128 0
	.uleb128 .LEHB6-.LFB2732
	.uleb128 .LEHE6-.LEHB6
	.uleb128 .L554-.LFB2732
	.uleb128 0
	.uleb128 .LEHB7-.LFB2732
	.uleb128 .LEHE7-.LEHB7
	.uleb128 0
	.uleb128 0
.LLSDACSE2732:
	.section	.text._ZN4asio6detail14do_throw_errorERKSt10error_code,"axG",@progbits,_ZN4asio6detail14do_throw_errorERKSt10error_code,comdat
	.size	_ZN4asio6detail14do_throw_errorERKSt10error_code, .-_ZN4asio6detail14do_throw_errorERKSt10error_code
	.section	.rodata.str1.1,"aMS",@progbits,1
.LC27:
	.string	"Starting thread (%d)"
	.section	.rodata.str1.8,"aMS",@progbits,1
	.align 8
.LC28:
	.string	"/opt/PLC/OpenPLC_v3/utils/dnp3_src/cpp/libs/src/asiopal/ThreadPool.cpp(89)"
	.section	.rodata.str1.1
.LC29:
	.string	"Exiting thread (%d)"
	.section	.rodata.str1.8
	.align 8
.LC30:
	.string	"/opt/PLC/OpenPLC_v3/utils/dnp3_src/cpp/libs/src/asiopal/ThreadPool.cpp(93)"
	.section	.text.unlikely,"ax",@progbits
	.align 2
.LCOLDB31:
	.text
.LHOTB31:
	.align 2
	.p2align 4
	.globl	_ZN7asiopal10ThreadPool3RunEi
	.type	_ZN7asiopal10ThreadPool3RunEi, @function
_ZN7asiopal10ThreadPool3RunEi:
.LFB7076:
	.cfi_startproc
	.cfi_personality 0x9b,DW.ref.__gxx_personality_v0
	.cfi_lsda 0x1b,.LLSDA7076
	pushq	%r15
	.cfi_def_cfa_offset 16
	.cfi_offset 15, -16
	pushq	%r14
	.cfi_def_cfa_offset 24
	.cfi_offset 14, -24
	pushq	%r13
	.cfi_def_cfa_offset 32
	.cfi_offset 13, -32
	pushq	%r12
	.cfi_def_cfa_offset 40
	.cfi_offset 12, -40
	pushq	%rbp
	.cfi_def_cfa_offset 48
	.cfi_offset 6, -48
	pushq	%rbx
	.cfi_def_cfa_offset 56
	.cfi_offset 3, -56
	subq	$1784, %rsp
	.cfi_def_cfa_offset 1840
	movq	%rdi, 48(%rsp)
	movl	%esi, 68(%rsp)
	cmpq	$0, 64(%rdi)
	je	.L689
	movq	%rdi, %rbx
	leaq	240(%rsp), %r15
	leaq	48(%rdi), %rdi
.LEHB8:
	call	*72(%rbx)
	movq	%r15, %rsi
	movq	%rbx, %rdi
	movl	$8, 240(%rsp)
	call	_ZNK7openpal6Logger9IsEnabledERKNS_10LogFiltersE@PLT
.LEHE8:
	testb	%al, %al
	jne	.L793
.L559:
	movq	48(%rsp), %rax
	movl	$0, 80(%rsp)
	movq	32(%rax), %rax
	movq	16(%rax), %rbp
	call	_ZNSt3_V215system_categoryEv@PLT
	movq	%rax, 40(%rsp)
	movq	%rax, 88(%rsp)
	leaq	184(%rbp), %rax
	movq	%rax, 32(%rsp)
	movq	184(%rbp), %rax
	testq	%rax, %rax
	je	.L794
	pxor	%xmm0, %xmm0
	leaq	144(%rsp), %rax
	movq	$0, 160(%rsp)
	movaps	%xmm0, 144(%rsp)
	movq	$0, 168(%rsp)
	movq	%rbp, 112(%rsp)
	movq	%rax, 72(%rsp)
	movq	%rax, 120(%rsp)
	data16	leaq	_ZN4asio6detail15keyword_tss_ptrINS0_10call_stackINS0_15task_io_serviceENS0_27task_io_service_thread_infoEE7contextEE6value_E@tlsgd(%rip), %rdi
	.value	0x6666
	rex64
	call	__tls_get_addr@PLT
	movq	(%rax), %rdx
	movq	%rdx, 128(%rsp)
	leaq	112(%rsp), %rdx
	movq	%rdx, (%rax)
	leaq	48(%rbp), %rax
	movq	%rax, %rdi
	movq	%rax, 56(%rsp)
	movq	%rax, 96(%rsp)
	call	pthread_mutex_lock@PLT
	movb	$1, 104(%rsp)
	.p2align 4
	.p2align 3
.L563:
	cmpb	$0, 208(%rbp)
	jne	.L795
.L564:
	movq	192(%rbp), %r14
	testq	%r14, %r14
	je	.L567
	movq	(%r14), %rbx
	movq	%rbx, 192(%rbp)
	testq	%rbx, %rbx
	je	.L568
	leaq	152(%rbp), %r13
	movq	$0, (%r14)
	cmpq	%r13, %r14
	jne	.L569
	movb	$1, 176(%rbp)
	cmpb	$0, 40(%rbp)
	je	.L796
	cmpb	$0, 104(%rsp)
	jne	.L797
.L577:
	movq	144(%rbp), %r12
	cmpl	$-1, 100(%r12)
	je	.L578
.L809:
	cmpq	$1, %rbx
	sbbl	%ecx, %ecx
.L575:
	movl	96(%r12), %edi
	movl	$128, %edx
	movq	%r15, %rsi
.LEHB9:
	call	epoll_wait@PLT
.LEHE9:
	cmpl	$-1, 100(%r12)
	sete	%cl
	testl	%eax, %eax
	jle	.L590
	cltq
	leaq	88(%r12), %r8
	leaq	100(%r12), %rdi
	movq	%r15, %rdx
	leaq	(%rax,%rax,2), %rax
	leaq	(%r15,%rax,4), %r9
	jmp	.L595
	.p2align 4,,10
	.p2align 3
.L591:
	cmpq	%rdi, %rax
	je	.L701
	movl	(%rdx), %esi
	movq	$0, (%rax)
	movl	%esi, 16(%rax)
	movq	160(%rsp), %rsi
	testq	%rsi, %rsi
	je	.L593
	movq	%rax, (%rsi)
	movq	%rax, 160(%rsp)
.L592:
	addq	$12, %rdx
	cmpq	%r9, %rdx
	je	.L590
.L595:
	movq	4(%rdx), %rax
	cmpq	%r8, %rax
	jne	.L591
	cmpl	$-1, 100(%r12)
	sete	%al
	addq	$12, %rdx
	orl	%eax, %ecx
	cmpq	%r9, %rdx
	jne	.L595
.L590:
	testb	%cl, %cl
	jne	.L798
.L596:
	movq	168(%rsp), %rax
	testq	%rax, %rax
	jle	.L635
	movq	32(%rsp), %rsi
	lock addq	%rax, (%rsi)
.L635:
	movq	$0, 168(%rsp)
	cmpb	$0, 104(%rsp)
	je	.L799
.L639:
	movq	152(%rsp), %rdx
	movb	$1, 176(%rbp)
	movq	200(%rbp), %rax
	testq	%rdx, %rdx
	je	.L640
	testq	%rax, %rax
	je	.L641
	movq	%rdx, (%rax)
.L642:
	pxor	%xmm0, %xmm0
	movq	160(%rsp), %rax
	movups	%xmm0, 152(%rsp)
.L640:
	movq	$0, 152(%rbp)
	testq	%rax, %rax
	je	.L643
	movq	%r13, (%rax)
	movq	%r13, 200(%rbp)
	cmpb	$0, 208(%rbp)
	je	.L564
.L795:
	cmpb	$0, 104(%rsp)
	jne	.L800
.L566:
	data16	leaq	_ZN4asio6detail15keyword_tss_ptrINS0_10call_stackINS0_15task_io_serviceENS0_27task_io_service_thread_infoEE7contextEE6value_E@tlsgd(%rip), %rdi
	.value	0x6666
	rex64
	call	__tls_get_addr@PLT
	movq	128(%rsp), %rdx
	movq	152(%rsp), %rsi
	movq	%rdx, (%rax)
	testq	%rsi, %rsi
	jne	.L675
	jmp	.L680
	.p2align 4,,10
	.p2align 3
.L678:
	movq	40(%rsp), %rdi
	movq	8(%rsi), %rax
	xorl	%ecx, %ecx
	movq	%r15, %rdx
	movq	$0, (%rsi)
	movq	%rdi, 248(%rsp)
	xorl	%edi, %edi
	movl	$0, 240(%rsp)
	call	*%rax
	movq	152(%rsp), %rsi
	testq	%rsi, %rsi
	je	.L680
.L675:
	movq	(%rsi), %rax
	movq	%rax, 152(%rsp)
	testq	%rax, %rax
	jne	.L678
	movq	$0, 160(%rsp)
	jmp	.L678
	.p2align 4,,10
	.p2align 3
.L701:
	movl	$1, %ecx
	jmp	.L592
	.p2align 4,,10
	.p2align 3
.L593:
	movq	%rax, %xmm0
	punpcklqdq	%xmm0, %xmm0
	movups	%xmm0, 152(%rsp)
	jmp	.L592
	.p2align 4,,10
	.p2align 3
.L799:
	movq	96(%rsp), %rdi
	call	pthread_mutex_lock@PLT
	movb	$1, 104(%rsp)
	jmp	.L639
	.p2align 4,,10
	.p2align 3
.L798:
	leaq	48(%r12), %rax
	movq	%rax, %rdi
	movq	%rax, 24(%rsp)
	call	pthread_mutex_lock@PLT
	movq	104(%r12), %rbx
	testq	%rbx, %rbx
	je	.L602
	.p2align 4
	.p2align 3
.L597:
	movq	(%rbx), %rax
	movq	40(%rax), %rax
	cmpq	_ZN4asio6detail11timer_queueINS0_18chrono_time_traitsINSt6chrono3_V212steady_clockENS_11wait_traitsIS5_EEEEE16get_ready_timersERNS0_8op_queueINS0_25task_io_service_operationEEE@GOTPCREL(%rip), %rax
	jne	.L600
	movq	24(%rbx), %rax
	cmpq	%rax, 32(%rbx)
	je	.L603
	call	_ZNSt6chrono3_V212steady_clock3nowEv@PLT
	movq	32(%rbx), %rsi
	movq	24(%rbx), %rdx
	movq	%rax, 8(%rsp)
	cmpq	%rsi, %rdx
	je	.L603
	.p2align 4
	.p2align 3
.L604:
	movq	8(%rsp), %rax
	cmpq	(%rdx), %rax
	jl	.L603
	movq	8(%rdx), %rdi
	movq	(%rdi), %rax
	testq	%rax, %rax
	je	.L620
	movq	160(%rsp), %rcx
	testq	%rcx, %rcx
	je	.L605
	movq	%rax, (%rcx)
.L606:
	movq	8(%rdi), %rax
	pxor	%xmm1, %xmm1
	movq	%rax, 160(%rsp)
	movups	%xmm1, (%rdi)
.L620:
	movq	%rsi, %rcx
	movq	16(%rdi), %rax
	subq	%rdx, %rcx
	movq	%rcx, %r11
	sarq	$4, %r11
	cmpq	%r11, %rax
	jnb	.L607
	subq	$1, %r11
	subq	$16, %rsi
	cmpq	%r11, %rax
	je	.L801
	movq	%rax, %r9
	movdqu	-16(%rdx,%rcx), %xmm0
	salq	$4, %r9
	addq	%rdx, %r9
	movq	(%r9), %r8
	movq	8(%r9), %r10
	movups	%xmm0, (%r9)
	movq	%r8, -16(%rdx,%rcx)
	movq	%r10, -8(%rdx,%rcx)
	movq	8(%r9), %r8
	movq	%rax, 16(%r8)
	movq	%r11, 16(%r10)
	movq	%rsi, 32(%rbx)
	testq	%rax, %rax
	je	.L610
	leaq	-1(%rax), %rcx
	movq	(%r9), %r10
	movq	%rcx, %r11
	shrq	%r11
	salq	$4, %r11
	cmpq	%r10, (%rdx,%r11)
	jg	.L611
.L610:
	movq	%rsi, %r8
	leaq	1(%rax,%rax), %rcx
	subq	%rdx, %r8
	sarq	$4, %r8
	cmpq	%r8, %rcx
	jnb	.L614
	movq	(%r9), %r11
	movq	%rsi, (%rsp)
	movq	%r8, %rsi
	movq	%r11, 16(%rsp)
	movq	%rbp, %r11
	jmp	.L613
	.p2align 4,,10
	.p2align 3
.L802:
	movq	%rax, %r8
	movdqu	(%r9), %xmm0
	salq	$4, %r8
	addq	%rdx, %r8
	movq	8(%r8), %r10
	movups	%xmm0, (%r8)
	movq	%rbp, (%r9)
	movq	%r10, 8(%r9)
	movq	8(%r8), %r8
	movq	%rax, 16(%r8)
	leaq	1(%rcx,%rcx), %r8
	movq	%rcx, 16(%r10)
	cmpq	%rsi, %r8
	jnb	.L778
	movq	%rcx, %rax
	movq	%r8, %rcx
.L613:
	movq	%rcx, %r8
	leaq	1(%rcx), %rbp
	salq	$4, %r8
	leaq	(%rdx,%r8), %r9
	movq	%r8, %r10
	movq	(%r9), %r8
	cmpq	%rsi, %rbp
	je	.L612
	leaq	16(%rdx,%r10), %r10
	cmpq	%r8, (%r10)
	cmovle	(%r10), %r8
	cmovle	%r10, %r9
	cmovle	%rbp, %rcx
.L612:
	movq	16(%rsp), %rbp
	cmpq	%r8, %rbp
	jge	.L802
.L778:
	movq	(%rsp), %rsi
	movq	%r11, %rbp
.L614:
	movq	24(%rdi), %rax
	cmpq	16(%rbx), %rdi
	je	.L803
.L615:
	movq	32(%rdi), %rcx
	testq	%rcx, %rcx
	je	.L616
	movq	%rax, 24(%rcx)
	movq	24(%rdi), %rax
.L616:
	testq	%rax, %rax
	je	.L617
	pxor	%xmm2, %xmm2
	movq	%rcx, 32(%rax)
	movups	%xmm2, 24(%rdi)
	cmpq	%rsi, %rdx
	jne	.L604
	.p2align 4
	.p2align 3
.L603:
	movq	8(%rbx), %rbx
	testq	%rbx, %rbx
	jne	.L597
.L602:
	movl	100(%r12), %edi
	cmpl	$-1, %edi
	je	.L599
	movq	104(%r12), %rbx
	pxor	%xmm0, %xmm0
	movaps	%xmm0, 176(%rsp)
	testq	%rbx, %rbx
	je	.L621
	movl	$300000000, %r14d
	jmp	.L630
	.p2align 4,,10
	.p2align 3
.L806:
	testq	%rax, %rax
	js	.L625
.L787:
	subq	%rax, %rdx
	testq	%rdx, %rdx
	jle	.L707
.L628:
	movabsq	$2361183241434822607, %rax
	shrq	$3, %rdx
	mulq	%rdx
	shrq	$4, %rdx
	je	.L804
.L627:
	cmpq	%rdx, %r14
	cmovg	%rdx, %r14
.L623:
	movq	8(%rbx), %rbx
	testq	%rbx, %rbx
	je	.L805
.L630:
	movq	(%rbx), %rax
	movq	32(%rax), %rax
	cmpq	_ZNK4asio6detail11timer_queueINS0_18chrono_time_traitsINSt6chrono3_V212steady_clockENS_11wait_traitsIS5_EEEEE18wait_duration_usecEl@GOTPCREL(%rip), %rax
	jne	.L622
	movq	24(%rbx), %rax
	cmpq	%rax, 32(%rbx)
	je	.L623
	call	_ZNSt6chrono3_V212steady_clock3nowEv@PLT
	movq	24(%rbx), %rdx
	movq	(%rdx), %rdx
	testq	%rdx, %rdx
	jns	.L806
	testq	%rax, %rax
	js	.L787
.L707:
	movq	8(%rbx), %rbx
	xorl	%r14d, %r14d
	testq	%rbx, %rbx
	jne	.L630
	.p2align 4
	.p2align 3
.L805:
	movabsq	$4835703278458516699, %rax
	movl	100(%r12), %edi
	movl	$1, %ecx
	imulq	%r14
	movq	%r14, %rax
	sarq	$63, %rax
	sarq	$18, %rdx
	subq	%rax, %rdx
	movl	$1, %eax
	movq	%rdx, 192(%rsp)
	testq	%r14, %r14
	jne	.L807
.L633:
	movq	%rcx, 200(%rsp)
	leaq	176(%rsp), %rdx
	movl	%eax, %esi
	leaq	208(%rsp), %rcx
	call	timerfd_settime@PLT
.L599:
	movq	24(%rsp), %rdi
	call	pthread_mutex_unlock@PLT
	jmp	.L596
	.p2align 4,,10
	.p2align 3
.L808:
	leaq	-1(%rax), %rcx
	movq	%rcx, %r9
	shrq	%r9
	salq	$4, %r9
	cmpq	%r10, (%rdx,%r9)
	jle	.L614
.L611:
	movq	%rax, %r11
	movq	%rcx, %rax
	shrq	%rax
	movq	%r11, %r9
	movq	%rax, %rcx
	salq	$4, %r9
	salq	$4, %rcx
	movdqu	(%rdx,%rcx), %xmm0
	movups	%xmm0, (%rdx,%r9)
	movq	%r10, (%rdx,%rcx)
	movq	%r8, 8(%rdx,%rcx)
	movq	8(%rdx,%r9), %rcx
	movq	%r11, 16(%rcx)
	movq	%rax, 16(%r8)
	testq	%rax, %rax
	jne	.L808
	movq	24(%rdi), %rax
	cmpq	16(%rbx), %rdi
	jne	.L615
	.p2align 4
	.p2align 3
.L803:
	movq	%rax, 16(%rbx)
	jmp	.L615
	.p2align 4,,10
	.p2align 3
.L605:
	movq	%rax, 152(%rsp)
	jmp	.L606
	.p2align 4,,10
	.p2align 3
.L801:
	movq	%rsi, 32(%rbx)
	jmp	.L614
	.p2align 4,,10
	.p2align 3
.L600:
	leaq	152(%rsp), %rsi
	movq	%rbx, %rdi
.LEHB10:
	call	*%rax
	movq	8(%rbx), %rbx
	testq	%rbx, %rbx
	jne	.L597
	jmp	.L602
	.p2align 4,,10
	.p2align 3
.L607:
	movq	32(%rbx), %rsi
	jmp	.L614
	.p2align 4,,10
	.p2align 3
.L622:
	movq	%r14, %rsi
	movq	%rbx, %rdi
	call	*%rax
.LEHE10:
	movq	%rax, %r14
	jmp	.L623
	.p2align 4,,10
	.p2align 3
.L568:
	leaq	152(%rbp), %r13
	movq	$0, 200(%rbp)
	movq	$0, (%r14)
	cmpq	%r13, %r14
	jne	.L572
	movb	$0, 176(%rbp)
	cmpb	$0, 104(%rsp)
	je	.L577
.L797:
	movq	96(%rsp), %rdi
	call	pthread_mutex_unlock@PLT
	movq	144(%rbp), %r12
	movb	$0, 104(%rsp)
	cmpl	$-1, 100(%r12)
	jne	.L809
.L578:
	leaq	48(%r12), %rax
	movq	%rax, %rdi
	movq	%rax, (%rsp)
	call	pthread_mutex_lock@PLT
	testq	%rbx, %rbx
	jne	.L694
	movq	104(%r12), %rbx
	testq	%rbx, %rbx
	je	.L695
	movl	$300000, %r14d
	jmp	.L589
	.p2align 4,,10
	.p2align 3
.L812:
	testq	%rdx, %rdx
	js	.L584
.L785:
	subq	%rdx, %rax
	testq	%rax, %rax
	jle	.L699
.L587:
	movabsq	$4835703278458516699, %rsi
	mulq	%rsi
	shrq	$18, %rdx
	je	.L810
.L586:
	cmpq	%rdx, %r14
	cmovg	%rdx, %r14
.L582:
	movq	8(%rbx), %rbx
	testq	%rbx, %rbx
	je	.L811
.L589:
	movq	(%rbx), %rax
	movq	24(%rax), %rax
	cmpq	_ZNK4asio6detail11timer_queueINS0_18chrono_time_traitsINSt6chrono3_V212steady_clockENS_11wait_traitsIS5_EEEEE18wait_duration_msecEl@GOTPCREL(%rip), %rax
	jne	.L581
	movq	24(%rbx), %rax
	cmpq	%rax, 32(%rbx)
	je	.L582
	call	_ZNSt6chrono3_V212steady_clock3nowEv@PLT
	movq	%rax, %rdx
	movq	24(%rbx), %rax
	movq	(%rax), %rax
	testq	%rax, %rax
	jns	.L812
	testq	%rdx, %rdx
	js	.L785
.L699:
	movq	8(%rbx), %rbx
	xorl	%r14d, %r14d
	testq	%rbx, %rbx
	jne	.L589
.L811:
	movl	%r14d, %ecx
	jmp	.L579
	.p2align 4,,10
	.p2align 3
.L643:
	movq	%r13, %xmm0
	punpcklqdq	%xmm0, %xmm0
	movups	%xmm0, 192(%rbp)
	jmp	.L563
	.p2align 4,,10
	.p2align 3
.L804:
	movl	$1, %r14d
	jmp	.L623
	.p2align 4,,10
	.p2align 3
.L625:
	movabsq	$-9223372036854775808, %rdi
	cmpq	%rdi, %rax
	je	.L705
	movq	%rax, %r8
	subq	$1, %rdi
	subq	%rdx, %rdi
	negq	%r8
	subq	%rax, %rdx
	cmpq	%rdi, %r8
	jle	.L628
.L705:
	movabsq	$9223372036854775, %rdx
	jmp	.L627
	.p2align 4,,10
	.p2align 3
.L796:
	movq	136(%rbp), %rbx
	movq	%rbx, %rax
	orq	$1, %rax
	movq	%rax, 136(%rbp)
	cmpb	$0, 104(%rsp)
	jne	.L813
.L573:
	cmpq	$1, %rbx
	jbe	.L786
	leaq	88(%rbp), %rdi
	call	pthread_cond_signal@PLT
.L786:
	movq	144(%rbp), %r12
	xorl	%ecx, %ecx
	cmpl	$-1, 100(%r12)
	jne	.L575
	leaq	48(%r12), %rax
	movq	%rax, %rdi
	movq	%rax, (%rsp)
	call	pthread_mutex_lock@PLT
	xorl	%ecx, %ecx
.L579:
	movq	(%rsp), %rdi
	movl	%ecx, 8(%rsp)
	call	pthread_mutex_unlock@PLT
	movl	8(%rsp), %ecx
	jmp	.L575
	.p2align 4,,10
	.p2align 3
.L567:
	movq	136(%rbp), %rax
	leaq	88(%rbp), %rbx
	andq	$-2, %rax
	.p2align 4
	.p2align 3
.L664:
	addq	$2, %rax
	movq	96(%rsp), %rsi
	movq	%rbx, %rdi
	movq	%rax, 136(%rbp)
.LEHB11:
	call	pthread_cond_wait@PLT
.LEHE11:
	movq	136(%rbp), %rax
	subq	$2, %rax
	movq	%rax, 136(%rbp)
	testb	$1, %al
	je	.L664
	jmp	.L563
	.p2align 4,,10
	.p2align 3
.L641:
	movq	%rdx, 192(%rbp)
	jmp	.L642
	.p2align 4,,10
	.p2align 3
.L581:
	movq	%r14, %rsi
	movq	%rbx, %rdi
.LEHB12:
	call	*%rax
.LEHE12:
	movq	%rax, %r14
	jmp	.L582
	.p2align 4,,10
	.p2align 3
.L810:
	movl	$1, %r14d
	jmp	.L582
.L584:
	movabsq	$-9223372036854775808, %rsi
	cmpq	%rsi, %rdx
	je	.L697
	movabsq	$9223372036854775807, %rcx
	movq	%rdx, %r8
	subq	%rax, %rcx
	negq	%r8
	subq	%rdx, %rax
	cmpq	%rcx, %r8
	jle	.L587
.L697:
	movabsq	$9223372036854, %rdx
	jmp	.L586
.L807:
	imulq	$1000000, %rdx, %rdx
	movq	%r14, %rsi
	xorl	%eax, %eax
	subq	%rdx, %rsi
	imulq	$1000, %rsi, %rcx
	jmp	.L633
.L813:
	movq	96(%rsp), %rdi
	call	pthread_mutex_unlock@PLT
	movb	$0, 104(%rsp)
	jmp	.L573
.L569:
	movl	16(%r14), %r12d
	cmpb	$0, 40(%rbp)
	je	.L814
.L690:
	cmpb	$0, 104(%rsp)
	jne	.L815
.L650:
	leaq	80(%rsp), %rdx
	movq	%r12, %rcx
	movq	%r14, %rsi
	movq	%rbp, %rdi
.LEHB13:
	call	*8(%r14)
.LEHE13:
	movq	168(%rsp), %rax
	cmpq	$1, %rax
	jg	.L816
	je	.L653
	movq	32(%rsp), %rax
	lock subq	$1, (%rax)
	je	.L817
.L653:
	movq	152(%rsp), %rdx
	movzbl	104(%rsp), %eax
	movq	$0, 168(%rsp)
	testq	%rdx, %rdx
	je	.L657
	testb	%al, %al
	je	.L818
	movq	200(%rbp), %rax
	testq	%rax, %rax
	je	.L661
	movq	%rdx, (%rax)
	movq	160(%rsp), %rax
	pxor	%xmm0, %xmm0
	movups	%xmm0, 152(%rsp)
	movq	%rax, 200(%rbp)
	jmp	.L563
.L657:
	testb	%al, %al
	jne	.L563
	movq	96(%rsp), %rdi
	call	pthread_mutex_lock@PLT
	movb	$1, 104(%rsp)
	jmp	.L563
	.p2align 4,,10
	.p2align 3
.L617:
	pxor	%xmm3, %xmm3
	movups	%xmm3, 24(%rdi)
	cmpq	%rsi, %rdx
	jne	.L604
	movq	8(%rbx), %rbx
	testq	%rbx, %rbx
	jne	.L597
	jmp	.L602
.L816:
	movq	32(%rsp), %rdi
	subq	$1, %rax
	lock addq	%rax, (%rdi)
	jmp	.L653
.L621:
	movq	$300, 192(%rsp)
	xorl	%ecx, %ecx
	xorl	%eax, %eax
	jmp	.L633
.L694:
	xorl	%ecx, %ecx
	jmp	.L579
.L572:
	movl	16(%r14), %r12d
	cmpb	$0, 104(%rsp)
	je	.L650
.L815:
	movq	96(%rsp), %rdi
	call	pthread_mutex_unlock@PLT
	movb	$0, 104(%rsp)
	jmp	.L650
.L680:
	movq	144(%rsp), %rdi
	testq	%rdi, %rdi
	je	.L562
	call	_ZdlPv@PLT
.L562:
	movl	80(%rsp), %esi
	testl	%esi, %esi
	jne	.L819
	movq	48(%rsp), %rdi
	movq	%r15, %rsi
	movl	$8, 240(%rsp)
.LEHB14:
	call	_ZNK7openpal6Logger9IsEnabledERKNS_10LogFiltersE@PLT
	testb	%al, %al
	jne	.L820
.L688:
	movq	48(%rsp), %rax
	cmpq	$0, 96(%rax)
	je	.L689
	leaq	80(%rax), %rdi
	movq	104(%rax), %rax
	addq	$1784, %rsp
	.cfi_remember_state
	.cfi_def_cfa_offset 56
	popq	%rbx
	.cfi_def_cfa_offset 48
	popq	%rbp
	.cfi_def_cfa_offset 40
	popq	%r12
	.cfi_def_cfa_offset 32
	popq	%r13
	.cfi_def_cfa_offset 24
	popq	%r14
	.cfi_def_cfa_offset 16
	popq	%r15
	.cfi_def_cfa_offset 8
	jmp	*%rax
.L695:
	.cfi_restore_state
	movl	$300000, %ecx
	jmp	.L579
.L814:
	movq	136(%rbp), %rax
	movq	%rax, %rdx
	orq	$1, %rdx
	movq	%rdx, 136(%rbp)
	cmpq	$1, %rax
	jbe	.L645
	cmpb	$0, 104(%rsp)
	jne	.L821
.L646:
	leaq	88(%rbp), %rdi
	call	pthread_cond_signal@PLT
	jmp	.L650
.L818:
	movq	96(%rsp), %rdi
	call	pthread_mutex_lock@PLT
	movq	152(%rsp), %rax
	movb	$1, 104(%rsp)
	testq	%rax, %rax
	je	.L563
	movq	200(%rbp), %rdx
	testq	%rdx, %rdx
	je	.L662
	movq	%rax, (%rdx)
	movq	160(%rsp), %rax
	pxor	%xmm0, %xmm0
	movups	%xmm0, 152(%rsp)
	movq	%rax, 200(%rbp)
	jmp	.L563
.L645:
	cmpb	$0, 176(%rbp)
	jne	.L690
	movq	144(%rbp), %rax
	testq	%rax, %rax
	je	.L690
	movb	$1, 176(%rbp)
	leaq	88(%rax), %rdx
	movq	%r15, %rcx
	movl	$3, %esi
	movq	%rdx, 244(%rsp)
	movl	88(%rax), %edx
	movl	$-2147483639, 240(%rsp)
	movl	96(%rax), %edi
	call	epoll_ctl@PLT
	jmp	.L690
.L820:
	movl	68(%rsp), %ecx
	movq	%r15, %rdi
	leaq	.LC29(%rip), %rdx
	xorl	%eax, %eax
	movl	$120, %esi
	call	snprintf@PLT
	movq	48(%rsp), %rdi
	movq	%r15, %rcx
	leaq	208(%rsp), %rsi
	leaq	.LC30(%rip), %rdx
	movl	$8, 208(%rsp)
	call	_ZN7openpal6Logger3LogERKNS_10LogFiltersEPKcS5_@PLT
	jmp	.L688
.L794:
	leaq	48(%rbp), %rbx
	movq	%rbx, %rdi
	call	pthread_mutex_lock@PLT
	movb	$1, 208(%rbp)
	leaq	88(%rbp), %rdi
	orq	$1, 136(%rbp)
	call	pthread_cond_broadcast@PLT
	cmpb	$0, 176(%rbp)
	jne	.L561
	movq	144(%rbp), %rax
	testq	%rax, %rax
	je	.L561
	movb	$1, 176(%rbp)
	leaq	88(%rax), %rdx
	movq	%r15, %rcx
	movl	$3, %esi
	movq	%rdx, 244(%rsp)
	movl	88(%rax), %edx
	movl	$-2147483639, 240(%rsp)
	movl	96(%rax), %edi
	call	epoll_ctl@PLT
.L561:
	movq	%rbx, %rdi
	call	pthread_mutex_unlock@PLT
	jmp	.L562
.L793:
	movl	68(%rsp), %ecx
	movq	%r15, %rdi
	leaq	.LC27(%rip), %rdx
	xorl	%eax, %eax
	movl	$120, %esi
	call	snprintf@PLT
	movq	48(%rsp), %rdi
	movq	%r15, %rcx
	leaq	208(%rsp), %rsi
	leaq	.LC28(%rip), %rdx
	movl	$8, 208(%rsp)
	call	_ZN7openpal6Logger3LogERKNS_10LogFiltersEPKcS5_@PLT
	jmp	.L559
.L661:
	movq	160(%rsp), %rax
	pxor	%xmm0, %xmm0
	movq	%rdx, 192(%rbp)
	movups	%xmm0, 152(%rsp)
	movq	%rax, 200(%rbp)
	jmp	.L563
.L817:
	movq	56(%rsp), %rdi
	call	pthread_mutex_lock@PLT
	movb	$1, 208(%rbp)
	leaq	88(%rbp), %rdi
	orq	$1, 136(%rbp)
	call	pthread_cond_broadcast@PLT
	cmpb	$0, 176(%rbp)
	jne	.L656
	movq	144(%rbp), %rax
	testq	%rax, %rax
	je	.L656
	movb	$1, 176(%rbp)
	leaq	88(%rax), %rdx
	movq	%r15, %rcx
	movl	$3, %esi
	movq	%rdx, 244(%rsp)
	movl	88(%rax), %edx
	movl	$-2147483639, 240(%rsp)
	movl	96(%rax), %edi
	call	epoll_ctl@PLT
.L656:
	movq	56(%rsp), %rdi
	call	pthread_mutex_unlock@PLT
	jmp	.L653
.L800:
	movq	96(%rsp), %rdi
	call	pthread_mutex_unlock@PLT
	jmp	.L566
.L821:
	movq	96(%rsp), %rdi
	call	pthread_mutex_unlock@PLT
	movb	$0, 104(%rsp)
	jmp	.L646
.L819:
	leaq	80(%rsp), %rdi
	call	_ZN4asio6detail14do_throw_errorERKSt10error_code@PLT
.LEHE14:
	.p2align 4,,10
	.p2align 3
.L662:
	movq	%rax, 192(%rbp)
	movq	160(%rsp), %rax
	pxor	%xmm0, %xmm0
	movups	%xmm0, 152(%rsp)
	movq	%rax, 200(%rbp)
	jmp	.L563
.L710:
	movq	%rax, %rbx
	jmp	.L673
.L712:
	movq	%rax, %rbx
	jmp	.L638
.L713:
	movq	%rax, %rbx
	jmp	.L636
.L711:
	movq	%rax, %rbx
	jmp	.L674
.L714:
	movq	%rax, %rbx
	jmp	.L637
	.section	.gcc_except_table,"a",@progbits
.LLSDA7076:
	.byte	0xff
	.byte	0xff
	.byte	0x1
	.uleb128 .LLSDACSE7076-.LLSDACSB7076
.LLSDACSB7076:
	.uleb128 .LEHB8-.LFB7076
	.uleb128 .LEHE8-.LEHB8
	.uleb128 0
	.uleb128 0
	.uleb128 .LEHB9-.LFB7076
	.uleb128 .LEHE9-.LEHB9
	.uleb128 .L714-.LFB7076
	.uleb128 0
	.uleb128 .LEHB10-.LFB7076
	.uleb128 .LEHE10-.LEHB10
	.uleb128 .L712-.LFB7076
	.uleb128 0
	.uleb128 .LEHB11-.LFB7076
	.uleb128 .LEHE11-.LEHB11
	.uleb128 .L710-.LFB7076
	.uleb128 0
	.uleb128 .LEHB12-.LFB7076
	.uleb128 .LEHE12-.LEHB12
	.uleb128 .L713-.LFB7076
	.uleb128 0
	.uleb128 .LEHB13-.LFB7076
	.uleb128 .LEHE13-.LEHB13
	.uleb128 .L711-.LFB7076
	.uleb128 0
	.uleb128 .LEHB14-.LFB7076
	.uleb128 .LEHE14-.LEHB14
	.uleb128 0
	.uleb128 0
.LLSDACSE7076:
	.text
	.cfi_endproc
	.section	.text.unlikely
	.cfi_startproc
	.cfi_personality 0x9b,DW.ref.__gxx_personality_v0
	.cfi_lsda 0x1b,.LLSDAC7076
	.type	_ZN7asiopal10ThreadPool3RunEi.cold, @function
_ZN7asiopal10ThreadPool3RunEi.cold:
.LFSB7076:
.L638:
	.cfi_def_cfa_offset 1840
	.cfi_offset 3, -56
	.cfi_offset 6, -48
	.cfi_offset 12, -40
	.cfi_offset 13, -32
	.cfi_offset 14, -24
	.cfi_offset 15, -16
	movq	24(%rsp), %rdi
	call	pthread_mutex_unlock@PLT
.L637:
	movq	168(%rsp), %rax
	testq	%rax, %rax
	jg	.L822
.L666:
	xorl	%r8d, %r8d
	movq	%r8, 168(%rsp)
	cmpb	$0, 104(%rsp)
	je	.L823
.L667:
	movq	152(%rsp), %rax
	movb	$1, 176(%rbp)
	testq	%rax, %rax
	jne	.L824
.L668:
	movq	200(%rbp), %rax
	xorl	%edi, %edi
	movq	%rdi, 152(%rbp)
	testq	%rax, %rax
	jne	.L825
	movq	%r13, %xmm0
	punpcklqdq	%xmm0, %xmm0
	movups	%xmm0, 192(%rbp)
.L673:
	cmpb	$0, 104(%rsp)
	je	.L683
	movq	96(%rsp), %rdi
	call	pthread_mutex_unlock@PLT
.L683:
	data16	leaq	_ZN4asio6detail15keyword_tss_ptrINS0_10call_stackINS0_15task_io_serviceENS0_27task_io_service_thread_infoEE7contextEE6value_E@tlsgd(%rip), %rdi
	.value	0x6666
	rex64
	call	__tls_get_addr@PLT
	movq	128(%rsp), %rdx
	leaq	208(%rsp), %rbp
	movq	%rdx, (%rax)
.L686:
	movq	152(%rsp), %rsi
	testq	%rsi, %rsi
	je	.L684
	movq	(%rsi), %rax
	movq	%rax, 152(%rsp)
	testq	%rax, %rax
	jne	.L685
	xorl	%ecx, %ecx
	movq	%rcx, 160(%rsp)
.L685:
	movq	40(%rsp), %rdi
	xorl	%eax, %eax
	xorl	%edx, %edx
	xorl	%ecx, %ecx
	movq	%rax, (%rsi)
	movq	8(%rsi), %rax
	movl	%edx, 208(%rsp)
	movq	%rbp, %rdx
	movq	%rdi, 216(%rsp)
	xorl	%edi, %edi
	call	*%rax
	jmp	.L686
.L822:
	lock addq	%rax, 184(%rbp)
	jmp	.L666
.L823:
	movq	96(%rsp), %rdi
	call	pthread_mutex_lock@PLT
	movb	$1, 104(%rsp)
	jmp	.L667
.L824:
	movq	200(%rbp), %rdx
	testq	%rdx, %rdx
	je	.L669
	movq	%rax, (%rdx)
.L670:
	movq	160(%rsp), %rax
	pxor	%xmm0, %xmm0
	movups	%xmm0, 152(%rsp)
	movq	%rax, 200(%rbp)
	jmp	.L668
.L825:
	movq	%r13, (%rax)
	movq	%r13, 200(%rbp)
	jmp	.L673
.L689:
.LEHB15:
	call	_ZSt25__throw_bad_function_callv@PLT
.L636:
	movq	(%rsp), %rdi
	call	pthread_mutex_unlock@PLT
	jmp	.L637
.L674:
	leaq	96(%rsp), %rax
	movq	%rbp, %xmm0
	movq	%r15, %rdi
	movq	%rax, %xmm4
	movq	72(%rsp), %rax
	punpcklqdq	%xmm4, %xmm0
	movq	%rax, 256(%rsp)
	movaps	%xmm0, 240(%rsp)
	call	_ZN4asio6detail15task_io_service12work_cleanupD1Ev@PLT
	jmp	.L673
.L684:
	movq	144(%rsp), %rdi
	testq	%rdi, %rdi
	je	.L687
	call	_ZdlPv@PLT
.L687:
	movq	%rbx, %rdi
	call	_Unwind_Resume@PLT
.LEHE15:
.L669:
	movq	%rax, 192(%rbp)
	jmp	.L670
	.cfi_endproc
.LFE7076:
	.section	.gcc_except_table
.LLSDAC7076:
	.byte	0xff
	.byte	0xff
	.byte	0x1
	.uleb128 .LLSDACSEC7076-.LLSDACSBC7076
.LLSDACSBC7076:
	.uleb128 .LEHB15-.LCOLDB31
	.uleb128 .LEHE15-.LEHB15
	.uleb128 0
	.uleb128 0
.LLSDACSEC7076:
	.section	.text.unlikely
	.text
	.size	_ZN7asiopal10ThreadPool3RunEi, .-_ZN7asiopal10ThreadPool3RunEi
	.section	.text.unlikely
	.size	_ZN7asiopal10ThreadPool3RunEi.cold, .-_ZN7asiopal10ThreadPool3RunEi.cold
.LCOLDE31:
	.text
.LHOTE31:
	.align 2
	.p2align 4
	.type	_ZNSt6thread11_State_implINS_8_InvokerISt5tupleIJZN7asiopal10ThreadPoolC4ERKN7openpal6LoggerERKSt10shared_ptrINS3_2IOEEjSt8functionIFvvEESG_EUlvE_EEEEE6_M_runEv, @function
_ZNSt6thread11_State_implINS_8_InvokerISt5tupleIJZN7asiopal10ThreadPoolC4ERKN7openpal6LoggerERKSt10shared_ptrINS3_2IOEEjSt8functionIFvvEESG_EUlvE_EEEEE6_M_runEv:
.LFB9633:
	.cfi_startproc
	movl	16(%rdi), %esi
	movq	8(%rdi), %rdi
	jmp	_ZN7asiopal10ThreadPool3RunEi@PLT
	.cfi_endproc
.LFE9633:
	.size	_ZNSt6thread11_State_implINS_8_InvokerISt5tupleIJZN7asiopal10ThreadPoolC4ERKN7openpal6LoggerERKSt10shared_ptrINS3_2IOEEjSt8functionIFvvEESG_EUlvE_EEEEE6_M_runEv, .-_ZNSt6thread11_State_implINS_8_InvokerISt5tupleIJZN7asiopal10ThreadPoolC4ERKN7openpal6LoggerERKSt10shared_ptrINS3_2IOEEjSt8functionIFvvEESG_EUlvE_EEEEE6_M_runEv
	.section	.rodata._ZN4asio6detail14do_throw_errorERKSt10error_codePKc.str1.1,"aMS",@progbits,1
.LC32:
	.string	": "
	.section	.text._ZN4asio6detail14do_throw_errorERKSt10error_codePKc,"axG",@progbits,_ZN4asio6detail14do_throw_errorERKSt10error_codePKc,comdat
	.p2align 4
	.weak	_ZN4asio6detail14do_throw_errorERKSt10error_codePKc
	.type	_ZN4asio6detail14do_throw_errorERKSt10error_codePKc, @function
_ZN4asio6detail14do_throw_errorERKSt10error_codePKc:
.LFB2733:
	.cfi_startproc
	.cfi_personality 0x9b,DW.ref.__gxx_personality_v0
	.cfi_lsda 0x1b,.LLSDA2733
	pushq	%r15
	.cfi_def_cfa_offset 16
	.cfi_offset 15, -16
	pushq	%r14
	.cfi_def_cfa_offset 24
	.cfi_offset 14, -24
	pushq	%r13
	.cfi_def_cfa_offset 32
	.cfi_offset 13, -32
	pushq	%r12
	.cfi_def_cfa_offset 40
	.cfi_offset 12, -40
	movq	%rsi, %r12
	pushq	%rbp
	.cfi_def_cfa_offset 48
	.cfi_offset 6, -48
	pushq	%rbx
	.cfi_def_cfa_offset 56
	.cfi_offset 3, -56
	subq	$152, %rsp
	.cfi_def_cfa_offset 208
	movq	8(%rdi), %rbx
	movl	(%rdi), %r14d
	leaq	48(%rsp), %rdi
	movq	(%rbx), %rax
	movl	%r14d, %edx
	movq	%rbx, %rsi
.LEHB16:
	call	*32(%rax)
.LEHE16:
	movl	$2, %r8d
	xorl	%edx, %edx
	xorl	%esi, %esi
	leaq	.LC32(%rip), %rcx
	leaq	48(%rsp), %rdi
.LEHB17:
	call	_ZNSt7__cxx1112basic_stringIcSt11char_traitsIcESaIcEE10_M_replaceEmmPKcm@PLT
.LEHE17:
	leaq	96(%rsp), %rbp
	leaq	16(%rax), %rdx
	movq	%rbp, 80(%rsp)
	movq	(%rax), %rcx
	cmpq	%rdx, %rcx
	je	.L844
	movq	%rcx, 80(%rsp)
	movq	16(%rax), %rcx
	movq	%rcx, 96(%rsp)
.L829:
	movq	8(%rax), %rcx
	movq	%rdx, (%rax)
	movq	%r12, %rdi
	movq	$0, 8(%rax)
	movb	$0, 16(%rax)
	movq	%rcx, 88(%rsp)
	call	strlen@PLT
	movq	%r12, %rcx
	xorl	%edx, %edx
	xorl	%esi, %esi
	movq	%rax, %r8
	leaq	80(%rsp), %rax
	movq	%rax, %rdi
	movq	%rax, 8(%rsp)
.LEHB18:
	call	_ZNSt7__cxx1112basic_stringIcSt11char_traitsIcESaIcEE10_M_replaceEmmPKcm@PLT
.LEHE18:
	leaq	128(%rsp), %r15
	leaq	16(%rax), %r8
	movq	%r15, 112(%rsp)
	movq	(%rax), %rcx
	cmpq	%r8, %rcx
	je	.L845
	movq	%rcx, 112(%rsp)
	movq	16(%rax), %rcx
	movq	%rcx, 128(%rsp)
.L831:
	movq	8(%rax), %rcx
	movq	%r8, (%rax)
	leaq	16(%rsp), %r12
	movq	$0, 8(%rax)
	movq	%r12, %rdi
	movb	$0, 16(%rax)
	leaq	112(%rsp), %rax
	movq	%rax, %rsi
	movq	%rcx, 120(%rsp)
	movq	%rax, (%rsp)
.LEHB19:
	call	_ZNSt13runtime_errorC2ERKNSt7__cxx1112basic_stringIcSt11char_traitsIcESaIcEEE@PLT
.LEHE19:
	movq	112(%rsp), %rdi
	cmpq	%r15, %rdi
	je	.L832
	movq	128(%rsp), %rax
	leaq	1(%rax), %rsi
	call	_ZdlPvm@PLT
.L832:
	movq	80(%rsp), %rdi
	cmpq	%rbp, %rdi
	je	.L833
	movq	96(%rsp), %rax
	leaq	1(%rax), %rsi
	call	_ZdlPvm@PLT
.L833:
	movq	48(%rsp), %rdi
	leaq	64(%rsp), %rax
	cmpq	%rax, %rdi
	je	.L834
	movq	64(%rsp), %rax
	leaq	1(%rax), %rsi
	call	_ZdlPvm@PLT
.L834:
	movq	_ZTVSt12system_error@GOTPCREL(%rip), %rax
	movq	%r12, %rdi
	movl	%r14d, 32(%rsp)
	movq	%rbx, 40(%rsp)
	addq	$16, %rax
	movq	%rax, 16(%rsp)
.LEHB20:
	call	_ZN4asio6detail15throw_exceptionISt12system_errorEEvRKT_@PLT
.LEHE20:
.L844:
	movq	8(%rax), %rcx
	movq	%rbp, %rdi
	movq	%rdx, %rsi
	addl	$1, %ecx
	rep movsb
	jmp	.L829
.L845:
	movq	8(%rax), %rcx
	movq	%r15, %rdi
	movq	%r8, %rsi
	addl	$1, %ecx
	rep movsb
	jmp	.L831
.L842:
	movq	%rax, %rbx
	jmp	.L835
.L841:
	movq	%rax, %rbx
	jmp	.L836
.L835:
	movq	(%rsp), %rdi
	call	_ZNSt7__cxx1112basic_stringIcSt11char_traitsIcESaIcEE10_M_disposeEv@PLT
.L836:
	movq	8(%rsp), %rdi
	call	_ZNSt7__cxx1112basic_stringIcSt11char_traitsIcESaIcEE10_M_disposeEv@PLT
.L837:
	leaq	48(%rsp), %rdi
	call	_ZNSt7__cxx1112basic_stringIcSt11char_traitsIcESaIcEE10_M_disposeEv@PLT
	movq	%rbx, %rdi
.LEHB21:
	call	_Unwind_Resume@PLT
.L839:
	movq	%rax, %rbx
	jmp	.L838
.L840:
	movq	%rax, %rbx
	jmp	.L837
.L838:
	movq	%r12, %rdi
	call	_ZNSt12system_errorD1Ev@PLT
	movq	%rbx, %rdi
	call	_Unwind_Resume@PLT
.LEHE21:
	.cfi_endproc
.LFE2733:
	.section	.gcc_except_table
.LLSDA2733:
	.byte	0xff
	.byte	0xff
	.byte	0x1
	.uleb128 .LLSDACSE2733-.LLSDACSB2733
.LLSDACSB2733:
	.uleb128 .LEHB16-.LFB2733
	.uleb128 .LEHE16-.LEHB16
	.uleb128 0
	.uleb128 0
	.uleb128 .LEHB17-.LFB2733
	.uleb128 .LEHE17-.LEHB17
	.uleb128 .L840-.LFB2733
	.uleb128 0
	.uleb128 .LEHB18-.LFB2733
	.uleb128 .LEHE18-.LEHB18
	.uleb128 .L841-.LFB2733
	.uleb128 0
	.uleb128 .LEHB19-.LFB2733
	.uleb128 .LEHE19-.LEHB19
	.uleb128 .L842-.LFB2733
	.uleb128 0
	.uleb128 .LEHB20-.LFB2733
	.uleb128 .LEHE20-.LEHB20
	.uleb128 .L839-.LFB2733
	.uleb128 0
	.uleb128 .LEHB21-.LFB2733
	.uleb128 .LEHE21-.LEHB21
	.uleb128 0
	.uleb128 0
.LLSDACSE2733:
	.section	.text._ZN4asio6detail14do_throw_errorERKSt10error_codePKc,"axG",@progbits,_ZN4asio6detail14do_throw_errorERKSt10error_codePKc,comdat
	.size	_ZN4asio6detail14do_throw_errorERKSt10error_codePKc, .-_ZN4asio6detail14do_throw_errorERKSt10error_codePKc
	.section	.rodata._ZN4asio6detail13epoll_reactor12fork_serviceENS_10io_service10fork_eventE.str1.1,"aMS",@progbits,1
.LC33:
	.string	"epoll"
.LC35:
	.string	"eventfd_select_interrupter"
.LC36:
	.string	"epoll re-registration"
	.section	.text._ZN4asio6detail13epoll_reactor12fork_serviceENS_10io_service10fork_eventE,"axG",@progbits,_ZN4asio6detail13epoll_reactor12fork_serviceENS_10io_service10fork_eventE,comdat
	.align 2
	.p2align 4
	.weak	_ZN4asio6detail13epoll_reactor12fork_serviceENS_10io_service10fork_eventE
	.type	_ZN4asio6detail13epoll_reactor12fork_serviceENS_10io_service10fork_eventE, @function
_ZN4asio6detail13epoll_reactor12fork_serviceENS_10io_service10fork_eventE:
.LFB3415:
	.cfi_startproc
	.cfi_personality 0x9b,DW.ref.__gxx_personality_v0
	.cfi_lsda 0x1b,.LLSDA3415
	cmpl	$2, %esi
	je	.L963
	ret
	.p2align 4,,10
	.p2align 3
.L963:
	pushq	%r15
	.cfi_def_cfa_offset 16
	.cfi_offset 15, -16
	pushq	%r14
	.cfi_def_cfa_offset 24
	.cfi_offset 14, -24
	pushq	%r13
	.cfi_def_cfa_offset 32
	.cfi_offset 13, -32
	pushq	%r12
	.cfi_def_cfa_offset 40
	.cfi_offset 12, -40
	pushq	%rbp
	.cfi_def_cfa_offset 48
	.cfi_offset 6, -48
	pushq	%rbx
	.cfi_def_cfa_offset 56
	.cfi_offset 3, -56
	movq	%rdi, %rbx
	subq	$104, %rsp
	.cfi_def_cfa_offset 160
	movl	96(%rdi), %edi
	cmpl	$-1, %edi
	jne	.L964
.L848:
	movl	$-1, 96(%rbx)
	movl	$524288, %edi
	call	epoll_create1@PLT
	movl	%eax, %ebp
	cmpl	$-1, %eax
	je	.L965
.L849:
	movl	100(%rbx), %edi
	movl	%ebp, 96(%rbx)
	cmpl	$-1, %edi
	jne	.L966
.L855:
	movl	$-1, 100(%rbx)
	movl	$524288, %esi
	movl	$1, %edi
	call	timerfd_create@PLT
	movl	%eax, %ebp
	cmpl	$-1, %eax
	je	.L967
.L856:
	movl	92(%rbx), %eax
	movl	%ebp, 100(%rbx)
	cmpl	$-1, %eax
	je	.L858
	movl	88(%rbx), %edi
	cmpl	%edi, %eax
	jne	.L968
.L859:
.LEHB22:
	call	close@PLT
.L860:
	movq	$-1, 88(%rbx)
	movl	$526336, %esi
	xorl	%edi, %edi
	call	eventfd@PLT
	movd	%eax, %xmm1
	movl	%eax, %edx
	pshufd	$0xe0, %xmm1, %xmm0
	movq	%xmm0, 88(%rbx)
	cmpl	$-1, %eax
	je	.L969
.L861:
	movl	96(%rbx), %edi
	leaq	20(%rsp), %rbp
	leaq	88(%rbx), %r12
	movl	$1, %esi
	movq	%rbp, %rcx
	movl	$-2147483639, 20(%rsp)
	movq	%r12, 24(%rsp)
	call	epoll_ctl@PLT
	leaq	64(%rsp), %rax
	movl	92(%rbx), %edi
	movl	$8, %edx
	movq	%rax, %rsi
	movq	%rax, 8(%rsp)
	movq	$1, 64(%rsp)
	call	write@PLT
.LEHE22:
	movl	100(%rbx), %edx
	cmpl	$-1, %edx
	jne	.L970
.L869:
	movl	88(%rbx), %edx
	movl	96(%rbx), %edi
	movl	$3, %esi
	movq	%r12, 68(%rsp)
	movq	8(%rsp), %rcx
	movl	$-2147483639, 64(%rsp)
	call	epoll_ctl@PLT
.L883:
	leaq	120(%rbx), %r14
	movq	%r14, %rdi
	call	pthread_mutex_lock@PLT
	movq	160(%rbx), %r13
	testq	%r13, %r13
	jne	.L884
	jmp	.L890
	.p2align 4,,10
	.p2align 3
.L885:
	movq	24(%r13), %r13
	testq	%r13, %r13
	je	.L890
.L884:
	movl	92(%r13), %eax
	movl	88(%r13), %edx
	movq	%rbp, %rcx
	movl	$1, %esi
	movl	96(%rbx), %edi
	movq	%r13, 24(%rsp)
	movl	%eax, 20(%rsp)
	call	epoll_ctl@PLT
	testl	%eax, %eax
	je	.L885
	movq	_ZGVZN4asio15system_categoryEvE8instance@GOTPCREL(%rip), %r15
	movzbl	(%r15), %eax
	testb	%al, %al
	je	.L886
	movq	_ZZN4asio15system_categoryEvE8instance@GOTPCREL(%rip), %r12
.L887:
	call	__errno_location@PLT
	movq	%r12, 72(%rsp)
	movl	(%rax), %eax
	movl	%eax, 64(%rsp)
	testl	%eax, %eax
	je	.L885
	movq	8(%rsp), %rdi
	leaq	.LC36(%rip), %rsi
.LEHB23:
	call	_ZN4asio6detail14do_throw_errorERKSt10error_codePKc@PLT
.LEHE23:
	.p2align 4,,10
	.p2align 3
.L968:
	movl	%eax, %edi
.LEHB24:
	call	close@PLT
.L858:
	movl	88(%rbx), %edi
	cmpl	$-1, %edi
	je	.L860
	jmp	.L859
	.p2align 4,,10
	.p2align 3
.L970:
	movl	96(%rbx), %edi
	leaq	100(%rbx), %rax
	movq	%rbp, %rcx
	movl	$1, %esi
	movl	$9, 20(%rsp)
	movq	%rax, 24(%rsp)
	call	epoll_ctl@PLT
	movl	100(%rbx), %edi
	cmpl	$-1, %edi
	je	.L869
	movq	104(%rbx), %r14
	pxor	%xmm0, %xmm0
	movaps	%xmm0, 32(%rsp)
	testq	%r14, %r14
	je	.L870
	movq	_ZNK4asio6detail11timer_queueINS0_18chrono_time_traitsINSt6chrono3_V212steady_clockENS_11wait_traitsIS5_EEEEE18wait_duration_usecEl@GOTPCREL(%rip), %r12
	movl	$300000000, %r15d
	movabsq	$2361183241434822607, %r13
	jmp	.L879
	.p2align 4,,10
	.p2align 3
.L973:
	testq	%rax, %rax
	js	.L874
.L962:
	subq	%rax, %rdx
	testq	%rdx, %rdx
	jle	.L897
.L877:
	shrq	$3, %rdx
	movq	%rdx, %rax
	mulq	%r13
	shrq	$4, %rdx
	je	.L971
.L876:
	cmpq	%rdx, %r15
	cmovg	%rdx, %r15
.L872:
	movq	8(%r14), %r14
	testq	%r14, %r14
	je	.L972
.L879:
	movq	(%r14), %rax
	movq	32(%rax), %rax
	cmpq	%r12, %rax
	jne	.L871
	movq	24(%r14), %rax
	cmpq	%rax, 32(%r14)
	je	.L872
	call	_ZNSt6chrono3_V212steady_clock3nowEv@PLT
	movq	24(%r14), %rdx
	movq	(%rdx), %rdx
	testq	%rdx, %rdx
	jns	.L973
	testq	%rax, %rax
	js	.L962
.L897:
	movq	8(%r14), %r14
	xorl	%r15d, %r15d
	testq	%r14, %r14
	jne	.L879
	.p2align 4
	.p2align 3
.L972:
	movabsq	$4835703278458516699, %rax
	movl	100(%rbx), %edi
	movl	$1, %esi
	imulq	%r15
	movq	%r15, %rax
	sarq	$63, %rax
	sarq	$18, %rdx
	subq	%rax, %rdx
	movl	$1, %eax
	movq	%rdx, 48(%rsp)
	testq	%r15, %r15
	jne	.L974
.L882:
	movq	8(%rsp), %rcx
	leaq	32(%rsp), %rdx
	movq	%rax, 56(%rsp)
	call	timerfd_settime@PLT
	jmp	.L883
	.p2align 4,,10
	.p2align 3
.L966:
	call	close@PLT
	jmp	.L855
	.p2align 4,,10
	.p2align 3
.L964:
	call	close@PLT
	jmp	.L848
	.p2align 4,,10
	.p2align 3
.L886:
	movq	%r15, %rdi
	call	__cxa_guard_acquire@PLT
	movq	_ZZN4asio15system_categoryEvE8instance@GOTPCREL(%rip), %r12
	testl	%eax, %eax
	je	.L887
	movq	_ZN4asio6detail15system_categoryD1Ev@GOTPCREL(%rip), %rdi
	leaq	__dso_handle(%rip), %rdx
	movq	%r12, %rsi
	call	__cxa_atexit@PLT
	movq	%r15, %rdi
	call	__cxa_guard_release@PLT
	jmp	.L887
	.p2align 4,,10
	.p2align 3
.L890:
	movq	%r14, %rdi
	call	pthread_mutex_unlock@PLT
	addq	$104, %rsp
	.cfi_remember_state
	.cfi_def_cfa_offset 56
	popq	%rbx
	.cfi_def_cfa_offset 48
	popq	%rbp
	.cfi_def_cfa_offset 40
	popq	%r12
	.cfi_def_cfa_offset 32
	popq	%r13
	.cfi_def_cfa_offset 24
	popq	%r14
	.cfi_def_cfa_offset 16
	popq	%r15
	.cfi_def_cfa_offset 8
	ret
	.p2align 4,,10
	.p2align 3
.L871:
	.cfi_restore_state
	movq	%r15, %rsi
	movq	%r14, %rdi
	call	*%rax
	movq	%rax, %r15
	jmp	.L872
	.p2align 4,,10
	.p2align 3
.L971:
	movl	$1, %r15d
	jmp	.L872
	.p2align 4,,10
	.p2align 3
.L874:
	movabsq	$-9223372036854775808, %rcx
	cmpq	%rcx, %rax
	je	.L895
	movq	%rax, %rsi
	subq	$1, %rcx
	subq	%rdx, %rcx
	negq	%rsi
	subq	%rax, %rdx
	cmpq	%rcx, %rsi
	jle	.L877
.L895:
	movabsq	$9223372036854775, %rdx
	jmp	.L876
	.p2align 4,,10
	.p2align 3
.L967:
	call	__errno_location@PLT
	cmpl	$22, (%rax)
	jne	.L856
	xorl	%esi, %esi
	movl	$1, %edi
	call	timerfd_create@PLT
	movl	%eax, %ebp
	cmpl	$-1, %eax
	je	.L856
	movl	%eax, %edi
	movl	$1, %edx
	movl	$2, %esi
	xorl	%eax, %eax
	call	fcntl@PLT
	jmp	.L856
	.p2align 4,,10
	.p2align 3
.L965:
	call	__errno_location@PLT
	movq	%rax, %r13
	movl	(%rax), %eax
	subl	$22, %eax
	andl	$-17, %eax
	je	.L975
.L850:
	movq	_ZGVZN4asio15system_categoryEvE8instance@GOTPCREL(%rip), %r14
	movzbl	(%r14), %eax
	testb	%al, %al
	je	.L851
	movq	_ZZN4asio15system_categoryEvE8instance@GOTPCREL(%rip), %r12
.L852:
	movl	0(%r13), %eax
	movq	%r12, 72(%rsp)
	movl	%eax, 64(%rsp)
	testl	%eax, %eax
	je	.L849
	leaq	64(%rsp), %rdi
	leaq	.LC33(%rip), %rsi
	call	_ZN4asio6detail14do_throw_errorERKSt10error_codePKc@PLT
	.p2align 4,,10
	.p2align 3
.L969:
	call	__errno_location@PLT
	movq	%rax, %rbp
	cmpl	$22, (%rax)
	je	.L976
.L863:
	leaq	32(%rsp), %rdi
	call	pipe@PLT
	testl	%eax, %eax
	je	.L892
	movq	_ZGVZN4asio15system_categoryEvE8instance@GOTPCREL(%rip), %r13
	movzbl	0(%r13), %eax
	testb	%al, %al
	je	.L865
	movq	_ZZN4asio15system_categoryEvE8instance@GOTPCREL(%rip), %r12
.L866:
	movl	0(%rbp), %eax
	movq	%r12, 72(%rsp)
	movl	%eax, 64(%rsp)
	testl	%eax, %eax
	jne	.L977
.L864:
	movl	88(%rbx), %edx
	jmp	.L861
	.p2align 4,,10
	.p2align 3
.L974:
	imulq	$1000000, %rdx, %rdx
	xorl	%esi, %esi
	subq	%rdx, %r15
	imulq	$1000, %r15, %rax
	jmp	.L882
.L892:
	movl	32(%rsp), %edi
	movl	$2048, %edx
	movl	$4, %esi
	xorl	%eax, %eax
	movl	%edi, 88(%rbx)
	call	fcntl@PLT
	movl	88(%rbx), %edi
	movl	$1, %edx
	xorl	%eax, %eax
	movl	$2, %esi
	call	fcntl@PLT
	movl	36(%rsp), %edi
	movl	$2048, %edx
	xorl	%eax, %eax
	movl	$4, %esi
	movl	%edi, 92(%rbx)
	call	fcntl@PLT
	movl	92(%rbx), %edi
	movl	$1, %edx
	xorl	%eax, %eax
	movl	$2, %esi
	call	fcntl@PLT
	jmp	.L864
.L975:
	movl	$20000, %edi
	call	epoll_create@PLT
	cmpl	$-1, %eax
	je	.L850
	movl	%eax, %edi
	movl	%eax, %ebp
	movl	$1, %edx
	movl	$2, %esi
	xorl	%eax, %eax
	call	fcntl@PLT
	jmp	.L849
.L976:
	xorl	%edi, %edi
	xorl	%esi, %esi
	call	eventfd@PLT
	movd	%eax, %xmm2
	movl	%eax, %edi
	pshufd	$0xe0, %xmm2, %xmm0
	movq	%xmm0, 88(%rbx)
	cmpl	$-1, %eax
	je	.L863
	movl	$2048, %edx
	movl	$4, %esi
	xorl	%eax, %eax
	call	fcntl@PLT
	movl	88(%rbx), %edi
	movl	$1, %edx
	xorl	%eax, %eax
	movl	$2, %esi
	call	fcntl@PLT
	movl	88(%rbx), %edx
	cmpl	$-1, %edx
	jne	.L861
	jmp	.L863
	.p2align 4,,10
	.p2align 3
.L870:
	movq	$300, 48(%rsp)
	xorl	%eax, %eax
	xorl	%esi, %esi
	jmp	.L882
.L851:
	movq	%r14, %rdi
	call	__cxa_guard_acquire@PLT
	movq	_ZZN4asio15system_categoryEvE8instance@GOTPCREL(%rip), %r12
	testl	%eax, %eax
	je	.L852
	movq	_ZN4asio6detail15system_categoryD1Ev@GOTPCREL(%rip), %rdi
	leaq	__dso_handle(%rip), %rdx
	movq	%r12, %rsi
	call	__cxa_atexit@PLT
	movq	%r14, %rdi
	call	__cxa_guard_release@PLT
	jmp	.L852
.L865:
	movq	%r13, %rdi
	call	__cxa_guard_acquire@PLT
	movq	_ZZN4asio15system_categoryEvE8instance@GOTPCREL(%rip), %r12
	testl	%eax, %eax
	je	.L866
	movq	_ZN4asio6detail15system_categoryD1Ev@GOTPCREL(%rip), %rdi
	leaq	__dso_handle(%rip), %rdx
	movq	%r12, %rsi
	call	__cxa_atexit@PLT
	movq	%r13, %rdi
	call	__cxa_guard_release@PLT
	jmp	.L866
.L977:
	leaq	64(%rsp), %rdi
	leaq	.LC35(%rip), %rsi
	call	_ZN4asio6detail14do_throw_errorERKSt10error_codePKc@PLT
.L900:
	movq	%rax, %rbx
.L891:
	movq	%r14, %rdi
	call	pthread_mutex_unlock@PLT
	movq	%rbx, %rdi
	call	_Unwind_Resume@PLT
.LEHE24:
	.cfi_endproc
.LFE3415:
	.section	.gcc_except_table
.LLSDA3415:
	.byte	0xff
	.byte	0xff
	.byte	0x1
	.uleb128 .LLSDACSE3415-.LLSDACSB3415
.LLSDACSB3415:
	.uleb128 .LEHB22-.LFB3415
	.uleb128 .LEHE22-.LEHB22
	.uleb128 0
	.uleb128 0
	.uleb128 .LEHB23-.LFB3415
	.uleb128 .LEHE23-.LEHB23
	.uleb128 .L900-.LFB3415
	.uleb128 0
	.uleb128 .LEHB24-.LFB3415
	.uleb128 .LEHE24-.LEHB24
	.uleb128 0
	.uleb128 0
.LLSDACSE3415:
	.section	.text._ZN4asio6detail13epoll_reactor12fork_serviceENS_10io_service10fork_eventE,"axG",@progbits,_ZN4asio6detail13epoll_reactor12fork_serviceENS_10io_service10fork_eventE,comdat
	.size	_ZN4asio6detail13epoll_reactor12fork_serviceENS_10io_service10fork_eventE, .-_ZN4asio6detail13epoll_reactor12fork_serviceENS_10io_service10fork_eventE
	.text
	.align 2
	.p2align 4
	.globl	_ZN7asiopal10ThreadPool8ShutdownEv
	.type	_ZN7asiopal10ThreadPool8ShutdownEv, @function
_ZN7asiopal10ThreadPool8ShutdownEv:
.LFB7071:
	.cfi_startproc
	cmpb	$0, 112(%rdi)
	je	.L987
	ret
	.p2align 4,,10
	.p2align 3
.L987:
	pushq	%rbp
	.cfi_def_cfa_offset 16
	.cfi_offset 6, -16
	movq	%rdi, %rbp
	pushq	%rbx
	.cfi_def_cfa_offset 24
	.cfi_offset 3, -24
	subq	$8, %rsp
	.cfi_def_cfa_offset 32
	movb	$1, 112(%rdi)
	cmpb	$0, 136(%rdi)
	jne	.L988
.L980:
	movq	184(%rbp), %rbx
	movq	192(%rbp), %rbp
	cmpq	%rbp, %rbx
	je	.L978
	.p2align 4
	.p2align 3
.L981:
	movq	(%rbx), %rdi
	addq	$8, %rbx
	call	_ZNSt6thread4joinEv@PLT
	cmpq	%rbx, %rbp
	jne	.L981
.L978:
	addq	$8, %rsp
	.cfi_remember_state
	.cfi_def_cfa_offset 24
	popq	%rbx
	.cfi_def_cfa_offset 16
	popq	%rbp
	.cfi_def_cfa_offset 8
	ret
	.p2align 4,,10
	.p2align 3
.L988:
	.cfi_restore_state
	movq	120(%rdi), %rdx
	movq	88(%rdx), %rdi
	leaq	40(%rdx), %rsi
	leaq	144(%rbp), %rdx
	call	_ZN4asio6detail13epoll_reactor12cancel_timerINS0_18chrono_time_traitsINSt6chrono3_V212steady_clockENS_11wait_traitsIS6_EEEEEEmRNS0_11timer_queueIT_EERNSC_14per_timer_dataEm.constprop.0.isra.0
	movb	$0, 136(%rbp)
	jmp	.L980
	.cfi_endproc
.LFE7071:
	.size	_ZN7asiopal10ThreadPool8ShutdownEv, .-_ZN7asiopal10ThreadPool8ShutdownEv
	.section	.text.unlikely
	.align 2
.LCOLDB38:
	.text
.LHOTB38:
	.align 2
	.p2align 4
	.globl	_ZN7asiopal10ThreadPoolD2Ev
	.type	_ZN7asiopal10ThreadPoolD2Ev, @function
_ZN7asiopal10ThreadPoolD2Ev:
.LFB7069:
	.cfi_startproc
	.cfi_personality 0x9b,DW.ref.__gxx_personality_v0
	.cfi_lsda 0x1b,.LLSDA7069
	pushq	%r13
	.cfi_def_cfa_offset 16
	.cfi_offset 13, -16
	pushq	%r12
	.cfi_def_cfa_offset 24
	.cfi_offset 12, -24
	pushq	%rbp
	.cfi_def_cfa_offset 32
	.cfi_offset 6, -32
	movq	%rdi, %rbp
	pushq	%rbx
	.cfi_def_cfa_offset 40
	.cfi_offset 3, -40
	subq	$40, %rsp
	.cfi_def_cfa_offset 80
	call	_ZN7asiopal10ThreadPool8ShutdownEv@PLT
	movq	184(%rbp), %r13
	movq	192(%rbp), %rbx
	cmpq	%rbx, %r13
	je	.L990
	movq	%r13, %r12
	.p2align 4
	.p2align 3
.L993:
	movq	(%r12), %rdi
	testq	%rdi, %rdi
	je	.L991
	cmpq	$0, (%rdi)
	jne	.L995
	movl	$8, %esi
	call	_ZdlPvm@PLT
.L991:
	addq	$8, %r12
	cmpq	%r12, %rbx
	jne	.L993
	movq	184(%rbp), %rbx
	movq	%r13, 192(%rbp)
	cmpq	%rbx, %r13
	je	.L990
	.p2align 4
	.p2align 3
.L996:
	movq	(%rbx), %rdi
	testq	%rdi, %rdi
	je	.L994
	cmpq	$0, (%rdi)
	jne	.L995
	movl	$8, %esi
	call	_ZdlPvm@PLT
.L994:
	addq	$8, %rbx
	cmpq	%rbx, %r13
	jne	.L996
	movq	184(%rbp), %rbx
.L990:
	testq	%rbx, %rbx
	je	.L997
	movq	200(%rbp), %rsi
	movq	%rbx, %rdi
	subq	%rbx, %rsi
	call	_ZdlPvm@PLT
.L997:
	cmpb	$0, 136(%rbp)
	je	.L998
	movq	120(%rbp), %rax
	leaq	144(%rbp), %rdx
	movq	88(%rax), %rdi
	leaq	40(%rax), %rsi
	call	_ZN4asio6detail13epoll_reactor12cancel_timerINS0_18chrono_time_traitsINSt6chrono3_V212steady_clockENS_11wait_traitsIS6_EEEEEEmRNS0_11timer_queueIT_EERNSC_14per_timer_dataEm.constprop.0.isra.0
	movb	$0, 136(%rbp)
.L998:
	movq	144(%rbp), %rsi
	testq	%rsi, %rsi
	je	.L1004
	movq	%rsi, 8(%rsp)
	leaq	16(%rsp), %rbx
	call	_ZNSt3_V215system_categoryEv@PLT
	movq	8(%rsp), %rsi
	movq	%rax, %r12
	jmp	.L1005
	.p2align 4,,10
	.p2align 3
.L1002:
	movq	$0, (%rsi)
	movq	8(%rsi), %rax
	xorl	%ecx, %ecx
	movq	%rbx, %rdx
	movl	$0, 16(%rsp)
	xorl	%edi, %edi
	movq	%r12, 24(%rsp)
	call	*%rax
	movq	144(%rbp), %rsi
	testq	%rsi, %rsi
	je	.L1004
.L1005:
	movq	(%rsi), %rax
	movq	%rax, 144(%rbp)
	testq	%rax, %rax
	jne	.L1002
	movq	$0, 152(%rbp)
	jmp	.L1002
	.p2align 4,,10
	.p2align 3
.L1004:
	movq	96(%rbp), %rax
	testq	%rax, %rax
	je	.L1001
	leaq	80(%rbp), %rdi
	movl	$3, %edx
	movq	%rdi, %rsi
	call	*%rax
.L1001:
	movq	64(%rbp), %rax
	testq	%rax, %rax
	je	.L1006
	leaq	48(%rbp), %rdi
	movl	$3, %edx
	movq	%rdi, %rsi
	call	*%rax
.L1006:
	movq	40(%rbp), %rbx
	testq	%rbx, %rbx
	je	.L1008
	movq	8(%rbx), %rdx
	leaq	8(%rbx), %rcx
	movabsq	$4294967297, %rax
	cmpq	%rax, %rdx
	je	.L1044
	movq	__libc_single_threaded@GOTPCREL(%rip), %rax
	cmpb	$0, (%rax)
	je	.L1010
	movl	8(%rbx), %eax
	leal	-1(%rax), %edx
	movl	%edx, 8(%rbx)
.L1011:
	cmpl	$1, %eax
	je	.L1045
.L1008:
	movq	24(%rbp), %rbx
	testq	%rbx, %rbx
	je	.L1014
	movq	8(%rbx), %rdx
	leaq	8(%rbx), %rcx
	movabsq	$4294967297, %rax
	cmpq	%rax, %rdx
	je	.L1046
	movq	__libc_single_threaded@GOTPCREL(%rip), %rax
	cmpb	$0, (%rax)
	je	.L1016
	movl	8(%rbx), %eax
	leal	-1(%rax), %edx
	movl	%edx, 8(%rbx)
.L1017:
	cmpl	$1, %eax
	je	.L1047
.L1014:
	movq	8(%rbp), %rbx
	testq	%rbx, %rbx
	je	.L989
	movq	8(%rbx), %rdx
	leaq	8(%rbx), %rcx
	movabsq	$4294967297, %rax
	cmpq	%rax, %rdx
	je	.L1048
	movq	__libc_single_threaded@GOTPCREL(%rip), %rax
	cmpb	$0, (%rax)
	je	.L1022
	movl	8(%rbx), %eax
	leal	-1(%rax), %edx
	movl	%edx, 8(%rbx)
.L1023:
	cmpl	$1, %eax
	je	.L1049
.L989:
	addq	$40, %rsp
	.cfi_remember_state
	.cfi_def_cfa_offset 40
	popq	%rbx
	.cfi_def_cfa_offset 32
	popq	%rbp
	.cfi_def_cfa_offset 24
	popq	%r12
	.cfi_def_cfa_offset 16
	popq	%r13
	.cfi_def_cfa_offset 8
	ret
	.p2align 4,,10
	.p2align 3
.L1048:
	.cfi_restore_state
	movq	(%rbx), %rax
	movq	%rbx, %rdi
	movq	$0, 8(%rbx)
	call	*16(%rax)
	movq	(%rbx), %rax
	movq	%rbx, %rdi
	movq	24(%rax), %rax
	addq	$40, %rsp
	.cfi_remember_state
	.cfi_def_cfa_offset 40
	popq	%rbx
	.cfi_def_cfa_offset 32
	popq	%rbp
	.cfi_def_cfa_offset 24
	popq	%r12
	.cfi_def_cfa_offset 16
	popq	%r13
	.cfi_def_cfa_offset 8
.LEHB25:
	jmp	*%rax
	.p2align 4,,10
	.p2align 3
.L1044:
	.cfi_restore_state
	movq	(%rbx), %rax
	movq	%rbx, %rdi
	movq	$0, 8(%rbx)
	call	*16(%rax)
	movq	(%rbx), %rax
	movq	%rbx, %rdi
	call	*24(%rax)
	jmp	.L1008
	.p2align 4,,10
	.p2align 3
.L1046:
	movq	(%rbx), %rax
	movq	%rbx, %rdi
	movq	$0, 8(%rbx)
	call	*16(%rax)
	movq	(%rbx), %rax
	movq	%rbx, %rdi
	call	*24(%rax)
	jmp	.L1014
	.p2align 4,,10
	.p2align 3
.L1010:
	movl	$-1, %eax
	lock xaddl	%eax, (%rcx)
	jmp	.L1011
	.p2align 4,,10
	.p2align 3
.L1016:
	movl	$-1, %eax
	lock xaddl	%eax, (%rcx)
	jmp	.L1017
	.p2align 4,,10
	.p2align 3
.L1022:
	movl	$-1, %eax
	lock xaddl	%eax, (%rcx)
	jmp	.L1023
.L1045:
	movq	%rbx, %rdi
	call	_ZNSt16_Sp_counted_baseILN9__gnu_cxx12_Lock_policyE2EE24_M_release_last_use_coldEv@PLT
	jmp	.L1008
.L1049:
	addq	$40, %rsp
	.cfi_remember_state
	.cfi_def_cfa_offset 40
	movq	%rbx, %rdi
	popq	%rbx
	.cfi_def_cfa_offset 32
	popq	%rbp
	.cfi_def_cfa_offset 24
	popq	%r12
	.cfi_def_cfa_offset 16
	popq	%r13
	.cfi_def_cfa_offset 8
	jmp	_ZNSt16_Sp_counted_baseILN9__gnu_cxx12_Lock_policyE2EE24_M_release_last_use_coldEv@PLT
.LEHE25:
.L1047:
	.cfi_restore_state
	movq	%rbx, %rdi
	call	_ZNSt16_Sp_counted_baseILN9__gnu_cxx12_Lock_policyE2EE24_M_release_last_use_coldEv@PLT
	jmp	.L1014
	.section	.gcc_except_table
.LLSDA7069:
	.byte	0xff
	.byte	0xff
	.byte	0x1
	.uleb128 .LLSDACSE7069-.LLSDACSB7069
.LLSDACSB7069:
	.uleb128 .LEHB25-.LFB7069
	.uleb128 .LEHE25-.LEHB25
	.uleb128 0
	.uleb128 0
.LLSDACSE7069:
	.text
	.cfi_endproc
	.section	.text.unlikely
	.cfi_startproc
	.cfi_personality 0x9b,DW.ref.__gxx_personality_v0
	.cfi_lsda 0x1b,.LLSDAC7069
	.type	_ZN7asiopal10ThreadPoolD2Ev.cold, @function
_ZN7asiopal10ThreadPoolD2Ev.cold:
.LFSB7069:
.L995:
	.cfi_def_cfa_offset 80
	.cfi_offset 3, -40
	.cfi_offset 6, -32
	.cfi_offset 12, -24
	.cfi_offset 13, -16
	call	_ZSt9terminatev@PLT
	.cfi_endproc
.LFE7069:
	.section	.gcc_except_table
.LLSDAC7069:
	.byte	0xff
	.byte	0xff
	.byte	0x1
	.uleb128 .LLSDACSEC7069-.LLSDACSBC7069
.LLSDACSBC7069:
.LLSDACSEC7069:
	.section	.text.unlikely
	.text
	.size	_ZN7asiopal10ThreadPoolD2Ev, .-_ZN7asiopal10ThreadPoolD2Ev
	.section	.text.unlikely
	.size	_ZN7asiopal10ThreadPoolD2Ev.cold, .-_ZN7asiopal10ThreadPoolD2Ev.cold
.LCOLDE38:
	.text
.LHOTE38:
	.globl	_ZN7asiopal10ThreadPoolD1Ev
	.set	_ZN7asiopal10ThreadPoolD1Ev,_ZN7asiopal10ThreadPoolD2Ev
	.section	.text._ZN4asio6detail11object_poolINS0_13epoll_reactor16descriptor_stateEED2Ev,"axG",@progbits,_ZN4asio6detail11object_poolINS0_13epoll_reactor16descriptor_stateEED5Ev,comdat
	.align 2
	.p2align 4
	.weak	_ZN4asio6detail11object_poolINS0_13epoll_reactor16descriptor_stateEED2Ev
	.type	_ZN4asio6detail11object_poolINS0_13epoll_reactor16descriptor_stateEED2Ev, @function
_ZN4asio6detail11object_poolINS0_13epoll_reactor16descriptor_stateEED2Ev:
.LFB7483:
	.cfi_startproc
	.cfi_personality 0x9b,DW.ref.__gxx_personality_v0
	.cfi_lsda 0x1b,.LLSDA7483
	pushq	%r15
	.cfi_def_cfa_offset 16
	.cfi_offset 15, -16
	pushq	%r14
	.cfi_def_cfa_offset 24
	.cfi_offset 14, -24
	pushq	%r13
	.cfi_def_cfa_offset 32
	.cfi_offset 13, -32
	pushq	%r12
	.cfi_def_cfa_offset 40
	.cfi_offset 12, -40
	pushq	%rbp
	.cfi_def_cfa_offset 48
	.cfi_offset 6, -48
	pushq	%rbx
	.cfi_def_cfa_offset 56
	.cfi_offset 3, -56
	subq	$40, %rsp
	.cfi_def_cfa_offset 96
	movq	(%rdi), %r13
	movq	%rdi, 8(%rsp)
	testq	%r13, %r13
	je	.L1051
	leaq	16(%rsp), %rbp
	.p2align 4
	.p2align 3
.L1057:
	movq	%r13, %r12
	movq	24(%r13), %r13
	leaq	128(%r12), %r15
	leaq	80(%r12), %r14
.L1056:
	movq	(%r15), %rsi
	testq	%rsi, %rsi
	je	.L1052
	movq	%rsi, (%rsp)
	call	_ZNSt3_V215system_categoryEv@PLT
	movq	(%rsp), %rsi
	movq	%rax, %rbx
	jmp	.L1055
	.p2align 4,,10
	.p2align 3
.L1053:
	movq	$0, (%rsi)
	movq	8(%rsi), %rax
	xorl	%ecx, %ecx
	movq	%rbp, %rdx
	movl	$0, 16(%rsp)
	xorl	%edi, %edi
	movq	%rbx, 24(%rsp)
	call	*%rax
	movq	(%r15), %rsi
	testq	%rsi, %rsi
	je	.L1052
.L1055:
	movq	(%rsi), %rax
	movq	%rax, (%r15)
	testq	%rax, %rax
	jne	.L1053
	movq	$0, 8(%r15)
	jmp	.L1053
	.p2align 4,,10
	.p2align 3
.L1052:
	subq	$16, %r15
	cmpq	%r15, %r14
	jne	.L1056
	leaq	40(%r12), %rdi
	call	pthread_mutex_destroy@PLT
	movl	$152, %esi
	movq	%r12, %rdi
	call	_ZdlPvm@PLT
	testq	%r13, %r13
	jne	.L1057
.L1051:
	movq	8(%rsp), %rax
	movq	8(%rax), %r13
	testq	%r13, %r13
	je	.L1050
	leaq	16(%rsp), %rbp
	.p2align 4
	.p2align 3
.L1064:
	movq	%r13, %r12
	movq	24(%r13), %r13
	leaq	128(%r12), %r15
	leaq	80(%r12), %r14
.L1063:
	movq	(%r15), %rsi
	testq	%rsi, %rsi
	je	.L1059
	movq	%rsi, (%rsp)
	call	_ZNSt3_V215system_categoryEv@PLT
	movq	(%rsp), %rsi
	movq	%rax, %rbx
	jmp	.L1062
	.p2align 4,,10
	.p2align 3
.L1060:
	movq	$0, (%rsi)
	movq	8(%rsi), %rax
	xorl	%ecx, %ecx
	movq	%rbp, %rdx
	movl	$0, 16(%rsp)
	xorl	%edi, %edi
	movq	%rbx, 24(%rsp)
	call	*%rax
	movq	(%r15), %rsi
	testq	%rsi, %rsi
	je	.L1059
.L1062:
	movq	(%rsi), %rax
	movq	%rax, (%r15)
	testq	%rax, %rax
	jne	.L1060
	movq	$0, 8(%r15)
	jmp	.L1060
	.p2align 4,,10
	.p2align 3
.L1059:
	subq	$16, %r15
	cmpq	%r15, %r14
	jne	.L1063
	leaq	40(%r12), %rdi
	call	pthread_mutex_destroy@PLT
	movl	$152, %esi
	movq	%r12, %rdi
	call	_ZdlPvm@PLT
	testq	%r13, %r13
	jne	.L1064
.L1050:
	addq	$40, %rsp
	.cfi_def_cfa_offset 56
	popq	%rbx
	.cfi_def_cfa_offset 48
	popq	%rbp
	.cfi_def_cfa_offset 40
	popq	%r12
	.cfi_def_cfa_offset 32
	popq	%r13
	.cfi_def_cfa_offset 24
	popq	%r14
	.cfi_def_cfa_offset 16
	popq	%r15
	.cfi_def_cfa_offset 8
	ret
	.cfi_endproc
.LFE7483:
	.section	.gcc_except_table
.LLSDA7483:
	.byte	0xff
	.byte	0xff
	.byte	0x1
	.uleb128 .LLSDACSE7483-.LLSDACSB7483
.LLSDACSB7483:
.LLSDACSE7483:
	.section	.text._ZN4asio6detail11object_poolINS0_13epoll_reactor16descriptor_stateEED2Ev,"axG",@progbits,_ZN4asio6detail11object_poolINS0_13epoll_reactor16descriptor_stateEED5Ev,comdat
	.size	_ZN4asio6detail11object_poolINS0_13epoll_reactor16descriptor_stateEED2Ev, .-_ZN4asio6detail11object_poolINS0_13epoll_reactor16descriptor_stateEED2Ev
	.weak	_ZN4asio6detail11object_poolINS0_13epoll_reactor16descriptor_stateEED1Ev
	.set	_ZN4asio6detail11object_poolINS0_13epoll_reactor16descriptor_stateEED1Ev,_ZN4asio6detail11object_poolINS0_13epoll_reactor16descriptor_stateEED2Ev
	.section	.rodata._ZN4asio6detail16service_registry6createINS0_13epoll_reactorEEEPNS_10io_service7serviceERS4_.str1.1,"aMS",@progbits,1
.LC39:
	.string	"mutex"
	.section	.text._ZN4asio6detail16service_registry6createINS0_13epoll_reactorEEEPNS_10io_service7serviceERS4_,"axG",@progbits,_ZN4asio6detail16service_registry6createINS0_13epoll_reactorEEEPNS_10io_service7serviceERS4_,comdat
	.align 2
	.p2align 4
	.weak	_ZN4asio6detail16service_registry6createINS0_13epoll_reactorEEEPNS_10io_service7serviceERS4_
	.type	_ZN4asio6detail16service_registry6createINS0_13epoll_reactorEEEPNS_10io_service7serviceERS4_, @function
_ZN4asio6detail16service_registry6createINS0_13epoll_reactorEEEPNS_10io_service7serviceERS4_:
.LFB8535:
	.cfi_startproc
	.cfi_personality 0x9b,DW.ref.__gxx_personality_v0
	.cfi_lsda 0x1b,.LLSDA8535
	pushq	%r15
	.cfi_def_cfa_offset 16
	.cfi_offset 15, -16
	pushq	%r14
	.cfi_def_cfa_offset 24
	.cfi_offset 14, -24
	pushq	%r13
	.cfi_def_cfa_offset 32
	.cfi_offset 13, -32
	pushq	%r12
	.cfi_def_cfa_offset 40
	.cfi_offset 12, -40
	pushq	%rbp
	.cfi_def_cfa_offset 48
	.cfi_offset 6, -48
	movq	%rdi, %rbp
	movl	$176, %edi
	pushq	%rbx
	.cfi_def_cfa_offset 56
	.cfi_offset 3, -56
	subq	$56, %rsp
	.cfi_def_cfa_offset 112
.LEHB26:
	call	_Znwm@PLT
.LEHE26:
	movq	%rbp, %xmm1
	xorl	%esi, %esi
	movq	$0, 32(%rax)
	movq	%rax, %rbx
	movq	_ZTVN4asio6detail13epoll_reactorE@GOTPCREL(%rip), %rax
	leaq	48(%rbx), %rdi
	addq	$16, %rax
	movq	%rax, %xmm0
	movq	8(%rbp), %rax
	movups	%xmm0, (%rbx)
	pxor	%xmm0, %xmm0
	movq	%rax, 40(%rbx)
	punpcklqdq	%xmm1, %xmm0
	movups	%xmm0, 16(%rbx)
	call	pthread_mutex_init@PLT
	movq	_ZGVZN4asio15system_categoryEvE8instance@GOTPCREL(%rip), %r12
	movl	%eax, %ebp
	movzbl	(%r12), %eax
	testb	%al, %al
	je	.L1089
	movq	_ZZN4asio15system_categoryEvE8instance@GOTPCREL(%rip), %r13
.L1090:
	movl	%ebp, 32(%rsp)
	movq	%r13, 40(%rsp)
	testl	%ebp, %ebp
	jne	.L1171
	movl	$526336, %esi
	xorl	%edi, %edi
	call	eventfd@PLT
	movd	%eax, %xmm2
	pshufd	$0xe0, %xmm2, %xmm0
	movq	%xmm0, 88(%rbx)
	cmpl	$-1, %eax
	je	.L1172
.L1094:
	movl	$524288, %edi
	call	epoll_create1@PLT
	movl	%eax, %ebp
	cmpl	$-1, %eax
	je	.L1173
.L1103:
	movl	%ebp, 96(%rbx)
	movl	$524288, %esi
	movl	$1, %edi
	call	timerfd_create@PLT
	movl	%eax, %ebp
	cmpl	$-1, %eax
	je	.L1174
.L1109:
	movl	%ebp, 100(%rbx)
	xorl	%esi, %esi
	leaq	120(%rbx), %rdi
	movq	$0, 104(%rbx)
	movb	$0, 112(%rbx)
	call	pthread_mutex_init@PLT
	movl	%eax, %ebp
	movzbl	(%r12), %eax
	testb	%al, %al
	je	.L1175
.L1113:
	movl	%ebp, 32(%rsp)
	movq	%r13, 40(%rsp)
	testl	%ebp, %ebp
	jne	.L1176
	movl	88(%rbx), %edx
	movl	96(%rbx), %edi
	pxor	%xmm0, %xmm0
	leaq	32(%rsp), %rbp
	leaq	88(%rbx), %rax
	movl	$1, %esi
	movq	%rbp, %rcx
	movups	%xmm0, 160(%rbx)
	movl	$-2147483639, 32(%rsp)
	movq	%rax, 36(%rsp)
	call	epoll_ctl@PLT
	movl	92(%rbx), %edi
	leaq	24(%rsp), %rsi
	movl	$8, %edx
	movq	$1, 24(%rsp)
.LEHB27:
	call	write@PLT
.LEHE27:
	movl	100(%rbx), %edx
	cmpl	$-1, %edx
	je	.L1088
	movl	96(%rbx), %edi
	leaq	100(%rbx), %rax
	movq	%rbp, %rcx
	movl	$1, %esi
	movl	$9, 32(%rsp)
	movq	%rax, 36(%rsp)
	call	epoll_ctl@PLT
.L1088:
	addq	$56, %rsp
	.cfi_remember_state
	.cfi_def_cfa_offset 56
	movq	%rbx, %rax
	popq	%rbx
	.cfi_def_cfa_offset 48
	popq	%rbp
	.cfi_def_cfa_offset 40
	popq	%r12
	.cfi_def_cfa_offset 32
	popq	%r13
	.cfi_def_cfa_offset 24
	popq	%r14
	.cfi_def_cfa_offset 16
	popq	%r15
	.cfi_def_cfa_offset 8
	ret
	.p2align 4,,10
	.p2align 3
.L1174:
	.cfi_restore_state
	call	__errno_location@PLT
	cmpl	$22, (%rax)
	jne	.L1109
	xorl	%esi, %esi
	movl	$1, %edi
	call	timerfd_create@PLT
	movl	%eax, %r15d
	cmpl	$-1, %eax
	je	.L1109
	movl	%eax, %edi
	movl	$1, %edx
	movl	$2, %esi
	xorl	%eax, %eax
.LEHB28:
	call	fcntl@PLT
	movl	%r15d, %ebp
	jmp	.L1109
	.p2align 4,,10
	.p2align 3
.L1173:
	call	__errno_location@PLT
	movq	%rax, %r15
	movl	(%rax), %eax
	subl	$22, %eax
	andl	$-17, %eax
	je	.L1177
.L1104:
	movzbl	(%r12), %eax
	testb	%al, %al
	je	.L1178
.L1106:
	movl	(%r15), %eax
	movq	%r13, 40(%rsp)
	movl	%eax, 32(%rsp)
	testl	%eax, %eax
	je	.L1103
	leaq	32(%rsp), %rdi
	leaq	.LC33(%rip), %rsi
	call	_ZN4asio6detail14do_throw_errorERKSt10error_codePKc@PLT
.LEHE28:
	.p2align 4,,10
	.p2align 3
.L1172:
	call	__errno_location@PLT
	movq	%rax, %rbp
	cmpl	$22, (%rax)
	je	.L1179
.L1096:
	leaq	24(%rsp), %rdi
	call	pipe@PLT
	testl	%eax, %eax
	jne	.L1180
	movl	24(%rsp), %edi
	movl	$2048, %edx
	movl	$4, %esi
	xorl	%eax, %eax
	movl	%edi, 88(%rbx)
.LEHB29:
	call	fcntl@PLT
	movl	88(%rbx), %edi
	movl	$1, %edx
	movl	$2, %esi
	xorl	%eax, %eax
	call	fcntl@PLT
	movl	28(%rsp), %edi
	movl	$2048, %edx
	movl	$4, %esi
	xorl	%eax, %eax
	movl	%edi, 92(%rbx)
	call	fcntl@PLT
	movl	92(%rbx), %edi
	movl	$1, %edx
	movl	$2, %esi
	xorl	%eax, %eax
	call	fcntl@PLT
	jmp	.L1094
	.p2align 4,,10
	.p2align 3
.L1175:
	movq	%r12, %rdi
	call	__cxa_guard_acquire@PLT
	testl	%eax, %eax
	je	.L1113
	movq	_ZN4asio6detail15system_categoryD1Ev@GOTPCREL(%rip), %rdi
	leaq	__dso_handle(%rip), %rdx
	movq	%r13, %rsi
	call	__cxa_atexit@PLT
	movq	%r12, %rdi
	call	__cxa_guard_release@PLT
	jmp	.L1113
	.p2align 4,,10
	.p2align 3
.L1089:
	movq	%r12, %rdi
	call	__cxa_guard_acquire@PLT
	movq	_ZZN4asio15system_categoryEvE8instance@GOTPCREL(%rip), %r13
	testl	%eax, %eax
	je	.L1090
	movq	_ZN4asio6detail15system_categoryD1Ev@GOTPCREL(%rip), %rdi
	leaq	__dso_handle(%rip), %rdx
	movq	%r13, %rsi
	call	__cxa_atexit@PLT
	movq	%r12, %rdi
	call	__cxa_guard_release@PLT
	jmp	.L1090
	.p2align 4,,10
	.p2align 3
.L1180:
	movzbl	(%r12), %eax
	testb	%al, %al
	je	.L1181
.L1100:
	movl	0(%rbp), %eax
	movq	%r13, 40(%rsp)
	movl	%eax, 32(%rsp)
	testl	%eax, %eax
	je	.L1094
	leaq	32(%rsp), %rdi
	leaq	.LC35(%rip), %rsi
	call	_ZN4asio6detail14do_throw_errorERKSt10error_codePKc@PLT
.LEHE29:
	.p2align 4,,10
	.p2align 3
.L1178:
	movq	%r12, %rdi
	call	__cxa_guard_acquire@PLT
	testl	%eax, %eax
	je	.L1106
	movq	_ZN4asio6detail15system_categoryD1Ev@GOTPCREL(%rip), %rdi
	leaq	__dso_handle(%rip), %rdx
	movq	%r13, %rsi
	call	__cxa_atexit@PLT
	movq	%r12, %rdi
	call	__cxa_guard_release@PLT
	jmp	.L1106
	.p2align 4,,10
	.p2align 3
.L1177:
	movl	$20000, %edi
	call	epoll_create@PLT
	cmpl	$-1, %eax
	je	.L1104
	movl	%eax, 12(%rsp)
	movl	%eax, %edi
	movl	$1, %edx
	movl	$2, %esi
	xorl	%eax, %eax
.LEHB30:
	call	fcntl@PLT
.LEHE30:
	movl	12(%rsp), %ebp
	jmp	.L1103
	.p2align 4,,10
	.p2align 3
.L1179:
	xorl	%esi, %esi
	xorl	%edi, %edi
	call	eventfd@PLT
	movd	%eax, %xmm3
	pshufd	$0xe0, %xmm3, %xmm0
	movq	%xmm0, 88(%rbx)
	cmpl	$-1, %eax
	je	.L1096
	movl	%eax, %edi
	movl	$2048, %edx
	movl	$4, %esi
	xorl	%eax, %eax
.LEHB31:
	call	fcntl@PLT
	movl	88(%rbx), %edi
	movl	$1, %edx
	movl	$2, %esi
	xorl	%eax, %eax
	call	fcntl@PLT
.LEHE31:
	cmpl	$-1, 88(%rbx)
	jne	.L1094
	jmp	.L1096
	.p2align 4,,10
	.p2align 3
.L1181:
	movq	%r12, %rdi
	call	__cxa_guard_acquire@PLT
	testl	%eax, %eax
	je	.L1100
	movq	_ZN4asio6detail15system_categoryD1Ev@GOTPCREL(%rip), %rdi
	leaq	__dso_handle(%rip), %rdx
	movq	%r13, %rsi
	call	__cxa_atexit@PLT
	movq	%r12, %rdi
	call	__cxa_guard_release@PLT
	jmp	.L1100
.L1176:
	leaq	32(%rsp), %rdi
	leaq	.LC39(%rip), %rsi
.LEHB32:
	call	_ZN4asio6detail14do_throw_errorERKSt10error_codePKc@PLT
.LEHE32:
.L1171:
	leaq	32(%rsp), %rdi
	leaq	.LC39(%rip), %rsi
.LEHB33:
	call	_ZN4asio6detail14do_throw_errorERKSt10error_codePKc@PLT
.LEHE33:
.L1130:
	movq	%rax, %rbp
	jmp	.L1117
.L1129:
	movq	%rax, %rbp
	jmp	.L1118
.L1117:
	leaq	160(%rbx), %rdi
	call	_ZN4asio6detail11object_poolINS0_13epoll_reactor16descriptor_stateEED1Ev@PLT
	leaq	120(%rbx), %rdi
	call	pthread_mutex_destroy@PLT
.L1118:
	movl	92(%rbx), %eax
	cmpl	$-1, %eax
	je	.L1119
	movl	88(%rbx), %edi
	cmpl	%edi, %eax
	jne	.L1182
.L1120:
	call	close@PLT
.L1122:
	leaq	48(%rbx), %rdi
	call	pthread_mutex_destroy@PLT
.L1123:
	movq	%rbx, %rdi
	movl	$176, %esi
	call	_ZdlPvm@PLT
	movq	%rbp, %rdi
.LEHB34:
	call	_Unwind_Resume@PLT
.LEHE34:
.L1128:
	movq	%rax, %rbp
	jmp	.L1122
.L1127:
	movq	%rax, %rbp
	jmp	.L1123
.L1182:
	movl	%eax, %edi
	call	close@PLT
.L1119:
	movl	88(%rbx), %edi
	cmpl	$-1, %edi
	je	.L1122
	jmp	.L1120
	.cfi_endproc
.LFE8535:
	.section	.gcc_except_table
.LLSDA8535:
	.byte	0xff
	.byte	0xff
	.byte	0x1
	.uleb128 .LLSDACSE8535-.LLSDACSB8535
.LLSDACSB8535:
	.uleb128 .LEHB26-.LFB8535
	.uleb128 .LEHE26-.LEHB26
	.uleb128 0
	.uleb128 0
	.uleb128 .LEHB27-.LFB8535
	.uleb128 .LEHE27-.LEHB27
	.uleb128 .L1130-.LFB8535
	.uleb128 0
	.uleb128 .LEHB28-.LFB8535
	.uleb128 .LEHE28-.LEHB28
	.uleb128 .L1129-.LFB8535
	.uleb128 0
	.uleb128 .LEHB29-.LFB8535
	.uleb128 .LEHE29-.LEHB29
	.uleb128 .L1128-.LFB8535
	.uleb128 0
	.uleb128 .LEHB30-.LFB8535
	.uleb128 .LEHE30-.LEHB30
	.uleb128 .L1129-.LFB8535
	.uleb128 0
	.uleb128 .LEHB31-.LFB8535
	.uleb128 .LEHE31-.LEHB31
	.uleb128 .L1128-.LFB8535
	.uleb128 0
	.uleb128 .LEHB32-.LFB8535
	.uleb128 .LEHE32-.LEHB32
	.uleb128 .L1129-.LFB8535
	.uleb128 0
	.uleb128 .LEHB33-.LFB8535
	.uleb128 .LEHE33-.LEHB33
	.uleb128 .L1127-.LFB8535
	.uleb128 0
	.uleb128 .LEHB34-.LFB8535
	.uleb128 .LEHE34-.LEHB34
	.uleb128 0
	.uleb128 0
.LLSDACSE8535:
	.section	.text._ZN4asio6detail16service_registry6createINS0_13epoll_reactorEEEPNS_10io_service7serviceERS4_,"axG",@progbits,_ZN4asio6detail16service_registry6createINS0_13epoll_reactorEEEPNS_10io_service7serviceERS4_,comdat
	.size	_ZN4asio6detail16service_registry6createINS0_13epoll_reactorEEEPNS_10io_service7serviceERS4_, .-_ZN4asio6detail16service_registry6createINS0_13epoll_reactorEEEPNS_10io_service7serviceERS4_
	.section	.rodata._ZN4asio6detail13epoll_reactor14schedule_timerINS0_18chrono_time_traitsINSt6chrono3_V212steady_clockENS_11wait_traitsIS6_EEEEEEvRNS0_11timer_queueIT_EERKNSB_9time_typeERNSC_14per_timer_dataEPNS0_7wait_opE.str1.1,"aMS",@progbits,1
.LC40:
	.string	"vector::_M_realloc_append"
	.section	.text._ZN4asio6detail13epoll_reactor14schedule_timerINS0_18chrono_time_traitsINSt6chrono3_V212steady_clockENS_11wait_traitsIS6_EEEEEEvRNS0_11timer_queueIT_EERKNSB_9time_typeERNSC_14per_timer_dataEPNS0_7wait_opE,"axG",@progbits,_ZN4asio6detail13epoll_reactor14schedule_timerINS0_18chrono_time_traitsINSt6chrono3_V212steady_clockENS_11wait_traitsIS6_EEEEEEvRNS0_11timer_queueIT_EERKNSB_9time_typeERNSC_14per_timer_dataEPNS0_7wait_opE,comdat
	.align 2
	.p2align 4
	.weak	_ZN4asio6detail13epoll_reactor14schedule_timerINS0_18chrono_time_traitsINSt6chrono3_V212steady_clockENS_11wait_traitsIS6_EEEEEEvRNS0_11timer_queueIT_EERKNSB_9time_typeERNSC_14per_timer_dataEPNS0_7wait_opE
	.type	_ZN4asio6detail13epoll_reactor14schedule_timerINS0_18chrono_time_traitsINSt6chrono3_V212steady_clockENS_11wait_traitsIS6_EEEEEEvRNS0_11timer_queueIT_EERKNSB_9time_typeERNSC_14per_timer_dataEPNS0_7wait_opE, @function
_ZN4asio6detail13epoll_reactor14schedule_timerINS0_18chrono_time_traitsINSt6chrono3_V212steady_clockENS_11wait_traitsIS6_EEEEEEvRNS0_11timer_queueIT_EERKNSB_9time_typeERNSC_14per_timer_dataEPNS0_7wait_opE:
.LFB8859:
	.cfi_startproc
	.cfi_personality 0x9b,DW.ref.__gxx_personality_v0
	.cfi_lsda 0x1b,.LLSDA8859
	pushq	%r15
	.cfi_def_cfa_offset 16
	.cfi_offset 15, -16
	movq	%rdx, %r15
	pushq	%r14
	.cfi_def_cfa_offset 24
	.cfi_offset 14, -24
	movq	%r8, %r14
	pushq	%r13
	.cfi_def_cfa_offset 32
	.cfi_offset 13, -32
	movq	%rcx, %r13
	pushq	%r12
	.cfi_def_cfa_offset 40
	.cfi_offset 12, -40
	movq	%rdi, %r12
	pushq	%rbp
	.cfi_def_cfa_offset 48
	.cfi_offset 6, -48
	leaq	48(%rdi), %rbp
	pushq	%rbx
	.cfi_def_cfa_offset 56
	.cfi_offset 3, -56
	movq	%rbp, %rdi
	movq	%rsi, %rbx
	subq	$136, %rsp
	.cfi_def_cfa_offset 192
	call	pthread_mutex_lock@PLT
	cmpb	$0, 112(%r12)
	jne	.L1255
	cmpq	$0, 32(%r13)
	je	.L1256
.L1196:
	movq	8(%r13), %rax
	movq	16(%r13), %rdx
	movq	$0, (%r14)
	testq	%rax, %rax
	je	.L1208
	movq	%r14, (%rax)
	movq	%r14, 8(%r13)
	testq	%rdx, %rdx
	jne	.L1210
	cmpq	0(%r13), %r14
	je	.L1213
.L1210:
	movq	40(%r12), %rax
	lock addq	$1, 184(%rax)
.L1214:
	addq	$136, %rsp
	.cfi_remember_state
	.cfi_def_cfa_offset 56
	movq	%rbp, %rdi
	popq	%rbx
	.cfi_def_cfa_offset 48
	popq	%rbp
	.cfi_def_cfa_offset 40
	popq	%r12
	.cfi_def_cfa_offset 32
	popq	%r13
	.cfi_def_cfa_offset 24
	popq	%r14
	.cfi_def_cfa_offset 16
	popq	%r15
	.cfi_def_cfa_offset 8
.LEHB35:
	jmp	pthread_mutex_unlock@PLT
.LEHE35:
	.p2align 4,,10
	.p2align 3
.L1255:
	.cfi_restore_state
	movq	%r14, %xmm1
	movq	40(%r12), %rbx
	punpcklqdq	%xmm1, %xmm1
	movaps	%xmm1, (%rsp)
	cmpb	$0, 40(%rbx)
	je	.L1185
	data16	leaq	_ZN4asio6detail15keyword_tss_ptrINS0_10call_stackINS0_15task_io_serviceENS0_27task_io_service_thread_infoEE7contextEE6value_E@tlsgd(%rip), %rdi
	.value	0x6666
	rex64
	call	__tls_get_addr@PLT
	movq	(%rax), %rax
	testq	%rax, %rax
	jne	.L1188
	jmp	.L1185
	.p2align 4
	.p2align 4,,10
	.p2align 3
.L1186:
	movq	16(%rax), %rax
	testq	%rax, %rax
	je	.L1185
.L1188:
	cmpq	(%rax), %rbx
	jne	.L1186
	movq	8(%rax), %rax
	testq	%rax, %rax
	je	.L1185
	movq	16(%rax), %rdx
	addq	$1, 24(%rax)
	movq	$0, (%r14)
	testq	%rdx, %rdx
	je	.L1189
	movq	%r14, (%rdx)
	movq	%r14, 16(%rax)
	jmp	.L1214
	.p2align 4,,10
	.p2align 3
.L1185:
	lock addq	$1, 184(%rbx)
	leaq	48(%rbx), %r12
	movq	%r12, %rdi
	call	pthread_mutex_lock@PLT
	movq	200(%rbx), %rax
	movq	$0, (%r14)
	testq	%rax, %rax
	je	.L1191
	movq	%r14, (%rax)
	movq	%r14, 200(%rbx)
.L1192:
	movq	136(%rbx), %rax
	movq	%rax, %rdx
	orq	$1, %rdx
	movq	%rdx, 136(%rbx)
	cmpq	$1, %rax
	jbe	.L1193
	movq	%r12, %rdi
	call	pthread_mutex_unlock@PLT
	leaq	88(%rbx), %rdi
	call	pthread_cond_signal@PLT
	jmp	.L1214
	.p2align 4,,10
	.p2align 3
.L1208:
	movq	%r14, %xmm0
	punpcklqdq	%xmm0, %xmm0
	movups	%xmm0, 0(%r13)
	testq	%rdx, %rdx
	jne	.L1210
.L1213:
	movq	40(%r12), %rax
	lock addq	$1, 184(%rax)
	movl	100(%r12), %edi
	cmpl	$-1, %edi
	je	.L1257
	movq	104(%r12), %rbx
	pxor	%xmm0, %xmm0
	movaps	%xmm0, 64(%rsp)
	testq	%rbx, %rbx
	je	.L1215
	movq	_ZNK4asio6detail11timer_queueINS0_18chrono_time_traitsINSt6chrono3_V212steady_clockENS_11wait_traitsIS5_EEEEE18wait_duration_usecEl@GOTPCREL(%rip), %r13
	movl	$300000000, %r15d
	movabsq	$2361183241434822607, %r14
	jmp	.L1224
	.p2align 4,,10
	.p2align 3
.L1260:
	testq	%rdx, %rdx
	js	.L1219
.L1254:
	subq	%rdx, %rax
	testq	%rax, %rax
	jle	.L1233
.L1222:
	shrq	$3, %rax
	mulq	%r14
	shrq	$4, %rdx
	je	.L1258
.L1221:
	cmpq	%rdx, %r15
	cmovg	%rdx, %r15
.L1217:
	movq	8(%rbx), %rbx
	testq	%rbx, %rbx
	je	.L1259
.L1224:
	movq	(%rbx), %rax
	movq	32(%rax), %rax
	cmpq	%r13, %rax
	jne	.L1216
	movq	24(%rbx), %rax
	cmpq	%rax, 32(%rbx)
	je	.L1217
	call	_ZNSt6chrono3_V212steady_clock3nowEv@PLT
	movq	%rax, %rdx
	movq	24(%rbx), %rax
	movq	(%rax), %rax
	testq	%rax, %rax
	jns	.L1260
	testq	%rdx, %rdx
	js	.L1254
.L1233:
	movq	8(%rbx), %rbx
	xorl	%r15d, %r15d
	testq	%rbx, %rbx
	jne	.L1224
	.p2align 4
	.p2align 3
.L1259:
	movabsq	$4835703278458516699, %rax
	movl	100(%r12), %edi
	movl	$1, %esi
	imulq	%r15
	movq	%r15, %rax
	sarq	$63, %rax
	sarq	$18, %rdx
	subq	%rax, %rdx
	movl	$1, %eax
	movq	%rdx, 80(%rsp)
	testq	%r15, %r15
	jne	.L1261
.L1227:
	leaq	96(%rsp), %rcx
	leaq	64(%rsp), %rdx
	movq	%rax, 88(%rsp)
	call	timerfd_settime@PLT
	jmp	.L1214
	.p2align 4,,10
	.p2align 3
.L1256:
	cmpq	16(%rbx), %r13
	je	.L1196
	movq	32(%rbx), %r10
	movq	24(%rbx), %r8
	movq	40(%rbx), %rsi
	movq	(%r15), %r9
	movq	%r10, %rdx
	subq	%r8, %rdx
	movq	%rdx, %rax
	sarq	$4, %rax
	movq	%rax, 16(%r13)
	cmpq	%rsi, %r10
	je	.L1197
	leaq	16(%r10), %r15
	movq	%r9, (%r10)
	movq	%r13, 8(%r10)
	movq	%r15, 32(%rbx)
.L1198:
	movq	%r15, %rax
	subq	%r8, %rax
	sarq	$4, %rax
	subq	$1, %rax
	je	.L1206
	movq	-16(%r15), %r9
	jmp	.L1207
	.p2align 4,,10
	.p2align 3
.L1262:
	movq	%rdi, %rcx
	movdqu	(%rdx), %xmm0
	salq	$4, %rcx
	addq	%r8, %rcx
	movq	8(%rcx), %rsi
	movups	%xmm0, (%rcx)
	movq	%r9, (%rdx)
	movq	%rsi, 8(%rdx)
	movq	8(%rcx), %rdx
	movq	%rdi, 16(%rdx)
	movq	%rax, 16(%rsi)
	testq	%rax, %rax
	je	.L1206
.L1207:
	movq	%rax, %rdi
	leaq	-1(%rax), %rax
	shrq	%rax
	movq	%rax, %rdx
	salq	$4, %rdx
	addq	%r8, %rdx
	cmpq	%r9, (%rdx)
	jg	.L1262
.L1206:
	movq	16(%rbx), %rax
	movq	$0, 32(%r13)
	movq	%rax, 24(%r13)
	testq	%rax, %rax
	je	.L1205
	movq	%r13, 32(%rax)
.L1205:
	movq	%r13, 16(%rbx)
	jmp	.L1196
	.p2align 4,,10
	.p2align 3
.L1257:
	movl	88(%r12), %edx
	movl	96(%r12), %edi
	leaq	88(%r12), %rax
	leaq	96(%rsp), %rcx
	movl	$3, %esi
	movl	$-2147483639, 96(%rsp)
	movq	%rax, 100(%rsp)
	call	epoll_ctl@PLT
	jmp	.L1214
	.p2align 4,,10
	.p2align 3
.L1191:
	movdqa	(%rsp), %xmm2
	movups	%xmm2, 192(%rbx)
	jmp	.L1192
	.p2align 4,,10
	.p2align 3
.L1216:
	movq	%r15, %rsi
	movq	%rbx, %rdi
.LEHB36:
	call	*%rax
	movq	%rax, %r15
	jmp	.L1217
	.p2align 4,,10
	.p2align 3
.L1258:
	movl	$1, %r15d
	jmp	.L1217
	.p2align 4,,10
	.p2align 3
.L1219:
	movabsq	$-9223372036854775808, %rsi
	cmpq	%rsi, %rdx
	je	.L1231
	movabsq	$9223372036854775807, %rcx
	movq	%rdx, %rsi
	subq	%rax, %rcx
	negq	%rsi
	subq	%rdx, %rax
	cmpq	%rcx, %rsi
	jle	.L1222
.L1231:
	movabsq	$9223372036854775, %rdx
	jmp	.L1221
	.p2align 4,,10
	.p2align 3
.L1193:
	cmpb	$0, 176(%rbx)
	jne	.L1195
	movq	144(%rbx), %rax
	testq	%rax, %rax
	je	.L1195
	movb	$1, 176(%rbx)
	leaq	88(%rax), %rdx
	leaq	96(%rsp), %rcx
	movl	$3, %esi
	movq	%rdx, 100(%rsp)
	movl	88(%rax), %edx
	movl	$-2147483639, 96(%rsp)
	movl	96(%rax), %edi
	call	epoll_ctl@PLT
.L1195:
	movq	%r12, %rdi
	call	pthread_mutex_unlock@PLT
	jmp	.L1214
	.p2align 4,,10
	.p2align 3
.L1261:
	imulq	$1000000, %rdx, %rdx
	xorl	%esi, %esi
	subq	%rdx, %r15
	imulq	$1000, %r15, %rax
	jmp	.L1227
	.p2align 4,,10
	.p2align 3
.L1189:
	movdqa	(%rsp), %xmm3
	movups	%xmm3, 8(%rax)
	jmp	.L1214
	.p2align 4,,10
	.p2align 3
.L1197:
	movabsq	$576460752303423487, %rcx
	cmpq	%rcx, %rax
	je	.L1263
	testq	%rax, %rax
	movl	$1, %ecx
	movq	%r9, 56(%rsp)
	cmovne	%rax, %rcx
	movq	%rsi, 48(%rsp)
	movq	%rdx, 40(%rsp)
	addq	%rcx, %rax
	movq	%r10, 32(%rsp)
	movabsq	$576460752303423487, %rcx
	cmpq	%rcx, %rax
	movq	%r8, 24(%rsp)
	cmova	%rcx, %rax
	salq	$4, %rax
	movq	%rax, %rdi
	movq	%rax, (%rsp)
	call	_Znwm@PLT
	movq	24(%rsp), %r8
	movq	32(%rsp), %r10
	movq	%rax, %rcx
	movq	40(%rsp), %rdx
	movq	56(%rsp), %r9
	cmpq	%r8, %r10
	movq	48(%rsp), %rsi
	movq	%r9, (%rax,%rdx)
	movq	%r13, 8(%rax,%rdx)
	je	.L1229
	movq	%r10, %rax
	movq	%rcx, %rdx
	movq	%r8, %rdi
	subq	%r8, %rax
	addq	%rcx, %rax
	.p2align 5
	.p2align 4
	.p2align 3
.L1201:
	movdqu	(%rdi), %xmm0
	addq	$16, %rdx
	addq	$16, %rdi
	movups	%xmm0, -16(%rdx)
	cmpq	%rax, %rdx
	jne	.L1201
.L1200:
	leaq	16(%rdx), %r15
	testq	%r8, %r8
	je	.L1202
	subq	%r8, %rsi
	movq	%r8, %rdi
	movq	%rcx, 24(%rsp)
	call	_ZdlPvm@PLT
	movq	24(%rsp), %rcx
.L1202:
	movq	(%rsp), %rax
	movq	%rcx, 24(%rbx)
	movq	%rcx, %r8
	movq	%r15, 32(%rbx)
	addq	%rcx, %rax
	movq	%rax, 40(%rbx)
	jmp	.L1198
	.p2align 4,,10
	.p2align 3
.L1215:
	movq	$300, 80(%rsp)
	xorl	%eax, %eax
	xorl	%esi, %esi
	jmp	.L1227
.L1229:
	movq	%rax, %rdx
	jmp	.L1200
.L1236:
	movq	%rax, %rbx
	jmp	.L1228
.L1263:
	leaq	.LC40(%rip), %rdi
	call	_ZSt20__throw_length_errorPKc@PLT
.LEHE36:
.L1228:
	movq	%rbp, %rdi
	call	pthread_mutex_unlock@PLT
	movq	%rbx, %rdi
.LEHB37:
	call	_Unwind_Resume@PLT
.LEHE37:
	.cfi_endproc
.LFE8859:
	.section	.gcc_except_table
.LLSDA8859:
	.byte	0xff
	.byte	0xff
	.byte	0x1
	.uleb128 .LLSDACSE8859-.LLSDACSB8859
.LLSDACSB8859:
	.uleb128 .LEHB35-.LFB8859
	.uleb128 .LEHE35-.LEHB35
	.uleb128 0
	.uleb128 0
	.uleb128 .LEHB36-.LFB8859
	.uleb128 .LEHE36-.LEHB36
	.uleb128 .L1236-.LFB8859
	.uleb128 0
	.uleb128 .LEHB37-.LFB8859
	.uleb128 .LEHE37-.LEHB37
	.uleb128 0
	.uleb128 0
.LLSDACSE8859:
	.section	.text._ZN4asio6detail13epoll_reactor14schedule_timerINS0_18chrono_time_traitsINSt6chrono3_V212steady_clockENS_11wait_traitsIS6_EEEEEEvRNS0_11timer_queueIT_EERKNSB_9time_typeERNSC_14per_timer_dataEPNS0_7wait_opE,"axG",@progbits,_ZN4asio6detail13epoll_reactor14schedule_timerINS0_18chrono_time_traitsINSt6chrono3_V212steady_clockENS_11wait_traitsIS6_EEEEEEvRNS0_11timer_queueIT_EERKNSB_9time_typeERNSC_14per_timer_dataEPNS0_7wait_opE,comdat
	.size	_ZN4asio6detail13epoll_reactor14schedule_timerINS0_18chrono_time_traitsINSt6chrono3_V212steady_clockENS_11wait_traitsIS6_EEEEEEvRNS0_11timer_queueIT_EERKNSB_9time_typeERNSC_14per_timer_dataEPNS0_7wait_opE, .-_ZN4asio6detail13epoll_reactor14schedule_timerINS0_18chrono_time_traitsINSt6chrono3_V212steady_clockENS_11wait_traitsIS6_EEEEEEvRNS0_11timer_queueIT_EERKNSB_9time_typeERNSC_14per_timer_dataEPNS0_7wait_opE
	.section	.text._ZN4asio6detail16service_registry6createINS_22waitable_timer_serviceINSt6chrono3_V212steady_clockENS_11wait_traitsIS6_EEEEEEPNS_10io_service7serviceERSA_,"axG",@progbits,_ZN4asio6detail16service_registry6createINS_22waitable_timer_serviceINSt6chrono3_V212steady_clockENS_11wait_traitsIS6_EEEEEEPNS_10io_service7serviceERSA_,comdat
	.align 2
	.p2align 4
	.weak	_ZN4asio6detail16service_registry6createINS_22waitable_timer_serviceINSt6chrono3_V212steady_clockENS_11wait_traitsIS6_EEEEEEPNS_10io_service7serviceERSA_
	.type	_ZN4asio6detail16service_registry6createINS_22waitable_timer_serviceINSt6chrono3_V212steady_clockENS_11wait_traitsIS6_EEEEEEPNS_10io_service7serviceERSA_, @function
_ZN4asio6detail16service_registry6createINS_22waitable_timer_serviceINSt6chrono3_V212steady_clockENS_11wait_traitsIS6_EEEEEEPNS_10io_service7serviceERSA_:
.LFB9075:
	.cfi_startproc
	.cfi_personality 0x9b,DW.ref.__gxx_personality_v0
	.cfi_lsda 0x1b,.LLSDA9075
	pushq	%r15
	.cfi_def_cfa_offset 16
	.cfi_offset 15, -16
	pushq	%r14
	.cfi_def_cfa_offset 24
	.cfi_offset 14, -24
	pushq	%r13
	.cfi_def_cfa_offset 32
	.cfi_offset 13, -32
	pushq	%r12
	.cfi_def_cfa_offset 40
	.cfi_offset 12, -40
	pushq	%rbp
	.cfi_def_cfa_offset 48
	.cfi_offset 6, -48
	pushq	%rbx
	.cfi_def_cfa_offset 56
	.cfi_offset 3, -56
	movq	%rdi, %rbx
	movl	$96, %edi
	subq	$40, %rsp
	.cfi_def_cfa_offset 96
.LEHB38:
	call	_Znwm@PLT
.LEHE38:
	movq	(%rbx), %r12
	movq	%rbx, %xmm2
	movq	%rax, %rbp
	movq	_ZTVN4asio22waitable_timer_serviceINSt6chrono3_V212steady_clockENS_11wait_traitsIS3_EEEE@GOTPCREL(%rip), %rax
	movq	$0, 80(%rbp)
	leaq	8(%r12), %r13
	addq	$16, %rax
	movq	%r13, %rdi
	movq	%rax, %xmm0
	movq	_ZTVN4asio6detail11timer_queueINS0_18chrono_time_traitsINSt6chrono3_V212steady_clockENS_11wait_traitsIS5_EEEEEE@GOTPCREL(%rip), %rax
	movups	%xmm0, 0(%rbp)
	pxor	%xmm0, %xmm0
	addq	$16, %rax
	movdqa	%xmm0, %xmm1
	movq	%rax, %xmm3
	punpcklqdq	%xmm2, %xmm1
	punpcklqdq	%xmm3, %xmm0
	movups	%xmm1, 16(%rbp)
	movups	%xmm0, 32(%rbp)
	pxor	%xmm0, %xmm0
	movups	%xmm0, 48(%rbp)
	movups	%xmm0, 64(%rbp)
	call	pthread_mutex_lock@PLT
	movq	56(%r12), %rbx
	testq	%rbx, %rbx
	je	.L1265
	.p2align 4
	.p2align 3
.L1268:
	movq	8(%rbx), %rax
	testq	%rax, %rax
	je	.L1266
	movq	8(%rax), %rdi
	movq	_ZTSN4asio6detail14typeid_wrapperINS0_13epoll_reactorEEE@GOTPCREL(%rip), %rsi
	cmpq	%rsi, %rdi
	je	.L1267
	cmpb	$42, (%rdi)
	je	.L1266
	call	strcmp@PLT
	testl	%eax, %eax
	jne	.L1266
.L1267:
	movq	%r13, %rdi
	call	pthread_mutex_unlock@PLT
	movq	40(%rbx), %r13
	movq	%rbx, 88(%rbp)
	leaq	48(%r13), %rbx
	movq	%rbx, %rdi
	call	pthread_mutex_lock@PLT
	cmpb	$0, 209(%r13)
	je	.L1340
.L1274:
	movq	%rbx, %rdi
	call	pthread_mutex_unlock@PLT
.L1292:
	movq	88(%rbp), %rbx
	leaq	48(%rbx), %rdi
	call	pthread_mutex_lock@PLT
	movq	104(%rbx), %rax
	leaq	48(%rbx), %rdi
	movq	%rax, 48(%rbp)
	leaq	40(%rbp), %rax
	movq	%rax, 104(%rbx)
	call	pthread_mutex_unlock@PLT
	addq	$40, %rsp
	.cfi_remember_state
	.cfi_def_cfa_offset 56
	movq	%rbp, %rax
	popq	%rbx
	.cfi_def_cfa_offset 48
	popq	%rbp
	.cfi_def_cfa_offset 40
	popq	%r12
	.cfi_def_cfa_offset 32
	popq	%r13
	.cfi_def_cfa_offset 24
	popq	%r14
	.cfi_def_cfa_offset 16
	popq	%r15
	.cfi_def_cfa_offset 8
	ret
	.p2align 4,,10
	.p2align 3
.L1266:
	.cfi_restore_state
	movq	32(%rbx), %rbx
	testq	%rbx, %rbx
	jne	.L1268
.L1265:
	movq	%r13, %rdi
	call	pthread_mutex_unlock@PLT
	movq	48(%r12), %rdi
.LEHB39:
	call	_ZN4asio6detail16service_registry6createINS0_13epoll_reactorEEEPNS_10io_service7serviceERS4_@PLT
.LEHE39:
	movq	_ZTIN4asio6detail14typeid_wrapperINS0_13epoll_reactorEEE@GOTPCREL(%rip), %xmm0
	movq	%r13, %rdi
	movq	%rax, %r14
	movups	%xmm0, 8(%rax)
	call	pthread_mutex_lock@PLT
	movq	56(%r12), %r15
	testq	%r15, %r15
	je	.L1269
	movq	%r15, %rbx
	.p2align 4
	.p2align 3
.L1273:
	movq	8(%rbx), %rax
	testq	%rax, %rax
	je	.L1270
	movq	8(%rax), %rdi
	movq	_ZTSN4asio6detail14typeid_wrapperINS0_13epoll_reactorEEE@GOTPCREL(%rip), %rsi
	cmpq	%rsi, %rdi
	je	.L1272
	cmpb	$42, (%rdi)
	je	.L1270
	call	strcmp@PLT
	testl	%eax, %eax
	jne	.L1270
.L1272:
	movq	(%r14), %rax
	movq	%r14, %rdi
	call	*8(%rax)
	jmp	.L1267
	.p2align 4,,10
	.p2align 3
.L1340:
	cmpq	$0, 144(%r13)
	jne	.L1274
	movq	24(%r13), %rax
	movq	(%rax), %r12
	leaq	8(%r12), %rax
	movq	%rax, %rdi
	movq	%rax, (%rsp)
	call	pthread_mutex_lock@PLT
	movq	56(%r12), %r15
	testq	%r15, %r15
	je	.L1275
	.p2align 4
	.p2align 3
.L1278:
	movq	8(%r15), %rax
	testq	%rax, %rax
	je	.L1276
	movq	8(%rax), %rdi
	movq	_ZTSN4asio6detail14typeid_wrapperINS0_13epoll_reactorEEE@GOTPCREL(%rip), %rsi
	cmpq	%rsi, %rdi
	je	.L1277
	cmpb	$42, (%rdi)
	je	.L1276
	call	strcmp@PLT
	testl	%eax, %eax
	jne	.L1276
.L1277:
	movq	(%rsp), %rdi
	call	pthread_mutex_unlock@PLT
	movq	200(%r13), %rsi
	movq	%r15, %xmm0
	leaq	152(%r13), %rax
	movups	%xmm0, 144(%r13)
	testq	%rsi, %rsi
	je	.L1284
	movq	%rax, (%rsi)
	movq	%rax, 200(%r13)
.L1285:
	movq	136(%r13), %rax
	movq	%rax, %rsi
	orq	$1, %rsi
	movq	%rsi, 136(%r13)
	cmpq	$1, %rax
	ja	.L1341
	cmpb	$0, 176(%r13)
	jne	.L1274
	leaq	88(%r15), %rax
	movl	96(%r15), %edi
	leaq	20(%rsp), %rcx
	movb	$1, 176(%r13)
	movq	%rax, 24(%rsp)
	movl	88(%r15), %eax
	movl	$3, %esi
	movl	$-2147483639, 20(%rsp)
	movl	%eax, %edx
	call	epoll_ctl@PLT
	jmp	.L1274
	.p2align 4,,10
	.p2align 3
.L1270:
	movq	32(%rbx), %rbx
	testq	%rbx, %rbx
	jne	.L1273
.L1269:
	movq	%r15, 32(%r14)
	movq	%r14, %rbx
	movq	%r14, 56(%r12)
	jmp	.L1267
	.p2align 4,,10
	.p2align 3
.L1276:
	movq	32(%r15), %r15
	testq	%r15, %r15
	jne	.L1278
.L1275:
	movq	(%rsp), %r15
	movq	%r15, %rdi
	call	pthread_mutex_unlock@PLT
	movq	48(%r12), %rdi
.LEHB40:
	call	_ZN4asio6detail16service_registry6createINS0_13epoll_reactorEEEPNS_10io_service7serviceERS4_@PLT
.LEHE40:
	movq	_ZTIN4asio6detail14typeid_wrapperINS0_13epoll_reactorEEE@GOTPCREL(%rip), %xmm0
	movq	%r15, %rdi
	movq	%rax, %r14
	movups	%xmm0, 8(%rax)
	call	pthread_mutex_lock@PLT
	movq	56(%r12), %rax
	movq	%rax, 8(%rsp)
	testq	%rax, %rax
	je	.L1279
	movq	%rax, %r15
	.p2align 4
	.p2align 3
.L1283:
	movq	8(%r15), %rax
	testq	%rax, %rax
	je	.L1280
	movq	8(%rax), %rdi
	movq	_ZTSN4asio6detail14typeid_wrapperINS0_13epoll_reactorEEE@GOTPCREL(%rip), %rsi
	cmpq	%rsi, %rdi
	je	.L1282
	cmpb	$42, (%rdi)
	je	.L1280
	call	strcmp@PLT
	testl	%eax, %eax
	jne	.L1280
.L1282:
	movq	(%r14), %rax
	movq	%r14, %rdi
	call	*8(%rax)
	jmp	.L1277
.L1341:
	movq	%rbx, %rdi
	call	pthread_mutex_unlock@PLT
	leaq	88(%r13), %rdi
	call	pthread_cond_signal@PLT
	jmp	.L1292
	.p2align 4,,10
	.p2align 3
.L1280:
	movq	32(%r15), %r15
	testq	%r15, %r15
	jne	.L1283
.L1279:
	movq	8(%rsp), %rax
	movq	%r14, %r15
	movq	%rax, 32(%r14)
	movq	%r14, 56(%r12)
	jmp	.L1277
.L1284:
	movq	%rax, %xmm0
	punpcklqdq	%xmm0, %xmm0
	movups	%xmm0, 192(%r13)
	jmp	.L1285
.L1294:
	movq	%rax, %r12
	jmp	.L1289
.L1293:
	movq	%rax, %r12
	jmp	.L1290
.L1289:
	movq	%rbx, %rdi
	call	pthread_mutex_unlock@PLT
.L1290:
	movq	64(%rbp), %rdi
	testq	%rdi, %rdi
	je	.L1291
	movq	80(%rbp), %rsi
	subq	%rdi, %rsi
	call	_ZdlPvm@PLT
.L1291:
	movq	%rbp, %rdi
	movl	$96, %esi
	call	_ZdlPvm@PLT
	movq	%r12, %rdi
.LEHB41:
	call	_Unwind_Resume@PLT
.LEHE41:
	.cfi_endproc
.LFE9075:
	.section	.gcc_except_table
.LLSDA9075:
	.byte	0xff
	.byte	0xff
	.byte	0x1
	.uleb128 .LLSDACSE9075-.LLSDACSB9075
.LLSDACSB9075:
	.uleb128 .LEHB38-.LFB9075
	.uleb128 .LEHE38-.LEHB38
	.uleb128 0
	.uleb128 0
	.uleb128 .LEHB39-.LFB9075
	.uleb128 .LEHE39-.LEHB39
	.uleb128 .L1293-.LFB9075
	.uleb128 0
	.uleb128 .LEHB40-.LFB9075
	.uleb128 .LEHE40-.LEHB40
	.uleb128 .L1294-.LFB9075
	.uleb128 0
	.uleb128 .LEHB41-.LFB9075
	.uleb128 .LEHE41-.LEHB41
	.uleb128 0
	.uleb128 0
.LLSDACSE9075:
	.section	.text._ZN4asio6detail16service_registry6createINS_22waitable_timer_serviceINSt6chrono3_V212steady_clockENS_11wait_traitsIS6_EEEEEEPNS_10io_service7serviceERSA_,"axG",@progbits,_ZN4asio6detail16service_registry6createINS_22waitable_timer_serviceINSt6chrono3_V212steady_clockENS_11wait_traitsIS6_EEEEEEPNS_10io_service7serviceERSA_,comdat
	.size	_ZN4asio6detail16service_registry6createINS_22waitable_timer_serviceINSt6chrono3_V212steady_clockENS_11wait_traitsIS6_EEEEEEPNS_10io_service7serviceERSA_, .-_ZN4asio6detail16service_registry6createINS_22waitable_timer_serviceINSt6chrono3_V212steady_clockENS_11wait_traitsIS6_EEEEEEPNS_10io_service7serviceERSA_
	.section	.rodata.str1.8
	.align 8
.LC41:
	.string	"Concurrency was set to 0, defaulting to 1 thread"
	.align 8
.LC42:
	.string	"/opt/PLC/OpenPLC_v3/utils/dnp3_src/cpp/libs/src/asiopal/ThreadPool.cpp(51)"
	.section	.text.unlikely
	.align 2
.LCOLDB43:
	.text
.LHOTB43:
	.align 2
	.p2align 4
	.globl	_ZN7asiopal10ThreadPoolC2ERKN7openpal6LoggerERKSt10shared_ptrINS_2IOEEjSt8functionIFvvEESC_
	.type	_ZN7asiopal10ThreadPoolC2ERKN7openpal6LoggerERKSt10shared_ptrINS_2IOEEjSt8functionIFvvEESC_, @function
_ZN7asiopal10ThreadPoolC2ERKN7openpal6LoggerERKSt10shared_ptrINS_2IOEEjSt8functionIFvvEESC_:
.LFB7066:
	.cfi_startproc
	.cfi_personality 0x9b,DW.ref.__gxx_personality_v0
	.cfi_lsda 0x1b,.LLSDA7066
	pushq	%r15
	.cfi_def_cfa_offset 16
	.cfi_offset 15, -16
	pushq	%r14
	.cfi_def_cfa_offset 24
	.cfi_offset 14, -24
	movl	%ecx, %r14d
	pushq	%r13
	.cfi_def_cfa_offset 32
	.cfi_offset 13, -32
	movq	%rdx, %r13
	pushq	%r12
	.cfi_def_cfa_offset 40
	.cfi_offset 12, -40
	movq	%r8, %r12
	pushq	%rbp
	.cfi_def_cfa_offset 48
	.cfi_offset 6, -48
	movq	%r9, %rbp
	pushq	%rbx
	.cfi_def_cfa_offset 56
	.cfi_offset 3, -56
	movq	%rdi, %rbx
	subq	$88, %rsp
	.cfi_def_cfa_offset 144
	movdqu	(%rsi), %xmm0
	movhlps	%xmm0, %xmm3
	movups	%xmm0, (%rdi)
	movq	%xmm3, %rax
	testq	%rax, %rax
	je	.L1343
	movq	__libc_single_threaded@GOTPCREL(%rip), %rdx
	cmpb	$0, (%rdx)
	je	.L1344
	addl	$1, 8(%rax)
.L1343:
	movdqu	16(%rsi), %xmm0
	movhlps	%xmm0, %xmm4
	movups	%xmm0, 16(%rbx)
	movq	%xmm4, %rax
	testq	%rax, %rax
	je	.L1345
	movq	__libc_single_threaded@GOTPCREL(%rip), %rdx
	cmpb	$0, (%rdx)
	je	.L1346
	addl	$1, 8(%rax)
.L1345:
	movdqu	0(%r13), %xmm0
	movhlps	%xmm0, %xmm5
	movups	%xmm0, 32(%rbx)
	movq	%xmm5, %rax
	testq	%rax, %rax
	je	.L1347
	movq	__libc_single_threaded@GOTPCREL(%rip), %rdx
	cmpb	$0, (%rdx)
	je	.L1348
	addl	$1, 8(%rax)
.L1347:
	movq	16(%r12), %rax
	pxor	%xmm0, %xmm0
	movq	$0, 64(%rbx)
	movq	$0, 72(%rbx)
	movups	%xmm0, 48(%rbx)
	testq	%rax, %rax
	je	.L1349
	movl	$2, %edx
	movq	%r12, %rsi
	leaq	48(%rbx), %rdi
.LEHB42:
	call	*%rax
.LEHE42:
	movdqu	16(%r12), %xmm0
	movups	%xmm0, 64(%rbx)
.L1349:
	movq	16(%rbp), %rax
	pxor	%xmm0, %xmm0
	movq	$0, 96(%rbx)
	movq	$0, 104(%rbx)
	movups	%xmm0, 80(%rbx)
	testq	%rax, %rax
	je	.L1351
	movl	$2, %edx
	movq	%rbp, %rsi
	leaq	80(%rbx), %rdi
.LEHB43:
	call	*%rax
.LEHE43:
	movdqu	16(%rbp), %xmm0
	movups	%xmm0, 96(%rbx)
.L1351:
	movq	0(%r13), %rax
	movb	$0, 112(%rbx)
	movq	8(%rax), %rbp
	leaq	8(%rbp), %r12
	movq	%r12, %rdi
	call	pthread_mutex_lock@PLT
	movq	56(%rbp), %r15
	testq	%r15, %r15
	je	.L1356
	.p2align 4
	.p2align 3
.L1355:
	movq	8(%r15), %rax
	testq	%rax, %rax
	je	.L1360
	movq	8(%rax), %rdi
	movq	_ZTSN4asio6detail14typeid_wrapperINS_22waitable_timer_serviceINSt6chrono3_V212steady_clockENS_11wait_traitsIS5_EEEEEE@GOTPCREL(%rip), %rsi
	cmpq	%rsi, %rdi
	je	.L1361
	cmpb	$42, (%rdi)
	je	.L1360
	call	strcmp@PLT
	testl	%eax, %eax
	jne	.L1360
.L1361:
	movq	%r12, %rdi
	call	pthread_mutex_unlock@PLT
	pxor	%xmm0, %xmm0
	movq	%r15, 120(%rbx)
	leaq	144(%rbx), %rax
	movq	%rax, 56(%rsp)
	movq	$0, 128(%rbx)
	movb	$0, 136(%rbx)
	movq	$0, 200(%rbx)
	movups	%xmm0, 144(%rbx)
	movups	%xmm0, 168(%rbx)
	movups	%xmm0, 184(%rbx)
	testl	%r14d, %r14d
	jne	.L1366
	leaq	64(%rsp), %rbp
	movq	%rbx, %rdi
	movl	$4, 64(%rsp)
	movq	%rbp, %rsi
.LEHB44:
	call	_ZNK7openpal6Logger9IsEnabledERKNS_10LogFiltersE@PLT
.LEHE44:
	testb	%al, %al
	jne	.L1498
.L1367:
	call	_ZNSt3_V215system_categoryEv@PLT
	movq	120(%rbx), %r15
	movq	%rax, %r12
	cmpb	$0, 136(%rbx)
	je	.L1403
	movq	88(%r15), %rdi
	movq	56(%rsp), %rdx
	leaq	40(%r15), %rsi
	movl	$1, %r14d
	call	_ZN4asio6detail13epoll_reactor12cancel_timerINS0_18chrono_time_traitsINSt6chrono3_V212steady_clockENS_11wait_traitsIS6_EEEEEEmRNS0_11timer_queueIT_EERNSC_14per_timer_dataEm.constprop.0.isra.0
	movb	$0, 136(%rbx)
	movq	120(%rbx), %r15
	jmp	.L1368
	.p2align 4,,10
	.p2align 3
.L1360:
	movq	32(%r15), %r15
	testq	%r15, %r15
	jne	.L1355
.L1356:
	movq	%r12, %rdi
	call	pthread_mutex_unlock@PLT
	movq	48(%rbp), %rdi
.LEHB45:
	call	_ZN4asio6detail16service_registry6createINS_22waitable_timer_serviceINSt6chrono3_V212steady_clockENS_11wait_traitsIS6_EEEEEEPNS_10io_service7serviceERSA_@PLT
.LEHE45:
	movq	_ZTIN4asio6detail14typeid_wrapperINS_22waitable_timer_serviceINSt6chrono3_V212steady_clockENS_11wait_traitsIS5_EEEEEE@GOTPCREL(%rip), %xmm0
	movq	%r12, %rdi
	movq	%rax, %r13
	movups	%xmm0, 8(%rax)
	call	pthread_mutex_lock@PLT
	movq	56(%rbp), %rax
	movq	%rax, (%rsp)
	testq	%rax, %rax
	je	.L1362
	movq	%rax, %r15
	.p2align 4
	.p2align 3
.L1365:
	movq	8(%r15), %rax
	testq	%rax, %rax
	je	.L1363
	movq	8(%rax), %rdi
	movq	_ZTSN4asio6detail14typeid_wrapperINS_22waitable_timer_serviceINSt6chrono3_V212steady_clockENS_11wait_traitsIS5_EEEEEE@GOTPCREL(%rip), %rsi
	cmpq	%rsi, %rdi
	je	.L1364
	cmpb	$42, (%rdi)
	je	.L1363
	call	strcmp@PLT
	testl	%eax, %eax
	jne	.L1363
.L1364:
	movq	0(%r13), %rax
	movq	%r13, %rdi
	call	*8(%rax)
	jmp	.L1361
	.p2align 4,,10
	.p2align 3
.L1366:
	call	_ZNSt3_V215system_categoryEv@PLT
	movq	%rax, %r12
.L1368:
	movabsq	$9223372036854775807, %rax
	movq	%rax, 128(%rbx)
	data16	leaq	_ZN4asio6detail15keyword_tss_ptrINS0_10call_stackINS0_15task_io_serviceENS0_27task_io_service_thread_infoEE7contextEE6value_E@tlsgd(%rip), %rdi
	.value	0x6666
	rex64
	call	__tls_get_addr@PLT
	movq	(%rax), %rax
	testq	%rax, %rax
	je	.L1369
	movq	8(%rax), %rax
	testq	%rax, %rax
	je	.L1369
	movq	(%rax), %rbp
	testq	%rbp, %rbp
	je	.L1369
	movq	$0, (%rax)
	movzbl	0(%rbp), %eax
	cmpb	$47, %al
	jbe	.L1370
	movb	%al, 48(%rbp)
	jmp	.L1371
	.p2align 4,,10
	.p2align 3
.L1370:
	movq	%rbp, %rdi
	call	_ZdlPv@PLT
.L1369:
	movl	$49, %edi
.LEHB46:
	call	_Znwm@PLT
.LEHE46:
	movb	$48, 48(%rax)
	movq	%rax, %rbp
.L1371:
	leaq	_ZN4asio6detail12wait_handlerIZN7asiopal10ThreadPoolC4ERKN7openpal6LoggerERKSt10shared_ptrINS2_2IOEEjSt8functionIFvvEESF_EUlRKSt10error_codeE_E11do_completeEPNS0_15task_io_serviceEPNS0_25task_io_service_operationESI_m(%rip), %rax
	movq	%r12, 32(%rbp)
	movq	88(%r15), %rdi
	leaq	128(%rbx), %rdx
	movq	%rax, 8(%rbp)
	movq	56(%rsp), %rcx
	leaq	40(%r15), %rsi
	movq	%rbp, %r8
	movq	$0, 0(%rbp)
	movl	$0, 16(%rbp)
	movl	$0, 24(%rbp)
	movb	$1, 136(%rbx)
.LEHB47:
	call	_ZN4asio6detail13epoll_reactor14schedule_timerINS0_18chrono_time_traitsINSt6chrono3_V212steady_clockENS_11wait_traitsIS6_EEEEEEvRNS0_11timer_queueIT_EERKNSB_9time_typeERNSC_14per_timer_dataEPNS0_7wait_opE@PLT
.LEHE47:
	leaq	16+_ZTVNSt6thread11_State_implINS_8_InvokerISt5tupleIJZN7asiopal10ThreadPoolC4ERKN7openpal6LoggerERKSt10shared_ptrINS3_2IOEEjSt8functionIFvvEESG_EUlvE_EEEEEE(%rip), %rax
	movq	%rbx, %xmm6
	xorl	%ebp, %ebp
	movq	%rax, %xmm2
	punpcklqdq	%xmm6, %xmm2
	movaps	%xmm2, (%rsp)
	jmp	.L1372
	.p2align 4,,10
	.p2align 3
.L1378:
	movq	%r12, (%rdx)
	addl	$1, %ebp
	addq	$8, %rdx
	movq	%rdx, 192(%rbx)
	cmpl	%r14d, %ebp
	je	.L1499
.L1372:
	movl	$8, %edi
.LEHB48:
	call	_Znwm@PLT
.LEHE48:
	movq	$0, (%rax)
	movl	$24, %edi
	movq	%rax, %r12
.LEHB49:
	call	_Znwm@PLT
.LEHE49:
	movdqa	(%rsp), %xmm1
	movl	%ebp, 16(%rax)
	leaq	64(%rsp), %rsi
	movq	%r12, %rdi
	movq	_ZNSt6thread24_M_thread_deps_never_runEv@GOTPCREL(%rip), %rdx
	movq	%rax, 64(%rsp)
	movups	%xmm1, (%rax)
.LEHB50:
	call	_ZNSt6thread15_M_start_threadESt10unique_ptrINS_6_StateESt14default_deleteIS1_EEPFvvE@PLT
.LEHE50:
	movq	64(%rsp), %rdi
	testq	%rdi, %rdi
	je	.L1377
	movq	(%rdi), %rax
	call	*8(%rax)
.L1377:
	movq	192(%rbx), %rdx
	movq	200(%rbx), %rsi
	cmpq	%rsi, %rdx
	jne	.L1378
	movq	184(%rbx), %rcx
	movq	%rdx, %r8
	movabsq	$1152921504606846975, %rdi
	subq	%rcx, %r8
	movq	%r8, %rax
	sarq	$3, %rax
	cmpq	%rdi, %rax
	je	.L1493
	testq	%rax, %rax
	movl	$1, %r13d
	movq	%r8, 48(%rsp)
	cmovne	%rax, %r13
	movq	%rcx, 40(%rsp)
	movq	%rsi, 32(%rsp)
	addq	%rax, %r13
	movq	%rdx, 24(%rsp)
	movabsq	$1152921504606846975, %rax
	cmpq	%rax, %r13
	cmova	%rax, %r13
	salq	$3, %r13
	movq	%r13, %rdi
.LEHB51:
	call	_Znwm@PLT
.LEHE51:
	movq	24(%rsp), %rdx
	movq	40(%rsp), %rcx
	movq	48(%rsp), %r8
	movq	32(%rsp), %rsi
	cmpq	%rcx, %rdx
	movq	%r12, (%rax,%r8)
	je	.L1405
	movq	%rcx, %rdi
	movq	%rax, %r8
	.p2align 5
	.p2align 4
	.p2align 3
.L1386:
	movq	(%rdi), %r9
	addq	$8, %rdi
	addq	$8, %r8
	movq	%r9, -8(%r8)
	cmpq	%rdi, %rdx
	jne	.L1386
	subq	%rcx, %rdx
	leaq	(%rax,%rdx), %r12
.L1385:
	addq	$8, %r12
	testq	%rcx, %rcx
	je	.L1387
	subq	%rcx, %rsi
	movq	%rcx, %rdi
	movq	%rax, 24(%rsp)
	call	_ZdlPvm@PLT
	movq	24(%rsp), %rax
.L1387:
	movq	%rax, 184(%rbx)
	addl	$1, %ebp
	addq	%r13, %rax
	movq	%r12, 192(%rbx)
	movq	%rax, 200(%rbx)
	cmpl	%r14d, %ebp
	jne	.L1372
.L1499:
	addq	$88, %rsp
	.cfi_remember_state
	.cfi_def_cfa_offset 56
	popq	%rbx
	.cfi_def_cfa_offset 48
	popq	%rbp
	.cfi_def_cfa_offset 40
	popq	%r12
	.cfi_def_cfa_offset 32
	popq	%r13
	.cfi_def_cfa_offset 24
	popq	%r14
	.cfi_def_cfa_offset 16
	popq	%r15
	.cfi_def_cfa_offset 8
	ret
	.p2align 4,,10
	.p2align 3
.L1348:
	.cfi_restore_state
	lock addl	$1, 8(%rax)
	jmp	.L1347
	.p2align 4,,10
	.p2align 3
.L1346:
	lock addl	$1, 8(%rax)
	jmp	.L1345
	.p2align 4,,10
	.p2align 3
.L1344:
	lock addl	$1, 8(%rax)
	jmp	.L1343
	.p2align 4,,10
	.p2align 3
.L1363:
	movq	32(%r15), %r15
	testq	%r15, %r15
	jne	.L1365
.L1362:
	movq	(%rsp), %rax
	movq	%r13, %r15
	movq	%rax, 32(%r13)
	movq	%r13, 56(%rbp)
	jmp	.L1361
	.p2align 4,,10
	.p2align 3
.L1498:
	leaq	.LC41(%rip), %rcx
	leaq	.LC42(%rip), %rdx
	movq	%rbp, %rsi
	movq	%rbx, %rdi
	movl	$4, 64(%rsp)
.LEHB52:
	call	_ZN7openpal6Logger3LogERKNS_10LogFiltersEPKcS5_@PLT
.LEHE52:
	jmp	.L1367
	.p2align 4,,10
	.p2align 3
.L1405:
	movq	%rax, %r12
	jmp	.L1385
.L1403:
	movl	$1, %r14d
	jmp	.L1368
.L1409:
	movq	%rax, %rbp
	jmp	.L1352
.L1407:
	movq	%rax, %rbp
	jmp	.L1376
.L1411:
	movq	%rax, %r12
	jmp	.L1373
.L1491:
	jmp	.L1492
.L1413:
	movq	%rax, %rbp
	jmp	.L1380
.L1410:
	movq	%rax, %rbp
	jmp	.L1357
.L1406:
	movq	%rax, %rbp
	jmp	.L1399
.L1412:
	movq	%rax, %rbp
	jmp	.L1382
	.section	.gcc_except_table
.LLSDA7066:
	.byte	0xff
	.byte	0xff
	.byte	0x1
	.uleb128 .LLSDACSE7066-.LLSDACSB7066
.LLSDACSB7066:
	.uleb128 .LEHB42-.LFB7066
	.uleb128 .LEHE42-.LEHB42
	.uleb128 .L1409-.LFB7066
	.uleb128 0
	.uleb128 .LEHB43-.LFB7066
	.uleb128 .LEHE43-.LEHB43
	.uleb128 .L1410-.LFB7066
	.uleb128 0
	.uleb128 .LEHB44-.LFB7066
	.uleb128 .LEHE44-.LEHB44
	.uleb128 .L1407-.LFB7066
	.uleb128 0
	.uleb128 .LEHB45-.LFB7066
	.uleb128 .LEHE45-.LEHB45
	.uleb128 .L1406-.LFB7066
	.uleb128 0
	.uleb128 .LEHB46-.LFB7066
	.uleb128 .LEHE46-.LEHB46
	.uleb128 .L1407-.LFB7066
	.uleb128 0
	.uleb128 .LEHB47-.LFB7066
	.uleb128 .LEHE47-.LEHB47
	.uleb128 .L1411-.LFB7066
	.uleb128 0
	.uleb128 .LEHB48-.LFB7066
	.uleb128 .LEHE48-.LEHB48
	.uleb128 .L1407-.LFB7066
	.uleb128 0
	.uleb128 .LEHB49-.LFB7066
	.uleb128 .LEHE49-.LEHB49
	.uleb128 .L1412-.LFB7066
	.uleb128 0
	.uleb128 .LEHB50-.LFB7066
	.uleb128 .LEHE50-.LEHB50
	.uleb128 .L1413-.LFB7066
	.uleb128 0
	.uleb128 .LEHB51-.LFB7066
	.uleb128 .LEHE51-.LEHB51
	.uleb128 .L1491-.LFB7066
	.uleb128 0
	.uleb128 .LEHB52-.LFB7066
	.uleb128 .LEHE52-.LEHB52
	.uleb128 .L1407-.LFB7066
	.uleb128 0
.LLSDACSE7066:
	.text
	.cfi_endproc
	.section	.text.unlikely
	.cfi_startproc
	.cfi_personality 0x9b,DW.ref.__gxx_personality_v0
	.cfi_lsda 0x1b,.LLSDAC7066
	.type	_ZN7asiopal10ThreadPoolC2ERKN7openpal6LoggerERKSt10shared_ptrINS_2IOEEjSt8functionIFvvEESC_.cold, @function
_ZN7asiopal10ThreadPoolC2ERKN7openpal6LoggerERKSt10shared_ptrINS_2IOEEjSt8functionIFvvEESC_.cold:
.LFSB7066:
.L1493:
	.cfi_def_cfa_offset 144
	.cfi_offset 3, -56
	.cfi_offset 6, -48
	.cfi_offset 12, -40
	.cfi_offset 13, -32
	.cfi_offset 14, -24
	.cfi_offset 15, -16
	leaq	.LC40(%rip), %rdi
.LEHB53:
	call	_ZSt20__throw_length_errorPKc@PLT
.LEHE53:
.L1352:
	movq	64(%rbx), %rax
	testq	%rax, %rax
	je	.L1354
	movl	$3, %edx
	leaq	48(%rbx), %rsi
	leaq	48(%rbx), %rdi
	call	*%rax
	jmp	.L1354
.L1373:
	data16	leaq	_ZN4asio6detail15keyword_tss_ptrINS0_10call_stackINS0_15task_io_serviceENS0_27task_io_service_thread_infoEE7contextEE6value_E@tlsgd(%rip), %rdi
	.value	0x6666
	rex64
	call	__tls_get_addr@PLT
	movq	(%rax), %rax
	testq	%rax, %rax
	je	.L1374
	movq	8(%rax), %rax
	testq	%rax, %rax
	jne	.L1500
.L1374:
	movq	%rbp, %rdi
	call	_ZdlPv@PLT
.L1375:
	movq	%r12, %rbp
.L1376:
	movq	192(%rbx), %r13
	movq	184(%rbx), %r12
.L1390:
	cmpq	%r12, %r13
	je	.L1501
	movq	(%r12), %rdi
	testq	%rdi, %rdi
	je	.L1391
	cmpq	$0, (%rdi)
	je	.L1502
.L1392:
	call	_ZSt9terminatev@PLT
.L1357:
	movq	96(%rbx), %rax
	testq	%rax, %rax
	je	.L1359
	movl	$3, %edx
	leaq	80(%rbx), %rsi
	leaq	80(%rbx), %rdi
	call	*%rax
.L1359:
	movq	64(%rbx), %rax
	testq	%rax, %rax
	je	.L1354
	leaq	48(%rbx), %rdi
	movl	$3, %edx
	movq	%rdi, %rsi
	call	*%rax
.L1354:
	movq	40(%rbx), %rdi
	testq	%rdi, %rdi
	je	.L1402
	call	_ZNSt16_Sp_counted_baseILN9__gnu_cxx12_Lock_policyE2EE10_M_releaseEv@PLT
.L1402:
	movq	%rbx, %rdi
	call	_ZN7openpal6LoggerD1Ev@PLT
	movq	%rbp, %rdi
.LEHB54:
	call	_Unwind_Resume@PLT
.LEHE54:
.L1501:
	movq	184(%rbx), %rdi
	testq	%rdi, %rdi
	je	.L1394
	movq	200(%rbx), %rsi
	subq	%rdi, %rsi
	call	_ZdlPvm@PLT
.L1394:
	call	_ZNSt3_V215system_categoryEv@PLT
	movq	%rax, %r12
	cmpb	$0, 136(%rbx)
	jne	.L1503
.L1398:
	movq	144(%rbx), %rsi
	testq	%rsi, %rsi
	je	.L1399
	movq	(%rsi), %rax
	movq	%rax, 144(%rbx)
	testq	%rax, %rax
	jne	.L1397
	xorl	%ecx, %ecx
	movq	%rcx, 152(%rbx)
.L1397:
	xorl	%eax, %eax
	xorl	%edx, %edx
	xorl	%ecx, %ecx
	xorl	%edi, %edi
	movq	%rax, (%rsi)
	movq	8(%rsi), %rax
	movl	%edx, 64(%rsp)
	leaq	64(%rsp), %rdx
	movq	%r12, 72(%rsp)
	call	*%rax
	jmp	.L1398
.L1503:
	movq	120(%rbx), %rax
	movq	56(%rsp), %rdx
	movq	88(%rax), %rdi
	leaq	40(%rax), %rsi
	call	_ZN4asio6detail13epoll_reactor12cancel_timerINS0_18chrono_time_traitsINSt6chrono3_V212steady_clockENS_11wait_traitsIS6_EEEEEEmRNS0_11timer_queueIT_EERNSC_14per_timer_dataEm.constprop.0.isra.0
	movb	$0, 136(%rbx)
	jmp	.L1398
.L1502:
	movl	$8, %esi
	call	_ZdlPvm@PLT
.L1391:
	addq	$8, %r12
	jmp	.L1390
.L1408:
.L1492:
	movq	%rax, %rbp
	cmpq	$0, (%r12)
	jne	.L1392
	movl	$8, %esi
	movq	%r12, %rdi
	call	_ZdlPvm@PLT
	jmp	.L1376
.L1380:
	movq	64(%rsp), %rdi
	testq	%rdi, %rdi
	je	.L1382
	movq	(%rdi), %rax
	call	*8(%rax)
.L1382:
	movl	$8, %esi
	movq	%r12, %rdi
	call	_ZdlPvm@PLT
	jmp	.L1376
.L1399:
	movq	96(%rbx), %rax
	testq	%rax, %rax
	je	.L1359
	leaq	80(%rbx), %rdi
	movl	$3, %edx
	movq	%rdi, %rsi
	call	*%rax
	jmp	.L1359
.L1500:
	cmpq	$0, (%rax)
	jne	.L1374
	movzbl	48(%rbp), %edx
	movb	%dl, 0(%rbp)
	movq	%rbp, (%rax)
	jmp	.L1375
	.cfi_endproc
.LFE7066:
	.section	.gcc_except_table
.LLSDAC7066:
	.byte	0xff
	.byte	0xff
	.byte	0x1
	.uleb128 .LLSDACSEC7066-.LLSDACSBC7066
.LLSDACSBC7066:
	.uleb128 .LEHB53-.LCOLDB43
	.uleb128 .LEHE53-.LEHB53
	.uleb128 .L1408-.LCOLDB43
	.uleb128 0
	.uleb128 .LEHB54-.LCOLDB43
	.uleb128 .LEHE54-.LEHB54
	.uleb128 0
	.uleb128 0
.LLSDACSEC7066:
	.section	.text.unlikely
	.text
	.size	_ZN7asiopal10ThreadPoolC2ERKN7openpal6LoggerERKSt10shared_ptrINS_2IOEEjSt8functionIFvvEESC_, .-_ZN7asiopal10ThreadPoolC2ERKN7openpal6LoggerERKSt10shared_ptrINS_2IOEEjSt8functionIFvvEESC_
	.section	.text.unlikely
	.size	_ZN7asiopal10ThreadPoolC2ERKN7openpal6LoggerERKSt10shared_ptrINS_2IOEEjSt8functionIFvvEESC_.cold, .-_ZN7asiopal10ThreadPoolC2ERKN7openpal6LoggerERKSt10shared_ptrINS_2IOEEjSt8functionIFvvEESC_.cold
.LCOLDE43:
	.text
.LHOTE43:
	.globl	_ZN7asiopal10ThreadPoolC1ERKN7openpal6LoggerERKSt10shared_ptrINS_2IOEEjSt8functionIFvvEESC_
	.set	_ZN7asiopal10ThreadPoolC1ERKN7openpal6LoggerERKSt10shared_ptrINS_2IOEEjSt8functionIFvvEESC_,_ZN7asiopal10ThreadPoolC2ERKN7openpal6LoggerERKSt10shared_ptrINS_2IOEEjSt8functionIFvvEESC_
	.section	.text.startup,"ax",@progbits
	.p2align 4
	.type	_GLOBAL__sub_I_ThreadPool.cpp, @function
_GLOBAL__sub_I_ThreadPool.cpp:
.LFB9714:
	.cfi_startproc
	subq	$8, %rsp
	.cfi_def_cfa_offset 16
	movq	_ZGVZN4asio15system_categoryEvE8instance@GOTPCREL(%rip), %rax
	movzbl	(%rax), %eax
	testb	%al, %al
	je	.L1536
.L1506:
	movq	_ZGVZN4asio5error18get_netdb_categoryEvE8instance@GOTPCREL(%rip), %rax
	movzbl	(%rax), %eax
	testb	%al, %al
	je	.L1537
.L1509:
	movq	_ZGVZN4asio5error21get_addrinfo_categoryEvE8instance@GOTPCREL(%rip), %rax
	movzbl	(%rax), %eax
	testb	%al, %al
	je	.L1538
.L1512:
	movq	_ZGVZN4asio5error17get_misc_categoryEvE8instance@GOTPCREL(%rip), %rax
	movzbl	(%rax), %eax
	testb	%al, %al
	je	.L1539
.L1515:
	movq	_ZGVN4asio6detail10call_stackINS0_15task_io_serviceENS0_27task_io_service_thread_infoEE4top_E@GOTPCREL(%rip), %rax
	cmpb	$0, (%rax)
	jne	.L1517
	movb	$1, (%rax)
.L1517:
	movq	_ZGVN4asio6detail12service_baseINS0_13epoll_reactorEE2idE@GOTPCREL(%rip), %rax
	cmpb	$0, (%rax)
	jne	.L1518
	movb	$1, (%rax)
.L1518:
	movq	_ZGVN4asio6detail12service_baseINS0_15task_io_serviceEE2idE@GOTPCREL(%rip), %rax
	cmpb	$0, (%rax)
	jne	.L1519
	movb	$1, (%rax)
.L1519:
	movq	_ZGVN4asio6detail10call_stackINS0_14strand_service11strand_implEhE4top_E@GOTPCREL(%rip), %rax
	cmpb	$0, (%rax)
	jne	.L1520
	movb	$1, (%rax)
.L1520:
	movq	_ZGVN4asio6detail12service_baseINS0_14strand_serviceEE2idE@GOTPCREL(%rip), %rax
	cmpb	$0, (%rax)
	jne	.L1521
	movb	$1, (%rax)
.L1521:
	movq	_ZGVN4asio6detail12service_baseINS_22waitable_timer_serviceINSt6chrono3_V212steady_clockENS_11wait_traitsIS5_EEEEE2idE@GOTPCREL(%rip), %rax
	cmpb	$0, (%rax)
	jne	.L1504
	movb	$1, (%rax)
.L1504:
	addq	$8, %rsp
	.cfi_remember_state
	.cfi_def_cfa_offset 8
	ret
.L1536:
	.cfi_restore_state
	movq	_ZGVZN4asio15system_categoryEvE8instance@GOTPCREL(%rip), %rdi
	call	__cxa_guard_acquire@PLT
	testl	%eax, %eax
	je	.L1506
	movq	_ZZN4asio15system_categoryEvE8instance@GOTPCREL(%rip), %rsi
	movq	_ZN4asio6detail15system_categoryD1Ev@GOTPCREL(%rip), %rdi
	leaq	__dso_handle(%rip), %rdx
	call	__cxa_atexit@PLT
	movq	_ZGVZN4asio15system_categoryEvE8instance@GOTPCREL(%rip), %rdi
	call	__cxa_guard_release@PLT
	jmp	.L1506
.L1539:
	movq	_ZGVZN4asio5error17get_misc_categoryEvE8instance@GOTPCREL(%rip), %rdi
	call	__cxa_guard_acquire@PLT
	testl	%eax, %eax
	je	.L1515
	movq	_ZZN4asio5error17get_misc_categoryEvE8instance@GOTPCREL(%rip), %rsi
	movq	_ZN4asio5error6detail13misc_categoryD1Ev@GOTPCREL(%rip), %rdi
	leaq	__dso_handle(%rip), %rdx
	call	__cxa_atexit@PLT
	movq	_ZGVZN4asio5error17get_misc_categoryEvE8instance@GOTPCREL(%rip), %rdi
	call	__cxa_guard_release@PLT
	jmp	.L1515
.L1538:
	movq	_ZGVZN4asio5error21get_addrinfo_categoryEvE8instance@GOTPCREL(%rip), %rdi
	call	__cxa_guard_acquire@PLT
	testl	%eax, %eax
	je	.L1512
	movq	_ZZN4asio5error21get_addrinfo_categoryEvE8instance@GOTPCREL(%rip), %rsi
	movq	_ZN4asio5error6detail17addrinfo_categoryD1Ev@GOTPCREL(%rip), %rdi
	leaq	__dso_handle(%rip), %rdx
	call	__cxa_atexit@PLT
	movq	_ZGVZN4asio5error21get_addrinfo_categoryEvE8instance@GOTPCREL(%rip), %rdi
	call	__cxa_guard_release@PLT
	jmp	.L1512
.L1537:
	movq	_ZGVZN4asio5error18get_netdb_categoryEvE8instance@GOTPCREL(%rip), %rdi
	call	__cxa_guard_acquire@PLT
	testl	%eax, %eax
	je	.L1509
	movq	_ZZN4asio5error18get_netdb_categoryEvE8instance@GOTPCREL(%rip), %rsi
	movq	_ZN4asio5error6detail14netdb_categoryD1Ev@GOTPCREL(%rip), %rdi
	leaq	__dso_handle(%rip), %rdx
	call	__cxa_atexit@PLT
	movq	_ZGVZN4asio5error18get_netdb_categoryEvE8instance@GOTPCREL(%rip), %rdi
	call	__cxa_guard_release@PLT
	jmp	.L1509
	.cfi_endproc
.LFE9714:
	.size	_GLOBAL__sub_I_ThreadPool.cpp, .-_GLOBAL__sub_I_ThreadPool.cpp
	.section	.init_array,"aw"
	.align 8
	.quad	_GLOBAL__sub_I_ThreadPool.cpp
	.weak	_ZTSN4asio6detail11noncopyableE
	.section	.rodata._ZTSN4asio6detail11noncopyableE,"aG",@progbits,_ZTSN4asio6detail11noncopyableE,comdat
	.align 16
	.type	_ZTSN4asio6detail11noncopyableE, @object
	.size	_ZTSN4asio6detail11noncopyableE, 28
_ZTSN4asio6detail11noncopyableE:
	.string	"N4asio6detail11noncopyableE"
	.weak	_ZTIN4asio6detail11noncopyableE
	.section	.data.rel.ro._ZTIN4asio6detail11noncopyableE,"awG",@progbits,_ZTIN4asio6detail11noncopyableE,comdat
	.align 8
	.type	_ZTIN4asio6detail11noncopyableE, @object
	.size	_ZTIN4asio6detail11noncopyableE, 16
_ZTIN4asio6detail11noncopyableE:
	.quad	_ZTVN10__cxxabiv117__class_type_infoE+16
	.quad	_ZTSN4asio6detail11noncopyableE
	.weak	_ZGVN4asio6detail12service_baseINS_22waitable_timer_serviceINSt6chrono3_V212steady_clockENS_11wait_traitsIS5_EEEEE2idE
	.section	.bss._ZGVN4asio6detail12service_baseINS_22waitable_timer_serviceINSt6chrono3_V212steady_clockENS_11wait_traitsIS5_EEEEE2idE,"awG",@nobits,_ZGVN4asio6detail12service_baseINS_22waitable_timer_serviceINSt6chrono3_V212steady_clockENS_11wait_traitsIS5_EEEEE2idE,comdat
	.align 8
	.type	_ZGVN4asio6detail12service_baseINS_22waitable_timer_serviceINSt6chrono3_V212steady_clockENS_11wait_traitsIS5_EEEEE2idE, @gnu_unique_object
	.size	_ZGVN4asio6detail12service_baseINS_22waitable_timer_serviceINSt6chrono3_V212steady_clockENS_11wait_traitsIS5_EEEEE2idE, 8
_ZGVN4asio6detail12service_baseINS_22waitable_timer_serviceINSt6chrono3_V212steady_clockENS_11wait_traitsIS5_EEEEE2idE:
	.zero	8
	.weak	_ZGVN4asio6detail12service_baseINS0_14strand_serviceEE2idE
	.section	.bss._ZGVN4asio6detail12service_baseINS0_14strand_serviceEE2idE,"awG",@nobits,_ZGVN4asio6detail12service_baseINS0_14strand_serviceEE2idE,comdat
	.align 8
	.type	_ZGVN4asio6detail12service_baseINS0_14strand_serviceEE2idE, @gnu_unique_object
	.size	_ZGVN4asio6detail12service_baseINS0_14strand_serviceEE2idE, 8
_ZGVN4asio6detail12service_baseINS0_14strand_serviceEE2idE:
	.zero	8
	.weak	_ZGVN4asio6detail10call_stackINS0_14strand_service11strand_implEhE4top_E
	.section	.bss._ZGVN4asio6detail10call_stackINS0_14strand_service11strand_implEhE4top_E,"awG",@nobits,_ZGVN4asio6detail10call_stackINS0_14strand_service11strand_implEhE4top_E,comdat
	.align 8
	.type	_ZGVN4asio6detail10call_stackINS0_14strand_service11strand_implEhE4top_E, @gnu_unique_object
	.size	_ZGVN4asio6detail10call_stackINS0_14strand_service11strand_implEhE4top_E, 8
_ZGVN4asio6detail10call_stackINS0_14strand_service11strand_implEhE4top_E:
	.zero	8
	.weak	_ZGVN4asio6detail12service_baseINS0_15task_io_serviceEE2idE
	.section	.bss._ZGVN4asio6detail12service_baseINS0_15task_io_serviceEE2idE,"awG",@nobits,_ZGVN4asio6detail12service_baseINS0_15task_io_serviceEE2idE,comdat
	.align 8
	.type	_ZGVN4asio6detail12service_baseINS0_15task_io_serviceEE2idE, @gnu_unique_object
	.size	_ZGVN4asio6detail12service_baseINS0_15task_io_serviceEE2idE, 8
_ZGVN4asio6detail12service_baseINS0_15task_io_serviceEE2idE:
	.zero	8
	.weak	_ZGVN4asio6detail12service_baseINS0_13epoll_reactorEE2idE
	.section	.bss._ZGVN4asio6detail12service_baseINS0_13epoll_reactorEE2idE,"awG",@nobits,_ZGVN4asio6detail12service_baseINS0_13epoll_reactorEE2idE,comdat
	.align 8
	.type	_ZGVN4asio6detail12service_baseINS0_13epoll_reactorEE2idE, @gnu_unique_object
	.size	_ZGVN4asio6detail12service_baseINS0_13epoll_reactorEE2idE, 8
_ZGVN4asio6detail12service_baseINS0_13epoll_reactorEE2idE:
	.zero	8
	.weak	_ZGVN4asio6detail10call_stackINS0_15task_io_serviceENS0_27task_io_service_thread_infoEE4top_E
	.section	.bss._ZGVN4asio6detail10call_stackINS0_15task_io_serviceENS0_27task_io_service_thread_infoEE4top_E,"awG",@nobits,_ZGVN4asio6detail10call_stackINS0_15task_io_serviceENS0_27task_io_service_thread_infoEE4top_E,comdat
	.align 8
	.type	_ZGVN4asio6detail10call_stackINS0_15task_io_serviceENS0_27task_io_service_thread_infoEE4top_E, @gnu_unique_object
	.size	_ZGVN4asio6detail10call_stackINS0_15task_io_serviceENS0_27task_io_service_thread_infoEE4top_E, 8
_ZGVN4asio6detail10call_stackINS0_15task_io_serviceENS0_27task_io_service_thread_infoEE4top_E:
	.zero	8
	.weak	_ZTSN4asio6detail15system_categoryE
	.section	.rodata._ZTSN4asio6detail15system_categoryE,"aG",@progbits,_ZTSN4asio6detail15system_categoryE,comdat
	.align 32
	.type	_ZTSN4asio6detail15system_categoryE, @object
	.size	_ZTSN4asio6detail15system_categoryE, 32
_ZTSN4asio6detail15system_categoryE:
	.string	"N4asio6detail15system_categoryE"
	.weak	_ZTIN4asio6detail15system_categoryE
	.section	.data.rel.ro._ZTIN4asio6detail15system_categoryE,"awG",@progbits,_ZTIN4asio6detail15system_categoryE,comdat
	.align 8
	.type	_ZTIN4asio6detail15system_categoryE, @object
	.size	_ZTIN4asio6detail15system_categoryE, 24
_ZTIN4asio6detail15system_categoryE:
	.quad	_ZTVN10__cxxabiv120__si_class_type_infoE+16
	.quad	_ZTSN4asio6detail15system_categoryE
	.quad	_ZTINSt3_V214error_categoryE
	.weak	_ZTSN4asio10io_service7serviceE
	.section	.rodata._ZTSN4asio10io_service7serviceE,"aG",@progbits,_ZTSN4asio10io_service7serviceE,comdat
	.align 16
	.type	_ZTSN4asio10io_service7serviceE, @object
	.size	_ZTSN4asio10io_service7serviceE, 28
_ZTSN4asio10io_service7serviceE:
	.string	"N4asio10io_service7serviceE"
	.weak	_ZTIN4asio10io_service7serviceE
	.section	.data.rel.ro._ZTIN4asio10io_service7serviceE,"awG",@progbits,_ZTIN4asio10io_service7serviceE,comdat
	.align 8
	.type	_ZTIN4asio10io_service7serviceE, @object
	.size	_ZTIN4asio10io_service7serviceE, 40
_ZTIN4asio10io_service7serviceE:
	.quad	_ZTVN10__cxxabiv121__vmi_class_type_infoE+16
	.quad	_ZTSN4asio10io_service7serviceE
	.long	0
	.long	1
	.quad	_ZTIN4asio6detail11noncopyableE
	.quad	0
	.weak	_ZTSN4asio5error6detail14netdb_categoryE
	.section	.rodata._ZTSN4asio5error6detail14netdb_categoryE,"aG",@progbits,_ZTSN4asio5error6detail14netdb_categoryE,comdat
	.align 32
	.type	_ZTSN4asio5error6detail14netdb_categoryE, @object
	.size	_ZTSN4asio5error6detail14netdb_categoryE, 37
_ZTSN4asio5error6detail14netdb_categoryE:
	.string	"N4asio5error6detail14netdb_categoryE"
	.weak	_ZTIN4asio5error6detail14netdb_categoryE
	.section	.data.rel.ro._ZTIN4asio5error6detail14netdb_categoryE,"awG",@progbits,_ZTIN4asio5error6detail14netdb_categoryE,comdat
	.align 8
	.type	_ZTIN4asio5error6detail14netdb_categoryE, @object
	.size	_ZTIN4asio5error6detail14netdb_categoryE, 24
_ZTIN4asio5error6detail14netdb_categoryE:
	.quad	_ZTVN10__cxxabiv120__si_class_type_infoE+16
	.quad	_ZTSN4asio5error6detail14netdb_categoryE
	.quad	_ZTINSt3_V214error_categoryE
	.weak	_ZTSN4asio5error6detail17addrinfo_categoryE
	.section	.rodata._ZTSN4asio5error6detail17addrinfo_categoryE,"aG",@progbits,_ZTSN4asio5error6detail17addrinfo_categoryE,comdat
	.align 32
	.type	_ZTSN4asio5error6detail17addrinfo_categoryE, @object
	.size	_ZTSN4asio5error6detail17addrinfo_categoryE, 40
_ZTSN4asio5error6detail17addrinfo_categoryE:
	.string	"N4asio5error6detail17addrinfo_categoryE"
	.weak	_ZTIN4asio5error6detail17addrinfo_categoryE
	.section	.data.rel.ro._ZTIN4asio5error6detail17addrinfo_categoryE,"awG",@progbits,_ZTIN4asio5error6detail17addrinfo_categoryE,comdat
	.align 8
	.type	_ZTIN4asio5error6detail17addrinfo_categoryE, @object
	.size	_ZTIN4asio5error6detail17addrinfo_categoryE, 24
_ZTIN4asio5error6detail17addrinfo_categoryE:
	.quad	_ZTVN10__cxxabiv120__si_class_type_infoE+16
	.quad	_ZTSN4asio5error6detail17addrinfo_categoryE
	.quad	_ZTINSt3_V214error_categoryE
	.weak	_ZTSN4asio5error6detail13misc_categoryE
	.section	.rodata._ZTSN4asio5error6detail13misc_categoryE,"aG",@progbits,_ZTSN4asio5error6detail13misc_categoryE,comdat
	.align 32
	.type	_ZTSN4asio5error6detail13misc_categoryE, @object
	.size	_ZTSN4asio5error6detail13misc_categoryE, 36
_ZTSN4asio5error6detail13misc_categoryE:
	.string	"N4asio5error6detail13misc_categoryE"
	.weak	_ZTIN4asio5error6detail13misc_categoryE
	.section	.data.rel.ro._ZTIN4asio5error6detail13misc_categoryE,"awG",@progbits,_ZTIN4asio5error6detail13misc_categoryE,comdat
	.align 8
	.type	_ZTIN4asio5error6detail13misc_categoryE, @object
	.size	_ZTIN4asio5error6detail13misc_categoryE, 24
_ZTIN4asio5error6detail13misc_categoryE:
	.quad	_ZTVN10__cxxabiv120__si_class_type_infoE+16
	.quad	_ZTSN4asio5error6detail13misc_categoryE
	.quad	_ZTINSt3_V214error_categoryE
	.weak	_ZTSN4asio6detail16timer_queue_baseE
	.section	.rodata._ZTSN4asio6detail16timer_queue_baseE,"aG",@progbits,_ZTSN4asio6detail16timer_queue_baseE,comdat
	.align 32
	.type	_ZTSN4asio6detail16timer_queue_baseE, @object
	.size	_ZTSN4asio6detail16timer_queue_baseE, 33
_ZTSN4asio6detail16timer_queue_baseE:
	.string	"N4asio6detail16timer_queue_baseE"
	.weak	_ZTIN4asio6detail16timer_queue_baseE
	.section	.data.rel.ro._ZTIN4asio6detail16timer_queue_baseE,"awG",@progbits,_ZTIN4asio6detail16timer_queue_baseE,comdat
	.align 8
	.type	_ZTIN4asio6detail16timer_queue_baseE, @object
	.size	_ZTIN4asio6detail16timer_queue_baseE, 40
_ZTIN4asio6detail16timer_queue_baseE:
	.quad	_ZTVN10__cxxabiv121__vmi_class_type_infoE+16
	.quad	_ZTSN4asio6detail16timer_queue_baseE
	.long	0
	.long	1
	.quad	_ZTIN4asio6detail11noncopyableE
	.quad	0
	.weak	_ZTSN4asio6detail12service_baseINS0_13epoll_reactorEEE
	.section	.rodata._ZTSN4asio6detail12service_baseINS0_13epoll_reactorEEE,"aG",@progbits,_ZTSN4asio6detail12service_baseINS0_13epoll_reactorEEE,comdat
	.align 32
	.type	_ZTSN4asio6detail12service_baseINS0_13epoll_reactorEEE, @object
	.size	_ZTSN4asio6detail12service_baseINS0_13epoll_reactorEEE, 51
_ZTSN4asio6detail12service_baseINS0_13epoll_reactorEEE:
	.string	"N4asio6detail12service_baseINS0_13epoll_reactorEEE"
	.weak	_ZTIN4asio6detail12service_baseINS0_13epoll_reactorEEE
	.section	.data.rel.ro._ZTIN4asio6detail12service_baseINS0_13epoll_reactorEEE,"awG",@progbits,_ZTIN4asio6detail12service_baseINS0_13epoll_reactorEEE,comdat
	.align 8
	.type	_ZTIN4asio6detail12service_baseINS0_13epoll_reactorEEE, @object
	.size	_ZTIN4asio6detail12service_baseINS0_13epoll_reactorEEE, 24
_ZTIN4asio6detail12service_baseINS0_13epoll_reactorEEE:
	.quad	_ZTVN10__cxxabiv120__si_class_type_infoE+16
	.quad	_ZTSN4asio6detail12service_baseINS0_13epoll_reactorEEE
	.quad	_ZTIN4asio10io_service7serviceE
	.weak	_ZTSN4asio6detail13epoll_reactorE
	.section	.rodata._ZTSN4asio6detail13epoll_reactorE,"aG",@progbits,_ZTSN4asio6detail13epoll_reactorE,comdat
	.align 16
	.type	_ZTSN4asio6detail13epoll_reactorE, @object
	.size	_ZTSN4asio6detail13epoll_reactorE, 30
_ZTSN4asio6detail13epoll_reactorE:
	.string	"N4asio6detail13epoll_reactorE"
	.weak	_ZTIN4asio6detail13epoll_reactorE
	.section	.data.rel.ro._ZTIN4asio6detail13epoll_reactorE,"awG",@progbits,_ZTIN4asio6detail13epoll_reactorE,comdat
	.align 8
	.type	_ZTIN4asio6detail13epoll_reactorE, @object
	.size	_ZTIN4asio6detail13epoll_reactorE, 24
_ZTIN4asio6detail13epoll_reactorE:
	.quad	_ZTVN10__cxxabiv120__si_class_type_infoE+16
	.quad	_ZTSN4asio6detail13epoll_reactorE
	.quad	_ZTIN4asio6detail12service_baseINS0_13epoll_reactorEEE
	.weak	_ZTSN4asio6detail12service_baseINS_22waitable_timer_serviceINSt6chrono3_V212steady_clockENS_11wait_traitsIS5_EEEEEE
	.section	.rodata._ZTSN4asio6detail12service_baseINS_22waitable_timer_serviceINSt6chrono3_V212steady_clockENS_11wait_traitsIS5_EEEEEE,"aG",@progbits,_ZTSN4asio6detail12service_baseINS_22waitable_timer_serviceINSt6chrono3_V212steady_clockENS_11wait_traitsIS5_EEEEEE,comdat
	.align 32
	.type	_ZTSN4asio6detail12service_baseINS_22waitable_timer_serviceINSt6chrono3_V212steady_clockENS_11wait_traitsIS5_EEEEEE, @object
	.size	_ZTSN4asio6detail12service_baseINS_22waitable_timer_serviceINSt6chrono3_V212steady_clockENS_11wait_traitsIS5_EEEEEE, 112
_ZTSN4asio6detail12service_baseINS_22waitable_timer_serviceINSt6chrono3_V212steady_clockENS_11wait_traitsIS5_EEEEEE:
	.string	"N4asio6detail12service_baseINS_22waitable_timer_serviceINSt6chrono3_V212steady_clockENS_11wait_traitsIS5_EEEEEE"
	.weak	_ZTIN4asio6detail12service_baseINS_22waitable_timer_serviceINSt6chrono3_V212steady_clockENS_11wait_traitsIS5_EEEEEE
	.section	.data.rel.ro._ZTIN4asio6detail12service_baseINS_22waitable_timer_serviceINSt6chrono3_V212steady_clockENS_11wait_traitsIS5_EEEEEE,"awG",@progbits,_ZTIN4asio6detail12service_baseINS_22waitable_timer_serviceINSt6chrono3_V212steady_clockENS_11wait_traitsIS5_EEEEEE,comdat
	.align 8
	.type	_ZTIN4asio6detail12service_baseINS_22waitable_timer_serviceINSt6chrono3_V212steady_clockENS_11wait_traitsIS5_EEEEEE, @object
	.size	_ZTIN4asio6detail12service_baseINS_22waitable_timer_serviceINSt6chrono3_V212steady_clockENS_11wait_traitsIS5_EEEEEE, 24
_ZTIN4asio6detail12service_baseINS_22waitable_timer_serviceINSt6chrono3_V212steady_clockENS_11wait_traitsIS5_EEEEEE:
	.quad	_ZTVN10__cxxabiv120__si_class_type_infoE+16
	.quad	_ZTSN4asio6detail12service_baseINS_22waitable_timer_serviceINSt6chrono3_V212steady_clockENS_11wait_traitsIS5_EEEEEE
	.quad	_ZTIN4asio10io_service7serviceE
	.weak	_ZTSN4asio6detail11timer_queueINS0_18chrono_time_traitsINSt6chrono3_V212steady_clockENS_11wait_traitsIS5_EEEEEE
	.section	.rodata._ZTSN4asio6detail11timer_queueINS0_18chrono_time_traitsINSt6chrono3_V212steady_clockENS_11wait_traitsIS5_EEEEEE,"aG",@progbits,_ZTSN4asio6detail11timer_queueINS0_18chrono_time_traitsINSt6chrono3_V212steady_clockENS_11wait_traitsIS5_EEEEEE,comdat
	.align 32
	.type	_ZTSN4asio6detail11timer_queueINS0_18chrono_time_traitsINSt6chrono3_V212steady_clockENS_11wait_traitsIS5_EEEEEE, @object
	.size	_ZTSN4asio6detail11timer_queueINS0_18chrono_time_traitsINSt6chrono3_V212steady_clockENS_11wait_traitsIS5_EEEEEE, 108
_ZTSN4asio6detail11timer_queueINS0_18chrono_time_traitsINSt6chrono3_V212steady_clockENS_11wait_traitsIS5_EEEEEE:
	.string	"N4asio6detail11timer_queueINS0_18chrono_time_traitsINSt6chrono3_V212steady_clockENS_11wait_traitsIS5_EEEEEE"
	.weak	_ZTIN4asio6detail11timer_queueINS0_18chrono_time_traitsINSt6chrono3_V212steady_clockENS_11wait_traitsIS5_EEEEEE
	.section	.data.rel.ro._ZTIN4asio6detail11timer_queueINS0_18chrono_time_traitsINSt6chrono3_V212steady_clockENS_11wait_traitsIS5_EEEEEE,"awG",@progbits,_ZTIN4asio6detail11timer_queueINS0_18chrono_time_traitsINSt6chrono3_V212steady_clockENS_11wait_traitsIS5_EEEEEE,comdat
	.align 8
	.type	_ZTIN4asio6detail11timer_queueINS0_18chrono_time_traitsINSt6chrono3_V212steady_clockENS_11wait_traitsIS5_EEEEEE, @object
	.size	_ZTIN4asio6detail11timer_queueINS0_18chrono_time_traitsINSt6chrono3_V212steady_clockENS_11wait_traitsIS5_EEEEEE, 24
_ZTIN4asio6detail11timer_queueINS0_18chrono_time_traitsINSt6chrono3_V212steady_clockENS_11wait_traitsIS5_EEEEEE:
	.quad	_ZTVN10__cxxabiv120__si_class_type_infoE+16
	.quad	_ZTSN4asio6detail11timer_queueINS0_18chrono_time_traitsINSt6chrono3_V212steady_clockENS_11wait_traitsIS5_EEEEEE
	.quad	_ZTIN4asio6detail16timer_queue_baseE
	.weak	_ZTSN4asio22waitable_timer_serviceINSt6chrono3_V212steady_clockENS_11wait_traitsIS3_EEEE
	.section	.rodata._ZTSN4asio22waitable_timer_serviceINSt6chrono3_V212steady_clockENS_11wait_traitsIS3_EEEE,"aG",@progbits,_ZTSN4asio22waitable_timer_serviceINSt6chrono3_V212steady_clockENS_11wait_traitsIS3_EEEE,comdat
	.align 32
	.type	_ZTSN4asio22waitable_timer_serviceINSt6chrono3_V212steady_clockENS_11wait_traitsIS3_EEEE, @object
	.size	_ZTSN4asio22waitable_timer_serviceINSt6chrono3_V212steady_clockENS_11wait_traitsIS3_EEEE, 85
_ZTSN4asio22waitable_timer_serviceINSt6chrono3_V212steady_clockENS_11wait_traitsIS3_EEEE:
	.string	"N4asio22waitable_timer_serviceINSt6chrono3_V212steady_clockENS_11wait_traitsIS3_EEEE"
	.weak	_ZTIN4asio22waitable_timer_serviceINSt6chrono3_V212steady_clockENS_11wait_traitsIS3_EEEE
	.section	.data.rel.ro._ZTIN4asio22waitable_timer_serviceINSt6chrono3_V212steady_clockENS_11wait_traitsIS3_EEEE,"awG",@progbits,_ZTIN4asio22waitable_timer_serviceINSt6chrono3_V212steady_clockENS_11wait_traitsIS3_EEEE,comdat
	.align 8
	.type	_ZTIN4asio22waitable_timer_serviceINSt6chrono3_V212steady_clockENS_11wait_traitsIS3_EEEE, @object
	.size	_ZTIN4asio22waitable_timer_serviceINSt6chrono3_V212steady_clockENS_11wait_traitsIS3_EEEE, 24
_ZTIN4asio22waitable_timer_serviceINSt6chrono3_V212steady_clockENS_11wait_traitsIS3_EEEE:
	.quad	_ZTVN10__cxxabiv120__si_class_type_infoE+16
	.quad	_ZTSN4asio22waitable_timer_serviceINSt6chrono3_V212steady_clockENS_11wait_traitsIS3_EEEE
	.quad	_ZTIN4asio6detail12service_baseINS_22waitable_timer_serviceINSt6chrono3_V212steady_clockENS_11wait_traitsIS5_EEEEEE
	.section	.data.rel.ro,"aw"
	.align 8
	.type	_ZTINSt6thread11_State_implINS_8_InvokerISt5tupleIJZN7asiopal10ThreadPoolC4ERKN7openpal6LoggerERKSt10shared_ptrINS3_2IOEEjSt8functionIFvvEESG_EUlvE_EEEEEE, @object
	.size	_ZTINSt6thread11_State_implINS_8_InvokerISt5tupleIJZN7asiopal10ThreadPoolC4ERKN7openpal6LoggerERKSt10shared_ptrINS3_2IOEEjSt8functionIFvvEESG_EUlvE_EEEEEE, 24
_ZTINSt6thread11_State_implINS_8_InvokerISt5tupleIJZN7asiopal10ThreadPoolC4ERKN7openpal6LoggerERKSt10shared_ptrINS3_2IOEEjSt8functionIFvvEESG_EUlvE_EEEEEE:
	.quad	_ZTVN10__cxxabiv120__si_class_type_infoE+16
	.quad	_ZTSNSt6thread11_State_implINS_8_InvokerISt5tupleIJZN7asiopal10ThreadPoolC4ERKN7openpal6LoggerERKSt10shared_ptrINS3_2IOEEjSt8functionIFvvEESG_EUlvE_EEEEEE
	.quad	_ZTINSt6thread6_StateE
	.section	.rodata
	.align 32
	.type	_ZTSNSt6thread11_State_implINS_8_InvokerISt5tupleIJZN7asiopal10ThreadPoolC4ERKN7openpal6LoggerERKSt10shared_ptrINS3_2IOEEjSt8functionIFvvEESG_EUlvE_EEEEEE, @object
	.size	_ZTSNSt6thread11_State_implINS_8_InvokerISt5tupleIJZN7asiopal10ThreadPoolC4ERKN7openpal6LoggerERKSt10shared_ptrINS3_2IOEEjSt8functionIFvvEESG_EUlvE_EEEEEE, 152
_ZTSNSt6thread11_State_implINS_8_InvokerISt5tupleIJZN7asiopal10ThreadPoolC4ERKN7openpal6LoggerERKSt10shared_ptrINS3_2IOEEjSt8functionIFvvEESG_EUlvE_EEEEEE:
	.string	"*NSt6thread11_State_implINS_8_InvokerISt5tupleIJZN7asiopal10ThreadPoolC4ERKN7openpal6LoggerERKSt10shared_ptrINS3_2IOEEjSt8functionIFvvEESG_EUlvE_EEEEEE"
	.weak	_ZTSN4asio6detail14typeid_wrapperINS0_13epoll_reactorEEE
	.section	.rodata._ZTSN4asio6detail14typeid_wrapperINS0_13epoll_reactorEEE,"aG",@progbits,_ZTSN4asio6detail14typeid_wrapperINS0_13epoll_reactorEEE,comdat
	.align 32
	.type	_ZTSN4asio6detail14typeid_wrapperINS0_13epoll_reactorEEE, @object
	.size	_ZTSN4asio6detail14typeid_wrapperINS0_13epoll_reactorEEE, 53
_ZTSN4asio6detail14typeid_wrapperINS0_13epoll_reactorEEE:
	.string	"N4asio6detail14typeid_wrapperINS0_13epoll_reactorEEE"
	.weak	_ZTIN4asio6detail14typeid_wrapperINS0_13epoll_reactorEEE
	.section	.data.rel.ro._ZTIN4asio6detail14typeid_wrapperINS0_13epoll_reactorEEE,"awG",@progbits,_ZTIN4asio6detail14typeid_wrapperINS0_13epoll_reactorEEE,comdat
	.align 8
	.type	_ZTIN4asio6detail14typeid_wrapperINS0_13epoll_reactorEEE, @object
	.size	_ZTIN4asio6detail14typeid_wrapperINS0_13epoll_reactorEEE, 16
_ZTIN4asio6detail14typeid_wrapperINS0_13epoll_reactorEEE:
	.quad	_ZTVN10__cxxabiv117__class_type_infoE+16
	.quad	_ZTSN4asio6detail14typeid_wrapperINS0_13epoll_reactorEEE
	.weak	_ZTSN4asio6detail14typeid_wrapperINS_22waitable_timer_serviceINSt6chrono3_V212steady_clockENS_11wait_traitsIS5_EEEEEE
	.section	.rodata._ZTSN4asio6detail14typeid_wrapperINS_22waitable_timer_serviceINSt6chrono3_V212steady_clockENS_11wait_traitsIS5_EEEEEE,"aG",@progbits,_ZTSN4asio6detail14typeid_wrapperINS_22waitable_timer_serviceINSt6chrono3_V212steady_clockENS_11wait_traitsIS5_EEEEEE,comdat
	.align 32
	.type	_ZTSN4asio6detail14typeid_wrapperINS_22waitable_timer_serviceINSt6chrono3_V212steady_clockENS_11wait_traitsIS5_EEEEEE, @object
	.size	_ZTSN4asio6detail14typeid_wrapperINS_22waitable_timer_serviceINSt6chrono3_V212steady_clockENS_11wait_traitsIS5_EEEEEE, 114
_ZTSN4asio6detail14typeid_wrapperINS_22waitable_timer_serviceINSt6chrono3_V212steady_clockENS_11wait_traitsIS5_EEEEEE:
	.string	"N4asio6detail14typeid_wrapperINS_22waitable_timer_serviceINSt6chrono3_V212steady_clockENS_11wait_traitsIS5_EEEEEE"
	.weak	_ZTIN4asio6detail14typeid_wrapperINS_22waitable_timer_serviceINSt6chrono3_V212steady_clockENS_11wait_traitsIS5_EEEEEE
	.section	.data.rel.ro._ZTIN4asio6detail14typeid_wrapperINS_22waitable_timer_serviceINSt6chrono3_V212steady_clockENS_11wait_traitsIS5_EEEEEE,"awG",@progbits,_ZTIN4asio6detail14typeid_wrapperINS_22waitable_timer_serviceINSt6chrono3_V212steady_clockENS_11wait_traitsIS5_EEEEEE,comdat
	.align 8
	.type	_ZTIN4asio6detail14typeid_wrapperINS_22waitable_timer_serviceINSt6chrono3_V212steady_clockENS_11wait_traitsIS5_EEEEEE, @object
	.size	_ZTIN4asio6detail14typeid_wrapperINS_22waitable_timer_serviceINSt6chrono3_V212steady_clockENS_11wait_traitsIS5_EEEEEE, 16
_ZTIN4asio6detail14typeid_wrapperINS_22waitable_timer_serviceINSt6chrono3_V212steady_clockENS_11wait_traitsIS5_EEEEEE:
	.quad	_ZTVN10__cxxabiv117__class_type_infoE+16
	.quad	_ZTSN4asio6detail14typeid_wrapperINS_22waitable_timer_serviceINSt6chrono3_V212steady_clockENS_11wait_traitsIS5_EEEEEE
	.weak	_ZTVN4asio6detail15system_categoryE
	.section	.data.rel.ro._ZTVN4asio6detail15system_categoryE,"awG",@progbits,_ZTVN4asio6detail15system_categoryE,comdat
	.align 8
	.type	_ZTVN4asio6detail15system_categoryE, @object
	.size	_ZTVN4asio6detail15system_categoryE, 80
_ZTVN4asio6detail15system_categoryE:
	.quad	0
	.quad	_ZTIN4asio6detail15system_categoryE
	.quad	_ZN4asio6detail15system_categoryD1Ev
	.quad	_ZN4asio6detail15system_categoryD0Ev
	.quad	_ZNK4asio6detail15system_category4nameEv
	.quad	_ZNKSt3_V214error_category10_M_messageB5cxx11Ei
	.quad	_ZNK4asio6detail15system_category7messageB5cxx11Ei
	.quad	_ZNKSt3_V214error_category23default_error_conditionEi
	.quad	_ZNKSt3_V214error_category10equivalentEiRKSt15error_condition
	.quad	_ZNKSt3_V214error_category10equivalentERKSt10error_codei
	.weak	_ZTVN4asio5error6detail14netdb_categoryE
	.section	.data.rel.ro._ZTVN4asio5error6detail14netdb_categoryE,"awG",@progbits,_ZTVN4asio5error6detail14netdb_categoryE,comdat
	.align 8
	.type	_ZTVN4asio5error6detail14netdb_categoryE, @object
	.size	_ZTVN4asio5error6detail14netdb_categoryE, 80
_ZTVN4asio5error6detail14netdb_categoryE:
	.quad	0
	.quad	_ZTIN4asio5error6detail14netdb_categoryE
	.quad	_ZN4asio5error6detail14netdb_categoryD1Ev
	.quad	_ZN4asio5error6detail14netdb_categoryD0Ev
	.quad	_ZNK4asio5error6detail14netdb_category4nameEv
	.quad	_ZNKSt3_V214error_category10_M_messageB5cxx11Ei
	.quad	_ZNK4asio5error6detail14netdb_category7messageB5cxx11Ei
	.quad	_ZNKSt3_V214error_category23default_error_conditionEi
	.quad	_ZNKSt3_V214error_category10equivalentEiRKSt15error_condition
	.quad	_ZNKSt3_V214error_category10equivalentERKSt10error_codei
	.weak	_ZTVN4asio5error6detail17addrinfo_categoryE
	.section	.data.rel.ro._ZTVN4asio5error6detail17addrinfo_categoryE,"awG",@progbits,_ZTVN4asio5error6detail17addrinfo_categoryE,comdat
	.align 8
	.type	_ZTVN4asio5error6detail17addrinfo_categoryE, @object
	.size	_ZTVN4asio5error6detail17addrinfo_categoryE, 80
_ZTVN4asio5error6detail17addrinfo_categoryE:
	.quad	0
	.quad	_ZTIN4asio5error6detail17addrinfo_categoryE
	.quad	_ZN4asio5error6detail17addrinfo_categoryD1Ev
	.quad	_ZN4asio5error6detail17addrinfo_categoryD0Ev
	.quad	_ZNK4asio5error6detail17addrinfo_category4nameEv
	.quad	_ZNKSt3_V214error_category10_M_messageB5cxx11Ei
	.quad	_ZNK4asio5error6detail17addrinfo_category7messageB5cxx11Ei
	.quad	_ZNKSt3_V214error_category23default_error_conditionEi
	.quad	_ZNKSt3_V214error_category10equivalentEiRKSt15error_condition
	.quad	_ZNKSt3_V214error_category10equivalentERKSt10error_codei
	.weak	_ZTVN4asio5error6detail13misc_categoryE
	.section	.data.rel.ro._ZTVN4asio5error6detail13misc_categoryE,"awG",@progbits,_ZTVN4asio5error6detail13misc_categoryE,comdat
	.align 8
	.type	_ZTVN4asio5error6detail13misc_categoryE, @object
	.size	_ZTVN4asio5error6detail13misc_categoryE, 80
_ZTVN4asio5error6detail13misc_categoryE:
	.quad	0
	.quad	_ZTIN4asio5error6detail13misc_categoryE
	.quad	_ZN4asio5error6detail13misc_categoryD1Ev
	.quad	_ZN4asio5error6detail13misc_categoryD0Ev
	.quad	_ZNK4asio5error6detail13misc_category4nameEv
	.quad	_ZNKSt3_V214error_category10_M_messageB5cxx11Ei
	.quad	_ZNK4asio5error6detail13misc_category7messageB5cxx11Ei
	.quad	_ZNKSt3_V214error_category23default_error_conditionEi
	.quad	_ZNKSt3_V214error_category10equivalentEiRKSt15error_condition
	.quad	_ZNKSt3_V214error_category10equivalentERKSt10error_codei
	.weak	_ZTVN4asio6detail13epoll_reactorE
	.section	.data.rel.ro._ZTVN4asio6detail13epoll_reactorE,"awG",@progbits,_ZTVN4asio6detail13epoll_reactorE,comdat
	.align 8
	.type	_ZTVN4asio6detail13epoll_reactorE, @object
	.size	_ZTVN4asio6detail13epoll_reactorE, 48
_ZTVN4asio6detail13epoll_reactorE:
	.quad	0
	.quad	_ZTIN4asio6detail13epoll_reactorE
	.quad	_ZN4asio6detail13epoll_reactorD1Ev
	.quad	_ZN4asio6detail13epoll_reactorD0Ev
	.quad	_ZN4asio6detail13epoll_reactor16shutdown_serviceEv
	.quad	_ZN4asio6detail13epoll_reactor12fork_serviceENS_10io_service10fork_eventE
	.weak	_ZTVN4asio6detail11timer_queueINS0_18chrono_time_traitsINSt6chrono3_V212steady_clockENS_11wait_traitsIS5_EEEEEE
	.section	.data.rel.ro._ZTVN4asio6detail11timer_queueINS0_18chrono_time_traitsINSt6chrono3_V212steady_clockENS_11wait_traitsIS5_EEEEEE,"awG",@progbits,_ZTVN4asio6detail11timer_queueINS0_18chrono_time_traitsINSt6chrono3_V212steady_clockENS_11wait_traitsIS5_EEEEEE,comdat
	.align 8
	.type	_ZTVN4asio6detail11timer_queueINS0_18chrono_time_traitsINSt6chrono3_V212steady_clockENS_11wait_traitsIS5_EEEEEE, @object
	.size	_ZTVN4asio6detail11timer_queueINS0_18chrono_time_traitsINSt6chrono3_V212steady_clockENS_11wait_traitsIS5_EEEEEE, 72
_ZTVN4asio6detail11timer_queueINS0_18chrono_time_traitsINSt6chrono3_V212steady_clockENS_11wait_traitsIS5_EEEEEE:
	.quad	0
	.quad	_ZTIN4asio6detail11timer_queueINS0_18chrono_time_traitsINSt6chrono3_V212steady_clockENS_11wait_traitsIS5_EEEEEE
	.quad	_ZN4asio6detail11timer_queueINS0_18chrono_time_traitsINSt6chrono3_V212steady_clockENS_11wait_traitsIS5_EEEEED1Ev
	.quad	_ZN4asio6detail11timer_queueINS0_18chrono_time_traitsINSt6chrono3_V212steady_clockENS_11wait_traitsIS5_EEEEED0Ev
	.quad	_ZNK4asio6detail11timer_queueINS0_18chrono_time_traitsINSt6chrono3_V212steady_clockENS_11wait_traitsIS5_EEEEE5emptyEv
	.quad	_ZNK4asio6detail11timer_queueINS0_18chrono_time_traitsINSt6chrono3_V212steady_clockENS_11wait_traitsIS5_EEEEE18wait_duration_msecEl
	.quad	_ZNK4asio6detail11timer_queueINS0_18chrono_time_traitsINSt6chrono3_V212steady_clockENS_11wait_traitsIS5_EEEEE18wait_duration_usecEl
	.quad	_ZN4asio6detail11timer_queueINS0_18chrono_time_traitsINSt6chrono3_V212steady_clockENS_11wait_traitsIS5_EEEEE16get_ready_timersERNS0_8op_queueINS0_25task_io_service_operationEEE
	.quad	_ZN4asio6detail11timer_queueINS0_18chrono_time_traitsINSt6chrono3_V212steady_clockENS_11wait_traitsIS5_EEEEE14get_all_timersERNS0_8op_queueINS0_25task_io_service_operationEEE
	.weak	_ZTVN4asio22waitable_timer_serviceINSt6chrono3_V212steady_clockENS_11wait_traitsIS3_EEEE
	.section	.data.rel.ro._ZTVN4asio22waitable_timer_serviceINSt6chrono3_V212steady_clockENS_11wait_traitsIS3_EEEE,"awG",@progbits,_ZTVN4asio22waitable_timer_serviceINSt6chrono3_V212steady_clockENS_11wait_traitsIS3_EEEE,comdat
	.align 8
	.type	_ZTVN4asio22waitable_timer_serviceINSt6chrono3_V212steady_clockENS_11wait_traitsIS3_EEEE, @object
	.size	_ZTVN4asio22waitable_timer_serviceINSt6chrono3_V212steady_clockENS_11wait_traitsIS3_EEEE, 48
_ZTVN4asio22waitable_timer_serviceINSt6chrono3_V212steady_clockENS_11wait_traitsIS3_EEEE:
	.quad	0
	.quad	_ZTIN4asio22waitable_timer_serviceINSt6chrono3_V212steady_clockENS_11wait_traitsIS3_EEEE
	.quad	_ZN4asio22waitable_timer_serviceINSt6chrono3_V212steady_clockENS_11wait_traitsIS3_EEED1Ev
	.quad	_ZN4asio22waitable_timer_serviceINSt6chrono3_V212steady_clockENS_11wait_traitsIS3_EEED0Ev
	.quad	_ZN4asio22waitable_timer_serviceINSt6chrono3_V212steady_clockENS_11wait_traitsIS3_EEE16shutdown_serviceEv
	.quad	_ZN4asio10io_service7service12fork_serviceENS0_10fork_eventE
	.section	.data.rel.ro.local,"aw"
	.align 8
	.type	_ZTVNSt6thread11_State_implINS_8_InvokerISt5tupleIJZN7asiopal10ThreadPoolC4ERKN7openpal6LoggerERKSt10shared_ptrINS3_2IOEEjSt8functionIFvvEESG_EUlvE_EEEEEE, @object
	.size	_ZTVNSt6thread11_State_implINS_8_InvokerISt5tupleIJZN7asiopal10ThreadPoolC4ERKN7openpal6LoggerERKSt10shared_ptrINS3_2IOEEjSt8functionIFvvEESG_EUlvE_EEEEEE, 40
_ZTVNSt6thread11_State_implINS_8_InvokerISt5tupleIJZN7asiopal10ThreadPoolC4ERKN7openpal6LoggerERKSt10shared_ptrINS3_2IOEEjSt8functionIFvvEESG_EUlvE_EEEEEE:
	.quad	0
	.quad	_ZTINSt6thread11_State_implINS_8_InvokerISt5tupleIJZN7asiopal10ThreadPoolC4ERKN7openpal6LoggerERKSt10shared_ptrINS3_2IOEEjSt8functionIFvvEESG_EUlvE_EEEEEE
	.quad	_ZNSt6thread11_State_implINS_8_InvokerISt5tupleIJZN7asiopal10ThreadPoolC4ERKN7openpal6LoggerERKSt10shared_ptrINS3_2IOEEjSt8functionIFvvEESG_EUlvE_EEEEED1Ev
	.quad	_ZNSt6thread11_State_implINS_8_InvokerISt5tupleIJZN7asiopal10ThreadPoolC4ERKN7openpal6LoggerERKSt10shared_ptrINS3_2IOEEjSt8functionIFvvEESG_EUlvE_EEEEED0Ev
	.quad	_ZNSt6thread11_State_implINS_8_InvokerISt5tupleIJZN7asiopal10ThreadPoolC4ERKN7openpal6LoggerERKSt10shared_ptrINS3_2IOEEjSt8functionIFvvEESG_EUlvE_EEEEE6_M_runEv
	.weak	_ZGVZN4asio5error17get_misc_categoryEvE8instance
	.section	.bss._ZGVZN4asio5error17get_misc_categoryEvE8instance,"awG",@nobits,_ZGVZN4asio5error17get_misc_categoryEvE8instance,comdat
	.align 8
	.type	_ZGVZN4asio5error17get_misc_categoryEvE8instance, @gnu_unique_object
	.size	_ZGVZN4asio5error17get_misc_categoryEvE8instance, 8
_ZGVZN4asio5error17get_misc_categoryEvE8instance:
	.zero	8
	.weak	_ZZN4asio5error17get_misc_categoryEvE8instance
	.section	.data.rel._ZZN4asio5error17get_misc_categoryEvE8instance,"awG",@progbits,_ZZN4asio5error17get_misc_categoryEvE8instance,comdat
	.align 8
	.type	_ZZN4asio5error17get_misc_categoryEvE8instance, @gnu_unique_object
	.size	_ZZN4asio5error17get_misc_categoryEvE8instance, 8
_ZZN4asio5error17get_misc_categoryEvE8instance:
	.quad	_ZTVN4asio5error6detail13misc_categoryE+16
	.weak	_ZGVZN4asio5error21get_addrinfo_categoryEvE8instance
	.section	.bss._ZGVZN4asio5error21get_addrinfo_categoryEvE8instance,"awG",@nobits,_ZGVZN4asio5error21get_addrinfo_categoryEvE8instance,comdat
	.align 8
	.type	_ZGVZN4asio5error21get_addrinfo_categoryEvE8instance, @gnu_unique_object
	.size	_ZGVZN4asio5error21get_addrinfo_categoryEvE8instance, 8
_ZGVZN4asio5error21get_addrinfo_categoryEvE8instance:
	.zero	8
	.weak	_ZZN4asio5error21get_addrinfo_categoryEvE8instance
	.section	.data.rel._ZZN4asio5error21get_addrinfo_categoryEvE8instance,"awG",@progbits,_ZZN4asio5error21get_addrinfo_categoryEvE8instance,comdat
	.align 8
	.type	_ZZN4asio5error21get_addrinfo_categoryEvE8instance, @gnu_unique_object
	.size	_ZZN4asio5error21get_addrinfo_categoryEvE8instance, 8
_ZZN4asio5error21get_addrinfo_categoryEvE8instance:
	.quad	_ZTVN4asio5error6detail17addrinfo_categoryE+16
	.weak	_ZGVZN4asio5error18get_netdb_categoryEvE8instance
	.section	.bss._ZGVZN4asio5error18get_netdb_categoryEvE8instance,"awG",@nobits,_ZGVZN4asio5error18get_netdb_categoryEvE8instance,comdat
	.align 8
	.type	_ZGVZN4asio5error18get_netdb_categoryEvE8instance, @gnu_unique_object
	.size	_ZGVZN4asio5error18get_netdb_categoryEvE8instance, 8
_ZGVZN4asio5error18get_netdb_categoryEvE8instance:
	.zero	8
	.weak	_ZZN4asio5error18get_netdb_categoryEvE8instance
	.section	.data.rel._ZZN4asio5error18get_netdb_categoryEvE8instance,"awG",@progbits,_ZZN4asio5error18get_netdb_categoryEvE8instance,comdat
	.align 8
	.type	_ZZN4asio5error18get_netdb_categoryEvE8instance, @gnu_unique_object
	.size	_ZZN4asio5error18get_netdb_categoryEvE8instance, 8
_ZZN4asio5error18get_netdb_categoryEvE8instance:
	.quad	_ZTVN4asio5error6detail14netdb_categoryE+16
	.weak	_ZGVZN4asio15system_categoryEvE8instance
	.section	.bss._ZGVZN4asio15system_categoryEvE8instance,"awG",@nobits,_ZGVZN4asio15system_categoryEvE8instance,comdat
	.align 8
	.type	_ZGVZN4asio15system_categoryEvE8instance, @gnu_unique_object
	.size	_ZGVZN4asio15system_categoryEvE8instance, 8
_ZGVZN4asio15system_categoryEvE8instance:
	.zero	8
	.weak	_ZZN4asio15system_categoryEvE8instance
	.section	.data.rel._ZZN4asio15system_categoryEvE8instance,"awG",@progbits,_ZZN4asio15system_categoryEvE8instance,comdat
	.align 8
	.type	_ZZN4asio15system_categoryEvE8instance, @gnu_unique_object
	.size	_ZZN4asio15system_categoryEvE8instance, 8
_ZZN4asio15system_categoryEvE8instance:
	.quad	_ZTVN4asio6detail15system_categoryE+16
	.weak	_ZN4asio6detail15keyword_tss_ptrINS0_10call_stackINS0_15task_io_serviceENS0_27task_io_service_thread_infoEE7contextEE6value_E
	.section	.tbss._ZN4asio6detail15keyword_tss_ptrINS0_10call_stackINS0_15task_io_serviceENS0_27task_io_service_thread_infoEE7contextEE6value_E,"awTG",@nobits,_ZN4asio6detail15keyword_tss_ptrINS0_10call_stackINS0_15task_io_serviceENS0_27task_io_service_thread_infoEE7contextEE6value_E,comdat
	.align 8
	.type	_ZN4asio6detail15keyword_tss_ptrINS0_10call_stackINS0_15task_io_serviceENS0_27task_io_service_thread_infoEE7contextEE6value_E, @gnu_unique_object
	.size	_ZN4asio6detail15keyword_tss_ptrINS0_10call_stackINS0_15task_io_serviceENS0_27task_io_service_thread_infoEE7contextEE6value_E, 8
_ZN4asio6detail15keyword_tss_ptrINS0_10call_stackINS0_15task_io_serviceENS0_27task_io_service_thread_infoEE7contextEE6value_E:
	.zero	8
	.section	.rodata.cst16,"aM",@progbits,16
	.align 16
.LC5:
	.quad	8028075772644520015
	.quad	7310593917846626414
	.align 16
.LC7:
	.quad	2334381286471394643
	.quad	7959390400869068654
	.align 16
.LC8:
	.quad	8367816086596579155
	.quad	2338616625292734585
	.align 16
.LC9:
	.quad	8295758535554262384
	.quad	7234316411285303413
	.align 16
.LC10:
	.quad	7234013753529430881
	.quad	8243030355803531634
	.align 16
.LC11:
	.quad	8390045716486254408
	.quad	2891421386351273504
	.align 16
.LC12:
	.quad	8245924292133464096
	.quad	2982920523499009129
	.align 16
.LC13:
	.quad	7526769937477431150
	.quad	8532478930943832687
	.align 16
.LC14:
	.quad	2340027324477221221
	.quad	7020021577750243169
	.align 16
.LC15:
	.quad	8243123821706831956
	.quad	7809653110584451193
	.align 16
.LC16:
	.quad	2338623170819155049
	.quad	2338324160631043177
	.align 16
.LC17:
	.quad	7311138144931573614
	.quad	7019250824563089696
	.align 16
.LC18:
	.quad	7309955097514876993
	.quad	7809911847770287971
	.align 16
.LC19:
	.quad	2338053693894893669
	.quad	7234314212361855855
	.align 16
.LC20:
	.quad	2334956330985808928
	.quad	7310293695322153316
	.align 16
.LC21:
	.quad	8387231026764149601
	.quad	8245935278387126884
	.align 16
.LC22:
	.quad	2338615488418245701
	.quad	7959390400869068654
	.align 16
.LC23:
	.quad	7166182912791242836
	.quad	7214892426067994994
	.align 16
.LC24:
	.quad	2338616625293649263
	.quad	8031165433303558502
	.align 16
.LC25:
	.quad	7810775711721485344
	.quad	7812726531955123045
	.align 16
.LC26:
	.quad	2840764630494639203
	.quad	8387236734590918771
	.hidden	DW.ref.__gxx_personality_v0
	.weak	DW.ref.__gxx_personality_v0
	.section	.data.rel.local.DW.ref.__gxx_personality_v0,"awG",@progbits,DW.ref.__gxx_personality_v0,comdat
	.align 8
	.type	DW.ref.__gxx_personality_v0, @object
	.size	DW.ref.__gxx_personality_v0, 8
DW.ref.__gxx_personality_v0:
	.quad	__gxx_personality_v0
	.hidden	__dso_handle
	.globl	__gxx_personality_v0
	.ident	"GCC: (Debian 15.2.0-4) 15.2.0"
	.section	.note.GNU-stack,"",@progbits
