	.file	"Timer.cpp"
	.text
	.section	.rodata._ZNK4asio6detail15system_category4nameEv.str1.1,"aMS",@progbits,1
.LC0:
	.string	"asio.system"
	.section	.text._ZNK4asio6detail15system_category4nameEv,"axG",@progbits,_ZNK4asio6detail15system_category4nameEv,comdat
	.align 2
	.p2align 4
	.weak	_ZNK4asio6detail15system_category4nameEv
	.type	_ZNK4asio6detail15system_category4nameEv, @function
_ZNK4asio6detail15system_category4nameEv:
.LFB2169:
	.cfi_startproc
	leaq	.LC0(%rip), %rax
	ret
	.cfi_endproc
.LFE2169:
	.size	_ZNK4asio6detail15system_category4nameEv, .-_ZNK4asio6detail15system_category4nameEv
	.section	.rodata._ZNK4asio5error6detail14netdb_category4nameEv.str1.1,"aMS",@progbits,1
.LC1:
	.string	"asio.netdb"
	.section	.text._ZNK4asio5error6detail14netdb_category4nameEv,"axG",@progbits,_ZNK4asio5error6detail14netdb_category4nameEv,comdat
	.align 2
	.p2align 4
	.weak	_ZNK4asio5error6detail14netdb_category4nameEv
	.type	_ZNK4asio5error6detail14netdb_category4nameEv, @function
_ZNK4asio5error6detail14netdb_category4nameEv:
.LFB2213:
	.cfi_startproc
	leaq	.LC1(%rip), %rax
	ret
	.cfi_endproc
.LFE2213:
	.size	_ZNK4asio5error6detail14netdb_category4nameEv, .-_ZNK4asio5error6detail14netdb_category4nameEv
	.section	.rodata._ZNK4asio5error6detail17addrinfo_category4nameEv.str1.1,"aMS",@progbits,1
.LC2:
	.string	"asio.addrinfo"
	.section	.text._ZNK4asio5error6detail17addrinfo_category4nameEv,"axG",@progbits,_ZNK4asio5error6detail17addrinfo_category4nameEv,comdat
	.align 2
	.p2align 4
	.weak	_ZNK4asio5error6detail17addrinfo_category4nameEv
	.type	_ZNK4asio5error6detail17addrinfo_category4nameEv, @function
_ZNK4asio5error6detail17addrinfo_category4nameEv:
.LFB2223:
	.cfi_startproc
	leaq	.LC2(%rip), %rax
	ret
	.cfi_endproc
.LFE2223:
	.size	_ZNK4asio5error6detail17addrinfo_category4nameEv, .-_ZNK4asio5error6detail17addrinfo_category4nameEv
	.section	.rodata._ZNK4asio5error6detail13misc_category4nameEv.str1.1,"aMS",@progbits,1
.LC3:
	.string	"asio.misc"
	.section	.text._ZNK4asio5error6detail13misc_category4nameEv,"axG",@progbits,_ZNK4asio5error6detail13misc_category4nameEv,comdat
	.align 2
	.p2align 4
	.weak	_ZNK4asio5error6detail13misc_category4nameEv
	.type	_ZNK4asio5error6detail13misc_category4nameEv, @function
_ZNK4asio5error6detail13misc_category4nameEv:
.LFB2233:
	.cfi_startproc
	leaq	.LC3(%rip), %rax
	ret
	.cfi_endproc
.LFE2233:
	.size	_ZNK4asio5error6detail13misc_category4nameEv, .-_ZNK4asio5error6detail13misc_category4nameEv
	.section	.text._ZN4asio10io_service7service12fork_serviceENS0_10fork_eventE,"axG",@progbits,_ZN4asio10io_service7service12fork_serviceENS0_10fork_eventE,comdat
	.align 2
	.p2align 4
	.weak	_ZN4asio10io_service7service12fork_serviceENS0_10fork_eventE
	.type	_ZN4asio10io_service7service12fork_serviceENS0_10fork_eventE, @function
_ZN4asio10io_service7service12fork_serviceENS0_10fork_eventE:
.LFB3238:
	.cfi_startproc
	ret
	.cfi_endproc
.LFE3238:
	.size	_ZN4asio10io_service7service12fork_serviceENS0_10fork_eventE, .-_ZN4asio10io_service7service12fork_serviceENS0_10fork_eventE
	.section	.text._ZN4asio22waitable_timer_serviceINSt6chrono3_V212steady_clockENS_11wait_traitsIS3_EEE16shutdown_serviceEv,"axG",@progbits,_ZN4asio22waitable_timer_serviceINSt6chrono3_V212steady_clockENS_11wait_traitsIS3_EEE16shutdown_serviceEv,comdat
	.align 2
	.p2align 4
	.weak	_ZN4asio22waitable_timer_serviceINSt6chrono3_V212steady_clockENS_11wait_traitsIS3_EEE16shutdown_serviceEv
	.type	_ZN4asio22waitable_timer_serviceINSt6chrono3_V212steady_clockENS_11wait_traitsIS3_EEE16shutdown_serviceEv, @function
_ZN4asio22waitable_timer_serviceINSt6chrono3_V212steady_clockENS_11wait_traitsIS3_EEE16shutdown_serviceEv:
.LFB7842:
	.cfi_startproc
	ret
	.cfi_endproc
.LFE7842:
	.size	_ZN4asio22waitable_timer_serviceINSt6chrono3_V212steady_clockENS_11wait_traitsIS3_EEE16shutdown_serviceEv, .-_ZN4asio22waitable_timer_serviceINSt6chrono3_V212steady_clockENS_11wait_traitsIS3_EEE16shutdown_serviceEv
	.section	.text._ZNK4asio6detail11timer_queueINS0_18chrono_time_traitsINSt6chrono3_V212steady_clockENS_11wait_traitsIS5_EEEEE5emptyEv,"axG",@progbits,_ZNK4asio6detail11timer_queueINS0_18chrono_time_traitsINSt6chrono3_V212steady_clockENS_11wait_traitsIS5_EEEEE5emptyEv,comdat
	.align 2
	.p2align 4
	.weak	_ZNK4asio6detail11timer_queueINS0_18chrono_time_traitsINSt6chrono3_V212steady_clockENS_11wait_traitsIS5_EEEEE5emptyEv
	.type	_ZNK4asio6detail11timer_queueINS0_18chrono_time_traitsINSt6chrono3_V212steady_clockENS_11wait_traitsIS5_EEEEE5emptyEv, @function
_ZNK4asio6detail11timer_queueINS0_18chrono_time_traitsINSt6chrono3_V212steady_clockENS_11wait_traitsIS5_EEEEE5emptyEv:
.LFB7843:
	.cfi_startproc
	cmpq	$0, 16(%rdi)
	sete	%al
	ret
	.cfi_endproc
.LFE7843:
	.size	_ZNK4asio6detail11timer_queueINS0_18chrono_time_traitsINSt6chrono3_V212steady_clockENS_11wait_traitsIS5_EEEEE5emptyEv, .-_ZNK4asio6detail11timer_queueINS0_18chrono_time_traitsINSt6chrono3_V212steady_clockENS_11wait_traitsIS5_EEEEE5emptyEv
	.section	.text._ZN4asio6detail11timer_queueINS0_18chrono_time_traitsINSt6chrono3_V212steady_clockENS_11wait_traitsIS5_EEEEE14get_all_timersERNS0_8op_queueINS0_25task_io_service_operationEEE,"axG",@progbits,_ZN4asio6detail11timer_queueINS0_18chrono_time_traitsINSt6chrono3_V212steady_clockENS_11wait_traitsIS5_EEEEE14get_all_timersERNS0_8op_queueINS0_25task_io_service_operationEEE,comdat
	.align 2
	.p2align 4
	.weak	_ZN4asio6detail11timer_queueINS0_18chrono_time_traitsINSt6chrono3_V212steady_clockENS_11wait_traitsIS5_EEEEE14get_all_timersERNS0_8op_queueINS0_25task_io_service_operationEEE
	.type	_ZN4asio6detail11timer_queueINS0_18chrono_time_traitsINSt6chrono3_V212steady_clockENS_11wait_traitsIS5_EEEEE14get_all_timersERNS0_8op_queueINS0_25task_io_service_operationEEE, @function
_ZN4asio6detail11timer_queueINS0_18chrono_time_traitsINSt6chrono3_V212steady_clockENS_11wait_traitsIS5_EEEEE14get_all_timersERNS0_8op_queueINS0_25task_io_service_operationEEE:
.LFB7847:
	.cfi_startproc
	movq	%rdi, %r8
	movq	%rsi, %rdi
	movq	16(%r8), %rax
	testq	%rax, %rax
	je	.L10
	pxor	%xmm0, %xmm0
	jmp	.L14
	.p2align 4,,10
	.p2align 3
.L23:
	movq	%rcx, (%rsi)
.L13:
	movq	8(%rdx), %rcx
	movq	%rcx, 8(%rdi)
	movups	%xmm0, (%rdx)
.L11:
	movups	%xmm0, 24(%rdx)
	testq	%rax, %rax
	je	.L10
.L14:
	movq	%rax, %rdx
	movq	24(%rax), %rax
	movq	(%rdx), %rcx
	movq	%rax, 16(%r8)
	testq	%rcx, %rcx
	je	.L11
	movq	8(%rdi), %rsi
	testq	%rsi, %rsi
	jne	.L23
	movq	%rcx, (%rdi)
	jmp	.L13
	.p2align 4,,10
	.p2align 3
.L10:
	movq	24(%r8), %rax
	cmpq	32(%r8), %rax
	je	.L9
	movq	%rax, 32(%r8)
.L9:
	ret
	.cfi_endproc
.LFE7847:
	.size	_ZN4asio6detail11timer_queueINS0_18chrono_time_traitsINSt6chrono3_V212steady_clockENS_11wait_traitsIS5_EEEEE14get_all_timersERNS0_8op_queueINS0_25task_io_service_operationEEE, .-_ZN4asio6detail11timer_queueINS0_18chrono_time_traitsINSt6chrono3_V212steady_clockENS_11wait_traitsIS5_EEEEE14get_all_timersERNS0_8op_queueINS0_25task_io_service_operationEEE
	.section	.text._ZN4asio6detail11timer_queueINS0_18chrono_time_traitsINSt6chrono3_V212steady_clockENS_11wait_traitsIS5_EEEEED2Ev,"axG",@progbits,_ZN4asio6detail11timer_queueINS0_18chrono_time_traitsINSt6chrono3_V212steady_clockENS_11wait_traitsIS5_EEEEED5Ev,comdat
	.align 2
	.p2align 4
	.weak	_ZN4asio6detail11timer_queueINS0_18chrono_time_traitsINSt6chrono3_V212steady_clockENS_11wait_traitsIS5_EEEEED2Ev
	.type	_ZN4asio6detail11timer_queueINS0_18chrono_time_traitsINSt6chrono3_V212steady_clockENS_11wait_traitsIS5_EEEEED2Ev, @function
_ZN4asio6detail11timer_queueINS0_18chrono_time_traitsINSt6chrono3_V212steady_clockENS_11wait_traitsIS5_EEEEED2Ev:
.LFB7714:
	.cfi_startproc
	movq	%rdi, %rax
	movq	24(%rdi), %rdi
	testq	%rdi, %rdi
	je	.L24
	movq	40(%rax), %rsi
	subq	%rdi, %rsi
	jmp	_ZdlPvm@PLT
	.p2align 4,,10
	.p2align 3
.L24:
	ret
	.cfi_endproc
.LFE7714:
	.size	_ZN4asio6detail11timer_queueINS0_18chrono_time_traitsINSt6chrono3_V212steady_clockENS_11wait_traitsIS5_EEEEED2Ev, .-_ZN4asio6detail11timer_queueINS0_18chrono_time_traitsINSt6chrono3_V212steady_clockENS_11wait_traitsIS5_EEEEED2Ev
	.weak	_ZN4asio6detail11timer_queueINS0_18chrono_time_traitsINSt6chrono3_V212steady_clockENS_11wait_traitsIS5_EEEEED1Ev
	.set	_ZN4asio6detail11timer_queueINS0_18chrono_time_traitsINSt6chrono3_V212steady_clockENS_11wait_traitsIS5_EEEEED1Ev,_ZN4asio6detail11timer_queueINS0_18chrono_time_traitsINSt6chrono3_V212steady_clockENS_11wait_traitsIS5_EEEEED2Ev
	.section	.text._ZN4asio6detail11timer_queueINS0_18chrono_time_traitsINSt6chrono3_V212steady_clockENS_11wait_traitsIS5_EEEEED0Ev,"axG",@progbits,_ZN4asio6detail11timer_queueINS0_18chrono_time_traitsINSt6chrono3_V212steady_clockENS_11wait_traitsIS5_EEEEED5Ev,comdat
	.align 2
	.p2align 4
	.weak	_ZN4asio6detail11timer_queueINS0_18chrono_time_traitsINSt6chrono3_V212steady_clockENS_11wait_traitsIS5_EEEEED0Ev
	.type	_ZN4asio6detail11timer_queueINS0_18chrono_time_traitsINSt6chrono3_V212steady_clockENS_11wait_traitsIS5_EEEEED0Ev, @function
_ZN4asio6detail11timer_queueINS0_18chrono_time_traitsINSt6chrono3_V212steady_clockENS_11wait_traitsIS5_EEEEED0Ev:
.LFB7716:
	.cfi_startproc
	movq	%rdi, %rax
	movq	24(%rdi), %rdi
	testq	%rdi, %rdi
	je	.L32
	subq	$24, %rsp
	.cfi_def_cfa_offset 32
	movq	40(%rax), %rsi
	movq	%rax, 8(%rsp)
	subq	%rdi, %rsi
	call	_ZdlPvm@PLT
	movq	8(%rsp), %rax
	movl	$48, %esi
	addq	$24, %rsp
	.cfi_def_cfa_offset 8
	movq	%rax, %rdi
	jmp	_ZdlPvm@PLT
	.p2align 4,,10
	.p2align 3
.L32:
	movl	$48, %esi
	movq	%rax, %rdi
	jmp	_ZdlPvm@PLT
	.cfi_endproc
.LFE7716:
	.size	_ZN4asio6detail11timer_queueINS0_18chrono_time_traitsINSt6chrono3_V212steady_clockENS_11wait_traitsIS5_EEEEED0Ev, .-_ZN4asio6detail11timer_queueINS0_18chrono_time_traitsINSt6chrono3_V212steady_clockENS_11wait_traitsIS5_EEEEED0Ev
	.section	.text._ZN4asio6detail15system_categoryD2Ev,"axG",@progbits,_ZN4asio6detail15system_categoryD5Ev,comdat
	.align 2
	.p2align 4
	.weak	_ZN4asio6detail15system_categoryD2Ev
	.type	_ZN4asio6detail15system_categoryD2Ev, @function
_ZN4asio6detail15system_categoryD2Ev:
.LFB2181:
	.cfi_startproc
	movq	_ZTVN4asio6detail15system_categoryE@GOTPCREL(%rip), %rax
	addq	$16, %rax
	movq	%rax, (%rdi)
	jmp	_ZNSt3_V214error_categoryD2Ev@PLT
	.cfi_endproc
.LFE2181:
	.size	_ZN4asio6detail15system_categoryD2Ev, .-_ZN4asio6detail15system_categoryD2Ev
	.weak	_ZN4asio6detail15system_categoryD1Ev
	.set	_ZN4asio6detail15system_categoryD1Ev,_ZN4asio6detail15system_categoryD2Ev
	.section	.text._ZN4asio6detail15system_categoryD0Ev,"axG",@progbits,_ZN4asio6detail15system_categoryD5Ev,comdat
	.align 2
	.p2align 4
	.weak	_ZN4asio6detail15system_categoryD0Ev
	.type	_ZN4asio6detail15system_categoryD0Ev, @function
_ZN4asio6detail15system_categoryD0Ev:
.LFB2183:
	.cfi_startproc
	subq	$24, %rsp
	.cfi_def_cfa_offset 32
	movq	_ZTVN4asio6detail15system_categoryE@GOTPCREL(%rip), %rax
	movq	%rdi, 8(%rsp)
	addq	$16, %rax
	movq	%rax, (%rdi)
	call	_ZNSt3_V214error_categoryD2Ev@PLT
	movq	8(%rsp), %rdi
	movl	$8, %esi
	addq	$24, %rsp
	.cfi_def_cfa_offset 8
	jmp	_ZdlPvm@PLT
	.cfi_endproc
.LFE2183:
	.size	_ZN4asio6detail15system_categoryD0Ev, .-_ZN4asio6detail15system_categoryD0Ev
	.section	.text._ZN4asio5error6detail14netdb_categoryD2Ev,"axG",@progbits,_ZN4asio5error6detail14netdb_categoryD5Ev,comdat
	.align 2
	.p2align 4
	.weak	_ZN4asio5error6detail14netdb_categoryD2Ev
	.type	_ZN4asio5error6detail14netdb_categoryD2Ev, @function
_ZN4asio5error6detail14netdb_categoryD2Ev:
.LFB2220:
	.cfi_startproc
	movq	_ZTVN4asio5error6detail14netdb_categoryE@GOTPCREL(%rip), %rax
	addq	$16, %rax
	movq	%rax, (%rdi)
	jmp	_ZNSt3_V214error_categoryD2Ev@PLT
	.cfi_endproc
.LFE2220:
	.size	_ZN4asio5error6detail14netdb_categoryD2Ev, .-_ZN4asio5error6detail14netdb_categoryD2Ev
	.weak	_ZN4asio5error6detail14netdb_categoryD1Ev
	.set	_ZN4asio5error6detail14netdb_categoryD1Ev,_ZN4asio5error6detail14netdb_categoryD2Ev
	.section	.text._ZN4asio5error6detail14netdb_categoryD0Ev,"axG",@progbits,_ZN4asio5error6detail14netdb_categoryD5Ev,comdat
	.align 2
	.p2align 4
	.weak	_ZN4asio5error6detail14netdb_categoryD0Ev
	.type	_ZN4asio5error6detail14netdb_categoryD0Ev, @function
_ZN4asio5error6detail14netdb_categoryD0Ev:
.LFB2222:
	.cfi_startproc
	subq	$24, %rsp
	.cfi_def_cfa_offset 32
	movq	_ZTVN4asio5error6detail14netdb_categoryE@GOTPCREL(%rip), %rax
	movq	%rdi, 8(%rsp)
	addq	$16, %rax
	movq	%rax, (%rdi)
	call	_ZNSt3_V214error_categoryD2Ev@PLT
	movq	8(%rsp), %rdi
	movl	$8, %esi
	addq	$24, %rsp
	.cfi_def_cfa_offset 8
	jmp	_ZdlPvm@PLT
	.cfi_endproc
.LFE2222:
	.size	_ZN4asio5error6detail14netdb_categoryD0Ev, .-_ZN4asio5error6detail14netdb_categoryD0Ev
	.section	.text._ZN4asio5error6detail17addrinfo_categoryD2Ev,"axG",@progbits,_ZN4asio5error6detail17addrinfo_categoryD5Ev,comdat
	.align 2
	.p2align 4
	.weak	_ZN4asio5error6detail17addrinfo_categoryD2Ev
	.type	_ZN4asio5error6detail17addrinfo_categoryD2Ev, @function
_ZN4asio5error6detail17addrinfo_categoryD2Ev:
.LFB2230:
	.cfi_startproc
	movq	_ZTVN4asio5error6detail17addrinfo_categoryE@GOTPCREL(%rip), %rax
	addq	$16, %rax
	movq	%rax, (%rdi)
	jmp	_ZNSt3_V214error_categoryD2Ev@PLT
	.cfi_endproc
.LFE2230:
	.size	_ZN4asio5error6detail17addrinfo_categoryD2Ev, .-_ZN4asio5error6detail17addrinfo_categoryD2Ev
	.weak	_ZN4asio5error6detail17addrinfo_categoryD1Ev
	.set	_ZN4asio5error6detail17addrinfo_categoryD1Ev,_ZN4asio5error6detail17addrinfo_categoryD2Ev
	.section	.text._ZN4asio5error6detail17addrinfo_categoryD0Ev,"axG",@progbits,_ZN4asio5error6detail17addrinfo_categoryD5Ev,comdat
	.align 2
	.p2align 4
	.weak	_ZN4asio5error6detail17addrinfo_categoryD0Ev
	.type	_ZN4asio5error6detail17addrinfo_categoryD0Ev, @function
_ZN4asio5error6detail17addrinfo_categoryD0Ev:
.LFB2232:
	.cfi_startproc
	subq	$24, %rsp
	.cfi_def_cfa_offset 32
	movq	_ZTVN4asio5error6detail17addrinfo_categoryE@GOTPCREL(%rip), %rax
	movq	%rdi, 8(%rsp)
	addq	$16, %rax
	movq	%rax, (%rdi)
	call	_ZNSt3_V214error_categoryD2Ev@PLT
	movq	8(%rsp), %rdi
	movl	$8, %esi
	addq	$24, %rsp
	.cfi_def_cfa_offset 8
	jmp	_ZdlPvm@PLT
	.cfi_endproc
.LFE2232:
	.size	_ZN4asio5error6detail17addrinfo_categoryD0Ev, .-_ZN4asio5error6detail17addrinfo_categoryD0Ev
	.section	.text._ZN4asio5error6detail13misc_categoryD2Ev,"axG",@progbits,_ZN4asio5error6detail13misc_categoryD5Ev,comdat
	.align 2
	.p2align 4
	.weak	_ZN4asio5error6detail13misc_categoryD2Ev
	.type	_ZN4asio5error6detail13misc_categoryD2Ev, @function
_ZN4asio5error6detail13misc_categoryD2Ev:
.LFB2240:
	.cfi_startproc
	movq	_ZTVN4asio5error6detail13misc_categoryE@GOTPCREL(%rip), %rax
	addq	$16, %rax
	movq	%rax, (%rdi)
	jmp	_ZNSt3_V214error_categoryD2Ev@PLT
	.cfi_endproc
.LFE2240:
	.size	_ZN4asio5error6detail13misc_categoryD2Ev, .-_ZN4asio5error6detail13misc_categoryD2Ev
	.weak	_ZN4asio5error6detail13misc_categoryD1Ev
	.set	_ZN4asio5error6detail13misc_categoryD1Ev,_ZN4asio5error6detail13misc_categoryD2Ev
	.section	.text._ZN4asio5error6detail13misc_categoryD0Ev,"axG",@progbits,_ZN4asio5error6detail13misc_categoryD5Ev,comdat
	.align 2
	.p2align 4
	.weak	_ZN4asio5error6detail13misc_categoryD0Ev
	.type	_ZN4asio5error6detail13misc_categoryD0Ev, @function
_ZN4asio5error6detail13misc_categoryD0Ev:
.LFB2242:
	.cfi_startproc
	subq	$24, %rsp
	.cfi_def_cfa_offset 32
	movq	_ZTVN4asio5error6detail13misc_categoryE@GOTPCREL(%rip), %rax
	movq	%rdi, 8(%rsp)
	addq	$16, %rax
	movq	%rax, (%rdi)
	call	_ZNSt3_V214error_categoryD2Ev@PLT
	movq	8(%rsp), %rdi
	movl	$8, %esi
	addq	$24, %rsp
	.cfi_def_cfa_offset 8
	jmp	_ZdlPvm@PLT
	.cfi_endproc
.LFE2242:
	.size	_ZN4asio5error6detail13misc_categoryD0Ev, .-_ZN4asio5error6detail13misc_categoryD0Ev
	.section	.text._ZN4asio22waitable_timer_serviceINSt6chrono3_V212steady_clockENS_11wait_traitsIS3_EEED0Ev,"axG",@progbits,_ZN4asio22waitable_timer_serviceINSt6chrono3_V212steady_clockENS_11wait_traitsIS3_EEED5Ev,comdat
	.align 2
	.p2align 4
	.weak	_ZN4asio22waitable_timer_serviceINSt6chrono3_V212steady_clockENS_11wait_traitsIS3_EEED0Ev
	.type	_ZN4asio22waitable_timer_serviceINSt6chrono3_V212steady_clockENS_11wait_traitsIS3_EEED0Ev, @function
_ZN4asio22waitable_timer_serviceINSt6chrono3_V212steady_clockENS_11wait_traitsIS3_EEED0Ev:
.LFB7802:
	.cfi_startproc
	movq	_ZTVN4asio22waitable_timer_serviceINSt6chrono3_V212steady_clockENS_11wait_traitsIS3_EEEE@GOTPCREL(%rip), %rax
	pushq	%r12
	.cfi_def_cfa_offset 16
	.cfi_offset 12, -16
	pushq	%rbp
	.cfi_def_cfa_offset 24
	.cfi_offset 6, -24
	addq	$16, %rax
	pushq	%rbx
	.cfi_def_cfa_offset 32
	.cfi_offset 3, -32
	movq	88(%rdi), %rbp
	movq	%rdi, %rbx
	movq	%rax, (%rdi)
	leaq	48(%rbp), %rdi
	call	pthread_mutex_lock@PLT
	movq	104(%rbp), %rax
	testq	%rax, %rax
	je	.L48
	leaq	40(%rbx), %rdx
	cmpq	%rax, %rdx
	jne	.L49
	jmp	.L61
	.p2align 5
	.p2align 4,,10
	.p2align 3
.L50:
	cmpq	%rax, %rdx
	je	.L62
.L49:
	movq	%rax, %rcx
	movq	8(%rax), %rax
	testq	%rax, %rax
	jne	.L50
.L48:
	leaq	48(%rbp), %rdi
	call	pthread_mutex_unlock@PLT
	movq	64(%rbx), %rdi
	testq	%rdi, %rdi
	je	.L51
	movq	80(%rbx), %rsi
	subq	%rdi, %rsi
	call	_ZdlPvm@PLT
.L51:
	movq	%rbx, %rdi
	movl	$96, %esi
	popq	%rbx
	.cfi_remember_state
	.cfi_def_cfa_offset 24
	popq	%rbp
	.cfi_def_cfa_offset 16
	popq	%r12
	.cfi_def_cfa_offset 8
	jmp	_ZdlPvm@PLT
	.p2align 4,,10
	.p2align 3
.L62:
	.cfi_restore_state
	movq	48(%rbx), %rax
	movq	%rax, 8(%rcx)
	movq	$0, 48(%rbx)
	jmp	.L48
	.p2align 4,,10
	.p2align 3
.L61:
	movq	48(%rbx), %rax
	movq	%rax, 104(%rbp)
	movq	$0, 48(%rbx)
	jmp	.L48
	.cfi_endproc
.LFE7802:
	.size	_ZN4asio22waitable_timer_serviceINSt6chrono3_V212steady_clockENS_11wait_traitsIS3_EEED0Ev, .-_ZN4asio22waitable_timer_serviceINSt6chrono3_V212steady_clockENS_11wait_traitsIS3_EEED0Ev
	.text
	.align 2
	.p2align 4
	.globl	_ZN7asiopal5Timer9ExpiresAtEv
	.type	_ZN7asiopal5Timer9ExpiresAtEv, @function
_ZN7asiopal5Timer9ExpiresAtEv:
.LFB6382:
	.cfi_startproc
	movabsq	$4835703278458516699, %rax
	subq	$24, %rsp
	.cfi_def_cfa_offset 32
	movq	16(%rdi), %rcx
	leaq	8(%rsp), %rdi
	imulq	%rcx
	sarq	$63, %rcx
	sarq	$18, %rdx
	movq	%rdx, %rsi
	subq	%rcx, %rsi
	call	_ZN7openpal18MonotonicTimestampC1El@PLT
	movq	8(%rsp), %rax
	addq	$24, %rsp
	.cfi_def_cfa_offset 8
	ret
	.cfi_endproc
.LFE6382:
	.size	_ZN7asiopal5Timer9ExpiresAtEv, .-_ZN7asiopal5Timer9ExpiresAtEv
	.section	.text._ZN4asio22waitable_timer_serviceINSt6chrono3_V212steady_clockENS_11wait_traitsIS3_EEED2Ev,"axG",@progbits,_ZN4asio22waitable_timer_serviceINSt6chrono3_V212steady_clockENS_11wait_traitsIS3_EEED5Ev,comdat
	.align 2
	.p2align 4
	.weak	_ZN4asio22waitable_timer_serviceINSt6chrono3_V212steady_clockENS_11wait_traitsIS3_EEED2Ev
	.type	_ZN4asio22waitable_timer_serviceINSt6chrono3_V212steady_clockENS_11wait_traitsIS3_EEED2Ev, @function
_ZN4asio22waitable_timer_serviceINSt6chrono3_V212steady_clockENS_11wait_traitsIS3_EEED2Ev:
.LFB7800:
	.cfi_startproc
	movq	_ZTVN4asio22waitable_timer_serviceINSt6chrono3_V212steady_clockENS_11wait_traitsIS3_EEEE@GOTPCREL(%rip), %rax
	pushq	%r12
	.cfi_def_cfa_offset 16
	.cfi_offset 12, -16
	pushq	%rbp
	.cfi_def_cfa_offset 24
	.cfi_offset 6, -24
	addq	$16, %rax
	pushq	%rbx
	.cfi_def_cfa_offset 32
	.cfi_offset 3, -32
	movq	88(%rdi), %rbp
	movq	%rdi, %rbx
	movq	%rax, (%rdi)
	leaq	48(%rbp), %rdi
	call	pthread_mutex_lock@PLT
	movq	104(%rbp), %rax
	testq	%rax, %rax
	je	.L66
	leaq	40(%rbx), %rdx
	cmpq	%rax, %rdx
	jne	.L67
	jmp	.L76
	.p2align 5
	.p2align 4,,10
	.p2align 3
.L68:
	cmpq	%rax, %rdx
	je	.L77
.L67:
	movq	%rax, %rcx
	movq	8(%rax), %rax
	testq	%rax, %rax
	jne	.L68
.L66:
	leaq	48(%rbp), %rdi
	call	pthread_mutex_unlock@PLT
	movq	64(%rbx), %rdi
	testq	%rdi, %rdi
	je	.L65
	movq	80(%rbx), %rsi
	popq	%rbx
	.cfi_remember_state
	.cfi_def_cfa_offset 24
	popq	%rbp
	.cfi_def_cfa_offset 16
	popq	%r12
	.cfi_def_cfa_offset 8
	subq	%rdi, %rsi
	jmp	_ZdlPvm@PLT
	.p2align 4,,10
	.p2align 3
.L65:
	.cfi_restore_state
	popq	%rbx
	.cfi_remember_state
	.cfi_def_cfa_offset 24
	popq	%rbp
	.cfi_def_cfa_offset 16
	popq	%r12
	.cfi_def_cfa_offset 8
	ret
	.p2align 4,,10
	.p2align 3
.L77:
	.cfi_restore_state
	movq	48(%rbx), %rax
	movq	%rax, 8(%rcx)
	movq	$0, 48(%rbx)
	jmp	.L66
	.p2align 4,,10
	.p2align 3
.L76:
	movq	48(%rbx), %rax
	movq	%rax, 104(%rbp)
	movq	$0, 48(%rbx)
	jmp	.L66
	.cfi_endproc
.LFE7800:
	.size	_ZN4asio22waitable_timer_serviceINSt6chrono3_V212steady_clockENS_11wait_traitsIS3_EEED2Ev, .-_ZN4asio22waitable_timer_serviceINSt6chrono3_V212steady_clockENS_11wait_traitsIS3_EEED2Ev
	.weak	_ZN4asio22waitable_timer_serviceINSt6chrono3_V212steady_clockENS_11wait_traitsIS3_EEED1Ev
	.set	_ZN4asio22waitable_timer_serviceINSt6chrono3_V212steady_clockENS_11wait_traitsIS3_EEED1Ev,_ZN4asio22waitable_timer_serviceINSt6chrono3_V212steady_clockENS_11wait_traitsIS3_EEED2Ev
	.section	.text._ZN4asio6detail13epoll_reactor16shutdown_serviceEv,"axG",@progbits,_ZN4asio6detail13epoll_reactor16shutdown_serviceEv,comdat
	.align 2
	.p2align 4
	.weak	_ZN4asio6detail13epoll_reactor16shutdown_serviceEv
	.type	_ZN4asio6detail13epoll_reactor16shutdown_serviceEv, @function
_ZN4asio6detail13epoll_reactor16shutdown_serviceEv:
.LFB3118:
	.cfi_startproc
	.cfi_personality 0x9b,DW.ref.__gxx_personality_v0
	.cfi_lsda 0x1b,.LLSDA3118
	pushq	%r14
	.cfi_def_cfa_offset 16
	.cfi_offset 14, -16
	pushq	%r12
	.cfi_def_cfa_offset 24
	.cfi_offset 12, -24
	pushq	%rbp
	.cfi_def_cfa_offset 32
	.cfi_offset 6, -32
	leaq	48(%rdi), %rbp
	pushq	%rbx
	.cfi_def_cfa_offset 40
	.cfi_offset 3, -40
	movq	%rdi, %rbx
	movq	%rbp, %rdi
	subq	$40, %rsp
	.cfi_def_cfa_offset 80
	call	pthread_mutex_lock@PLT
	movb	$1, 112(%rbx)
	movq	%rbp, %rdi
	call	pthread_mutex_unlock@PLT
	movq	160(%rbx), %rax
	pxor	%xmm0, %xmm0
	movaps	%xmm0, (%rsp)
	testq	%rax, %rax
	jne	.L79
	jmp	.L97
	.p2align 4,,10
	.p2align 3
.L83:
	movq	%rdx, (%rcx)
.L85:
	movq	104(%rax), %rdx
	movups	%xmm0, 96(%rax)
	movq	%rdx, 8(%rsp)
.L82:
	movq	112(%rax), %rdx
	testq	%rdx, %rdx
	je	.L86
	movq	8(%rsp), %rcx
	testq	%rcx, %rcx
	je	.L150
	movq	%rdx, (%rcx)
.L89:
	movq	120(%rax), %rdx
	movups	%xmm0, 112(%rax)
	movq	%rdx, 8(%rsp)
.L86:
	movq	128(%rax), %rdx
	testq	%rdx, %rdx
	je	.L90
	movq	8(%rsp), %rcx
	testq	%rcx, %rcx
	je	.L151
	movq	%rdx, (%rcx)
.L93:
	movq	136(%rax), %rdx
	movups	%xmm0, 128(%rax)
	movq	%rdx, 8(%rsp)
.L90:
	movq	24(%rax), %rcx
	movb	$1, 144(%rax)
	movq	%rcx, 160(%rbx)
	movq	32(%rax), %rdx
	testq	%rdx, %rdx
	je	.L94
	movq	%rcx, 24(%rdx)
.L94:
	movq	24(%rax), %rdx
	testq	%rdx, %rdx
	je	.L95
	movq	32(%rax), %rcx
	movq	%rcx, 32(%rdx)
.L95:
	movq	168(%rbx), %rdx
	movq	$0, 32(%rax)
	movq	%rdx, 24(%rax)
	movq	%rax, 168(%rbx)
	movq	160(%rbx), %rax
	testq	%rax, %rax
	je	.L97
.L79:
	movq	96(%rax), %rdx
	testq	%rdx, %rdx
	je	.L82
	movq	8(%rsp), %rcx
	testq	%rcx, %rcx
	jne	.L83
	movq	%rdx, (%rsp)
	jmp	.L85
	.p2align 4,,10
	.p2align 3
.L150:
	movq	%rdx, (%rsp)
	jmp	.L89
	.p2align 4,,10
	.p2align 3
.L151:
	movq	%rdx, (%rsp)
	jmp	.L93
	.p2align 4,,10
	.p2align 3
.L97:
	movq	104(%rbx), %rbx
	testq	%rbx, %rbx
	je	.L81
	movq	_ZN4asio6detail11timer_queueINS0_18chrono_time_traitsINSt6chrono3_V212steady_clockENS_11wait_traitsIS5_EEEEE14get_all_timersERNS0_8op_queueINS0_25task_io_service_operationEEE@GOTPCREL(%rip), %r12
	movq	%rsp, %rbp
	pxor	%xmm0, %xmm0
	.p2align 4
	.p2align 3
.L80:
	movq	(%rbx), %rax
	movq	48(%rax), %rax
	cmpq	%r12, %rax
	jne	.L100
	movq	16(%rbx), %rax
	testq	%rax, %rax
	jne	.L101
	jmp	.L107
	.p2align 4,,10
	.p2align 3
.L152:
	movq	%rcx, (%rsi)
.L106:
	movq	8(%rdx), %rcx
	movq	%rcx, 8(%rsp)
	movups	%xmm0, (%rdx)
.L104:
	movups	%xmm0, 24(%rdx)
	testq	%rax, %rax
	je	.L107
.L101:
	movq	%rax, %rdx
	movq	24(%rax), %rax
	movq	(%rdx), %rcx
	movq	%rax, 16(%rbx)
	testq	%rcx, %rcx
	je	.L104
	movq	8(%rsp), %rsi
	testq	%rsi, %rsi
	jne	.L152
	movq	%rcx, (%rsp)
	jmp	.L106
	.p2align 4,,10
	.p2align 3
.L107:
	movq	24(%rbx), %rax
	cmpq	32(%rbx), %rax
	je	.L108
	movq	%rax, 32(%rbx)
.L108:
	movq	8(%rbx), %rbx
	testq	%rbx, %rbx
	jne	.L80
.L81:
	movq	(%rsp), %rbx
	testq	%rbx, %rbx
	je	.L78
	pxor	%xmm0, %xmm0
	leaq	16(%rsp), %rbp
	movaps	%xmm0, (%rsp)
	call	_ZNSt3_V215system_categoryEv@PLT
	movq	%rax, %r12
	.p2align 4
	.p2align 3
.L109:
	movq	%rbx, %rsi
	movq	(%rbx), %rbx
	xorl	%ecx, %ecx
	xorl	%edi, %edi
	movq	$0, (%rsi)
	movq	8(%rsi), %rax
	movq	%rbp, %rdx
	movl	$0, 16(%rsp)
	movq	%r12, 24(%rsp)
	call	*%rax
	testq	%rbx, %rbx
	jne	.L109
	movq	(%rsp), %rsi
	testq	%rsi, %rsi
	jne	.L110
	jmp	.L78
	.p2align 4,,10
	.p2align 3
.L111:
	movq	$0, (%rsi)
	movq	8(%rsi), %rax
	xorl	%ecx, %ecx
	movq	%rbp, %rdx
	movl	$0, 16(%rsp)
	xorl	%edi, %edi
	movq	%r12, 24(%rsp)
	call	*%rax
	movq	(%rsp), %rsi
	testq	%rsi, %rsi
	je	.L78
.L110:
	movq	(%rsi), %rax
	movq	%rax, (%rsp)
	testq	%rax, %rax
	jne	.L111
	movq	$0, 8(%rsp)
	jmp	.L111
	.p2align 4,,10
	.p2align 3
.L100:
	movq	%rbp, %rsi
	movq	%rbx, %rdi
.LEHB0:
	call	*%rax
.LEHE0:
	pxor	%xmm0, %xmm0
	jmp	.L108
	.p2align 4,,10
	.p2align 3
.L78:
	addq	$40, %rsp
	.cfi_remember_state
	.cfi_def_cfa_offset 40
	popq	%rbx
	.cfi_def_cfa_offset 32
	popq	%rbp
	.cfi_def_cfa_offset 24
	popq	%r12
	.cfi_def_cfa_offset 16
	popq	%r14
	.cfi_def_cfa_offset 8
	ret
.L116:
	.cfi_restore_state
	movq	%rax, %r14
	jmp	.L113
.L153:
	movq	(%rbx), %rax
	movq	%rax, (%rsp)
	testq	%rax, %rax
	jne	.L115
	xorl	%ecx, %ecx
	movq	%rcx, 8(%rsp)
.L115:
	xorl	%eax, %eax
	xorl	%edx, %edx
	movq	8(%rbx), %rbp
	movq	%rax, (%rbx)
	movl	%edx, 16(%rsp)
	call	_ZNSt3_V215system_categoryEv@PLT
	xorl	%ecx, %ecx
	leaq	16(%rsp), %rdx
	movq	%rbx, %rsi
	movq	%rax, 24(%rsp)
	xorl	%edi, %edi
	call	*%rbp
.L113:
	movq	(%rsp), %rbx
	testq	%rbx, %rbx
	jne	.L153
	movq	%r14, %rdi
.LEHB1:
	call	_Unwind_Resume@PLT
.LEHE1:
	.cfi_endproc
.LFE3118:
	.section	.gcc_except_table._ZN4asio6detail13epoll_reactor16shutdown_serviceEv,"aG",@progbits,_ZN4asio6detail13epoll_reactor16shutdown_serviceEv,comdat
.LLSDA3118:
	.byte	0xff
	.byte	0xff
	.byte	0x1
	.uleb128 .LLSDACSE3118-.LLSDACSB3118
.LLSDACSB3118:
	.uleb128 .LEHB0-.LFB3118
	.uleb128 .LEHE0-.LEHB0
	.uleb128 .L116-.LFB3118
	.uleb128 0
	.uleb128 .LEHB1-.LFB3118
	.uleb128 .LEHE1-.LEHB1
	.uleb128 0
	.uleb128 0
.LLSDACSE3118:
	.section	.text._ZN4asio6detail13epoll_reactor16shutdown_serviceEv,"axG",@progbits,_ZN4asio6detail13epoll_reactor16shutdown_serviceEv,comdat
	.size	_ZN4asio6detail13epoll_reactor16shutdown_serviceEv, .-_ZN4asio6detail13epoll_reactor16shutdown_serviceEv
	.section	.text._ZN4asio6detail13epoll_reactorD2Ev,"axG",@progbits,_ZN4asio6detail13epoll_reactorD5Ev,comdat
	.align 2
	.p2align 4
	.weak	_ZN4asio6detail13epoll_reactorD2Ev
	.type	_ZN4asio6detail13epoll_reactorD2Ev, @function
_ZN4asio6detail13epoll_reactorD2Ev:
.LFB3115:
	.cfi_startproc
	.cfi_personality 0x9b,DW.ref.__gxx_personality_v0
	.cfi_lsda 0x1b,.LLSDA3115
	pushq	%r15
	.cfi_def_cfa_offset 16
	.cfi_offset 15, -16
	pushq	%r14
	.cfi_def_cfa_offset 24
	.cfi_offset 14, -24
	pushq	%r13
	.cfi_def_cfa_offset 32
	.cfi_offset 13, -32
	pushq	%r12
	.cfi_def_cfa_offset 40
	.cfi_offset 12, -40
	pushq	%rbp
	.cfi_def_cfa_offset 48
	.cfi_offset 6, -48
	pushq	%rbx
	.cfi_def_cfa_offset 56
	.cfi_offset 3, -56
	subq	$40, %rsp
	.cfi_def_cfa_offset 96
	movq	_ZTVN4asio6detail13epoll_reactorE@GOTPCREL(%rip), %rax
	movq	%rdi, 8(%rsp)
	addq	$16, %rax
	movq	%rax, (%rdi)
	movl	96(%rdi), %edi
	cmpl	$-1, %edi
	je	.L155
	call	close@PLT
.L155:
	movq	8(%rsp), %rax
	movl	100(%rax), %edi
	cmpl	$-1, %edi
	je	.L156
	call	close@PLT
.L156:
	movq	8(%rsp), %rax
	leaq	16(%rsp), %rbp
	movq	160(%rax), %r13
	testq	%r13, %r13
	je	.L167
	.p2align 4
	.p2align 3
.L157:
	movq	%r13, %r12
	movq	24(%r13), %r13
	leaq	128(%r12), %r15
	leaq	80(%r12), %r14
.L162:
	movq	(%r15), %rsi
	testq	%rsi, %rsi
	je	.L165
	movq	%rsi, (%rsp)
	call	_ZNSt3_V215system_categoryEv@PLT
	movq	(%rsp), %rsi
	movq	%rax, %rbx
	jmp	.L166
	.p2align 4,,10
	.p2align 3
.L163:
	movq	$0, (%rsi)
	movq	8(%rsi), %rax
	xorl	%ecx, %ecx
	movq	%rbp, %rdx
	movl	$0, 16(%rsp)
	xorl	%edi, %edi
	movq	%rbx, 24(%rsp)
	call	*%rax
	movq	(%r15), %rsi
	testq	%rsi, %rsi
	je	.L165
.L166:
	movq	(%rsi), %rax
	movq	%rax, (%r15)
	testq	%rax, %rax
	jne	.L163
	movq	$0, 8(%r15)
	jmp	.L163
	.p2align 4,,10
	.p2align 3
.L165:
	subq	$16, %r15
	cmpq	%r14, %r15
	jne	.L162
	leaq	40(%r12), %rdi
	call	pthread_mutex_destroy@PLT
	movl	$152, %esi
	movq	%r12, %rdi
	call	_ZdlPvm@PLT
	testq	%r13, %r13
	jne	.L157
.L167:
	movq	8(%rsp), %rax
	leaq	16(%rsp), %rbp
	movq	168(%rax), %r13
	testq	%r13, %r13
	je	.L159
	.p2align 4
	.p2align 3
.L158:
	movq	%r13, %r12
	movq	24(%r13), %r13
	leaq	128(%r12), %r15
	leaq	80(%r12), %r14
.L172:
	movq	(%r15), %rsi
	testq	%rsi, %rsi
	je	.L175
	movq	%rsi, (%rsp)
	call	_ZNSt3_V215system_categoryEv@PLT
	movq	(%rsp), %rsi
	movq	%rax, %rbx
	jmp	.L176
	.p2align 4,,10
	.p2align 3
.L173:
	movq	$0, (%rsi)
	movq	8(%rsi), %rax
	xorl	%ecx, %ecx
	movq	%rbp, %rdx
	movl	$0, 16(%rsp)
	xorl	%edi, %edi
	movq	%rbx, 24(%rsp)
	call	*%rax
	movq	(%r15), %rsi
	testq	%rsi, %rsi
	je	.L175
.L176:
	movq	(%rsi), %rax
	movq	%rax, (%r15)
	testq	%rax, %rax
	jne	.L173
	movq	$0, 8(%r15)
	jmp	.L173
	.p2align 4,,10
	.p2align 3
.L175:
	subq	$16, %r15
	cmpq	%r14, %r15
	jne	.L172
	leaq	40(%r12), %rdi
	call	pthread_mutex_destroy@PLT
	movl	$152, %esi
	movq	%r12, %rdi
	call	_ZdlPvm@PLT
	testq	%r13, %r13
	jne	.L158
.L159:
	movq	8(%rsp), %rbx
	leaq	120(%rbx), %rdi
	call	pthread_mutex_destroy@PLT
	movl	92(%rbx), %eax
	cmpl	$-1, %eax
	je	.L169
	movq	8(%rsp), %rdx
	movl	88(%rdx), %edi
	cmpl	%edi, %eax
	jne	.L201
.L177:
	call	close@PLT
	jmp	.L178
.L201:
	movl	%eax, %edi
	call	close@PLT
.L169:
	movq	8(%rsp), %rax
	movl	88(%rax), %edi
	cmpl	$-1, %edi
	jne	.L177
.L178:
	movq	8(%rsp), %rdi
	addq	$40, %rsp
	.cfi_def_cfa_offset 56
	popq	%rbx
	.cfi_def_cfa_offset 48
	popq	%rbp
	.cfi_def_cfa_offset 40
	addq	$48, %rdi
	popq	%r12
	.cfi_def_cfa_offset 32
	popq	%r13
	.cfi_def_cfa_offset 24
	popq	%r14
	.cfi_def_cfa_offset 16
	popq	%r15
	.cfi_def_cfa_offset 8
.LEHB2:
	jmp	pthread_mutex_destroy@PLT
.LEHE2:
	.cfi_endproc
.LFE3115:
	.section	.gcc_except_table._ZN4asio6detail13epoll_reactorD2Ev,"aG",@progbits,_ZN4asio6detail13epoll_reactorD5Ev,comdat
.LLSDA3115:
	.byte	0xff
	.byte	0xff
	.byte	0x1
	.uleb128 .LLSDACSE3115-.LLSDACSB3115
.LLSDACSB3115:
	.uleb128 .LEHB2-.LFB3115
	.uleb128 .LEHE2-.LEHB2
	.uleb128 0
	.uleb128 0
.LLSDACSE3115:
	.section	.text._ZN4asio6detail13epoll_reactorD2Ev,"axG",@progbits,_ZN4asio6detail13epoll_reactorD5Ev,comdat
	.size	_ZN4asio6detail13epoll_reactorD2Ev, .-_ZN4asio6detail13epoll_reactorD2Ev
	.weak	_ZN4asio6detail13epoll_reactorD1Ev
	.set	_ZN4asio6detail13epoll_reactorD1Ev,_ZN4asio6detail13epoll_reactorD2Ev
	.section	.text._ZN4asio6detail13epoll_reactorD0Ev,"axG",@progbits,_ZN4asio6detail13epoll_reactorD5Ev,comdat
	.align 2
	.p2align 4
	.weak	_ZN4asio6detail13epoll_reactorD0Ev
	.type	_ZN4asio6detail13epoll_reactorD0Ev, @function
_ZN4asio6detail13epoll_reactorD0Ev:
.LFB3117:
	.cfi_startproc
	.cfi_personality 0x9b,DW.ref.__gxx_personality_v0
	.cfi_lsda 0x1b,.LLSDA3117
	pushq	%r15
	.cfi_def_cfa_offset 16
	.cfi_offset 15, -16
	pushq	%r14
	.cfi_def_cfa_offset 24
	.cfi_offset 14, -24
	pushq	%r13
	.cfi_def_cfa_offset 32
	.cfi_offset 13, -32
	pushq	%r12
	.cfi_def_cfa_offset 40
	.cfi_offset 12, -40
	pushq	%rbp
	.cfi_def_cfa_offset 48
	.cfi_offset 6, -48
	pushq	%rbx
	.cfi_def_cfa_offset 56
	.cfi_offset 3, -56
	subq	$40, %rsp
	.cfi_def_cfa_offset 96
	movq	_ZTVN4asio6detail13epoll_reactorE@GOTPCREL(%rip), %rax
	movq	%rdi, 8(%rsp)
	addq	$16, %rax
	movq	%rax, (%rdi)
	movl	96(%rdi), %edi
	cmpl	$-1, %edi
	je	.L203
	call	close@PLT
.L203:
	movq	8(%rsp), %rax
	movl	100(%rax), %edi
	cmpl	$-1, %edi
	je	.L204
	call	close@PLT
.L204:
	movq	8(%rsp), %rax
	leaq	16(%rsp), %rbp
	movq	160(%rax), %r13
	testq	%r13, %r13
	je	.L215
	.p2align 4
	.p2align 3
.L205:
	movq	%r13, %r12
	movq	24(%r13), %r13
	leaq	128(%r12), %r15
	leaq	80(%r12), %r14
.L210:
	movq	(%r15), %rsi
	testq	%rsi, %rsi
	je	.L213
	movq	%rsi, (%rsp)
	call	_ZNSt3_V215system_categoryEv@PLT
	movq	(%rsp), %rsi
	movq	%rax, %rbx
	jmp	.L214
	.p2align 4,,10
	.p2align 3
.L211:
	movq	$0, (%rsi)
	movq	8(%rsi), %rax
	xorl	%ecx, %ecx
	movq	%rbp, %rdx
	movl	$0, 16(%rsp)
	xorl	%edi, %edi
	movq	%rbx, 24(%rsp)
	call	*%rax
	movq	(%r15), %rsi
	testq	%rsi, %rsi
	je	.L213
.L214:
	movq	(%rsi), %rax
	movq	%rax, (%r15)
	testq	%rax, %rax
	jne	.L211
	movq	$0, 8(%r15)
	jmp	.L211
	.p2align 4,,10
	.p2align 3
.L213:
	subq	$16, %r15
	cmpq	%r14, %r15
	jne	.L210
	leaq	40(%r12), %rdi
	call	pthread_mutex_destroy@PLT
	movl	$152, %esi
	movq	%r12, %rdi
	call	_ZdlPvm@PLT
	testq	%r13, %r13
	jne	.L205
.L215:
	movq	8(%rsp), %rax
	leaq	16(%rsp), %rbp
	movq	168(%rax), %r13
	testq	%r13, %r13
	je	.L207
	.p2align 4
	.p2align 3
.L206:
	movq	%r13, %r12
	movq	24(%r13), %r13
	leaq	128(%r12), %r15
	leaq	80(%r12), %r14
.L220:
	movq	(%r15), %rsi
	testq	%rsi, %rsi
	je	.L223
	movq	%rsi, (%rsp)
	call	_ZNSt3_V215system_categoryEv@PLT
	movq	(%rsp), %rsi
	movq	%rax, %rbx
	jmp	.L224
	.p2align 4,,10
	.p2align 3
.L221:
	movq	$0, (%rsi)
	movq	8(%rsi), %rax
	xorl	%ecx, %ecx
	movq	%rbp, %rdx
	movl	$0, 16(%rsp)
	xorl	%edi, %edi
	movq	%rbx, 24(%rsp)
	call	*%rax
	movq	(%r15), %rsi
	testq	%rsi, %rsi
	je	.L223
.L224:
	movq	(%rsi), %rax
	movq	%rax, (%r15)
	testq	%rax, %rax
	jne	.L221
	movq	$0, 8(%r15)
	jmp	.L221
	.p2align 4,,10
	.p2align 3
.L223:
	subq	$16, %r15
	cmpq	%r14, %r15
	jne	.L220
	leaq	40(%r12), %rdi
	call	pthread_mutex_destroy@PLT
	movl	$152, %esi
	movq	%r12, %rdi
	call	_ZdlPvm@PLT
	testq	%r13, %r13
	jne	.L206
.L207:
	movq	8(%rsp), %rbx
	leaq	120(%rbx), %rdi
	call	pthread_mutex_destroy@PLT
	movl	92(%rbx), %eax
	cmpl	$-1, %eax
	je	.L217
	movq	8(%rsp), %rdx
	movl	88(%rdx), %edi
	cmpl	%edi, %eax
	jne	.L249
.L225:
	call	close@PLT
	jmp	.L226
.L249:
	movl	%eax, %edi
	call	close@PLT
.L217:
	movq	8(%rsp), %rax
	movl	88(%rax), %edi
	cmpl	$-1, %edi
	jne	.L225
.L226:
	movq	8(%rsp), %rbx
	leaq	48(%rbx), %rdi
	call	pthread_mutex_destroy@PLT
	addq	$40, %rsp
	.cfi_def_cfa_offset 56
	movq	%rbx, %rdi
	movl	$176, %esi
	popq	%rbx
	.cfi_def_cfa_offset 48
	popq	%rbp
	.cfi_def_cfa_offset 40
	popq	%r12
	.cfi_def_cfa_offset 32
	popq	%r13
	.cfi_def_cfa_offset 24
	popq	%r14
	.cfi_def_cfa_offset 16
	popq	%r15
	.cfi_def_cfa_offset 8
.LEHB3:
	jmp	_ZdlPvm@PLT
.LEHE3:
	.cfi_endproc
.LFE3117:
	.section	.gcc_except_table._ZN4asio6detail13epoll_reactorD0Ev,"aG",@progbits,_ZN4asio6detail13epoll_reactorD5Ev,comdat
.LLSDA3117:
	.byte	0xff
	.byte	0xff
	.byte	0x1
	.uleb128 .LLSDACSE3117-.LLSDACSB3117
.LLSDACSB3117:
	.uleb128 .LEHB3-.LFB3117
	.uleb128 .LEHE3-.LEHB3
	.uleb128 0
	.uleb128 0
.LLSDACSE3117:
	.section	.text._ZN4asio6detail13epoll_reactorD0Ev,"axG",@progbits,_ZN4asio6detail13epoll_reactorD5Ev,comdat
	.size	_ZN4asio6detail13epoll_reactorD0Ev, .-_ZN4asio6detail13epoll_reactorD0Ev
	.section	.text._ZNK4asio6detail11timer_queueINS0_18chrono_time_traitsINSt6chrono3_V212steady_clockENS_11wait_traitsIS5_EEEEE18wait_duration_msecEl,"axG",@progbits,_ZNK4asio6detail11timer_queueINS0_18chrono_time_traitsINSt6chrono3_V212steady_clockENS_11wait_traitsIS5_EEEEE18wait_duration_msecEl,comdat
	.align 2
	.p2align 4
	.weak	_ZNK4asio6detail11timer_queueINS0_18chrono_time_traitsINSt6chrono3_V212steady_clockENS_11wait_traitsIS5_EEEEE18wait_duration_msecEl
	.type	_ZNK4asio6detail11timer_queueINS0_18chrono_time_traitsINSt6chrono3_V212steady_clockENS_11wait_traitsIS5_EEEEE18wait_duration_msecEl, @function
_ZNK4asio6detail11timer_queueINS0_18chrono_time_traitsINSt6chrono3_V212steady_clockENS_11wait_traitsIS5_EEEEE18wait_duration_msecEl:
.LFB7844:
	.cfi_startproc
	movq	32(%rdi), %rax
	cmpq	%rax, 24(%rdi)
	je	.L266
	pushq	%rbx
	.cfi_def_cfa_offset 16
	.cfi_offset 3, -16
	movq	%rsi, %rbx
	subq	$16, %rsp
	.cfi_def_cfa_offset 32
	movq	%rdi, 8(%rsp)
	call	_ZNSt6chrono3_V212steady_clock3nowEv@PLT
	movq	8(%rsp), %rdi
	movq	%rax, %rdx
	movq	24(%rdi), %rax
	movq	(%rax), %rax
	testq	%rax, %rax
	js	.L252
	testq	%rdx, %rdx
	js	.L253
.L269:
	subq	%rdx, %rax
	testq	%rax, %rax
	jle	.L262
.L256:
	movabsq	$4835703278458516699, %rdx
	movl	$1, %ecx
	mulq	%rdx
	shrq	$18, %rdx
	je	.L250
.L255:
	cmpq	%rdx, %rbx
	movq	%rdx, %rcx
	cmovle	%rbx, %rcx
.L250:
	addq	$16, %rsp
	.cfi_remember_state
	.cfi_def_cfa_offset 16
	movq	%rcx, %rax
	popq	%rbx
	.cfi_def_cfa_offset 8
	ret
	.p2align 4,,10
	.p2align 3
.L252:
	.cfi_restore_state
	xorl	%ecx, %ecx
	testq	%rdx, %rdx
	js	.L269
	addq	$16, %rsp
	.cfi_def_cfa_offset 16
	movq	%rcx, %rax
	popq	%rbx
	.cfi_def_cfa_offset 8
	ret
	.p2align 4,,10
	.p2align 3
.L266:
	.cfi_restore 3
	movq	%rsi, %rax
	ret
	.p2align 4,,10
	.p2align 3
.L253:
	.cfi_def_cfa_offset 32
	.cfi_offset 3, -16
	movabsq	$-9223372036854775808, %rcx
	cmpq	%rcx, %rdx
	je	.L260
	movq	%rdx, %rsi
	subq	$1, %rcx
	subq	%rax, %rcx
	negq	%rsi
	subq	%rdx, %rax
	cmpq	%rcx, %rsi
	jle	.L256
.L260:
	movabsq	$9223372036854, %rdx
	jmp	.L255
	.p2align 4,,10
	.p2align 3
.L262:
	xorl	%ecx, %ecx
	jmp	.L250
	.cfi_endproc
.LFE7844:
	.size	_ZNK4asio6detail11timer_queueINS0_18chrono_time_traitsINSt6chrono3_V212steady_clockENS_11wait_traitsIS5_EEEEE18wait_duration_msecEl, .-_ZNK4asio6detail11timer_queueINS0_18chrono_time_traitsINSt6chrono3_V212steady_clockENS_11wait_traitsIS5_EEEEE18wait_duration_msecEl
	.section	.text._ZNK4asio6detail11timer_queueINS0_18chrono_time_traitsINSt6chrono3_V212steady_clockENS_11wait_traitsIS5_EEEEE18wait_duration_usecEl,"axG",@progbits,_ZNK4asio6detail11timer_queueINS0_18chrono_time_traitsINSt6chrono3_V212steady_clockENS_11wait_traitsIS5_EEEEE18wait_duration_usecEl,comdat
	.align 2
	.p2align 4
	.weak	_ZNK4asio6detail11timer_queueINS0_18chrono_time_traitsINSt6chrono3_V212steady_clockENS_11wait_traitsIS5_EEEEE18wait_duration_usecEl
	.type	_ZNK4asio6detail11timer_queueINS0_18chrono_time_traitsINSt6chrono3_V212steady_clockENS_11wait_traitsIS5_EEEEE18wait_duration_usecEl, @function
_ZNK4asio6detail11timer_queueINS0_18chrono_time_traitsINSt6chrono3_V212steady_clockENS_11wait_traitsIS5_EEEEE18wait_duration_usecEl:
.LFB7845:
	.cfi_startproc
	movq	32(%rdi), %rax
	cmpq	%rax, 24(%rdi)
	je	.L287
	pushq	%rbx
	.cfi_def_cfa_offset 16
	.cfi_offset 3, -16
	movq	%rsi, %rbx
	subq	$16, %rsp
	.cfi_def_cfa_offset 32
	movq	%rdi, 8(%rsp)
	call	_ZNSt6chrono3_V212steady_clock3nowEv@PLT
	movq	8(%rsp), %rdi
	movq	%rax, %rdx
	movq	24(%rdi), %rax
	movq	(%rax), %rax
	testq	%rax, %rax
	js	.L273
	testq	%rdx, %rdx
	js	.L274
.L290:
	subq	%rdx, %rax
	testq	%rax, %rax
	jle	.L283
.L277:
	shrq	$3, %rax
	movl	$1, %ecx
	movabsq	$2361183241434822607, %rdx
	mulq	%rdx
	shrq	$4, %rdx
	je	.L271
.L276:
	cmpq	%rdx, %rbx
	movq	%rdx, %rcx
	cmovle	%rbx, %rcx
.L271:
	addq	$16, %rsp
	.cfi_remember_state
	.cfi_def_cfa_offset 16
	movq	%rcx, %rax
	popq	%rbx
	.cfi_def_cfa_offset 8
	ret
	.p2align 4,,10
	.p2align 3
.L273:
	.cfi_restore_state
	xorl	%ecx, %ecx
	testq	%rdx, %rdx
	js	.L290
	addq	$16, %rsp
	.cfi_def_cfa_offset 16
	movq	%rcx, %rax
	popq	%rbx
	.cfi_def_cfa_offset 8
	ret
	.p2align 4,,10
	.p2align 3
.L287:
	.cfi_restore 3
	movq	%rsi, %rax
	ret
	.p2align 4,,10
	.p2align 3
.L274:
	.cfi_def_cfa_offset 32
	.cfi_offset 3, -16
	movabsq	$-9223372036854775808, %rcx
	cmpq	%rcx, %rdx
	je	.L281
	movq	%rdx, %rsi
	subq	$1, %rcx
	subq	%rax, %rcx
	negq	%rsi
	subq	%rdx, %rax
	cmpq	%rcx, %rsi
	jle	.L277
.L281:
	movabsq	$9223372036854775, %rdx
	jmp	.L276
	.p2align 4,,10
	.p2align 3
.L283:
	xorl	%ecx, %ecx
	jmp	.L271
	.cfi_endproc
.LFE7845:
	.size	_ZNK4asio6detail11timer_queueINS0_18chrono_time_traitsINSt6chrono3_V212steady_clockENS_11wait_traitsIS5_EEEEE18wait_duration_usecEl, .-_ZNK4asio6detail11timer_queueINS0_18chrono_time_traitsINSt6chrono3_V212steady_clockENS_11wait_traitsIS5_EEEEE18wait_duration_usecEl
	.text
	.align 2
	.p2align 4
	.type	_ZN4asio6detail13epoll_reactor12cancel_timerINS0_18chrono_time_traitsINSt6chrono3_V212steady_clockENS_11wait_traitsIS6_EEEEEEmRNS0_11timer_queueIT_EERNSC_14per_timer_dataEm.constprop.0.isra.0, @function
_ZN4asio6detail13epoll_reactor12cancel_timerINS0_18chrono_time_traitsINSt6chrono3_V212steady_clockENS_11wait_traitsIS6_EEEEEEmRNS0_11timer_queueIT_EERNSC_14per_timer_dataEm.constprop.0.isra.0:
.LFB7911:
	.cfi_startproc
	pushq	%r15
	.cfi_def_cfa_offset 16
	.cfi_offset 15, -16
	leaq	48(%rdi), %rax
	pushq	%r14
	.cfi_def_cfa_offset 24
	.cfi_offset 14, -24
	movq	%rsi, %r14
	pushq	%r13
	.cfi_def_cfa_offset 32
	.cfi_offset 13, -32
	pushq	%r12
	.cfi_def_cfa_offset 40
	.cfi_offset 12, -40
	pushq	%rbp
	.cfi_def_cfa_offset 48
	.cfi_offset 6, -48
	pushq	%rbx
	.cfi_def_cfa_offset 56
	.cfi_offset 3, -56
	movq	%rdx, %rbx
	subq	$56, %rsp
	.cfi_def_cfa_offset 112
	movq	%rdi, 16(%rsp)
	movq	%rax, %rdi
	movq	%rax, (%rsp)
	call	pthread_mutex_lock@PLT
	movq	32(%rbx), %r12
	testq	%r12, %r12
	je	.L372
	movq	%r14, 8(%rsp)
	movq	$-1, %r13
	xorl	%r15d, %r15d
	xorl	%r12d, %r12d
	jmp	.L301
	.p2align 4,,10
	.p2align 3
.L375:
	movq	_ZZN4asio15system_categoryEvE8instance@GOTPCREL(%rip), %rsi
.L296:
	movq	(%rbx), %rax
	movl	$125, 24(%r15)
	movq	%rsi, 32(%r15)
	testq	%rax, %rax
	je	.L298
	movq	(%rax), %rdx
	movq	%rdx, (%rbx)
	testq	%rdx, %rdx
	je	.L373
.L299:
	movq	$0, (%rax)
.L298:
	movq	$0, (%r15)
	testq	%r14, %r14
	je	.L328
	movq	%r15, (%r14)
	subq	$1, %r13
	je	.L374
.L301:
	movq	%r15, %r14
	movq	(%rbx), %r15
	testq	%r15, %r15
	je	.L366
	movq	_ZGVZN4asio15system_categoryEvE8instance@GOTPCREL(%rip), %rbp
	movzbl	0(%rbp), %eax
	testb	%al, %al
	jne	.L375
	movq	%rbp, %rdi
	call	__cxa_guard_acquire@PLT
	movq	_ZZN4asio15system_categoryEvE8instance@GOTPCREL(%rip), %rsi
	testl	%eax, %eax
	je	.L296
	movq	_ZN4asio6detail15system_categoryD1Ev@GOTPCREL(%rip), %rdi
	leaq	__dso_handle(%rip), %rdx
	movq	%rsi, 24(%rsp)
	call	__cxa_atexit@PLT
	movq	%rbp, %rdi
	call	__cxa_guard_release@PLT
	movq	24(%rsp), %rsi
	jmp	.L296
	.p2align 4,,10
	.p2align 3
.L328:
	movq	%r15, %r12
	subq	$1, %r13
	jne	.L301
.L374:
	movq	8(%rsp), %r14
	cmpq	$0, (%rbx)
	je	.L376
.L302:
	movq	(%rsp), %rdi
	call	pthread_mutex_unlock@PLT
	testq	%r12, %r12
	je	.L292
	movq	16(%rsp), %rax
	movq	40(%rax), %rbx
	cmpb	$0, 40(%rbx)
	je	.L314
	data16	leaq	_ZN4asio6detail15keyword_tss_ptrINS0_10call_stackINS0_15task_io_serviceENS0_27task_io_service_thread_infoEE7contextEE6value_E@tlsgd(%rip), %rdi
	.value	0x6666
	rex64
	call	__tls_get_addr@PLT
	movq	(%rax), %rax
	testq	%rax, %rax
	jne	.L317
	jmp	.L314
	.p2align 4
	.p2align 4,,10
	.p2align 3
.L315:
	movq	16(%rax), %rax
	testq	%rax, %rax
	je	.L314
.L317:
	cmpq	(%rax), %rbx
	jne	.L315
	movq	8(%rax), %rax
	testq	%rax, %rax
	je	.L314
	movq	16(%rax), %rdx
	testq	%rdx, %rdx
	je	.L318
	movq	%r12, (%rdx)
.L319:
	movq	%r15, 16(%rax)
.L292:
	addq	$56, %rsp
	.cfi_remember_state
	.cfi_def_cfa_offset 56
	popq	%rbx
	.cfi_def_cfa_offset 48
	popq	%rbp
	.cfi_def_cfa_offset 40
	popq	%r12
	.cfi_def_cfa_offset 32
	popq	%r13
	.cfi_def_cfa_offset 24
	popq	%r14
	.cfi_def_cfa_offset 16
	popq	%r15
	.cfi_def_cfa_offset 8
	ret
	.p2align 4,,10
	.p2align 3
.L373:
	.cfi_restore_state
	movq	$0, 8(%rbx)
	jmp	.L299
	.p2align 4,,10
	.p2align 3
.L314:
	leaq	48(%rbx), %rbp
	movq	%rbp, %rdi
	call	pthread_mutex_lock@PLT
	movq	200(%rbx), %rax
	testq	%rax, %rax
	je	.L321
	movq	%r12, (%rax)
.L322:
	movq	136(%rbx), %rax
	movq	%r15, 200(%rbx)
	movq	%rax, %rdx
	orq	$1, %rdx
	movq	%rdx, 136(%rbx)
	cmpq	$1, %rax
	jbe	.L323
	movq	%rbp, %rdi
	call	pthread_mutex_unlock@PLT
	addq	$56, %rsp
	.cfi_remember_state
	.cfi_def_cfa_offset 56
	leaq	88(%rbx), %rdi
	popq	%rbx
	.cfi_def_cfa_offset 48
	popq	%rbp
	.cfi_def_cfa_offset 40
	popq	%r12
	.cfi_def_cfa_offset 32
	popq	%r13
	.cfi_def_cfa_offset 24
	popq	%r14
	.cfi_def_cfa_offset 16
	popq	%r15
	.cfi_def_cfa_offset 8
	jmp	pthread_cond_signal@PLT
	.p2align 4,,10
	.p2align 3
.L366:
	.cfi_restore_state
	movq	%r14, %rbp
	movq	8(%rsp), %r14
.L294:
	movq	32(%r14), %rsi
	movq	24(%r14), %rdx
	cmpq	%rdx, %rsi
	je	.L305
	movq	%rsi, %r8
	movq	16(%rbx), %rax
	subq	%rdx, %r8
	movq	%r8, %rdi
	sarq	$4, %rdi
	cmpq	%rdi, %rax
	jnb	.L305
	subq	$1, %rdi
	subq	$16, %rsi
	cmpq	%rdi, %rax
	je	.L377
	movq	%rax, %r10
	movdqu	-16(%rdx,%r8), %xmm0
	salq	$4, %r10
	addq	%rdx, %r10
	movq	(%r10), %r11
	movq	8(%r10), %r9
	movups	%xmm0, (%r10)
	movq	%r11, -16(%rdx,%r8)
	movq	%r9, -8(%rdx,%r8)
	movq	8(%r10), %r8
	movq	%rax, 16(%r8)
	movq	%rdi, 16(%r9)
	movq	%rsi, 32(%r14)
	testq	%rax, %rax
	je	.L306
	leaq	-1(%rax), %rdi
	movq	(%r10), %r9
	movq	%rdi, %r11
	shrq	%r11
	salq	$4, %r11
	cmpq	%r9, (%rdx,%r11)
	jg	.L307
.L306:
	subq	%rdx, %rsi
	leaq	1(%rax,%rax), %r8
	sarq	$4, %rsi
	movq	%rsi, %r9
	cmpq	%rsi, %r8
	jnb	.L305
	movq	(%r10), %rcx
	jmp	.L309
	.p2align 4,,10
	.p2align 3
.L378:
	leaq	16(%rdx,%r11), %r11
	movq	(%r11), %r13
	cmpq	%rsi, %r13
	jg	.L329
	movq	%r13, %rsi
	movq	%r11, %r10
.L308:
	cmpq	%rsi, %rcx
	jl	.L305
	movq	%rax, %rsi
	movdqu	(%r10), %xmm0
	salq	$4, %rsi
	addq	%rdx, %rsi
	movq	8(%rsi), %r8
	movups	%xmm0, (%rsi)
	movq	%rcx, (%r10)
	movq	%r8, 8(%r10)
	movq	8(%rsi), %rsi
	movq	%rax, 16(%rsi)
	movq	%rdi, 16(%r8)
	leaq	1(%rdi,%rdi), %r8
	cmpq	%r9, %r8
	jnb	.L305
	movq	%rdi, %rax
.L309:
	movq	%r8, %r11
	leaq	1(%r8), %rdi
	salq	$4, %r11
	leaq	(%rdx,%r11), %r10
	movq	(%r10), %rsi
	cmpq	%r9, %rdi
	jne	.L378
.L329:
	movq	%r8, %rdi
	jmp	.L308
	.p2align 4,,10
	.p2align 3
.L372:
	movq	(%rsp), %rdi
	cmpq	16(%r14), %rbx
	je	.L379
.L371:
	addq	$56, %rsp
	.cfi_remember_state
	.cfi_def_cfa_offset 56
	popq	%rbx
	.cfi_def_cfa_offset 48
	popq	%rbp
	.cfi_def_cfa_offset 40
	popq	%r12
	.cfi_def_cfa_offset 32
	popq	%r13
	.cfi_def_cfa_offset 24
	popq	%r14
	.cfi_def_cfa_offset 16
	popq	%r15
	.cfi_def_cfa_offset 8
	jmp	pthread_mutex_unlock@PLT
	.p2align 4,,10
	.p2align 3
.L323:
	.cfi_restore_state
	cmpb	$0, 176(%rbx)
	jne	.L325
	movq	144(%rbx), %rax
	testq	%rax, %rax
	je	.L325
	leaq	88(%rax), %rdx
	movb	$1, 176(%rbx)
	movl	96(%rax), %edi
	leaq	36(%rsp), %rcx
	movq	%rdx, 40(%rsp)
	movl	88(%rax), %edx
	movl	$3, %esi
	movl	$-2147483639, 36(%rsp)
	call	epoll_ctl@PLT
.L325:
	movq	%rbp, %rdi
	jmp	.L371
	.p2align 4,,10
	.p2align 3
.L318:
	movq	%r12, 8(%rax)
	jmp	.L319
.L377:
	movq	%rsi, 32(%r14)
	.p2align 4
	.p2align 3
.L305:
	movq	24(%rbx), %rax
	cmpq	16(%r14), %rbx
	je	.L380
.L310:
	movq	32(%rbx), %rdx
	testq	%rdx, %rdx
	je	.L311
	movq	%rax, 24(%rdx)
	movq	24(%rbx), %rax
.L311:
	testq	%rax, %rax
	je	.L312
	movq	%rdx, 32(%rax)
.L312:
	pxor	%xmm0, %xmm0
	movq	%rbp, %r15
	movups	%xmm0, 24(%rbx)
	jmp	.L302
	.p2align 4,,10
	.p2align 3
.L321:
	movq	%r12, 192(%rbx)
	jmp	.L322
	.p2align 4,,10
	.p2align 3
.L379:
	movq	%r14, 8(%rsp)
	xorl	%r15d, %r15d
	movq	$-1, %r13
	jmp	.L301
.L381:
	leaq	-1(%rax), %rdi
	movq	%rdi, %rcx
	shrq	%rcx
	salq	$4, %rcx
	cmpq	(%rdx,%rcx), %r9
	jge	.L305
.L307:
	movq	%rax, %r10
	movq	%rdi, %rax
	shrq	%rax
	movq	%r10, %rsi
	movq	%rax, %rcx
	salq	$4, %rsi
	salq	$4, %rcx
	movdqu	(%rdx,%rcx), %xmm0
	movups	%xmm0, (%rdx,%rsi)
	movq	%r9, (%rdx,%rcx)
	movq	%r8, 8(%rdx,%rcx)
	movq	8(%rdx,%rsi), %rcx
	movq	%r10, 16(%rcx)
	movq	%rax, 16(%r8)
	testq	%rax, %rax
	jne	.L381
	jmp	.L305
	.p2align 4,,10
	.p2align 3
.L380:
	movq	%rax, 16(%r14)
	jmp	.L310
.L376:
	movq	%r15, %rbp
	jmp	.L294
	.cfi_endproc
.LFE7911:
	.size	_ZN4asio6detail13epoll_reactor12cancel_timerINS0_18chrono_time_traitsINSt6chrono3_V212steady_clockENS_11wait_traitsIS6_EEEEEEmRNS0_11timer_queueIT_EERNSC_14per_timer_dataEm.constprop.0.isra.0, .-_ZN4asio6detail13epoll_reactor12cancel_timerINS0_18chrono_time_traitsINSt6chrono3_V212steady_clockENS_11wait_traitsIS6_EEEEEEmRNS0_11timer_queueIT_EERNSC_14per_timer_dataEm.constprop.0.isra.0
	.section	.text._ZN7asiopal5TimerD0Ev,"axG",@progbits,_ZN7asiopal5TimerD5Ev,comdat
	.align 2
	.p2align 4
	.weak	_ZN7asiopal5TimerD0Ev
	.type	_ZN7asiopal5TimerD0Ev, @function
_ZN7asiopal5TimerD0Ev:
.LFB7790:
	.cfi_startproc
	.cfi_personality 0x9b,DW.ref.__gxx_personality_v0
	.cfi_lsda 0x1b,.LLSDA7790
	pushq	%r12
	.cfi_def_cfa_offset 16
	.cfi_offset 12, -16
	pushq	%rbp
	.cfi_def_cfa_offset 24
	.cfi_offset 6, -24
	pushq	%rbx
	.cfi_def_cfa_offset 32
	.cfi_offset 3, -32
	movq	%rdi, %rbx
	subq	$32, %rsp
	.cfi_def_cfa_offset 64
	movq	_ZTVN7asiopal5TimerE@GOTPCREL(%rip), %rax
	addq	$16, %rax
	movq	%rax, (%rdi)
	cmpb	$0, 24(%rdi)
	je	.L383
	movq	8(%rdi), %rax
	leaq	32(%rdi), %rdx
	movq	88(%rax), %rdi
	leaq	40(%rax), %rsi
	call	_ZN4asio6detail13epoll_reactor12cancel_timerINS0_18chrono_time_traitsINSt6chrono3_V212steady_clockENS_11wait_traitsIS6_EEEEEEmRNS0_11timer_queueIT_EERNSC_14per_timer_dataEm.constprop.0.isra.0
	movb	$0, 24(%rbx)
.L383:
	movq	32(%rbx), %rsi
	testq	%rsi, %rsi
	je	.L384
	movq	%rsi, 8(%rsp)
	leaq	16(%rsp), %rbp
	call	_ZNSt3_V215system_categoryEv@PLT
	movq	8(%rsp), %rsi
	movq	%rax, %r12
	jmp	.L387
	.p2align 4,,10
	.p2align 3
.L385:
	movq	$0, (%rsi)
	movq	8(%rsi), %rax
	xorl	%ecx, %ecx
	movq	%rbp, %rdx
	movl	$0, 16(%rsp)
	xorl	%edi, %edi
	movq	%r12, 24(%rsp)
	call	*%rax
	movq	32(%rbx), %rsi
	testq	%rsi, %rsi
	je	.L384
.L387:
	movq	(%rsi), %rax
	movq	%rax, 32(%rbx)
	testq	%rax, %rax
	jne	.L385
	movq	$0, 40(%rbx)
	jmp	.L385
	.p2align 4,,10
	.p2align 3
.L384:
	addq	$32, %rsp
	.cfi_def_cfa_offset 32
	movq	%rbx, %rdi
	movl	$72, %esi
	popq	%rbx
	.cfi_def_cfa_offset 24
	popq	%rbp
	.cfi_def_cfa_offset 16
	popq	%r12
	.cfi_def_cfa_offset 8
.LEHB4:
	jmp	_ZdlPvm@PLT
.LEHE4:
	.cfi_endproc
.LFE7790:
	.section	.gcc_except_table._ZN7asiopal5TimerD0Ev,"aG",@progbits,_ZN7asiopal5TimerD5Ev,comdat
.LLSDA7790:
	.byte	0xff
	.byte	0xff
	.byte	0x1
	.uleb128 .LLSDACSE7790-.LLSDACSB7790
.LLSDACSB7790:
	.uleb128 .LEHB4-.LFB7790
	.uleb128 .LEHE4-.LEHB4
	.uleb128 0
	.uleb128 0
.LLSDACSE7790:
	.section	.text._ZN7asiopal5TimerD0Ev,"axG",@progbits,_ZN7asiopal5TimerD5Ev,comdat
	.size	_ZN7asiopal5TimerD0Ev, .-_ZN7asiopal5TimerD0Ev
	.section	.text._ZN7asiopal5TimerD2Ev,"axG",@progbits,_ZN7asiopal5TimerD5Ev,comdat
	.align 2
	.p2align 4
	.weak	_ZN7asiopal5TimerD2Ev
	.type	_ZN7asiopal5TimerD2Ev, @function
_ZN7asiopal5TimerD2Ev:
.LFB7788:
	.cfi_startproc
	.cfi_personality 0x9b,DW.ref.__gxx_personality_v0
	.cfi_lsda 0x1b,.LLSDA7788
	pushq	%r12
	.cfi_def_cfa_offset 16
	.cfi_offset 12, -16
	pushq	%rbp
	.cfi_def_cfa_offset 24
	.cfi_offset 6, -24
	pushq	%rbx
	.cfi_def_cfa_offset 32
	.cfi_offset 3, -32
	movq	%rdi, %rbx
	subq	$32, %rsp
	.cfi_def_cfa_offset 64
	movq	_ZTVN7asiopal5TimerE@GOTPCREL(%rip), %rax
	addq	$16, %rax
	movq	%rax, (%rdi)
	cmpb	$0, 24(%rdi)
	je	.L396
	movq	8(%rdi), %rax
	leaq	32(%rdi), %rdx
	movq	88(%rax), %rdi
	leaq	40(%rax), %rsi
	call	_ZN4asio6detail13epoll_reactor12cancel_timerINS0_18chrono_time_traitsINSt6chrono3_V212steady_clockENS_11wait_traitsIS6_EEEEEEmRNS0_11timer_queueIT_EERNSC_14per_timer_dataEm.constprop.0.isra.0
	movb	$0, 24(%rbx)
.L396:
	movq	32(%rbx), %rsi
	testq	%rsi, %rsi
	je	.L395
	movq	%rsi, 8(%rsp)
	leaq	16(%rsp), %rbp
	call	_ZNSt3_V215system_categoryEv@PLT
	movq	8(%rsp), %rsi
	movq	%rax, %r12
	jmp	.L400
	.p2align 4,,10
	.p2align 3
.L398:
	movq	$0, (%rsi)
	movq	8(%rsi), %rax
	xorl	%ecx, %ecx
	movq	%rbp, %rdx
	movl	$0, 16(%rsp)
	xorl	%edi, %edi
	movq	%r12, 24(%rsp)
	call	*%rax
	movq	32(%rbx), %rsi
	testq	%rsi, %rsi
	je	.L395
.L400:
	movq	(%rsi), %rax
	movq	%rax, 32(%rbx)
	testq	%rax, %rax
	jne	.L398
	movq	$0, 40(%rbx)
	jmp	.L398
	.p2align 4,,10
	.p2align 3
.L395:
	addq	$32, %rsp
	.cfi_def_cfa_offset 32
	popq	%rbx
	.cfi_def_cfa_offset 24
	popq	%rbp
	.cfi_def_cfa_offset 16
	popq	%r12
	.cfi_def_cfa_offset 8
	ret
	.cfi_endproc
.LFE7788:
	.section	.gcc_except_table._ZN7asiopal5TimerD2Ev,"aG",@progbits,_ZN7asiopal5TimerD5Ev,comdat
.LLSDA7788:
	.byte	0xff
	.byte	0xff
	.byte	0x1
	.uleb128 .LLSDACSE7788-.LLSDACSB7788
.LLSDACSB7788:
.LLSDACSE7788:
	.section	.text._ZN7asiopal5TimerD2Ev,"axG",@progbits,_ZN7asiopal5TimerD5Ev,comdat
	.size	_ZN7asiopal5TimerD2Ev, .-_ZN7asiopal5TimerD2Ev
	.weak	_ZN7asiopal5TimerD1Ev
	.set	_ZN7asiopal5TimerD1Ev,_ZN7asiopal5TimerD2Ev
	.section	.text._ZN4asio6detail11timer_queueINS0_18chrono_time_traitsINSt6chrono3_V212steady_clockENS_11wait_traitsIS5_EEEEE16get_ready_timersERNS0_8op_queueINS0_25task_io_service_operationEEE,"axG",@progbits,_ZN4asio6detail11timer_queueINS0_18chrono_time_traitsINSt6chrono3_V212steady_clockENS_11wait_traitsIS5_EEEEE16get_ready_timersERNS0_8op_queueINS0_25task_io_service_operationEEE,comdat
	.align 2
	.p2align 4
	.weak	_ZN4asio6detail11timer_queueINS0_18chrono_time_traitsINSt6chrono3_V212steady_clockENS_11wait_traitsIS5_EEEEE16get_ready_timersERNS0_8op_queueINS0_25task_io_service_operationEEE
	.type	_ZN4asio6detail11timer_queueINS0_18chrono_time_traitsINSt6chrono3_V212steady_clockENS_11wait_traitsIS5_EEEEE16get_ready_timersERNS0_8op_queueINS0_25task_io_service_operationEEE, @function
_ZN4asio6detail11timer_queueINS0_18chrono_time_traitsINSt6chrono3_V212steady_clockENS_11wait_traitsIS5_EEEEE16get_ready_timersERNS0_8op_queueINS0_25task_io_service_operationEEE:
.LFB7846:
	.cfi_startproc
	movq	32(%rdi), %rax
	cmpq	%rax, 24(%rdi)
	je	.L441
	pushq	%r15
	.cfi_def_cfa_offset 16
	.cfi_offset 15, -16
	pushq	%r14
	.cfi_def_cfa_offset 24
	.cfi_offset 14, -24
	pushq	%r13
	.cfi_def_cfa_offset 32
	.cfi_offset 13, -32
	pushq	%r12
	.cfi_def_cfa_offset 40
	.cfi_offset 12, -40
	movq	%rsi, %r12
	pushq	%rbp
	.cfi_def_cfa_offset 48
	.cfi_offset 6, -48
	movq	%rdi, %rbp
	pushq	%rbx
	.cfi_def_cfa_offset 56
	.cfi_offset 3, -56
	subq	$8, %rsp
	.cfi_def_cfa_offset 64
	call	_ZNSt6chrono3_V212steady_clock3nowEv@PLT
	movq	32(%rbp), %r10
	movq	%rax, %r13
	movq	24(%rbp), %rax
	cmpq	%rax, %r10
	je	.L408
	pxor	%xmm1, %xmm1
	.p2align 4
	.p2align 3
.L410:
	cmpq	(%rax), %r13
	jl	.L408
	movq	8(%rax), %rcx
	movq	(%rcx), %rdx
	testq	%rdx, %rdx
	je	.L426
	movq	8(%r12), %rsi
	testq	%rsi, %rsi
	je	.L411
	movq	%rdx, (%rsi)
.L412:
	movq	8(%rcx), %rdx
	movq	%rdx, 8(%r12)
	movups	%xmm1, (%rcx)
.L426:
	movq	%r10, %rdi
	movq	16(%rcx), %rdx
	subq	%rax, %rdi
	movq	%rdi, %rsi
	sarq	$4, %rsi
	cmpq	%rsi, %rdx
	jnb	.L413
	subq	$1, %rsi
	subq	$16, %r10
	cmpq	%rsi, %rdx
	je	.L445
	movq	%rdx, %r8
	movdqu	-16(%rax,%rdi), %xmm0
	salq	$4, %r8
	addq	%rax, %r8
	movq	(%r8), %r9
	movq	8(%r8), %r11
	movups	%xmm0, (%r8)
	movq	%r9, -16(%rax,%rdi)
	movq	%r11, -8(%rax,%rdi)
	movq	8(%r8), %r9
	movq	%rdx, 16(%r9)
	movq	%rsi, 16(%r11)
	movq	%r10, 32(%rbp)
	testq	%rdx, %rdx
	je	.L416
	leaq	-1(%rdx), %rdi
	movq	(%r8), %r11
	movq	%rdi, %rsi
	shrq	%rsi
	salq	$4, %rsi
	cmpq	%r11, (%rax,%rsi)
	jg	.L417
.L416:
	movq	%r10, %r11
	leaq	1(%rdx,%rdx), %rsi
	subq	%rax, %r11
	sarq	$4, %r11
	cmpq	%r11, %rsi
	jnb	.L420
	movq	(%r8), %rbx
	jmp	.L419
	.p2align 4,,10
	.p2align 3
.L446:
	leaq	16(%rax,%r14), %r14
	movq	(%r14), %r15
	cmpq	%r9, %r15
	jg	.L427
	movq	%r15, %r9
	movq	%r14, %r8
	cmpq	%r9, %rbx
	jl	.L420
.L447:
	movq	%rdx, %rsi
	movdqu	(%r8), %xmm0
	salq	$4, %rsi
	addq	%rax, %rsi
	movq	8(%rsi), %r9
	movups	%xmm0, (%rsi)
	movq	%rbx, (%r8)
	movq	%r9, 8(%r8)
	movq	8(%rsi), %rsi
	movq	%rdx, 16(%rsi)
	leaq	1(%rdi,%rdi), %rsi
	movq	%rdi, 16(%r9)
	cmpq	%r11, %rsi
	jnb	.L420
	movq	%rdi, %rdx
.L419:
	movq	%rsi, %r14
	leaq	1(%rsi), %rdi
	salq	$4, %r14
	leaq	(%rax,%r14), %r8
	movq	(%r8), %r9
	cmpq	%r11, %rdi
	jne	.L446
.L427:
	movq	%rsi, %rdi
	cmpq	%r9, %rbx
	jge	.L447
	.p2align 4
	.p2align 3
.L420:
	movq	24(%rcx), %rdx
	cmpq	16(%rbp), %rcx
	je	.L448
.L421:
	movq	32(%rcx), %rsi
	testq	%rsi, %rsi
	je	.L422
	movq	%rdx, 24(%rsi)
	movq	24(%rcx), %rdx
.L422:
	testq	%rdx, %rdx
	je	.L423
	movq	%rsi, 32(%rdx)
	movups	%xmm1, 24(%rcx)
	cmpq	%r10, %rax
	jne	.L410
.L408:
	addq	$8, %rsp
	.cfi_remember_state
	.cfi_def_cfa_offset 56
	popq	%rbx
	.cfi_def_cfa_offset 48
	popq	%rbp
	.cfi_def_cfa_offset 40
	popq	%r12
	.cfi_def_cfa_offset 32
	popq	%r13
	.cfi_def_cfa_offset 24
	popq	%r14
	.cfi_def_cfa_offset 16
	popq	%r15
	.cfi_def_cfa_offset 8
	ret
	.p2align 4,,10
	.p2align 3
.L449:
	.cfi_restore_state
	leaq	-1(%rdx), %rdi
	movq	%rdi, %rsi
	shrq	%rsi
	salq	$4, %rsi
	cmpq	(%rax,%rsi), %r11
	jge	.L420
.L417:
	movq	%rdx, %r8
	movq	%rdi, %rdx
	shrq	%rdx
	movq	%r8, %rdi
	movq	%rdx, %rsi
	salq	$4, %rdi
	salq	$4, %rsi
	movdqu	(%rax,%rsi), %xmm0
	movups	%xmm0, (%rax,%rdi)
	movq	%r11, (%rax,%rsi)
	movq	%r9, 8(%rax,%rsi)
	movq	8(%rax,%rdi), %rsi
	movq	%r8, 16(%rsi)
	movq	%rdx, 16(%r9)
	testq	%rdx, %rdx
	jne	.L449
	movq	24(%rcx), %rdx
	cmpq	16(%rbp), %rcx
	jne	.L421
	.p2align 4
	.p2align 3
.L448:
	movq	%rdx, 16(%rbp)
	jmp	.L421
	.p2align 4,,10
	.p2align 3
.L413:
	movq	32(%rbp), %r10
	jmp	.L420
	.p2align 4,,10
	.p2align 3
.L423:
	movups	%xmm1, 24(%rcx)
	cmpq	%r10, %rax
	jne	.L410
	jmp	.L408
	.p2align 4,,10
	.p2align 3
.L411:
	movq	%rdx, (%r12)
	jmp	.L412
	.p2align 4,,10
	.p2align 3
.L445:
	movq	%r10, 32(%rbp)
	jmp	.L420
	.p2align 4,,10
	.p2align 3
.L441:
	.cfi_def_cfa_offset 8
	.cfi_restore 3
	.cfi_restore 6
	.cfi_restore 12
	.cfi_restore 13
	.cfi_restore 14
	.cfi_restore 15
	ret
	.cfi_endproc
.LFE7846:
	.size	_ZN4asio6detail11timer_queueINS0_18chrono_time_traitsINSt6chrono3_V212steady_clockENS_11wait_traitsIS5_EEEEE16get_ready_timersERNS0_8op_queueINS0_25task_io_service_operationEEE, .-_ZN4asio6detail11timer_queueINS0_18chrono_time_traitsINSt6chrono3_V212steady_clockENS_11wait_traitsIS5_EEEEE16get_ready_timersERNS0_8op_queueINS0_25task_io_service_operationEEE
	.section	.rodata._ZNK4asio6detail15system_category7messageB5cxx11Ei.str1.8,"aMS",@progbits,1
	.align 8
.LC4:
	.string	"basic_string: construction from null is not valid"
	.section	.text._ZNK4asio6detail15system_category7messageB5cxx11Ei,"axG",@progbits,_ZNK4asio6detail15system_category7messageB5cxx11Ei,comdat
	.align 2
	.p2align 4
	.weak	_ZNK4asio6detail15system_category7messageB5cxx11Ei
	.type	_ZNK4asio6detail15system_category7messageB5cxx11Ei, @function
_ZNK4asio6detail15system_category7messageB5cxx11Ei:
.LFB2170:
	.cfi_startproc
	pushq	%r12
	.cfi_def_cfa_offset 16
	.cfi_offset 12, -16
	pushq	%rbp
	.cfi_def_cfa_offset 24
	.cfi_offset 6, -24
	pushq	%rbx
	.cfi_def_cfa_offset 32
	.cfi_offset 3, -32
	movq	%rdi, %rbx
	subq	$288, %rsp
	.cfi_def_cfa_offset 320
	cmpl	$125, %edx
	je	.L462
	pxor	%xmm0, %xmm0
	leaq	32(%rsp), %rsi
	leaq	16(%rbx), %rbp
	movl	%edx, %edi
	movl	$256, %edx
	movaps	%xmm0, 32(%rsp)
	movaps	%xmm0, 48(%rsp)
	movaps	%xmm0, 64(%rsp)
	movaps	%xmm0, 80(%rsp)
	movaps	%xmm0, 96(%rsp)
	movaps	%xmm0, 112(%rsp)
	movaps	%xmm0, 128(%rsp)
	movaps	%xmm0, 144(%rsp)
	movaps	%xmm0, 160(%rsp)
	movaps	%xmm0, 176(%rsp)
	movaps	%xmm0, 192(%rsp)
	movaps	%xmm0, 208(%rsp)
	movaps	%xmm0, 224(%rsp)
	movaps	%xmm0, 240(%rsp)
	movaps	%xmm0, 256(%rsp)
	movaps	%xmm0, 272(%rsp)
	call	strerror_r@PLT
	movq	%rbp, (%rbx)
	movq	%rax, %r12
	testq	%rax, %rax
	je	.L463
	movq	%rax, %rdi
	call	strlen@PLT
	movq	%rax, 24(%rsp)
	movq	%rax, %rcx
	cmpq	$15, %rax
	ja	.L464
	cmpq	$1, %rax
	jne	.L456
	movzbl	(%r12), %edx
	movb	%dl, 16(%rbx)
.L457:
	movq	%rax, 8(%rbx)
	movb	$0, 0(%rbp,%rax)
	addq	$288, %rsp
	.cfi_remember_state
	.cfi_def_cfa_offset 32
	movq	%rbx, %rax
	popq	%rbx
	.cfi_def_cfa_offset 24
	popq	%rbp
	.cfi_def_cfa_offset 16
	popq	%r12
	.cfi_def_cfa_offset 8
	ret
	.p2align 4,,10
	.p2align 3
.L464:
	.cfi_restore_state
	leaq	24(%rsp), %rsi
	xorl	%edx, %edx
	movq	%rbx, %rdi
	movq	%rax, 8(%rsp)
	call	_ZNSt7__cxx1112basic_stringIcSt11char_traitsIcESaIcEE9_M_createERmm@PLT
	movq	8(%rsp), %rcx
	movq	%rax, (%rbx)
	movq	%rax, %rbp
	movq	24(%rsp), %rax
	movq	%rax, 16(%rbx)
.L455:
	movq	%rbp, %rdi
	movq	%rcx, %rdx
	movq	%r12, %rsi
	call	memcpy@PLT
	movq	24(%rsp), %rax
	movq	(%rbx), %rbp
	jmp	.L457
	.p2align 4,,10
	.p2align 3
.L462:
	leaq	16(%rdi), %rax
	leaq	32(%rsp), %rsi
	xorl	%edx, %edx
	movq	$18, 32(%rsp)
	movq	%rax, (%rdi)
	call	_ZNSt7__cxx1112basic_stringIcSt11char_traitsIcESaIcEE9_M_createERmm@PLT
	movq	32(%rsp), %rdx
	movdqa	.LC5(%rip), %xmm0
	movq	%rax, (%rbx)
	movq	%rdx, 16(%rbx)
	movl	$11876, %edx
	movw	%dx, 16(%rax)
	movups	%xmm0, (%rax)
	movq	32(%rsp), %rax
	movq	(%rbx), %rdx
	movq	%rax, 8(%rbx)
	movb	$0, (%rdx,%rax)
	addq	$288, %rsp
	.cfi_remember_state
	.cfi_def_cfa_offset 32
	movq	%rbx, %rax
	popq	%rbx
	.cfi_def_cfa_offset 24
	popq	%rbp
	.cfi_def_cfa_offset 16
	popq	%r12
	.cfi_def_cfa_offset 8
	ret
	.p2align 4,,10
	.p2align 3
.L456:
	.cfi_restore_state
	testq	%rax, %rax
	je	.L457
	jmp	.L455
.L463:
	leaq	.LC4(%rip), %rdi
	call	_ZSt19__throw_logic_errorPKc@PLT
	.cfi_endproc
.LFE2170:
	.size	_ZNK4asio6detail15system_category7messageB5cxx11Ei, .-_ZNK4asio6detail15system_category7messageB5cxx11Ei
	.section	.text._ZNK4asio5error6detail17addrinfo_category7messageB5cxx11Ei,"axG",@progbits,_ZNK4asio5error6detail17addrinfo_category7messageB5cxx11Ei,comdat
	.align 2
	.p2align 4
	.weak	_ZNK4asio5error6detail17addrinfo_category7messageB5cxx11Ei
	.type	_ZNK4asio5error6detail17addrinfo_category7messageB5cxx11Ei, @function
_ZNK4asio5error6detail17addrinfo_category7messageB5cxx11Ei:
.LFB2224:
	.cfi_startproc
	pushq	%rbx
	.cfi_def_cfa_offset 16
	.cfi_offset 3, -16
	leaq	16(%rdi), %rax
	movq	%rdi, %rbx
	subq	$16, %rsp
	.cfi_def_cfa_offset 32
	movq	%rax, (%rdi)
	cmpl	$-8, %edx
	je	.L470
	cmpl	$-7, %edx
	je	.L471
	movq	$19, 8(%rsp)
	leaq	8(%rsp), %rsi
	xorl	%edx, %edx
	call	_ZNSt7__cxx1112basic_stringIcSt11char_traitsIcESaIcEE9_M_createERmm@PLT
	movq	8(%rsp), %rdx
	movdqa	.LC10(%rip), %xmm0
	movq	%rax, (%rbx)
	movq	%rdx, 16(%rbx)
	movups	%xmm0, (%rax)
	movl	$1919906418, 15(%rax)
	movq	8(%rsp), %rax
	movq	(%rbx), %rdx
	movq	%rax, 8(%rbx)
	movb	$0, (%rdx,%rax)
	addq	$16, %rsp
	.cfi_remember_state
	.cfi_def_cfa_offset 16
	movq	%rbx, %rax
	popq	%rbx
	.cfi_def_cfa_offset 8
	ret
	.p2align 4,,10
	.p2align 3
.L471:
	.cfi_restore_state
	movq	$25, 8(%rsp)
	leaq	8(%rsp), %rsi
	xorl	%edx, %edx
	call	_ZNSt7__cxx1112basic_stringIcSt11char_traitsIcESaIcEE9_M_createERmm@PLT
	movq	8(%rsp), %rdx
	movdqa	.LC8(%rip), %xmm0
	movq	%rax, (%rbx)
	movq	%rdx, 16(%rbx)
	movups	%xmm0, (%rax)
	movdqa	.LC9(%rip), %xmm0
	movups	%xmm0, 9(%rax)
	movq	8(%rsp), %rax
	movq	(%rbx), %rdx
	movq	%rax, 8(%rbx)
	movb	$0, (%rdx,%rax)
	addq	$16, %rsp
	.cfi_remember_state
	.cfi_def_cfa_offset 16
	movq	%rbx, %rax
	popq	%rbx
	.cfi_def_cfa_offset 8
	ret
	.p2align 4,,10
	.p2align 3
.L470:
	.cfi_restore_state
	movq	$17, 8(%rsp)
	leaq	8(%rsp), %rsi
	xorl	%edx, %edx
	call	_ZNSt7__cxx1112basic_stringIcSt11char_traitsIcESaIcEE9_M_createERmm@PLT
	movq	8(%rsp), %rdx
	movdqa	.LC7(%rip), %xmm0
	movq	%rax, (%rbx)
	movq	%rdx, 16(%rbx)
	movb	$100, 16(%rax)
	movups	%xmm0, (%rax)
	movq	8(%rsp), %rax
	movq	(%rbx), %rdx
	movq	%rax, 8(%rbx)
	movb	$0, (%rdx,%rax)
	addq	$16, %rsp
	.cfi_def_cfa_offset 16
	movq	%rbx, %rax
	popq	%rbx
	.cfi_def_cfa_offset 8
	ret
	.cfi_endproc
.LFE2224:
	.size	_ZNK4asio5error6detail17addrinfo_category7messageB5cxx11Ei, .-_ZNK4asio5error6detail17addrinfo_category7messageB5cxx11Ei
	.section	.text._ZNK4asio5error6detail13misc_category7messageB5cxx11Ei,"axG",@progbits,_ZNK4asio5error6detail13misc_category7messageB5cxx11Ei,comdat
	.align 2
	.p2align 4
	.weak	_ZNK4asio5error6detail13misc_category7messageB5cxx11Ei
	.type	_ZNK4asio5error6detail13misc_category7messageB5cxx11Ei, @function
_ZNK4asio5error6detail13misc_category7messageB5cxx11Ei:
.LFB2234:
	.cfi_startproc
	cmpl	$1, %edx
	je	.L481
	cmpl	$2, %edx
	je	.L482
	leaq	16(%rdi), %rax
	subq	$40, %rsp
	.cfi_def_cfa_offset 48
	movq	%rax, (%rdi)
	cmpl	$3, %edx
	je	.L483
	cmpl	$4, %edx
	je	.L484
	movabsq	$8316298233121436513, %rcx
	movq	$15, 8(%rdi)
	movq	%rdi, %rax
	movq	%rcx, 16(%rdi)
	movabsq	$8245935278387127155, %rcx
	movq	%rcx, 23(%rdi)
	movb	$0, 31(%rdi)
	addq	$40, %rsp
	.cfi_def_cfa_offset 8
	ret
	.p2align 4,,10
	.p2align 3
.L481:
	leaq	16(%rdi), %rax
	movl	$1852141679, 24(%rdi)
	movabsq	$2340011850872286273, %rsi
	movq	%rax, (%rdi)
	movq	%rdi, %rax
	movq	%rsi, 16(%rdi)
	movq	$12, 8(%rdi)
	movb	$0, 28(%rdi)
	ret
	.p2align 4,,10
	.p2align 3
.L484:
	.cfi_def_cfa_offset 48
	leaq	24(%rsp), %rsi
	xorl	%edx, %edx
	movq	%rdi, 8(%rsp)
	movq	$57, 24(%rsp)
	call	_ZNSt7__cxx1112basic_stringIcSt11char_traitsIcESaIcEE9_M_createERmm@PLT
	movq	24(%rsp), %rdx
	movq	8(%rsp), %rdi
	movdqa	.LC12(%rip), %xmm0
	movq	%rax, (%rdi)
	movq	%rdx, 16(%rdi)
	movups	%xmm0, (%rax)
	movdqa	.LC13(%rip), %xmm0
	movups	%xmm0, 16(%rax)
	movdqa	.LC14(%rip), %xmm0
	movups	%xmm0, 32(%rax)
	movdqa	.LC15(%rip), %xmm0
	movups	%xmm0, 41(%rax)
	movq	24(%rsp), %rax
	movq	(%rdi), %rdx
	movq	%rax, 8(%rdi)
	movb	$0, (%rdx,%rax)
	movq	%rdi, %rax
	addq	$40, %rsp
	.cfi_def_cfa_offset 8
	ret
	.p2align 4,,10
	.p2align 3
.L482:
	leaq	16(%rdi), %rax
	movq	$11, 8(%rdi)
	movabsq	$7358994418594246213, %rsi
	movq	%rax, (%rdi)
	movq	%rdi, %rax
	movq	%rsi, 16(%rdi)
	movb	$0, 27(%rdi)
	movl	$1701603686, 23(%rdi)
	ret
	.p2align 4,,10
	.p2align 3
.L483:
	.cfi_def_cfa_offset 48
	leaq	24(%rsp), %rsi
	xorl	%edx, %edx
	movq	%rdi, 8(%rsp)
	movq	$17, 24(%rsp)
	call	_ZNSt7__cxx1112basic_stringIcSt11char_traitsIcESaIcEE9_M_createERmm@PLT
	movq	8(%rsp), %rdi
	movq	24(%rsp), %rdx
	movdqa	.LC11(%rip), %xmm0
	movq	%rax, (%rdi)
	movq	%rdx, 16(%rdi)
	movb	$100, 16(%rax)
	movups	%xmm0, (%rax)
	movq	24(%rsp), %rax
	movq	(%rdi), %rdx
	movq	%rax, 8(%rdi)
	movb	$0, (%rdx,%rax)
	movq	%rdi, %rax
	addq	$40, %rsp
	.cfi_def_cfa_offset 8
	ret
	.cfi_endproc
.LFE2234:
	.size	_ZNK4asio5error6detail13misc_category7messageB5cxx11Ei, .-_ZNK4asio5error6detail13misc_category7messageB5cxx11Ei
	.section	.text._ZNK4asio5error6detail14netdb_category7messageB5cxx11Ei,"axG",@progbits,_ZNK4asio5error6detail14netdb_category7messageB5cxx11Ei,comdat
	.align 2
	.p2align 4
	.weak	_ZNK4asio5error6detail14netdb_category7messageB5cxx11Ei
	.type	_ZNK4asio5error6detail14netdb_category7messageB5cxx11Ei, @function
_ZNK4asio5error6detail14netdb_category7messageB5cxx11Ei:
.LFB2214:
	.cfi_startproc
	pushq	%rbx
	.cfi_def_cfa_offset 16
	.cfi_offset 3, -16
	leaq	16(%rdi), %rax
	movq	%rdi, %rbx
	subq	$16, %rsp
	.cfi_def_cfa_offset 32
	movq	%rax, (%rdi)
	cmpl	$1, %edx
	je	.L492
	cmpl	$2, %edx
	je	.L493
	cmpl	$4, %edx
	je	.L494
	cmpl	$3, %edx
	je	.L495
	movq	$16, 8(%rsp)
	leaq	8(%rsp), %rsi
	xorl	%edx, %edx
	call	_ZNSt7__cxx1112basic_stringIcSt11char_traitsIcESaIcEE9_M_createERmm@PLT
	movq	8(%rsp), %rdx
	movdqa	.LC26(%rip), %xmm0
	movq	%rax, (%rbx)
	movq	%rdx, 16(%rbx)
	movups	%xmm0, (%rax)
	movq	8(%rsp), %rax
	movq	(%rbx), %rdx
	movq	%rax, 8(%rbx)
	movb	$0, (%rdx,%rax)
	addq	$16, %rsp
	.cfi_remember_state
	.cfi_def_cfa_offset 16
	movq	%rbx, %rax
	popq	%rbx
	.cfi_def_cfa_offset 8
	ret
	.p2align 4,,10
	.p2align 3
.L492:
	.cfi_restore_state
	movq	$30, 8(%rsp)
	leaq	8(%rsp), %rsi
	xorl	%edx, %edx
	call	_ZNSt7__cxx1112basic_stringIcSt11char_traitsIcESaIcEE9_M_createERmm@PLT
	movq	8(%rsp), %rdx
	movdqa	.LC16(%rip), %xmm0
	movq	%rax, (%rbx)
	movq	%rdx, 16(%rbx)
	movups	%xmm0, (%rax)
	movdqa	.LC17(%rip), %xmm0
	movups	%xmm0, 14(%rax)
	movq	8(%rsp), %rax
	movq	(%rbx), %rdx
	movq	%rax, 8(%rbx)
	movb	$0, (%rdx,%rax)
	addq	$16, %rsp
	.cfi_remember_state
	.cfi_def_cfa_offset 16
	movq	%rbx, %rax
	popq	%rbx
	.cfi_def_cfa_offset 8
	ret
	.p2align 4,,10
	.p2align 3
.L495:
	.cfi_restore_state
	movq	$55, 8(%rsp)
	leaq	8(%rsp), %rsi
	xorl	%edx, %edx
	call	_ZNSt7__cxx1112basic_stringIcSt11char_traitsIcESaIcEE9_M_createERmm@PLT
	movq	8(%rsp), %rdx
	movdqa	.LC23(%rip), %xmm0
	movabsq	$8103501230877974629, %rcx
	movq	%rax, (%rbx)
	movq	%rdx, 16(%rbx)
	movups	%xmm0, (%rax)
	movdqa	.LC24(%rip), %xmm0
	movups	%xmm0, 16(%rax)
	movdqa	.LC25(%rip), %xmm0
	movups	%xmm0, 32(%rax)
	movq	%rcx, 47(%rax)
	movq	8(%rsp), %rax
	movq	(%rbx), %rdx
	movq	%rax, 8(%rbx)
	movb	$0, (%rdx,%rax)
	addq	$16, %rsp
	.cfi_remember_state
	.cfi_def_cfa_offset 16
	movq	%rbx, %rax
	popq	%rbx
	.cfi_def_cfa_offset 8
	ret
	.p2align 4,,10
	.p2align 3
.L493:
	.cfi_restore_state
	movq	$51, 8(%rsp)
	leaq	8(%rsp), %rsi
	xorl	%edx, %edx
	call	_ZNSt7__cxx1112basic_stringIcSt11char_traitsIcESaIcEE9_M_createERmm@PLT
	movq	8(%rsp), %rdx
	movdqa	.LC16(%rip), %xmm0
	movq	%rax, (%rbx)
	movq	%rdx, 16(%rbx)
	movups	%xmm0, (%rax)
	movdqa	.LC18(%rip), %xmm0
	movups	%xmm0, 16(%rax)
	movdqa	.LC19(%rip), %xmm0
	movups	%xmm0, 32(%rax)
	movl	$1919251553, 47(%rax)
	movq	8(%rsp), %rax
	movq	(%rbx), %rdx
	movq	%rax, 8(%rbx)
	movb	$0, (%rdx,%rax)
	addq	$16, %rsp
	.cfi_remember_state
	.cfi_def_cfa_offset 16
	movq	%rbx, %rax
	popq	%rbx
	.cfi_def_cfa_offset 8
	ret
	.p2align 4,,10
	.p2align 3
.L494:
	.cfi_restore_state
	movq	$56, 8(%rsp)
	leaq	8(%rsp), %rsi
	xorl	%edx, %edx
	call	_ZNSt7__cxx1112basic_stringIcSt11char_traitsIcESaIcEE9_M_createERmm@PLT
	movq	8(%rsp), %rdx
	movdqa	.LC20(%rip), %xmm0
	movabsq	$7022344801645520244, %rcx
	movq	%rax, (%rbx)
	movq	%rdx, 16(%rbx)
	movups	%xmm0, (%rax)
	movdqa	.LC21(%rip), %xmm0
	movq	%rcx, 48(%rax)
	movups	%xmm0, 16(%rax)
	movdqa	.LC22(%rip), %xmm0
	movups	%xmm0, 32(%rax)
	movq	8(%rsp), %rax
	movq	(%rbx), %rdx
	movq	%rax, 8(%rbx)
	movb	$0, (%rdx,%rax)
	addq	$16, %rsp
	.cfi_def_cfa_offset 16
	movq	%rbx, %rax
	popq	%rbx
	.cfi_def_cfa_offset 8
	ret
	.cfi_endproc
.LFE2214:
	.size	_ZNK4asio5error6detail14netdb_category7messageB5cxx11Ei, .-_ZNK4asio5error6detail14netdb_category7messageB5cxx11Ei
	.section	.rodata._ZN4asio6detail14do_throw_errorERKSt10error_codePKc.str1.1,"aMS",@progbits,1
.LC27:
	.string	": "
	.section	.text._ZN4asio6detail14do_throw_errorERKSt10error_codePKc,"axG",@progbits,_ZN4asio6detail14do_throw_errorERKSt10error_codePKc,comdat
	.p2align 4
	.weak	_ZN4asio6detail14do_throw_errorERKSt10error_codePKc
	.type	_ZN4asio6detail14do_throw_errorERKSt10error_codePKc, @function
_ZN4asio6detail14do_throw_errorERKSt10error_codePKc:
.LFB2207:
	.cfi_startproc
	.cfi_personality 0x9b,DW.ref.__gxx_personality_v0
	.cfi_lsda 0x1b,.LLSDA2207
	pushq	%r15
	.cfi_def_cfa_offset 16
	.cfi_offset 15, -16
	pushq	%r14
	.cfi_def_cfa_offset 24
	.cfi_offset 14, -24
	pushq	%r13
	.cfi_def_cfa_offset 32
	.cfi_offset 13, -32
	movq	%rsi, %r13
	pushq	%r12
	.cfi_def_cfa_offset 40
	.cfi_offset 12, -40
	pushq	%rbp
	.cfi_def_cfa_offset 48
	.cfi_offset 6, -48
	pushq	%rbx
	.cfi_def_cfa_offset 56
	.cfi_offset 3, -56
	subq	$152, %rsp
	.cfi_def_cfa_offset 208
	movq	8(%rdi), %r12
	movl	(%rdi), %r15d
	leaq	48(%rsp), %rbp
	movq	(%r12), %rax
	movl	%r15d, %edx
	movq	%r12, %rsi
	movq	%rbp, %rdi
.LEHB5:
	call	*32(%rax)
.LEHE5:
	movl	$2, %r8d
	xorl	%edx, %edx
	xorl	%esi, %esi
	leaq	.LC27(%rip), %rcx
	movq	%rbp, %rdi
.LEHB6:
	call	_ZNSt7__cxx1112basic_stringIcSt11char_traitsIcESaIcEE10_M_replaceEmmPKcm@PLT
.LEHE6:
	leaq	96(%rsp), %rbx
	leaq	16(%rax), %rdx
	movq	%rbx, 80(%rsp)
	movq	(%rax), %rcx
	cmpq	%rdx, %rcx
	je	.L513
	movq	%rcx, 80(%rsp)
	movq	16(%rax), %rcx
	movq	%rcx, 96(%rsp)
.L498:
	movq	8(%rax), %rcx
	movq	%rdx, (%rax)
	movq	%r13, %rdi
	movq	$0, 8(%rax)
	movb	$0, 16(%rax)
	movq	%rcx, 88(%rsp)
	call	strlen@PLT
	movq	%r13, %rcx
	xorl	%edx, %edx
	xorl	%esi, %esi
	movq	%rax, %r8
	leaq	80(%rsp), %rax
	movq	%rax, %rdi
	movq	%rax, 8(%rsp)
.LEHB7:
	call	_ZNSt7__cxx1112basic_stringIcSt11char_traitsIcESaIcEE10_M_replaceEmmPKcm@PLT
.LEHE7:
	leaq	128(%rsp), %r14
	leaq	16(%rax), %r8
	movq	%r14, 112(%rsp)
	movq	(%rax), %rcx
	cmpq	%r8, %rcx
	je	.L514
	movq	%rcx, 112(%rsp)
	movq	16(%rax), %rcx
	movq	%rcx, 128(%rsp)
.L500:
	movq	8(%rax), %rcx
	movq	%r8, (%rax)
	leaq	16(%rsp), %r13
	movq	$0, 8(%rax)
	movq	%r13, %rdi
	movb	$0, 16(%rax)
	leaq	112(%rsp), %rax
	movq	%rax, %rsi
	movq	%rcx, 120(%rsp)
	movq	%rax, (%rsp)
.LEHB8:
	call	_ZNSt13runtime_errorC2ERKNSt7__cxx1112basic_stringIcSt11char_traitsIcESaIcEEE@PLT
.LEHE8:
	movq	112(%rsp), %rdi
	cmpq	%r14, %rdi
	je	.L501
	movq	128(%rsp), %rax
	leaq	1(%rax), %rsi
	call	_ZdlPvm@PLT
.L501:
	movq	80(%rsp), %rdi
	cmpq	%rbx, %rdi
	je	.L502
	movq	96(%rsp), %rax
	leaq	1(%rax), %rsi
	call	_ZdlPvm@PLT
.L502:
	movq	48(%rsp), %rdi
	leaq	64(%rsp), %rax
	cmpq	%rax, %rdi
	je	.L503
	movq	64(%rsp), %rax
	leaq	1(%rax), %rsi
	call	_ZdlPvm@PLT
.L503:
	movq	_ZTVSt12system_error@GOTPCREL(%rip), %rax
	movl	$32, %edi
	movl	%r15d, 32(%rsp)
	movq	%r12, 40(%rsp)
	leaq	16(%rax), %rbp
	movq	%rbp, 16(%rsp)
	call	__cxa_allocate_exception@PLT
	movq	%r13, %rsi
	movq	%rax, %rbx
	movq	%rax, %rdi
	call	_ZNSt13runtime_errorC2ERKS_@PLT
	movdqa	32(%rsp), %xmm0
	movq	%rbp, (%rbx)
	movq	%rbx, %rdi
	movq	_ZNSt12system_errorD1Ev@GOTPCREL(%rip), %rdx
	movq	_ZTISt12system_error@GOTPCREL(%rip), %rsi
	movups	%xmm0, 16(%rbx)
.LEHB9:
	call	__cxa_throw@PLT
.LEHE9:
.L514:
	movq	8(%rax), %rcx
	movq	%r14, %rdi
	movq	%r8, %rsi
	addl	$1, %ecx
	rep movsb
	jmp	.L500
.L513:
	movq	8(%rax), %rcx
	movq	%rbx, %rdi
	movq	%rdx, %rsi
	addl	$1, %ecx
	rep movsb
	jmp	.L498
.L508:
	movq	%rax, %rbx
	jmp	.L507
.L509:
	movq	%rax, %rbx
	jmp	.L506
.L507:
	movq	%r13, %rdi
	call	_ZNSt12system_errorD1Ev@PLT
	movq	%rbx, %rdi
.LEHB10:
	call	_Unwind_Resume@PLT
.L504:
	movq	(%rsp), %rdi
	call	_ZNSt7__cxx1112basic_stringIcSt11char_traitsIcESaIcEE10_M_disposeEv@PLT
.L505:
	movq	8(%rsp), %rdi
	call	_ZNSt7__cxx1112basic_stringIcSt11char_traitsIcESaIcEE10_M_disposeEv@PLT
.L506:
	movq	%rbp, %rdi
	call	_ZNSt7__cxx1112basic_stringIcSt11char_traitsIcESaIcEE10_M_disposeEv@PLT
	movq	%rbx, %rdi
	call	_Unwind_Resume@PLT
.LEHE10:
.L510:
	movq	%rax, %rbx
	jmp	.L505
.L511:
	movq	%rax, %rbx
	jmp	.L504
	.cfi_endproc
.LFE2207:
	.section	.gcc_except_table._ZN4asio6detail14do_throw_errorERKSt10error_codePKc,"aG",@progbits,_ZN4asio6detail14do_throw_errorERKSt10error_codePKc,comdat
.LLSDA2207:
	.byte	0xff
	.byte	0xff
	.byte	0x1
	.uleb128 .LLSDACSE2207-.LLSDACSB2207
.LLSDACSB2207:
	.uleb128 .LEHB5-.LFB2207
	.uleb128 .LEHE5-.LEHB5
	.uleb128 0
	.uleb128 0
	.uleb128 .LEHB6-.LFB2207
	.uleb128 .LEHE6-.LEHB6
	.uleb128 .L509-.LFB2207
	.uleb128 0
	.uleb128 .LEHB7-.LFB2207
	.uleb128 .LEHE7-.LEHB7
	.uleb128 .L510-.LFB2207
	.uleb128 0
	.uleb128 .LEHB8-.LFB2207
	.uleb128 .LEHE8-.LEHB8
	.uleb128 .L511-.LFB2207
	.uleb128 0
	.uleb128 .LEHB9-.LFB2207
	.uleb128 .LEHE9-.LEHB9
	.uleb128 .L508-.LFB2207
	.uleb128 0
	.uleb128 .LEHB10-.LFB2207
	.uleb128 .LEHE10-.LEHB10
	.uleb128 0
	.uleb128 0
.LLSDACSE2207:
	.section	.text._ZN4asio6detail14do_throw_errorERKSt10error_codePKc,"axG",@progbits,_ZN4asio6detail14do_throw_errorERKSt10error_codePKc,comdat
	.size	_ZN4asio6detail14do_throw_errorERKSt10error_codePKc, .-_ZN4asio6detail14do_throw_errorERKSt10error_codePKc
	.section	.rodata._ZN4asio6detail13epoll_reactor12fork_serviceENS_10io_service10fork_eventE.str1.1,"aMS",@progbits,1
.LC28:
	.string	"epoll"
.LC30:
	.string	"eventfd_select_interrupter"
.LC31:
	.string	"epoll re-registration"
	.section	.text._ZN4asio6detail13epoll_reactor12fork_serviceENS_10io_service10fork_eventE,"axG",@progbits,_ZN4asio6detail13epoll_reactor12fork_serviceENS_10io_service10fork_eventE,comdat
	.align 2
	.p2align 4
	.weak	_ZN4asio6detail13epoll_reactor12fork_serviceENS_10io_service10fork_eventE
	.type	_ZN4asio6detail13epoll_reactor12fork_serviceENS_10io_service10fork_eventE, @function
_ZN4asio6detail13epoll_reactor12fork_serviceENS_10io_service10fork_eventE:
.LFB3119:
	.cfi_startproc
	.cfi_personality 0x9b,DW.ref.__gxx_personality_v0
	.cfi_lsda 0x1b,.LLSDA3119
	cmpl	$2, %esi
	je	.L632
	ret
	.p2align 4,,10
	.p2align 3
.L632:
	pushq	%r15
	.cfi_def_cfa_offset 16
	.cfi_offset 15, -16
	pushq	%r14
	.cfi_def_cfa_offset 24
	.cfi_offset 14, -24
	pushq	%r13
	.cfi_def_cfa_offset 32
	.cfi_offset 13, -32
	pushq	%r12
	.cfi_def_cfa_offset 40
	.cfi_offset 12, -40
	pushq	%rbp
	.cfi_def_cfa_offset 48
	.cfi_offset 6, -48
	pushq	%rbx
	.cfi_def_cfa_offset 56
	.cfi_offset 3, -56
	movq	%rdi, %rbx
	subq	$104, %rsp
	.cfi_def_cfa_offset 160
	movl	96(%rdi), %edi
	cmpl	$-1, %edi
	jne	.L633
.L517:
	movl	$-1, 96(%rbx)
	movl	$524288, %edi
	call	epoll_create1@PLT
	movl	%eax, %ebp
	cmpl	$-1, %eax
	je	.L634
.L518:
	movl	100(%rbx), %edi
	movl	%ebp, 96(%rbx)
	cmpl	$-1, %edi
	jne	.L635
.L524:
	movl	$-1, 100(%rbx)
	movl	$524288, %esi
	movl	$1, %edi
	call	timerfd_create@PLT
	movl	%eax, %ebp
	cmpl	$-1, %eax
	je	.L636
.L525:
	movl	92(%rbx), %eax
	movl	%ebp, 100(%rbx)
	cmpl	$-1, %eax
	je	.L527
	movl	88(%rbx), %edi
	cmpl	%edi, %eax
	jne	.L637
.L528:
.LEHB11:
	call	close@PLT
.L529:
	movq	$-1, 88(%rbx)
	movl	$526336, %esi
	xorl	%edi, %edi
	call	eventfd@PLT
	movd	%eax, %xmm1
	movl	%eax, %edx
	pshufd	$0xe0, %xmm1, %xmm0
	movq	%xmm0, 88(%rbx)
	cmpl	$-1, %eax
	je	.L638
.L530:
	movl	96(%rbx), %edi
	leaq	20(%rsp), %rbp
	leaq	88(%rbx), %r12
	movl	$1, %esi
	movq	%rbp, %rcx
	movl	$-2147483639, 20(%rsp)
	movq	%r12, 24(%rsp)
	call	epoll_ctl@PLT
	leaq	64(%rsp), %rax
	movl	92(%rbx), %edi
	movl	$8, %edx
	movq	%rax, %rsi
	movq	%rax, 8(%rsp)
	movq	$1, 64(%rsp)
	call	write@PLT
.LEHE11:
	movl	100(%rbx), %edx
	cmpl	$-1, %edx
	jne	.L639
.L538:
	movl	88(%rbx), %edx
	movl	96(%rbx), %edi
	movl	$3, %esi
	movq	%r12, 68(%rsp)
	movq	8(%rsp), %rcx
	movl	$-2147483639, 64(%rsp)
	call	epoll_ctl@PLT
.L552:
	leaq	120(%rbx), %r14
	movq	%r14, %rdi
	call	pthread_mutex_lock@PLT
	movq	160(%rbx), %r13
	testq	%r13, %r13
	jne	.L553
	jmp	.L559
	.p2align 4,,10
	.p2align 3
.L554:
	movq	24(%r13), %r13
	testq	%r13, %r13
	je	.L559
.L553:
	movl	92(%r13), %eax
	movl	88(%r13), %edx
	movq	%rbp, %rcx
	movl	$1, %esi
	movl	96(%rbx), %edi
	movq	%r13, 24(%rsp)
	movl	%eax, 20(%rsp)
	call	epoll_ctl@PLT
	testl	%eax, %eax
	je	.L554
	movq	_ZGVZN4asio15system_categoryEvE8instance@GOTPCREL(%rip), %r15
	movzbl	(%r15), %eax
	testb	%al, %al
	je	.L555
	movq	_ZZN4asio15system_categoryEvE8instance@GOTPCREL(%rip), %r12
.L556:
	call	__errno_location@PLT
	movq	%r12, 72(%rsp)
	movl	(%rax), %eax
	movl	%eax, 64(%rsp)
	testl	%eax, %eax
	je	.L554
	movq	8(%rsp), %rdi
	leaq	.LC31(%rip), %rsi
.LEHB12:
	call	_ZN4asio6detail14do_throw_errorERKSt10error_codePKc@PLT
.LEHE12:
	.p2align 4,,10
	.p2align 3
.L637:
	movl	%eax, %edi
.LEHB13:
	call	close@PLT
.L527:
	movl	88(%rbx), %edi
	cmpl	$-1, %edi
	je	.L529
	jmp	.L528
	.p2align 4,,10
	.p2align 3
.L639:
	movl	96(%rbx), %edi
	leaq	100(%rbx), %rax
	movq	%rbp, %rcx
	movl	$1, %esi
	movl	$9, 20(%rsp)
	movq	%rax, 24(%rsp)
	call	epoll_ctl@PLT
	movl	100(%rbx), %edi
	cmpl	$-1, %edi
	je	.L538
	movq	104(%rbx), %r14
	pxor	%xmm0, %xmm0
	movaps	%xmm0, 32(%rsp)
	testq	%r14, %r14
	je	.L539
	movq	_ZNK4asio6detail11timer_queueINS0_18chrono_time_traitsINSt6chrono3_V212steady_clockENS_11wait_traitsIS5_EEEEE18wait_duration_usecEl@GOTPCREL(%rip), %r12
	movl	$300000000, %r15d
	movabsq	$2361183241434822607, %r13
	jmp	.L548
	.p2align 4,,10
	.p2align 3
.L642:
	testq	%rax, %rax
	js	.L543
.L631:
	subq	%rax, %rdx
	testq	%rdx, %rdx
	jle	.L566
.L546:
	shrq	$3, %rdx
	movq	%rdx, %rax
	mulq	%r13
	shrq	$4, %rdx
	je	.L640
.L545:
	cmpq	%rdx, %r15
	cmovg	%rdx, %r15
.L541:
	movq	8(%r14), %r14
	testq	%r14, %r14
	je	.L641
.L548:
	movq	(%r14), %rax
	movq	32(%rax), %rax
	cmpq	%r12, %rax
	jne	.L540
	movq	24(%r14), %rax
	cmpq	%rax, 32(%r14)
	je	.L541
	call	_ZNSt6chrono3_V212steady_clock3nowEv@PLT
	movq	24(%r14), %rdx
	movq	(%rdx), %rdx
	testq	%rdx, %rdx
	jns	.L642
	testq	%rax, %rax
	js	.L631
.L566:
	movq	8(%r14), %r14
	xorl	%r15d, %r15d
	testq	%r14, %r14
	jne	.L548
	.p2align 4
	.p2align 3
.L641:
	movabsq	$4835703278458516699, %rax
	movl	100(%rbx), %edi
	movl	$1, %esi
	imulq	%r15
	movq	%r15, %rax
	sarq	$63, %rax
	sarq	$18, %rdx
	subq	%rax, %rdx
	movl	$1, %eax
	movq	%rdx, 48(%rsp)
	testq	%r15, %r15
	jne	.L643
.L551:
	movq	8(%rsp), %rcx
	leaq	32(%rsp), %rdx
	movq	%rax, 56(%rsp)
	call	timerfd_settime@PLT
	jmp	.L552
	.p2align 4,,10
	.p2align 3
.L635:
	call	close@PLT
	jmp	.L524
	.p2align 4,,10
	.p2align 3
.L633:
	call	close@PLT
	jmp	.L517
	.p2align 4,,10
	.p2align 3
.L555:
	movq	%r15, %rdi
	call	__cxa_guard_acquire@PLT
	movq	_ZZN4asio15system_categoryEvE8instance@GOTPCREL(%rip), %r12
	testl	%eax, %eax
	je	.L556
	movq	_ZN4asio6detail15system_categoryD1Ev@GOTPCREL(%rip), %rdi
	leaq	__dso_handle(%rip), %rdx
	movq	%r12, %rsi
	call	__cxa_atexit@PLT
	movq	%r15, %rdi
	call	__cxa_guard_release@PLT
	jmp	.L556
	.p2align 4,,10
	.p2align 3
.L559:
	movq	%r14, %rdi
	call	pthread_mutex_unlock@PLT
	addq	$104, %rsp
	.cfi_remember_state
	.cfi_def_cfa_offset 56
	popq	%rbx
	.cfi_def_cfa_offset 48
	popq	%rbp
	.cfi_def_cfa_offset 40
	popq	%r12
	.cfi_def_cfa_offset 32
	popq	%r13
	.cfi_def_cfa_offset 24
	popq	%r14
	.cfi_def_cfa_offset 16
	popq	%r15
	.cfi_def_cfa_offset 8
	ret
	.p2align 4,,10
	.p2align 3
.L540:
	.cfi_restore_state
	movq	%r15, %rsi
	movq	%r14, %rdi
	call	*%rax
	movq	%rax, %r15
	jmp	.L541
	.p2align 4,,10
	.p2align 3
.L640:
	movl	$1, %r15d
	jmp	.L541
	.p2align 4,,10
	.p2align 3
.L543:
	movabsq	$-9223372036854775808, %rcx
	cmpq	%rcx, %rax
	je	.L564
	movq	%rax, %rsi
	subq	$1, %rcx
	subq	%rdx, %rcx
	negq	%rsi
	subq	%rax, %rdx
	cmpq	%rcx, %rsi
	jle	.L546
.L564:
	movabsq	$9223372036854775, %rdx
	jmp	.L545
	.p2align 4,,10
	.p2align 3
.L636:
	call	__errno_location@PLT
	cmpl	$22, (%rax)
	jne	.L525
	xorl	%esi, %esi
	movl	$1, %edi
	call	timerfd_create@PLT
	movl	%eax, %ebp
	cmpl	$-1, %eax
	je	.L525
	movl	%eax, %edi
	movl	$1, %edx
	movl	$2, %esi
	xorl	%eax, %eax
	call	fcntl@PLT
	jmp	.L525
	.p2align 4,,10
	.p2align 3
.L634:
	call	__errno_location@PLT
	movq	%rax, %r13
	movl	(%rax), %eax
	subl	$22, %eax
	andl	$-17, %eax
	je	.L644
.L519:
	movq	_ZGVZN4asio15system_categoryEvE8instance@GOTPCREL(%rip), %r14
	movzbl	(%r14), %eax
	testb	%al, %al
	je	.L520
	movq	_ZZN4asio15system_categoryEvE8instance@GOTPCREL(%rip), %r12
.L521:
	movl	0(%r13), %eax
	movq	%r12, 72(%rsp)
	movl	%eax, 64(%rsp)
	testl	%eax, %eax
	je	.L518
	leaq	64(%rsp), %rdi
	leaq	.LC28(%rip), %rsi
	call	_ZN4asio6detail14do_throw_errorERKSt10error_codePKc@PLT
	.p2align 4,,10
	.p2align 3
.L638:
	call	__errno_location@PLT
	movq	%rax, %rbp
	cmpl	$22, (%rax)
	je	.L645
.L532:
	leaq	32(%rsp), %rdi
	call	pipe@PLT
	testl	%eax, %eax
	je	.L561
	movq	_ZGVZN4asio15system_categoryEvE8instance@GOTPCREL(%rip), %r13
	movzbl	0(%r13), %eax
	testb	%al, %al
	je	.L534
	movq	_ZZN4asio15system_categoryEvE8instance@GOTPCREL(%rip), %r12
.L535:
	movl	0(%rbp), %eax
	movq	%r12, 72(%rsp)
	movl	%eax, 64(%rsp)
	testl	%eax, %eax
	jne	.L646
.L533:
	movl	88(%rbx), %edx
	jmp	.L530
	.p2align 4,,10
	.p2align 3
.L643:
	imulq	$1000000, %rdx, %rdx
	xorl	%esi, %esi
	subq	%rdx, %r15
	imulq	$1000, %r15, %rax
	jmp	.L551
.L561:
	movl	32(%rsp), %edi
	movl	$2048, %edx
	movl	$4, %esi
	xorl	%eax, %eax
	movl	%edi, 88(%rbx)
	call	fcntl@PLT
	movl	88(%rbx), %edi
	movl	$1, %edx
	xorl	%eax, %eax
	movl	$2, %esi
	call	fcntl@PLT
	movl	36(%rsp), %edi
	movl	$2048, %edx
	xorl	%eax, %eax
	movl	$4, %esi
	movl	%edi, 92(%rbx)
	call	fcntl@PLT
	movl	92(%rbx), %edi
	movl	$1, %edx
	xorl	%eax, %eax
	movl	$2, %esi
	call	fcntl@PLT
	jmp	.L533
.L644:
	movl	$20000, %edi
	call	epoll_create@PLT
	cmpl	$-1, %eax
	je	.L519
	movl	%eax, %edi
	movl	%eax, %ebp
	movl	$1, %edx
	movl	$2, %esi
	xorl	%eax, %eax
	call	fcntl@PLT
	jmp	.L518
.L645:
	xorl	%edi, %edi
	xorl	%esi, %esi
	call	eventfd@PLT
	movd	%eax, %xmm2
	movl	%eax, %edi
	pshufd	$0xe0, %xmm2, %xmm0
	movq	%xmm0, 88(%rbx)
	cmpl	$-1, %eax
	je	.L532
	movl	$2048, %edx
	movl	$4, %esi
	xorl	%eax, %eax
	call	fcntl@PLT
	movl	88(%rbx), %edi
	movl	$1, %edx
	xorl	%eax, %eax
	movl	$2, %esi
	call	fcntl@PLT
	movl	88(%rbx), %edx
	cmpl	$-1, %edx
	jne	.L530
	jmp	.L532
	.p2align 4,,10
	.p2align 3
.L539:
	movq	$300, 48(%rsp)
	xorl	%eax, %eax
	xorl	%esi, %esi
	jmp	.L551
.L520:
	movq	%r14, %rdi
	call	__cxa_guard_acquire@PLT
	movq	_ZZN4asio15system_categoryEvE8instance@GOTPCREL(%rip), %r12
	testl	%eax, %eax
	je	.L521
	movq	_ZN4asio6detail15system_categoryD1Ev@GOTPCREL(%rip), %rdi
	leaq	__dso_handle(%rip), %rdx
	movq	%r12, %rsi
	call	__cxa_atexit@PLT
	movq	%r14, %rdi
	call	__cxa_guard_release@PLT
	jmp	.L521
.L534:
	movq	%r13, %rdi
	call	__cxa_guard_acquire@PLT
	movq	_ZZN4asio15system_categoryEvE8instance@GOTPCREL(%rip), %r12
	testl	%eax, %eax
	je	.L535
	movq	_ZN4asio6detail15system_categoryD1Ev@GOTPCREL(%rip), %rdi
	leaq	__dso_handle(%rip), %rdx
	movq	%r12, %rsi
	call	__cxa_atexit@PLT
	movq	%r13, %rdi
	call	__cxa_guard_release@PLT
	jmp	.L535
.L646:
	leaq	64(%rsp), %rdi
	leaq	.LC30(%rip), %rsi
	call	_ZN4asio6detail14do_throw_errorERKSt10error_codePKc@PLT
.L569:
	movq	%rax, %rbx
.L560:
	movq	%r14, %rdi
	call	pthread_mutex_unlock@PLT
	movq	%rbx, %rdi
	call	_Unwind_Resume@PLT
.LEHE13:
	.cfi_endproc
.LFE3119:
	.section	.gcc_except_table._ZN4asio6detail13epoll_reactor12fork_serviceENS_10io_service10fork_eventE,"aG",@progbits,_ZN4asio6detail13epoll_reactor12fork_serviceENS_10io_service10fork_eventE,comdat
.LLSDA3119:
	.byte	0xff
	.byte	0xff
	.byte	0x1
	.uleb128 .LLSDACSE3119-.LLSDACSB3119
.LLSDACSB3119:
	.uleb128 .LEHB11-.LFB3119
	.uleb128 .LEHE11-.LEHB11
	.uleb128 0
	.uleb128 0
	.uleb128 .LEHB12-.LFB3119
	.uleb128 .LEHE12-.LEHB12
	.uleb128 .L569-.LFB3119
	.uleb128 0
	.uleb128 .LEHB13-.LFB3119
	.uleb128 .LEHE13-.LEHB13
	.uleb128 0
	.uleb128 0
.LLSDACSE3119:
	.section	.text._ZN4asio6detail13epoll_reactor12fork_serviceENS_10io_service10fork_eventE,"axG",@progbits,_ZN4asio6detail13epoll_reactor12fork_serviceENS_10io_service10fork_eventE,comdat
	.size	_ZN4asio6detail13epoll_reactor12fork_serviceENS_10io_service10fork_eventE, .-_ZN4asio6detail13epoll_reactor12fork_serviceENS_10io_service10fork_eventE
	.text
	.align 2
	.p2align 4
	.globl	_ZN7asiopal5Timer6CancelEv
	.type	_ZN7asiopal5Timer6CancelEv, @function
_ZN7asiopal5Timer6CancelEv:
.LFB6381:
	.cfi_startproc
	cmpb	$0, 24(%rdi)
	jne	.L653
	ret
	.p2align 4,,10
	.p2align 3
.L653:
	subq	$24, %rsp
	.cfi_def_cfa_offset 32
	movq	8(%rdi), %rdx
	leaq	32(%rdi), %rcx
	movq	%rdi, 8(%rsp)
	movq	88(%rdx), %rdi
	leaq	40(%rdx), %rsi
	movq	%rcx, %rdx
	call	_ZN4asio6detail13epoll_reactor12cancel_timerINS0_18chrono_time_traitsINSt6chrono3_V212steady_clockENS_11wait_traitsIS6_EEEEEEmRNS0_11timer_queueIT_EERNSC_14per_timer_dataEm.constprop.0.isra.0
	movq	8(%rsp), %rax
	movb	$0, 24(%rax)
	addq	$24, %rsp
	.cfi_def_cfa_offset 8
	ret
	.cfi_endproc
.LFE6381:
	.size	_ZN7asiopal5Timer6CancelEv, .-_ZN7asiopal5Timer6CancelEv
	.section	.text._ZN4asio6detail11object_poolINS0_13epoll_reactor16descriptor_stateEED2Ev,"axG",@progbits,_ZN4asio6detail11object_poolINS0_13epoll_reactor16descriptor_stateEED5Ev,comdat
	.align 2
	.p2align 4
	.weak	_ZN4asio6detail11object_poolINS0_13epoll_reactor16descriptor_stateEED2Ev
	.type	_ZN4asio6detail11object_poolINS0_13epoll_reactor16descriptor_stateEED2Ev, @function
_ZN4asio6detail11object_poolINS0_13epoll_reactor16descriptor_stateEED2Ev:
.LFB6777:
	.cfi_startproc
	.cfi_personality 0x9b,DW.ref.__gxx_personality_v0
	.cfi_lsda 0x1b,.LLSDA6777
	pushq	%r15
	.cfi_def_cfa_offset 16
	.cfi_offset 15, -16
	pushq	%r14
	.cfi_def_cfa_offset 24
	.cfi_offset 14, -24
	pushq	%r13
	.cfi_def_cfa_offset 32
	.cfi_offset 13, -32
	pushq	%r12
	.cfi_def_cfa_offset 40
	.cfi_offset 12, -40
	pushq	%rbp
	.cfi_def_cfa_offset 48
	.cfi_offset 6, -48
	pushq	%rbx
	.cfi_def_cfa_offset 56
	.cfi_offset 3, -56
	subq	$40, %rsp
	.cfi_def_cfa_offset 96
	movq	(%rdi), %r13
	movq	%rdi, 8(%rsp)
	testq	%r13, %r13
	je	.L655
	leaq	16(%rsp), %rbp
	.p2align 4
	.p2align 3
.L661:
	movq	%r13, %r12
	movq	24(%r13), %r13
	leaq	128(%r12), %r15
	leaq	80(%r12), %r14
.L660:
	movq	(%r15), %rsi
	testq	%rsi, %rsi
	je	.L656
	movq	%rsi, (%rsp)
	call	_ZNSt3_V215system_categoryEv@PLT
	movq	(%rsp), %rsi
	movq	%rax, %rbx
	jmp	.L659
	.p2align 4,,10
	.p2align 3
.L657:
	movq	$0, (%rsi)
	movq	8(%rsi), %rax
	xorl	%ecx, %ecx
	movq	%rbp, %rdx
	movl	$0, 16(%rsp)
	xorl	%edi, %edi
	movq	%rbx, 24(%rsp)
	call	*%rax
	movq	(%r15), %rsi
	testq	%rsi, %rsi
	je	.L656
.L659:
	movq	(%rsi), %rax
	movq	%rax, (%r15)
	testq	%rax, %rax
	jne	.L657
	movq	$0, 8(%r15)
	jmp	.L657
	.p2align 4,,10
	.p2align 3
.L656:
	subq	$16, %r15
	cmpq	%r15, %r14
	jne	.L660
	leaq	40(%r12), %rdi
	call	pthread_mutex_destroy@PLT
	movl	$152, %esi
	movq	%r12, %rdi
	call	_ZdlPvm@PLT
	testq	%r13, %r13
	jne	.L661
.L655:
	movq	8(%rsp), %rax
	movq	8(%rax), %r13
	testq	%r13, %r13
	je	.L654
	leaq	16(%rsp), %rbp
	.p2align 4
	.p2align 3
.L668:
	movq	%r13, %r12
	movq	24(%r13), %r13
	leaq	128(%r12), %r15
	leaq	80(%r12), %r14
.L667:
	movq	(%r15), %rsi
	testq	%rsi, %rsi
	je	.L663
	movq	%rsi, (%rsp)
	call	_ZNSt3_V215system_categoryEv@PLT
	movq	(%rsp), %rsi
	movq	%rax, %rbx
	jmp	.L666
	.p2align 4,,10
	.p2align 3
.L664:
	movq	$0, (%rsi)
	movq	8(%rsi), %rax
	xorl	%ecx, %ecx
	movq	%rbp, %rdx
	movl	$0, 16(%rsp)
	xorl	%edi, %edi
	movq	%rbx, 24(%rsp)
	call	*%rax
	movq	(%r15), %rsi
	testq	%rsi, %rsi
	je	.L663
.L666:
	movq	(%rsi), %rax
	movq	%rax, (%r15)
	testq	%rax, %rax
	jne	.L664
	movq	$0, 8(%r15)
	jmp	.L664
	.p2align 4,,10
	.p2align 3
.L663:
	subq	$16, %r15
	cmpq	%r15, %r14
	jne	.L667
	leaq	40(%r12), %rdi
	call	pthread_mutex_destroy@PLT
	movl	$152, %esi
	movq	%r12, %rdi
	call	_ZdlPvm@PLT
	testq	%r13, %r13
	jne	.L668
.L654:
	addq	$40, %rsp
	.cfi_def_cfa_offset 56
	popq	%rbx
	.cfi_def_cfa_offset 48
	popq	%rbp
	.cfi_def_cfa_offset 40
	popq	%r12
	.cfi_def_cfa_offset 32
	popq	%r13
	.cfi_def_cfa_offset 24
	popq	%r14
	.cfi_def_cfa_offset 16
	popq	%r15
	.cfi_def_cfa_offset 8
	ret
	.cfi_endproc
.LFE6777:
	.section	.gcc_except_table._ZN4asio6detail11object_poolINS0_13epoll_reactor16descriptor_stateEED2Ev,"aG",@progbits,_ZN4asio6detail11object_poolINS0_13epoll_reactor16descriptor_stateEED5Ev,comdat
.LLSDA6777:
	.byte	0xff
	.byte	0xff
	.byte	0x1
	.uleb128 .LLSDACSE6777-.LLSDACSB6777
.LLSDACSB6777:
.LLSDACSE6777:
	.section	.text._ZN4asio6detail11object_poolINS0_13epoll_reactor16descriptor_stateEED2Ev,"axG",@progbits,_ZN4asio6detail11object_poolINS0_13epoll_reactor16descriptor_stateEED5Ev,comdat
	.size	_ZN4asio6detail11object_poolINS0_13epoll_reactor16descriptor_stateEED2Ev, .-_ZN4asio6detail11object_poolINS0_13epoll_reactor16descriptor_stateEED2Ev
	.weak	_ZN4asio6detail11object_poolINS0_13epoll_reactor16descriptor_stateEED1Ev
	.set	_ZN4asio6detail11object_poolINS0_13epoll_reactor16descriptor_stateEED1Ev,_ZN4asio6detail11object_poolINS0_13epoll_reactor16descriptor_stateEED2Ev
	.section	.rodata._ZN4asio6detail16service_registry6createINS0_13epoll_reactorEEEPNS_10io_service7serviceERS4_.str1.1,"aMS",@progbits,1
.LC33:
	.string	"mutex"
	.section	.text._ZN4asio6detail16service_registry6createINS0_13epoll_reactorEEEPNS_10io_service7serviceERS4_,"axG",@progbits,_ZN4asio6detail16service_registry6createINS0_13epoll_reactorEEEPNS_10io_service7serviceERS4_,comdat
	.align 2
	.p2align 4
	.weak	_ZN4asio6detail16service_registry6createINS0_13epoll_reactorEEEPNS_10io_service7serviceERS4_
	.type	_ZN4asio6detail16service_registry6createINS0_13epoll_reactorEEEPNS_10io_service7serviceERS4_, @function
_ZN4asio6detail16service_registry6createINS0_13epoll_reactorEEEPNS_10io_service7serviceERS4_:
.LFB7423:
	.cfi_startproc
	.cfi_personality 0x9b,DW.ref.__gxx_personality_v0
	.cfi_lsda 0x1b,.LLSDA7423
	pushq	%r15
	.cfi_def_cfa_offset 16
	.cfi_offset 15, -16
	pushq	%r14
	.cfi_def_cfa_offset 24
	.cfi_offset 14, -24
	pushq	%r13
	.cfi_def_cfa_offset 32
	.cfi_offset 13, -32
	pushq	%r12
	.cfi_def_cfa_offset 40
	.cfi_offset 12, -40
	pushq	%rbp
	.cfi_def_cfa_offset 48
	.cfi_offset 6, -48
	movq	%rdi, %rbp
	movl	$176, %edi
	pushq	%rbx
	.cfi_def_cfa_offset 56
	.cfi_offset 3, -56
	subq	$56, %rsp
	.cfi_def_cfa_offset 112
.LEHB14:
	call	_Znwm@PLT
.LEHE14:
	movq	%rbp, %xmm1
	xorl	%esi, %esi
	movq	$0, 32(%rax)
	movq	%rax, %rbx
	movq	_ZTVN4asio6detail13epoll_reactorE@GOTPCREL(%rip), %rax
	leaq	48(%rbx), %rdi
	addq	$16, %rax
	movq	%rax, %xmm0
	movq	8(%rbp), %rax
	movups	%xmm0, (%rbx)
	pxor	%xmm0, %xmm0
	movq	%rax, 40(%rbx)
	punpcklqdq	%xmm1, %xmm0
	movups	%xmm0, 16(%rbx)
	call	pthread_mutex_init@PLT
	movq	_ZGVZN4asio15system_categoryEvE8instance@GOTPCREL(%rip), %r12
	movl	%eax, %ebp
	movzbl	(%r12), %eax
	testb	%al, %al
	je	.L693
	movq	_ZZN4asio15system_categoryEvE8instance@GOTPCREL(%rip), %r13
.L694:
	movl	%ebp, 32(%rsp)
	movq	%r13, 40(%rsp)
	testl	%ebp, %ebp
	jne	.L775
	movl	$526336, %esi
	xorl	%edi, %edi
	call	eventfd@PLT
	movd	%eax, %xmm2
	pshufd	$0xe0, %xmm2, %xmm0
	movq	%xmm0, 88(%rbx)
	cmpl	$-1, %eax
	je	.L776
.L698:
	movl	$524288, %edi
	call	epoll_create1@PLT
	movl	%eax, %ebp
	cmpl	$-1, %eax
	je	.L777
.L707:
	movl	%ebp, 96(%rbx)
	movl	$524288, %esi
	movl	$1, %edi
	call	timerfd_create@PLT
	movl	%eax, %ebp
	cmpl	$-1, %eax
	je	.L778
.L713:
	movl	%ebp, 100(%rbx)
	xorl	%esi, %esi
	leaq	120(%rbx), %rdi
	movq	$0, 104(%rbx)
	movb	$0, 112(%rbx)
	call	pthread_mutex_init@PLT
	movl	%eax, %ebp
	movzbl	(%r12), %eax
	testb	%al, %al
	je	.L779
.L717:
	movl	%ebp, 32(%rsp)
	movq	%r13, 40(%rsp)
	testl	%ebp, %ebp
	jne	.L780
	movl	88(%rbx), %edx
	movl	96(%rbx), %edi
	pxor	%xmm0, %xmm0
	leaq	32(%rsp), %rbp
	leaq	88(%rbx), %rax
	movl	$1, %esi
	movq	%rbp, %rcx
	movups	%xmm0, 160(%rbx)
	movl	$-2147483639, 32(%rsp)
	movq	%rax, 36(%rsp)
	call	epoll_ctl@PLT
	movl	92(%rbx), %edi
	leaq	24(%rsp), %rsi
	movl	$8, %edx
	movq	$1, 24(%rsp)
.LEHB15:
	call	write@PLT
.LEHE15:
	movl	100(%rbx), %edx
	cmpl	$-1, %edx
	je	.L692
	movl	96(%rbx), %edi
	leaq	100(%rbx), %rax
	movq	%rbp, %rcx
	movl	$1, %esi
	movl	$9, 32(%rsp)
	movq	%rax, 36(%rsp)
	call	epoll_ctl@PLT
.L692:
	addq	$56, %rsp
	.cfi_remember_state
	.cfi_def_cfa_offset 56
	movq	%rbx, %rax
	popq	%rbx
	.cfi_def_cfa_offset 48
	popq	%rbp
	.cfi_def_cfa_offset 40
	popq	%r12
	.cfi_def_cfa_offset 32
	popq	%r13
	.cfi_def_cfa_offset 24
	popq	%r14
	.cfi_def_cfa_offset 16
	popq	%r15
	.cfi_def_cfa_offset 8
	ret
	.p2align 4,,10
	.p2align 3
.L778:
	.cfi_restore_state
	call	__errno_location@PLT
	cmpl	$22, (%rax)
	jne	.L713
	xorl	%esi, %esi
	movl	$1, %edi
	call	timerfd_create@PLT
	movl	%eax, %r15d
	cmpl	$-1, %eax
	je	.L713
	movl	%eax, %edi
	movl	$1, %edx
	movl	$2, %esi
	xorl	%eax, %eax
.LEHB16:
	call	fcntl@PLT
	movl	%r15d, %ebp
	jmp	.L713
	.p2align 4,,10
	.p2align 3
.L777:
	call	__errno_location@PLT
	movq	%rax, %r15
	movl	(%rax), %eax
	subl	$22, %eax
	andl	$-17, %eax
	je	.L781
.L708:
	movzbl	(%r12), %eax
	testb	%al, %al
	je	.L782
.L710:
	movl	(%r15), %eax
	movq	%r13, 40(%rsp)
	movl	%eax, 32(%rsp)
	testl	%eax, %eax
	je	.L707
	leaq	32(%rsp), %rdi
	leaq	.LC28(%rip), %rsi
	call	_ZN4asio6detail14do_throw_errorERKSt10error_codePKc@PLT
.LEHE16:
	.p2align 4,,10
	.p2align 3
.L776:
	call	__errno_location@PLT
	movq	%rax, %rbp
	cmpl	$22, (%rax)
	je	.L783
.L700:
	leaq	24(%rsp), %rdi
	call	pipe@PLT
	testl	%eax, %eax
	jne	.L784
	movl	24(%rsp), %edi
	movl	$2048, %edx
	movl	$4, %esi
	xorl	%eax, %eax
	movl	%edi, 88(%rbx)
.LEHB17:
	call	fcntl@PLT
	movl	88(%rbx), %edi
	movl	$1, %edx
	movl	$2, %esi
	xorl	%eax, %eax
	call	fcntl@PLT
	movl	28(%rsp), %edi
	movl	$2048, %edx
	movl	$4, %esi
	xorl	%eax, %eax
	movl	%edi, 92(%rbx)
	call	fcntl@PLT
	movl	92(%rbx), %edi
	movl	$1, %edx
	movl	$2, %esi
	xorl	%eax, %eax
	call	fcntl@PLT
	jmp	.L698
	.p2align 4,,10
	.p2align 3
.L779:
	movq	%r12, %rdi
	call	__cxa_guard_acquire@PLT
	testl	%eax, %eax
	je	.L717
	movq	_ZN4asio6detail15system_categoryD1Ev@GOTPCREL(%rip), %rdi
	leaq	__dso_handle(%rip), %rdx
	movq	%r13, %rsi
	call	__cxa_atexit@PLT
	movq	%r12, %rdi
	call	__cxa_guard_release@PLT
	jmp	.L717
	.p2align 4,,10
	.p2align 3
.L693:
	movq	%r12, %rdi
	call	__cxa_guard_acquire@PLT
	movq	_ZZN4asio15system_categoryEvE8instance@GOTPCREL(%rip), %r13
	testl	%eax, %eax
	je	.L694
	movq	_ZN4asio6detail15system_categoryD1Ev@GOTPCREL(%rip), %rdi
	leaq	__dso_handle(%rip), %rdx
	movq	%r13, %rsi
	call	__cxa_atexit@PLT
	movq	%r12, %rdi
	call	__cxa_guard_release@PLT
	jmp	.L694
	.p2align 4,,10
	.p2align 3
.L784:
	movzbl	(%r12), %eax
	testb	%al, %al
	je	.L785
.L704:
	movl	0(%rbp), %eax
	movq	%r13, 40(%rsp)
	movl	%eax, 32(%rsp)
	testl	%eax, %eax
	je	.L698
	leaq	32(%rsp), %rdi
	leaq	.LC30(%rip), %rsi
	call	_ZN4asio6detail14do_throw_errorERKSt10error_codePKc@PLT
.LEHE17:
	.p2align 4,,10
	.p2align 3
.L782:
	movq	%r12, %rdi
	call	__cxa_guard_acquire@PLT
	testl	%eax, %eax
	je	.L710
	movq	_ZN4asio6detail15system_categoryD1Ev@GOTPCREL(%rip), %rdi
	leaq	__dso_handle(%rip), %rdx
	movq	%r13, %rsi
	call	__cxa_atexit@PLT
	movq	%r12, %rdi
	call	__cxa_guard_release@PLT
	jmp	.L710
	.p2align 4,,10
	.p2align 3
.L781:
	movl	$20000, %edi
	call	epoll_create@PLT
	cmpl	$-1, %eax
	je	.L708
	movl	%eax, 12(%rsp)
	movl	%eax, %edi
	movl	$1, %edx
	movl	$2, %esi
	xorl	%eax, %eax
.LEHB18:
	call	fcntl@PLT
.LEHE18:
	movl	12(%rsp), %ebp
	jmp	.L707
	.p2align 4,,10
	.p2align 3
.L783:
	xorl	%esi, %esi
	xorl	%edi, %edi
	call	eventfd@PLT
	movd	%eax, %xmm3
	pshufd	$0xe0, %xmm3, %xmm0
	movq	%xmm0, 88(%rbx)
	cmpl	$-1, %eax
	je	.L700
	movl	%eax, %edi
	movl	$2048, %edx
	movl	$4, %esi
	xorl	%eax, %eax
.LEHB19:
	call	fcntl@PLT
	movl	88(%rbx), %edi
	movl	$1, %edx
	movl	$2, %esi
	xorl	%eax, %eax
	call	fcntl@PLT
.LEHE19:
	cmpl	$-1, 88(%rbx)
	jne	.L698
	jmp	.L700
	.p2align 4,,10
	.p2align 3
.L785:
	movq	%r12, %rdi
	call	__cxa_guard_acquire@PLT
	testl	%eax, %eax
	je	.L704
	movq	_ZN4asio6detail15system_categoryD1Ev@GOTPCREL(%rip), %rdi
	leaq	__dso_handle(%rip), %rdx
	movq	%r13, %rsi
	call	__cxa_atexit@PLT
	movq	%r12, %rdi
	call	__cxa_guard_release@PLT
	jmp	.L704
.L780:
	leaq	32(%rsp), %rdi
	leaq	.LC33(%rip), %rsi
.LEHB20:
	call	_ZN4asio6detail14do_throw_errorERKSt10error_codePKc@PLT
.LEHE20:
.L775:
	leaq	32(%rsp), %rdi
	leaq	.LC33(%rip), %rsi
.LEHB21:
	call	_ZN4asio6detail14do_throw_errorERKSt10error_codePKc@PLT
.LEHE21:
.L734:
	movq	%rax, %rbp
	jmp	.L721
.L733:
	movq	%rax, %rbp
	jmp	.L722
.L721:
	leaq	160(%rbx), %rdi
	call	_ZN4asio6detail11object_poolINS0_13epoll_reactor16descriptor_stateEED1Ev@PLT
	leaq	120(%rbx), %rdi
	call	pthread_mutex_destroy@PLT
.L722:
	movl	92(%rbx), %eax
	cmpl	$-1, %eax
	je	.L723
	movl	88(%rbx), %edi
	cmpl	%edi, %eax
	jne	.L786
.L724:
	call	close@PLT
.L726:
	leaq	48(%rbx), %rdi
	call	pthread_mutex_destroy@PLT
.L727:
	movq	%rbx, %rdi
	movl	$176, %esi
	call	_ZdlPvm@PLT
	movq	%rbp, %rdi
.LEHB22:
	call	_Unwind_Resume@PLT
.LEHE22:
.L732:
	movq	%rax, %rbp
	jmp	.L726
.L731:
	movq	%rax, %rbp
	jmp	.L727
.L786:
	movl	%eax, %edi
	call	close@PLT
.L723:
	movl	88(%rbx), %edi
	cmpl	$-1, %edi
	je	.L726
	jmp	.L724
	.cfi_endproc
.LFE7423:
	.section	.gcc_except_table._ZN4asio6detail16service_registry6createINS0_13epoll_reactorEEEPNS_10io_service7serviceERS4_,"aG",@progbits,_ZN4asio6detail16service_registry6createINS0_13epoll_reactorEEEPNS_10io_service7serviceERS4_,comdat
.LLSDA7423:
	.byte	0xff
	.byte	0xff
	.byte	0x1
	.uleb128 .LLSDACSE7423-.LLSDACSB7423
.LLSDACSB7423:
	.uleb128 .LEHB14-.LFB7423
	.uleb128 .LEHE14-.LEHB14
	.uleb128 0
	.uleb128 0
	.uleb128 .LEHB15-.LFB7423
	.uleb128 .LEHE15-.LEHB15
	.uleb128 .L734-.LFB7423
	.uleb128 0
	.uleb128 .LEHB16-.LFB7423
	.uleb128 .LEHE16-.LEHB16
	.uleb128 .L733-.LFB7423
	.uleb128 0
	.uleb128 .LEHB17-.LFB7423
	.uleb128 .LEHE17-.LEHB17
	.uleb128 .L732-.LFB7423
	.uleb128 0
	.uleb128 .LEHB18-.LFB7423
	.uleb128 .LEHE18-.LEHB18
	.uleb128 .L733-.LFB7423
	.uleb128 0
	.uleb128 .LEHB19-.LFB7423
	.uleb128 .LEHE19-.LEHB19
	.uleb128 .L732-.LFB7423
	.uleb128 0
	.uleb128 .LEHB20-.LFB7423
	.uleb128 .LEHE20-.LEHB20
	.uleb128 .L733-.LFB7423
	.uleb128 0
	.uleb128 .LEHB21-.LFB7423
	.uleb128 .LEHE21-.LEHB21
	.uleb128 .L731-.LFB7423
	.uleb128 0
	.uleb128 .LEHB22-.LFB7423
	.uleb128 .LEHE22-.LEHB22
	.uleb128 0
	.uleb128 0
.LLSDACSE7423:
	.section	.text._ZN4asio6detail16service_registry6createINS0_13epoll_reactorEEEPNS_10io_service7serviceERS4_,"axG",@progbits,_ZN4asio6detail16service_registry6createINS0_13epoll_reactorEEEPNS_10io_service7serviceERS4_,comdat
	.size	_ZN4asio6detail16service_registry6createINS0_13epoll_reactorEEEPNS_10io_service7serviceERS4_, .-_ZN4asio6detail16service_registry6createINS0_13epoll_reactorEEEPNS_10io_service7serviceERS4_
	.section	.text._ZN4asio6detail16service_registry6createINS_22waitable_timer_serviceINSt6chrono3_V212steady_clockENS_11wait_traitsIS6_EEEEEEPNS_10io_service7serviceERSA_,"axG",@progbits,_ZN4asio6detail16service_registry6createINS_22waitable_timer_serviceINSt6chrono3_V212steady_clockENS_11wait_traitsIS6_EEEEEEPNS_10io_service7serviceERSA_,comdat
	.align 2
	.p2align 4
	.weak	_ZN4asio6detail16service_registry6createINS_22waitable_timer_serviceINSt6chrono3_V212steady_clockENS_11wait_traitsIS6_EEEEEEPNS_10io_service7serviceERSA_
	.type	_ZN4asio6detail16service_registry6createINS_22waitable_timer_serviceINSt6chrono3_V212steady_clockENS_11wait_traitsIS6_EEEEEEPNS_10io_service7serviceERSA_, @function
_ZN4asio6detail16service_registry6createINS_22waitable_timer_serviceINSt6chrono3_V212steady_clockENS_11wait_traitsIS6_EEEEEEPNS_10io_service7serviceERSA_:
.LFB7622:
	.cfi_startproc
	.cfi_personality 0x9b,DW.ref.__gxx_personality_v0
	.cfi_lsda 0x1b,.LLSDA7622
	pushq	%r15
	.cfi_def_cfa_offset 16
	.cfi_offset 15, -16
	pushq	%r14
	.cfi_def_cfa_offset 24
	.cfi_offset 14, -24
	pushq	%r13
	.cfi_def_cfa_offset 32
	.cfi_offset 13, -32
	pushq	%r12
	.cfi_def_cfa_offset 40
	.cfi_offset 12, -40
	pushq	%rbp
	.cfi_def_cfa_offset 48
	.cfi_offset 6, -48
	pushq	%rbx
	.cfi_def_cfa_offset 56
	.cfi_offset 3, -56
	movq	%rdi, %rbx
	movl	$96, %edi
	subq	$40, %rsp
	.cfi_def_cfa_offset 96
.LEHB23:
	call	_Znwm@PLT
.LEHE23:
	movq	(%rbx), %r12
	movq	%rbx, %xmm2
	movq	%rax, %rbp
	movq	_ZTVN4asio22waitable_timer_serviceINSt6chrono3_V212steady_clockENS_11wait_traitsIS3_EEEE@GOTPCREL(%rip), %rax
	movq	$0, 80(%rbp)
	leaq	8(%r12), %r13
	addq	$16, %rax
	movq	%r13, %rdi
	movq	%rax, %xmm0
	movq	_ZTVN4asio6detail11timer_queueINS0_18chrono_time_traitsINSt6chrono3_V212steady_clockENS_11wait_traitsIS5_EEEEEE@GOTPCREL(%rip), %rax
	movups	%xmm0, 0(%rbp)
	pxor	%xmm0, %xmm0
	addq	$16, %rax
	movdqa	%xmm0, %xmm1
	movq	%rax, %xmm3
	punpcklqdq	%xmm2, %xmm1
	punpcklqdq	%xmm3, %xmm0
	movups	%xmm1, 16(%rbp)
	movups	%xmm0, 32(%rbp)
	pxor	%xmm0, %xmm0
	movups	%xmm0, 48(%rbp)
	movups	%xmm0, 64(%rbp)
	call	pthread_mutex_lock@PLT
	movq	56(%r12), %rbx
	testq	%rbx, %rbx
	je	.L788
	.p2align 4
	.p2align 3
.L791:
	movq	8(%rbx), %rax
	testq	%rax, %rax
	je	.L789
	movq	8(%rax), %rdi
	movq	_ZTSN4asio6detail14typeid_wrapperINS0_13epoll_reactorEEE@GOTPCREL(%rip), %rsi
	cmpq	%rsi, %rdi
	je	.L790
	cmpb	$42, (%rdi)
	je	.L789
	call	strcmp@PLT
	testl	%eax, %eax
	jne	.L789
.L790:
	movq	%r13, %rdi
	call	pthread_mutex_unlock@PLT
	movq	40(%rbx), %r13
	movq	%rbx, 88(%rbp)
	leaq	48(%r13), %rbx
	movq	%rbx, %rdi
	call	pthread_mutex_lock@PLT
	cmpb	$0, 209(%r13)
	je	.L863
.L797:
	movq	%rbx, %rdi
	call	pthread_mutex_unlock@PLT
.L815:
	movq	88(%rbp), %rbx
	leaq	48(%rbx), %rdi
	call	pthread_mutex_lock@PLT
	movq	104(%rbx), %rax
	leaq	48(%rbx), %rdi
	movq	%rax, 48(%rbp)
	leaq	40(%rbp), %rax
	movq	%rax, 104(%rbx)
	call	pthread_mutex_unlock@PLT
	addq	$40, %rsp
	.cfi_remember_state
	.cfi_def_cfa_offset 56
	movq	%rbp, %rax
	popq	%rbx
	.cfi_def_cfa_offset 48
	popq	%rbp
	.cfi_def_cfa_offset 40
	popq	%r12
	.cfi_def_cfa_offset 32
	popq	%r13
	.cfi_def_cfa_offset 24
	popq	%r14
	.cfi_def_cfa_offset 16
	popq	%r15
	.cfi_def_cfa_offset 8
	ret
	.p2align 4,,10
	.p2align 3
.L789:
	.cfi_restore_state
	movq	32(%rbx), %rbx
	testq	%rbx, %rbx
	jne	.L791
.L788:
	movq	%r13, %rdi
	call	pthread_mutex_unlock@PLT
	movq	48(%r12), %rdi
.LEHB24:
	call	_ZN4asio6detail16service_registry6createINS0_13epoll_reactorEEEPNS_10io_service7serviceERS4_@PLT
.LEHE24:
	movq	_ZTIN4asio6detail14typeid_wrapperINS0_13epoll_reactorEEE@GOTPCREL(%rip), %xmm0
	movq	%r13, %rdi
	movq	%rax, %r14
	movups	%xmm0, 8(%rax)
	call	pthread_mutex_lock@PLT
	movq	56(%r12), %r15
	testq	%r15, %r15
	je	.L792
	movq	%r15, %rbx
	.p2align 4
	.p2align 3
.L796:
	movq	8(%rbx), %rax
	testq	%rax, %rax
	je	.L793
	movq	8(%rax), %rdi
	movq	_ZTSN4asio6detail14typeid_wrapperINS0_13epoll_reactorEEE@GOTPCREL(%rip), %rsi
	cmpq	%rsi, %rdi
	je	.L795
	cmpb	$42, (%rdi)
	je	.L793
	call	strcmp@PLT
	testl	%eax, %eax
	jne	.L793
.L795:
	movq	(%r14), %rax
	movq	%r14, %rdi
	call	*8(%rax)
	jmp	.L790
	.p2align 4,,10
	.p2align 3
.L863:
	cmpq	$0, 144(%r13)
	jne	.L797
	movq	24(%r13), %rax
	movq	(%rax), %r12
	leaq	8(%r12), %rax
	movq	%rax, %rdi
	movq	%rax, (%rsp)
	call	pthread_mutex_lock@PLT
	movq	56(%r12), %r15
	testq	%r15, %r15
	je	.L798
	.p2align 4
	.p2align 3
.L801:
	movq	8(%r15), %rax
	testq	%rax, %rax
	je	.L799
	movq	8(%rax), %rdi
	movq	_ZTSN4asio6detail14typeid_wrapperINS0_13epoll_reactorEEE@GOTPCREL(%rip), %rsi
	cmpq	%rsi, %rdi
	je	.L800
	cmpb	$42, (%rdi)
	je	.L799
	call	strcmp@PLT
	testl	%eax, %eax
	jne	.L799
.L800:
	movq	(%rsp), %rdi
	call	pthread_mutex_unlock@PLT
	movq	200(%r13), %rsi
	movq	%r15, %xmm0
	leaq	152(%r13), %rax
	movups	%xmm0, 144(%r13)
	testq	%rsi, %rsi
	je	.L807
	movq	%rax, (%rsi)
	movq	%rax, 200(%r13)
.L808:
	movq	136(%r13), %rax
	movq	%rax, %rsi
	orq	$1, %rsi
	movq	%rsi, 136(%r13)
	cmpq	$1, %rax
	ja	.L864
	cmpb	$0, 176(%r13)
	jne	.L797
	leaq	88(%r15), %rax
	movl	96(%r15), %edi
	leaq	20(%rsp), %rcx
	movb	$1, 176(%r13)
	movq	%rax, 24(%rsp)
	movl	88(%r15), %eax
	movl	$3, %esi
	movl	$-2147483639, 20(%rsp)
	movl	%eax, %edx
	call	epoll_ctl@PLT
	jmp	.L797
	.p2align 4,,10
	.p2align 3
.L793:
	movq	32(%rbx), %rbx
	testq	%rbx, %rbx
	jne	.L796
.L792:
	movq	%r15, 32(%r14)
	movq	%r14, %rbx
	movq	%r14, 56(%r12)
	jmp	.L790
	.p2align 4,,10
	.p2align 3
.L799:
	movq	32(%r15), %r15
	testq	%r15, %r15
	jne	.L801
.L798:
	movq	(%rsp), %r15
	movq	%r15, %rdi
	call	pthread_mutex_unlock@PLT
	movq	48(%r12), %rdi
.LEHB25:
	call	_ZN4asio6detail16service_registry6createINS0_13epoll_reactorEEEPNS_10io_service7serviceERS4_@PLT
.LEHE25:
	movq	_ZTIN4asio6detail14typeid_wrapperINS0_13epoll_reactorEEE@GOTPCREL(%rip), %xmm0
	movq	%r15, %rdi
	movq	%rax, %r14
	movups	%xmm0, 8(%rax)
	call	pthread_mutex_lock@PLT
	movq	56(%r12), %rax
	movq	%rax, 8(%rsp)
	testq	%rax, %rax
	je	.L802
	movq	%rax, %r15
	.p2align 4
	.p2align 3
.L806:
	movq	8(%r15), %rax
	testq	%rax, %rax
	je	.L803
	movq	8(%rax), %rdi
	movq	_ZTSN4asio6detail14typeid_wrapperINS0_13epoll_reactorEEE@GOTPCREL(%rip), %rsi
	cmpq	%rsi, %rdi
	je	.L805
	cmpb	$42, (%rdi)
	je	.L803
	call	strcmp@PLT
	testl	%eax, %eax
	jne	.L803
.L805:
	movq	(%r14), %rax
	movq	%r14, %rdi
	call	*8(%rax)
	jmp	.L800
.L864:
	movq	%rbx, %rdi
	call	pthread_mutex_unlock@PLT
	leaq	88(%r13), %rdi
	call	pthread_cond_signal@PLT
	jmp	.L815
	.p2align 4,,10
	.p2align 3
.L803:
	movq	32(%r15), %r15
	testq	%r15, %r15
	jne	.L806
.L802:
	movq	8(%rsp), %rax
	movq	%r14, %r15
	movq	%rax, 32(%r14)
	movq	%r14, 56(%r12)
	jmp	.L800
.L807:
	movq	%rax, %xmm0
	punpcklqdq	%xmm0, %xmm0
	movups	%xmm0, 192(%r13)
	jmp	.L808
.L817:
	movq	%rax, %r12
	jmp	.L812
.L816:
	movq	%rax, %r12
	jmp	.L813
.L812:
	movq	%rbx, %rdi
	call	pthread_mutex_unlock@PLT
.L813:
	movq	64(%rbp), %rdi
	testq	%rdi, %rdi
	je	.L814
	movq	80(%rbp), %rsi
	subq	%rdi, %rsi
	call	_ZdlPvm@PLT
.L814:
	movq	%rbp, %rdi
	movl	$96, %esi
	call	_ZdlPvm@PLT
	movq	%r12, %rdi
.LEHB26:
	call	_Unwind_Resume@PLT
.LEHE26:
	.cfi_endproc
.LFE7622:
	.section	.gcc_except_table._ZN4asio6detail16service_registry6createINS_22waitable_timer_serviceINSt6chrono3_V212steady_clockENS_11wait_traitsIS6_EEEEEEPNS_10io_service7serviceERSA_,"aG",@progbits,_ZN4asio6detail16service_registry6createINS_22waitable_timer_serviceINSt6chrono3_V212steady_clockENS_11wait_traitsIS6_EEEEEEPNS_10io_service7serviceERSA_,comdat
.LLSDA7622:
	.byte	0xff
	.byte	0xff
	.byte	0x1
	.uleb128 .LLSDACSE7622-.LLSDACSB7622
.LLSDACSB7622:
	.uleb128 .LEHB23-.LFB7622
	.uleb128 .LEHE23-.LEHB23
	.uleb128 0
	.uleb128 0
	.uleb128 .LEHB24-.LFB7622
	.uleb128 .LEHE24-.LEHB24
	.uleb128 .L816-.LFB7622
	.uleb128 0
	.uleb128 .LEHB25-.LFB7622
	.uleb128 .LEHE25-.LEHB25
	.uleb128 .L817-.LFB7622
	.uleb128 0
	.uleb128 .LEHB26-.LFB7622
	.uleb128 .LEHE26-.LEHB26
	.uleb128 0
	.uleb128 0
.LLSDACSE7622:
	.section	.text._ZN4asio6detail16service_registry6createINS_22waitable_timer_serviceINSt6chrono3_V212steady_clockENS_11wait_traitsIS6_EEEEEEPNS_10io_service7serviceERSA_,"axG",@progbits,_ZN4asio6detail16service_registry6createINS_22waitable_timer_serviceINSt6chrono3_V212steady_clockENS_11wait_traitsIS6_EEEEEEPNS_10io_service7serviceERSA_,comdat
	.size	_ZN4asio6detail16service_registry6createINS_22waitable_timer_serviceINSt6chrono3_V212steady_clockENS_11wait_traitsIS6_EEEEEEPNS_10io_service7serviceERSA_, .-_ZN4asio6detail16service_registry6createINS_22waitable_timer_serviceINSt6chrono3_V212steady_clockENS_11wait_traitsIS6_EEEEEEPNS_10io_service7serviceERSA_
	.text
	.align 2
	.p2align 4
	.globl	_ZN7asiopal5TimerC2ERN4asio10io_serviceE
	.type	_ZN7asiopal5TimerC2ERN4asio10io_serviceE, @function
_ZN7asiopal5TimerC2ERN4asio10io_serviceE:
.LFB6390:
	.cfi_startproc
	pushq	%r15
	.cfi_def_cfa_offset 16
	.cfi_offset 15, -16
	pushq	%r14
	.cfi_def_cfa_offset 24
	.cfi_offset 14, -24
	pushq	%r13
	.cfi_def_cfa_offset 32
	.cfi_offset 13, -32
	pushq	%r12
	.cfi_def_cfa_offset 40
	.cfi_offset 12, -40
	pushq	%rbp
	.cfi_def_cfa_offset 48
	.cfi_offset 6, -48
	movq	%rdi, %rbp
	pushq	%rbx
	.cfi_def_cfa_offset 56
	.cfi_offset 3, -56
	subq	$8, %rsp
	.cfi_def_cfa_offset 64
	movq	_ZTVN7asiopal5TimerE@GOTPCREL(%rip), %rax
	movq	(%rsi), %r12
	addq	$16, %rax
	movq	%rax, (%rdi)
	leaq	8(%r12), %rdi
	call	pthread_mutex_lock@PLT
	movq	56(%r12), %rbx
	testq	%rbx, %rbx
	je	.L866
	.p2align 4
	.p2align 3
.L869:
	movq	8(%rbx), %rax
	testq	%rax, %rax
	je	.L867
	movq	8(%rax), %rdi
	movq	_ZTSN4asio6detail14typeid_wrapperINS_22waitable_timer_serviceINSt6chrono3_V212steady_clockENS_11wait_traitsIS5_EEEEEE@GOTPCREL(%rip), %rsi
	cmpq	%rsi, %rdi
	je	.L868
	cmpb	$42, (%rdi)
	je	.L867
	call	strcmp@PLT
	testl	%eax, %eax
	jne	.L867
.L868:
	leaq	8(%r12), %rdi
	call	pthread_mutex_unlock@PLT
	pxor	%xmm0, %xmm0
	movq	%rbx, 8(%rbp)
	movq	$0, 16(%rbp)
	movb	$0, 24(%rbp)
	movups	%xmm0, 32(%rbp)
	movups	%xmm0, 56(%rbp)
	addq	$8, %rsp
	.cfi_remember_state
	.cfi_def_cfa_offset 56
	popq	%rbx
	.cfi_def_cfa_offset 48
	popq	%rbp
	.cfi_def_cfa_offset 40
	popq	%r12
	.cfi_def_cfa_offset 32
	popq	%r13
	.cfi_def_cfa_offset 24
	popq	%r14
	.cfi_def_cfa_offset 16
	popq	%r15
	.cfi_def_cfa_offset 8
	ret
	.p2align 4,,10
	.p2align 3
.L867:
	.cfi_restore_state
	movq	32(%rbx), %rbx
	testq	%rbx, %rbx
	jne	.L869
.L866:
	leaq	8(%r12), %rdi
	call	pthread_mutex_unlock@PLT
	movq	48(%r12), %rdi
	call	_ZN4asio6detail16service_registry6createINS_22waitable_timer_serviceINSt6chrono3_V212steady_clockENS_11wait_traitsIS6_EEEEEEPNS_10io_service7serviceERSA_@PLT
	movq	_ZTIN4asio6detail14typeid_wrapperINS_22waitable_timer_serviceINSt6chrono3_V212steady_clockENS_11wait_traitsIS5_EEEEEE@GOTPCREL(%rip), %xmm0
	leaq	8(%r12), %rdi
	movq	%rax, %r14
	movups	%xmm0, 8(%rax)
	call	pthread_mutex_lock@PLT
	movq	56(%r12), %r15
	testq	%r15, %r15
	je	.L870
	movq	%r15, %rbx
	.p2align 4
	.p2align 3
.L874:
	movq	8(%rbx), %rax
	testq	%rax, %rax
	je	.L871
	movq	8(%rax), %rdi
	movq	_ZTSN4asio6detail14typeid_wrapperINS_22waitable_timer_serviceINSt6chrono3_V212steady_clockENS_11wait_traitsIS5_EEEEEE@GOTPCREL(%rip), %rsi
	cmpq	%rsi, %rdi
	je	.L873
	cmpb	$42, (%rdi)
	je	.L871
	call	strcmp@PLT
	testl	%eax, %eax
	jne	.L871
.L873:
	movq	(%r14), %rax
	movq	%r14, %rdi
	call	*8(%rax)
	jmp	.L868
	.p2align 4,,10
	.p2align 3
.L871:
	movq	32(%rbx), %rbx
	testq	%rbx, %rbx
	jne	.L874
.L870:
	movq	%r15, 32(%r14)
	movq	%r14, %rbx
	movq	%r14, 56(%r12)
	jmp	.L868
	.cfi_endproc
.LFE6390:
	.size	_ZN7asiopal5TimerC2ERN4asio10io_serviceE, .-_ZN7asiopal5TimerC2ERN4asio10io_serviceE
	.globl	_ZN7asiopal5TimerC1ERN4asio10io_serviceE
	.set	_ZN7asiopal5TimerC1ERN4asio10io_serviceE,_ZN7asiopal5TimerC2ERN4asio10io_serviceE
	.section	.text.startup,"ax",@progbits
	.p2align 4
	.type	_GLOBAL__sub_I_Timer.cpp, @function
_GLOBAL__sub_I_Timer.cpp:
.LFB7887:
	.cfi_startproc
	subq	$8, %rsp
	.cfi_def_cfa_offset 16
	movq	_ZGVZN4asio15system_categoryEvE8instance@GOTPCREL(%rip), %rax
	movzbl	(%rax), %eax
	testb	%al, %al
	je	.L928
.L898:
	movq	_ZGVZN4asio5error18get_netdb_categoryEvE8instance@GOTPCREL(%rip), %rax
	movzbl	(%rax), %eax
	testb	%al, %al
	je	.L929
.L901:
	movq	_ZGVZN4asio5error21get_addrinfo_categoryEvE8instance@GOTPCREL(%rip), %rax
	movzbl	(%rax), %eax
	testb	%al, %al
	je	.L930
.L904:
	movq	_ZGVZN4asio5error17get_misc_categoryEvE8instance@GOTPCREL(%rip), %rax
	movzbl	(%rax), %eax
	testb	%al, %al
	je	.L931
.L907:
	movq	_ZGVN4asio6detail10call_stackINS0_15task_io_serviceENS0_27task_io_service_thread_infoEE4top_E@GOTPCREL(%rip), %rax
	cmpb	$0, (%rax)
	jne	.L909
	movb	$1, (%rax)
.L909:
	movq	_ZGVN4asio6detail12service_baseINS0_13epoll_reactorEE2idE@GOTPCREL(%rip), %rax
	cmpb	$0, (%rax)
	jne	.L910
	movb	$1, (%rax)
.L910:
	movq	_ZGVN4asio6detail12service_baseINS0_15task_io_serviceEE2idE@GOTPCREL(%rip), %rax
	cmpb	$0, (%rax)
	jne	.L911
	movb	$1, (%rax)
.L911:
	movq	_ZGVN4asio6detail10call_stackINS0_14strand_service11strand_implEhE4top_E@GOTPCREL(%rip), %rax
	cmpb	$0, (%rax)
	jne	.L912
	movb	$1, (%rax)
.L912:
	movq	_ZGVN4asio6detail12service_baseINS0_14strand_serviceEE2idE@GOTPCREL(%rip), %rax
	cmpb	$0, (%rax)
	jne	.L913
	movb	$1, (%rax)
.L913:
	movq	_ZGVN4asio6detail12service_baseINS_22waitable_timer_serviceINSt6chrono3_V212steady_clockENS_11wait_traitsIS5_EEEEE2idE@GOTPCREL(%rip), %rax
	cmpb	$0, (%rax)
	jne	.L896
	movb	$1, (%rax)
.L896:
	addq	$8, %rsp
	.cfi_remember_state
	.cfi_def_cfa_offset 8
	ret
.L928:
	.cfi_restore_state
	movq	_ZGVZN4asio15system_categoryEvE8instance@GOTPCREL(%rip), %rdi
	call	__cxa_guard_acquire@PLT
	testl	%eax, %eax
	je	.L898
	movq	_ZZN4asio15system_categoryEvE8instance@GOTPCREL(%rip), %rsi
	movq	_ZN4asio6detail15system_categoryD1Ev@GOTPCREL(%rip), %rdi
	leaq	__dso_handle(%rip), %rdx
	call	__cxa_atexit@PLT
	movq	_ZGVZN4asio15system_categoryEvE8instance@GOTPCREL(%rip), %rdi
	call	__cxa_guard_release@PLT
	jmp	.L898
.L931:
	movq	_ZGVZN4asio5error17get_misc_categoryEvE8instance@GOTPCREL(%rip), %rdi
	call	__cxa_guard_acquire@PLT
	testl	%eax, %eax
	je	.L907
	movq	_ZZN4asio5error17get_misc_categoryEvE8instance@GOTPCREL(%rip), %rsi
	movq	_ZN4asio5error6detail13misc_categoryD1Ev@GOTPCREL(%rip), %rdi
	leaq	__dso_handle(%rip), %rdx
	call	__cxa_atexit@PLT
	movq	_ZGVZN4asio5error17get_misc_categoryEvE8instance@GOTPCREL(%rip), %rdi
	call	__cxa_guard_release@PLT
	jmp	.L907
.L930:
	movq	_ZGVZN4asio5error21get_addrinfo_categoryEvE8instance@GOTPCREL(%rip), %rdi
	call	__cxa_guard_acquire@PLT
	testl	%eax, %eax
	je	.L904
	movq	_ZZN4asio5error21get_addrinfo_categoryEvE8instance@GOTPCREL(%rip), %rsi
	movq	_ZN4asio5error6detail17addrinfo_categoryD1Ev@GOTPCREL(%rip), %rdi
	leaq	__dso_handle(%rip), %rdx
	call	__cxa_atexit@PLT
	movq	_ZGVZN4asio5error21get_addrinfo_categoryEvE8instance@GOTPCREL(%rip), %rdi
	call	__cxa_guard_release@PLT
	jmp	.L904
.L929:
	movq	_ZGVZN4asio5error18get_netdb_categoryEvE8instance@GOTPCREL(%rip), %rdi
	call	__cxa_guard_acquire@PLT
	testl	%eax, %eax
	je	.L901
	movq	_ZZN4asio5error18get_netdb_categoryEvE8instance@GOTPCREL(%rip), %rsi
	movq	_ZN4asio5error6detail14netdb_categoryD1Ev@GOTPCREL(%rip), %rdi
	leaq	__dso_handle(%rip), %rdx
	call	__cxa_atexit@PLT
	movq	_ZGVZN4asio5error18get_netdb_categoryEvE8instance@GOTPCREL(%rip), %rdi
	call	__cxa_guard_release@PLT
	jmp	.L901
	.cfi_endproc
.LFE7887:
	.size	_GLOBAL__sub_I_Timer.cpp, .-_GLOBAL__sub_I_Timer.cpp
	.section	.init_array,"aw"
	.align 8
	.quad	_GLOBAL__sub_I_Timer.cpp
	.weak	_ZTSN7openpal10UncopyableE
	.section	.rodata._ZTSN7openpal10UncopyableE,"aG",@progbits,_ZTSN7openpal10UncopyableE,comdat
	.align 16
	.type	_ZTSN7openpal10UncopyableE, @object
	.size	_ZTSN7openpal10UncopyableE, 23
_ZTSN7openpal10UncopyableE:
	.string	"N7openpal10UncopyableE"
	.weak	_ZTIN7openpal10UncopyableE
	.section	.data.rel.ro._ZTIN7openpal10UncopyableE,"awG",@progbits,_ZTIN7openpal10UncopyableE,comdat
	.align 8
	.type	_ZTIN7openpal10UncopyableE, @object
	.size	_ZTIN7openpal10UncopyableE, 16
_ZTIN7openpal10UncopyableE:
	.quad	_ZTVN10__cxxabiv117__class_type_infoE+16
	.quad	_ZTSN7openpal10UncopyableE
	.weak	_ZTSN4asio6detail11noncopyableE
	.section	.rodata._ZTSN4asio6detail11noncopyableE,"aG",@progbits,_ZTSN4asio6detail11noncopyableE,comdat
	.align 16
	.type	_ZTSN4asio6detail11noncopyableE, @object
	.size	_ZTSN4asio6detail11noncopyableE, 28
_ZTSN4asio6detail11noncopyableE:
	.string	"N4asio6detail11noncopyableE"
	.weak	_ZTIN4asio6detail11noncopyableE
	.section	.data.rel.ro._ZTIN4asio6detail11noncopyableE,"awG",@progbits,_ZTIN4asio6detail11noncopyableE,comdat
	.align 8
	.type	_ZTIN4asio6detail11noncopyableE, @object
	.size	_ZTIN4asio6detail11noncopyableE, 16
_ZTIN4asio6detail11noncopyableE:
	.quad	_ZTVN10__cxxabiv117__class_type_infoE+16
	.quad	_ZTSN4asio6detail11noncopyableE
	.weak	_ZGVN4asio6detail12service_baseINS_22waitable_timer_serviceINSt6chrono3_V212steady_clockENS_11wait_traitsIS5_EEEEE2idE
	.section	.bss._ZGVN4asio6detail12service_baseINS_22waitable_timer_serviceINSt6chrono3_V212steady_clockENS_11wait_traitsIS5_EEEEE2idE,"awG",@nobits,_ZGVN4asio6detail12service_baseINS_22waitable_timer_serviceINSt6chrono3_V212steady_clockENS_11wait_traitsIS5_EEEEE2idE,comdat
	.align 8
	.type	_ZGVN4asio6detail12service_baseINS_22waitable_timer_serviceINSt6chrono3_V212steady_clockENS_11wait_traitsIS5_EEEEE2idE, @gnu_unique_object
	.size	_ZGVN4asio6detail12service_baseINS_22waitable_timer_serviceINSt6chrono3_V212steady_clockENS_11wait_traitsIS5_EEEEE2idE, 8
_ZGVN4asio6detail12service_baseINS_22waitable_timer_serviceINSt6chrono3_V212steady_clockENS_11wait_traitsIS5_EEEEE2idE:
	.zero	8
	.weak	_ZGVN4asio6detail12service_baseINS0_14strand_serviceEE2idE
	.section	.bss._ZGVN4asio6detail12service_baseINS0_14strand_serviceEE2idE,"awG",@nobits,_ZGVN4asio6detail12service_baseINS0_14strand_serviceEE2idE,comdat
	.align 8
	.type	_ZGVN4asio6detail12service_baseINS0_14strand_serviceEE2idE, @gnu_unique_object
	.size	_ZGVN4asio6detail12service_baseINS0_14strand_serviceEE2idE, 8
_ZGVN4asio6detail12service_baseINS0_14strand_serviceEE2idE:
	.zero	8
	.weak	_ZGVN4asio6detail10call_stackINS0_14strand_service11strand_implEhE4top_E
	.section	.bss._ZGVN4asio6detail10call_stackINS0_14strand_service11strand_implEhE4top_E,"awG",@nobits,_ZGVN4asio6detail10call_stackINS0_14strand_service11strand_implEhE4top_E,comdat
	.align 8
	.type	_ZGVN4asio6detail10call_stackINS0_14strand_service11strand_implEhE4top_E, @gnu_unique_object
	.size	_ZGVN4asio6detail10call_stackINS0_14strand_service11strand_implEhE4top_E, 8
_ZGVN4asio6detail10call_stackINS0_14strand_service11strand_implEhE4top_E:
	.zero	8
	.weak	_ZGVN4asio6detail12service_baseINS0_15task_io_serviceEE2idE
	.section	.bss._ZGVN4asio6detail12service_baseINS0_15task_io_serviceEE2idE,"awG",@nobits,_ZGVN4asio6detail12service_baseINS0_15task_io_serviceEE2idE,comdat
	.align 8
	.type	_ZGVN4asio6detail12service_baseINS0_15task_io_serviceEE2idE, @gnu_unique_object
	.size	_ZGVN4asio6detail12service_baseINS0_15task_io_serviceEE2idE, 8
_ZGVN4asio6detail12service_baseINS0_15task_io_serviceEE2idE:
	.zero	8
	.weak	_ZGVN4asio6detail12service_baseINS0_13epoll_reactorEE2idE
	.section	.bss._ZGVN4asio6detail12service_baseINS0_13epoll_reactorEE2idE,"awG",@nobits,_ZGVN4asio6detail12service_baseINS0_13epoll_reactorEE2idE,comdat
	.align 8
	.type	_ZGVN4asio6detail12service_baseINS0_13epoll_reactorEE2idE, @gnu_unique_object
	.size	_ZGVN4asio6detail12service_baseINS0_13epoll_reactorEE2idE, 8
_ZGVN4asio6detail12service_baseINS0_13epoll_reactorEE2idE:
	.zero	8
	.weak	_ZGVN4asio6detail10call_stackINS0_15task_io_serviceENS0_27task_io_service_thread_infoEE4top_E
	.section	.bss._ZGVN4asio6detail10call_stackINS0_15task_io_serviceENS0_27task_io_service_thread_infoEE4top_E,"awG",@nobits,_ZGVN4asio6detail10call_stackINS0_15task_io_serviceENS0_27task_io_service_thread_infoEE4top_E,comdat
	.align 8
	.type	_ZGVN4asio6detail10call_stackINS0_15task_io_serviceENS0_27task_io_service_thread_infoEE4top_E, @gnu_unique_object
	.size	_ZGVN4asio6detail10call_stackINS0_15task_io_serviceENS0_27task_io_service_thread_infoEE4top_E, 8
_ZGVN4asio6detail10call_stackINS0_15task_io_serviceENS0_27task_io_service_thread_infoEE4top_E:
	.zero	8
	.weak	_ZTSN4asio6detail15system_categoryE
	.section	.rodata._ZTSN4asio6detail15system_categoryE,"aG",@progbits,_ZTSN4asio6detail15system_categoryE,comdat
	.align 32
	.type	_ZTSN4asio6detail15system_categoryE, @object
	.size	_ZTSN4asio6detail15system_categoryE, 32
_ZTSN4asio6detail15system_categoryE:
	.string	"N4asio6detail15system_categoryE"
	.weak	_ZTIN4asio6detail15system_categoryE
	.section	.data.rel.ro._ZTIN4asio6detail15system_categoryE,"awG",@progbits,_ZTIN4asio6detail15system_categoryE,comdat
	.align 8
	.type	_ZTIN4asio6detail15system_categoryE, @object
	.size	_ZTIN4asio6detail15system_categoryE, 24
_ZTIN4asio6detail15system_categoryE:
	.quad	_ZTVN10__cxxabiv120__si_class_type_infoE+16
	.quad	_ZTSN4asio6detail15system_categoryE
	.quad	_ZTINSt3_V214error_categoryE
	.weak	_ZTSN4asio10io_service7serviceE
	.section	.rodata._ZTSN4asio10io_service7serviceE,"aG",@progbits,_ZTSN4asio10io_service7serviceE,comdat
	.align 16
	.type	_ZTSN4asio10io_service7serviceE, @object
	.size	_ZTSN4asio10io_service7serviceE, 28
_ZTSN4asio10io_service7serviceE:
	.string	"N4asio10io_service7serviceE"
	.weak	_ZTIN4asio10io_service7serviceE
	.section	.data.rel.ro._ZTIN4asio10io_service7serviceE,"awG",@progbits,_ZTIN4asio10io_service7serviceE,comdat
	.align 8
	.type	_ZTIN4asio10io_service7serviceE, @object
	.size	_ZTIN4asio10io_service7serviceE, 40
_ZTIN4asio10io_service7serviceE:
	.quad	_ZTVN10__cxxabiv121__vmi_class_type_infoE+16
	.quad	_ZTSN4asio10io_service7serviceE
	.long	0
	.long	1
	.quad	_ZTIN4asio6detail11noncopyableE
	.quad	0
	.weak	_ZTSN4asio5error6detail14netdb_categoryE
	.section	.rodata._ZTSN4asio5error6detail14netdb_categoryE,"aG",@progbits,_ZTSN4asio5error6detail14netdb_categoryE,comdat
	.align 32
	.type	_ZTSN4asio5error6detail14netdb_categoryE, @object
	.size	_ZTSN4asio5error6detail14netdb_categoryE, 37
_ZTSN4asio5error6detail14netdb_categoryE:
	.string	"N4asio5error6detail14netdb_categoryE"
	.weak	_ZTIN4asio5error6detail14netdb_categoryE
	.section	.data.rel.ro._ZTIN4asio5error6detail14netdb_categoryE,"awG",@progbits,_ZTIN4asio5error6detail14netdb_categoryE,comdat
	.align 8
	.type	_ZTIN4asio5error6detail14netdb_categoryE, @object
	.size	_ZTIN4asio5error6detail14netdb_categoryE, 24
_ZTIN4asio5error6detail14netdb_categoryE:
	.quad	_ZTVN10__cxxabiv120__si_class_type_infoE+16
	.quad	_ZTSN4asio5error6detail14netdb_categoryE
	.quad	_ZTINSt3_V214error_categoryE
	.weak	_ZTSN4asio5error6detail17addrinfo_categoryE
	.section	.rodata._ZTSN4asio5error6detail17addrinfo_categoryE,"aG",@progbits,_ZTSN4asio5error6detail17addrinfo_categoryE,comdat
	.align 32
	.type	_ZTSN4asio5error6detail17addrinfo_categoryE, @object
	.size	_ZTSN4asio5error6detail17addrinfo_categoryE, 40
_ZTSN4asio5error6detail17addrinfo_categoryE:
	.string	"N4asio5error6detail17addrinfo_categoryE"
	.weak	_ZTIN4asio5error6detail17addrinfo_categoryE
	.section	.data.rel.ro._ZTIN4asio5error6detail17addrinfo_categoryE,"awG",@progbits,_ZTIN4asio5error6detail17addrinfo_categoryE,comdat
	.align 8
	.type	_ZTIN4asio5error6detail17addrinfo_categoryE, @object
	.size	_ZTIN4asio5error6detail17addrinfo_categoryE, 24
_ZTIN4asio5error6detail17addrinfo_categoryE:
	.quad	_ZTVN10__cxxabiv120__si_class_type_infoE+16
	.quad	_ZTSN4asio5error6detail17addrinfo_categoryE
	.quad	_ZTINSt3_V214error_categoryE
	.weak	_ZTSN4asio5error6detail13misc_categoryE
	.section	.rodata._ZTSN4asio5error6detail13misc_categoryE,"aG",@progbits,_ZTSN4asio5error6detail13misc_categoryE,comdat
	.align 32
	.type	_ZTSN4asio5error6detail13misc_categoryE, @object
	.size	_ZTSN4asio5error6detail13misc_categoryE, 36
_ZTSN4asio5error6detail13misc_categoryE:
	.string	"N4asio5error6detail13misc_categoryE"
	.weak	_ZTIN4asio5error6detail13misc_categoryE
	.section	.data.rel.ro._ZTIN4asio5error6detail13misc_categoryE,"awG",@progbits,_ZTIN4asio5error6detail13misc_categoryE,comdat
	.align 8
	.type	_ZTIN4asio5error6detail13misc_categoryE, @object
	.size	_ZTIN4asio5error6detail13misc_categoryE, 24
_ZTIN4asio5error6detail13misc_categoryE:
	.quad	_ZTVN10__cxxabiv120__si_class_type_infoE+16
	.quad	_ZTSN4asio5error6detail13misc_categoryE
	.quad	_ZTINSt3_V214error_categoryE
	.weak	_ZTSN4asio6detail16timer_queue_baseE
	.section	.rodata._ZTSN4asio6detail16timer_queue_baseE,"aG",@progbits,_ZTSN4asio6detail16timer_queue_baseE,comdat
	.align 32
	.type	_ZTSN4asio6detail16timer_queue_baseE, @object
	.size	_ZTSN4asio6detail16timer_queue_baseE, 33
_ZTSN4asio6detail16timer_queue_baseE:
	.string	"N4asio6detail16timer_queue_baseE"
	.weak	_ZTIN4asio6detail16timer_queue_baseE
	.section	.data.rel.ro._ZTIN4asio6detail16timer_queue_baseE,"awG",@progbits,_ZTIN4asio6detail16timer_queue_baseE,comdat
	.align 8
	.type	_ZTIN4asio6detail16timer_queue_baseE, @object
	.size	_ZTIN4asio6detail16timer_queue_baseE, 40
_ZTIN4asio6detail16timer_queue_baseE:
	.quad	_ZTVN10__cxxabiv121__vmi_class_type_infoE+16
	.quad	_ZTSN4asio6detail16timer_queue_baseE
	.long	0
	.long	1
	.quad	_ZTIN4asio6detail11noncopyableE
	.quad	0
	.weak	_ZTSN4asio6detail12service_baseINS0_13epoll_reactorEEE
	.section	.rodata._ZTSN4asio6detail12service_baseINS0_13epoll_reactorEEE,"aG",@progbits,_ZTSN4asio6detail12service_baseINS0_13epoll_reactorEEE,comdat
	.align 32
	.type	_ZTSN4asio6detail12service_baseINS0_13epoll_reactorEEE, @object
	.size	_ZTSN4asio6detail12service_baseINS0_13epoll_reactorEEE, 51
_ZTSN4asio6detail12service_baseINS0_13epoll_reactorEEE:
	.string	"N4asio6detail12service_baseINS0_13epoll_reactorEEE"
	.weak	_ZTIN4asio6detail12service_baseINS0_13epoll_reactorEEE
	.section	.data.rel.ro._ZTIN4asio6detail12service_baseINS0_13epoll_reactorEEE,"awG",@progbits,_ZTIN4asio6detail12service_baseINS0_13epoll_reactorEEE,comdat
	.align 8
	.type	_ZTIN4asio6detail12service_baseINS0_13epoll_reactorEEE, @object
	.size	_ZTIN4asio6detail12service_baseINS0_13epoll_reactorEEE, 24
_ZTIN4asio6detail12service_baseINS0_13epoll_reactorEEE:
	.quad	_ZTVN10__cxxabiv120__si_class_type_infoE+16
	.quad	_ZTSN4asio6detail12service_baseINS0_13epoll_reactorEEE
	.quad	_ZTIN4asio10io_service7serviceE
	.weak	_ZTSN4asio6detail13epoll_reactorE
	.section	.rodata._ZTSN4asio6detail13epoll_reactorE,"aG",@progbits,_ZTSN4asio6detail13epoll_reactorE,comdat
	.align 16
	.type	_ZTSN4asio6detail13epoll_reactorE, @object
	.size	_ZTSN4asio6detail13epoll_reactorE, 30
_ZTSN4asio6detail13epoll_reactorE:
	.string	"N4asio6detail13epoll_reactorE"
	.weak	_ZTIN4asio6detail13epoll_reactorE
	.section	.data.rel.ro._ZTIN4asio6detail13epoll_reactorE,"awG",@progbits,_ZTIN4asio6detail13epoll_reactorE,comdat
	.align 8
	.type	_ZTIN4asio6detail13epoll_reactorE, @object
	.size	_ZTIN4asio6detail13epoll_reactorE, 24
_ZTIN4asio6detail13epoll_reactorE:
	.quad	_ZTVN10__cxxabiv120__si_class_type_infoE+16
	.quad	_ZTSN4asio6detail13epoll_reactorE
	.quad	_ZTIN4asio6detail12service_baseINS0_13epoll_reactorEEE
	.weak	_ZTSN4asio6detail12service_baseINS_22waitable_timer_serviceINSt6chrono3_V212steady_clockENS_11wait_traitsIS5_EEEEEE
	.section	.rodata._ZTSN4asio6detail12service_baseINS_22waitable_timer_serviceINSt6chrono3_V212steady_clockENS_11wait_traitsIS5_EEEEEE,"aG",@progbits,_ZTSN4asio6detail12service_baseINS_22waitable_timer_serviceINSt6chrono3_V212steady_clockENS_11wait_traitsIS5_EEEEEE,comdat
	.align 32
	.type	_ZTSN4asio6detail12service_baseINS_22waitable_timer_serviceINSt6chrono3_V212steady_clockENS_11wait_traitsIS5_EEEEEE, @object
	.size	_ZTSN4asio6detail12service_baseINS_22waitable_timer_serviceINSt6chrono3_V212steady_clockENS_11wait_traitsIS5_EEEEEE, 112
_ZTSN4asio6detail12service_baseINS_22waitable_timer_serviceINSt6chrono3_V212steady_clockENS_11wait_traitsIS5_EEEEEE:
	.string	"N4asio6detail12service_baseINS_22waitable_timer_serviceINSt6chrono3_V212steady_clockENS_11wait_traitsIS5_EEEEEE"
	.weak	_ZTIN4asio6detail12service_baseINS_22waitable_timer_serviceINSt6chrono3_V212steady_clockENS_11wait_traitsIS5_EEEEEE
	.section	.data.rel.ro._ZTIN4asio6detail12service_baseINS_22waitable_timer_serviceINSt6chrono3_V212steady_clockENS_11wait_traitsIS5_EEEEEE,"awG",@progbits,_ZTIN4asio6detail12service_baseINS_22waitable_timer_serviceINSt6chrono3_V212steady_clockENS_11wait_traitsIS5_EEEEEE,comdat
	.align 8
	.type	_ZTIN4asio6detail12service_baseINS_22waitable_timer_serviceINSt6chrono3_V212steady_clockENS_11wait_traitsIS5_EEEEEE, @object
	.size	_ZTIN4asio6detail12service_baseINS_22waitable_timer_serviceINSt6chrono3_V212steady_clockENS_11wait_traitsIS5_EEEEEE, 24
_ZTIN4asio6detail12service_baseINS_22waitable_timer_serviceINSt6chrono3_V212steady_clockENS_11wait_traitsIS5_EEEEEE:
	.quad	_ZTVN10__cxxabiv120__si_class_type_infoE+16
	.quad	_ZTSN4asio6detail12service_baseINS_22waitable_timer_serviceINSt6chrono3_V212steady_clockENS_11wait_traitsIS5_EEEEEE
	.quad	_ZTIN4asio10io_service7serviceE
	.weak	_ZTSN4asio6detail11timer_queueINS0_18chrono_time_traitsINSt6chrono3_V212steady_clockENS_11wait_traitsIS5_EEEEEE
	.section	.rodata._ZTSN4asio6detail11timer_queueINS0_18chrono_time_traitsINSt6chrono3_V212steady_clockENS_11wait_traitsIS5_EEEEEE,"aG",@progbits,_ZTSN4asio6detail11timer_queueINS0_18chrono_time_traitsINSt6chrono3_V212steady_clockENS_11wait_traitsIS5_EEEEEE,comdat
	.align 32
	.type	_ZTSN4asio6detail11timer_queueINS0_18chrono_time_traitsINSt6chrono3_V212steady_clockENS_11wait_traitsIS5_EEEEEE, @object
	.size	_ZTSN4asio6detail11timer_queueINS0_18chrono_time_traitsINSt6chrono3_V212steady_clockENS_11wait_traitsIS5_EEEEEE, 108
_ZTSN4asio6detail11timer_queueINS0_18chrono_time_traitsINSt6chrono3_V212steady_clockENS_11wait_traitsIS5_EEEEEE:
	.string	"N4asio6detail11timer_queueINS0_18chrono_time_traitsINSt6chrono3_V212steady_clockENS_11wait_traitsIS5_EEEEEE"
	.weak	_ZTIN4asio6detail11timer_queueINS0_18chrono_time_traitsINSt6chrono3_V212steady_clockENS_11wait_traitsIS5_EEEEEE
	.section	.data.rel.ro._ZTIN4asio6detail11timer_queueINS0_18chrono_time_traitsINSt6chrono3_V212steady_clockENS_11wait_traitsIS5_EEEEEE,"awG",@progbits,_ZTIN4asio6detail11timer_queueINS0_18chrono_time_traitsINSt6chrono3_V212steady_clockENS_11wait_traitsIS5_EEEEEE,comdat
	.align 8
	.type	_ZTIN4asio6detail11timer_queueINS0_18chrono_time_traitsINSt6chrono3_V212steady_clockENS_11wait_traitsIS5_EEEEEE, @object
	.size	_ZTIN4asio6detail11timer_queueINS0_18chrono_time_traitsINSt6chrono3_V212steady_clockENS_11wait_traitsIS5_EEEEEE, 24
_ZTIN4asio6detail11timer_queueINS0_18chrono_time_traitsINSt6chrono3_V212steady_clockENS_11wait_traitsIS5_EEEEEE:
	.quad	_ZTVN10__cxxabiv120__si_class_type_infoE+16
	.quad	_ZTSN4asio6detail11timer_queueINS0_18chrono_time_traitsINSt6chrono3_V212steady_clockENS_11wait_traitsIS5_EEEEEE
	.quad	_ZTIN4asio6detail16timer_queue_baseE
	.weak	_ZTSN4asio22waitable_timer_serviceINSt6chrono3_V212steady_clockENS_11wait_traitsIS3_EEEE
	.section	.rodata._ZTSN4asio22waitable_timer_serviceINSt6chrono3_V212steady_clockENS_11wait_traitsIS3_EEEE,"aG",@progbits,_ZTSN4asio22waitable_timer_serviceINSt6chrono3_V212steady_clockENS_11wait_traitsIS3_EEEE,comdat
	.align 32
	.type	_ZTSN4asio22waitable_timer_serviceINSt6chrono3_V212steady_clockENS_11wait_traitsIS3_EEEE, @object
	.size	_ZTSN4asio22waitable_timer_serviceINSt6chrono3_V212steady_clockENS_11wait_traitsIS3_EEEE, 85
_ZTSN4asio22waitable_timer_serviceINSt6chrono3_V212steady_clockENS_11wait_traitsIS3_EEEE:
	.string	"N4asio22waitable_timer_serviceINSt6chrono3_V212steady_clockENS_11wait_traitsIS3_EEEE"
	.weak	_ZTIN4asio22waitable_timer_serviceINSt6chrono3_V212steady_clockENS_11wait_traitsIS3_EEEE
	.section	.data.rel.ro._ZTIN4asio22waitable_timer_serviceINSt6chrono3_V212steady_clockENS_11wait_traitsIS3_EEEE,"awG",@progbits,_ZTIN4asio22waitable_timer_serviceINSt6chrono3_V212steady_clockENS_11wait_traitsIS3_EEEE,comdat
	.align 8
	.type	_ZTIN4asio22waitable_timer_serviceINSt6chrono3_V212steady_clockENS_11wait_traitsIS3_EEEE, @object
	.size	_ZTIN4asio22waitable_timer_serviceINSt6chrono3_V212steady_clockENS_11wait_traitsIS3_EEEE, 24
_ZTIN4asio22waitable_timer_serviceINSt6chrono3_V212steady_clockENS_11wait_traitsIS3_EEEE:
	.quad	_ZTVN10__cxxabiv120__si_class_type_infoE+16
	.quad	_ZTSN4asio22waitable_timer_serviceINSt6chrono3_V212steady_clockENS_11wait_traitsIS3_EEEE
	.quad	_ZTIN4asio6detail12service_baseINS_22waitable_timer_serviceINSt6chrono3_V212steady_clockENS_11wait_traitsIS5_EEEEEE
	.weak	_ZTSN7openpal6ITimerE
	.section	.rodata._ZTSN7openpal6ITimerE,"aG",@progbits,_ZTSN7openpal6ITimerE,comdat
	.align 16
	.type	_ZTSN7openpal6ITimerE, @object
	.size	_ZTSN7openpal6ITimerE, 18
_ZTSN7openpal6ITimerE:
	.string	"N7openpal6ITimerE"
	.weak	_ZTIN7openpal6ITimerE
	.section	.data.rel.ro._ZTIN7openpal6ITimerE,"awG",@progbits,_ZTIN7openpal6ITimerE,comdat
	.align 8
	.type	_ZTIN7openpal6ITimerE, @object
	.size	_ZTIN7openpal6ITimerE, 16
_ZTIN7openpal6ITimerE:
	.quad	_ZTVN10__cxxabiv117__class_type_infoE+16
	.quad	_ZTSN7openpal6ITimerE
	.weak	_ZTSN7asiopal5TimerE
	.section	.rodata._ZTSN7asiopal5TimerE,"aG",@progbits,_ZTSN7asiopal5TimerE,comdat
	.align 16
	.type	_ZTSN7asiopal5TimerE, @object
	.size	_ZTSN7asiopal5TimerE, 17
_ZTSN7asiopal5TimerE:
	.string	"N7asiopal5TimerE"
	.weak	_ZTIN7asiopal5TimerE
	.section	.data.rel.ro._ZTIN7asiopal5TimerE,"awG",@progbits,_ZTIN7asiopal5TimerE,comdat
	.align 8
	.type	_ZTIN7asiopal5TimerE, @object
	.size	_ZTIN7asiopal5TimerE, 56
_ZTIN7asiopal5TimerE:
	.quad	_ZTVN10__cxxabiv121__vmi_class_type_infoE+16
	.quad	_ZTSN7asiopal5TimerE
	.long	0
	.long	2
	.quad	_ZTIN7openpal6ITimerE
	.quad	2
	.quad	_ZTIN7openpal10UncopyableE
	.quad	0
	.weak	_ZTSN4asio6detail14typeid_wrapperINS0_13epoll_reactorEEE
	.section	.rodata._ZTSN4asio6detail14typeid_wrapperINS0_13epoll_reactorEEE,"aG",@progbits,_ZTSN4asio6detail14typeid_wrapperINS0_13epoll_reactorEEE,comdat
	.align 32
	.type	_ZTSN4asio6detail14typeid_wrapperINS0_13epoll_reactorEEE, @object
	.size	_ZTSN4asio6detail14typeid_wrapperINS0_13epoll_reactorEEE, 53
_ZTSN4asio6detail14typeid_wrapperINS0_13epoll_reactorEEE:
	.string	"N4asio6detail14typeid_wrapperINS0_13epoll_reactorEEE"
	.weak	_ZTIN4asio6detail14typeid_wrapperINS0_13epoll_reactorEEE
	.section	.data.rel.ro._ZTIN4asio6detail14typeid_wrapperINS0_13epoll_reactorEEE,"awG",@progbits,_ZTIN4asio6detail14typeid_wrapperINS0_13epoll_reactorEEE,comdat
	.align 8
	.type	_ZTIN4asio6detail14typeid_wrapperINS0_13epoll_reactorEEE, @object
	.size	_ZTIN4asio6detail14typeid_wrapperINS0_13epoll_reactorEEE, 16
_ZTIN4asio6detail14typeid_wrapperINS0_13epoll_reactorEEE:
	.quad	_ZTVN10__cxxabiv117__class_type_infoE+16
	.quad	_ZTSN4asio6detail14typeid_wrapperINS0_13epoll_reactorEEE
	.weak	_ZTSN4asio6detail14typeid_wrapperINS_22waitable_timer_serviceINSt6chrono3_V212steady_clockENS_11wait_traitsIS5_EEEEEE
	.section	.rodata._ZTSN4asio6detail14typeid_wrapperINS_22waitable_timer_serviceINSt6chrono3_V212steady_clockENS_11wait_traitsIS5_EEEEEE,"aG",@progbits,_ZTSN4asio6detail14typeid_wrapperINS_22waitable_timer_serviceINSt6chrono3_V212steady_clockENS_11wait_traitsIS5_EEEEEE,comdat
	.align 32
	.type	_ZTSN4asio6detail14typeid_wrapperINS_22waitable_timer_serviceINSt6chrono3_V212steady_clockENS_11wait_traitsIS5_EEEEEE, @object
	.size	_ZTSN4asio6detail14typeid_wrapperINS_22waitable_timer_serviceINSt6chrono3_V212steady_clockENS_11wait_traitsIS5_EEEEEE, 114
_ZTSN4asio6detail14typeid_wrapperINS_22waitable_timer_serviceINSt6chrono3_V212steady_clockENS_11wait_traitsIS5_EEEEEE:
	.string	"N4asio6detail14typeid_wrapperINS_22waitable_timer_serviceINSt6chrono3_V212steady_clockENS_11wait_traitsIS5_EEEEEE"
	.weak	_ZTIN4asio6detail14typeid_wrapperINS_22waitable_timer_serviceINSt6chrono3_V212steady_clockENS_11wait_traitsIS5_EEEEEE
	.section	.data.rel.ro._ZTIN4asio6detail14typeid_wrapperINS_22waitable_timer_serviceINSt6chrono3_V212steady_clockENS_11wait_traitsIS5_EEEEEE,"awG",@progbits,_ZTIN4asio6detail14typeid_wrapperINS_22waitable_timer_serviceINSt6chrono3_V212steady_clockENS_11wait_traitsIS5_EEEEEE,comdat
	.align 8
	.type	_ZTIN4asio6detail14typeid_wrapperINS_22waitable_timer_serviceINSt6chrono3_V212steady_clockENS_11wait_traitsIS5_EEEEEE, @object
	.size	_ZTIN4asio6detail14typeid_wrapperINS_22waitable_timer_serviceINSt6chrono3_V212steady_clockENS_11wait_traitsIS5_EEEEEE, 16
_ZTIN4asio6detail14typeid_wrapperINS_22waitable_timer_serviceINSt6chrono3_V212steady_clockENS_11wait_traitsIS5_EEEEEE:
	.quad	_ZTVN10__cxxabiv117__class_type_infoE+16
	.quad	_ZTSN4asio6detail14typeid_wrapperINS_22waitable_timer_serviceINSt6chrono3_V212steady_clockENS_11wait_traitsIS5_EEEEEE
	.weak	_ZTVN4asio6detail15system_categoryE
	.section	.data.rel.ro._ZTVN4asio6detail15system_categoryE,"awG",@progbits,_ZTVN4asio6detail15system_categoryE,comdat
	.align 8
	.type	_ZTVN4asio6detail15system_categoryE, @object
	.size	_ZTVN4asio6detail15system_categoryE, 80
_ZTVN4asio6detail15system_categoryE:
	.quad	0
	.quad	_ZTIN4asio6detail15system_categoryE
	.quad	_ZN4asio6detail15system_categoryD1Ev
	.quad	_ZN4asio6detail15system_categoryD0Ev
	.quad	_ZNK4asio6detail15system_category4nameEv
	.quad	_ZNKSt3_V214error_category10_M_messageB5cxx11Ei
	.quad	_ZNK4asio6detail15system_category7messageB5cxx11Ei
	.quad	_ZNKSt3_V214error_category23default_error_conditionEi
	.quad	_ZNKSt3_V214error_category10equivalentEiRKSt15error_condition
	.quad	_ZNKSt3_V214error_category10equivalentERKSt10error_codei
	.weak	_ZTVN4asio5error6detail14netdb_categoryE
	.section	.data.rel.ro._ZTVN4asio5error6detail14netdb_categoryE,"awG",@progbits,_ZTVN4asio5error6detail14netdb_categoryE,comdat
	.align 8
	.type	_ZTVN4asio5error6detail14netdb_categoryE, @object
	.size	_ZTVN4asio5error6detail14netdb_categoryE, 80
_ZTVN4asio5error6detail14netdb_categoryE:
	.quad	0
	.quad	_ZTIN4asio5error6detail14netdb_categoryE
	.quad	_ZN4asio5error6detail14netdb_categoryD1Ev
	.quad	_ZN4asio5error6detail14netdb_categoryD0Ev
	.quad	_ZNK4asio5error6detail14netdb_category4nameEv
	.quad	_ZNKSt3_V214error_category10_M_messageB5cxx11Ei
	.quad	_ZNK4asio5error6detail14netdb_category7messageB5cxx11Ei
	.quad	_ZNKSt3_V214error_category23default_error_conditionEi
	.quad	_ZNKSt3_V214error_category10equivalentEiRKSt15error_condition
	.quad	_ZNKSt3_V214error_category10equivalentERKSt10error_codei
	.weak	_ZTVN4asio5error6detail17addrinfo_categoryE
	.section	.data.rel.ro._ZTVN4asio5error6detail17addrinfo_categoryE,"awG",@progbits,_ZTVN4asio5error6detail17addrinfo_categoryE,comdat
	.align 8
	.type	_ZTVN4asio5error6detail17addrinfo_categoryE, @object
	.size	_ZTVN4asio5error6detail17addrinfo_categoryE, 80
_ZTVN4asio5error6detail17addrinfo_categoryE:
	.quad	0
	.quad	_ZTIN4asio5error6detail17addrinfo_categoryE
	.quad	_ZN4asio5error6detail17addrinfo_categoryD1Ev
	.quad	_ZN4asio5error6detail17addrinfo_categoryD0Ev
	.quad	_ZNK4asio5error6detail17addrinfo_category4nameEv
	.quad	_ZNKSt3_V214error_category10_M_messageB5cxx11Ei
	.quad	_ZNK4asio5error6detail17addrinfo_category7messageB5cxx11Ei
	.quad	_ZNKSt3_V214error_category23default_error_conditionEi
	.quad	_ZNKSt3_V214error_category10equivalentEiRKSt15error_condition
	.quad	_ZNKSt3_V214error_category10equivalentERKSt10error_codei
	.weak	_ZTVN4asio5error6detail13misc_categoryE
	.section	.data.rel.ro._ZTVN4asio5error6detail13misc_categoryE,"awG",@progbits,_ZTVN4asio5error6detail13misc_categoryE,comdat
	.align 8
	.type	_ZTVN4asio5error6detail13misc_categoryE, @object
	.size	_ZTVN4asio5error6detail13misc_categoryE, 80
_ZTVN4asio5error6detail13misc_categoryE:
	.quad	0
	.quad	_ZTIN4asio5error6detail13misc_categoryE
	.quad	_ZN4asio5error6detail13misc_categoryD1Ev
	.quad	_ZN4asio5error6detail13misc_categoryD0Ev
	.quad	_ZNK4asio5error6detail13misc_category4nameEv
	.quad	_ZNKSt3_V214error_category10_M_messageB5cxx11Ei
	.quad	_ZNK4asio5error6detail13misc_category7messageB5cxx11Ei
	.quad	_ZNKSt3_V214error_category23default_error_conditionEi
	.quad	_ZNKSt3_V214error_category10equivalentEiRKSt15error_condition
	.quad	_ZNKSt3_V214error_category10equivalentERKSt10error_codei
	.weak	_ZTVN4asio6detail13epoll_reactorE
	.section	.data.rel.ro._ZTVN4asio6detail13epoll_reactorE,"awG",@progbits,_ZTVN4asio6detail13epoll_reactorE,comdat
	.align 8
	.type	_ZTVN4asio6detail13epoll_reactorE, @object
	.size	_ZTVN4asio6detail13epoll_reactorE, 48
_ZTVN4asio6detail13epoll_reactorE:
	.quad	0
	.quad	_ZTIN4asio6detail13epoll_reactorE
	.quad	_ZN4asio6detail13epoll_reactorD1Ev
	.quad	_ZN4asio6detail13epoll_reactorD0Ev
	.quad	_ZN4asio6detail13epoll_reactor16shutdown_serviceEv
	.quad	_ZN4asio6detail13epoll_reactor12fork_serviceENS_10io_service10fork_eventE
	.weak	_ZTVN4asio6detail11timer_queueINS0_18chrono_time_traitsINSt6chrono3_V212steady_clockENS_11wait_traitsIS5_EEEEEE
	.section	.data.rel.ro._ZTVN4asio6detail11timer_queueINS0_18chrono_time_traitsINSt6chrono3_V212steady_clockENS_11wait_traitsIS5_EEEEEE,"awG",@progbits,_ZTVN4asio6detail11timer_queueINS0_18chrono_time_traitsINSt6chrono3_V212steady_clockENS_11wait_traitsIS5_EEEEEE,comdat
	.align 8
	.type	_ZTVN4asio6detail11timer_queueINS0_18chrono_time_traitsINSt6chrono3_V212steady_clockENS_11wait_traitsIS5_EEEEEE, @object
	.size	_ZTVN4asio6detail11timer_queueINS0_18chrono_time_traitsINSt6chrono3_V212steady_clockENS_11wait_traitsIS5_EEEEEE, 72
_ZTVN4asio6detail11timer_queueINS0_18chrono_time_traitsINSt6chrono3_V212steady_clockENS_11wait_traitsIS5_EEEEEE:
	.quad	0
	.quad	_ZTIN4asio6detail11timer_queueINS0_18chrono_time_traitsINSt6chrono3_V212steady_clockENS_11wait_traitsIS5_EEEEEE
	.quad	_ZN4asio6detail11timer_queueINS0_18chrono_time_traitsINSt6chrono3_V212steady_clockENS_11wait_traitsIS5_EEEEED1Ev
	.quad	_ZN4asio6detail11timer_queueINS0_18chrono_time_traitsINSt6chrono3_V212steady_clockENS_11wait_traitsIS5_EEEEED0Ev
	.quad	_ZNK4asio6detail11timer_queueINS0_18chrono_time_traitsINSt6chrono3_V212steady_clockENS_11wait_traitsIS5_EEEEE5emptyEv
	.quad	_ZNK4asio6detail11timer_queueINS0_18chrono_time_traitsINSt6chrono3_V212steady_clockENS_11wait_traitsIS5_EEEEE18wait_duration_msecEl
	.quad	_ZNK4asio6detail11timer_queueINS0_18chrono_time_traitsINSt6chrono3_V212steady_clockENS_11wait_traitsIS5_EEEEE18wait_duration_usecEl
	.quad	_ZN4asio6detail11timer_queueINS0_18chrono_time_traitsINSt6chrono3_V212steady_clockENS_11wait_traitsIS5_EEEEE16get_ready_timersERNS0_8op_queueINS0_25task_io_service_operationEEE
	.quad	_ZN4asio6detail11timer_queueINS0_18chrono_time_traitsINSt6chrono3_V212steady_clockENS_11wait_traitsIS5_EEEEE14get_all_timersERNS0_8op_queueINS0_25task_io_service_operationEEE
	.weak	_ZTVN4asio22waitable_timer_serviceINSt6chrono3_V212steady_clockENS_11wait_traitsIS3_EEEE
	.section	.data.rel.ro._ZTVN4asio22waitable_timer_serviceINSt6chrono3_V212steady_clockENS_11wait_traitsIS3_EEEE,"awG",@progbits,_ZTVN4asio22waitable_timer_serviceINSt6chrono3_V212steady_clockENS_11wait_traitsIS3_EEEE,comdat
	.align 8
	.type	_ZTVN4asio22waitable_timer_serviceINSt6chrono3_V212steady_clockENS_11wait_traitsIS3_EEEE, @object
	.size	_ZTVN4asio22waitable_timer_serviceINSt6chrono3_V212steady_clockENS_11wait_traitsIS3_EEEE, 48
_ZTVN4asio22waitable_timer_serviceINSt6chrono3_V212steady_clockENS_11wait_traitsIS3_EEEE:
	.quad	0
	.quad	_ZTIN4asio22waitable_timer_serviceINSt6chrono3_V212steady_clockENS_11wait_traitsIS3_EEEE
	.quad	_ZN4asio22waitable_timer_serviceINSt6chrono3_V212steady_clockENS_11wait_traitsIS3_EEED1Ev
	.quad	_ZN4asio22waitable_timer_serviceINSt6chrono3_V212steady_clockENS_11wait_traitsIS3_EEED0Ev
	.quad	_ZN4asio22waitable_timer_serviceINSt6chrono3_V212steady_clockENS_11wait_traitsIS3_EEE16shutdown_serviceEv
	.quad	_ZN4asio10io_service7service12fork_serviceENS0_10fork_eventE
	.weak	_ZTVN7asiopal5TimerE
	.section	.data.rel.ro._ZTVN7asiopal5TimerE,"awG",@progbits,_ZTVN7asiopal5TimerE,comdat
	.align 8
	.type	_ZTVN7asiopal5TimerE, @object
	.size	_ZTVN7asiopal5TimerE, 48
_ZTVN7asiopal5TimerE:
	.quad	0
	.quad	_ZTIN7asiopal5TimerE
	.quad	_ZN7asiopal5TimerD1Ev
	.quad	_ZN7asiopal5TimerD0Ev
	.quad	_ZN7asiopal5Timer6CancelEv
	.quad	_ZN7asiopal5Timer9ExpiresAtEv
	.weak	_ZGVZN4asio5error17get_misc_categoryEvE8instance
	.section	.bss._ZGVZN4asio5error17get_misc_categoryEvE8instance,"awG",@nobits,_ZGVZN4asio5error17get_misc_categoryEvE8instance,comdat
	.align 8
	.type	_ZGVZN4asio5error17get_misc_categoryEvE8instance, @gnu_unique_object
	.size	_ZGVZN4asio5error17get_misc_categoryEvE8instance, 8
_ZGVZN4asio5error17get_misc_categoryEvE8instance:
	.zero	8
	.weak	_ZZN4asio5error17get_misc_categoryEvE8instance
	.section	.data.rel._ZZN4asio5error17get_misc_categoryEvE8instance,"awG",@progbits,_ZZN4asio5error17get_misc_categoryEvE8instance,comdat
	.align 8
	.type	_ZZN4asio5error17get_misc_categoryEvE8instance, @gnu_unique_object
	.size	_ZZN4asio5error17get_misc_categoryEvE8instance, 8
_ZZN4asio5error17get_misc_categoryEvE8instance:
	.quad	_ZTVN4asio5error6detail13misc_categoryE+16
	.weak	_ZGVZN4asio5error21get_addrinfo_categoryEvE8instance
	.section	.bss._ZGVZN4asio5error21get_addrinfo_categoryEvE8instance,"awG",@nobits,_ZGVZN4asio5error21get_addrinfo_categoryEvE8instance,comdat
	.align 8
	.type	_ZGVZN4asio5error21get_addrinfo_categoryEvE8instance, @gnu_unique_object
	.size	_ZGVZN4asio5error21get_addrinfo_categoryEvE8instance, 8
_ZGVZN4asio5error21get_addrinfo_categoryEvE8instance:
	.zero	8
	.weak	_ZZN4asio5error21get_addrinfo_categoryEvE8instance
	.section	.data.rel._ZZN4asio5error21get_addrinfo_categoryEvE8instance,"awG",@progbits,_ZZN4asio5error21get_addrinfo_categoryEvE8instance,comdat
	.align 8
	.type	_ZZN4asio5error21get_addrinfo_categoryEvE8instance, @gnu_unique_object
	.size	_ZZN4asio5error21get_addrinfo_categoryEvE8instance, 8
_ZZN4asio5error21get_addrinfo_categoryEvE8instance:
	.quad	_ZTVN4asio5error6detail17addrinfo_categoryE+16
	.weak	_ZGVZN4asio5error18get_netdb_categoryEvE8instance
	.section	.bss._ZGVZN4asio5error18get_netdb_categoryEvE8instance,"awG",@nobits,_ZGVZN4asio5error18get_netdb_categoryEvE8instance,comdat
	.align 8
	.type	_ZGVZN4asio5error18get_netdb_categoryEvE8instance, @gnu_unique_object
	.size	_ZGVZN4asio5error18get_netdb_categoryEvE8instance, 8
_ZGVZN4asio5error18get_netdb_categoryEvE8instance:
	.zero	8
	.weak	_ZZN4asio5error18get_netdb_categoryEvE8instance
	.section	.data.rel._ZZN4asio5error18get_netdb_categoryEvE8instance,"awG",@progbits,_ZZN4asio5error18get_netdb_categoryEvE8instance,comdat
	.align 8
	.type	_ZZN4asio5error18get_netdb_categoryEvE8instance, @gnu_unique_object
	.size	_ZZN4asio5error18get_netdb_categoryEvE8instance, 8
_ZZN4asio5error18get_netdb_categoryEvE8instance:
	.quad	_ZTVN4asio5error6detail14netdb_categoryE+16
	.weak	_ZGVZN4asio15system_categoryEvE8instance
	.section	.bss._ZGVZN4asio15system_categoryEvE8instance,"awG",@nobits,_ZGVZN4asio15system_categoryEvE8instance,comdat
	.align 8
	.type	_ZGVZN4asio15system_categoryEvE8instance, @gnu_unique_object
	.size	_ZGVZN4asio15system_categoryEvE8instance, 8
_ZGVZN4asio15system_categoryEvE8instance:
	.zero	8
	.weak	_ZZN4asio15system_categoryEvE8instance
	.section	.data.rel._ZZN4asio15system_categoryEvE8instance,"awG",@progbits,_ZZN4asio15system_categoryEvE8instance,comdat
	.align 8
	.type	_ZZN4asio15system_categoryEvE8instance, @gnu_unique_object
	.size	_ZZN4asio15system_categoryEvE8instance, 8
_ZZN4asio15system_categoryEvE8instance:
	.quad	_ZTVN4asio6detail15system_categoryE+16
	.weak	_ZN4asio6detail15keyword_tss_ptrINS0_10call_stackINS0_15task_io_serviceENS0_27task_io_service_thread_infoEE7contextEE6value_E
	.section	.tbss._ZN4asio6detail15keyword_tss_ptrINS0_10call_stackINS0_15task_io_serviceENS0_27task_io_service_thread_infoEE7contextEE6value_E,"awTG",@nobits,_ZN4asio6detail15keyword_tss_ptrINS0_10call_stackINS0_15task_io_serviceENS0_27task_io_service_thread_infoEE7contextEE6value_E,comdat
	.align 8
	.type	_ZN4asio6detail15keyword_tss_ptrINS0_10call_stackINS0_15task_io_serviceENS0_27task_io_service_thread_infoEE7contextEE6value_E, @gnu_unique_object
	.size	_ZN4asio6detail15keyword_tss_ptrINS0_10call_stackINS0_15task_io_serviceENS0_27task_io_service_thread_infoEE7contextEE6value_E, 8
_ZN4asio6detail15keyword_tss_ptrINS0_10call_stackINS0_15task_io_serviceENS0_27task_io_service_thread_infoEE7contextEE6value_E:
	.zero	8
	.section	.rodata.cst16,"aM",@progbits,16
	.align 16
.LC5:
	.quad	8028075772644520015
	.quad	7310593917846626414
	.align 16
.LC7:
	.quad	2334381286471394643
	.quad	7959390400869068654
	.align 16
.LC8:
	.quad	8367816086596579155
	.quad	2338616625292734585
	.align 16
.LC9:
	.quad	8295758535554262384
	.quad	7234316411285303413
	.align 16
.LC10:
	.quad	7234013753529430881
	.quad	8243030355803531634
	.align 16
.LC11:
	.quad	2338615488418245701
	.quad	7959390400869068654
	.align 16
.LC12:
	.quad	7166182912791242836
	.quad	7214892426067994994
	.align 16
.LC13:
	.quad	2338616625293649263
	.quad	8031165433303558502
	.align 16
.LC14:
	.quad	7810775711721485344
	.quad	7812726531955123045
	.align 16
.LC15:
	.quad	2840764630494639203
	.quad	8387236734590918771
	.align 16
.LC16:
	.quad	8390045716486254408
	.quad	2891421386351273504
	.align 16
.LC17:
	.quad	8245924292133464096
	.quad	2982920523499009129
	.align 16
.LC18:
	.quad	7526769937477431150
	.quad	8532478930943832687
	.align 16
.LC19:
	.quad	2340027324477221221
	.quad	7020021577750243169
	.align 16
.LC20:
	.quad	8243123821706831956
	.quad	7809653110584451193
	.align 16
.LC21:
	.quad	2338623170819155049
	.quad	2338324160631043177
	.align 16
.LC22:
	.quad	7311138144931573614
	.quad	7019250824563089696
	.align 16
.LC23:
	.quad	7309955097514876993
	.quad	7809911847770287971
	.align 16
.LC24:
	.quad	2338053693894893669
	.quad	7234314212361855855
	.align 16
.LC25:
	.quad	2334956330985808928
	.quad	7310293695322153316
	.align 16
.LC26:
	.quad	8387231026764149601
	.quad	8245935278387126884
	.hidden	DW.ref.__gxx_personality_v0
	.weak	DW.ref.__gxx_personality_v0
	.section	.data.rel.local.DW.ref.__gxx_personality_v0,"awG",@progbits,DW.ref.__gxx_personality_v0,comdat
	.align 8
	.type	DW.ref.__gxx_personality_v0, @object
	.size	DW.ref.__gxx_personality_v0, 8
DW.ref.__gxx_personality_v0:
	.quad	__gxx_personality_v0
	.hidden	__dso_handle
	.globl	__gxx_personality_v0
	.ident	"GCC: (Debian 15.2.0-4) 15.2.0"
	.section	.note.GNU-stack,"",@progbits
