	.file	"SecurityStat.cpp"
	.text
	.align 2
	.p2align 4
	.globl	_ZN8opendnp312SecurityStatC2Ev
	.type	_ZN8opendnp312SecurityStatC2Ev, @function
_ZN8opendnp312SecurityStatC2Ev:
.LFB32:
	.cfi_startproc
	movq	$2, (%rdi)
	movq	$0, 8(%rdi)
	movq	$0, 16(%rdi)
	ret
	.cfi_endproc
.LFE32:
	.size	_ZN8opendnp312SecurityStatC2Ev, .-_ZN8opendnp312SecurityStatC2Ev
	.globl	_ZN8opendnp312SecurityStatC1Ev
	.set	_ZN8opendnp312SecurityStatC1Ev,_ZN8opendnp312SecurityStatC2Ev
	.align 2
	.p2align 4
	.globl	_ZN8opendnp312SecurityStatC2ENS0_5ValueEhN7openpal10UInt48TypeE
	.type	_ZN8opendnp312SecurityStatC2ENS0_5ValueEhN7openpal10UInt48TypeE, @function
_ZN8opendnp312SecurityStatC2ENS0_5ValueEhN7openpal10UInt48TypeE:
.LFB35:
	.cfi_startproc
	movb	%dl, (%rdi)
	movq	%rsi, 4(%rdi)
	movq	%rcx, 16(%rdi)
	ret
	.cfi_endproc
.LFE35:
	.size	_ZN8opendnp312SecurityStatC2ENS0_5ValueEhN7openpal10UInt48TypeE, .-_ZN8opendnp312SecurityStatC2ENS0_5ValueEhN7openpal10UInt48TypeE
	.globl	_ZN8opendnp312SecurityStatC1ENS0_5ValueEhN7openpal10UInt48TypeE
	.set	_ZN8opendnp312SecurityStatC1ENS0_5ValueEhN7openpal10UInt48TypeE,_ZN8opendnp312SecurityStatC2ENS0_5ValueEhN7openpal10UInt48TypeE
	.align 2
	.p2align 4
	.globl	_ZN8opendnp312SecurityStatC2Ehtj
	.type	_ZN8opendnp312SecurityStatC2Ehtj, @function
_ZN8opendnp312SecurityStatC2Ehtj:
.LFB38:
	.cfi_startproc
	movq	$0, 4(%rdi)
	movb	%sil, (%rdi)
	movw	%dx, 4(%rdi)
	movl	%ecx, 8(%rdi)
	movq	$0, 16(%rdi)
	ret
	.cfi_endproc
.LFE38:
	.size	_ZN8opendnp312SecurityStatC2Ehtj, .-_ZN8opendnp312SecurityStatC2Ehtj
	.globl	_ZN8opendnp312SecurityStatC1Ehtj
	.set	_ZN8opendnp312SecurityStatC1Ehtj,_ZN8opendnp312SecurityStatC2Ehtj
	.align 2
	.p2align 4
	.globl	_ZN8opendnp312SecurityStatC2EhtjN7openpal10UInt48TypeE
	.type	_ZN8opendnp312SecurityStatC2EhtjN7openpal10UInt48TypeE, @function
_ZN8opendnp312SecurityStatC2EhtjN7openpal10UInt48TypeE:
.LFB41:
	.cfi_startproc
	movq	$0, 4(%rdi)
	movb	%sil, (%rdi)
	movw	%dx, 4(%rdi)
	movl	%ecx, 8(%rdi)
	movq	%r8, 16(%rdi)
	ret
	.cfi_endproc
.LFE41:
	.size	_ZN8opendnp312SecurityStatC2EhtjN7openpal10UInt48TypeE, .-_ZN8opendnp312SecurityStatC2EhtjN7openpal10UInt48TypeE
	.globl	_ZN8opendnp312SecurityStatC1EhtjN7openpal10UInt48TypeE
	.set	_ZN8opendnp312SecurityStatC1EhtjN7openpal10UInt48TypeE,_ZN8opendnp312SecurityStatC2EhtjN7openpal10UInt48TypeE
	.ident	"GCC: (Debian 15.2.0-4) 15.2.0"
	.section	.note.GNU-stack,"",@progbits
