	.file	"AssignClassTask.cpp"
	.text
	.section	.text._ZN8opendnp318IMasterApplication24AssignClassDuringStartupEv,"axG",@progbits,_ZN8opendnp318IMasterApplication24AssignClassDuringStartupEv,comdat
	.align 2
	.p2align 4
	.weak	_ZN8opendnp318IMasterApplication24AssignClassDuringStartupEv
	.type	_ZN8opendnp318IMasterApplication24AssignClassDuringStartupEv, @function
_ZN8opendnp318IMasterApplication24AssignClassDuringStartupEv:
.LFB2372:
	.cfi_startproc
	xorl	%eax, %eax
	ret
	.cfi_endproc
.LFE2372:
	.size	_ZN8opendnp318IMasterApplication24AssignClassDuringStartupEv, .-_ZN8opendnp318IMasterApplication24AssignClassDuringStartupEv
	.section	.text._ZN8opendnp318IMasterApplication27ConfigureAssignClassRequestERKSt8functionIFvRKNS_6HeaderEEE,"axG",@progbits,_ZN8opendnp318IMasterApplication27ConfigureAssignClassRequestERKSt8functionIFvRKNS_6HeaderEEE,comdat
	.align 2
	.p2align 4
	.weak	_ZN8opendnp318IMasterApplication27ConfigureAssignClassRequestERKSt8functionIFvRKNS_6HeaderEEE
	.type	_ZN8opendnp318IMasterApplication27ConfigureAssignClassRequestERKSt8functionIFvRKNS_6HeaderEEE, @function
_ZN8opendnp318IMasterApplication27ConfigureAssignClassRequestERKSt8functionIFvRKNS_6HeaderEEE:
.LFB2373:
	.cfi_startproc
	ret
	.cfi_endproc
.LFE2373:
	.size	_ZN8opendnp318IMasterApplication27ConfigureAssignClassRequestERKSt8functionIFvRKNS_6HeaderEEE, .-_ZN8opendnp318IMasterApplication27ConfigureAssignClassRequestERKSt8functionIFvRKNS_6HeaderEEE
	.section	.text._ZNK8opendnp311IMasterTask10IsAuthTaskEv,"axG",@progbits,_ZNK8opendnp311IMasterTask10IsAuthTaskEv,comdat
	.align 2
	.p2align 4
	.weak	_ZNK8opendnp311IMasterTask10IsAuthTaskEv
	.type	_ZNK8opendnp311IMasterTask10IsAuthTaskEv, @function
_ZNK8opendnp311IMasterTask10IsAuthTaskEv:
.LFB2381:
	.cfi_startproc
	xorl	%eax, %eax
	ret
	.cfi_endproc
.LFE2381:
	.size	_ZNK8opendnp311IMasterTask10IsAuthTaskEv, .-_ZNK8opendnp311IMasterTask10IsAuthTaskEv
	.section	.text._ZN8opendnp311IMasterTask10InitializeEv,"axG",@progbits,_ZN8opendnp311IMasterTask10InitializeEv,comdat
	.align 2
	.p2align 4
	.weak	_ZN8opendnp311IMasterTask10InitializeEv
	.type	_ZN8opendnp311IMasterTask10InitializeEv, @function
_ZN8opendnp311IMasterTask10InitializeEv:
.LFB2382:
	.cfi_startproc
	ret
	.cfi_endproc
.LFE2382:
	.size	_ZN8opendnp311IMasterTask10InitializeEv, .-_ZN8opendnp311IMasterTask10InitializeEv
	.section	.rodata._ZNK8opendnp315AssignClassTask4NameEv.str1.1,"aMS",@progbits,1
.LC0:
	.string	"Assign Class"
	.section	.text._ZNK8opendnp315AssignClassTask4NameEv,"axG",@progbits,_ZNK8opendnp315AssignClassTask4NameEv,comdat
	.align 2
	.p2align 4
	.weak	_ZNK8opendnp315AssignClassTask4NameEv
	.type	_ZNK8opendnp315AssignClassTask4NameEv, @function
_ZNK8opendnp315AssignClassTask4NameEv:
.LFB2383:
	.cfi_startproc
	leaq	.LC0(%rip), %rax
	ret
	.cfi_endproc
.LFE2383:
	.size	_ZNK8opendnp315AssignClassTask4NameEv, .-_ZNK8opendnp315AssignClassTask4NameEv
	.section	.text._ZNK8opendnp315AssignClassTask11IsRecurringEv,"axG",@progbits,_ZNK8opendnp315AssignClassTask11IsRecurringEv,comdat
	.align 2
	.p2align 4
	.weak	_ZNK8opendnp315AssignClassTask11IsRecurringEv
	.type	_ZNK8opendnp315AssignClassTask11IsRecurringEv, @function
_ZNK8opendnp315AssignClassTask11IsRecurringEv:
.LFB2384:
	.cfi_startproc
	movl	$1, %eax
	ret
	.cfi_endproc
.LFE2384:
	.size	_ZNK8opendnp315AssignClassTask11IsRecurringEv, .-_ZNK8opendnp315AssignClassTask11IsRecurringEv
	.section	.text._ZNK8opendnp315AssignClassTask8PriorityEv,"axG",@progbits,_ZNK8opendnp315AssignClassTask8PriorityEv,comdat
	.align 2
	.p2align 4
	.weak	_ZNK8opendnp315AssignClassTask8PriorityEv
	.type	_ZNK8opendnp315AssignClassTask8PriorityEv, @function
_ZNK8opendnp315AssignClassTask8PriorityEv:
.LFB2385:
	.cfi_startproc
	movl	$140, %eax
	ret
	.cfi_endproc
.LFE2385:
	.size	_ZNK8opendnp315AssignClassTask8PriorityEv, .-_ZNK8opendnp315AssignClassTask8PriorityEv
	.section	.text._ZNK8opendnp315AssignClassTask19BlocksLowerPriorityEv,"axG",@progbits,_ZNK8opendnp315AssignClassTask19BlocksLowerPriorityEv,comdat
	.align 2
	.p2align 4
	.weak	_ZNK8opendnp315AssignClassTask19BlocksLowerPriorityEv
	.type	_ZNK8opendnp315AssignClassTask19BlocksLowerPriorityEv, @function
_ZNK8opendnp315AssignClassTask19BlocksLowerPriorityEv:
.LFB2386:
	.cfi_startproc
	movl	$1, %eax
	ret
	.cfi_endproc
.LFE2386:
	.size	_ZNK8opendnp315AssignClassTask19BlocksLowerPriorityEv, .-_ZNK8opendnp315AssignClassTask19BlocksLowerPriorityEv
	.section	.text._ZNK8opendnp315AssignClassTask11GetTaskTypeEv,"axG",@progbits,_ZNK8opendnp315AssignClassTask11GetTaskTypeEv,comdat
	.align 2
	.p2align 4
	.weak	_ZNK8opendnp315AssignClassTask11GetTaskTypeEv
	.type	_ZNK8opendnp315AssignClassTask11GetTaskTypeEv, @function
_ZNK8opendnp315AssignClassTask11GetTaskTypeEv:
.LFB2387:
	.cfi_startproc
	movl	$2, %eax
	ret
	.cfi_endproc
.LFE2387:
	.size	_ZNK8opendnp315AssignClassTask11GetTaskTypeEv, .-_ZNK8opendnp315AssignClassTask11GetTaskTypeEv
	.text
	.p2align 4
	.type	_ZNSt17_Function_handlerIFvRKN8opendnp36HeaderEEZNS0_15AssignClassTask12BuildRequestERNS0_11APDURequestEhEUlS3_E_E9_M_invokeERKSt9_Any_dataS3_, @function
_ZNSt17_Function_handlerIFvRKN8opendnp36HeaderEEZNS0_15AssignClassTask12BuildRequestERNS0_11APDURequestEhEUlS3_E_E9_M_invokeERKSt9_Any_dataS3_:
.LFB2867:
	.cfi_startproc
	pushq	%rbx
	.cfi_def_cfa_offset 16
	.cfi_offset 3, -16
	movq	%rdi, %rbx
	movq	%rsi, %rdi
	movq	8(%rbx), %rsi
	call	_ZNK8opendnp36Header7WriteToERNS_12HeaderWriterE@PLT
	movl	%eax, %edx
	movq	(%rbx), %rax
	andb	%dl, (%rax)
	popq	%rbx
	.cfi_def_cfa_offset 8
	ret
	.cfi_endproc
.LFE2867:
	.size	_ZNSt17_Function_handlerIFvRKN8opendnp36HeaderEEZNS0_15AssignClassTask12BuildRequestERNS0_11APDURequestEhEUlS3_E_E9_M_invokeERKSt9_Any_dataS3_, .-_ZNSt17_Function_handlerIFvRKN8opendnp36HeaderEEZNS0_15AssignClassTask12BuildRequestERNS0_11APDURequestEhEUlS3_E_E9_M_invokeERKSt9_Any_dataS3_
	.align 2
	.p2align 4
	.globl	_ZN8opendnp315AssignClassTask15ProcessResponseERKNS_18APDUResponseHeaderERKN7openpal6RSliceE
	.type	_ZN8opendnp315AssignClassTask15ProcessResponseERKNS_18APDUResponseHeaderERKN7openpal6RSliceE, @function
_ZN8opendnp315AssignClassTask15ProcessResponseERKNS_18APDUResponseHeaderERKN7openpal6RSliceE:
.LFB2399:
	.cfi_startproc
	subq	$8, %rsp
	.cfi_def_cfa_offset 16
	call	_ZN8opendnp311IMasterTask20ValidateNullResponseERKNS_18APDUResponseHeaderERKN7openpal6RSliceE@PLT
	addq	$8, %rsp
	.cfi_def_cfa_offset 8
	addl	%eax, %eax
	ret
	.cfi_endproc
.LFE2399:
	.size	_ZN8opendnp315AssignClassTask15ProcessResponseERKNS_18APDUResponseHeaderERKN7openpal6RSliceE, .-_ZN8opendnp315AssignClassTask15ProcessResponseERKNS_18APDUResponseHeaderERKN7openpal6RSliceE
	.section	.text._ZN8opendnp315AssignClassTaskD2Ev,"axG",@progbits,_ZN8opendnp315AssignClassTaskD5Ev,comdat
	.align 2
	.p2align 4
	.weak	_ZN8opendnp315AssignClassTaskD2Ev
	.type	_ZN8opendnp315AssignClassTaskD2Ev, @function
_ZN8opendnp315AssignClassTaskD2Ev:
.LFB3102:
	.cfi_startproc
	movq	_ZTVN8opendnp315AssignClassTaskE@GOTPCREL(%rip), %rax
	addq	$16, %rax
	movq	%rax, (%rdi)
	jmp	_ZN8opendnp311IMasterTaskD2Ev@PLT
	.cfi_endproc
.LFE3102:
	.size	_ZN8opendnp315AssignClassTaskD2Ev, .-_ZN8opendnp315AssignClassTaskD2Ev
	.weak	_ZN8opendnp315AssignClassTaskD1Ev
	.set	_ZN8opendnp315AssignClassTaskD1Ev,_ZN8opendnp315AssignClassTaskD2Ev
	.section	.text._ZN8opendnp315AssignClassTaskD0Ev,"axG",@progbits,_ZN8opendnp315AssignClassTaskD5Ev,comdat
	.align 2
	.p2align 4
	.weak	_ZN8opendnp315AssignClassTaskD0Ev
	.type	_ZN8opendnp315AssignClassTaskD0Ev, @function
_ZN8opendnp315AssignClassTaskD0Ev:
.LFB3104:
	.cfi_startproc
	subq	$24, %rsp
	.cfi_def_cfa_offset 32
	movq	_ZTVN8opendnp315AssignClassTaskE@GOTPCREL(%rip), %rax
	movq	%rdi, 8(%rsp)
	addq	$16, %rax
	movq	%rax, (%rdi)
	call	_ZN8opendnp311IMasterTaskD2Ev@PLT
	movq	8(%rsp), %rdi
	movl	$96, %esi
	addq	$24, %rsp
	.cfi_def_cfa_offset 8
	jmp	_ZdlPvm@PLT
	.cfi_endproc
.LFE3104:
	.size	_ZN8opendnp315AssignClassTaskD0Ev, .-_ZN8opendnp315AssignClassTaskD0Ev
	.text
	.align 2
	.p2align 4
	.globl	_ZN8opendnp315AssignClassTask14OnTaskCompleteENS_14TaskCompletionEN7openpal18MonotonicTimestampE
	.type	_ZN8opendnp315AssignClassTask14OnTaskCompleteENS_14TaskCompletionEN7openpal18MonotonicTimestampE, @function
_ZN8opendnp315AssignClassTask14OnTaskCompleteENS_14TaskCompletionEN7openpal18MonotonicTimestampE:
.LFB2400:
	.cfi_startproc
	subq	$40, %rsp
	.cfi_def_cfa_offset 48
	movq	%rdx, 8(%rsp)
	cmpb	$2, %sil
	je	.L19
	cmpb	$-1, %sil
	jne	.L20
	leaq	24(%rsp), %rdi
	xorl	%esi, %esi
	call	_ZN7openpal18MonotonicTimestampC1El@PLT
	movq	24(%rsp), %rax
	xorl	%esi, %esi
	addq	$40, %rsp
	.cfi_remember_state
	.cfi_def_cfa_offset 8
	movq	%rax, %rdi
	movl	%esi, %eax
	movq	%rdi, %rdx
	ret
	.p2align 4,,10
	.p2align 3
.L20:
	.cfi_restore_state
	call	_ZN7openpal18MonotonicTimestamp3MaxEv@PLT
	xorl	%esi, %esi
	addq	$40, %rsp
	.cfi_remember_state
	.cfi_def_cfa_offset 8
	movq	%rax, %rdi
	movl	%esi, %eax
	movq	%rdi, %rdx
	ret
	.p2align 4,,10
	.p2align 3
.L19:
	.cfi_restore_state
	leaq	88(%rdi), %rsi
	leaq	8(%rsp), %rdi
	call	_ZNK7openpal18MonotonicTimestamp3AddERKNS_12TimeDurationE@PLT
	xorl	%esi, %esi
	addq	$40, %rsp
	.cfi_def_cfa_offset 8
	movq	%rax, %rdi
	movl	%esi, %eax
	movq	%rdi, %rdx
	ret
	.cfi_endproc
.LFE2400:
	.size	_ZN8opendnp315AssignClassTask14OnTaskCompleteENS_14TaskCompletionEN7openpal18MonotonicTimestampE, .-_ZN8opendnp315AssignClassTask14OnTaskCompleteENS_14TaskCompletionEN7openpal18MonotonicTimestampE
	.p2align 4
	.type	_ZNSt17_Function_handlerIFvRKN8opendnp36HeaderEEZNS0_15AssignClassTask12BuildRequestERNS0_11APDURequestEhEUlS3_E_E10_M_managerERSt9_Any_dataRKSA_St18_Manager_operation, @function
_ZNSt17_Function_handlerIFvRKN8opendnp36HeaderEEZNS0_15AssignClassTask12BuildRequestERNS0_11APDURequestEhEUlS3_E_E10_M_managerERSt9_Any_dataRKSA_St18_Manager_operation:
.LFB2868:
	.cfi_startproc
	testl	%edx, %edx
	je	.L24
	cmpl	$1, %edx
	jne	.L29
	movq	%rsi, (%rdi)
.L27:
	xorl	%eax, %eax
	ret
	.p2align 4,,10
	.p2align 3
.L29:
	cmpl	$2, %edx
	jne	.L27
	movdqu	(%rsi), %xmm0
	movups	%xmm0, (%rdi)
	jmp	.L27
	.p2align 4,,10
	.p2align 3
.L24:
	leaq	_ZTIZN8opendnp315AssignClassTask12BuildRequestERNS_11APDURequestEhEUlRKNS_6HeaderEE_(%rip), %rax
	movq	%rax, (%rdi)
	xorl	%eax, %eax
	ret
	.cfi_endproc
.LFE2868:
	.size	_ZNSt17_Function_handlerIFvRKN8opendnp36HeaderEEZNS0_15AssignClassTask12BuildRequestERNS0_11APDURequestEhEUlS3_E_E10_M_managerERSt9_Any_dataRKSA_St18_Manager_operation, .-_ZNSt17_Function_handlerIFvRKN8opendnp36HeaderEEZNS0_15AssignClassTask12BuildRequestERNS0_11APDURequestEhEUlS3_E_E10_M_managerERSt9_Any_dataRKSA_St18_Manager_operation
	.section	.text.unlikely,"ax",@progbits
	.align 2
.LCOLDB2:
	.text
.LHOTB2:
	.align 2
	.p2align 4
	.globl	_ZN8opendnp315AssignClassTask12BuildRequestERNS_11APDURequestEh
	.type	_ZN8opendnp315AssignClassTask12BuildRequestERNS_11APDURequestEh, @function
_ZN8opendnp315AssignClassTask12BuildRequestERNS_11APDURequestEh:
.LFB2391:
	.cfi_startproc
	.cfi_personality 0x9b,DW.ref.__gxx_personality_v0
	.cfi_lsda 0x1b,.LLSDA2391
	pushq	%r14
	.cfi_def_cfa_offset 16
	.cfi_offset 14, -16
	leaq	_ZNSt17_Function_handlerIFvRKN8opendnp36HeaderEEZNS0_15AssignClassTask12BuildRequestERNS0_11APDURequestEhEUlS3_E_E9_M_invokeERKSt9_Any_dataS3_(%rip), %rax
	movzbl	%dl, %r9d
	xorl	%r8d, %r8d
	pushq	%r12
	.cfi_def_cfa_offset 24
	.cfi_offset 12, -24
	movq	%rax, %xmm2
	xorl	%ecx, %ecx
	movl	$1, %edx
	pushq	%rbp
	.cfi_def_cfa_offset 32
	.cfi_offset 6, -32
	movq	%rdi, %r12
	pushq	%rbx
	.cfi_def_cfa_offset 40
	.cfi_offset 3, -40
	movq	%rsi, %rbx
	movl	$1, %esi
	subq	$120, %rsp
	.cfi_def_cfa_offset 160
	movq	.LC1(%rip), %xmm1
	leaq	47(%rsp), %rax
	leaq	48(%rsp), %r14
	movq	%rax, %xmm0
	movq	%r14, %xmm3
	leaq	80(%rsp), %rbp
	punpcklqdq	%xmm2, %xmm1
	punpcklqdq	%xmm3, %xmm0
	movq	%rbp, %rdi
	movaps	%xmm1, 16(%rsp)
	movaps	%xmm0, (%rsp)
.LEHB0:
	call	_ZN8opendnp315AppControlFieldC1Ebbbbh@PLT
	movq	80(%rsp), %rsi
	movq	%rbx, %rdi
	call	_ZN8opendnp311APDUWrapper10SetControlENS_15AppControlFieldE@PLT
	movl	$22, %esi
	movq	%rbx, %rdi
	call	_ZN8opendnp311APDUWrapper11SetFunctionENS_12FunctionCodeE@PLT
	movq	%r14, %rdi
	movq	%rbx, %rsi
	call	_ZN8opendnp311APDUWrapper9GetWriterEv@PLT
.LEHE0:
	movq	8(%r12), %rdi
	movdqa	(%rsp), %xmm0
	movb	$1, 47(%rsp)
	movdqa	16(%rsp), %xmm1
	movq	(%rdi), %rax
	movq	96(%rax), %rdx
	cmpq	_ZN8opendnp318IMasterApplication27ConfigureAssignClassRequestERKSt8functionIFvRKNS_6HeaderEEE@GOTPCREL(%rip), %rdx
	movaps	%xmm0, 80(%rsp)
	leaq	_ZNSt17_Function_handlerIFvRKN8opendnp36HeaderEEZNS0_15AssignClassTask12BuildRequestERNS0_11APDURequestEhEUlS3_E_E10_M_managerERSt9_Any_dataRKSA_St18_Manager_operation(%rip), %rax
	movaps	%xmm1, 96(%rsp)
	jne	.L47
.L31:
	movq	%rbp, %rsi
	movq	%rbp, %rdi
	movl	$3, %edx
	call	*%rax
	movzbl	47(%rsp), %eax
	addq	$120, %rsp
	.cfi_remember_state
	.cfi_def_cfa_offset 40
	popq	%rbx
	.cfi_def_cfa_offset 32
	popq	%rbp
	.cfi_def_cfa_offset 24
	popq	%r12
	.cfi_def_cfa_offset 16
	popq	%r14
	.cfi_def_cfa_offset 8
	ret
	.p2align 4,,10
	.p2align 3
.L47:
	.cfi_restore_state
	movq	%rbp, %rsi
.LEHB1:
	call	*%rdx
.LEHE1:
	movq	96(%rsp), %rax
	testq	%rax, %rax
	jne	.L31
	movzbl	47(%rsp), %eax
	addq	$120, %rsp
	.cfi_remember_state
	.cfi_def_cfa_offset 40
	popq	%rbx
	.cfi_def_cfa_offset 32
	popq	%rbp
	.cfi_def_cfa_offset 24
	popq	%r12
	.cfi_def_cfa_offset 16
	popq	%r14
	.cfi_def_cfa_offset 8
	ret
.L36:
	.cfi_restore_state
	movq	%rax, %rbx
	jmp	.L33
	.section	.gcc_except_table,"a",@progbits
.LLSDA2391:
	.byte	0xff
	.byte	0xff
	.byte	0x1
	.uleb128 .LLSDACSE2391-.LLSDACSB2391
.LLSDACSB2391:
	.uleb128 .LEHB0-.LFB2391
	.uleb128 .LEHE0-.LEHB0
	.uleb128 0
	.uleb128 0
	.uleb128 .LEHB1-.LFB2391
	.uleb128 .LEHE1-.LEHB1
	.uleb128 .L36-.LFB2391
	.uleb128 0
.LLSDACSE2391:
	.text
	.cfi_endproc
	.section	.text.unlikely
	.cfi_startproc
	.cfi_personality 0x9b,DW.ref.__gxx_personality_v0
	.cfi_lsda 0x1b,.LLSDAC2391
	.type	_ZN8opendnp315AssignClassTask12BuildRequestERNS_11APDURequestEh.cold, @function
_ZN8opendnp315AssignClassTask12BuildRequestERNS_11APDURequestEh.cold:
.LFSB2391:
.L33:
	.cfi_def_cfa_offset 160
	.cfi_offset 3, -40
	.cfi_offset 6, -32
	.cfi_offset 12, -24
	.cfi_offset 14, -16
	movq	96(%rsp), %rax
	testq	%rax, %rax
	je	.L34
	movl	$3, %edx
	movq	%rbp, %rsi
	movq	%rbp, %rdi
	call	*%rax
.L34:
	movq	%rbx, %rdi
.LEHB2:
	call	_Unwind_Resume@PLT
.LEHE2:
	.cfi_endproc
.LFE2391:
	.section	.gcc_except_table
.LLSDAC2391:
	.byte	0xff
	.byte	0xff
	.byte	0x1
	.uleb128 .LLSDACSEC2391-.LLSDACSBC2391
.LLSDACSBC2391:
	.uleb128 .LEHB2-.LCOLDB2
	.uleb128 .LEHE2-.LEHB2
	.uleb128 0
	.uleb128 0
.LLSDACSEC2391:
	.section	.text.unlikely
	.text
	.size	_ZN8opendnp315AssignClassTask12BuildRequestERNS_11APDURequestEh, .-_ZN8opendnp315AssignClassTask12BuildRequestERNS_11APDURequestEh
	.section	.text.unlikely
	.size	_ZN8opendnp315AssignClassTask12BuildRequestERNS_11APDURequestEh.cold, .-_ZN8opendnp315AssignClassTask12BuildRequestERNS_11APDURequestEh.cold
.LCOLDE2:
	.text
.LHOTE2:
	.align 2
	.p2align 4
	.globl	_ZNK8opendnp315AssignClassTask9IsEnabledEv
	.type	_ZNK8opendnp315AssignClassTask9IsEnabledEv, @function
_ZNK8opendnp315AssignClassTask9IsEnabledEv:
.LFB2398:
	.cfi_startproc
	movq	8(%rdi), %rdi
	movq	(%rdi), %rax
	movq	88(%rax), %rax
	cmpq	_ZN8opendnp318IMasterApplication24AssignClassDuringStartupEv@GOTPCREL(%rip), %rax
	jne	.L50
	xorl	%eax, %eax
	ret
	.p2align 4,,10
	.p2align 3
.L50:
	jmp	*%rax
	.cfi_endproc
.LFE2398:
	.size	_ZNK8opendnp315AssignClassTask9IsEnabledEv, .-_ZNK8opendnp315AssignClassTask9IsEnabledEv
	.section	.text._ZNSt16_Sp_counted_baseILN9__gnu_cxx12_Lock_policyE2EE24_M_release_last_use_coldEv,"axG",@progbits,_ZNSt16_Sp_counted_baseILN9__gnu_cxx12_Lock_policyE2EE24_M_release_last_use_coldEv,comdat
	.align 2
	.p2align 4
	.weak	_ZNSt16_Sp_counted_baseILN9__gnu_cxx12_Lock_policyE2EE24_M_release_last_use_coldEv
	.type	_ZNSt16_Sp_counted_baseILN9__gnu_cxx12_Lock_policyE2EE24_M_release_last_use_coldEv, @function
_ZNSt16_Sp_counted_baseILN9__gnu_cxx12_Lock_policyE2EE24_M_release_last_use_coldEv:
.LFB2407:
	.cfi_startproc
	pushq	%rbx
	.cfi_def_cfa_offset 16
	.cfi_offset 3, -16
	movq	(%rdi), %rax
	movq	%rdi, %rbx
	call	*16(%rax)
	movq	__libc_single_threaded@GOTPCREL(%rip), %rax
	cmpb	$0, (%rax)
	je	.L52
	movl	12(%rbx), %eax
	leal	-1(%rax), %edx
	movl	%edx, 12(%rbx)
.L53:
	cmpl	$1, %eax
	je	.L56
	popq	%rbx
	.cfi_remember_state
	.cfi_def_cfa_offset 8
	ret
	.p2align 4,,10
	.p2align 3
.L56:
	.cfi_restore_state
	movq	(%rbx), %rax
	movq	%rbx, %rdi
	popq	%rbx
	.cfi_remember_state
	.cfi_def_cfa_offset 8
	movq	24(%rax), %rax
	jmp	*%rax
	.p2align 4,,10
	.p2align 3
.L52:
	.cfi_restore_state
	movl	$-1, %eax
	lock xaddl	%eax, 12(%rbx)
	jmp	.L53
	.cfi_endproc
.LFE2407:
	.size	_ZNSt16_Sp_counted_baseILN9__gnu_cxx12_Lock_policyE2EE24_M_release_last_use_coldEv, .-_ZNSt16_Sp_counted_baseILN9__gnu_cxx12_Lock_policyE2EE24_M_release_last_use_coldEv
	.section	.text._ZN7openpal6LoggerD2Ev,"axG",@progbits,_ZN7openpal6LoggerD5Ev,comdat
	.align 2
	.p2align 4
	.weak	_ZN7openpal6LoggerD2Ev
	.type	_ZN7openpal6LoggerD2Ev, @function
_ZN7openpal6LoggerD2Ev:
.LFB1998:
	.cfi_startproc
	subq	$24, %rsp
	.cfi_def_cfa_offset 32
	movq	%rdi, %rax
	movq	24(%rdi), %rdi
	testq	%rdi, %rdi
	je	.L59
	movq	8(%rdi), %rcx
	leaq	8(%rdi), %rsi
	movabsq	$4294967297, %rdx
	cmpq	%rdx, %rcx
	je	.L71
	movq	__libc_single_threaded@GOTPCREL(%rip), %rdx
	cmpb	$0, (%rdx)
	je	.L61
	movl	8(%rdi), %edx
	leal	-1(%rdx), %ecx
	movl	%ecx, 8(%rdi)
.L62:
	cmpl	$1, %edx
	je	.L72
.L59:
	movq	8(%rax), %rdi
	testq	%rdi, %rdi
	je	.L57
	movq	8(%rdi), %rdx
	leaq	8(%rdi), %rcx
	movabsq	$4294967297, %rax
	cmpq	%rax, %rdx
	je	.L73
	movq	__libc_single_threaded@GOTPCREL(%rip), %rax
	cmpb	$0, (%rax)
	je	.L67
	movl	8(%rdi), %eax
	leal	-1(%rax), %edx
	movl	%edx, 8(%rdi)
.L68:
	cmpl	$1, %eax
	je	.L74
.L57:
	addq	$24, %rsp
	.cfi_remember_state
	.cfi_def_cfa_offset 8
	ret
	.p2align 4,,10
	.p2align 3
.L73:
	.cfi_restore_state
	movq	(%rdi), %rax
	movq	%rdi, (%rsp)
	movq	$0, 8(%rdi)
	call	*16(%rax)
	movq	(%rsp), %rdi
	movq	(%rdi), %rax
	movq	24(%rax), %rax
	addq	$24, %rsp
	.cfi_remember_state
	.cfi_def_cfa_offset 8
	jmp	*%rax
	.p2align 4,,10
	.p2align 3
.L71:
	.cfi_restore_state
	movq	(%rdi), %rdx
	movq	%rax, 8(%rsp)
	movq	$0, 8(%rdi)
	movq	%rdi, (%rsp)
	call	*16(%rdx)
	movq	(%rsp), %rdi
	movq	(%rdi), %rdx
	call	*24(%rdx)
	movq	8(%rsp), %rax
	jmp	.L59
	.p2align 4,,10
	.p2align 3
.L67:
	movl	$-1, %eax
	lock xaddl	%eax, (%rcx)
	jmp	.L68
	.p2align 4,,10
	.p2align 3
.L61:
	movl	$-1, %edx
	lock xaddl	%edx, (%rsi)
	jmp	.L62
	.p2align 4,,10
	.p2align 3
.L72:
	movq	%rax, (%rsp)
	call	_ZNSt16_Sp_counted_baseILN9__gnu_cxx12_Lock_policyE2EE24_M_release_last_use_coldEv@PLT
	movq	(%rsp), %rax
	jmp	.L59
	.p2align 4,,10
	.p2align 3
.L74:
	addq	$24, %rsp
	.cfi_def_cfa_offset 8
	jmp	_ZNSt16_Sp_counted_baseILN9__gnu_cxx12_Lock_policyE2EE24_M_release_last_use_coldEv@PLT
	.cfi_endproc
.LFE1998:
	.size	_ZN7openpal6LoggerD2Ev, .-_ZN7openpal6LoggerD2Ev
	.weak	_ZN7openpal6LoggerD1Ev
	.set	_ZN7openpal6LoggerD1Ev,_ZN7openpal6LoggerD2Ev
	.section	.text.unlikely
	.align 2
.LCOLDB3:
	.text
.LHOTB3:
	.align 2
	.p2align 4
	.globl	_ZN8opendnp315AssignClassTaskC2ERNS_18IMasterApplicationEN7openpal12TimeDurationENS3_6LoggerE
	.type	_ZN8opendnp315AssignClassTaskC2ERNS_18IMasterApplicationEN7openpal12TimeDurationENS3_6LoggerE, @function
_ZN8opendnp315AssignClassTaskC2ERNS_18IMasterApplicationEN7openpal12TimeDurationENS3_6LoggerE:
.LFB2389:
	.cfi_startproc
	.cfi_personality 0x9b,DW.ref.__gxx_personality_v0
	.cfi_lsda 0x1b,.LLSDA2389
	pushq	%r14
	.cfi_def_cfa_offset 16
	.cfi_offset 14, -16
	pushq	%r13
	.cfi_def_cfa_offset 24
	.cfi_offset 13, -24
	movq	%rsi, %r13
	pushq	%r12
	.cfi_def_cfa_offset 32
	.cfi_offset 12, -32
	pushq	%rbp
	.cfi_def_cfa_offset 40
	.cfi_offset 6, -40
	movq	%rdx, %rbp
	pushq	%rbx
	.cfi_def_cfa_offset 48
	.cfi_offset 3, -48
	movq	%rdi, %rbx
	subq	$48, %rsp
	.cfi_def_cfa_offset 96
	movdqu	(%rcx), %xmm0
	movhlps	%xmm0, %xmm1
	movaps	%xmm0, 16(%rsp)
	movq	%xmm1, %rax
	testq	%rax, %rax
	je	.L76
	movq	__libc_single_threaded@GOTPCREL(%rip), %rdx
	cmpb	$0, (%rdx)
	je	.L77
	addl	$1, 8(%rax)
.L76:
	movdqu	16(%rcx), %xmm0
	movhlps	%xmm0, %xmm2
	movaps	%xmm0, 32(%rsp)
	movq	%xmm2, %rax
	testq	%rax, %rax
	je	.L78
	movq	__libc_single_threaded@GOTPCREL(%rip), %rdx
	cmpb	$0, (%rdx)
	je	.L79
	addl	$1, 8(%rax)
.L78:
	leaq	8(%rsp), %rdi
	xorl	%esi, %esi
.LEHB3:
	call	_ZN7openpal18MonotonicTimestampC1El@PLT
	movq	8(%rsp), %rdx
	xorl	%r9d, %r9d
	leaq	16(%rsp), %rcx
	movq	%r13, %rsi
	movl	$4294967295, %r8d
	movq	%rbx, %rdi
	call	_ZN8opendnp311IMasterTaskC2ERNS_18IMasterApplicationEN7openpal18MonotonicTimestampENS3_6LoggerENS_10TaskConfigE@PLT
.LEHE3:
	movq	40(%rsp), %r12
	testq	%r12, %r12
	je	.L81
	movq	8(%r12), %rdx
	leaq	8(%r12), %rcx
	movabsq	$4294967297, %rax
	cmpq	%rax, %rdx
	je	.L102
	movq	__libc_single_threaded@GOTPCREL(%rip), %rax
	cmpb	$0, (%rax)
	je	.L83
	movl	8(%r12), %eax
	leal	-1(%rax), %edx
	movl	%edx, 8(%r12)
.L84:
	cmpl	$1, %eax
	je	.L103
.L81:
	movq	24(%rsp), %r12
	testq	%r12, %r12
	je	.L87
	movq	8(%r12), %rdx
	leaq	8(%r12), %rcx
	movabsq	$4294967297, %rax
	cmpq	%rax, %rdx
	je	.L104
	movq	__libc_single_threaded@GOTPCREL(%rip), %rax
	cmpb	$0, (%rax)
	je	.L89
	movl	8(%r12), %eax
	leal	-1(%rax), %edx
	movl	%edx, 8(%r12)
.L90:
	cmpl	$1, %eax
	je	.L105
.L87:
	movq	_ZTVN8opendnp315AssignClassTaskE@GOTPCREL(%rip), %rax
	movq	%rbp, 88(%rbx)
	addq	$16, %rax
	movq	%rax, (%rbx)
	addq	$48, %rsp
	.cfi_remember_state
	.cfi_def_cfa_offset 48
	popq	%rbx
	.cfi_def_cfa_offset 40
	popq	%rbp
	.cfi_def_cfa_offset 32
	popq	%r12
	.cfi_def_cfa_offset 24
	popq	%r13
	.cfi_def_cfa_offset 16
	popq	%r14
	.cfi_def_cfa_offset 8
	ret
	.p2align 4,,10
	.p2align 3
.L77:
	.cfi_restore_state
	lock addl	$1, 8(%rax)
	jmp	.L76
	.p2align 4,,10
	.p2align 3
.L79:
	lock addl	$1, 8(%rax)
	jmp	.L78
	.p2align 4,,10
	.p2align 3
.L102:
	movq	$0, 8(%r12)
	movq	(%r12), %rax
	movq	%r12, %rdi
	call	*16(%rax)
	movq	(%r12), %rax
	movq	%r12, %rdi
	call	*24(%rax)
	jmp	.L81
	.p2align 4,,10
	.p2align 3
.L104:
	movq	$0, 8(%r12)
	movq	(%r12), %rax
	movq	%r12, %rdi
	call	*16(%rax)
	movq	(%r12), %rax
	movq	%r12, %rdi
	call	*24(%rax)
	jmp	.L87
	.p2align 4,,10
	.p2align 3
.L89:
	movl	$-1, %eax
	lock xaddl	%eax, (%rcx)
	jmp	.L90
	.p2align 4,,10
	.p2align 3
.L83:
	movl	$-1, %eax
	lock xaddl	%eax, (%rcx)
	jmp	.L84
	.p2align 4,,10
	.p2align 3
.L103:
	movq	%r12, %rdi
	call	_ZNSt16_Sp_counted_baseILN9__gnu_cxx12_Lock_policyE2EE24_M_release_last_use_coldEv@PLT
	jmp	.L81
	.p2align 4,,10
	.p2align 3
.L105:
	movq	%r12, %rdi
	call	_ZNSt16_Sp_counted_baseILN9__gnu_cxx12_Lock_policyE2EE24_M_release_last_use_coldEv@PLT
	jmp	.L87
.L93:
	movq	%rax, %rbx
	jmp	.L92
	.section	.gcc_except_table
.LLSDA2389:
	.byte	0xff
	.byte	0xff
	.byte	0x1
	.uleb128 .LLSDACSE2389-.LLSDACSB2389
.LLSDACSB2389:
	.uleb128 .LEHB3-.LFB2389
	.uleb128 .LEHE3-.LEHB3
	.uleb128 .L93-.LFB2389
	.uleb128 0
.LLSDACSE2389:
	.text
	.cfi_endproc
	.section	.text.unlikely
	.cfi_startproc
	.cfi_personality 0x9b,DW.ref.__gxx_personality_v0
	.cfi_lsda 0x1b,.LLSDAC2389
	.type	_ZN8opendnp315AssignClassTaskC2ERNS_18IMasterApplicationEN7openpal12TimeDurationENS3_6LoggerE.cold, @function
_ZN8opendnp315AssignClassTaskC2ERNS_18IMasterApplicationEN7openpal12TimeDurationENS3_6LoggerE.cold:
.LFSB2389:
.L92:
	.cfi_def_cfa_offset 96
	.cfi_offset 3, -48
	.cfi_offset 6, -40
	.cfi_offset 12, -32
	.cfi_offset 13, -24
	.cfi_offset 14, -16
	leaq	16(%rsp), %rdi
	call	_ZN7openpal6LoggerD1Ev@PLT
	movq	%rbx, %rdi
.LEHB4:
	call	_Unwind_Resume@PLT
.LEHE4:
	.cfi_endproc
.LFE2389:
	.section	.gcc_except_table
.LLSDAC2389:
	.byte	0xff
	.byte	0xff
	.byte	0x1
	.uleb128 .LLSDACSEC2389-.LLSDACSBC2389
.LLSDACSBC2389:
	.uleb128 .LEHB4-.LCOLDB3
	.uleb128 .LEHE4-.LEHB4
	.uleb128 0
	.uleb128 0
.LLSDACSEC2389:
	.section	.text.unlikely
	.text
	.size	_ZN8opendnp315AssignClassTaskC2ERNS_18IMasterApplicationEN7openpal12TimeDurationENS3_6LoggerE, .-_ZN8opendnp315AssignClassTaskC2ERNS_18IMasterApplicationEN7openpal12TimeDurationENS3_6LoggerE
	.section	.text.unlikely
	.size	_ZN8opendnp315AssignClassTaskC2ERNS_18IMasterApplicationEN7openpal12TimeDurationENS3_6LoggerE.cold, .-_ZN8opendnp315AssignClassTaskC2ERNS_18IMasterApplicationEN7openpal12TimeDurationENS3_6LoggerE.cold
.LCOLDE3:
	.text
.LHOTE3:
	.globl	_ZN8opendnp315AssignClassTaskC1ERNS_18IMasterApplicationEN7openpal12TimeDurationENS3_6LoggerE
	.set	_ZN8opendnp315AssignClassTaskC1ERNS_18IMasterApplicationEN7openpal12TimeDurationENS3_6LoggerE,_ZN8opendnp315AssignClassTaskC2ERNS_18IMasterApplicationEN7openpal12TimeDurationENS3_6LoggerE
	.weak	_ZTSN8opendnp315AssignClassTaskE
	.section	.rodata._ZTSN8opendnp315AssignClassTaskE,"aG",@progbits,_ZTSN8opendnp315AssignClassTaskE,comdat
	.align 16
	.type	_ZTSN8opendnp315AssignClassTaskE, @object
	.size	_ZTSN8opendnp315AssignClassTaskE, 29
_ZTSN8opendnp315AssignClassTaskE:
	.string	"N8opendnp315AssignClassTaskE"
	.weak	_ZTIN8opendnp315AssignClassTaskE
	.section	.data.rel.ro._ZTIN8opendnp315AssignClassTaskE,"awG",@progbits,_ZTIN8opendnp315AssignClassTaskE,comdat
	.align 8
	.type	_ZTIN8opendnp315AssignClassTaskE, @object
	.size	_ZTIN8opendnp315AssignClassTaskE, 24
_ZTIN8opendnp315AssignClassTaskE:
	.quad	_ZTVN10__cxxabiv120__si_class_type_infoE+16
	.quad	_ZTSN8opendnp315AssignClassTaskE
	.quad	_ZTIN8opendnp311IMasterTaskE
	.section	.data.rel.ro,"aw"
	.align 8
	.type	_ZTIZN8opendnp315AssignClassTask12BuildRequestERNS_11APDURequestEhEUlRKNS_6HeaderEE_, @object
	.size	_ZTIZN8opendnp315AssignClassTask12BuildRequestERNS_11APDURequestEhEUlRKNS_6HeaderEE_, 16
_ZTIZN8opendnp315AssignClassTask12BuildRequestERNS_11APDURequestEhEUlRKNS_6HeaderEE_:
	.quad	_ZTVN10__cxxabiv117__class_type_infoE+16
	.quad	_ZTSZN8opendnp315AssignClassTask12BuildRequestERNS_11APDURequestEhEUlRKNS_6HeaderEE_
	.section	.rodata
	.align 32
	.type	_ZTSZN8opendnp315AssignClassTask12BuildRequestERNS_11APDURequestEhEUlRKNS_6HeaderEE_, @object
	.size	_ZTSZN8opendnp315AssignClassTask12BuildRequestERNS_11APDURequestEhEUlRKNS_6HeaderEE_, 82
_ZTSZN8opendnp315AssignClassTask12BuildRequestERNS_11APDURequestEhEUlRKNS_6HeaderEE_:
	.string	"*ZN8opendnp315AssignClassTask12BuildRequestERNS_11APDURequestEhEUlRKNS_6HeaderEE_"
	.weak	_ZTVN8opendnp315AssignClassTaskE
	.section	.data.rel.ro._ZTVN8opendnp315AssignClassTaskE,"awG",@progbits,_ZTVN8opendnp315AssignClassTaskE,comdat
	.align 8
	.type	_ZTVN8opendnp315AssignClassTaskE, @object
	.size	_ZTVN8opendnp315AssignClassTaskE, 120
_ZTVN8opendnp315AssignClassTaskE:
	.quad	0
	.quad	_ZTIN8opendnp315AssignClassTaskE
	.quad	_ZN8opendnp315AssignClassTaskD1Ev
	.quad	_ZN8opendnp315AssignClassTaskD0Ev
	.quad	_ZNK8opendnp311IMasterTask10IsAuthTaskEv
	.quad	_ZNK8opendnp315AssignClassTask4NameEv
	.quad	_ZNK8opendnp315AssignClassTask8PriorityEv
	.quad	_ZNK8opendnp315AssignClassTask19BlocksLowerPriorityEv
	.quad	_ZNK8opendnp315AssignClassTask11IsRecurringEv
	.quad	_ZN8opendnp315AssignClassTask12BuildRequestERNS_11APDURequestEh
	.quad	_ZN8opendnp311IMasterTask10InitializeEv
	.quad	_ZN8opendnp315AssignClassTask15ProcessResponseERKNS_18APDUResponseHeaderERKN7openpal6RSliceE
	.quad	_ZN8opendnp315AssignClassTask14OnTaskCompleteENS_14TaskCompletionEN7openpal18MonotonicTimestampE
	.quad	_ZNK8opendnp315AssignClassTask9IsEnabledEv
	.quad	_ZNK8opendnp315AssignClassTask11GetTaskTypeEv
	.section	.data.rel.ro.local,"aw"
	.align 8
.LC1:
	.quad	_ZNSt17_Function_handlerIFvRKN8opendnp36HeaderEEZNS0_15AssignClassTask12BuildRequestERNS0_11APDURequestEhEUlS3_E_E10_M_managerERSt9_Any_dataRKSA_St18_Manager_operation
	.hidden	DW.ref.__gxx_personality_v0
	.weak	DW.ref.__gxx_personality_v0
	.section	.data.rel.local.DW.ref.__gxx_personality_v0,"awG",@progbits,DW.ref.__gxx_personality_v0,comdat
	.align 8
	.type	DW.ref.__gxx_personality_v0, @object
	.size	DW.ref.__gxx_personality_v0, 8
DW.ref.__gxx_personality_v0:
	.quad	__gxx_personality_v0
	.globl	__gxx_personality_v0
	.ident	"GCC: (Debian 15.2.0-4) 15.2.0"
	.section	.note.GNU-stack,"",@progbits
