	.file	"ClearRestartTask.cpp"
	.text
	.section	.text._ZNK8opendnp311IMasterTask10IsAuthTaskEv,"axG",@progbits,_ZNK8opendnp311IMasterTask10IsAuthTaskEv,comdat
	.align 2
	.p2align 4
	.weak	_ZNK8opendnp311IMasterTask10IsAuthTaskEv
	.type	_ZNK8opendnp311IMasterTask10IsAuthTaskEv, @function
_ZNK8opendnp311IMasterTask10IsAuthTaskEv:
.LFB2381:
	.cfi_startproc
	xorl	%eax, %eax
	ret
	.cfi_endproc
.LFE2381:
	.size	_ZNK8opendnp311IMasterTask10IsAuthTaskEv, .-_ZNK8opendnp311IMasterTask10IsAuthTaskEv
	.section	.text._ZN8opendnp311IMasterTask10InitializeEv,"axG",@progbits,_ZN8opendnp311IMasterTask10InitializeEv,comdat
	.align 2
	.p2align 4
	.weak	_ZN8opendnp311IMasterTask10InitializeEv
	.type	_ZN8opendnp311IMasterTask10InitializeEv, @function
_ZN8opendnp311IMasterTask10InitializeEv:
.LFB2382:
	.cfi_startproc
	ret
	.cfi_endproc
.LFE2382:
	.size	_ZN8opendnp311IMasterTask10InitializeEv, .-_ZN8opendnp311IMasterTask10InitializeEv
	.section	.rodata._ZNK8opendnp316ClearRestartTask4NameEv.str1.1,"aMS",@progbits,1
.LC0:
	.string	"Clear Restart IIN"
	.section	.text._ZNK8opendnp316ClearRestartTask4NameEv,"axG",@progbits,_ZNK8opendnp316ClearRestartTask4NameEv,comdat
	.align 2
	.p2align 4
	.weak	_ZNK8opendnp316ClearRestartTask4NameEv
	.type	_ZNK8opendnp316ClearRestartTask4NameEv, @function
_ZNK8opendnp316ClearRestartTask4NameEv:
.LFB2383:
	.cfi_startproc
	leaq	.LC0(%rip), %rax
	ret
	.cfi_endproc
.LFE2383:
	.size	_ZNK8opendnp316ClearRestartTask4NameEv, .-_ZNK8opendnp316ClearRestartTask4NameEv
	.section	.text._ZNK8opendnp316ClearRestartTask11IsRecurringEv,"axG",@progbits,_ZNK8opendnp316ClearRestartTask11IsRecurringEv,comdat
	.align 2
	.p2align 4
	.weak	_ZNK8opendnp316ClearRestartTask11IsRecurringEv
	.type	_ZNK8opendnp316ClearRestartTask11IsRecurringEv, @function
_ZNK8opendnp316ClearRestartTask11IsRecurringEv:
.LFB2384:
	.cfi_startproc
	movl	$1, %eax
	ret
	.cfi_endproc
.LFE2384:
	.size	_ZNK8opendnp316ClearRestartTask11IsRecurringEv, .-_ZNK8opendnp316ClearRestartTask11IsRecurringEv
	.section	.text._ZNK8opendnp316ClearRestartTask8PriorityEv,"axG",@progbits,_ZNK8opendnp316ClearRestartTask8PriorityEv,comdat
	.align 2
	.p2align 4
	.weak	_ZNK8opendnp316ClearRestartTask8PriorityEv
	.type	_ZNK8opendnp316ClearRestartTask8PriorityEv, @function
_ZNK8opendnp316ClearRestartTask8PriorityEv:
.LFB2385:
	.cfi_startproc
	movl	$120, %eax
	ret
	.cfi_endproc
.LFE2385:
	.size	_ZNK8opendnp316ClearRestartTask8PriorityEv, .-_ZNK8opendnp316ClearRestartTask8PriorityEv
	.section	.text._ZNK8opendnp316ClearRestartTask19BlocksLowerPriorityEv,"axG",@progbits,_ZNK8opendnp316ClearRestartTask19BlocksLowerPriorityEv,comdat
	.align 2
	.p2align 4
	.weak	_ZNK8opendnp316ClearRestartTask19BlocksLowerPriorityEv
	.type	_ZNK8opendnp316ClearRestartTask19BlocksLowerPriorityEv, @function
_ZNK8opendnp316ClearRestartTask19BlocksLowerPriorityEv:
.LFB2386:
	.cfi_startproc
	movl	$1, %eax
	ret
	.cfi_endproc
.LFE2386:
	.size	_ZNK8opendnp316ClearRestartTask19BlocksLowerPriorityEv, .-_ZNK8opendnp316ClearRestartTask19BlocksLowerPriorityEv
	.section	.text._ZNK8opendnp316ClearRestartTask11GetTaskTypeEv,"axG",@progbits,_ZNK8opendnp316ClearRestartTask11GetTaskTypeEv,comdat
	.align 2
	.p2align 4
	.weak	_ZNK8opendnp316ClearRestartTask11GetTaskTypeEv
	.type	_ZNK8opendnp316ClearRestartTask11GetTaskTypeEv, @function
_ZNK8opendnp316ClearRestartTask11GetTaskTypeEv:
.LFB2387:
	.cfi_startproc
	xorl	%eax, %eax
	ret
	.cfi_endproc
.LFE2387:
	.size	_ZNK8opendnp316ClearRestartTask11GetTaskTypeEv, .-_ZNK8opendnp316ClearRestartTask11GetTaskTypeEv
	.section	.text._ZNK8opendnp316ClearRestartTask9IsEnabledEv,"axG",@progbits,_ZNK8opendnp316ClearRestartTask9IsEnabledEv,comdat
	.align 2
	.p2align 4
	.weak	_ZNK8opendnp316ClearRestartTask9IsEnabledEv
	.type	_ZNK8opendnp316ClearRestartTask9IsEnabledEv, @function
_ZNK8opendnp316ClearRestartTask9IsEnabledEv:
.LFB2388:
	.cfi_startproc
	movl	$1, %eax
	ret
	.cfi_endproc
.LFE2388:
	.size	_ZNK8opendnp316ClearRestartTask9IsEnabledEv, .-_ZNK8opendnp316ClearRestartTask9IsEnabledEv
	.text
	.align 2
	.p2align 4
	.globl	_ZN8opendnp316ClearRestartTask12BuildRequestERNS_11APDURequestEh
	.type	_ZN8opendnp316ClearRestartTask12BuildRequestERNS_11APDURequestEh, @function
_ZN8opendnp316ClearRestartTask12BuildRequestERNS_11APDURequestEh:
.LFB3002:
	.cfi_startproc
	subq	$8, %rsp
	.cfi_def_cfa_offset 16
	movq	%rsi, %rdi
	movzbl	%dl, %esi
	call	_ZN8opendnp35build15ClearRestartIINERNS_11APDURequestEh@PLT
	movl	$1, %eax
	addq	$8, %rsp
	.cfi_def_cfa_offset 8
	ret
	.cfi_endproc
.LFE3002:
	.size	_ZN8opendnp316ClearRestartTask12BuildRequestERNS_11APDURequestEh, .-_ZN8opendnp316ClearRestartTask12BuildRequestERNS_11APDURequestEh
	.section	.rodata.str1.8,"aMS",@progbits,1
	.align 8
.LC1:
	.string	"Clear restart task failed to clear restart bit, permanently disabling task"
	.align 8
.LC2:
	.string	"/opt/PLC/OpenPLC_v3/utils/dnp3_src/cpp/libs/src/opendnp3/master/ClearRestartTask.cpp(55)"
	.text
	.align 2
	.p2align 4
	.globl	_ZN8opendnp316ClearRestartTask15ProcessResponseERKNS_18APDUResponseHeaderERKN7openpal6RSliceE
	.type	_ZN8opendnp316ClearRestartTask15ProcessResponseERKNS_18APDUResponseHeaderERKN7openpal6RSliceE, @function
_ZN8opendnp316ClearRestartTask15ProcessResponseERKNS_18APDUResponseHeaderERKN7openpal6RSliceE:
.LFB3003:
	.cfi_startproc
	pushq	%rbp
	.cfi_def_cfa_offset 16
	.cfi_offset 6, -16
	movq	%rdi, %rbp
	pushq	%rbx
	.cfi_def_cfa_offset 24
	.cfi_offset 3, -24
	movq	%rsi, %rbx
	subq	$24, %rsp
	.cfi_def_cfa_offset 48
	call	_ZN8opendnp311IMasterTask22ValidateSingleResponseERKNS_18APDUResponseHeaderE@PLT
	testb	%al, %al
	jne	.L13
.L16:
	xorl	%eax, %eax
.L12:
	addq	$24, %rsp
	.cfi_remember_state
	.cfi_def_cfa_offset 24
	popq	%rbx
	.cfi_def_cfa_offset 16
	popq	%rbp
	.cfi_def_cfa_offset 8
	ret
	.p2align 4,,10
	.p2align 3
.L13:
	.cfi_restore_state
	leaq	6(%rbx), %rdi
	movl	$7, %esi
	call	_ZNK8opendnp38IINField5IsSetENS_6IINBitE@PLT
	testb	%al, %al
	movl	$2, %eax
	je	.L12
	addq	$16, %rbp
	leaq	12(%rsp), %rsi
	movl	$2, 12(%rsp)
	movq	%rbp, %rdi
	call	_ZNK7openpal6Logger9IsEnabledERKNS_10LogFiltersE@PLT
	testb	%al, %al
	je	.L16
	leaq	.LC1(%rip), %rcx
	leaq	.LC2(%rip), %rdx
	movq	%rbp, %rdi
	movl	$2, 12(%rsp)
	leaq	12(%rsp), %rsi
	call	_ZN7openpal6Logger3LogERKNS_10LogFiltersEPKcS5_@PLT
	xorl	%eax, %eax
	jmp	.L12
	.cfi_endproc
.LFE3003:
	.size	_ZN8opendnp316ClearRestartTask15ProcessResponseERKNS_18APDUResponseHeaderERKN7openpal6RSliceE, .-_ZN8opendnp316ClearRestartTask15ProcessResponseERKNS_18APDUResponseHeaderERKN7openpal6RSliceE
	.section	.text._ZN8opendnp316ClearRestartTaskD2Ev,"axG",@progbits,_ZN8opendnp316ClearRestartTaskD5Ev,comdat
	.align 2
	.p2align 4
	.weak	_ZN8opendnp316ClearRestartTaskD2Ev
	.type	_ZN8opendnp316ClearRestartTaskD2Ev, @function
_ZN8opendnp316ClearRestartTaskD2Ev:
.LFB3710:
	.cfi_startproc
	movq	_ZTVN8opendnp316ClearRestartTaskE@GOTPCREL(%rip), %rax
	addq	$16, %rax
	movq	%rax, (%rdi)
	jmp	_ZN8opendnp311IMasterTaskD2Ev@PLT
	.cfi_endproc
.LFE3710:
	.size	_ZN8opendnp316ClearRestartTaskD2Ev, .-_ZN8opendnp316ClearRestartTaskD2Ev
	.weak	_ZN8opendnp316ClearRestartTaskD1Ev
	.set	_ZN8opendnp316ClearRestartTaskD1Ev,_ZN8opendnp316ClearRestartTaskD2Ev
	.section	.text._ZN8opendnp316ClearRestartTaskD0Ev,"axG",@progbits,_ZN8opendnp316ClearRestartTaskD5Ev,comdat
	.align 2
	.p2align 4
	.weak	_ZN8opendnp316ClearRestartTaskD0Ev
	.type	_ZN8opendnp316ClearRestartTaskD0Ev, @function
_ZN8opendnp316ClearRestartTaskD0Ev:
.LFB3712:
	.cfi_startproc
	subq	$24, %rsp
	.cfi_def_cfa_offset 32
	movq	_ZTVN8opendnp316ClearRestartTaskE@GOTPCREL(%rip), %rax
	movq	%rdi, 8(%rsp)
	addq	$16, %rax
	movq	%rax, (%rdi)
	call	_ZN8opendnp311IMasterTaskD2Ev@PLT
	movq	8(%rsp), %rdi
	movl	$96, %esi
	addq	$24, %rsp
	.cfi_def_cfa_offset 8
	jmp	_ZdlPvm@PLT
	.cfi_endproc
.LFE3712:
	.size	_ZN8opendnp316ClearRestartTaskD0Ev, .-_ZN8opendnp316ClearRestartTaskD0Ev
	.text
	.align 2
	.p2align 4
	.globl	_ZN8opendnp316ClearRestartTask14OnTaskCompleteENS_14TaskCompletionEN7openpal18MonotonicTimestampE
	.type	_ZN8opendnp316ClearRestartTask14OnTaskCompleteENS_14TaskCompletionEN7openpal18MonotonicTimestampE, @function
_ZN8opendnp316ClearRestartTask14OnTaskCompleteENS_14TaskCompletionEN7openpal18MonotonicTimestampE:
.LFB3004:
	.cfi_startproc
	subq	$24, %rsp
	.cfi_def_cfa_offset 32
	movq	%rdx, 8(%rsp)
	cmpb	$2, %sil
	je	.L27
	cmpb	$7, %sil
	je	.L28
	cmpb	$1, %sil
	je	.L28
	call	_ZN7openpal18MonotonicTimestamp3MaxEv@PLT
	xorl	%esi, %esi
	addq	$24, %rsp
	.cfi_remember_state
	.cfi_def_cfa_offset 8
	movq	%rax, %rdi
	movl	%esi, %eax
	movq	%rdi, %rdx
	ret
	.p2align 4,,10
	.p2align 3
.L28:
	.cfi_restore_state
	call	_ZN7openpal18MonotonicTimestamp3MaxEv@PLT
	movl	$1, %esi
	addq	$24, %rsp
	.cfi_remember_state
	.cfi_def_cfa_offset 8
	movq	%rax, %rdi
	movl	%esi, %eax
	movq	%rdi, %rdx
	ret
	.p2align 4,,10
	.p2align 3
.L27:
	.cfi_restore_state
	leaq	88(%rdi), %rsi
	leaq	8(%rsp), %rdi
	call	_ZNK7openpal18MonotonicTimestamp3AddERKNS_12TimeDurationE@PLT
	xorl	%esi, %esi
	addq	$24, %rsp
	.cfi_def_cfa_offset 8
	movq	%rax, %rdi
	movl	%esi, %eax
	movq	%rdi, %rdx
	ret
	.cfi_endproc
.LFE3004:
	.size	_ZN8opendnp316ClearRestartTask14OnTaskCompleteENS_14TaskCompletionEN7openpal18MonotonicTimestampE, .-_ZN8opendnp316ClearRestartTask14OnTaskCompleteENS_14TaskCompletionEN7openpal18MonotonicTimestampE
	.section	.text._ZNSt16_Sp_counted_baseILN9__gnu_cxx12_Lock_policyE2EE24_M_release_last_use_coldEv,"axG",@progbits,_ZNSt16_Sp_counted_baseILN9__gnu_cxx12_Lock_policyE2EE24_M_release_last_use_coldEv,comdat
	.align 2
	.p2align 4
	.weak	_ZNSt16_Sp_counted_baseILN9__gnu_cxx12_Lock_policyE2EE24_M_release_last_use_coldEv
	.type	_ZNSt16_Sp_counted_baseILN9__gnu_cxx12_Lock_policyE2EE24_M_release_last_use_coldEv, @function
_ZNSt16_Sp_counted_baseILN9__gnu_cxx12_Lock_policyE2EE24_M_release_last_use_coldEv:
.LFB3011:
	.cfi_startproc
	pushq	%rbx
	.cfi_def_cfa_offset 16
	.cfi_offset 3, -16
	movq	(%rdi), %rax
	movq	%rdi, %rbx
	call	*16(%rax)
	movq	__libc_single_threaded@GOTPCREL(%rip), %rax
	cmpb	$0, (%rax)
	je	.L33
	movl	12(%rbx), %eax
	leal	-1(%rax), %edx
	movl	%edx, 12(%rbx)
.L34:
	cmpl	$1, %eax
	je	.L37
	popq	%rbx
	.cfi_remember_state
	.cfi_def_cfa_offset 8
	ret
	.p2align 4,,10
	.p2align 3
.L37:
	.cfi_restore_state
	movq	(%rbx), %rax
	movq	%rbx, %rdi
	popq	%rbx
	.cfi_remember_state
	.cfi_def_cfa_offset 8
	movq	24(%rax), %rax
	jmp	*%rax
	.p2align 4,,10
	.p2align 3
.L33:
	.cfi_restore_state
	movl	$-1, %eax
	lock xaddl	%eax, 12(%rbx)
	jmp	.L34
	.cfi_endproc
.LFE3011:
	.size	_ZNSt16_Sp_counted_baseILN9__gnu_cxx12_Lock_policyE2EE24_M_release_last_use_coldEv, .-_ZNSt16_Sp_counted_baseILN9__gnu_cxx12_Lock_policyE2EE24_M_release_last_use_coldEv
	.section	.text._ZN7openpal6LoggerD2Ev,"axG",@progbits,_ZN7openpal6LoggerD5Ev,comdat
	.align 2
	.p2align 4
	.weak	_ZN7openpal6LoggerD2Ev
	.type	_ZN7openpal6LoggerD2Ev, @function
_ZN7openpal6LoggerD2Ev:
.LFB1998:
	.cfi_startproc
	subq	$24, %rsp
	.cfi_def_cfa_offset 32
	movq	%rdi, %rax
	movq	24(%rdi), %rdi
	testq	%rdi, %rdi
	je	.L40
	movq	8(%rdi), %rcx
	leaq	8(%rdi), %rsi
	movabsq	$4294967297, %rdx
	cmpq	%rdx, %rcx
	je	.L52
	movq	__libc_single_threaded@GOTPCREL(%rip), %rdx
	cmpb	$0, (%rdx)
	je	.L42
	movl	8(%rdi), %edx
	leal	-1(%rdx), %ecx
	movl	%ecx, 8(%rdi)
.L43:
	cmpl	$1, %edx
	je	.L53
.L40:
	movq	8(%rax), %rdi
	testq	%rdi, %rdi
	je	.L38
	movq	8(%rdi), %rdx
	leaq	8(%rdi), %rcx
	movabsq	$4294967297, %rax
	cmpq	%rax, %rdx
	je	.L54
	movq	__libc_single_threaded@GOTPCREL(%rip), %rax
	cmpb	$0, (%rax)
	je	.L48
	movl	8(%rdi), %eax
	leal	-1(%rax), %edx
	movl	%edx, 8(%rdi)
.L49:
	cmpl	$1, %eax
	je	.L55
.L38:
	addq	$24, %rsp
	.cfi_remember_state
	.cfi_def_cfa_offset 8
	ret
	.p2align 4,,10
	.p2align 3
.L54:
	.cfi_restore_state
	movq	(%rdi), %rax
	movq	%rdi, (%rsp)
	movq	$0, 8(%rdi)
	call	*16(%rax)
	movq	(%rsp), %rdi
	movq	(%rdi), %rax
	movq	24(%rax), %rax
	addq	$24, %rsp
	.cfi_remember_state
	.cfi_def_cfa_offset 8
	jmp	*%rax
	.p2align 4,,10
	.p2align 3
.L52:
	.cfi_restore_state
	movq	(%rdi), %rdx
	movq	%rax, 8(%rsp)
	movq	$0, 8(%rdi)
	movq	%rdi, (%rsp)
	call	*16(%rdx)
	movq	(%rsp), %rdi
	movq	(%rdi), %rdx
	call	*24(%rdx)
	movq	8(%rsp), %rax
	jmp	.L40
	.p2align 4,,10
	.p2align 3
.L48:
	movl	$-1, %eax
	lock xaddl	%eax, (%rcx)
	jmp	.L49
	.p2align 4,,10
	.p2align 3
.L42:
	movl	$-1, %edx
	lock xaddl	%edx, (%rsi)
	jmp	.L43
	.p2align 4,,10
	.p2align 3
.L53:
	movq	%rax, (%rsp)
	call	_ZNSt16_Sp_counted_baseILN9__gnu_cxx12_Lock_policyE2EE24_M_release_last_use_coldEv@PLT
	movq	(%rsp), %rax
	jmp	.L40
	.p2align 4,,10
	.p2align 3
.L55:
	addq	$24, %rsp
	.cfi_def_cfa_offset 8
	jmp	_ZNSt16_Sp_counted_baseILN9__gnu_cxx12_Lock_policyE2EE24_M_release_last_use_coldEv@PLT
	.cfi_endproc
.LFE1998:
	.size	_ZN7openpal6LoggerD2Ev, .-_ZN7openpal6LoggerD2Ev
	.weak	_ZN7openpal6LoggerD1Ev
	.set	_ZN7openpal6LoggerD1Ev,_ZN7openpal6LoggerD2Ev
	.section	.text.unlikely,"ax",@progbits
	.align 2
.LCOLDB3:
	.text
.LHOTB3:
	.align 2
	.p2align 4
	.globl	_ZN8opendnp316ClearRestartTaskC2ERNS_18IMasterApplicationEN7openpal12TimeDurationENS3_6LoggerE
	.type	_ZN8opendnp316ClearRestartTaskC2ERNS_18IMasterApplicationEN7openpal12TimeDurationENS3_6LoggerE, @function
_ZN8opendnp316ClearRestartTaskC2ERNS_18IMasterApplicationEN7openpal12TimeDurationENS3_6LoggerE:
.LFB3000:
	.cfi_startproc
	.cfi_personality 0x9b,DW.ref.__gxx_personality_v0
	.cfi_lsda 0x1b,.LLSDA3000
	pushq	%r13
	.cfi_def_cfa_offset 16
	.cfi_offset 13, -16
	pushq	%r12
	.cfi_def_cfa_offset 24
	.cfi_offset 12, -24
	pushq	%rbp
	.cfi_def_cfa_offset 32
	.cfi_offset 6, -32
	movq	%rdx, %rbp
	pushq	%rbx
	.cfi_def_cfa_offset 40
	.cfi_offset 3, -40
	movq	%rdi, %rbx
	subq	$56, %rsp
	.cfi_def_cfa_offset 96
	movdqu	(%rcx), %xmm0
	movhlps	%xmm0, %xmm1
	movaps	%xmm0, 16(%rsp)
	movq	%xmm1, %rax
	testq	%rax, %rax
	je	.L57
	movq	__libc_single_threaded@GOTPCREL(%rip), %rdx
	cmpb	$0, (%rdx)
	je	.L58
	addl	$1, 8(%rax)
.L57:
	movdqu	16(%rcx), %xmm0
	movhlps	%xmm0, %xmm2
	movaps	%xmm0, 32(%rsp)
	movq	%xmm2, %rax
	testq	%rax, %rax
	je	.L59
	movq	__libc_single_threaded@GOTPCREL(%rip), %rdx
	cmpb	$0, (%rdx)
	je	.L60
	addl	$1, 8(%rax)
.L59:
	movq	%rsi, 8(%rsp)
.LEHB0:
	call	_ZN7openpal18MonotonicTimestamp3MaxEv@PLT
	movq	8(%rsp), %rsi
	xorl	%r9d, %r9d
	leaq	16(%rsp), %rcx
	movq	%rax, %rdx
	movl	$4294967295, %r8d
	movq	%rbx, %rdi
	call	_ZN8opendnp311IMasterTaskC2ERNS_18IMasterApplicationEN7openpal18MonotonicTimestampENS3_6LoggerENS_10TaskConfigE@PLT
.LEHE0:
	movq	40(%rsp), %r12
	testq	%r12, %r12
	je	.L62
	movq	8(%r12), %rdx
	leaq	8(%r12), %rcx
	movabsq	$4294967297, %rax
	cmpq	%rax, %rdx
	je	.L83
	movq	__libc_single_threaded@GOTPCREL(%rip), %rax
	cmpb	$0, (%rax)
	je	.L64
	movl	8(%r12), %eax
	leal	-1(%rax), %edx
	movl	%edx, 8(%r12)
.L65:
	cmpl	$1, %eax
	je	.L84
.L62:
	movq	24(%rsp), %r12
	testq	%r12, %r12
	je	.L68
	movq	8(%r12), %rdx
	leaq	8(%r12), %rcx
	movabsq	$4294967297, %rax
	cmpq	%rax, %rdx
	je	.L85
	movq	__libc_single_threaded@GOTPCREL(%rip), %rax
	cmpb	$0, (%rax)
	je	.L70
	movl	8(%r12), %eax
	leal	-1(%rax), %edx
	movl	%edx, 8(%r12)
.L71:
	cmpl	$1, %eax
	je	.L86
.L68:
	movq	_ZTVN8opendnp316ClearRestartTaskE@GOTPCREL(%rip), %rax
	movq	%rbp, 88(%rbx)
	addq	$16, %rax
	movq	%rax, (%rbx)
	addq	$56, %rsp
	.cfi_remember_state
	.cfi_def_cfa_offset 40
	popq	%rbx
	.cfi_def_cfa_offset 32
	popq	%rbp
	.cfi_def_cfa_offset 24
	popq	%r12
	.cfi_def_cfa_offset 16
	popq	%r13
	.cfi_def_cfa_offset 8
	ret
	.p2align 4,,10
	.p2align 3
.L58:
	.cfi_restore_state
	lock addl	$1, 8(%rax)
	jmp	.L57
	.p2align 4,,10
	.p2align 3
.L60:
	lock addl	$1, 8(%rax)
	jmp	.L59
	.p2align 4,,10
	.p2align 3
.L83:
	movq	$0, 8(%r12)
	movq	(%r12), %rax
	movq	%r12, %rdi
	call	*16(%rax)
	movq	(%r12), %rax
	movq	%r12, %rdi
	call	*24(%rax)
	jmp	.L62
	.p2align 4,,10
	.p2align 3
.L85:
	movq	$0, 8(%r12)
	movq	(%r12), %rax
	movq	%r12, %rdi
	call	*16(%rax)
	movq	(%r12), %rax
	movq	%r12, %rdi
	call	*24(%rax)
	jmp	.L68
	.p2align 4,,10
	.p2align 3
.L70:
	movl	$-1, %eax
	lock xaddl	%eax, (%rcx)
	jmp	.L71
	.p2align 4,,10
	.p2align 3
.L64:
	movl	$-1, %eax
	lock xaddl	%eax, (%rcx)
	jmp	.L65
	.p2align 4,,10
	.p2align 3
.L84:
	movq	%r12, %rdi
	call	_ZNSt16_Sp_counted_baseILN9__gnu_cxx12_Lock_policyE2EE24_M_release_last_use_coldEv@PLT
	jmp	.L62
	.p2align 4,,10
	.p2align 3
.L86:
	movq	%r12, %rdi
	call	_ZNSt16_Sp_counted_baseILN9__gnu_cxx12_Lock_policyE2EE24_M_release_last_use_coldEv@PLT
	jmp	.L68
.L74:
	movq	%rax, %rbx
	jmp	.L73
	.section	.gcc_except_table,"a",@progbits
.LLSDA3000:
	.byte	0xff
	.byte	0xff
	.byte	0x1
	.uleb128 .LLSDACSE3000-.LLSDACSB3000
.LLSDACSB3000:
	.uleb128 .LEHB0-.LFB3000
	.uleb128 .LEHE0-.LEHB0
	.uleb128 .L74-.LFB3000
	.uleb128 0
.LLSDACSE3000:
	.text
	.cfi_endproc
	.section	.text.unlikely
	.cfi_startproc
	.cfi_personality 0x9b,DW.ref.__gxx_personality_v0
	.cfi_lsda 0x1b,.LLSDAC3000
	.type	_ZN8opendnp316ClearRestartTaskC2ERNS_18IMasterApplicationEN7openpal12TimeDurationENS3_6LoggerE.cold, @function
_ZN8opendnp316ClearRestartTaskC2ERNS_18IMasterApplicationEN7openpal12TimeDurationENS3_6LoggerE.cold:
.LFSB3000:
.L73:
	.cfi_def_cfa_offset 96
	.cfi_offset 3, -40
	.cfi_offset 6, -32
	.cfi_offset 12, -24
	.cfi_offset 13, -16
	leaq	16(%rsp), %rdi
	call	_ZN7openpal6LoggerD1Ev@PLT
	movq	%rbx, %rdi
.LEHB1:
	call	_Unwind_Resume@PLT
.LEHE1:
	.cfi_endproc
.LFE3000:
	.section	.gcc_except_table
.LLSDAC3000:
	.byte	0xff
	.byte	0xff
	.byte	0x1
	.uleb128 .LLSDACSEC3000-.LLSDACSBC3000
.LLSDACSBC3000:
	.uleb128 .LEHB1-.LCOLDB3
	.uleb128 .LEHE1-.LEHB1
	.uleb128 0
	.uleb128 0
.LLSDACSEC3000:
	.section	.text.unlikely
	.text
	.size	_ZN8opendnp316ClearRestartTaskC2ERNS_18IMasterApplicationEN7openpal12TimeDurationENS3_6LoggerE, .-_ZN8opendnp316ClearRestartTaskC2ERNS_18IMasterApplicationEN7openpal12TimeDurationENS3_6LoggerE
	.section	.text.unlikely
	.size	_ZN8opendnp316ClearRestartTaskC2ERNS_18IMasterApplicationEN7openpal12TimeDurationENS3_6LoggerE.cold, .-_ZN8opendnp316ClearRestartTaskC2ERNS_18IMasterApplicationEN7openpal12TimeDurationENS3_6LoggerE.cold
.LCOLDE3:
	.text
.LHOTE3:
	.globl	_ZN8opendnp316ClearRestartTaskC1ERNS_18IMasterApplicationEN7openpal12TimeDurationENS3_6LoggerE
	.set	_ZN8opendnp316ClearRestartTaskC1ERNS_18IMasterApplicationEN7openpal12TimeDurationENS3_6LoggerE,_ZN8opendnp316ClearRestartTaskC2ERNS_18IMasterApplicationEN7openpal12TimeDurationENS3_6LoggerE
	.section	.text.startup,"ax",@progbits
	.p2align 4
	.type	_GLOBAL__sub_I_ClearRestartTask.cpp, @function
_GLOBAL__sub_I_ClearRestartTask.cpp:
.LFB3728:
	.cfi_startproc
	movl	$5000, %edi
	jmp	_ZN7openpal12TimeDuration12MillisecondsEl@PLT
	.cfi_endproc
.LFE3728:
	.size	_GLOBAL__sub_I_ClearRestartTask.cpp, .-_GLOBAL__sub_I_ClearRestartTask.cpp
	.section	.init_array,"aw"
	.align 8
	.quad	_GLOBAL__sub_I_ClearRestartTask.cpp
	.weak	_ZTSN8opendnp316ClearRestartTaskE
	.section	.rodata._ZTSN8opendnp316ClearRestartTaskE,"aG",@progbits,_ZTSN8opendnp316ClearRestartTaskE,comdat
	.align 16
	.type	_ZTSN8opendnp316ClearRestartTaskE, @object
	.size	_ZTSN8opendnp316ClearRestartTaskE, 30
_ZTSN8opendnp316ClearRestartTaskE:
	.string	"N8opendnp316ClearRestartTaskE"
	.weak	_ZTIN8opendnp316ClearRestartTaskE
	.section	.data.rel.ro._ZTIN8opendnp316ClearRestartTaskE,"awG",@progbits,_ZTIN8opendnp316ClearRestartTaskE,comdat
	.align 8
	.type	_ZTIN8opendnp316ClearRestartTaskE, @object
	.size	_ZTIN8opendnp316ClearRestartTaskE, 24
_ZTIN8opendnp316ClearRestartTaskE:
	.quad	_ZTVN10__cxxabiv120__si_class_type_infoE+16
	.quad	_ZTSN8opendnp316ClearRestartTaskE
	.quad	_ZTIN8opendnp311IMasterTaskE
	.weak	_ZTVN8opendnp316ClearRestartTaskE
	.section	.data.rel.ro._ZTVN8opendnp316ClearRestartTaskE,"awG",@progbits,_ZTVN8opendnp316ClearRestartTaskE,comdat
	.align 8
	.type	_ZTVN8opendnp316ClearRestartTaskE, @object
	.size	_ZTVN8opendnp316ClearRestartTaskE, 120
_ZTVN8opendnp316ClearRestartTaskE:
	.quad	0
	.quad	_ZTIN8opendnp316ClearRestartTaskE
	.quad	_ZN8opendnp316ClearRestartTaskD1Ev
	.quad	_ZN8opendnp316ClearRestartTaskD0Ev
	.quad	_ZNK8opendnp311IMasterTask10IsAuthTaskEv
	.quad	_ZNK8opendnp316ClearRestartTask4NameEv
	.quad	_ZNK8opendnp316ClearRestartTask8PriorityEv
	.quad	_ZNK8opendnp316ClearRestartTask19BlocksLowerPriorityEv
	.quad	_ZNK8opendnp316ClearRestartTask11IsRecurringEv
	.quad	_ZN8opendnp316ClearRestartTask12BuildRequestERNS_11APDURequestEh
	.quad	_ZN8opendnp311IMasterTask10InitializeEv
	.quad	_ZN8opendnp316ClearRestartTask15ProcessResponseERKNS_18APDUResponseHeaderERKN7openpal6RSliceE
	.quad	_ZN8opendnp316ClearRestartTask14OnTaskCompleteENS_14TaskCompletionEN7openpal18MonotonicTimestampE
	.quad	_ZNK8opendnp316ClearRestartTask9IsEnabledEv
	.quad	_ZNK8opendnp316ClearRestartTask11GetTaskTypeEv
	.hidden	DW.ref.__gxx_personality_v0
	.weak	DW.ref.__gxx_personality_v0
	.section	.data.rel.local.DW.ref.__gxx_personality_v0,"awG",@progbits,DW.ref.__gxx_personality_v0,comdat
	.align 8
	.type	DW.ref.__gxx_personality_v0, @object
	.size	DW.ref.__gxx_personality_v0, 8
DW.ref.__gxx_personality_v0:
	.quad	__gxx_personality_v0
	.globl	__gxx_personality_v0
	.ident	"GCC: (Debian 15.2.0-4) 15.2.0"
	.section	.note.GNU-stack,"",@progbits
