	.file	"CommandSet.cpp"
	.text
	.section	.text._ZN8opendnp314ICommandHeader19ApplySelectResponseERKNS_11ICollectionINS_7IndexedINS_23ControlRelayOutputBlockEEEEE,"axG",@progbits,_ZN8opendnp314ICommandHeader19ApplySelectResponseERKNS_11ICollectionINS_7IndexedINS_23ControlRelayOutputBlockEEEEE,comdat
	.align 2
	.p2align 4
	.weak	_ZN8opendnp314ICommandHeader19ApplySelectResponseERKNS_11ICollectionINS_7IndexedINS_23ControlRelayOutputBlockEEEEE
	.type	_ZN8opendnp314ICommandHeader19ApplySelectResponseERKNS_11ICollectionINS_7IndexedINS_23ControlRelayOutputBlockEEEEE, @function
_ZN8opendnp314ICommandHeader19ApplySelectResponseERKNS_11ICollectionINS_7IndexedINS_23ControlRelayOutputBlockEEEEE:
.LFB1046:
	.cfi_startproc
	ret
	.cfi_endproc
.LFE1046:
	.size	_ZN8opendnp314ICommandHeader19ApplySelectResponseERKNS_11ICollectionINS_7IndexedINS_23ControlRelayOutputBlockEEEEE, .-_ZN8opendnp314ICommandHeader19ApplySelectResponseERKNS_11ICollectionINS_7IndexedINS_23ControlRelayOutputBlockEEEEE
	.section	.text._ZN8opendnp314ICommandHeader19ApplySelectResponseERKNS_11ICollectionINS_7IndexedINS_17AnalogOutputInt16EEEEE,"axG",@progbits,_ZN8opendnp314ICommandHeader19ApplySelectResponseERKNS_11ICollectionINS_7IndexedINS_17AnalogOutputInt16EEEEE,comdat
	.align 2
	.p2align 4
	.weak	_ZN8opendnp314ICommandHeader19ApplySelectResponseERKNS_11ICollectionINS_7IndexedINS_17AnalogOutputInt16EEEEE
	.type	_ZN8opendnp314ICommandHeader19ApplySelectResponseERKNS_11ICollectionINS_7IndexedINS_17AnalogOutputInt16EEEEE, @function
_ZN8opendnp314ICommandHeader19ApplySelectResponseERKNS_11ICollectionINS_7IndexedINS_17AnalogOutputInt16EEEEE:
.LFB1047:
	.cfi_startproc
	ret
	.cfi_endproc
.LFE1047:
	.size	_ZN8opendnp314ICommandHeader19ApplySelectResponseERKNS_11ICollectionINS_7IndexedINS_17AnalogOutputInt16EEEEE, .-_ZN8opendnp314ICommandHeader19ApplySelectResponseERKNS_11ICollectionINS_7IndexedINS_17AnalogOutputInt16EEEEE
	.section	.text._ZN8opendnp314ICommandHeader19ApplySelectResponseERKNS_11ICollectionINS_7IndexedINS_17AnalogOutputInt32EEEEE,"axG",@progbits,_ZN8opendnp314ICommandHeader19ApplySelectResponseERKNS_11ICollectionINS_7IndexedINS_17AnalogOutputInt32EEEEE,comdat
	.align 2
	.p2align 4
	.weak	_ZN8opendnp314ICommandHeader19ApplySelectResponseERKNS_11ICollectionINS_7IndexedINS_17AnalogOutputInt32EEEEE
	.type	_ZN8opendnp314ICommandHeader19ApplySelectResponseERKNS_11ICollectionINS_7IndexedINS_17AnalogOutputInt32EEEEE, @function
_ZN8opendnp314ICommandHeader19ApplySelectResponseERKNS_11ICollectionINS_7IndexedINS_17AnalogOutputInt32EEEEE:
.LFB1048:
	.cfi_startproc
	ret
	.cfi_endproc
.LFE1048:
	.size	_ZN8opendnp314ICommandHeader19ApplySelectResponseERKNS_11ICollectionINS_7IndexedINS_17AnalogOutputInt32EEEEE, .-_ZN8opendnp314ICommandHeader19ApplySelectResponseERKNS_11ICollectionINS_7IndexedINS_17AnalogOutputInt32EEEEE
	.section	.text._ZN8opendnp314ICommandHeader19ApplySelectResponseERKNS_11ICollectionINS_7IndexedINS_19AnalogOutputFloat32EEEEE,"axG",@progbits,_ZN8opendnp314ICommandHeader19ApplySelectResponseERKNS_11ICollectionINS_7IndexedINS_19AnalogOutputFloat32EEEEE,comdat
	.align 2
	.p2align 4
	.weak	_ZN8opendnp314ICommandHeader19ApplySelectResponseERKNS_11ICollectionINS_7IndexedINS_19AnalogOutputFloat32EEEEE
	.type	_ZN8opendnp314ICommandHeader19ApplySelectResponseERKNS_11ICollectionINS_7IndexedINS_19AnalogOutputFloat32EEEEE, @function
_ZN8opendnp314ICommandHeader19ApplySelectResponseERKNS_11ICollectionINS_7IndexedINS_19AnalogOutputFloat32EEEEE:
.LFB1049:
	.cfi_startproc
	ret
	.cfi_endproc
.LFE1049:
	.size	_ZN8opendnp314ICommandHeader19ApplySelectResponseERKNS_11ICollectionINS_7IndexedINS_19AnalogOutputFloat32EEEEE, .-_ZN8opendnp314ICommandHeader19ApplySelectResponseERKNS_11ICollectionINS_7IndexedINS_19AnalogOutputFloat32EEEEE
	.section	.text._ZN8opendnp314ICommandHeader19ApplySelectResponseERKNS_11ICollectionINS_7IndexedINS_20AnalogOutputDouble64EEEEE,"axG",@progbits,_ZN8opendnp314ICommandHeader19ApplySelectResponseERKNS_11ICollectionINS_7IndexedINS_20AnalogOutputDouble64EEEEE,comdat
	.align 2
	.p2align 4
	.weak	_ZN8opendnp314ICommandHeader19ApplySelectResponseERKNS_11ICollectionINS_7IndexedINS_20AnalogOutputDouble64EEEEE
	.type	_ZN8opendnp314ICommandHeader19ApplySelectResponseERKNS_11ICollectionINS_7IndexedINS_20AnalogOutputDouble64EEEEE, @function
_ZN8opendnp314ICommandHeader19ApplySelectResponseERKNS_11ICollectionINS_7IndexedINS_20AnalogOutputDouble64EEEEE:
.LFB1050:
	.cfi_startproc
	ret
	.cfi_endproc
.LFE1050:
	.size	_ZN8opendnp314ICommandHeader19ApplySelectResponseERKNS_11ICollectionINS_7IndexedINS_20AnalogOutputDouble64EEEEE, .-_ZN8opendnp314ICommandHeader19ApplySelectResponseERKNS_11ICollectionINS_7IndexedINS_20AnalogOutputDouble64EEEEE
	.section	.text._ZN8opendnp314ICommandHeader20ApplyOperateResponseERKNS_11ICollectionINS_7IndexedINS_23ControlRelayOutputBlockEEEEE,"axG",@progbits,_ZN8opendnp314ICommandHeader20ApplyOperateResponseERKNS_11ICollectionINS_7IndexedINS_23ControlRelayOutputBlockEEEEE,comdat
	.align 2
	.p2align 4
	.weak	_ZN8opendnp314ICommandHeader20ApplyOperateResponseERKNS_11ICollectionINS_7IndexedINS_23ControlRelayOutputBlockEEEEE
	.type	_ZN8opendnp314ICommandHeader20ApplyOperateResponseERKNS_11ICollectionINS_7IndexedINS_23ControlRelayOutputBlockEEEEE, @function
_ZN8opendnp314ICommandHeader20ApplyOperateResponseERKNS_11ICollectionINS_7IndexedINS_23ControlRelayOutputBlockEEEEE:
.LFB1051:
	.cfi_startproc
	ret
	.cfi_endproc
.LFE1051:
	.size	_ZN8opendnp314ICommandHeader20ApplyOperateResponseERKNS_11ICollectionINS_7IndexedINS_23ControlRelayOutputBlockEEEEE, .-_ZN8opendnp314ICommandHeader20ApplyOperateResponseERKNS_11ICollectionINS_7IndexedINS_23ControlRelayOutputBlockEEEEE
	.section	.text._ZN8opendnp314ICommandHeader20ApplyOperateResponseERKNS_11ICollectionINS_7IndexedINS_17AnalogOutputInt16EEEEE,"axG",@progbits,_ZN8opendnp314ICommandHeader20ApplyOperateResponseERKNS_11ICollectionINS_7IndexedINS_17AnalogOutputInt16EEEEE,comdat
	.align 2
	.p2align 4
	.weak	_ZN8opendnp314ICommandHeader20ApplyOperateResponseERKNS_11ICollectionINS_7IndexedINS_17AnalogOutputInt16EEEEE
	.type	_ZN8opendnp314ICommandHeader20ApplyOperateResponseERKNS_11ICollectionINS_7IndexedINS_17AnalogOutputInt16EEEEE, @function
_ZN8opendnp314ICommandHeader20ApplyOperateResponseERKNS_11ICollectionINS_7IndexedINS_17AnalogOutputInt16EEEEE:
.LFB1052:
	.cfi_startproc
	ret
	.cfi_endproc
.LFE1052:
	.size	_ZN8opendnp314ICommandHeader20ApplyOperateResponseERKNS_11ICollectionINS_7IndexedINS_17AnalogOutputInt16EEEEE, .-_ZN8opendnp314ICommandHeader20ApplyOperateResponseERKNS_11ICollectionINS_7IndexedINS_17AnalogOutputInt16EEEEE
	.section	.text._ZN8opendnp314ICommandHeader20ApplyOperateResponseERKNS_11ICollectionINS_7IndexedINS_17AnalogOutputInt32EEEEE,"axG",@progbits,_ZN8opendnp314ICommandHeader20ApplyOperateResponseERKNS_11ICollectionINS_7IndexedINS_17AnalogOutputInt32EEEEE,comdat
	.align 2
	.p2align 4
	.weak	_ZN8opendnp314ICommandHeader20ApplyOperateResponseERKNS_11ICollectionINS_7IndexedINS_17AnalogOutputInt32EEEEE
	.type	_ZN8opendnp314ICommandHeader20ApplyOperateResponseERKNS_11ICollectionINS_7IndexedINS_17AnalogOutputInt32EEEEE, @function
_ZN8opendnp314ICommandHeader20ApplyOperateResponseERKNS_11ICollectionINS_7IndexedINS_17AnalogOutputInt32EEEEE:
.LFB1053:
	.cfi_startproc
	ret
	.cfi_endproc
.LFE1053:
	.size	_ZN8opendnp314ICommandHeader20ApplyOperateResponseERKNS_11ICollectionINS_7IndexedINS_17AnalogOutputInt32EEEEE, .-_ZN8opendnp314ICommandHeader20ApplyOperateResponseERKNS_11ICollectionINS_7IndexedINS_17AnalogOutputInt32EEEEE
	.section	.text._ZN8opendnp314ICommandHeader20ApplyOperateResponseERKNS_11ICollectionINS_7IndexedINS_19AnalogOutputFloat32EEEEE,"axG",@progbits,_ZN8opendnp314ICommandHeader20ApplyOperateResponseERKNS_11ICollectionINS_7IndexedINS_19AnalogOutputFloat32EEEEE,comdat
	.align 2
	.p2align 4
	.weak	_ZN8opendnp314ICommandHeader20ApplyOperateResponseERKNS_11ICollectionINS_7IndexedINS_19AnalogOutputFloat32EEEEE
	.type	_ZN8opendnp314ICommandHeader20ApplyOperateResponseERKNS_11ICollectionINS_7IndexedINS_19AnalogOutputFloat32EEEEE, @function
_ZN8opendnp314ICommandHeader20ApplyOperateResponseERKNS_11ICollectionINS_7IndexedINS_19AnalogOutputFloat32EEEEE:
.LFB1054:
	.cfi_startproc
	ret
	.cfi_endproc
.LFE1054:
	.size	_ZN8opendnp314ICommandHeader20ApplyOperateResponseERKNS_11ICollectionINS_7IndexedINS_19AnalogOutputFloat32EEEEE, .-_ZN8opendnp314ICommandHeader20ApplyOperateResponseERKNS_11ICollectionINS_7IndexedINS_19AnalogOutputFloat32EEEEE
	.section	.text._ZN8opendnp314ICommandHeader20ApplyOperateResponseERKNS_11ICollectionINS_7IndexedINS_20AnalogOutputDouble64EEEEE,"axG",@progbits,_ZN8opendnp314ICommandHeader20ApplyOperateResponseERKNS_11ICollectionINS_7IndexedINS_20AnalogOutputDouble64EEEEE,comdat
	.align 2
	.p2align 4
	.weak	_ZN8opendnp314ICommandHeader20ApplyOperateResponseERKNS_11ICollectionINS_7IndexedINS_20AnalogOutputDouble64EEEEE
	.type	_ZN8opendnp314ICommandHeader20ApplyOperateResponseERKNS_11ICollectionINS_7IndexedINS_20AnalogOutputDouble64EEEEE, @function
_ZN8opendnp314ICommandHeader20ApplyOperateResponseERKNS_11ICollectionINS_7IndexedINS_20AnalogOutputDouble64EEEEE:
.LFB1055:
	.cfi_startproc
	ret
	.cfi_endproc
.LFE1055:
	.size	_ZN8opendnp314ICommandHeader20ApplyOperateResponseERKNS_11ICollectionINS_7IndexedINS_20AnalogOutputDouble64EEEEE, .-_ZN8opendnp314ICommandHeader20ApplyOperateResponseERKNS_11ICollectionINS_7IndexedINS_20AnalogOutputDouble64EEEEE
	.section	.text._ZNK8opendnp318TypedCommandHeaderINS_20AnalogOutputDouble64EE7ForeachERNS_8IVisitorINS_12CommandStateEEE,"axG",@progbits,_ZNK8opendnp318TypedCommandHeaderINS_20AnalogOutputDouble64EE7ForeachERNS_8IVisitorINS_12CommandStateEEE,comdat
	.align 2
	.p2align 4
	.weak	_ZNK8opendnp318TypedCommandHeaderINS_20AnalogOutputDouble64EE7ForeachERNS_8IVisitorINS_12CommandStateEEE
	.type	_ZNK8opendnp318TypedCommandHeaderINS_20AnalogOutputDouble64EE7ForeachERNS_8IVisitorINS_12CommandStateEEE, @function
_ZNK8opendnp318TypedCommandHeaderINS_20AnalogOutputDouble64EE7ForeachERNS_8IVisitorINS_12CommandStateEEE:
.LFB1962:
	.cfi_startproc
	pushq	%r12
	.cfi_def_cfa_offset 16
	.cfi_offset 12, -16
	pushq	%rbp
	.cfi_def_cfa_offset 24
	.cfi_offset 6, -24
	pushq	%rbx
	.cfi_def_cfa_offset 32
	.cfi_offset 3, -32
	movq	48(%rdi), %rbx
	movq	56(%rdi), %r12
	cmpq	%rbx, %r12
	je	.L12
	movq	%rsi, %rbp
	.p2align 4
	.p2align 3
.L14:
	movq	0(%rbp), %rax
	movq	%rbx, %rsi
	addq	$24, %rbx
	movq	%rbp, %rdi
	call	*(%rax)
	cmpq	%rbx, %r12
	jne	.L14
.L12:
	popq	%rbx
	.cfi_def_cfa_offset 24
	popq	%rbp
	.cfi_def_cfa_offset 16
	popq	%r12
	.cfi_def_cfa_offset 8
	ret
	.cfi_endproc
.LFE1962:
	.size	_ZNK8opendnp318TypedCommandHeaderINS_20AnalogOutputDouble64EE7ForeachERNS_8IVisitorINS_12CommandStateEEE, .-_ZNK8opendnp318TypedCommandHeaderINS_20AnalogOutputDouble64EE7ForeachERNS_8IVisitorINS_12CommandStateEEE
	.section	.text._ZNK8opendnp318TypedCommandHeaderINS_20AnalogOutputDouble64EE14AreAllSelectedEv,"axG",@progbits,_ZNK8opendnp318TypedCommandHeaderINS_20AnalogOutputDouble64EE14AreAllSelectedEv,comdat
	.align 2
	.p2align 4
	.weak	_ZNK8opendnp318TypedCommandHeaderINS_20AnalogOutputDouble64EE14AreAllSelectedEv
	.type	_ZNK8opendnp318TypedCommandHeaderINS_20AnalogOutputDouble64EE14AreAllSelectedEv, @function
_ZNK8opendnp318TypedCommandHeaderINS_20AnalogOutputDouble64EE14AreAllSelectedEv:
.LFB1968:
	.cfi_startproc
	movq	56(%rdi), %rcx
	movq	48(%rdi), %rax
	cmpq	%rcx, %rax
	je	.L21
	movabsq	$768614336404564651, %rsi
	movq	%rcx, %rdx
	subq	%rax, %rdx
	subq	$24, %rdx
	shrq	$3, %rdx
	imulq	%rsi, %rdx
	addq	$1, %rdx
	andl	$3, %edx
	je	.L20
	cmpq	$1, %rdx
	je	.L38
	cmpq	$2, %rdx
	je	.L39
	cmpb	$1, (%rax)
	jne	.L44
	addq	$24, %rax
.L39:
	cmpb	$1, (%rax)
	jne	.L44
	addq	$24, %rax
.L38:
	cmpb	$1, (%rax)
	jne	.L44
	addq	$24, %rax
	cmpq	%rax, %rcx
	je	.L21
.L20:
	cmpb	$1, (%rax)
	jne	.L44
	leaq	24(%rax), %rdx
	movq	%rdx, %rax
	cmpb	$1, (%rdx)
	jne	.L44
	addq	$24, %rax
	cmpb	$1, (%rax)
	jne	.L44
	leaq	48(%rdx), %rax
	cmpb	$1, 48(%rdx)
	jne	.L44
	leaq	72(%rdx), %rax
	cmpq	%rax, %rcx
	jne	.L20
.L21:
	movl	$1, %eax
	ret
	.p2align 4,,10
	.p2align 3
.L44:
	cmpq	%rax, %rcx
	sete	%al
	ret
	.cfi_endproc
.LFE1968:
	.size	_ZNK8opendnp318TypedCommandHeaderINS_20AnalogOutputDouble64EE14AreAllSelectedEv, .-_ZNK8opendnp318TypedCommandHeaderINS_20AnalogOutputDouble64EE14AreAllSelectedEv
	.section	.text._ZNK8opendnp318TypedCommandHeaderINS_19AnalogOutputFloat32EE7ForeachERNS_8IVisitorINS_12CommandStateEEE,"axG",@progbits,_ZNK8opendnp318TypedCommandHeaderINS_19AnalogOutputFloat32EE7ForeachERNS_8IVisitorINS_12CommandStateEEE,comdat
	.align 2
	.p2align 4
	.weak	_ZNK8opendnp318TypedCommandHeaderINS_19AnalogOutputFloat32EE7ForeachERNS_8IVisitorINS_12CommandStateEEE
	.type	_ZNK8opendnp318TypedCommandHeaderINS_19AnalogOutputFloat32EE7ForeachERNS_8IVisitorINS_12CommandStateEEE, @function
_ZNK8opendnp318TypedCommandHeaderINS_19AnalogOutputFloat32EE7ForeachERNS_8IVisitorINS_12CommandStateEEE:
.LFB1978:
	.cfi_startproc
	pushq	%r12
	.cfi_def_cfa_offset 16
	.cfi_offset 12, -16
	pushq	%rbp
	.cfi_def_cfa_offset 24
	.cfi_offset 6, -24
	pushq	%rbx
	.cfi_def_cfa_offset 32
	.cfi_offset 3, -32
	movq	48(%rdi), %rbx
	movq	56(%rdi), %r12
	cmpq	%rbx, %r12
	je	.L46
	movq	%rsi, %rbp
	.p2align 4
	.p2align 3
.L48:
	movq	0(%rbp), %rax
	movq	%rbx, %rsi
	addq	$12, %rbx
	movq	%rbp, %rdi
	call	*(%rax)
	cmpq	%rbx, %r12
	jne	.L48
.L46:
	popq	%rbx
	.cfi_def_cfa_offset 24
	popq	%rbp
	.cfi_def_cfa_offset 16
	popq	%r12
	.cfi_def_cfa_offset 8
	ret
	.cfi_endproc
.LFE1978:
	.size	_ZNK8opendnp318TypedCommandHeaderINS_19AnalogOutputFloat32EE7ForeachERNS_8IVisitorINS_12CommandStateEEE, .-_ZNK8opendnp318TypedCommandHeaderINS_19AnalogOutputFloat32EE7ForeachERNS_8IVisitorINS_12CommandStateEEE
	.section	.text._ZNK8opendnp318TypedCommandHeaderINS_19AnalogOutputFloat32EE14AreAllSelectedEv,"axG",@progbits,_ZNK8opendnp318TypedCommandHeaderINS_19AnalogOutputFloat32EE14AreAllSelectedEv,comdat
	.align 2
	.p2align 4
	.weak	_ZNK8opendnp318TypedCommandHeaderINS_19AnalogOutputFloat32EE14AreAllSelectedEv
	.type	_ZNK8opendnp318TypedCommandHeaderINS_19AnalogOutputFloat32EE14AreAllSelectedEv, @function
_ZNK8opendnp318TypedCommandHeaderINS_19AnalogOutputFloat32EE14AreAllSelectedEv:
.LFB1984:
	.cfi_startproc
	movq	56(%rdi), %rcx
	movq	48(%rdi), %rax
	cmpq	%rcx, %rax
	je	.L55
	movabsq	$3074457345618258603, %rsi
	movq	%rcx, %rdx
	subq	%rax, %rdx
	subq	$12, %rdx
	shrq	$2, %rdx
	imulq	%rsi, %rdx
	addq	$1, %rdx
	andl	$3, %edx
	je	.L54
	cmpq	$1, %rdx
	je	.L72
	cmpq	$2, %rdx
	je	.L73
	cmpb	$1, (%rax)
	jne	.L78
	addq	$12, %rax
.L73:
	cmpb	$1, (%rax)
	jne	.L78
	addq	$12, %rax
.L72:
	cmpb	$1, (%rax)
	jne	.L78
	addq	$12, %rax
	cmpq	%rax, %rcx
	je	.L55
.L54:
	cmpb	$1, (%rax)
	jne	.L78
	leaq	12(%rax), %rdx
	movq	%rdx, %rax
	cmpb	$1, (%rdx)
	jne	.L78
	addq	$12, %rax
	cmpb	$1, (%rax)
	jne	.L78
	leaq	24(%rdx), %rax
	cmpb	$1, 24(%rdx)
	jne	.L78
	leaq	36(%rdx), %rax
	cmpq	%rax, %rcx
	jne	.L54
.L55:
	movl	$1, %eax
	ret
	.p2align 4,,10
	.p2align 3
.L78:
	cmpq	%rax, %rcx
	sete	%al
	ret
	.cfi_endproc
.LFE1984:
	.size	_ZNK8opendnp318TypedCommandHeaderINS_19AnalogOutputFloat32EE14AreAllSelectedEv, .-_ZNK8opendnp318TypedCommandHeaderINS_19AnalogOutputFloat32EE14AreAllSelectedEv
	.section	.text._ZNK8opendnp318TypedCommandHeaderINS_17AnalogOutputInt16EE7ForeachERNS_8IVisitorINS_12CommandStateEEE,"axG",@progbits,_ZNK8opendnp318TypedCommandHeaderINS_17AnalogOutputInt16EE7ForeachERNS_8IVisitorINS_12CommandStateEEE,comdat
	.align 2
	.p2align 4
	.weak	_ZNK8opendnp318TypedCommandHeaderINS_17AnalogOutputInt16EE7ForeachERNS_8IVisitorINS_12CommandStateEEE
	.type	_ZNK8opendnp318TypedCommandHeaderINS_17AnalogOutputInt16EE7ForeachERNS_8IVisitorINS_12CommandStateEEE, @function
_ZNK8opendnp318TypedCommandHeaderINS_17AnalogOutputInt16EE7ForeachERNS_8IVisitorINS_12CommandStateEEE:
.LFB1994:
	.cfi_startproc
	pushq	%r12
	.cfi_def_cfa_offset 16
	.cfi_offset 12, -16
	pushq	%rbp
	.cfi_def_cfa_offset 24
	.cfi_offset 6, -24
	pushq	%rbx
	.cfi_def_cfa_offset 32
	.cfi_offset 3, -32
	movq	48(%rdi), %rbx
	movq	56(%rdi), %r12
	cmpq	%rbx, %r12
	je	.L80
	movq	%rsi, %rbp
	.p2align 4
	.p2align 3
.L82:
	movq	0(%rbp), %rax
	movq	%rbx, %rsi
	addq	$8, %rbx
	movq	%rbp, %rdi
	call	*(%rax)
	cmpq	%rbx, %r12
	jne	.L82
.L80:
	popq	%rbx
	.cfi_def_cfa_offset 24
	popq	%rbp
	.cfi_def_cfa_offset 16
	popq	%r12
	.cfi_def_cfa_offset 8
	ret
	.cfi_endproc
.LFE1994:
	.size	_ZNK8opendnp318TypedCommandHeaderINS_17AnalogOutputInt16EE7ForeachERNS_8IVisitorINS_12CommandStateEEE, .-_ZNK8opendnp318TypedCommandHeaderINS_17AnalogOutputInt16EE7ForeachERNS_8IVisitorINS_12CommandStateEEE
	.section	.text._ZNK8opendnp318TypedCommandHeaderINS_17AnalogOutputInt16EE14AreAllSelectedEv,"axG",@progbits,_ZNK8opendnp318TypedCommandHeaderINS_17AnalogOutputInt16EE14AreAllSelectedEv,comdat
	.align 2
	.p2align 4
	.weak	_ZNK8opendnp318TypedCommandHeaderINS_17AnalogOutputInt16EE14AreAllSelectedEv
	.type	_ZNK8opendnp318TypedCommandHeaderINS_17AnalogOutputInt16EE14AreAllSelectedEv, @function
_ZNK8opendnp318TypedCommandHeaderINS_17AnalogOutputInt16EE14AreAllSelectedEv:
.LFB2000:
	.cfi_startproc
	movq	56(%rdi), %rcx
	movq	48(%rdi), %rax
	cmpq	%rcx, %rax
	je	.L89
	movq	%rcx, %rdx
	subq	%rax, %rdx
	subq	$8, %rdx
	shrq	$3, %rdx
	addq	$1, %rdx
	andl	$3, %edx
	je	.L88
	cmpq	$1, %rdx
	je	.L106
	cmpq	$2, %rdx
	je	.L107
	cmpb	$1, (%rax)
	jne	.L112
	addq	$8, %rax
.L107:
	cmpb	$1, (%rax)
	jne	.L112
	addq	$8, %rax
.L106:
	cmpb	$1, (%rax)
	jne	.L112
	addq	$8, %rax
	cmpq	%rax, %rcx
	je	.L89
.L88:
	cmpb	$1, (%rax)
	jne	.L112
	leaq	8(%rax), %rdx
	movq	%rdx, %rax
	cmpb	$1, (%rdx)
	jne	.L112
	addq	$8, %rax
	cmpb	$1, (%rax)
	jne	.L112
	leaq	16(%rdx), %rax
	cmpb	$1, 16(%rdx)
	jne	.L112
	leaq	24(%rdx), %rax
	cmpq	%rax, %rcx
	jne	.L88
.L89:
	movl	$1, %eax
	ret
	.p2align 4,,10
	.p2align 3
.L112:
	cmpq	%rax, %rcx
	sete	%al
	ret
	.cfi_endproc
.LFE2000:
	.size	_ZNK8opendnp318TypedCommandHeaderINS_17AnalogOutputInt16EE14AreAllSelectedEv, .-_ZNK8opendnp318TypedCommandHeaderINS_17AnalogOutputInt16EE14AreAllSelectedEv
	.section	.text._ZNK8opendnp318TypedCommandHeaderINS_17AnalogOutputInt32EE7ForeachERNS_8IVisitorINS_12CommandStateEEE,"axG",@progbits,_ZNK8opendnp318TypedCommandHeaderINS_17AnalogOutputInt32EE7ForeachERNS_8IVisitorINS_12CommandStateEEE,comdat
	.align 2
	.p2align 4
	.weak	_ZNK8opendnp318TypedCommandHeaderINS_17AnalogOutputInt32EE7ForeachERNS_8IVisitorINS_12CommandStateEEE
	.type	_ZNK8opendnp318TypedCommandHeaderINS_17AnalogOutputInt32EE7ForeachERNS_8IVisitorINS_12CommandStateEEE, @function
_ZNK8opendnp318TypedCommandHeaderINS_17AnalogOutputInt32EE7ForeachERNS_8IVisitorINS_12CommandStateEEE:
.LFB2010:
	.cfi_startproc
	pushq	%r12
	.cfi_def_cfa_offset 16
	.cfi_offset 12, -16
	pushq	%rbp
	.cfi_def_cfa_offset 24
	.cfi_offset 6, -24
	pushq	%rbx
	.cfi_def_cfa_offset 32
	.cfi_offset 3, -32
	movq	48(%rdi), %rbx
	movq	56(%rdi), %r12
	cmpq	%rbx, %r12
	je	.L114
	movq	%rsi, %rbp
	.p2align 4
	.p2align 3
.L116:
	movq	0(%rbp), %rax
	movq	%rbx, %rsi
	addq	$12, %rbx
	movq	%rbp, %rdi
	call	*(%rax)
	cmpq	%rbx, %r12
	jne	.L116
.L114:
	popq	%rbx
	.cfi_def_cfa_offset 24
	popq	%rbp
	.cfi_def_cfa_offset 16
	popq	%r12
	.cfi_def_cfa_offset 8
	ret
	.cfi_endproc
.LFE2010:
	.size	_ZNK8opendnp318TypedCommandHeaderINS_17AnalogOutputInt32EE7ForeachERNS_8IVisitorINS_12CommandStateEEE, .-_ZNK8opendnp318TypedCommandHeaderINS_17AnalogOutputInt32EE7ForeachERNS_8IVisitorINS_12CommandStateEEE
	.section	.text._ZNK8opendnp318TypedCommandHeaderINS_17AnalogOutputInt32EE14AreAllSelectedEv,"axG",@progbits,_ZNK8opendnp318TypedCommandHeaderINS_17AnalogOutputInt32EE14AreAllSelectedEv,comdat
	.align 2
	.p2align 4
	.weak	_ZNK8opendnp318TypedCommandHeaderINS_17AnalogOutputInt32EE14AreAllSelectedEv
	.type	_ZNK8opendnp318TypedCommandHeaderINS_17AnalogOutputInt32EE14AreAllSelectedEv, @function
_ZNK8opendnp318TypedCommandHeaderINS_17AnalogOutputInt32EE14AreAllSelectedEv:
.LFB2016:
	.cfi_startproc
	movq	56(%rdi), %rcx
	movq	48(%rdi), %rax
	cmpq	%rcx, %rax
	je	.L123
	movabsq	$3074457345618258603, %rsi
	movq	%rcx, %rdx
	subq	%rax, %rdx
	subq	$12, %rdx
	shrq	$2, %rdx
	imulq	%rsi, %rdx
	addq	$1, %rdx
	andl	$3, %edx
	je	.L122
	cmpq	$1, %rdx
	je	.L140
	cmpq	$2, %rdx
	je	.L141
	cmpb	$1, (%rax)
	jne	.L146
	addq	$12, %rax
.L141:
	cmpb	$1, (%rax)
	jne	.L146
	addq	$12, %rax
.L140:
	cmpb	$1, (%rax)
	jne	.L146
	addq	$12, %rax
	cmpq	%rax, %rcx
	je	.L123
.L122:
	cmpb	$1, (%rax)
	jne	.L146
	leaq	12(%rax), %rdx
	movq	%rdx, %rax
	cmpb	$1, (%rdx)
	jne	.L146
	addq	$12, %rax
	cmpb	$1, (%rax)
	jne	.L146
	leaq	24(%rdx), %rax
	cmpb	$1, 24(%rdx)
	jne	.L146
	leaq	36(%rdx), %rax
	cmpq	%rax, %rcx
	jne	.L122
.L123:
	movl	$1, %eax
	ret
	.p2align 4,,10
	.p2align 3
.L146:
	cmpq	%rax, %rcx
	sete	%al
	ret
	.cfi_endproc
.LFE2016:
	.size	_ZNK8opendnp318TypedCommandHeaderINS_17AnalogOutputInt32EE14AreAllSelectedEv, .-_ZNK8opendnp318TypedCommandHeaderINS_17AnalogOutputInt32EE14AreAllSelectedEv
	.section	.text._ZNK8opendnp318TypedCommandHeaderINS_23ControlRelayOutputBlockEE7ForeachERNS_8IVisitorINS_12CommandStateEEE,"axG",@progbits,_ZNK8opendnp318TypedCommandHeaderINS_23ControlRelayOutputBlockEE7ForeachERNS_8IVisitorINS_12CommandStateEEE,comdat
	.align 2
	.p2align 4
	.weak	_ZNK8opendnp318TypedCommandHeaderINS_23ControlRelayOutputBlockEE7ForeachERNS_8IVisitorINS_12CommandStateEEE
	.type	_ZNK8opendnp318TypedCommandHeaderINS_23ControlRelayOutputBlockEE7ForeachERNS_8IVisitorINS_12CommandStateEEE, @function
_ZNK8opendnp318TypedCommandHeaderINS_23ControlRelayOutputBlockEE7ForeachERNS_8IVisitorINS_12CommandStateEEE:
.LFB2026:
	.cfi_startproc
	pushq	%r12
	.cfi_def_cfa_offset 16
	.cfi_offset 12, -16
	pushq	%rbp
	.cfi_def_cfa_offset 24
	.cfi_offset 6, -24
	pushq	%rbx
	.cfi_def_cfa_offset 32
	.cfi_offset 3, -32
	movq	48(%rdi), %rbx
	movq	56(%rdi), %r12
	cmpq	%rbx, %r12
	je	.L148
	movq	%rsi, %rbp
	.p2align 4
	.p2align 3
.L150:
	movq	0(%rbp), %rax
	movq	%rbx, %rsi
	addq	$20, %rbx
	movq	%rbp, %rdi
	call	*(%rax)
	cmpq	%rbx, %r12
	jne	.L150
.L148:
	popq	%rbx
	.cfi_def_cfa_offset 24
	popq	%rbp
	.cfi_def_cfa_offset 16
	popq	%r12
	.cfi_def_cfa_offset 8
	ret
	.cfi_endproc
.LFE2026:
	.size	_ZNK8opendnp318TypedCommandHeaderINS_23ControlRelayOutputBlockEE7ForeachERNS_8IVisitorINS_12CommandStateEEE, .-_ZNK8opendnp318TypedCommandHeaderINS_23ControlRelayOutputBlockEE7ForeachERNS_8IVisitorINS_12CommandStateEEE
	.section	.text._ZNK8opendnp318TypedCommandHeaderINS_23ControlRelayOutputBlockEE14AreAllSelectedEv,"axG",@progbits,_ZNK8opendnp318TypedCommandHeaderINS_23ControlRelayOutputBlockEE14AreAllSelectedEv,comdat
	.align 2
	.p2align 4
	.weak	_ZNK8opendnp318TypedCommandHeaderINS_23ControlRelayOutputBlockEE14AreAllSelectedEv
	.type	_ZNK8opendnp318TypedCommandHeaderINS_23ControlRelayOutputBlockEE14AreAllSelectedEv, @function
_ZNK8opendnp318TypedCommandHeaderINS_23ControlRelayOutputBlockEE14AreAllSelectedEv:
.LFB2032:
	.cfi_startproc
	movq	56(%rdi), %rcx
	movq	48(%rdi), %rax
	cmpq	%rcx, %rax
	je	.L157
	movq	%rcx, %rdx
	subq	%rax, %rdx
	subq	$20, %rdx
	shrq	$2, %rdx
	addq	$1, %rdx
	andl	$3, %edx
	je	.L156
	cmpq	$1, %rdx
	je	.L174
	cmpq	$2, %rdx
	je	.L175
	cmpb	$1, (%rax)
	jne	.L180
	addq	$20, %rax
.L175:
	cmpb	$1, (%rax)
	jne	.L180
	addq	$20, %rax
.L174:
	cmpb	$1, (%rax)
	jne	.L180
	addq	$20, %rax
	cmpq	%rax, %rcx
	je	.L157
.L156:
	cmpb	$1, (%rax)
	jne	.L180
	leaq	20(%rax), %rdx
	movq	%rdx, %rax
	cmpb	$1, (%rdx)
	jne	.L180
	addq	$20, %rax
	cmpb	$1, (%rax)
	jne	.L180
	leaq	40(%rdx), %rax
	cmpb	$1, 40(%rdx)
	jne	.L180
	leaq	60(%rdx), %rax
	cmpq	%rax, %rcx
	jne	.L156
.L157:
	movl	$1, %eax
	ret
	.p2align 4,,10
	.p2align 3
.L180:
	cmpq	%rax, %rcx
	sete	%al
	ret
	.cfi_endproc
.LFE2032:
	.size	_ZNK8opendnp318TypedCommandHeaderINS_23ControlRelayOutputBlockEE14AreAllSelectedEv, .-_ZNK8opendnp318TypedCommandHeaderINS_23ControlRelayOutputBlockEE14AreAllSelectedEv
	.section	.text._ZN8opendnp314FunctorVisitorINS_7IndexedINS_17AnalogOutputInt32EEEZNS_18TypedCommandHeaderIS2_E20ApplyOperateResponseERKNS_11ICollectionIS3_EEEUlS3_E_E7OnValueERKS3_,"axG",@progbits,_ZN8opendnp314FunctorVisitorINS_7IndexedINS_17AnalogOutputInt32EEEZNS_18TypedCommandHeaderIS2_E20ApplyOperateResponseERKNS_11ICollectionIS3_EEEUlS3_E_E7OnValueERKS3_,comdat
	.align 2
	.p2align 4
	.weak	_ZN8opendnp314FunctorVisitorINS_7IndexedINS_17AnalogOutputInt32EEEZNS_18TypedCommandHeaderIS2_E20ApplyOperateResponseERKNS_11ICollectionIS3_EEEUlS3_E_E7OnValueERKS3_
	.type	_ZN8opendnp314FunctorVisitorINS_7IndexedINS_17AnalogOutputInt32EEEZNS_18TypedCommandHeaderIS2_E20ApplyOperateResponseERKNS_11ICollectionIS3_EEEUlS3_E_E7OnValueERKS3_, @function
_ZN8opendnp314FunctorVisitorINS_7IndexedINS_17AnalogOutputInt32EEEZNS_18TypedCommandHeaderIS2_E20ApplyOperateResponseERKNS_11ICollectionIS3_EEEUlS3_E_E7OnValueERKS3_:
.LFB2705:
	.cfi_startproc
	movq	16(%rdi), %rcx
	movq	8(%rdi), %r8
	movl	(%rsi), %r9d
	movzbl	4(%rsi), %r10d
	movl	(%rcx), %edx
	movzwl	8(%rsi), %esi
	movq	%rdx, %rax
	leaq	(%rdx,%rdx,2), %rdi
	movq	48(%r8), %rdx
	addl	$1, %eax
	leaq	(%rdx,%rdi,4), %rdx
	movl	%eax, (%rcx)
	cmpw	%si, 2(%rdx)
	jne	.L182
	cmpl	4(%rdx), %r9d
	je	.L184
	movb	$4, (%rdx)
	ret
	.p2align 4,,10
	.p2align 3
.L184:
	movb	$5, (%rdx)
	movb	%r10b, 1(%rdx)
.L182:
	ret
	.cfi_endproc
.LFE2705:
	.size	_ZN8opendnp314FunctorVisitorINS_7IndexedINS_17AnalogOutputInt32EEEZNS_18TypedCommandHeaderIS2_E20ApplyOperateResponseERKNS_11ICollectionIS3_EEEUlS3_E_E7OnValueERKS3_, .-_ZN8opendnp314FunctorVisitorINS_7IndexedINS_17AnalogOutputInt32EEEZNS_18TypedCommandHeaderIS2_E20ApplyOperateResponseERKNS_11ICollectionIS3_EEEUlS3_E_E7OnValueERKS3_
	.section	.text._ZN8opendnp314FunctorVisitorINS_7IndexedINS_17AnalogOutputInt16EEEZNS_18TypedCommandHeaderIS2_E20ApplyOperateResponseERKNS_11ICollectionIS3_EEEUlS3_E_E7OnValueERKS3_,"axG",@progbits,_ZN8opendnp314FunctorVisitorINS_7IndexedINS_17AnalogOutputInt16EEEZNS_18TypedCommandHeaderIS2_E20ApplyOperateResponseERKNS_11ICollectionIS3_EEEUlS3_E_E7OnValueERKS3_,comdat
	.align 2
	.p2align 4
	.weak	_ZN8opendnp314FunctorVisitorINS_7IndexedINS_17AnalogOutputInt16EEEZNS_18TypedCommandHeaderIS2_E20ApplyOperateResponseERKNS_11ICollectionIS3_EEEUlS3_E_E7OnValueERKS3_
	.type	_ZN8opendnp314FunctorVisitorINS_7IndexedINS_17AnalogOutputInt16EEEZNS_18TypedCommandHeaderIS2_E20ApplyOperateResponseERKNS_11ICollectionIS3_EEEUlS3_E_E7OnValueERKS3_, @function
_ZN8opendnp314FunctorVisitorINS_7IndexedINS_17AnalogOutputInt16EEEZNS_18TypedCommandHeaderIS2_E20ApplyOperateResponseERKNS_11ICollectionIS3_EEEUlS3_E_E7OnValueERKS3_:
.LFB2707:
	.cfi_startproc
	movq	16(%rdi), %rcx
	movq	8(%rdi), %rdx
	movzwl	(%rsi), %r8d
	movzbl	2(%rsi), %r9d
	movl	(%rcx), %eax
	movq	48(%rdx), %rdx
	movzwl	4(%rsi), %esi
	movl	%eax, %edi
	addl	$1, %eax
	leaq	(%rdx,%rdi,8), %rdx
	movl	%eax, (%rcx)
	cmpw	%si, 2(%rdx)
	jne	.L185
	cmpw	4(%rdx), %r8w
	je	.L187
	movb	$4, (%rdx)
	ret
	.p2align 4,,10
	.p2align 3
.L187:
	movb	$5, (%rdx)
	movb	%r9b, 1(%rdx)
.L185:
	ret
	.cfi_endproc
.LFE2707:
	.size	_ZN8opendnp314FunctorVisitorINS_7IndexedINS_17AnalogOutputInt16EEEZNS_18TypedCommandHeaderIS2_E20ApplyOperateResponseERKNS_11ICollectionIS3_EEEUlS3_E_E7OnValueERKS3_, .-_ZN8opendnp314FunctorVisitorINS_7IndexedINS_17AnalogOutputInt16EEEZNS_18TypedCommandHeaderIS2_E20ApplyOperateResponseERKNS_11ICollectionIS3_EEEUlS3_E_E7OnValueERKS3_
	.section	.text._ZN8opendnp314FunctorVisitorINS_7IndexedINS_19AnalogOutputFloat32EEEZNS_18TypedCommandHeaderIS2_E20ApplyOperateResponseERKNS_11ICollectionIS3_EEEUlS3_E_E7OnValueERKS3_,"axG",@progbits,_ZN8opendnp314FunctorVisitorINS_7IndexedINS_19AnalogOutputFloat32EEEZNS_18TypedCommandHeaderIS2_E20ApplyOperateResponseERKNS_11ICollectionIS3_EEEUlS3_E_E7OnValueERKS3_,comdat
	.align 2
	.p2align 4
	.weak	_ZN8opendnp314FunctorVisitorINS_7IndexedINS_19AnalogOutputFloat32EEEZNS_18TypedCommandHeaderIS2_E20ApplyOperateResponseERKNS_11ICollectionIS3_EEEUlS3_E_E7OnValueERKS3_
	.type	_ZN8opendnp314FunctorVisitorINS_7IndexedINS_19AnalogOutputFloat32EEEZNS_18TypedCommandHeaderIS2_E20ApplyOperateResponseERKNS_11ICollectionIS3_EEEUlS3_E_E7OnValueERKS3_, @function
_ZN8opendnp314FunctorVisitorINS_7IndexedINS_19AnalogOutputFloat32EEEZNS_18TypedCommandHeaderIS2_E20ApplyOperateResponseERKNS_11ICollectionIS3_EEEUlS3_E_E7OnValueERKS3_:
.LFB2709:
	.cfi_startproc
	movq	16(%rdi), %rcx
	movq	8(%rdi), %r8
	movss	(%rsi), %xmm0
	movzbl	4(%rsi), %r9d
	movl	(%rcx), %edx
	movzwl	8(%rsi), %esi
	movq	%rdx, %rax
	leaq	(%rdx,%rdx,2), %rdi
	movq	48(%r8), %rdx
	addl	$1, %eax
	leaq	(%rdx,%rdi,4), %rdx
	movl	%eax, (%rcx)
	cmpw	%si, 2(%rdx)
	jne	.L188
	ucomiss	4(%rdx), %xmm0
	jp	.L192
	jne	.L192
	movb	$5, (%rdx)
	movb	%r9b, 1(%rdx)
.L188:
	ret
	.p2align 4,,10
	.p2align 3
.L192:
	movb	$4, (%rdx)
	ret
	.cfi_endproc
.LFE2709:
	.size	_ZN8opendnp314FunctorVisitorINS_7IndexedINS_19AnalogOutputFloat32EEEZNS_18TypedCommandHeaderIS2_E20ApplyOperateResponseERKNS_11ICollectionIS3_EEEUlS3_E_E7OnValueERKS3_, .-_ZN8opendnp314FunctorVisitorINS_7IndexedINS_19AnalogOutputFloat32EEEZNS_18TypedCommandHeaderIS2_E20ApplyOperateResponseERKNS_11ICollectionIS3_EEEUlS3_E_E7OnValueERKS3_
	.section	.text._ZN8opendnp314FunctorVisitorINS_7IndexedINS_20AnalogOutputDouble64EEEZNS_18TypedCommandHeaderIS2_E20ApplyOperateResponseERKNS_11ICollectionIS3_EEEUlS3_E_E7OnValueERKS3_,"axG",@progbits,_ZN8opendnp314FunctorVisitorINS_7IndexedINS_20AnalogOutputDouble64EEEZNS_18TypedCommandHeaderIS2_E20ApplyOperateResponseERKNS_11ICollectionIS3_EEEUlS3_E_E7OnValueERKS3_,comdat
	.align 2
	.p2align 4
	.weak	_ZN8opendnp314FunctorVisitorINS_7IndexedINS_20AnalogOutputDouble64EEEZNS_18TypedCommandHeaderIS2_E20ApplyOperateResponseERKNS_11ICollectionIS3_EEEUlS3_E_E7OnValueERKS3_
	.type	_ZN8opendnp314FunctorVisitorINS_7IndexedINS_20AnalogOutputDouble64EEEZNS_18TypedCommandHeaderIS2_E20ApplyOperateResponseERKNS_11ICollectionIS3_EEEUlS3_E_E7OnValueERKS3_, @function
_ZN8opendnp314FunctorVisitorINS_7IndexedINS_20AnalogOutputDouble64EEEZNS_18TypedCommandHeaderIS2_E20ApplyOperateResponseERKNS_11ICollectionIS3_EEEUlS3_E_E7OnValueERKS3_:
.LFB2711:
	.cfi_startproc
	movq	16(%rdi), %rcx
	movq	8(%rdi), %r8
	movsd	(%rsi), %xmm0
	movzbl	8(%rsi), %r9d
	movl	(%rcx), %edx
	movzwl	16(%rsi), %esi
	movq	%rdx, %rax
	leaq	(%rdx,%rdx,2), %rdi
	movq	48(%r8), %rdx
	addl	$1, %eax
	leaq	(%rdx,%rdi,8), %rdx
	movl	%eax, (%rcx)
	cmpw	%si, 2(%rdx)
	jne	.L193
	ucomisd	8(%rdx), %xmm0
	jp	.L197
	jne	.L197
	movb	$5, (%rdx)
	movb	%r9b, 1(%rdx)
.L193:
	ret
	.p2align 4,,10
	.p2align 3
.L197:
	movb	$4, (%rdx)
	ret
	.cfi_endproc
.LFE2711:
	.size	_ZN8opendnp314FunctorVisitorINS_7IndexedINS_20AnalogOutputDouble64EEEZNS_18TypedCommandHeaderIS2_E20ApplyOperateResponseERKNS_11ICollectionIS3_EEEUlS3_E_E7OnValueERKS3_, .-_ZN8opendnp314FunctorVisitorINS_7IndexedINS_20AnalogOutputDouble64EEEZNS_18TypedCommandHeaderIS2_E20ApplyOperateResponseERKNS_11ICollectionIS3_EEEUlS3_E_E7OnValueERKS3_
	.section	.text._ZNK8opendnp318TypedCommandHeaderINS_20AnalogOutputDouble64EE5CountEv,"axG",@progbits,_ZNK8opendnp318TypedCommandHeaderINS_20AnalogOutputDouble64EE5CountEv,comdat
	.align 2
	.p2align 4
	.weak	_ZNK8opendnp318TypedCommandHeaderINS_20AnalogOutputDouble64EE5CountEv
	.type	_ZNK8opendnp318TypedCommandHeaderINS_20AnalogOutputDouble64EE5CountEv, @function
_ZNK8opendnp318TypedCommandHeaderINS_20AnalogOutputDouble64EE5CountEv:
.LFB1961:
	.cfi_startproc
	movabsq	$-6148914691236517205, %rdx
	movq	56(%rdi), %rax
	subq	48(%rdi), %rax
	sarq	$3, %rax
	imulq	%rdx, %rax
	ret
	.cfi_endproc
.LFE1961:
	.size	_ZNK8opendnp318TypedCommandHeaderINS_20AnalogOutputDouble64EE5CountEv, .-_ZNK8opendnp318TypedCommandHeaderINS_20AnalogOutputDouble64EE5CountEv
	.section	.text._ZNK8opendnp318TypedCommandHeaderINS_19AnalogOutputFloat32EE5CountEv,"axG",@progbits,_ZNK8opendnp318TypedCommandHeaderINS_19AnalogOutputFloat32EE5CountEv,comdat
	.align 2
	.p2align 4
	.weak	_ZNK8opendnp318TypedCommandHeaderINS_19AnalogOutputFloat32EE5CountEv
	.type	_ZNK8opendnp318TypedCommandHeaderINS_19AnalogOutputFloat32EE5CountEv, @function
_ZNK8opendnp318TypedCommandHeaderINS_19AnalogOutputFloat32EE5CountEv:
.LFB1977:
	.cfi_startproc
	movabsq	$-6148914691236517205, %rdx
	movq	56(%rdi), %rax
	subq	48(%rdi), %rax
	sarq	$2, %rax
	imulq	%rdx, %rax
	ret
	.cfi_endproc
.LFE1977:
	.size	_ZNK8opendnp318TypedCommandHeaderINS_19AnalogOutputFloat32EE5CountEv, .-_ZNK8opendnp318TypedCommandHeaderINS_19AnalogOutputFloat32EE5CountEv
	.section	.text._ZNK8opendnp318TypedCommandHeaderINS_17AnalogOutputInt16EE5CountEv,"axG",@progbits,_ZNK8opendnp318TypedCommandHeaderINS_17AnalogOutputInt16EE5CountEv,comdat
	.align 2
	.p2align 4
	.weak	_ZNK8opendnp318TypedCommandHeaderINS_17AnalogOutputInt16EE5CountEv
	.type	_ZNK8opendnp318TypedCommandHeaderINS_17AnalogOutputInt16EE5CountEv, @function
_ZNK8opendnp318TypedCommandHeaderINS_17AnalogOutputInt16EE5CountEv:
.LFB1993:
	.cfi_startproc
	movq	56(%rdi), %rax
	subq	48(%rdi), %rax
	sarq	$3, %rax
	ret
	.cfi_endproc
.LFE1993:
	.size	_ZNK8opendnp318TypedCommandHeaderINS_17AnalogOutputInt16EE5CountEv, .-_ZNK8opendnp318TypedCommandHeaderINS_17AnalogOutputInt16EE5CountEv
	.section	.text._ZNK8opendnp318TypedCommandHeaderINS_17AnalogOutputInt32EE5CountEv,"axG",@progbits,_ZNK8opendnp318TypedCommandHeaderINS_17AnalogOutputInt32EE5CountEv,comdat
	.align 2
	.p2align 4
	.weak	_ZNK8opendnp318TypedCommandHeaderINS_17AnalogOutputInt32EE5CountEv
	.type	_ZNK8opendnp318TypedCommandHeaderINS_17AnalogOutputInt32EE5CountEv, @function
_ZNK8opendnp318TypedCommandHeaderINS_17AnalogOutputInt32EE5CountEv:
.LFB2009:
	.cfi_startproc
	movabsq	$-6148914691236517205, %rdx
	movq	56(%rdi), %rax
	subq	48(%rdi), %rax
	sarq	$2, %rax
	imulq	%rdx, %rax
	ret
	.cfi_endproc
.LFE2009:
	.size	_ZNK8opendnp318TypedCommandHeaderINS_17AnalogOutputInt32EE5CountEv, .-_ZNK8opendnp318TypedCommandHeaderINS_17AnalogOutputInt32EE5CountEv
	.section	.text._ZNK8opendnp318TypedCommandHeaderINS_23ControlRelayOutputBlockEE5CountEv,"axG",@progbits,_ZNK8opendnp318TypedCommandHeaderINS_23ControlRelayOutputBlockEE5CountEv,comdat
	.align 2
	.p2align 4
	.weak	_ZNK8opendnp318TypedCommandHeaderINS_23ControlRelayOutputBlockEE5CountEv
	.type	_ZNK8opendnp318TypedCommandHeaderINS_23ControlRelayOutputBlockEE5CountEv, @function
_ZNK8opendnp318TypedCommandHeaderINS_23ControlRelayOutputBlockEE5CountEv:
.LFB2025:
	.cfi_startproc
	movabsq	$-3689348814741910323, %rdx
	movq	56(%rdi), %rax
	subq	48(%rdi), %rax
	sarq	$2, %rax
	imulq	%rdx, %rax
	ret
	.cfi_endproc
.LFE2025:
	.size	_ZNK8opendnp318TypedCommandHeaderINS_23ControlRelayOutputBlockEE5CountEv, .-_ZNK8opendnp318TypedCommandHeaderINS_23ControlRelayOutputBlockEE5CountEv
	.section	.text._ZN8opendnp318TypedCommandHeaderINS_23ControlRelayOutputBlockEED2Ev,"axG",@progbits,_ZN8opendnp318TypedCommandHeaderINS_23ControlRelayOutputBlockEED5Ev,comdat
	.align 2
	.p2align 4
	.weak	_ZN8opendnp318TypedCommandHeaderINS_23ControlRelayOutputBlockEED2Ev
	.type	_ZN8opendnp318TypedCommandHeaderINS_23ControlRelayOutputBlockEED2Ev, @function
_ZN8opendnp318TypedCommandHeaderINS_23ControlRelayOutputBlockEED2Ev:
.LFB1958:
	.cfi_startproc
	movq	%rdi, %rax
	movq	48(%rdi), %rdi
	testq	%rdi, %rdi
	je	.L203
	movq	64(%rax), %rsi
	subq	%rdi, %rsi
	jmp	_ZdlPvm@PLT
	.p2align 4,,10
	.p2align 3
.L203:
	ret
	.cfi_endproc
.LFE1958:
	.size	_ZN8opendnp318TypedCommandHeaderINS_23ControlRelayOutputBlockEED2Ev, .-_ZN8opendnp318TypedCommandHeaderINS_23ControlRelayOutputBlockEED2Ev
	.weak	_ZN8opendnp318TypedCommandHeaderINS_23ControlRelayOutputBlockEED1Ev
	.set	_ZN8opendnp318TypedCommandHeaderINS_23ControlRelayOutputBlockEED1Ev,_ZN8opendnp318TypedCommandHeaderINS_23ControlRelayOutputBlockEED2Ev
	.section	.text._ZN8opendnp318TypedCommandHeaderINS_23ControlRelayOutputBlockEED0Ev,"axG",@progbits,_ZN8opendnp318TypedCommandHeaderINS_23ControlRelayOutputBlockEED5Ev,comdat
	.align 2
	.p2align 4
	.weak	_ZN8opendnp318TypedCommandHeaderINS_23ControlRelayOutputBlockEED0Ev
	.type	_ZN8opendnp318TypedCommandHeaderINS_23ControlRelayOutputBlockEED0Ev, @function
_ZN8opendnp318TypedCommandHeaderINS_23ControlRelayOutputBlockEED0Ev:
.LFB1960:
	.cfi_startproc
	movq	%rdi, %rax
	movq	48(%rdi), %rdi
	testq	%rdi, %rdi
	je	.L211
	subq	$24, %rsp
	.cfi_def_cfa_offset 32
	movq	64(%rax), %rsi
	movq	%rax, 8(%rsp)
	subq	%rdi, %rsi
	call	_ZdlPvm@PLT
	movq	8(%rsp), %rax
	movl	$72, %esi
	addq	$24, %rsp
	.cfi_def_cfa_offset 8
	movq	%rax, %rdi
	jmp	_ZdlPvm@PLT
	.p2align 4,,10
	.p2align 3
.L211:
	movl	$72, %esi
	movq	%rax, %rdi
	jmp	_ZdlPvm@PLT
	.cfi_endproc
.LFE1960:
	.size	_ZN8opendnp318TypedCommandHeaderINS_23ControlRelayOutputBlockEED0Ev, .-_ZN8opendnp318TypedCommandHeaderINS_23ControlRelayOutputBlockEED0Ev
	.section	.text._ZN8opendnp318TypedCommandHeaderINS_17AnalogOutputInt32EED2Ev,"axG",@progbits,_ZN8opendnp318TypedCommandHeaderINS_17AnalogOutputInt32EED5Ev,comdat
	.align 2
	.p2align 4
	.weak	_ZN8opendnp318TypedCommandHeaderINS_17AnalogOutputInt32EED2Ev
	.type	_ZN8opendnp318TypedCommandHeaderINS_17AnalogOutputInt32EED2Ev, @function
_ZN8opendnp318TypedCommandHeaderINS_17AnalogOutputInt32EED2Ev:
.LFB1954:
	.cfi_startproc
	movq	%rdi, %rax
	movq	48(%rdi), %rdi
	testq	%rdi, %rdi
	je	.L214
	movq	64(%rax), %rsi
	subq	%rdi, %rsi
	jmp	_ZdlPvm@PLT
	.p2align 4,,10
	.p2align 3
.L214:
	ret
	.cfi_endproc
.LFE1954:
	.size	_ZN8opendnp318TypedCommandHeaderINS_17AnalogOutputInt32EED2Ev, .-_ZN8opendnp318TypedCommandHeaderINS_17AnalogOutputInt32EED2Ev
	.weak	_ZN8opendnp318TypedCommandHeaderINS_17AnalogOutputInt32EED1Ev
	.set	_ZN8opendnp318TypedCommandHeaderINS_17AnalogOutputInt32EED1Ev,_ZN8opendnp318TypedCommandHeaderINS_17AnalogOutputInt32EED2Ev
	.section	.text._ZN8opendnp318TypedCommandHeaderINS_17AnalogOutputInt32EED0Ev,"axG",@progbits,_ZN8opendnp318TypedCommandHeaderINS_17AnalogOutputInt32EED5Ev,comdat
	.align 2
	.p2align 4
	.weak	_ZN8opendnp318TypedCommandHeaderINS_17AnalogOutputInt32EED0Ev
	.type	_ZN8opendnp318TypedCommandHeaderINS_17AnalogOutputInt32EED0Ev, @function
_ZN8opendnp318TypedCommandHeaderINS_17AnalogOutputInt32EED0Ev:
.LFB1956:
	.cfi_startproc
	movq	%rdi, %rax
	movq	48(%rdi), %rdi
	testq	%rdi, %rdi
	je	.L222
	subq	$24, %rsp
	.cfi_def_cfa_offset 32
	movq	64(%rax), %rsi
	movq	%rax, 8(%rsp)
	subq	%rdi, %rsi
	call	_ZdlPvm@PLT
	movq	8(%rsp), %rax
	movl	$72, %esi
	addq	$24, %rsp
	.cfi_def_cfa_offset 8
	movq	%rax, %rdi
	jmp	_ZdlPvm@PLT
	.p2align 4,,10
	.p2align 3
.L222:
	movl	$72, %esi
	movq	%rax, %rdi
	jmp	_ZdlPvm@PLT
	.cfi_endproc
.LFE1956:
	.size	_ZN8opendnp318TypedCommandHeaderINS_17AnalogOutputInt32EED0Ev, .-_ZN8opendnp318TypedCommandHeaderINS_17AnalogOutputInt32EED0Ev
	.section	.text._ZN8opendnp318TypedCommandHeaderINS_17AnalogOutputInt16EED2Ev,"axG",@progbits,_ZN8opendnp318TypedCommandHeaderINS_17AnalogOutputInt16EED5Ev,comdat
	.align 2
	.p2align 4
	.weak	_ZN8opendnp318TypedCommandHeaderINS_17AnalogOutputInt16EED2Ev
	.type	_ZN8opendnp318TypedCommandHeaderINS_17AnalogOutputInt16EED2Ev, @function
_ZN8opendnp318TypedCommandHeaderINS_17AnalogOutputInt16EED2Ev:
.LFB1950:
	.cfi_startproc
	movq	%rdi, %rax
	movq	48(%rdi), %rdi
	testq	%rdi, %rdi
	je	.L225
	movq	64(%rax), %rsi
	subq	%rdi, %rsi
	jmp	_ZdlPvm@PLT
	.p2align 4,,10
	.p2align 3
.L225:
	ret
	.cfi_endproc
.LFE1950:
	.size	_ZN8opendnp318TypedCommandHeaderINS_17AnalogOutputInt16EED2Ev, .-_ZN8opendnp318TypedCommandHeaderINS_17AnalogOutputInt16EED2Ev
	.weak	_ZN8opendnp318TypedCommandHeaderINS_17AnalogOutputInt16EED1Ev
	.set	_ZN8opendnp318TypedCommandHeaderINS_17AnalogOutputInt16EED1Ev,_ZN8opendnp318TypedCommandHeaderINS_17AnalogOutputInt16EED2Ev
	.section	.text._ZN8opendnp318TypedCommandHeaderINS_17AnalogOutputInt16EED0Ev,"axG",@progbits,_ZN8opendnp318TypedCommandHeaderINS_17AnalogOutputInt16EED5Ev,comdat
	.align 2
	.p2align 4
	.weak	_ZN8opendnp318TypedCommandHeaderINS_17AnalogOutputInt16EED0Ev
	.type	_ZN8opendnp318TypedCommandHeaderINS_17AnalogOutputInt16EED0Ev, @function
_ZN8opendnp318TypedCommandHeaderINS_17AnalogOutputInt16EED0Ev:
.LFB1952:
	.cfi_startproc
	movq	%rdi, %rax
	movq	48(%rdi), %rdi
	testq	%rdi, %rdi
	je	.L233
	subq	$24, %rsp
	.cfi_def_cfa_offset 32
	movq	64(%rax), %rsi
	movq	%rax, 8(%rsp)
	subq	%rdi, %rsi
	call	_ZdlPvm@PLT
	movq	8(%rsp), %rax
	movl	$72, %esi
	addq	$24, %rsp
	.cfi_def_cfa_offset 8
	movq	%rax, %rdi
	jmp	_ZdlPvm@PLT
	.p2align 4,,10
	.p2align 3
.L233:
	movl	$72, %esi
	movq	%rax, %rdi
	jmp	_ZdlPvm@PLT
	.cfi_endproc
.LFE1952:
	.size	_ZN8opendnp318TypedCommandHeaderINS_17AnalogOutputInt16EED0Ev, .-_ZN8opendnp318TypedCommandHeaderINS_17AnalogOutputInt16EED0Ev
	.section	.text._ZN8opendnp318TypedCommandHeaderINS_19AnalogOutputFloat32EED2Ev,"axG",@progbits,_ZN8opendnp318TypedCommandHeaderINS_19AnalogOutputFloat32EED5Ev,comdat
	.align 2
	.p2align 4
	.weak	_ZN8opendnp318TypedCommandHeaderINS_19AnalogOutputFloat32EED2Ev
	.type	_ZN8opendnp318TypedCommandHeaderINS_19AnalogOutputFloat32EED2Ev, @function
_ZN8opendnp318TypedCommandHeaderINS_19AnalogOutputFloat32EED2Ev:
.LFB1946:
	.cfi_startproc
	movq	%rdi, %rax
	movq	48(%rdi), %rdi
	testq	%rdi, %rdi
	je	.L236
	movq	64(%rax), %rsi
	subq	%rdi, %rsi
	jmp	_ZdlPvm@PLT
	.p2align 4,,10
	.p2align 3
.L236:
	ret
	.cfi_endproc
.LFE1946:
	.size	_ZN8opendnp318TypedCommandHeaderINS_19AnalogOutputFloat32EED2Ev, .-_ZN8opendnp318TypedCommandHeaderINS_19AnalogOutputFloat32EED2Ev
	.weak	_ZN8opendnp318TypedCommandHeaderINS_19AnalogOutputFloat32EED1Ev
	.set	_ZN8opendnp318TypedCommandHeaderINS_19AnalogOutputFloat32EED1Ev,_ZN8opendnp318TypedCommandHeaderINS_19AnalogOutputFloat32EED2Ev
	.section	.text._ZN8opendnp318TypedCommandHeaderINS_19AnalogOutputFloat32EED0Ev,"axG",@progbits,_ZN8opendnp318TypedCommandHeaderINS_19AnalogOutputFloat32EED5Ev,comdat
	.align 2
	.p2align 4
	.weak	_ZN8opendnp318TypedCommandHeaderINS_19AnalogOutputFloat32EED0Ev
	.type	_ZN8opendnp318TypedCommandHeaderINS_19AnalogOutputFloat32EED0Ev, @function
_ZN8opendnp318TypedCommandHeaderINS_19AnalogOutputFloat32EED0Ev:
.LFB1948:
	.cfi_startproc
	movq	%rdi, %rax
	movq	48(%rdi), %rdi
	testq	%rdi, %rdi
	je	.L244
	subq	$24, %rsp
	.cfi_def_cfa_offset 32
	movq	64(%rax), %rsi
	movq	%rax, 8(%rsp)
	subq	%rdi, %rsi
	call	_ZdlPvm@PLT
	movq	8(%rsp), %rax
	movl	$72, %esi
	addq	$24, %rsp
	.cfi_def_cfa_offset 8
	movq	%rax, %rdi
	jmp	_ZdlPvm@PLT
	.p2align 4,,10
	.p2align 3
.L244:
	movl	$72, %esi
	movq	%rax, %rdi
	jmp	_ZdlPvm@PLT
	.cfi_endproc
.LFE1948:
	.size	_ZN8opendnp318TypedCommandHeaderINS_19AnalogOutputFloat32EED0Ev, .-_ZN8opendnp318TypedCommandHeaderINS_19AnalogOutputFloat32EED0Ev
	.section	.text._ZN8opendnp318TypedCommandHeaderINS_20AnalogOutputDouble64EED2Ev,"axG",@progbits,_ZN8opendnp318TypedCommandHeaderINS_20AnalogOutputDouble64EED5Ev,comdat
	.align 2
	.p2align 4
	.weak	_ZN8opendnp318TypedCommandHeaderINS_20AnalogOutputDouble64EED2Ev
	.type	_ZN8opendnp318TypedCommandHeaderINS_20AnalogOutputDouble64EED2Ev, @function
_ZN8opendnp318TypedCommandHeaderINS_20AnalogOutputDouble64EED2Ev:
.LFB1942:
	.cfi_startproc
	movq	%rdi, %rax
	movq	48(%rdi), %rdi
	testq	%rdi, %rdi
	je	.L247
	movq	64(%rax), %rsi
	subq	%rdi, %rsi
	jmp	_ZdlPvm@PLT
	.p2align 4,,10
	.p2align 3
.L247:
	ret
	.cfi_endproc
.LFE1942:
	.size	_ZN8opendnp318TypedCommandHeaderINS_20AnalogOutputDouble64EED2Ev, .-_ZN8opendnp318TypedCommandHeaderINS_20AnalogOutputDouble64EED2Ev
	.weak	_ZN8opendnp318TypedCommandHeaderINS_20AnalogOutputDouble64EED1Ev
	.set	_ZN8opendnp318TypedCommandHeaderINS_20AnalogOutputDouble64EED1Ev,_ZN8opendnp318TypedCommandHeaderINS_20AnalogOutputDouble64EED2Ev
	.section	.text._ZN8opendnp318TypedCommandHeaderINS_20AnalogOutputDouble64EED0Ev,"axG",@progbits,_ZN8opendnp318TypedCommandHeaderINS_20AnalogOutputDouble64EED5Ev,comdat
	.align 2
	.p2align 4
	.weak	_ZN8opendnp318TypedCommandHeaderINS_20AnalogOutputDouble64EED0Ev
	.type	_ZN8opendnp318TypedCommandHeaderINS_20AnalogOutputDouble64EED0Ev, @function
_ZN8opendnp318TypedCommandHeaderINS_20AnalogOutputDouble64EED0Ev:
.LFB1944:
	.cfi_startproc
	movq	%rdi, %rax
	movq	48(%rdi), %rdi
	testq	%rdi, %rdi
	je	.L255
	subq	$24, %rsp
	.cfi_def_cfa_offset 32
	movq	64(%rax), %rsi
	movq	%rax, 8(%rsp)
	subq	%rdi, %rsi
	call	_ZdlPvm@PLT
	movq	8(%rsp), %rax
	movl	$72, %esi
	addq	$24, %rsp
	.cfi_def_cfa_offset 8
	movq	%rax, %rdi
	jmp	_ZdlPvm@PLT
	.p2align 4,,10
	.p2align 3
.L255:
	movl	$72, %esi
	movq	%rax, %rdi
	jmp	_ZdlPvm@PLT
	.cfi_endproc
.LFE1944:
	.size	_ZN8opendnp318TypedCommandHeaderINS_20AnalogOutputDouble64EED0Ev, .-_ZN8opendnp318TypedCommandHeaderINS_20AnalogOutputDouble64EED0Ev
	.section	.text._ZNK8opendnp318TypedCommandHeaderINS_20AnalogOutputDouble64EE5WriteERNS_12HeaderWriterE,"axG",@progbits,_ZNK8opendnp318TypedCommandHeaderINS_20AnalogOutputDouble64EE5WriteERNS_12HeaderWriterE,comdat
	.align 2
	.p2align 4
	.weak	_ZNK8opendnp318TypedCommandHeaderINS_20AnalogOutputDouble64EE5WriteERNS_12HeaderWriterE
	.type	_ZNK8opendnp318TypedCommandHeaderINS_20AnalogOutputDouble64EE5WriteERNS_12HeaderWriterE, @function
_ZNK8opendnp318TypedCommandHeaderINS_20AnalogOutputDouble64EE5WriteERNS_12HeaderWriterE:
.LFB1967:
	.cfi_startproc
	.cfi_personality 0x9b,DW.ref.__gxx_personality_v0
	.cfi_lsda 0x1b,.LLSDA1967
	movq	48(%rdi), %rax
	cmpq	%rax, 56(%rdi)
	je	.L271
	pushq	%r12
	.cfi_def_cfa_offset 16
	.cfi_offset 12, -16
	movl	$40, %edx
	pushq	%rbp
	.cfi_def_cfa_offset 24
	.cfi_offset 6, -24
	movq	%rdi, %rbp
	pushq	%rbx
	.cfi_def_cfa_offset 32
	.cfi_offset 3, -32
	movq	%rsi, %rbx
	subq	$64, %rsp
	.cfi_def_cfa_offset 96
	movl	16(%rdi), %eax
	movzwl	40(%rdi), %esi
	movq	%rbx, %rdi
	leal	4(%rax), %ecx
.LEHB0:
	call	_ZN8opendnp312HeaderWriter22WriteHeaderWithReserveENS_16GroupVariationIDENS_13QualifierCodeEj@PLT
	testb	%al, %al
	jne	.L283
	xorl	%eax, %eax
	pxor	%xmm0, %xmm0
	leaq	32(%rsp), %rdi
	movb	$0, 30(%rsp)
	movw	%ax, 28(%rsp)
	movl	$0, (%rsp)
	movl	$0, 24(%rsp)
	movups	%xmm0, 8(%rsp)
	call	_ZN7openpal6WSliceC1Ev@PLT
.LEHE0:
	movzbl	30(%rsp), %eax
	movq	$0, 48(%rsp)
.L264:
	movq	48(%rbp), %rbx
	movq	56(%rbp), %rbp
	cmpq	%rbx, %rbp
	je	.L265
	.p2align 4
	.p2align 3
.L267:
	testb	%al, %al
	je	.L263
	movq	48(%rsp), %rdi
	movl	24(%rsp), %eax
	cmpl	%eax, (%rdi)
	jnb	.L284
	xorl	%eax, %eax
.L266:
	movq	40(%rsp), %rdx
	movzwl	28(%rsp), %ecx
	movw	%cx, (%rdx)
	addq	$64, %rsp
	.cfi_remember_state
	.cfi_def_cfa_offset 32
	popq	%rbx
	.cfi_def_cfa_offset 24
	popq	%rbp
	.cfi_def_cfa_offset 16
	popq	%r12
	.cfi_def_cfa_offset 8
	ret
	.p2align 4,,10
	.p2align 3
.L283:
	.cfi_restore_state
	movq	32(%rbp), %rax
	movq	(%rbx), %rdi
	xorl	%edx, %edx
	movdqu	16(%rbp), %xmm1
	movw	%dx, 28(%rsp)
	movq	%rax, 16(%rsp)
	movl	16(%rbp), %eax
	movdqu	(%rdi), %xmm0
	movq	%rdi, 48(%rsp)
	addl	$2, %eax
	cmpl	$1, (%rdi)
	movaps	%xmm1, (%rsp)
	movl	%eax, 24(%rsp)
	seta	30(%rsp)
	movaps	%xmm0, 32(%rsp)
	ja	.L261
	movq	48(%rbp), %rbx
	movq	56(%rbp), %rbp
	xorl	%eax, %eax
	cmpq	%rbp, %rbx
	jne	.L267
	.p2align 4
	.p2align 3
.L263:
	xorl	%eax, %eax
.L285:
	addq	$64, %rsp
	.cfi_remember_state
	.cfi_def_cfa_offset 32
	popq	%rbx
	.cfi_def_cfa_offset 24
	popq	%rbp
	.cfi_def_cfa_offset 16
	popq	%r12
	.cfi_def_cfa_offset 8
	ret
	.p2align 4,,10
	.p2align 3
.L284:
	.cfi_restore_state
	movzwl	2(%rbx), %edx
	movq	8(%rdi), %rax
	movl	$2, %esi
	movw	%dx, (%rax)
.LEHB1:
	call	_ZN7openpal6WSlice7AdvanceEj@PLT
	movq	48(%rsp), %rsi
	leaq	8(%rbx), %rdi
	call	*16(%rsp)
.LEHE1:
	addq	$24, %rbx
	addw	$1, 28(%rsp)
	movzbl	30(%rsp), %eax
	cmpq	%rbx, %rbp
	jne	.L267
.L265:
	testb	%al, %al
	jne	.L266
	xorl	%eax, %eax
	jmp	.L285
	.p2align 4,,10
	.p2align 3
.L271:
	.cfi_def_cfa_offset 8
	.cfi_restore 3
	.cfi_restore 6
	.cfi_restore 12
	xorl	%eax, %eax
	ret
	.p2align 4,,10
	.p2align 3
.L261:
	.cfi_def_cfa_offset 96
	.cfi_offset 3, -32
	.cfi_offset 6, -24
	.cfi_offset 12, -16
	movl	$2, %esi
.LEHB2:
	call	_ZN7openpal6WSlice7AdvanceEj@PLT
	movzbl	30(%rsp), %eax
	jmp	.L264
.L274:
.L269:
	cmpb	$0, 30(%rsp)
	je	.L270
	movzwl	28(%rsp), %ecx
	movq	40(%rsp), %rdx
	movw	%cx, (%rdx)
.L270:
	movq	%rax, %rdi
	call	_Unwind_Resume@PLT
.LEHE2:
	.cfi_endproc
.LFE1967:
	.section	.gcc_except_table._ZNK8opendnp318TypedCommandHeaderINS_20AnalogOutputDouble64EE5WriteERNS_12HeaderWriterE,"aG",@progbits,_ZNK8opendnp318TypedCommandHeaderINS_20AnalogOutputDouble64EE5WriteERNS_12HeaderWriterE,comdat
.LLSDA1967:
	.byte	0xff
	.byte	0xff
	.byte	0x1
	.uleb128 .LLSDACSE1967-.LLSDACSB1967
.LLSDACSB1967:
	.uleb128 .LEHB0-.LFB1967
	.uleb128 .LEHE0-.LEHB0
	.uleb128 0
	.uleb128 0
	.uleb128 .LEHB1-.LFB1967
	.uleb128 .LEHE1-.LEHB1
	.uleb128 .L274-.LFB1967
	.uleb128 0
	.uleb128 .LEHB2-.LFB1967
	.uleb128 .LEHE2-.LEHB2
	.uleb128 0
	.uleb128 0
.LLSDACSE1967:
	.section	.text._ZNK8opendnp318TypedCommandHeaderINS_20AnalogOutputDouble64EE5WriteERNS_12HeaderWriterE,"axG",@progbits,_ZNK8opendnp318TypedCommandHeaderINS_20AnalogOutputDouble64EE5WriteERNS_12HeaderWriterE,comdat
	.size	_ZNK8opendnp318TypedCommandHeaderINS_20AnalogOutputDouble64EE5WriteERNS_12HeaderWriterE, .-_ZNK8opendnp318TypedCommandHeaderINS_20AnalogOutputDouble64EE5WriteERNS_12HeaderWriterE
	.section	.text._ZNK8opendnp318TypedCommandHeaderINS_19AnalogOutputFloat32EE5WriteERNS_12HeaderWriterE,"axG",@progbits,_ZNK8opendnp318TypedCommandHeaderINS_19AnalogOutputFloat32EE5WriteERNS_12HeaderWriterE,comdat
	.align 2
	.p2align 4
	.weak	_ZNK8opendnp318TypedCommandHeaderINS_19AnalogOutputFloat32EE5WriteERNS_12HeaderWriterE
	.type	_ZNK8opendnp318TypedCommandHeaderINS_19AnalogOutputFloat32EE5WriteERNS_12HeaderWriterE, @function
_ZNK8opendnp318TypedCommandHeaderINS_19AnalogOutputFloat32EE5WriteERNS_12HeaderWriterE:
.LFB1983:
	.cfi_startproc
	.cfi_personality 0x9b,DW.ref.__gxx_personality_v0
	.cfi_lsda 0x1b,.LLSDA1983
	movq	48(%rdi), %rax
	cmpq	%rax, 56(%rdi)
	je	.L299
	pushq	%r12
	.cfi_def_cfa_offset 16
	.cfi_offset 12, -16
	movl	$40, %edx
	pushq	%rbp
	.cfi_def_cfa_offset 24
	.cfi_offset 6, -24
	movq	%rdi, %rbp
	pushq	%rbx
	.cfi_def_cfa_offset 32
	.cfi_offset 3, -32
	movq	%rsi, %rbx
	subq	$64, %rsp
	.cfi_def_cfa_offset 96
	movl	16(%rdi), %eax
	movzwl	40(%rdi), %esi
	movq	%rbx, %rdi
	leal	4(%rax), %ecx
.LEHB3:
	call	_ZN8opendnp312HeaderWriter22WriteHeaderWithReserveENS_16GroupVariationIDENS_13QualifierCodeEj@PLT
	testb	%al, %al
	jne	.L311
	xorl	%eax, %eax
	pxor	%xmm0, %xmm0
	leaq	32(%rsp), %rdi
	movb	$0, 30(%rsp)
	movw	%ax, 28(%rsp)
	movl	$0, (%rsp)
	movl	$0, 24(%rsp)
	movups	%xmm0, 8(%rsp)
	call	_ZN7openpal6WSliceC1Ev@PLT
.LEHE3:
	movzbl	30(%rsp), %eax
	movq	$0, 48(%rsp)
.L292:
	movq	48(%rbp), %rbx
	movq	56(%rbp), %rbp
	cmpq	%rbx, %rbp
	je	.L293
	.p2align 4
	.p2align 3
.L295:
	testb	%al, %al
	je	.L291
	movq	48(%rsp), %rdi
	movl	24(%rsp), %eax
	cmpl	%eax, (%rdi)
	jnb	.L312
	xorl	%eax, %eax
.L294:
	movq	40(%rsp), %rdx
	movzwl	28(%rsp), %ecx
	movw	%cx, (%rdx)
	addq	$64, %rsp
	.cfi_remember_state
	.cfi_def_cfa_offset 32
	popq	%rbx
	.cfi_def_cfa_offset 24
	popq	%rbp
	.cfi_def_cfa_offset 16
	popq	%r12
	.cfi_def_cfa_offset 8
	ret
	.p2align 4,,10
	.p2align 3
.L311:
	.cfi_restore_state
	movq	32(%rbp), %rax
	movq	(%rbx), %rdi
	xorl	%edx, %edx
	movdqu	16(%rbp), %xmm1
	movw	%dx, 28(%rsp)
	movq	%rax, 16(%rsp)
	movl	16(%rbp), %eax
	movdqu	(%rdi), %xmm0
	movq	%rdi, 48(%rsp)
	addl	$2, %eax
	cmpl	$1, (%rdi)
	movaps	%xmm1, (%rsp)
	movl	%eax, 24(%rsp)
	seta	30(%rsp)
	movaps	%xmm0, 32(%rsp)
	ja	.L289
	movq	48(%rbp), %rbx
	movq	56(%rbp), %rbp
	xorl	%eax, %eax
	cmpq	%rbp, %rbx
	jne	.L295
	.p2align 4
	.p2align 3
.L291:
	xorl	%eax, %eax
.L313:
	addq	$64, %rsp
	.cfi_remember_state
	.cfi_def_cfa_offset 32
	popq	%rbx
	.cfi_def_cfa_offset 24
	popq	%rbp
	.cfi_def_cfa_offset 16
	popq	%r12
	.cfi_def_cfa_offset 8
	ret
	.p2align 4,,10
	.p2align 3
.L312:
	.cfi_restore_state
	movzwl	2(%rbx), %edx
	movq	8(%rdi), %rax
	movl	$2, %esi
	movw	%dx, (%rax)
.LEHB4:
	call	_ZN7openpal6WSlice7AdvanceEj@PLT
	movq	48(%rsp), %rsi
	leaq	4(%rbx), %rdi
	call	*16(%rsp)
.LEHE4:
	addq	$12, %rbx
	addw	$1, 28(%rsp)
	movzbl	30(%rsp), %eax
	cmpq	%rbx, %rbp
	jne	.L295
.L293:
	testb	%al, %al
	jne	.L294
	xorl	%eax, %eax
	jmp	.L313
	.p2align 4,,10
	.p2align 3
.L299:
	.cfi_def_cfa_offset 8
	.cfi_restore 3
	.cfi_restore 6
	.cfi_restore 12
	xorl	%eax, %eax
	ret
	.p2align 4,,10
	.p2align 3
.L289:
	.cfi_def_cfa_offset 96
	.cfi_offset 3, -32
	.cfi_offset 6, -24
	.cfi_offset 12, -16
	movl	$2, %esi
.LEHB5:
	call	_ZN7openpal6WSlice7AdvanceEj@PLT
	movzbl	30(%rsp), %eax
	jmp	.L292
.L302:
.L297:
	cmpb	$0, 30(%rsp)
	je	.L298
	movzwl	28(%rsp), %ecx
	movq	40(%rsp), %rdx
	movw	%cx, (%rdx)
.L298:
	movq	%rax, %rdi
	call	_Unwind_Resume@PLT
.LEHE5:
	.cfi_endproc
.LFE1983:
	.section	.gcc_except_table._ZNK8opendnp318TypedCommandHeaderINS_19AnalogOutputFloat32EE5WriteERNS_12HeaderWriterE,"aG",@progbits,_ZNK8opendnp318TypedCommandHeaderINS_19AnalogOutputFloat32EE5WriteERNS_12HeaderWriterE,comdat
.LLSDA1983:
	.byte	0xff
	.byte	0xff
	.byte	0x1
	.uleb128 .LLSDACSE1983-.LLSDACSB1983
.LLSDACSB1983:
	.uleb128 .LEHB3-.LFB1983
	.uleb128 .LEHE3-.LEHB3
	.uleb128 0
	.uleb128 0
	.uleb128 .LEHB4-.LFB1983
	.uleb128 .LEHE4-.LEHB4
	.uleb128 .L302-.LFB1983
	.uleb128 0
	.uleb128 .LEHB5-.LFB1983
	.uleb128 .LEHE5-.LEHB5
	.uleb128 0
	.uleb128 0
.LLSDACSE1983:
	.section	.text._ZNK8opendnp318TypedCommandHeaderINS_19AnalogOutputFloat32EE5WriteERNS_12HeaderWriterE,"axG",@progbits,_ZNK8opendnp318TypedCommandHeaderINS_19AnalogOutputFloat32EE5WriteERNS_12HeaderWriterE,comdat
	.size	_ZNK8opendnp318TypedCommandHeaderINS_19AnalogOutputFloat32EE5WriteERNS_12HeaderWriterE, .-_ZNK8opendnp318TypedCommandHeaderINS_19AnalogOutputFloat32EE5WriteERNS_12HeaderWriterE
	.section	.text._ZNK8opendnp318TypedCommandHeaderINS_17AnalogOutputInt16EE5WriteERNS_12HeaderWriterE,"axG",@progbits,_ZNK8opendnp318TypedCommandHeaderINS_17AnalogOutputInt16EE5WriteERNS_12HeaderWriterE,comdat
	.align 2
	.p2align 4
	.weak	_ZNK8opendnp318TypedCommandHeaderINS_17AnalogOutputInt16EE5WriteERNS_12HeaderWriterE
	.type	_ZNK8opendnp318TypedCommandHeaderINS_17AnalogOutputInt16EE5WriteERNS_12HeaderWriterE, @function
_ZNK8opendnp318TypedCommandHeaderINS_17AnalogOutputInt16EE5WriteERNS_12HeaderWriterE:
.LFB1999:
	.cfi_startproc
	.cfi_personality 0x9b,DW.ref.__gxx_personality_v0
	.cfi_lsda 0x1b,.LLSDA1999
	movq	48(%rdi), %rax
	cmpq	%rax, 56(%rdi)
	je	.L327
	pushq	%r12
	.cfi_def_cfa_offset 16
	.cfi_offset 12, -16
	movl	$40, %edx
	pushq	%rbp
	.cfi_def_cfa_offset 24
	.cfi_offset 6, -24
	movq	%rdi, %rbp
	pushq	%rbx
	.cfi_def_cfa_offset 32
	.cfi_offset 3, -32
	movq	%rsi, %rbx
	subq	$64, %rsp
	.cfi_def_cfa_offset 96
	movl	16(%rdi), %eax
	movzwl	40(%rdi), %esi
	movq	%rbx, %rdi
	leal	4(%rax), %ecx
.LEHB6:
	call	_ZN8opendnp312HeaderWriter22WriteHeaderWithReserveENS_16GroupVariationIDENS_13QualifierCodeEj@PLT
	testb	%al, %al
	jne	.L339
	xorl	%eax, %eax
	pxor	%xmm0, %xmm0
	leaq	32(%rsp), %rdi
	movb	$0, 30(%rsp)
	movw	%ax, 28(%rsp)
	movl	$0, (%rsp)
	movl	$0, 24(%rsp)
	movups	%xmm0, 8(%rsp)
	call	_ZN7openpal6WSliceC1Ev@PLT
.LEHE6:
	movzbl	30(%rsp), %eax
	movq	$0, 48(%rsp)
.L320:
	movq	48(%rbp), %rbx
	movq	56(%rbp), %rbp
	cmpq	%rbx, %rbp
	je	.L321
	.p2align 4
	.p2align 3
.L323:
	testb	%al, %al
	je	.L319
	movq	48(%rsp), %rdi
	movl	24(%rsp), %eax
	cmpl	%eax, (%rdi)
	jnb	.L340
	xorl	%eax, %eax
.L322:
	movq	40(%rsp), %rdx
	movzwl	28(%rsp), %ecx
	movw	%cx, (%rdx)
	addq	$64, %rsp
	.cfi_remember_state
	.cfi_def_cfa_offset 32
	popq	%rbx
	.cfi_def_cfa_offset 24
	popq	%rbp
	.cfi_def_cfa_offset 16
	popq	%r12
	.cfi_def_cfa_offset 8
	ret
	.p2align 4,,10
	.p2align 3
.L339:
	.cfi_restore_state
	movq	32(%rbp), %rax
	movq	(%rbx), %rdi
	xorl	%edx, %edx
	movdqu	16(%rbp), %xmm1
	movw	%dx, 28(%rsp)
	movq	%rax, 16(%rsp)
	movl	16(%rbp), %eax
	movdqu	(%rdi), %xmm0
	movq	%rdi, 48(%rsp)
	addl	$2, %eax
	cmpl	$1, (%rdi)
	movaps	%xmm1, (%rsp)
	movl	%eax, 24(%rsp)
	seta	30(%rsp)
	movaps	%xmm0, 32(%rsp)
	ja	.L317
	movq	48(%rbp), %rbx
	movq	56(%rbp), %rbp
	xorl	%eax, %eax
	cmpq	%rbp, %rbx
	jne	.L323
	.p2align 4
	.p2align 3
.L319:
	xorl	%eax, %eax
.L341:
	addq	$64, %rsp
	.cfi_remember_state
	.cfi_def_cfa_offset 32
	popq	%rbx
	.cfi_def_cfa_offset 24
	popq	%rbp
	.cfi_def_cfa_offset 16
	popq	%r12
	.cfi_def_cfa_offset 8
	ret
	.p2align 4,,10
	.p2align 3
.L340:
	.cfi_restore_state
	movzwl	2(%rbx), %edx
	movq	8(%rdi), %rax
	movl	$2, %esi
	movw	%dx, (%rax)
.LEHB7:
	call	_ZN7openpal6WSlice7AdvanceEj@PLT
	movq	48(%rsp), %rsi
	leaq	4(%rbx), %rdi
	call	*16(%rsp)
.LEHE7:
	addq	$8, %rbx
	addw	$1, 28(%rsp)
	movzbl	30(%rsp), %eax
	cmpq	%rbx, %rbp
	jne	.L323
.L321:
	testb	%al, %al
	jne	.L322
	xorl	%eax, %eax
	jmp	.L341
	.p2align 4,,10
	.p2align 3
.L327:
	.cfi_def_cfa_offset 8
	.cfi_restore 3
	.cfi_restore 6
	.cfi_restore 12
	xorl	%eax, %eax
	ret
	.p2align 4,,10
	.p2align 3
.L317:
	.cfi_def_cfa_offset 96
	.cfi_offset 3, -32
	.cfi_offset 6, -24
	.cfi_offset 12, -16
	movl	$2, %esi
.LEHB8:
	call	_ZN7openpal6WSlice7AdvanceEj@PLT
	movzbl	30(%rsp), %eax
	jmp	.L320
.L330:
.L325:
	cmpb	$0, 30(%rsp)
	je	.L326
	movzwl	28(%rsp), %ecx
	movq	40(%rsp), %rdx
	movw	%cx, (%rdx)
.L326:
	movq	%rax, %rdi
	call	_Unwind_Resume@PLT
.LEHE8:
	.cfi_endproc
.LFE1999:
	.section	.gcc_except_table._ZNK8opendnp318TypedCommandHeaderINS_17AnalogOutputInt16EE5WriteERNS_12HeaderWriterE,"aG",@progbits,_ZNK8opendnp318TypedCommandHeaderINS_17AnalogOutputInt16EE5WriteERNS_12HeaderWriterE,comdat
.LLSDA1999:
	.byte	0xff
	.byte	0xff
	.byte	0x1
	.uleb128 .LLSDACSE1999-.LLSDACSB1999
.LLSDACSB1999:
	.uleb128 .LEHB6-.LFB1999
	.uleb128 .LEHE6-.LEHB6
	.uleb128 0
	.uleb128 0
	.uleb128 .LEHB7-.LFB1999
	.uleb128 .LEHE7-.LEHB7
	.uleb128 .L330-.LFB1999
	.uleb128 0
	.uleb128 .LEHB8-.LFB1999
	.uleb128 .LEHE8-.LEHB8
	.uleb128 0
	.uleb128 0
.LLSDACSE1999:
	.section	.text._ZNK8opendnp318TypedCommandHeaderINS_17AnalogOutputInt16EE5WriteERNS_12HeaderWriterE,"axG",@progbits,_ZNK8opendnp318TypedCommandHeaderINS_17AnalogOutputInt16EE5WriteERNS_12HeaderWriterE,comdat
	.size	_ZNK8opendnp318TypedCommandHeaderINS_17AnalogOutputInt16EE5WriteERNS_12HeaderWriterE, .-_ZNK8opendnp318TypedCommandHeaderINS_17AnalogOutputInt16EE5WriteERNS_12HeaderWriterE
	.section	.text._ZNK8opendnp318TypedCommandHeaderINS_17AnalogOutputInt32EE5WriteERNS_12HeaderWriterE,"axG",@progbits,_ZNK8opendnp318TypedCommandHeaderINS_17AnalogOutputInt32EE5WriteERNS_12HeaderWriterE,comdat
	.align 2
	.p2align 4
	.weak	_ZNK8opendnp318TypedCommandHeaderINS_17AnalogOutputInt32EE5WriteERNS_12HeaderWriterE
	.type	_ZNK8opendnp318TypedCommandHeaderINS_17AnalogOutputInt32EE5WriteERNS_12HeaderWriterE, @function
_ZNK8opendnp318TypedCommandHeaderINS_17AnalogOutputInt32EE5WriteERNS_12HeaderWriterE:
.LFB2015:
	.cfi_startproc
	.cfi_personality 0x9b,DW.ref.__gxx_personality_v0
	.cfi_lsda 0x1b,.LLSDA2015
	movq	48(%rdi), %rax
	cmpq	%rax, 56(%rdi)
	je	.L355
	pushq	%r12
	.cfi_def_cfa_offset 16
	.cfi_offset 12, -16
	movl	$40, %edx
	pushq	%rbp
	.cfi_def_cfa_offset 24
	.cfi_offset 6, -24
	movq	%rdi, %rbp
	pushq	%rbx
	.cfi_def_cfa_offset 32
	.cfi_offset 3, -32
	movq	%rsi, %rbx
	subq	$64, %rsp
	.cfi_def_cfa_offset 96
	movl	16(%rdi), %eax
	movzwl	40(%rdi), %esi
	movq	%rbx, %rdi
	leal	4(%rax), %ecx
.LEHB9:
	call	_ZN8opendnp312HeaderWriter22WriteHeaderWithReserveENS_16GroupVariationIDENS_13QualifierCodeEj@PLT
	testb	%al, %al
	jne	.L367
	xorl	%eax, %eax
	pxor	%xmm0, %xmm0
	leaq	32(%rsp), %rdi
	movb	$0, 30(%rsp)
	movw	%ax, 28(%rsp)
	movl	$0, (%rsp)
	movl	$0, 24(%rsp)
	movups	%xmm0, 8(%rsp)
	call	_ZN7openpal6WSliceC1Ev@PLT
.LEHE9:
	movzbl	30(%rsp), %eax
	movq	$0, 48(%rsp)
.L348:
	movq	48(%rbp), %rbx
	movq	56(%rbp), %rbp
	cmpq	%rbx, %rbp
	je	.L349
	.p2align 4
	.p2align 3
.L351:
	testb	%al, %al
	je	.L347
	movq	48(%rsp), %rdi
	movl	24(%rsp), %eax
	cmpl	%eax, (%rdi)
	jnb	.L368
	xorl	%eax, %eax
.L350:
	movq	40(%rsp), %rdx
	movzwl	28(%rsp), %ecx
	movw	%cx, (%rdx)
	addq	$64, %rsp
	.cfi_remember_state
	.cfi_def_cfa_offset 32
	popq	%rbx
	.cfi_def_cfa_offset 24
	popq	%rbp
	.cfi_def_cfa_offset 16
	popq	%r12
	.cfi_def_cfa_offset 8
	ret
	.p2align 4,,10
	.p2align 3
.L367:
	.cfi_restore_state
	movq	32(%rbp), %rax
	movq	(%rbx), %rdi
	xorl	%edx, %edx
	movdqu	16(%rbp), %xmm1
	movw	%dx, 28(%rsp)
	movq	%rax, 16(%rsp)
	movl	16(%rbp), %eax
	movdqu	(%rdi), %xmm0
	movq	%rdi, 48(%rsp)
	addl	$2, %eax
	cmpl	$1, (%rdi)
	movaps	%xmm1, (%rsp)
	movl	%eax, 24(%rsp)
	seta	30(%rsp)
	movaps	%xmm0, 32(%rsp)
	ja	.L345
	movq	48(%rbp), %rbx
	movq	56(%rbp), %rbp
	xorl	%eax, %eax
	cmpq	%rbp, %rbx
	jne	.L351
	.p2align 4
	.p2align 3
.L347:
	xorl	%eax, %eax
.L369:
	addq	$64, %rsp
	.cfi_remember_state
	.cfi_def_cfa_offset 32
	popq	%rbx
	.cfi_def_cfa_offset 24
	popq	%rbp
	.cfi_def_cfa_offset 16
	popq	%r12
	.cfi_def_cfa_offset 8
	ret
	.p2align 4,,10
	.p2align 3
.L368:
	.cfi_restore_state
	movzwl	2(%rbx), %edx
	movq	8(%rdi), %rax
	movl	$2, %esi
	movw	%dx, (%rax)
.LEHB10:
	call	_ZN7openpal6WSlice7AdvanceEj@PLT
	movq	48(%rsp), %rsi
	leaq	4(%rbx), %rdi
	call	*16(%rsp)
.LEHE10:
	addq	$12, %rbx
	addw	$1, 28(%rsp)
	movzbl	30(%rsp), %eax
	cmpq	%rbx, %rbp
	jne	.L351
.L349:
	testb	%al, %al
	jne	.L350
	xorl	%eax, %eax
	jmp	.L369
	.p2align 4,,10
	.p2align 3
.L355:
	.cfi_def_cfa_offset 8
	.cfi_restore 3
	.cfi_restore 6
	.cfi_restore 12
	xorl	%eax, %eax
	ret
	.p2align 4,,10
	.p2align 3
.L345:
	.cfi_def_cfa_offset 96
	.cfi_offset 3, -32
	.cfi_offset 6, -24
	.cfi_offset 12, -16
	movl	$2, %esi
.LEHB11:
	call	_ZN7openpal6WSlice7AdvanceEj@PLT
	movzbl	30(%rsp), %eax
	jmp	.L348
.L358:
.L353:
	cmpb	$0, 30(%rsp)
	je	.L354
	movzwl	28(%rsp), %ecx
	movq	40(%rsp), %rdx
	movw	%cx, (%rdx)
.L354:
	movq	%rax, %rdi
	call	_Unwind_Resume@PLT
.LEHE11:
	.cfi_endproc
.LFE2015:
	.section	.gcc_except_table._ZNK8opendnp318TypedCommandHeaderINS_17AnalogOutputInt32EE5WriteERNS_12HeaderWriterE,"aG",@progbits,_ZNK8opendnp318TypedCommandHeaderINS_17AnalogOutputInt32EE5WriteERNS_12HeaderWriterE,comdat
.LLSDA2015:
	.byte	0xff
	.byte	0xff
	.byte	0x1
	.uleb128 .LLSDACSE2015-.LLSDACSB2015
.LLSDACSB2015:
	.uleb128 .LEHB9-.LFB2015
	.uleb128 .LEHE9-.LEHB9
	.uleb128 0
	.uleb128 0
	.uleb128 .LEHB10-.LFB2015
	.uleb128 .LEHE10-.LEHB10
	.uleb128 .L358-.LFB2015
	.uleb128 0
	.uleb128 .LEHB11-.LFB2015
	.uleb128 .LEHE11-.LEHB11
	.uleb128 0
	.uleb128 0
.LLSDACSE2015:
	.section	.text._ZNK8opendnp318TypedCommandHeaderINS_17AnalogOutputInt32EE5WriteERNS_12HeaderWriterE,"axG",@progbits,_ZNK8opendnp318TypedCommandHeaderINS_17AnalogOutputInt32EE5WriteERNS_12HeaderWriterE,comdat
	.size	_ZNK8opendnp318TypedCommandHeaderINS_17AnalogOutputInt32EE5WriteERNS_12HeaderWriterE, .-_ZNK8opendnp318TypedCommandHeaderINS_17AnalogOutputInt32EE5WriteERNS_12HeaderWriterE
	.section	.text._ZNK8opendnp318TypedCommandHeaderINS_23ControlRelayOutputBlockEE5WriteERNS_12HeaderWriterE,"axG",@progbits,_ZNK8opendnp318TypedCommandHeaderINS_23ControlRelayOutputBlockEE5WriteERNS_12HeaderWriterE,comdat
	.align 2
	.p2align 4
	.weak	_ZNK8opendnp318TypedCommandHeaderINS_23ControlRelayOutputBlockEE5WriteERNS_12HeaderWriterE
	.type	_ZNK8opendnp318TypedCommandHeaderINS_23ControlRelayOutputBlockEE5WriteERNS_12HeaderWriterE, @function
_ZNK8opendnp318TypedCommandHeaderINS_23ControlRelayOutputBlockEE5WriteERNS_12HeaderWriterE:
.LFB2031:
	.cfi_startproc
	.cfi_personality 0x9b,DW.ref.__gxx_personality_v0
	.cfi_lsda 0x1b,.LLSDA2031
	movq	48(%rdi), %rax
	cmpq	%rax, 56(%rdi)
	je	.L383
	pushq	%r12
	.cfi_def_cfa_offset 16
	.cfi_offset 12, -16
	movl	$40, %edx
	pushq	%rbp
	.cfi_def_cfa_offset 24
	.cfi_offset 6, -24
	movq	%rdi, %rbp
	pushq	%rbx
	.cfi_def_cfa_offset 32
	.cfi_offset 3, -32
	movq	%rsi, %rbx
	subq	$64, %rsp
	.cfi_def_cfa_offset 96
	movl	16(%rdi), %eax
	movzwl	40(%rdi), %esi
	movq	%rbx, %rdi
	leal	4(%rax), %ecx
.LEHB12:
	call	_ZN8opendnp312HeaderWriter22WriteHeaderWithReserveENS_16GroupVariationIDENS_13QualifierCodeEj@PLT
	testb	%al, %al
	jne	.L395
	xorl	%eax, %eax
	pxor	%xmm0, %xmm0
	leaq	32(%rsp), %rdi
	movb	$0, 30(%rsp)
	movw	%ax, 28(%rsp)
	movl	$0, (%rsp)
	movl	$0, 24(%rsp)
	movups	%xmm0, 8(%rsp)
	call	_ZN7openpal6WSliceC1Ev@PLT
.LEHE12:
	movzbl	30(%rsp), %eax
	movq	$0, 48(%rsp)
.L376:
	movq	48(%rbp), %rbx
	movq	56(%rbp), %rbp
	cmpq	%rbx, %rbp
	je	.L377
	.p2align 4
	.p2align 3
.L379:
	testb	%al, %al
	je	.L375
	movq	48(%rsp), %rdi
	movl	24(%rsp), %eax
	cmpl	%eax, (%rdi)
	jnb	.L396
	xorl	%eax, %eax
.L378:
	movq	40(%rsp), %rdx
	movzwl	28(%rsp), %ecx
	movw	%cx, (%rdx)
	addq	$64, %rsp
	.cfi_remember_state
	.cfi_def_cfa_offset 32
	popq	%rbx
	.cfi_def_cfa_offset 24
	popq	%rbp
	.cfi_def_cfa_offset 16
	popq	%r12
	.cfi_def_cfa_offset 8
	ret
	.p2align 4,,10
	.p2align 3
.L395:
	.cfi_restore_state
	movq	32(%rbp), %rax
	movq	(%rbx), %rdi
	xorl	%edx, %edx
	movdqu	16(%rbp), %xmm1
	movw	%dx, 28(%rsp)
	movq	%rax, 16(%rsp)
	movl	16(%rbp), %eax
	movdqu	(%rdi), %xmm0
	movq	%rdi, 48(%rsp)
	addl	$2, %eax
	cmpl	$1, (%rdi)
	movaps	%xmm1, (%rsp)
	movl	%eax, 24(%rsp)
	seta	30(%rsp)
	movaps	%xmm0, 32(%rsp)
	ja	.L373
	movq	48(%rbp), %rbx
	movq	56(%rbp), %rbp
	xorl	%eax, %eax
	cmpq	%rbp, %rbx
	jne	.L379
	.p2align 4
	.p2align 3
.L375:
	xorl	%eax, %eax
.L397:
	addq	$64, %rsp
	.cfi_remember_state
	.cfi_def_cfa_offset 32
	popq	%rbx
	.cfi_def_cfa_offset 24
	popq	%rbp
	.cfi_def_cfa_offset 16
	popq	%r12
	.cfi_def_cfa_offset 8
	ret
	.p2align 4,,10
	.p2align 3
.L396:
	.cfi_restore_state
	movzwl	2(%rbx), %edx
	movq	8(%rdi), %rax
	movl	$2, %esi
	movw	%dx, (%rax)
.LEHB13:
	call	_ZN7openpal6WSlice7AdvanceEj@PLT
	movq	48(%rsp), %rsi
	leaq	4(%rbx), %rdi
	call	*16(%rsp)
.LEHE13:
	addq	$20, %rbx
	addw	$1, 28(%rsp)
	movzbl	30(%rsp), %eax
	cmpq	%rbx, %rbp
	jne	.L379
.L377:
	testb	%al, %al
	jne	.L378
	xorl	%eax, %eax
	jmp	.L397
	.p2align 4,,10
	.p2align 3
.L383:
	.cfi_def_cfa_offset 8
	.cfi_restore 3
	.cfi_restore 6
	.cfi_restore 12
	xorl	%eax, %eax
	ret
	.p2align 4,,10
	.p2align 3
.L373:
	.cfi_def_cfa_offset 96
	.cfi_offset 3, -32
	.cfi_offset 6, -24
	.cfi_offset 12, -16
	movl	$2, %esi
.LEHB14:
	call	_ZN7openpal6WSlice7AdvanceEj@PLT
	movzbl	30(%rsp), %eax
	jmp	.L376
.L386:
.L381:
	cmpb	$0, 30(%rsp)
	je	.L382
	movzwl	28(%rsp), %ecx
	movq	40(%rsp), %rdx
	movw	%cx, (%rdx)
.L382:
	movq	%rax, %rdi
	call	_Unwind_Resume@PLT
.LEHE14:
	.cfi_endproc
.LFE2031:
	.section	.gcc_except_table._ZNK8opendnp318TypedCommandHeaderINS_23ControlRelayOutputBlockEE5WriteERNS_12HeaderWriterE,"aG",@progbits,_ZNK8opendnp318TypedCommandHeaderINS_23ControlRelayOutputBlockEE5WriteERNS_12HeaderWriterE,comdat
.LLSDA2031:
	.byte	0xff
	.byte	0xff
	.byte	0x1
	.uleb128 .LLSDACSE2031-.LLSDACSB2031
.LLSDACSB2031:
	.uleb128 .LEHB12-.LFB2031
	.uleb128 .LEHE12-.LEHB12
	.uleb128 0
	.uleb128 0
	.uleb128 .LEHB13-.LFB2031
	.uleb128 .LEHE13-.LEHB13
	.uleb128 .L386-.LFB2031
	.uleb128 0
	.uleb128 .LEHB14-.LFB2031
	.uleb128 .LEHE14-.LEHB14
	.uleb128 0
	.uleb128 0
.LLSDACSE2031:
	.section	.text._ZNK8opendnp318TypedCommandHeaderINS_23ControlRelayOutputBlockEE5WriteERNS_12HeaderWriterE,"axG",@progbits,_ZNK8opendnp318TypedCommandHeaderINS_23ControlRelayOutputBlockEE5WriteERNS_12HeaderWriterE,comdat
	.size	_ZNK8opendnp318TypedCommandHeaderINS_23ControlRelayOutputBlockEE5WriteERNS_12HeaderWriterE, .-_ZNK8opendnp318TypedCommandHeaderINS_23ControlRelayOutputBlockEE5WriteERNS_12HeaderWriterE
	.section	.text._ZN8opendnp318TypedCommandHeaderINS_20AnalogOutputDouble64EE19ApplySelectResponseERKNS_11ICollectionINS_7IndexedIS1_EEEE,"axG",@progbits,_ZN8opendnp318TypedCommandHeaderINS_20AnalogOutputDouble64EE19ApplySelectResponseERKNS_11ICollectionINS_7IndexedIS1_EEEE,comdat
	.align 2
	.p2align 4
	.weak	_ZN8opendnp318TypedCommandHeaderINS_20AnalogOutputDouble64EE19ApplySelectResponseERKNS_11ICollectionINS_7IndexedIS1_EEEE
	.type	_ZN8opendnp318TypedCommandHeaderINS_20AnalogOutputDouble64EE19ApplySelectResponseERKNS_11ICollectionINS_7IndexedIS1_EEEE, @function
_ZN8opendnp318TypedCommandHeaderINS_20AnalogOutputDouble64EE19ApplySelectResponseERKNS_11ICollectionINS_7IndexedIS1_EEEE:
.LFB1972:
	.cfi_startproc
	pushq	%rbp
	.cfi_def_cfa_offset 16
	.cfi_offset 6, -16
	movq	%rdi, %rbp
	movq	%rsi, %rdi
	pushq	%rbx
	.cfi_def_cfa_offset 24
	.cfi_offset 3, -24
	movq	%rsi, %rbx
	subq	$56, %rsp
	.cfi_def_cfa_offset 80
	movq	(%rsi), %rax
	call	*(%rax)
	movabsq	$-6148914691236517205, %rcx
	movq	%rax, %rdx
	movq	56(%rbp), %rax
	subq	48(%rbp), %rax
	sarq	$3, %rax
	imulq	%rcx, %rax
	cmpq	%rdx, %rax
	jb	.L398
	movq	_ZTVN8opendnp314FunctorVisitorINS_7IndexedINS_20AnalogOutputDouble64EEEZNS_18TypedCommandHeaderIS2_E19ApplySelectResponseERKNS_11ICollectionIS3_EEEUlS3_E_EE@GOTPCREL(%rip), %rax
	movq	%rbp, %xmm1
	leaq	16(%rsp), %rsi
	movq	%rbx, %rdi
	movl	$0, 12(%rsp)
	addq	$16, %rax
	movq	%rax, %xmm0
	leaq	12(%rsp), %rax
	movq	%rax, 32(%rsp)
	movq	(%rbx), %rax
	punpcklqdq	%xmm1, %xmm0
	movaps	%xmm0, 16(%rsp)
	call	*8(%rax)
.L398:
	addq	$56, %rsp
	.cfi_def_cfa_offset 24
	popq	%rbx
	.cfi_def_cfa_offset 16
	popq	%rbp
	.cfi_def_cfa_offset 8
	ret
	.cfi_endproc
.LFE1972:
	.size	_ZN8opendnp318TypedCommandHeaderINS_20AnalogOutputDouble64EE19ApplySelectResponseERKNS_11ICollectionINS_7IndexedIS1_EEEE, .-_ZN8opendnp318TypedCommandHeaderINS_20AnalogOutputDouble64EE19ApplySelectResponseERKNS_11ICollectionINS_7IndexedIS1_EEEE
	.section	.text._ZN8opendnp318TypedCommandHeaderINS_20AnalogOutputDouble64EE20ApplyOperateResponseERKNS_11ICollectionINS_7IndexedIS1_EEEE,"axG",@progbits,_ZN8opendnp318TypedCommandHeaderINS_20AnalogOutputDouble64EE20ApplyOperateResponseERKNS_11ICollectionINS_7IndexedIS1_EEEE,comdat
	.align 2
	.p2align 4
	.weak	_ZN8opendnp318TypedCommandHeaderINS_20AnalogOutputDouble64EE20ApplyOperateResponseERKNS_11ICollectionINS_7IndexedIS1_EEEE
	.type	_ZN8opendnp318TypedCommandHeaderINS_20AnalogOutputDouble64EE20ApplyOperateResponseERKNS_11ICollectionINS_7IndexedIS1_EEEE, @function
_ZN8opendnp318TypedCommandHeaderINS_20AnalogOutputDouble64EE20ApplyOperateResponseERKNS_11ICollectionINS_7IndexedIS1_EEEE:
.LFB1974:
	.cfi_startproc
	pushq	%rbp
	.cfi_def_cfa_offset 16
	.cfi_offset 6, -16
	movq	%rdi, %rbp
	movq	%rsi, %rdi
	pushq	%rbx
	.cfi_def_cfa_offset 24
	.cfi_offset 3, -24
	movq	%rsi, %rbx
	subq	$56, %rsp
	.cfi_def_cfa_offset 80
	movq	(%rsi), %rax
	call	*(%rax)
	movabsq	$-6148914691236517205, %rcx
	movq	%rax, %rdx
	movq	56(%rbp), %rax
	subq	48(%rbp), %rax
	sarq	$3, %rax
	imulq	%rcx, %rax
	cmpq	%rdx, %rax
	jb	.L401
	movq	_ZTVN8opendnp314FunctorVisitorINS_7IndexedINS_20AnalogOutputDouble64EEEZNS_18TypedCommandHeaderIS2_E20ApplyOperateResponseERKNS_11ICollectionIS3_EEEUlS3_E_EE@GOTPCREL(%rip), %rax
	movq	%rbp, %xmm1
	leaq	16(%rsp), %rsi
	movq	%rbx, %rdi
	movl	$0, 12(%rsp)
	addq	$16, %rax
	movq	%rax, %xmm0
	leaq	12(%rsp), %rax
	movq	%rax, 32(%rsp)
	movq	(%rbx), %rax
	punpcklqdq	%xmm1, %xmm0
	movaps	%xmm0, 16(%rsp)
	call	*8(%rax)
.L401:
	addq	$56, %rsp
	.cfi_def_cfa_offset 24
	popq	%rbx
	.cfi_def_cfa_offset 16
	popq	%rbp
	.cfi_def_cfa_offset 8
	ret
	.cfi_endproc
.LFE1974:
	.size	_ZN8opendnp318TypedCommandHeaderINS_20AnalogOutputDouble64EE20ApplyOperateResponseERKNS_11ICollectionINS_7IndexedIS1_EEEE, .-_ZN8opendnp318TypedCommandHeaderINS_20AnalogOutputDouble64EE20ApplyOperateResponseERKNS_11ICollectionINS_7IndexedIS1_EEEE
	.section	.text._ZN8opendnp318TypedCommandHeaderINS_19AnalogOutputFloat32EE19ApplySelectResponseERKNS_11ICollectionINS_7IndexedIS1_EEEE,"axG",@progbits,_ZN8opendnp318TypedCommandHeaderINS_19AnalogOutputFloat32EE19ApplySelectResponseERKNS_11ICollectionINS_7IndexedIS1_EEEE,comdat
	.align 2
	.p2align 4
	.weak	_ZN8opendnp318TypedCommandHeaderINS_19AnalogOutputFloat32EE19ApplySelectResponseERKNS_11ICollectionINS_7IndexedIS1_EEEE
	.type	_ZN8opendnp318TypedCommandHeaderINS_19AnalogOutputFloat32EE19ApplySelectResponseERKNS_11ICollectionINS_7IndexedIS1_EEEE, @function
_ZN8opendnp318TypedCommandHeaderINS_19AnalogOutputFloat32EE19ApplySelectResponseERKNS_11ICollectionINS_7IndexedIS1_EEEE:
.LFB1988:
	.cfi_startproc
	pushq	%rbp
	.cfi_def_cfa_offset 16
	.cfi_offset 6, -16
	movq	%rdi, %rbp
	movq	%rsi, %rdi
	pushq	%rbx
	.cfi_def_cfa_offset 24
	.cfi_offset 3, -24
	movq	%rsi, %rbx
	subq	$56, %rsp
	.cfi_def_cfa_offset 80
	movq	(%rsi), %rax
	call	*(%rax)
	movabsq	$-6148914691236517205, %rcx
	movq	%rax, %rdx
	movq	56(%rbp), %rax
	subq	48(%rbp), %rax
	sarq	$2, %rax
	imulq	%rcx, %rax
	cmpq	%rdx, %rax
	jb	.L404
	movq	_ZTVN8opendnp314FunctorVisitorINS_7IndexedINS_19AnalogOutputFloat32EEEZNS_18TypedCommandHeaderIS2_E19ApplySelectResponseERKNS_11ICollectionIS3_EEEUlS3_E_EE@GOTPCREL(%rip), %rax
	movq	%rbp, %xmm1
	leaq	16(%rsp), %rsi
	movq	%rbx, %rdi
	movl	$0, 12(%rsp)
	addq	$16, %rax
	movq	%rax, %xmm0
	leaq	12(%rsp), %rax
	movq	%rax, 32(%rsp)
	movq	(%rbx), %rax
	punpcklqdq	%xmm1, %xmm0
	movaps	%xmm0, 16(%rsp)
	call	*8(%rax)
.L404:
	addq	$56, %rsp
	.cfi_def_cfa_offset 24
	popq	%rbx
	.cfi_def_cfa_offset 16
	popq	%rbp
	.cfi_def_cfa_offset 8
	ret
	.cfi_endproc
.LFE1988:
	.size	_ZN8opendnp318TypedCommandHeaderINS_19AnalogOutputFloat32EE19ApplySelectResponseERKNS_11ICollectionINS_7IndexedIS1_EEEE, .-_ZN8opendnp318TypedCommandHeaderINS_19AnalogOutputFloat32EE19ApplySelectResponseERKNS_11ICollectionINS_7IndexedIS1_EEEE
	.section	.text._ZN8opendnp318TypedCommandHeaderINS_19AnalogOutputFloat32EE20ApplyOperateResponseERKNS_11ICollectionINS_7IndexedIS1_EEEE,"axG",@progbits,_ZN8opendnp318TypedCommandHeaderINS_19AnalogOutputFloat32EE20ApplyOperateResponseERKNS_11ICollectionINS_7IndexedIS1_EEEE,comdat
	.align 2
	.p2align 4
	.weak	_ZN8opendnp318TypedCommandHeaderINS_19AnalogOutputFloat32EE20ApplyOperateResponseERKNS_11ICollectionINS_7IndexedIS1_EEEE
	.type	_ZN8opendnp318TypedCommandHeaderINS_19AnalogOutputFloat32EE20ApplyOperateResponseERKNS_11ICollectionINS_7IndexedIS1_EEEE, @function
_ZN8opendnp318TypedCommandHeaderINS_19AnalogOutputFloat32EE20ApplyOperateResponseERKNS_11ICollectionINS_7IndexedIS1_EEEE:
.LFB1990:
	.cfi_startproc
	pushq	%rbp
	.cfi_def_cfa_offset 16
	.cfi_offset 6, -16
	movq	%rdi, %rbp
	movq	%rsi, %rdi
	pushq	%rbx
	.cfi_def_cfa_offset 24
	.cfi_offset 3, -24
	movq	%rsi, %rbx
	subq	$56, %rsp
	.cfi_def_cfa_offset 80
	movq	(%rsi), %rax
	call	*(%rax)
	movabsq	$-6148914691236517205, %rcx
	movq	%rax, %rdx
	movq	56(%rbp), %rax
	subq	48(%rbp), %rax
	sarq	$2, %rax
	imulq	%rcx, %rax
	cmpq	%rdx, %rax
	jb	.L407
	movq	_ZTVN8opendnp314FunctorVisitorINS_7IndexedINS_19AnalogOutputFloat32EEEZNS_18TypedCommandHeaderIS2_E20ApplyOperateResponseERKNS_11ICollectionIS3_EEEUlS3_E_EE@GOTPCREL(%rip), %rax
	movq	%rbp, %xmm1
	leaq	16(%rsp), %rsi
	movq	%rbx, %rdi
	movl	$0, 12(%rsp)
	addq	$16, %rax
	movq	%rax, %xmm0
	leaq	12(%rsp), %rax
	movq	%rax, 32(%rsp)
	movq	(%rbx), %rax
	punpcklqdq	%xmm1, %xmm0
	movaps	%xmm0, 16(%rsp)
	call	*8(%rax)
.L407:
	addq	$56, %rsp
	.cfi_def_cfa_offset 24
	popq	%rbx
	.cfi_def_cfa_offset 16
	popq	%rbp
	.cfi_def_cfa_offset 8
	ret
	.cfi_endproc
.LFE1990:
	.size	_ZN8opendnp318TypedCommandHeaderINS_19AnalogOutputFloat32EE20ApplyOperateResponseERKNS_11ICollectionINS_7IndexedIS1_EEEE, .-_ZN8opendnp318TypedCommandHeaderINS_19AnalogOutputFloat32EE20ApplyOperateResponseERKNS_11ICollectionINS_7IndexedIS1_EEEE
	.section	.text._ZN8opendnp318TypedCommandHeaderINS_17AnalogOutputInt16EE19ApplySelectResponseERKNS_11ICollectionINS_7IndexedIS1_EEEE,"axG",@progbits,_ZN8opendnp318TypedCommandHeaderINS_17AnalogOutputInt16EE19ApplySelectResponseERKNS_11ICollectionINS_7IndexedIS1_EEEE,comdat
	.align 2
	.p2align 4
	.weak	_ZN8opendnp318TypedCommandHeaderINS_17AnalogOutputInt16EE19ApplySelectResponseERKNS_11ICollectionINS_7IndexedIS1_EEEE
	.type	_ZN8opendnp318TypedCommandHeaderINS_17AnalogOutputInt16EE19ApplySelectResponseERKNS_11ICollectionINS_7IndexedIS1_EEEE, @function
_ZN8opendnp318TypedCommandHeaderINS_17AnalogOutputInt16EE19ApplySelectResponseERKNS_11ICollectionINS_7IndexedIS1_EEEE:
.LFB2004:
	.cfi_startproc
	pushq	%rbp
	.cfi_def_cfa_offset 16
	.cfi_offset 6, -16
	movq	%rdi, %rbp
	movq	%rsi, %rdi
	pushq	%rbx
	.cfi_def_cfa_offset 24
	.cfi_offset 3, -24
	movq	%rsi, %rbx
	subq	$56, %rsp
	.cfi_def_cfa_offset 80
	movq	(%rsi), %rax
	call	*(%rax)
	movq	%rax, %rdx
	movq	56(%rbp), %rax
	subq	48(%rbp), %rax
	sarq	$3, %rax
	cmpq	%rdx, %rax
	jb	.L410
	movq	_ZTVN8opendnp314FunctorVisitorINS_7IndexedINS_17AnalogOutputInt16EEEZNS_18TypedCommandHeaderIS2_E19ApplySelectResponseERKNS_11ICollectionIS3_EEEUlS3_E_EE@GOTPCREL(%rip), %rax
	movq	%rbp, %xmm1
	leaq	16(%rsp), %rsi
	movq	%rbx, %rdi
	movl	$0, 12(%rsp)
	addq	$16, %rax
	movq	%rax, %xmm0
	leaq	12(%rsp), %rax
	movq	%rax, 32(%rsp)
	movq	(%rbx), %rax
	punpcklqdq	%xmm1, %xmm0
	movaps	%xmm0, 16(%rsp)
	call	*8(%rax)
.L410:
	addq	$56, %rsp
	.cfi_def_cfa_offset 24
	popq	%rbx
	.cfi_def_cfa_offset 16
	popq	%rbp
	.cfi_def_cfa_offset 8
	ret
	.cfi_endproc
.LFE2004:
	.size	_ZN8opendnp318TypedCommandHeaderINS_17AnalogOutputInt16EE19ApplySelectResponseERKNS_11ICollectionINS_7IndexedIS1_EEEE, .-_ZN8opendnp318TypedCommandHeaderINS_17AnalogOutputInt16EE19ApplySelectResponseERKNS_11ICollectionINS_7IndexedIS1_EEEE
	.section	.text._ZN8opendnp318TypedCommandHeaderINS_17AnalogOutputInt16EE20ApplyOperateResponseERKNS_11ICollectionINS_7IndexedIS1_EEEE,"axG",@progbits,_ZN8opendnp318TypedCommandHeaderINS_17AnalogOutputInt16EE20ApplyOperateResponseERKNS_11ICollectionINS_7IndexedIS1_EEEE,comdat
	.align 2
	.p2align 4
	.weak	_ZN8opendnp318TypedCommandHeaderINS_17AnalogOutputInt16EE20ApplyOperateResponseERKNS_11ICollectionINS_7IndexedIS1_EEEE
	.type	_ZN8opendnp318TypedCommandHeaderINS_17AnalogOutputInt16EE20ApplyOperateResponseERKNS_11ICollectionINS_7IndexedIS1_EEEE, @function
_ZN8opendnp318TypedCommandHeaderINS_17AnalogOutputInt16EE20ApplyOperateResponseERKNS_11ICollectionINS_7IndexedIS1_EEEE:
.LFB2006:
	.cfi_startproc
	pushq	%rbp
	.cfi_def_cfa_offset 16
	.cfi_offset 6, -16
	movq	%rdi, %rbp
	movq	%rsi, %rdi
	pushq	%rbx
	.cfi_def_cfa_offset 24
	.cfi_offset 3, -24
	movq	%rsi, %rbx
	subq	$56, %rsp
	.cfi_def_cfa_offset 80
	movq	(%rsi), %rax
	call	*(%rax)
	movq	%rax, %rdx
	movq	56(%rbp), %rax
	subq	48(%rbp), %rax
	sarq	$3, %rax
	cmpq	%rdx, %rax
	jb	.L413
	movq	_ZTVN8opendnp314FunctorVisitorINS_7IndexedINS_17AnalogOutputInt16EEEZNS_18TypedCommandHeaderIS2_E20ApplyOperateResponseERKNS_11ICollectionIS3_EEEUlS3_E_EE@GOTPCREL(%rip), %rax
	movq	%rbp, %xmm1
	leaq	16(%rsp), %rsi
	movq	%rbx, %rdi
	movl	$0, 12(%rsp)
	addq	$16, %rax
	movq	%rax, %xmm0
	leaq	12(%rsp), %rax
	movq	%rax, 32(%rsp)
	movq	(%rbx), %rax
	punpcklqdq	%xmm1, %xmm0
	movaps	%xmm0, 16(%rsp)
	call	*8(%rax)
.L413:
	addq	$56, %rsp
	.cfi_def_cfa_offset 24
	popq	%rbx
	.cfi_def_cfa_offset 16
	popq	%rbp
	.cfi_def_cfa_offset 8
	ret
	.cfi_endproc
.LFE2006:
	.size	_ZN8opendnp318TypedCommandHeaderINS_17AnalogOutputInt16EE20ApplyOperateResponseERKNS_11ICollectionINS_7IndexedIS1_EEEE, .-_ZN8opendnp318TypedCommandHeaderINS_17AnalogOutputInt16EE20ApplyOperateResponseERKNS_11ICollectionINS_7IndexedIS1_EEEE
	.section	.text._ZN8opendnp318TypedCommandHeaderINS_17AnalogOutputInt32EE19ApplySelectResponseERKNS_11ICollectionINS_7IndexedIS1_EEEE,"axG",@progbits,_ZN8opendnp318TypedCommandHeaderINS_17AnalogOutputInt32EE19ApplySelectResponseERKNS_11ICollectionINS_7IndexedIS1_EEEE,comdat
	.align 2
	.p2align 4
	.weak	_ZN8opendnp318TypedCommandHeaderINS_17AnalogOutputInt32EE19ApplySelectResponseERKNS_11ICollectionINS_7IndexedIS1_EEEE
	.type	_ZN8opendnp318TypedCommandHeaderINS_17AnalogOutputInt32EE19ApplySelectResponseERKNS_11ICollectionINS_7IndexedIS1_EEEE, @function
_ZN8opendnp318TypedCommandHeaderINS_17AnalogOutputInt32EE19ApplySelectResponseERKNS_11ICollectionINS_7IndexedIS1_EEEE:
.LFB2020:
	.cfi_startproc
	pushq	%rbp
	.cfi_def_cfa_offset 16
	.cfi_offset 6, -16
	movq	%rdi, %rbp
	movq	%rsi, %rdi
	pushq	%rbx
	.cfi_def_cfa_offset 24
	.cfi_offset 3, -24
	movq	%rsi, %rbx
	subq	$56, %rsp
	.cfi_def_cfa_offset 80
	movq	(%rsi), %rax
	call	*(%rax)
	movabsq	$-6148914691236517205, %rcx
	movq	%rax, %rdx
	movq	56(%rbp), %rax
	subq	48(%rbp), %rax
	sarq	$2, %rax
	imulq	%rcx, %rax
	cmpq	%rdx, %rax
	jb	.L416
	movq	_ZTVN8opendnp314FunctorVisitorINS_7IndexedINS_17AnalogOutputInt32EEEZNS_18TypedCommandHeaderIS2_E19ApplySelectResponseERKNS_11ICollectionIS3_EEEUlS3_E_EE@GOTPCREL(%rip), %rax
	movq	%rbp, %xmm1
	leaq	16(%rsp), %rsi
	movq	%rbx, %rdi
	movl	$0, 12(%rsp)
	addq	$16, %rax
	movq	%rax, %xmm0
	leaq	12(%rsp), %rax
	movq	%rax, 32(%rsp)
	movq	(%rbx), %rax
	punpcklqdq	%xmm1, %xmm0
	movaps	%xmm0, 16(%rsp)
	call	*8(%rax)
.L416:
	addq	$56, %rsp
	.cfi_def_cfa_offset 24
	popq	%rbx
	.cfi_def_cfa_offset 16
	popq	%rbp
	.cfi_def_cfa_offset 8
	ret
	.cfi_endproc
.LFE2020:
	.size	_ZN8opendnp318TypedCommandHeaderINS_17AnalogOutputInt32EE19ApplySelectResponseERKNS_11ICollectionINS_7IndexedIS1_EEEE, .-_ZN8opendnp318TypedCommandHeaderINS_17AnalogOutputInt32EE19ApplySelectResponseERKNS_11ICollectionINS_7IndexedIS1_EEEE
	.section	.text._ZN8opendnp318TypedCommandHeaderINS_17AnalogOutputInt32EE20ApplyOperateResponseERKNS_11ICollectionINS_7IndexedIS1_EEEE,"axG",@progbits,_ZN8opendnp318TypedCommandHeaderINS_17AnalogOutputInt32EE20ApplyOperateResponseERKNS_11ICollectionINS_7IndexedIS1_EEEE,comdat
	.align 2
	.p2align 4
	.weak	_ZN8opendnp318TypedCommandHeaderINS_17AnalogOutputInt32EE20ApplyOperateResponseERKNS_11ICollectionINS_7IndexedIS1_EEEE
	.type	_ZN8opendnp318TypedCommandHeaderINS_17AnalogOutputInt32EE20ApplyOperateResponseERKNS_11ICollectionINS_7IndexedIS1_EEEE, @function
_ZN8opendnp318TypedCommandHeaderINS_17AnalogOutputInt32EE20ApplyOperateResponseERKNS_11ICollectionINS_7IndexedIS1_EEEE:
.LFB2022:
	.cfi_startproc
	pushq	%rbp
	.cfi_def_cfa_offset 16
	.cfi_offset 6, -16
	movq	%rdi, %rbp
	movq	%rsi, %rdi
	pushq	%rbx
	.cfi_def_cfa_offset 24
	.cfi_offset 3, -24
	movq	%rsi, %rbx
	subq	$56, %rsp
	.cfi_def_cfa_offset 80
	movq	(%rsi), %rax
	call	*(%rax)
	movabsq	$-6148914691236517205, %rcx
	movq	%rax, %rdx
	movq	56(%rbp), %rax
	subq	48(%rbp), %rax
	sarq	$2, %rax
	imulq	%rcx, %rax
	cmpq	%rdx, %rax
	jb	.L419
	movq	_ZTVN8opendnp314FunctorVisitorINS_7IndexedINS_17AnalogOutputInt32EEEZNS_18TypedCommandHeaderIS2_E20ApplyOperateResponseERKNS_11ICollectionIS3_EEEUlS3_E_EE@GOTPCREL(%rip), %rax
	movq	%rbp, %xmm1
	leaq	16(%rsp), %rsi
	movq	%rbx, %rdi
	movl	$0, 12(%rsp)
	addq	$16, %rax
	movq	%rax, %xmm0
	leaq	12(%rsp), %rax
	movq	%rax, 32(%rsp)
	movq	(%rbx), %rax
	punpcklqdq	%xmm1, %xmm0
	movaps	%xmm0, 16(%rsp)
	call	*8(%rax)
.L419:
	addq	$56, %rsp
	.cfi_def_cfa_offset 24
	popq	%rbx
	.cfi_def_cfa_offset 16
	popq	%rbp
	.cfi_def_cfa_offset 8
	ret
	.cfi_endproc
.LFE2022:
	.size	_ZN8opendnp318TypedCommandHeaderINS_17AnalogOutputInt32EE20ApplyOperateResponseERKNS_11ICollectionINS_7IndexedIS1_EEEE, .-_ZN8opendnp318TypedCommandHeaderINS_17AnalogOutputInt32EE20ApplyOperateResponseERKNS_11ICollectionINS_7IndexedIS1_EEEE
	.section	.text._ZN8opendnp318TypedCommandHeaderINS_23ControlRelayOutputBlockEE19ApplySelectResponseERKNS_11ICollectionINS_7IndexedIS1_EEEE,"axG",@progbits,_ZN8opendnp318TypedCommandHeaderINS_23ControlRelayOutputBlockEE19ApplySelectResponseERKNS_11ICollectionINS_7IndexedIS1_EEEE,comdat
	.align 2
	.p2align 4
	.weak	_ZN8opendnp318TypedCommandHeaderINS_23ControlRelayOutputBlockEE19ApplySelectResponseERKNS_11ICollectionINS_7IndexedIS1_EEEE
	.type	_ZN8opendnp318TypedCommandHeaderINS_23ControlRelayOutputBlockEE19ApplySelectResponseERKNS_11ICollectionINS_7IndexedIS1_EEEE, @function
_ZN8opendnp318TypedCommandHeaderINS_23ControlRelayOutputBlockEE19ApplySelectResponseERKNS_11ICollectionINS_7IndexedIS1_EEEE:
.LFB2036:
	.cfi_startproc
	pushq	%rbp
	.cfi_def_cfa_offset 16
	.cfi_offset 6, -16
	movq	%rdi, %rbp
	movq	%rsi, %rdi
	pushq	%rbx
	.cfi_def_cfa_offset 24
	.cfi_offset 3, -24
	movq	%rsi, %rbx
	subq	$56, %rsp
	.cfi_def_cfa_offset 80
	movq	(%rsi), %rax
	call	*(%rax)
	movabsq	$-3689348814741910323, %rcx
	movq	%rax, %rdx
	movq	56(%rbp), %rax
	subq	48(%rbp), %rax
	sarq	$2, %rax
	imulq	%rcx, %rax
	cmpq	%rdx, %rax
	jb	.L422
	movq	_ZTVN8opendnp314FunctorVisitorINS_7IndexedINS_23ControlRelayOutputBlockEEEZNS_18TypedCommandHeaderIS2_E19ApplySelectResponseERKNS_11ICollectionIS3_EEEUlS3_E_EE@GOTPCREL(%rip), %rax
	movq	%rbp, %xmm1
	leaq	16(%rsp), %rsi
	movq	%rbx, %rdi
	movl	$0, 12(%rsp)
	addq	$16, %rax
	movq	%rax, %xmm0
	leaq	12(%rsp), %rax
	movq	%rax, 32(%rsp)
	movq	(%rbx), %rax
	punpcklqdq	%xmm1, %xmm0
	movaps	%xmm0, 16(%rsp)
	call	*8(%rax)
.L422:
	addq	$56, %rsp
	.cfi_def_cfa_offset 24
	popq	%rbx
	.cfi_def_cfa_offset 16
	popq	%rbp
	.cfi_def_cfa_offset 8
	ret
	.cfi_endproc
.LFE2036:
	.size	_ZN8opendnp318TypedCommandHeaderINS_23ControlRelayOutputBlockEE19ApplySelectResponseERKNS_11ICollectionINS_7IndexedIS1_EEEE, .-_ZN8opendnp318TypedCommandHeaderINS_23ControlRelayOutputBlockEE19ApplySelectResponseERKNS_11ICollectionINS_7IndexedIS1_EEEE
	.section	.text._ZN8opendnp318TypedCommandHeaderINS_23ControlRelayOutputBlockEE20ApplyOperateResponseERKNS_11ICollectionINS_7IndexedIS1_EEEE,"axG",@progbits,_ZN8opendnp318TypedCommandHeaderINS_23ControlRelayOutputBlockEE20ApplyOperateResponseERKNS_11ICollectionINS_7IndexedIS1_EEEE,comdat
	.align 2
	.p2align 4
	.weak	_ZN8opendnp318TypedCommandHeaderINS_23ControlRelayOutputBlockEE20ApplyOperateResponseERKNS_11ICollectionINS_7IndexedIS1_EEEE
	.type	_ZN8opendnp318TypedCommandHeaderINS_23ControlRelayOutputBlockEE20ApplyOperateResponseERKNS_11ICollectionINS_7IndexedIS1_EEEE, @function
_ZN8opendnp318TypedCommandHeaderINS_23ControlRelayOutputBlockEE20ApplyOperateResponseERKNS_11ICollectionINS_7IndexedIS1_EEEE:
.LFB2038:
	.cfi_startproc
	pushq	%rbp
	.cfi_def_cfa_offset 16
	.cfi_offset 6, -16
	movq	%rdi, %rbp
	movq	%rsi, %rdi
	pushq	%rbx
	.cfi_def_cfa_offset 24
	.cfi_offset 3, -24
	movq	%rsi, %rbx
	subq	$56, %rsp
	.cfi_def_cfa_offset 80
	movq	(%rsi), %rax
	call	*(%rax)
	movabsq	$-3689348814741910323, %rcx
	movq	%rax, %rdx
	movq	56(%rbp), %rax
	subq	48(%rbp), %rax
	sarq	$2, %rax
	imulq	%rcx, %rax
	cmpq	%rdx, %rax
	jb	.L425
	movq	_ZTVN8opendnp314FunctorVisitorINS_7IndexedINS_23ControlRelayOutputBlockEEEZNS_18TypedCommandHeaderIS2_E20ApplyOperateResponseERKNS_11ICollectionIS3_EEEUlS3_E_EE@GOTPCREL(%rip), %rax
	movq	%rbp, %xmm1
	leaq	16(%rsp), %rsi
	movq	%rbx, %rdi
	movl	$0, 12(%rsp)
	addq	$16, %rax
	movq	%rax, %xmm0
	leaq	12(%rsp), %rax
	movq	%rax, 32(%rsp)
	movq	(%rbx), %rax
	punpcklqdq	%xmm1, %xmm0
	movaps	%xmm0, 16(%rsp)
	call	*8(%rax)
.L425:
	addq	$56, %rsp
	.cfi_def_cfa_offset 24
	popq	%rbx
	.cfi_def_cfa_offset 16
	popq	%rbp
	.cfi_def_cfa_offset 8
	ret
	.cfi_endproc
.LFE2038:
	.size	_ZN8opendnp318TypedCommandHeaderINS_23ControlRelayOutputBlockEE20ApplyOperateResponseERKNS_11ICollectionINS_7IndexedIS1_EEEE, .-_ZN8opendnp318TypedCommandHeaderINS_23ControlRelayOutputBlockEE20ApplyOperateResponseERKNS_11ICollectionINS_7IndexedIS1_EEEE
	.section	.rodata._ZN8opendnp318TypedCommandHeaderINS_23ControlRelayOutputBlockEE3AddERKS1_t.str1.1,"aMS",@progbits,1
.LC1:
	.string	"vector::_M_realloc_append"
	.section	.text._ZN8opendnp318TypedCommandHeaderINS_23ControlRelayOutputBlockEE3AddERKS1_t,"axG",@progbits,_ZN8opendnp318TypedCommandHeaderINS_23ControlRelayOutputBlockEE3AddERKS1_t,comdat
	.align 2
	.p2align 4
	.weak	_ZN8opendnp318TypedCommandHeaderINS_23ControlRelayOutputBlockEE3AddERKS1_t
	.type	_ZN8opendnp318TypedCommandHeaderINS_23ControlRelayOutputBlockEE3AddERKS1_t, @function
_ZN8opendnp318TypedCommandHeaderINS_23ControlRelayOutputBlockEE3AddERKS1_t:
.LFB2040:
	.cfi_startproc
	pushq	%r15
	.cfi_def_cfa_offset 16
	.cfi_offset 15, -16
	movq	%rdi, %rcx
	pushq	%r14
	.cfi_def_cfa_offset 24
	.cfi_offset 14, -24
	pushq	%r12
	.cfi_def_cfa_offset 32
	.cfi_offset 12, -32
	movl	%edx, %r12d
	pushq	%rbp
	.cfi_def_cfa_offset 40
	.cfi_offset 6, -40
	pushq	%rbx
	.cfi_def_cfa_offset 48
	.cfi_offset 3, -48
	subq	$48, %rsp
	.cfi_def_cfa_offset 96
	movzwl	(%rsi), %ebp
	movzbl	2(%rsi), %ebx
	movq	4(%rsi), %r11
	movzbl	12(%rsi), %r10d
	movq	56(%rdi), %rdx
	movq	64(%rdi), %rsi
	cmpq	%rsi, %rdx
	je	.L429
	movl	$32512, %esi
	movw	%r12w, 2(%rdx)
	addq	$20, %rdx
	movw	%si, -20(%rdx)
	movw	%bp, -16(%rdx)
	movb	%bl, -14(%rdx)
	movq	%r11, -12(%rdx)
	movb	%r10b, -4(%rdx)
	movq	%rdx, 56(%rdi)
.L430:
	addq	$48, %rsp
	.cfi_remember_state
	.cfi_def_cfa_offset 48
	leaq	8(%rcx), %rax
	popq	%rbx
	.cfi_def_cfa_offset 40
	popq	%rbp
	.cfi_def_cfa_offset 32
	popq	%r12
	.cfi_def_cfa_offset 24
	popq	%r14
	.cfi_def_cfa_offset 16
	popq	%r15
	.cfi_def_cfa_offset 8
	ret
	.p2align 4,,10
	.p2align 3
.L429:
	.cfi_restore_state
	movq	48(%rdi), %r8
	movq	%rdx, %rax
	subq	%r8, %rax
	movq	%rax, %rdi
	movq	%rax, %r14
	movabsq	$-3689348814741910323, %rax
	sarq	$2, %rdi
	imulq	%rax, %rdi
	movabsq	$461168601842738790, %rax
	cmpq	%rax, %rdi
	je	.L441
	testq	%rdi, %rdi
	movl	$1, %eax
	movq	%rcx, 40(%rsp)
	cmovne	%rdi, %rax
	movq	%r11, 32(%rsp)
	movq	%r8, 24(%rsp)
	addq	%rdi, %rax
	movq	%rsi, 16(%rsp)
	movabsq	$461168601842738790, %rdi
	cmpq	%rdi, %rax
	movq	%rdx, 8(%rsp)
	cmova	%rdi, %rax
	movb	%r10b, (%rsp)
	leaq	(%rax,%rax,4), %rax
	leaq	0(,%rax,4), %rdi
	leaq	0(,%rax,4), %r15
	call	_Znwm@PLT
	movq	8(%rsp), %rdx
	movq	24(%rsp), %r8
	movq	32(%rsp), %r11
	movzbl	(%rsp), %r10d
	movq	%rax, %r9
	movl	$32512, %eax
	cmpq	%r8, %rdx
	movw	%ax, (%r9,%r14)
	movq	16(%rsp), %rsi
	movw	%r12w, 2(%r9,%r14)
	movq	40(%rsp), %rcx
	movw	%bp, 4(%r9,%r14)
	movb	%bl, 6(%r9,%r14)
	movq	%r11, 8(%r9,%r14)
	movb	%r10b, 16(%r9,%r14)
	je	.L435
	movq	%r9, %rdi
	movq	%r8, %rax
	.p2align 5
	.p2align 4
	.p2align 3
.L433:
	movdqu	(%rax), %xmm0
	movl	16(%rax), %r10d
	addq	$20, %rax
	addq	$20, %rdi
	movups	%xmm0, -20(%rdi)
	movl	%r10d, -4(%rdi)
	cmpq	%rax, %rdx
	jne	.L433
	leaq	-20(%rdx), %rax
	movabsq	$922337203685477581, %rdx
	subq	%r8, %rax
	shrq	$2, %rax
	imulq	%rdx, %rax
	movabsq	$4611686018427387903, %rdx
	andq	%rdx, %rax
	leaq	5(%rax,%rax,4), %rax
	leaq	(%r9,%rax,4), %rbx
.L432:
	addq	$20, %rbx
	testq	%r8, %r8
	je	.L434
	subq	%r8, %rsi
	movq	%r8, %rdi
	movq	%r9, 8(%rsp)
	movq	%rcx, (%rsp)
	call	_ZdlPvm@PLT
	movq	8(%rsp), %r9
	movq	(%rsp), %rcx
.L434:
	movq	%r9, 48(%rcx)
	addq	%r15, %r9
	movq	%rbx, 56(%rcx)
	movq	%r9, 64(%rcx)
	jmp	.L430
	.p2align 4,,10
	.p2align 3
.L435:
	movq	%r9, %rbx
	jmp	.L432
.L441:
	leaq	.LC1(%rip), %rdi
	call	_ZSt20__throw_length_errorPKc@PLT
	.cfi_endproc
.LFE2040:
	.size	_ZN8opendnp318TypedCommandHeaderINS_23ControlRelayOutputBlockEE3AddERKS1_t, .-_ZN8opendnp318TypedCommandHeaderINS_23ControlRelayOutputBlockEE3AddERKS1_t
	.section	.text._ZN8opendnp318TypedCommandHeaderINS_17AnalogOutputInt32EE3AddERKS1_t,"axG",@progbits,_ZN8opendnp318TypedCommandHeaderINS_17AnalogOutputInt32EE3AddERKS1_t,comdat
	.align 2
	.p2align 4
	.weak	_ZN8opendnp318TypedCommandHeaderINS_17AnalogOutputInt32EE3AddERKS1_t
	.type	_ZN8opendnp318TypedCommandHeaderINS_17AnalogOutputInt32EE3AddERKS1_t, @function
_ZN8opendnp318TypedCommandHeaderINS_17AnalogOutputInt32EE3AddERKS1_t:
.LFB2024:
	.cfi_startproc
	pushq	%r15
	.cfi_def_cfa_offset 16
	.cfi_offset 15, -16
	movq	%rdi, %rcx
	pushq	%r14
	.cfi_def_cfa_offset 24
	.cfi_offset 14, -24
	pushq	%rbx
	.cfi_def_cfa_offset 32
	.cfi_offset 3, -32
	movl	%edx, %ebx
	subq	$48, %rsp
	.cfi_def_cfa_offset 80
	movl	(%rsi), %r11d
	movzbl	4(%rsi), %r10d
	movq	56(%rdi), %rdx
	movq	64(%rdi), %rsi
	cmpq	%rsi, %rdx
	je	.L443
	movl	$32512, %esi
	movw	%bx, 2(%rdx)
	addq	$12, %rdx
	leaq	8(%rcx), %rax
	movw	%si, -12(%rdx)
	movl	%r11d, -8(%rdx)
	movb	%r10b, -4(%rdx)
	movq	%rdx, 56(%rdi)
	addq	$48, %rsp
	.cfi_remember_state
	.cfi_def_cfa_offset 32
	popq	%rbx
	.cfi_def_cfa_offset 24
	popq	%r14
	.cfi_def_cfa_offset 16
	popq	%r15
	.cfi_def_cfa_offset 8
	ret
	.p2align 4,,10
	.p2align 3
.L443:
	.cfi_restore_state
	movq	48(%rdi), %r8
	movq	%rdx, %rax
	subq	%r8, %rax
	movq	%rax, %rdi
	movq	%rax, %r14
	movabsq	$-6148914691236517205, %rax
	sarq	$2, %rdi
	imulq	%rax, %rdi
	movabsq	$768614336404564650, %rax
	cmpq	%rax, %rdi
	je	.L455
	testq	%rdi, %rdi
	movl	$1, %eax
	movq	%rcx, 40(%rsp)
	cmovne	%rdi, %rax
	movq	%r8, 32(%rsp)
	movb	%r10b, 31(%rsp)
	addq	%rdi, %rax
	movl	%r11d, 24(%rsp)
	movabsq	$768614336404564650, %rdi
	cmpq	%rdi, %rax
	movq	%rsi, 16(%rsp)
	cmova	%rdi, %rax
	movq	%rdx, 8(%rsp)
	leaq	(%rax,%rax,2), %rax
	leaq	0(,%rax,4), %rdi
	leaq	0(,%rax,4), %r15
	call	_Znwm@PLT
	movq	8(%rsp), %rdx
	movq	32(%rsp), %r8
	movl	24(%rsp), %r11d
	movzbl	31(%rsp), %r10d
	movq	%rax, %r9
	movl	$32512, %eax
	cmpq	%r8, %rdx
	movw	%ax, (%r9,%r14)
	movq	16(%rsp), %rsi
	movw	%bx, 2(%r9,%r14)
	movq	40(%rsp), %rcx
	movl	%r11d, 4(%r9,%r14)
	movb	%r10b, 8(%r9,%r14)
	je	.L449
	movq	%r9, %rdi
	movq	%r8, %rax
	.p2align 5
	.p2align 4
	.p2align 3
.L447:
	movq	(%rax), %r10
	addq	$12, %rax
	addq	$12, %rdi
	movq	%r10, -12(%rdi)
	movl	-4(%rax), %r10d
	movl	%r10d, -4(%rdi)
	cmpq	%rax, %rdx
	jne	.L447
	leaq	-12(%rdx), %rax
	movabsq	$3074457345618258603, %rdx
	subq	%r8, %rax
	shrq	$2, %rax
	imulq	%rdx, %rax
	movabsq	$4611686018427387903, %rdx
	andq	%rdx, %rax
	leaq	3(%rax,%rax,2), %rax
	leaq	(%r9,%rax,4), %rbx
.L446:
	addq	$12, %rbx
	testq	%r8, %r8
	je	.L448
	subq	%r8, %rsi
	movq	%r8, %rdi
	movq	%r9, 16(%rsp)
	movq	%rcx, 8(%rsp)
	call	_ZdlPvm@PLT
	movq	16(%rsp), %r9
	movq	8(%rsp), %rcx
.L448:
	movq	%r9, 48(%rcx)
	addq	%r15, %r9
	leaq	8(%rcx), %rax
	movq	%rbx, 56(%rcx)
	movq	%r9, 64(%rcx)
	addq	$48, %rsp
	.cfi_remember_state
	.cfi_def_cfa_offset 32
	popq	%rbx
	.cfi_def_cfa_offset 24
	popq	%r14
	.cfi_def_cfa_offset 16
	popq	%r15
	.cfi_def_cfa_offset 8
	ret
	.p2align 4,,10
	.p2align 3
.L449:
	.cfi_restore_state
	movq	%r9, %rbx
	jmp	.L446
.L455:
	leaq	.LC1(%rip), %rdi
	call	_ZSt20__throw_length_errorPKc@PLT
	.cfi_endproc
.LFE2024:
	.size	_ZN8opendnp318TypedCommandHeaderINS_17AnalogOutputInt32EE3AddERKS1_t, .-_ZN8opendnp318TypedCommandHeaderINS_17AnalogOutputInt32EE3AddERKS1_t
	.section	.text._ZN8opendnp318TypedCommandHeaderINS_17AnalogOutputInt16EE3AddERKS1_t,"axG",@progbits,_ZN8opendnp318TypedCommandHeaderINS_17AnalogOutputInt16EE3AddERKS1_t,comdat
	.align 2
	.p2align 4
	.weak	_ZN8opendnp318TypedCommandHeaderINS_17AnalogOutputInt16EE3AddERKS1_t
	.type	_ZN8opendnp318TypedCommandHeaderINS_17AnalogOutputInt16EE3AddERKS1_t, @function
_ZN8opendnp318TypedCommandHeaderINS_17AnalogOutputInt16EE3AddERKS1_t:
.LFB2008:
	.cfi_startproc
	pushq	%r15
	.cfi_def_cfa_offset 16
	.cfi_offset 15, -16
	movq	%rdi, %rcx
	pushq	%r14
	.cfi_def_cfa_offset 24
	.cfi_offset 14, -24
	pushq	%rbx
	.cfi_def_cfa_offset 32
	.cfi_offset 3, -32
	movl	%edx, %ebx
	subq	$48, %rsp
	.cfi_def_cfa_offset 80
	movzwl	(%rsi), %r11d
	movzbl	2(%rsi), %r8d
	movq	56(%rdi), %rdx
	movq	64(%rdi), %rsi
	cmpq	%rsi, %rdx
	je	.L457
	movl	$32512, %esi
	movw	%bx, 2(%rdx)
	addq	$8, %rdx
	leaq	8(%rcx), %rax
	movw	%si, -8(%rdx)
	movw	%r11w, -4(%rdx)
	movb	%r8b, -2(%rdx)
	movq	%rdx, 56(%rdi)
	addq	$48, %rsp
	.cfi_remember_state
	.cfi_def_cfa_offset 32
	popq	%rbx
	.cfi_def_cfa_offset 24
	popq	%r14
	.cfi_def_cfa_offset 16
	popq	%r15
	.cfi_def_cfa_offset 8
	ret
	.p2align 4,,10
	.p2align 3
.L457:
	.cfi_restore_state
	movq	48(%rdi), %r9
	movq	%rdx, %rax
	subq	%r9, %rax
	movq	%rax, %rdi
	movq	%rax, %r14
	movabsq	$1152921504606846975, %rax
	sarq	$3, %rdi
	cmpq	%rax, %rdi
	je	.L469
	testq	%rdi, %rdi
	movl	$1, %eax
	movq	%rcx, 40(%rsp)
	cmovne	%rdi, %rax
	movq	%r9, 32(%rsp)
	movb	%r8b, 31(%rsp)
	addq	%rdi, %rax
	movl	%r11d, 24(%rsp)
	movabsq	$1152921504606846975, %rdi
	cmpq	%rdi, %rax
	movq	%rsi, 16(%rsp)
	cmova	%rdi, %rax
	movq	%rdx, 8(%rsp)
	leaq	0(,%rax,8), %rdi
	leaq	0(,%rax,8), %r15
	call	_Znwm@PLT
	movq	8(%rsp), %rdx
	movq	32(%rsp), %r9
	movl	24(%rsp), %r11d
	movzbl	31(%rsp), %r8d
	movq	%rax, %r10
	movl	$32512, %eax
	cmpq	%r9, %rdx
	movw	%ax, (%r10,%r14)
	movq	16(%rsp), %rsi
	movw	%bx, 2(%r10,%r14)
	movq	40(%rsp), %rcx
	movw	%r11w, 4(%r10,%r14)
	movb	%r8b, 6(%r10,%r14)
	je	.L463
	movq	%r10, %rdi
	movq	%r9, %rax
	.p2align 5
	.p2align 4
	.p2align 3
.L461:
	movq	(%rax), %r8
	addq	$8, %rax
	addq	$8, %rdi
	movq	%r8, -8(%rdi)
	cmpq	%rax, %rdx
	jne	.L461
	subq	%r9, %rdx
	addq	%r10, %rdx
.L460:
	leaq	8(%rdx), %rbx
	testq	%r9, %r9
	je	.L462
	subq	%r9, %rsi
	movq	%r9, %rdi
	movq	%r10, 16(%rsp)
	movq	%rcx, 8(%rsp)
	call	_ZdlPvm@PLT
	movq	16(%rsp), %r10
	movq	8(%rsp), %rcx
.L462:
	movq	%r10, 48(%rcx)
	addq	%r15, %r10
	leaq	8(%rcx), %rax
	movq	%rbx, 56(%rcx)
	movq	%r10, 64(%rcx)
	addq	$48, %rsp
	.cfi_remember_state
	.cfi_def_cfa_offset 32
	popq	%rbx
	.cfi_def_cfa_offset 24
	popq	%r14
	.cfi_def_cfa_offset 16
	popq	%r15
	.cfi_def_cfa_offset 8
	ret
	.p2align 4,,10
	.p2align 3
.L463:
	.cfi_restore_state
	movq	%r10, %rdx
	jmp	.L460
.L469:
	leaq	.LC1(%rip), %rdi
	call	_ZSt20__throw_length_errorPKc@PLT
	.cfi_endproc
.LFE2008:
	.size	_ZN8opendnp318TypedCommandHeaderINS_17AnalogOutputInt16EE3AddERKS1_t, .-_ZN8opendnp318TypedCommandHeaderINS_17AnalogOutputInt16EE3AddERKS1_t
	.section	.text._ZN8opendnp318TypedCommandHeaderINS_19AnalogOutputFloat32EE3AddERKS1_t,"axG",@progbits,_ZN8opendnp318TypedCommandHeaderINS_19AnalogOutputFloat32EE3AddERKS1_t,comdat
	.align 2
	.p2align 4
	.weak	_ZN8opendnp318TypedCommandHeaderINS_19AnalogOutputFloat32EE3AddERKS1_t
	.type	_ZN8opendnp318TypedCommandHeaderINS_19AnalogOutputFloat32EE3AddERKS1_t, @function
_ZN8opendnp318TypedCommandHeaderINS_19AnalogOutputFloat32EE3AddERKS1_t:
.LFB1992:
	.cfi_startproc
	movss	(%rsi), %xmm0
	movzbl	4(%rsi), %r10d
	movl	%edx, %r11d
	movq	%rdi, %rcx
	movq	56(%rdi), %rdx
	movq	64(%rdi), %rsi
	cmpq	%rsi, %rdx
	je	.L471
	movl	$32512, %esi
	movw	%r11w, 2(%rdx)
	addq	$12, %rdx
	leaq	8(%rdi), %rax
	movw	%si, -12(%rdx)
	movss	%xmm0, -8(%rdx)
	movb	%r10b, -4(%rdx)
	movq	%rdx, 56(%rdi)
	ret
	.p2align 4,,10
	.p2align 3
.L471:
	pushq	%r14
	.cfi_def_cfa_offset 16
	.cfi_offset 14, -16
	movq	%rdx, %rax
	pushq	%rbx
	.cfi_def_cfa_offset 24
	.cfi_offset 3, -24
	subq	$56, %rsp
	.cfi_def_cfa_offset 80
	movq	48(%rdi), %r8
	subq	%r8, %rax
	movq	%rax, %rdi
	movq	%rax, %rbx
	movabsq	$-6148914691236517205, %rax
	sarq	$2, %rdi
	imulq	%rax, %rdi
	movabsq	$768614336404564650, %rax
	cmpq	%rax, %rdi
	je	.L485
	testq	%rdi, %rdi
	movl	$1, %eax
	movl	%r11d, 44(%rsp)
	cmovne	%rdi, %rax
	movq	%rcx, 32(%rsp)
	movq	%r8, 24(%rsp)
	addq	%rdi, %rax
	movb	%r10b, 43(%rsp)
	movabsq	$768614336404564650, %rdi
	cmpq	%rdi, %rax
	movq	%rsi, 8(%rsp)
	cmova	%rdi, %rax
	movq	%rdx, (%rsp)
	movss	%xmm0, 16(%rsp)
	leaq	(%rax,%rax,2), %rax
	leaq	0(,%rax,4), %rdi
	leaq	0(,%rax,4), %r14
	call	_Znwm@PLT
	movq	(%rsp), %rdx
	movq	24(%rsp), %r8
	movl	44(%rsp), %r11d
	movss	16(%rsp), %xmm0
	movq	%rax, %r9
	movl	$32512, %eax
	movzbl	43(%rsp), %r10d
	cmpq	%r8, %rdx
	movw	%ax, (%r9,%rbx)
	movq	8(%rsp), %rsi
	movw	%r11w, 2(%r9,%rbx)
	movb	%r10b, 8(%r9,%rbx)
	movq	32(%rsp), %rcx
	movss	%xmm0, 4(%r9,%rbx)
	je	.L477
	movq	%r9, %rdi
	movq	%r8, %rax
	.p2align 5
	.p2align 4
	.p2align 3
.L475:
	movq	(%rax), %r10
	addq	$12, %rax
	addq	$12, %rdi
	movq	%r10, -12(%rdi)
	movl	-4(%rax), %r10d
	movl	%r10d, -4(%rdi)
	cmpq	%rax, %rdx
	jne	.L475
	leaq	-12(%rdx), %rax
	movabsq	$3074457345618258603, %rdx
	subq	%r8, %rax
	shrq	$2, %rax
	imulq	%rdx, %rax
	movabsq	$4611686018427387903, %rdx
	andq	%rdx, %rax
	leaq	3(%rax,%rax,2), %rax
	leaq	(%r9,%rax,4), %rax
.L474:
	addq	$12, %rax
	testq	%r8, %r8
	je	.L476
	subq	%r8, %rsi
	movq	%r8, %rdi
	movq	%r9, 16(%rsp)
	movq	%rcx, 8(%rsp)
	movq	%rax, (%rsp)
	call	_ZdlPvm@PLT
	movq	16(%rsp), %r9
	movq	8(%rsp), %rcx
	movq	(%rsp), %rax
.L476:
	movq	%r9, 48(%rcx)
	addq	%r14, %r9
	movq	%rax, 56(%rcx)
	leaq	8(%rcx), %rax
	movq	%r9, 64(%rcx)
	addq	$56, %rsp
	.cfi_remember_state
	.cfi_def_cfa_offset 24
	popq	%rbx
	.cfi_def_cfa_offset 16
	popq	%r14
	.cfi_def_cfa_offset 8
	ret
	.p2align 4,,10
	.p2align 3
.L477:
	.cfi_restore_state
	movq	%r9, %rax
	jmp	.L474
.L485:
	leaq	.LC1(%rip), %rdi
	call	_ZSt20__throw_length_errorPKc@PLT
	.cfi_endproc
.LFE1992:
	.size	_ZN8opendnp318TypedCommandHeaderINS_19AnalogOutputFloat32EE3AddERKS1_t, .-_ZN8opendnp318TypedCommandHeaderINS_19AnalogOutputFloat32EE3AddERKS1_t
	.section	.text._ZN8opendnp318TypedCommandHeaderINS_20AnalogOutputDouble64EE3AddERKS1_t,"axG",@progbits,_ZN8opendnp318TypedCommandHeaderINS_20AnalogOutputDouble64EE3AddERKS1_t,comdat
	.align 2
	.p2align 4
	.weak	_ZN8opendnp318TypedCommandHeaderINS_20AnalogOutputDouble64EE3AddERKS1_t
	.type	_ZN8opendnp318TypedCommandHeaderINS_20AnalogOutputDouble64EE3AddERKS1_t, @function
_ZN8opendnp318TypedCommandHeaderINS_20AnalogOutputDouble64EE3AddERKS1_t:
.LFB1976:
	.cfi_startproc
	movsd	(%rsi), %xmm0
	movzbl	8(%rsi), %r10d
	movl	%edx, %r11d
	movq	%rdi, %rcx
	movq	56(%rdi), %rdx
	movq	64(%rdi), %rsi
	cmpq	%rsi, %rdx
	je	.L487
	movl	$32512, %esi
	movw	%r11w, 2(%rdx)
	addq	$24, %rdx
	leaq	8(%rdi), %rax
	movw	%si, -24(%rdx)
	movsd	%xmm0, -16(%rdx)
	movb	%r10b, -8(%rdx)
	movq	%rdx, 56(%rdi)
	ret
	.p2align 4,,10
	.p2align 3
.L487:
	pushq	%r14
	.cfi_def_cfa_offset 16
	.cfi_offset 14, -16
	movq	%rdx, %rax
	pushq	%rbx
	.cfi_def_cfa_offset 24
	.cfi_offset 3, -24
	subq	$72, %rsp
	.cfi_def_cfa_offset 96
	movq	48(%rdi), %r8
	subq	%r8, %rax
	movq	%rax, %rdi
	movq	%rax, %rbx
	movabsq	$-6148914691236517205, %rax
	sarq	$3, %rdi
	imulq	%rax, %rdi
	movabsq	$384307168202282325, %rax
	cmpq	%rax, %rdi
	je	.L501
	testq	%rdi, %rdi
	movl	$1, %eax
	movl	%r11d, 60(%rsp)
	cmovne	%rdi, %rax
	movq	%rcx, 48(%rsp)
	movq	%r8, 40(%rsp)
	addq	%rdi, %rax
	movq	%rsi, 32(%rsp)
	movabsq	$384307168202282325, %rdi
	cmpq	%rdi, %rax
	movq	%rdx, 24(%rsp)
	cmova	%rdi, %rax
	movb	%r10b, 16(%rsp)
	movsd	%xmm0, 8(%rsp)
	leaq	(%rax,%rax,2), %rax
	leaq	0(,%rax,8), %rdi
	leaq	0(,%rax,8), %r14
	call	_Znwm@PLT
	movq	24(%rsp), %rdx
	movq	40(%rsp), %r8
	movl	60(%rsp), %r11d
	movsd	8(%rsp), %xmm0
	movq	%rax, %r9
	movl	$32512, %eax
	movzbl	16(%rsp), %r10d
	cmpq	%r8, %rdx
	movw	%ax, (%r9,%rbx)
	movq	32(%rsp), %rsi
	movw	%r11w, 2(%r9,%rbx)
	movb	%r10b, 16(%r9,%rbx)
	movq	48(%rsp), %rcx
	movsd	%xmm0, 8(%r9,%rbx)
	je	.L493
	movq	%r9, %rdi
	movq	%r8, %rax
	.p2align 5
	.p2align 4
	.p2align 3
.L491:
	movdqu	(%rax), %xmm0
	movq	16(%rax), %r10
	addq	$24, %rax
	addq	$24, %rdi
	movups	%xmm0, -24(%rdi)
	movq	%r10, -8(%rdi)
	cmpq	%rax, %rdx
	jne	.L491
	leaq	-24(%rdx), %rax
	movabsq	$768614336404564651, %rdx
	subq	%r8, %rax
	shrq	$3, %rax
	imulq	%rdx, %rax
	movabsq	$2305843009213693951, %rdx
	andq	%rdx, %rax
	leaq	3(%rax,%rax,2), %rax
	leaq	(%r9,%rax,8), %rax
.L490:
	addq	$24, %rax
	testq	%r8, %r8
	je	.L492
	subq	%r8, %rsi
	movq	%r8, %rdi
	movq	%r9, 24(%rsp)
	movq	%rcx, 16(%rsp)
	movq	%rax, 8(%rsp)
	call	_ZdlPvm@PLT
	movq	24(%rsp), %r9
	movq	16(%rsp), %rcx
	movq	8(%rsp), %rax
.L492:
	movq	%r9, 48(%rcx)
	addq	%r14, %r9
	movq	%rax, 56(%rcx)
	leaq	8(%rcx), %rax
	movq	%r9, 64(%rcx)
	addq	$72, %rsp
	.cfi_remember_state
	.cfi_def_cfa_offset 24
	popq	%rbx
	.cfi_def_cfa_offset 16
	popq	%r14
	.cfi_def_cfa_offset 8
	ret
	.p2align 4,,10
	.p2align 3
.L493:
	.cfi_restore_state
	movq	%r9, %rax
	jmp	.L490
.L501:
	leaq	.LC1(%rip), %rdi
	call	_ZSt20__throw_length_errorPKc@PLT
	.cfi_endproc
.LFE1976:
	.size	_ZN8opendnp318TypedCommandHeaderINS_20AnalogOutputDouble64EE3AddERKS1_t, .-_ZN8opendnp318TypedCommandHeaderINS_20AnalogOutputDouble64EE3AddERKS1_t
	.section	.text._ZN8opendnp314FunctorVisitorINS_7IndexedINS_23ControlRelayOutputBlockEEEZNS_18TypedCommandHeaderIS2_E20ApplyOperateResponseERKNS_11ICollectionIS3_EEEUlS3_E_E7OnValueERKS3_,"axG",@progbits,_ZN8opendnp314FunctorVisitorINS_7IndexedINS_23ControlRelayOutputBlockEEEZNS_18TypedCommandHeaderIS2_E20ApplyOperateResponseERKNS_11ICollectionIS3_EEEUlS3_E_E7OnValueERKS3_,comdat
	.align 2
	.p2align 4
	.weak	_ZN8opendnp314FunctorVisitorINS_7IndexedINS_23ControlRelayOutputBlockEEEZNS_18TypedCommandHeaderIS2_E20ApplyOperateResponseERKNS_11ICollectionIS3_EEEUlS3_E_E7OnValueERKS3_
	.type	_ZN8opendnp314FunctorVisitorINS_7IndexedINS_23ControlRelayOutputBlockEEEZNS_18TypedCommandHeaderIS2_E20ApplyOperateResponseERKNS_11ICollectionIS3_EEEUlS3_E_E7OnValueERKS3_, @function
_ZN8opendnp314FunctorVisitorINS_7IndexedINS_23ControlRelayOutputBlockEEEZNS_18TypedCommandHeaderIS2_E20ApplyOperateResponseERKNS_11ICollectionIS3_EEEUlS3_E_E7OnValueERKS3_:
.LFB2703:
	.cfi_startproc
	pushq	%r14
	.cfi_def_cfa_offset 16
	.cfi_offset 14, -16
	pushq	%rbx
	.cfi_def_cfa_offset 24
	.cfi_offset 3, -24
	movq	16(%rdi), %rcx
	movq	8(%rdi), %rbx
	movzbl	(%rsi), %r8d
	movl	(%rcx), %edx
	movzbl	2(%rsi), %r9d
	movl	4(%rsi), %r10d
	movl	8(%rsi), %r11d
	movq	%rdx, %rax
	leaq	(%rdx,%rdx,4), %rdi
	movq	48(%rbx), %rdx
	movzbl	12(%rsi), %r14d
	addl	$1, %eax
	movzwl	16(%rsi), %esi
	leaq	(%rdx,%rdi,4), %rdx
	movl	%eax, (%rcx)
	cmpw	2(%rdx), %si
	jne	.L502
	cmpb	4(%rdx), %r8b
	je	.L506
.L504:
	movb	$4, (%rdx)
.L502:
	popq	%rbx
	.cfi_remember_state
	.cfi_def_cfa_offset 16
	popq	%r14
	.cfi_def_cfa_offset 8
	ret
	.p2align 4,,10
	.p2align 3
.L506:
	.cfi_restore_state
	cmpb	6(%rdx), %r9b
	jne	.L504
	cmpl	8(%rdx), %r10d
	jne	.L504
	cmpl	12(%rdx), %r11d
	jne	.L504
	movb	$5, (%rdx)
	movb	%r14b, 1(%rdx)
	jmp	.L502
	.cfi_endproc
.LFE2703:
	.size	_ZN8opendnp314FunctorVisitorINS_7IndexedINS_23ControlRelayOutputBlockEEEZNS_18TypedCommandHeaderIS2_E20ApplyOperateResponseERKNS_11ICollectionIS3_EEEUlS3_E_E7OnValueERKS3_, .-_ZN8opendnp314FunctorVisitorINS_7IndexedINS_23ControlRelayOutputBlockEEEZNS_18TypedCommandHeaderIS2_E20ApplyOperateResponseERKNS_11ICollectionIS3_EEEUlS3_E_E7OnValueERKS3_
	.section	.text._ZN8opendnp314FunctorVisitorINS_7IndexedINS_23ControlRelayOutputBlockEEEZNS_18TypedCommandHeaderIS2_E19ApplySelectResponseERKNS_11ICollectionIS3_EEEUlS3_E_E7OnValueERKS3_,"axG",@progbits,_ZN8opendnp314FunctorVisitorINS_7IndexedINS_23ControlRelayOutputBlockEEEZNS_18TypedCommandHeaderIS2_E19ApplySelectResponseERKNS_11ICollectionIS3_EEEUlS3_E_E7OnValueERKS3_,comdat
	.align 2
	.p2align 4
	.weak	_ZN8opendnp314FunctorVisitorINS_7IndexedINS_23ControlRelayOutputBlockEEEZNS_18TypedCommandHeaderIS2_E19ApplySelectResponseERKNS_11ICollectionIS3_EEEUlS3_E_E7OnValueERKS3_
	.type	_ZN8opendnp314FunctorVisitorINS_7IndexedINS_23ControlRelayOutputBlockEEEZNS_18TypedCommandHeaderIS2_E19ApplySelectResponseERKNS_11ICollectionIS3_EEEUlS3_E_E7OnValueERKS3_, @function
_ZN8opendnp314FunctorVisitorINS_7IndexedINS_23ControlRelayOutputBlockEEEZNS_18TypedCommandHeaderIS2_E19ApplySelectResponseERKNS_11ICollectionIS3_EEEUlS3_E_E7OnValueERKS3_:
.LFB2704:
	.cfi_startproc
	pushq	%r14
	.cfi_def_cfa_offset 16
	.cfi_offset 14, -16
	pushq	%rbx
	.cfi_def_cfa_offset 24
	.cfi_offset 3, -24
	movq	16(%rdi), %rcx
	movq	8(%rdi), %rbx
	movzbl	(%rsi), %r8d
	movl	(%rcx), %edx
	movzbl	2(%rsi), %r9d
	movl	4(%rsi), %r10d
	movl	8(%rsi), %r11d
	movq	%rdx, %rax
	leaq	(%rdx,%rdx,4), %rdi
	movq	48(%rbx), %rdx
	movzbl	12(%rsi), %r14d
	addl	$1, %eax
	movzwl	16(%rsi), %esi
	leaq	(%rdx,%rdi,4), %rdx
	movl	%eax, (%rcx)
	cmpw	2(%rdx), %si
	jne	.L507
	cmpb	4(%rdx), %r8b
	je	.L514
.L509:
	movb	$2, (%rdx)
.L507:
	popq	%rbx
	.cfi_remember_state
	.cfi_def_cfa_offset 16
	popq	%r14
	.cfi_def_cfa_offset 8
	ret
	.p2align 4,,10
	.p2align 3
.L514:
	.cfi_restore_state
	cmpb	6(%rdx), %r9b
	jne	.L509
	cmpl	8(%rdx), %r10d
	jne	.L509
	cmpl	12(%rdx), %r11d
	jne	.L509
	testb	%r14b, %r14b
	jne	.L515
	cmpb	$0, (%rdx)
	jne	.L507
	movb	$1, (%rdx)
	jmp	.L507
.L515:
	movb	$3, (%rdx)
	movb	%r14b, 1(%rdx)
	jmp	.L507
	.cfi_endproc
.LFE2704:
	.size	_ZN8opendnp314FunctorVisitorINS_7IndexedINS_23ControlRelayOutputBlockEEEZNS_18TypedCommandHeaderIS2_E19ApplySelectResponseERKNS_11ICollectionIS3_EEEUlS3_E_E7OnValueERKS3_, .-_ZN8opendnp314FunctorVisitorINS_7IndexedINS_23ControlRelayOutputBlockEEEZNS_18TypedCommandHeaderIS2_E19ApplySelectResponseERKNS_11ICollectionIS3_EEEUlS3_E_E7OnValueERKS3_
	.section	.text._ZN8opendnp314FunctorVisitorINS_7IndexedINS_17AnalogOutputInt32EEEZNS_18TypedCommandHeaderIS2_E19ApplySelectResponseERKNS_11ICollectionIS3_EEEUlS3_E_E7OnValueERKS3_,"axG",@progbits,_ZN8opendnp314FunctorVisitorINS_7IndexedINS_17AnalogOutputInt32EEEZNS_18TypedCommandHeaderIS2_E19ApplySelectResponseERKNS_11ICollectionIS3_EEEUlS3_E_E7OnValueERKS3_,comdat
	.align 2
	.p2align 4
	.weak	_ZN8opendnp314FunctorVisitorINS_7IndexedINS_17AnalogOutputInt32EEEZNS_18TypedCommandHeaderIS2_E19ApplySelectResponseERKNS_11ICollectionIS3_EEEUlS3_E_E7OnValueERKS3_
	.type	_ZN8opendnp314FunctorVisitorINS_7IndexedINS_17AnalogOutputInt32EEEZNS_18TypedCommandHeaderIS2_E19ApplySelectResponseERKNS_11ICollectionIS3_EEEUlS3_E_E7OnValueERKS3_, @function
_ZN8opendnp314FunctorVisitorINS_7IndexedINS_17AnalogOutputInt32EEEZNS_18TypedCommandHeaderIS2_E19ApplySelectResponseERKNS_11ICollectionIS3_EEEUlS3_E_E7OnValueERKS3_:
.LFB2706:
	.cfi_startproc
	movq	16(%rdi), %rcx
	movq	8(%rdi), %r8
	movl	(%rsi), %r9d
	movzbl	4(%rsi), %r10d
	movl	(%rcx), %edx
	movzwl	8(%rsi), %esi
	movq	%rdx, %rax
	leaq	(%rdx,%rdx,2), %rdi
	movq	48(%r8), %rdx
	addl	$1, %eax
	leaq	(%rdx,%rdi,4), %rdx
	movl	%eax, (%rcx)
	cmpw	2(%rdx), %si
	jne	.L516
	cmpl	4(%rdx), %r9d
	je	.L518
	movb	$2, (%rdx)
	ret
	.p2align 4,,10
	.p2align 3
.L518:
	testb	%r10b, %r10b
	jne	.L520
	cmpb	$0, (%rdx)
	jne	.L516
	movb	$1, (%rdx)
.L516:
	ret
	.p2align 4,,10
	.p2align 3
.L520:
	movb	$3, (%rdx)
	movb	%r10b, 1(%rdx)
	ret
	.cfi_endproc
.LFE2706:
	.size	_ZN8opendnp314FunctorVisitorINS_7IndexedINS_17AnalogOutputInt32EEEZNS_18TypedCommandHeaderIS2_E19ApplySelectResponseERKNS_11ICollectionIS3_EEEUlS3_E_E7OnValueERKS3_, .-_ZN8opendnp314FunctorVisitorINS_7IndexedINS_17AnalogOutputInt32EEEZNS_18TypedCommandHeaderIS2_E19ApplySelectResponseERKNS_11ICollectionIS3_EEEUlS3_E_E7OnValueERKS3_
	.section	.text._ZN8opendnp314FunctorVisitorINS_7IndexedINS_17AnalogOutputInt16EEEZNS_18TypedCommandHeaderIS2_E19ApplySelectResponseERKNS_11ICollectionIS3_EEEUlS3_E_E7OnValueERKS3_,"axG",@progbits,_ZN8opendnp314FunctorVisitorINS_7IndexedINS_17AnalogOutputInt16EEEZNS_18TypedCommandHeaderIS2_E19ApplySelectResponseERKNS_11ICollectionIS3_EEEUlS3_E_E7OnValueERKS3_,comdat
	.align 2
	.p2align 4
	.weak	_ZN8opendnp314FunctorVisitorINS_7IndexedINS_17AnalogOutputInt16EEEZNS_18TypedCommandHeaderIS2_E19ApplySelectResponseERKNS_11ICollectionIS3_EEEUlS3_E_E7OnValueERKS3_
	.type	_ZN8opendnp314FunctorVisitorINS_7IndexedINS_17AnalogOutputInt16EEEZNS_18TypedCommandHeaderIS2_E19ApplySelectResponseERKNS_11ICollectionIS3_EEEUlS3_E_E7OnValueERKS3_, @function
_ZN8opendnp314FunctorVisitorINS_7IndexedINS_17AnalogOutputInt16EEEZNS_18TypedCommandHeaderIS2_E19ApplySelectResponseERKNS_11ICollectionIS3_EEEUlS3_E_E7OnValueERKS3_:
.LFB2708:
	.cfi_startproc
	movq	16(%rdi), %rcx
	movq	8(%rdi), %rdx
	movzwl	(%rsi), %r8d
	movzbl	2(%rsi), %r9d
	movl	(%rcx), %eax
	movq	48(%rdx), %rdx
	movzwl	4(%rsi), %esi
	movl	%eax, %edi
	addl	$1, %eax
	leaq	(%rdx,%rdi,8), %rdx
	movl	%eax, (%rcx)
	cmpw	2(%rdx), %si
	jne	.L521
	cmpw	4(%rdx), %r8w
	je	.L523
	movb	$2, (%rdx)
	ret
	.p2align 4,,10
	.p2align 3
.L523:
	testb	%r9b, %r9b
	jne	.L525
	cmpb	$0, (%rdx)
	jne	.L521
	movb	$1, (%rdx)
.L521:
	ret
	.p2align 4,,10
	.p2align 3
.L525:
	movb	$3, (%rdx)
	movb	%r9b, 1(%rdx)
	ret
	.cfi_endproc
.LFE2708:
	.size	_ZN8opendnp314FunctorVisitorINS_7IndexedINS_17AnalogOutputInt16EEEZNS_18TypedCommandHeaderIS2_E19ApplySelectResponseERKNS_11ICollectionIS3_EEEUlS3_E_E7OnValueERKS3_, .-_ZN8opendnp314FunctorVisitorINS_7IndexedINS_17AnalogOutputInt16EEEZNS_18TypedCommandHeaderIS2_E19ApplySelectResponseERKNS_11ICollectionIS3_EEEUlS3_E_E7OnValueERKS3_
	.section	.text._ZN8opendnp314FunctorVisitorINS_7IndexedINS_19AnalogOutputFloat32EEEZNS_18TypedCommandHeaderIS2_E19ApplySelectResponseERKNS_11ICollectionIS3_EEEUlS3_E_E7OnValueERKS3_,"axG",@progbits,_ZN8opendnp314FunctorVisitorINS_7IndexedINS_19AnalogOutputFloat32EEEZNS_18TypedCommandHeaderIS2_E19ApplySelectResponseERKNS_11ICollectionIS3_EEEUlS3_E_E7OnValueERKS3_,comdat
	.align 2
	.p2align 4
	.weak	_ZN8opendnp314FunctorVisitorINS_7IndexedINS_19AnalogOutputFloat32EEEZNS_18TypedCommandHeaderIS2_E19ApplySelectResponseERKNS_11ICollectionIS3_EEEUlS3_E_E7OnValueERKS3_
	.type	_ZN8opendnp314FunctorVisitorINS_7IndexedINS_19AnalogOutputFloat32EEEZNS_18TypedCommandHeaderIS2_E19ApplySelectResponseERKNS_11ICollectionIS3_EEEUlS3_E_E7OnValueERKS3_, @function
_ZN8opendnp314FunctorVisitorINS_7IndexedINS_19AnalogOutputFloat32EEEZNS_18TypedCommandHeaderIS2_E19ApplySelectResponseERKNS_11ICollectionIS3_EEEUlS3_E_E7OnValueERKS3_:
.LFB2710:
	.cfi_startproc
	movq	16(%rdi), %rcx
	movq	8(%rdi), %r8
	movss	(%rsi), %xmm0
	movzbl	4(%rsi), %r9d
	movl	(%rcx), %edx
	movzwl	8(%rsi), %esi
	movq	%rdx, %rax
	leaq	(%rdx,%rdx,2), %rdi
	movq	48(%r8), %rdx
	addl	$1, %eax
	leaq	(%rdx,%rdi,4), %rdx
	movl	%eax, (%rcx)
	cmpw	2(%rdx), %si
	jne	.L526
	ucomiss	4(%rdx), %xmm0
	jp	.L531
	jne	.L531
	testb	%r9b, %r9b
	jne	.L532
	cmpb	$0, (%rdx)
	jne	.L526
	movb	$1, (%rdx)
.L526:
	ret
	.p2align 4,,10
	.p2align 3
.L531:
	movb	$2, (%rdx)
	ret
	.p2align 4,,10
	.p2align 3
.L532:
	movb	$3, (%rdx)
	movb	%r9b, 1(%rdx)
	ret
	.cfi_endproc
.LFE2710:
	.size	_ZN8opendnp314FunctorVisitorINS_7IndexedINS_19AnalogOutputFloat32EEEZNS_18TypedCommandHeaderIS2_E19ApplySelectResponseERKNS_11ICollectionIS3_EEEUlS3_E_E7OnValueERKS3_, .-_ZN8opendnp314FunctorVisitorINS_7IndexedINS_19AnalogOutputFloat32EEEZNS_18TypedCommandHeaderIS2_E19ApplySelectResponseERKNS_11ICollectionIS3_EEEUlS3_E_E7OnValueERKS3_
	.section	.text._ZN8opendnp314FunctorVisitorINS_7IndexedINS_20AnalogOutputDouble64EEEZNS_18TypedCommandHeaderIS2_E19ApplySelectResponseERKNS_11ICollectionIS3_EEEUlS3_E_E7OnValueERKS3_,"axG",@progbits,_ZN8opendnp314FunctorVisitorINS_7IndexedINS_20AnalogOutputDouble64EEEZNS_18TypedCommandHeaderIS2_E19ApplySelectResponseERKNS_11ICollectionIS3_EEEUlS3_E_E7OnValueERKS3_,comdat
	.align 2
	.p2align 4
	.weak	_ZN8opendnp314FunctorVisitorINS_7IndexedINS_20AnalogOutputDouble64EEEZNS_18TypedCommandHeaderIS2_E19ApplySelectResponseERKNS_11ICollectionIS3_EEEUlS3_E_E7OnValueERKS3_
	.type	_ZN8opendnp314FunctorVisitorINS_7IndexedINS_20AnalogOutputDouble64EEEZNS_18TypedCommandHeaderIS2_E19ApplySelectResponseERKNS_11ICollectionIS3_EEEUlS3_E_E7OnValueERKS3_, @function
_ZN8opendnp314FunctorVisitorINS_7IndexedINS_20AnalogOutputDouble64EEEZNS_18TypedCommandHeaderIS2_E19ApplySelectResponseERKNS_11ICollectionIS3_EEEUlS3_E_E7OnValueERKS3_:
.LFB2712:
	.cfi_startproc
	movq	16(%rdi), %rcx
	movq	8(%rdi), %r8
	movsd	(%rsi), %xmm0
	movzbl	8(%rsi), %r9d
	movl	(%rcx), %edx
	movzwl	16(%rsi), %esi
	movq	%rdx, %rax
	leaq	(%rdx,%rdx,2), %rdi
	movq	48(%r8), %rdx
	addl	$1, %eax
	leaq	(%rdx,%rdi,8), %rdx
	movl	%eax, (%rcx)
	cmpw	2(%rdx), %si
	jne	.L533
	ucomisd	8(%rdx), %xmm0
	jp	.L538
	jne	.L538
	testb	%r9b, %r9b
	jne	.L539
	cmpb	$0, (%rdx)
	jne	.L533
	movb	$1, (%rdx)
.L533:
	ret
	.p2align 4,,10
	.p2align 3
.L538:
	movb	$2, (%rdx)
	ret
	.p2align 4,,10
	.p2align 3
.L539:
	movb	$3, (%rdx)
	movb	%r9b, 1(%rdx)
	ret
	.cfi_endproc
.LFE2712:
	.size	_ZN8opendnp314FunctorVisitorINS_7IndexedINS_20AnalogOutputDouble64EEEZNS_18TypedCommandHeaderIS2_E19ApplySelectResponseERKNS_11ICollectionIS3_EEEUlS3_E_E7OnValueERKS3_, .-_ZN8opendnp314FunctorVisitorINS_7IndexedINS_20AnalogOutputDouble64EEEZNS_18TypedCommandHeaderIS2_E19ApplySelectResponseERKNS_11ICollectionIS3_EEEUlS3_E_E7OnValueERKS3_
	.section	.text._ZN8opendnp318TypedCommandHeaderINS_20AnalogOutputDouble64EE3AddERKS1_t,"axG",@progbits,_ZN8opendnp318TypedCommandHeaderINS_20AnalogOutputDouble64EE3AddERKS1_t,comdat
	.p2align 4
	.weak	_ZThn8_N8opendnp318TypedCommandHeaderINS_20AnalogOutputDouble64EE3AddERKS1_t
	.type	_ZThn8_N8opendnp318TypedCommandHeaderINS_20AnalogOutputDouble64EE3AddERKS1_t, @function
_ZThn8_N8opendnp318TypedCommandHeaderINS_20AnalogOutputDouble64EE3AddERKS1_t:
.LFB2723:
	.cfi_startproc
	movsd	(%rsi), %xmm0
	movzbl	8(%rsi), %ecx
	movl	%edx, %r11d
	movq	%rdi, %r8
	movq	48(%rdi), %rdx
	movq	56(%rdi), %rsi
	cmpq	%rsi, %rdx
	je	.L541
	movl	$32512, %esi
	movb	%cl, 16(%rdx)
	addq	$24, %rdx
	movq	%rdi, %rax
	movw	%si, -24(%rdx)
	movw	%r11w, -22(%rdx)
	movsd	%xmm0, -16(%rdx)
	movq	%rdx, 48(%rdi)
	ret
	.p2align 4,,10
	.p2align 3
.L541:
	pushq	%r14
	.cfi_def_cfa_offset 16
	.cfi_offset 14, -16
	movq	%rdx, %rax
	pushq	%rbx
	.cfi_def_cfa_offset 24
	.cfi_offset 3, -24
	subq	$72, %rsp
	.cfi_def_cfa_offset 96
	movq	40(%rdi), %r9
	subq	%r9, %rax
	movq	%rax, %rdi
	movq	%rax, %rbx
	movabsq	$-6148914691236517205, %rax
	sarq	$3, %rdi
	imulq	%rax, %rdi
	movabsq	$384307168202282325, %rax
	cmpq	%rax, %rdi
	je	.L555
	testq	%rdi, %rdi
	movl	$1, %eax
	movl	%r11d, 60(%rsp)
	cmovne	%rdi, %rax
	movq	%r8, 48(%rsp)
	movq	%r9, 40(%rsp)
	addq	%rdi, %rax
	movq	%rsi, 32(%rsp)
	movabsq	$384307168202282325, %rdi
	cmpq	%rdi, %rax
	movq	%rdx, 24(%rsp)
	cmova	%rdi, %rax
	movb	%cl, 16(%rsp)
	movsd	%xmm0, 8(%rsp)
	leaq	(%rax,%rax,2), %rax
	leaq	0(,%rax,8), %rdi
	leaq	0(,%rax,8), %r14
	call	_Znwm@PLT
	movq	24(%rsp), %rdx
	movq	40(%rsp), %r9
	movl	60(%rsp), %r11d
	movsd	8(%rsp), %xmm0
	movq	%rax, %r10
	movl	$32512, %eax
	movzbl	16(%rsp), %ecx
	cmpq	%r9, %rdx
	movw	%ax, (%r10,%rbx)
	movq	32(%rsp), %rsi
	movw	%r11w, 2(%r10,%rbx)
	movb	%cl, 16(%r10,%rbx)
	movq	48(%rsp), %r8
	movsd	%xmm0, 8(%r10,%rbx)
	je	.L547
	movq	%r10, %rcx
	movq	%r9, %rax
	.p2align 5
	.p2align 4
	.p2align 3
.L545:
	movdqu	(%rax), %xmm0
	movq	16(%rax), %rdi
	addq	$24, %rax
	addq	$24, %rcx
	movups	%xmm0, -24(%rcx)
	movq	%rdi, -8(%rcx)
	cmpq	%rax, %rdx
	jne	.L545
	leaq	-24(%rdx), %rax
	movabsq	$768614336404564651, %rdx
	subq	%r9, %rax
	shrq	$3, %rax
	imulq	%rdx, %rax
	movabsq	$2305843009213693951, %rdx
	andq	%rdx, %rax
	leaq	3(%rax,%rax,2), %rax
	leaq	(%r10,%rax,8), %rax
.L544:
	addq	$24, %rax
	testq	%r9, %r9
	je	.L546
	subq	%r9, %rsi
	movq	%r9, %rdi
	movq	%r10, 24(%rsp)
	movq	%r8, 16(%rsp)
	movq	%rax, 8(%rsp)
	call	_ZdlPvm@PLT
	movq	24(%rsp), %r10
	movq	16(%rsp), %r8
	movq	8(%rsp), %rax
.L546:
	movq	%r10, 40(%r8)
	addq	%r14, %r10
	movq	%rax, 48(%r8)
	movq	%r8, %rax
	movq	%r10, 56(%r8)
	addq	$72, %rsp
	.cfi_remember_state
	.cfi_def_cfa_offset 24
	popq	%rbx
	.cfi_def_cfa_offset 16
	popq	%r14
	.cfi_def_cfa_offset 8
	ret
	.p2align 4,,10
	.p2align 3
.L547:
	.cfi_restore_state
	movq	%r10, %rax
	jmp	.L544
.L555:
	leaq	.LC1(%rip), %rdi
	call	_ZSt20__throw_length_errorPKc@PLT
	.cfi_endproc
.LFE2723:
	.size	_ZThn8_N8opendnp318TypedCommandHeaderINS_20AnalogOutputDouble64EE3AddERKS1_t, .-_ZThn8_N8opendnp318TypedCommandHeaderINS_20AnalogOutputDouble64EE3AddERKS1_t
	.section	.text._ZN8opendnp318TypedCommandHeaderINS_19AnalogOutputFloat32EE3AddERKS1_t,"axG",@progbits,_ZN8opendnp318TypedCommandHeaderINS_19AnalogOutputFloat32EE3AddERKS1_t,comdat
	.p2align 4
	.weak	_ZThn8_N8opendnp318TypedCommandHeaderINS_19AnalogOutputFloat32EE3AddERKS1_t
	.type	_ZThn8_N8opendnp318TypedCommandHeaderINS_19AnalogOutputFloat32EE3AddERKS1_t, @function
_ZThn8_N8opendnp318TypedCommandHeaderINS_19AnalogOutputFloat32EE3AddERKS1_t:
.LFB2724:
	.cfi_startproc
	movss	(%rsi), %xmm0
	movzbl	4(%rsi), %ecx
	movl	%edx, %r11d
	movq	%rdi, %r8
	movq	48(%rdi), %rdx
	movq	56(%rdi), %rsi
	cmpq	%rsi, %rdx
	je	.L557
	movl	$32512, %esi
	movb	%cl, 8(%rdx)
	addq	$12, %rdx
	movq	%rdi, %rax
	movw	%si, -12(%rdx)
	movw	%r11w, -10(%rdx)
	movss	%xmm0, -8(%rdx)
	movq	%rdx, 48(%rdi)
	ret
	.p2align 4,,10
	.p2align 3
.L557:
	pushq	%r14
	.cfi_def_cfa_offset 16
	.cfi_offset 14, -16
	movq	%rdx, %rax
	pushq	%rbx
	.cfi_def_cfa_offset 24
	.cfi_offset 3, -24
	subq	$72, %rsp
	.cfi_def_cfa_offset 96
	movq	40(%rdi), %r9
	subq	%r9, %rax
	movq	%rax, %rdi
	movq	%rax, %rbx
	movabsq	$-6148914691236517205, %rax
	sarq	$2, %rdi
	imulq	%rax, %rdi
	movabsq	$768614336404564650, %rax
	cmpq	%rax, %rdi
	je	.L571
	testq	%rdi, %rdi
	movl	$1, %eax
	movl	%r11d, 60(%rsp)
	cmovne	%rdi, %rax
	movq	%r8, 48(%rsp)
	movq	%r9, 40(%rsp)
	addq	%rdi, %rax
	movq	%rsi, 32(%rsp)
	movabsq	$768614336404564650, %rdi
	cmpq	%rdi, %rax
	movq	%rdx, 24(%rsp)
	cmova	%rdi, %rax
	movb	%cl, 16(%rsp)
	movss	%xmm0, 8(%rsp)
	leaq	(%rax,%rax,2), %rax
	leaq	0(,%rax,4), %rdi
	leaq	0(,%rax,4), %r14
	call	_Znwm@PLT
	movq	24(%rsp), %rdx
	movq	40(%rsp), %r9
	movl	60(%rsp), %r11d
	movss	8(%rsp), %xmm0
	movq	%rax, %r10
	movl	$32512, %eax
	movzbl	16(%rsp), %ecx
	cmpq	%r9, %rdx
	movw	%ax, (%r10,%rbx)
	movq	32(%rsp), %rsi
	movw	%r11w, 2(%r10,%rbx)
	movb	%cl, 8(%r10,%rbx)
	movq	48(%rsp), %r8
	movss	%xmm0, 4(%r10,%rbx)
	je	.L563
	movq	%r10, %rcx
	movq	%r9, %rax
	.p2align 5
	.p2align 4
	.p2align 3
.L561:
	movq	(%rax), %rdi
	addq	$12, %rax
	addq	$12, %rcx
	movq	%rdi, -12(%rcx)
	movl	-4(%rax), %edi
	movl	%edi, -4(%rcx)
	cmpq	%rax, %rdx
	jne	.L561
	leaq	-12(%rdx), %rax
	movabsq	$3074457345618258603, %rdx
	subq	%r9, %rax
	shrq	$2, %rax
	imulq	%rdx, %rax
	movabsq	$4611686018427387903, %rdx
	andq	%rdx, %rax
	leaq	3(%rax,%rax,2), %rax
	leaq	(%r10,%rax,4), %rax
.L560:
	addq	$12, %rax
	testq	%r9, %r9
	je	.L562
	subq	%r9, %rsi
	movq	%r9, %rdi
	movq	%r10, 24(%rsp)
	movq	%r8, 16(%rsp)
	movq	%rax, 8(%rsp)
	call	_ZdlPvm@PLT
	movq	24(%rsp), %r10
	movq	16(%rsp), %r8
	movq	8(%rsp), %rax
.L562:
	movq	%r10, 40(%r8)
	addq	%r14, %r10
	movq	%rax, 48(%r8)
	movq	%r8, %rax
	movq	%r10, 56(%r8)
	addq	$72, %rsp
	.cfi_remember_state
	.cfi_def_cfa_offset 24
	popq	%rbx
	.cfi_def_cfa_offset 16
	popq	%r14
	.cfi_def_cfa_offset 8
	ret
	.p2align 4,,10
	.p2align 3
.L563:
	.cfi_restore_state
	movq	%r10, %rax
	jmp	.L560
.L571:
	leaq	.LC1(%rip), %rdi
	call	_ZSt20__throw_length_errorPKc@PLT
	.cfi_endproc
.LFE2724:
	.size	_ZThn8_N8opendnp318TypedCommandHeaderINS_19AnalogOutputFloat32EE3AddERKS1_t, .-_ZThn8_N8opendnp318TypedCommandHeaderINS_19AnalogOutputFloat32EE3AddERKS1_t
	.section	.text._ZN8opendnp318TypedCommandHeaderINS_17AnalogOutputInt16EE3AddERKS1_t,"axG",@progbits,_ZN8opendnp318TypedCommandHeaderINS_17AnalogOutputInt16EE3AddERKS1_t,comdat
	.p2align 4
	.weak	_ZThn8_N8opendnp318TypedCommandHeaderINS_17AnalogOutputInt16EE3AddERKS1_t
	.type	_ZThn8_N8opendnp318TypedCommandHeaderINS_17AnalogOutputInt16EE3AddERKS1_t, @function
_ZThn8_N8opendnp318TypedCommandHeaderINS_17AnalogOutputInt16EE3AddERKS1_t:
.LFB2725:
	.cfi_startproc
	pushq	%r15
	.cfi_def_cfa_offset 16
	.cfi_offset 15, -16
	movq	%rdi, %rcx
	pushq	%r14
	.cfi_def_cfa_offset 24
	.cfi_offset 14, -24
	pushq	%rbx
	.cfi_def_cfa_offset 32
	.cfi_offset 3, -32
	movl	%edx, %ebx
	subq	$48, %rsp
	.cfi_def_cfa_offset 80
	movzwl	(%rsi), %r11d
	movzbl	2(%rsi), %r8d
	movq	48(%rdi), %rdx
	movq	56(%rdi), %rsi
	cmpq	%rsi, %rdx
	je	.L573
	movl	$32512, %esi
	movw	%bx, 2(%rdx)
	addq	$8, %rdx
	movq	%rcx, %rax
	movw	%si, -8(%rdx)
	movw	%r11w, -4(%rdx)
	movb	%r8b, -2(%rdx)
	movq	%rdx, 48(%rdi)
	addq	$48, %rsp
	.cfi_remember_state
	.cfi_def_cfa_offset 32
	popq	%rbx
	.cfi_def_cfa_offset 24
	popq	%r14
	.cfi_def_cfa_offset 16
	popq	%r15
	.cfi_def_cfa_offset 8
	ret
	.p2align 4,,10
	.p2align 3
.L573:
	.cfi_restore_state
	movq	40(%rdi), %r9
	movq	%rdx, %rax
	subq	%r9, %rax
	movq	%rax, %rdi
	movq	%rax, %r14
	movabsq	$1152921504606846975, %rax
	sarq	$3, %rdi
	cmpq	%rax, %rdi
	je	.L585
	testq	%rdi, %rdi
	movl	$1, %eax
	movq	%rcx, 40(%rsp)
	cmovne	%rdi, %rax
	movq	%r9, 32(%rsp)
	movq	%rsi, 24(%rsp)
	addq	%rdi, %rax
	movq	%rdx, 16(%rsp)
	movabsq	$1152921504606846975, %rdi
	cmpq	%rdi, %rax
	movb	%r8b, 8(%rsp)
	cmova	%rdi, %rax
	movl	%r11d, (%rsp)
	leaq	0(,%rax,8), %rdi
	leaq	0(,%rax,8), %r15
	call	_Znwm@PLT
	movq	16(%rsp), %rdx
	movq	32(%rsp), %r9
	movl	(%rsp), %r11d
	movzbl	8(%rsp), %r8d
	movq	%rax, %r10
	movl	$32512, %eax
	cmpq	%r9, %rdx
	movw	%ax, (%r10,%r14)
	movq	24(%rsp), %rsi
	movw	%bx, 2(%r10,%r14)
	movq	40(%rsp), %rcx
	movw	%r11w, 4(%r10,%r14)
	movb	%r8b, 6(%r10,%r14)
	je	.L579
	movq	%r10, %rdi
	movq	%r9, %rax
	.p2align 5
	.p2align 4
	.p2align 3
.L577:
	movq	(%rax), %r8
	addq	$8, %rax
	addq	$8, %rdi
	movq	%r8, -8(%rdi)
	cmpq	%rax, %rdx
	jne	.L577
	subq	%r9, %rdx
	addq	%r10, %rdx
.L576:
	leaq	8(%rdx), %rbx
	testq	%r9, %r9
	je	.L578
	subq	%r9, %rsi
	movq	%r9, %rdi
	movq	%r10, 8(%rsp)
	movq	%rcx, (%rsp)
	call	_ZdlPvm@PLT
	movq	8(%rsp), %r10
	movq	(%rsp), %rcx
.L578:
	movq	%r10, 40(%rcx)
	addq	%r15, %r10
	movq	%rcx, %rax
	movq	%rbx, 48(%rcx)
	movq	%r10, 56(%rcx)
	addq	$48, %rsp
	.cfi_remember_state
	.cfi_def_cfa_offset 32
	popq	%rbx
	.cfi_def_cfa_offset 24
	popq	%r14
	.cfi_def_cfa_offset 16
	popq	%r15
	.cfi_def_cfa_offset 8
	ret
	.p2align 4,,10
	.p2align 3
.L579:
	.cfi_restore_state
	movq	%r10, %rdx
	jmp	.L576
.L585:
	leaq	.LC1(%rip), %rdi
	call	_ZSt20__throw_length_errorPKc@PLT
	.cfi_endproc
.LFE2725:
	.size	_ZThn8_N8opendnp318TypedCommandHeaderINS_17AnalogOutputInt16EE3AddERKS1_t, .-_ZThn8_N8opendnp318TypedCommandHeaderINS_17AnalogOutputInt16EE3AddERKS1_t
	.section	.text._ZN8opendnp318TypedCommandHeaderINS_17AnalogOutputInt32EE3AddERKS1_t,"axG",@progbits,_ZN8opendnp318TypedCommandHeaderINS_17AnalogOutputInt32EE3AddERKS1_t,comdat
	.p2align 4
	.weak	_ZThn8_N8opendnp318TypedCommandHeaderINS_17AnalogOutputInt32EE3AddERKS1_t
	.type	_ZThn8_N8opendnp318TypedCommandHeaderINS_17AnalogOutputInt32EE3AddERKS1_t, @function
_ZThn8_N8opendnp318TypedCommandHeaderINS_17AnalogOutputInt32EE3AddERKS1_t:
.LFB2726:
	.cfi_startproc
	pushq	%r15
	.cfi_def_cfa_offset 16
	.cfi_offset 15, -16
	movq	%rdi, %r8
	pushq	%r14
	.cfi_def_cfa_offset 24
	.cfi_offset 14, -24
	pushq	%rbx
	.cfi_def_cfa_offset 32
	.cfi_offset 3, -32
	movl	%edx, %ebx
	subq	$48, %rsp
	.cfi_def_cfa_offset 80
	movl	(%rsi), %r11d
	movzbl	4(%rsi), %ecx
	movq	48(%rdi), %rdx
	movq	56(%rdi), %rsi
	cmpq	%rsi, %rdx
	je	.L587
	movl	$32512, %esi
	movw	%bx, 2(%rdx)
	addq	$12, %rdx
	movq	%r8, %rax
	movw	%si, -12(%rdx)
	movl	%r11d, -8(%rdx)
	movb	%cl, -4(%rdx)
	movq	%rdx, 48(%rdi)
	addq	$48, %rsp
	.cfi_remember_state
	.cfi_def_cfa_offset 32
	popq	%rbx
	.cfi_def_cfa_offset 24
	popq	%r14
	.cfi_def_cfa_offset 16
	popq	%r15
	.cfi_def_cfa_offset 8
	ret
	.p2align 4,,10
	.p2align 3
.L587:
	.cfi_restore_state
	movq	40(%rdi), %r9
	movq	%rdx, %rax
	subq	%r9, %rax
	movq	%rax, %rdi
	movq	%rax, %r14
	movabsq	$-6148914691236517205, %rax
	sarq	$2, %rdi
	imulq	%rax, %rdi
	movabsq	$768614336404564650, %rax
	cmpq	%rax, %rdi
	je	.L599
	testq	%rdi, %rdi
	movl	$1, %eax
	movq	%r8, 40(%rsp)
	cmovne	%rdi, %rax
	movq	%r9, 32(%rsp)
	movq	%rsi, 24(%rsp)
	addq	%rdi, %rax
	movq	%rdx, 16(%rsp)
	movabsq	$768614336404564650, %rdi
	cmpq	%rdi, %rax
	movb	%cl, 8(%rsp)
	cmova	%rdi, %rax
	movl	%r11d, (%rsp)
	leaq	(%rax,%rax,2), %rax
	leaq	0(,%rax,4), %rdi
	leaq	0(,%rax,4), %r15
	call	_Znwm@PLT
	movq	16(%rsp), %rdx
	movq	32(%rsp), %r9
	movl	(%rsp), %r11d
	movzbl	8(%rsp), %ecx
	movq	%rax, %r10
	movl	$32512, %eax
	cmpq	%r9, %rdx
	movw	%ax, (%r10,%r14)
	movq	24(%rsp), %rsi
	movw	%bx, 2(%r10,%r14)
	movq	40(%rsp), %r8
	movl	%r11d, 4(%r10,%r14)
	movb	%cl, 8(%r10,%r14)
	je	.L593
	movq	%r10, %rcx
	movq	%r9, %rax
	.p2align 5
	.p2align 4
	.p2align 3
.L591:
	movq	(%rax), %rdi
	addq	$12, %rax
	addq	$12, %rcx
	movq	%rdi, -12(%rcx)
	movl	-4(%rax), %edi
	movl	%edi, -4(%rcx)
	cmpq	%rax, %rdx
	jne	.L591
	leaq	-12(%rdx), %rax
	movabsq	$3074457345618258603, %rdx
	subq	%r9, %rax
	shrq	$2, %rax
	imulq	%rdx, %rax
	movabsq	$4611686018427387903, %rdx
	andq	%rdx, %rax
	leaq	3(%rax,%rax,2), %rax
	leaq	(%r10,%rax,4), %rbx
.L590:
	addq	$12, %rbx
	testq	%r9, %r9
	je	.L592
	subq	%r9, %rsi
	movq	%r9, %rdi
	movq	%r10, 8(%rsp)
	movq	%r8, (%rsp)
	call	_ZdlPvm@PLT
	movq	8(%rsp), %r10
	movq	(%rsp), %r8
.L592:
	movq	%r10, 40(%r8)
	addq	%r15, %r10
	movq	%r8, %rax
	movq	%rbx, 48(%r8)
	movq	%r10, 56(%r8)
	addq	$48, %rsp
	.cfi_remember_state
	.cfi_def_cfa_offset 32
	popq	%rbx
	.cfi_def_cfa_offset 24
	popq	%r14
	.cfi_def_cfa_offset 16
	popq	%r15
	.cfi_def_cfa_offset 8
	ret
	.p2align 4,,10
	.p2align 3
.L593:
	.cfi_restore_state
	movq	%r10, %rbx
	jmp	.L590
.L599:
	leaq	.LC1(%rip), %rdi
	call	_ZSt20__throw_length_errorPKc@PLT
	.cfi_endproc
.LFE2726:
	.size	_ZThn8_N8opendnp318TypedCommandHeaderINS_17AnalogOutputInt32EE3AddERKS1_t, .-_ZThn8_N8opendnp318TypedCommandHeaderINS_17AnalogOutputInt32EE3AddERKS1_t
	.section	.text._ZN8opendnp318TypedCommandHeaderINS_23ControlRelayOutputBlockEE3AddERKS1_t,"axG",@progbits,_ZN8opendnp318TypedCommandHeaderINS_23ControlRelayOutputBlockEE3AddERKS1_t,comdat
	.p2align 4
	.weak	_ZThn8_N8opendnp318TypedCommandHeaderINS_23ControlRelayOutputBlockEE3AddERKS1_t
	.type	_ZThn8_N8opendnp318TypedCommandHeaderINS_23ControlRelayOutputBlockEE3AddERKS1_t, @function
_ZThn8_N8opendnp318TypedCommandHeaderINS_23ControlRelayOutputBlockEE3AddERKS1_t:
.LFB2727:
	.cfi_startproc
	pushq	%r15
	.cfi_def_cfa_offset 16
	.cfi_offset 15, -16
	movq	%rdi, %r8
	pushq	%r14
	.cfi_def_cfa_offset 24
	.cfi_offset 14, -24
	pushq	%r12
	.cfi_def_cfa_offset 32
	.cfi_offset 12, -32
	movl	%edx, %r12d
	pushq	%rbp
	.cfi_def_cfa_offset 40
	.cfi_offset 6, -40
	pushq	%rbx
	.cfi_def_cfa_offset 48
	.cfi_offset 3, -48
	subq	$48, %rsp
	.cfi_def_cfa_offset 96
	movzwl	(%rsi), %ebp
	movzbl	2(%rsi), %ebx
	movq	4(%rsi), %r11
	movzbl	12(%rsi), %ecx
	movq	48(%rdi), %rdx
	movq	56(%rdi), %rsi
	cmpq	%rsi, %rdx
	je	.L601
	movl	$32512, %esi
	movw	%bp, 4(%rdx)
	addq	$20, %rdx
	movq	%r8, %rax
	movw	%si, -20(%rdx)
	movw	%r12w, -18(%rdx)
	movb	%bl, -14(%rdx)
	movq	%r11, -12(%rdx)
	movb	%cl, -4(%rdx)
	movq	%rdx, 48(%rdi)
	addq	$48, %rsp
	.cfi_remember_state
	.cfi_def_cfa_offset 48
	popq	%rbx
	.cfi_def_cfa_offset 40
	popq	%rbp
	.cfi_def_cfa_offset 32
	popq	%r12
	.cfi_def_cfa_offset 24
	popq	%r14
	.cfi_def_cfa_offset 16
	popq	%r15
	.cfi_def_cfa_offset 8
	ret
	.p2align 4,,10
	.p2align 3
.L601:
	.cfi_restore_state
	movq	40(%rdi), %r9
	movq	%rdx, %rax
	subq	%r9, %rax
	movq	%rax, %rdi
	movq	%rax, %r14
	movabsq	$-3689348814741910323, %rax
	sarq	$2, %rdi
	imulq	%rax, %rdi
	movabsq	$461168601842738790, %rax
	cmpq	%rax, %rdi
	je	.L613
	testq	%rdi, %rdi
	movl	$1, %eax
	movq	%r8, 40(%rsp)
	cmovne	%rdi, %rax
	movq	%r11, 32(%rsp)
	movq	%r9, 24(%rsp)
	addq	%rdi, %rax
	movq	%rsi, 16(%rsp)
	movabsq	$461168601842738790, %rdi
	cmpq	%rdi, %rax
	movq	%rdx, 8(%rsp)
	cmova	%rdi, %rax
	movb	%cl, (%rsp)
	leaq	(%rax,%rax,4), %rax
	leaq	0(,%rax,4), %rdi
	leaq	0(,%rax,4), %r15
	call	_Znwm@PLT
	movq	8(%rsp), %rdx
	movq	24(%rsp), %r9
	movq	32(%rsp), %r11
	movzbl	(%rsp), %ecx
	movq	%rax, %r10
	movl	$32512, %eax
	cmpq	%r9, %rdx
	movw	%ax, (%r10,%r14)
	movq	16(%rsp), %rsi
	movw	%r12w, 2(%r10,%r14)
	movq	40(%rsp), %r8
	movw	%bp, 4(%r10,%r14)
	movb	%bl, 6(%r10,%r14)
	movq	%r11, 8(%r10,%r14)
	movb	%cl, 16(%r10,%r14)
	je	.L607
	movq	%r10, %rcx
	movq	%r9, %rax
	.p2align 5
	.p2align 4
	.p2align 3
.L605:
	movdqu	(%rax), %xmm0
	movl	16(%rax), %edi
	addq	$20, %rax
	addq	$20, %rcx
	movups	%xmm0, -20(%rcx)
	movl	%edi, -4(%rcx)
	cmpq	%rax, %rdx
	jne	.L605
	leaq	-20(%rdx), %rax
	movabsq	$922337203685477581, %rdx
	subq	%r9, %rax
	shrq	$2, %rax
	imulq	%rdx, %rax
	movabsq	$4611686018427387903, %rdx
	andq	%rdx, %rax
	leaq	5(%rax,%rax,4), %rax
	leaq	(%r10,%rax,4), %rbx
.L604:
	addq	$20, %rbx
	testq	%r9, %r9
	je	.L606
	subq	%r9, %rsi
	movq	%r9, %rdi
	movq	%r10, 8(%rsp)
	movq	%r8, (%rsp)
	call	_ZdlPvm@PLT
	movq	8(%rsp), %r10
	movq	(%rsp), %r8
.L606:
	movq	%r10, 40(%r8)
	addq	%r15, %r10
	movq	%r8, %rax
	movq	%rbx, 48(%r8)
	movq	%r10, 56(%r8)
	addq	$48, %rsp
	.cfi_remember_state
	.cfi_def_cfa_offset 48
	popq	%rbx
	.cfi_def_cfa_offset 40
	popq	%rbp
	.cfi_def_cfa_offset 32
	popq	%r12
	.cfi_def_cfa_offset 24
	popq	%r14
	.cfi_def_cfa_offset 16
	popq	%r15
	.cfi_def_cfa_offset 8
	ret
	.p2align 4,,10
	.p2align 3
.L607:
	.cfi_restore_state
	movq	%r10, %rbx
	jmp	.L604
.L613:
	leaq	.LC1(%rip), %rdi
	call	_ZSt20__throw_length_errorPKc@PLT
	.cfi_endproc
.LFE2727:
	.size	_ZThn8_N8opendnp318TypedCommandHeaderINS_23ControlRelayOutputBlockEE3AddERKS1_t, .-_ZThn8_N8opendnp318TypedCommandHeaderINS_23ControlRelayOutputBlockEE3AddERKS1_t
	.text
	.align 2
	.p2align 4
	.globl	_ZN8opendnp310CommandSetC2EOS0_
	.type	_ZN8opendnp310CommandSetC2EOS0_, @function
_ZN8opendnp310CommandSetC2EOS0_:
.LFB1502:
	.cfi_startproc
	movdqu	(%rsi), %xmm0
	movq	16(%rsi), %rax
	movq	$0, 16(%rsi)
	movups	%xmm0, (%rdi)
	pxor	%xmm0, %xmm0
	movq	%rax, 16(%rdi)
	movups	%xmm0, (%rsi)
	ret
	.cfi_endproc
.LFE1502:
	.size	_ZN8opendnp310CommandSetC2EOS0_, .-_ZN8opendnp310CommandSetC2EOS0_
	.globl	_ZN8opendnp310CommandSetC1EOS0_
	.set	_ZN8opendnp310CommandSetC1EOS0_,_ZN8opendnp310CommandSetC2EOS0_
	.align 2
	.p2align 4
	.globl	_ZN8opendnp310CommandSetD2Ev
	.type	_ZN8opendnp310CommandSetD2Ev, @function
_ZN8opendnp310CommandSetD2Ev:
.LFB1509:
	.cfi_startproc
	pushq	%r12
	.cfi_def_cfa_offset 16
	.cfi_offset 12, -16
	movq	%rdi, %r12
	pushq	%rbp
	.cfi_def_cfa_offset 24
	.cfi_offset 6, -24
	pushq	%rbx
	.cfi_def_cfa_offset 32
	.cfi_offset 3, -32
	movq	(%rdi), %rbx
	movq	8(%rdi), %rbp
	cmpq	%rbx, %rbp
	je	.L616
	.p2align 4
	.p2align 3
.L618:
	movq	(%rbx), %rdi
	testq	%rdi, %rdi
	je	.L617
	movq	(%rdi), %rax
	call	*24(%rax)
.L617:
	addq	$8, %rbx
	cmpq	%rbx, %rbp
	jne	.L618
	movq	(%r12), %rbx
.L616:
	testq	%rbx, %rbx
	je	.L615
	movq	16(%r12), %rsi
	movq	%rbx, %rdi
	subq	%rbx, %rsi
	popq	%rbx
	.cfi_remember_state
	.cfi_def_cfa_offset 24
	popq	%rbp
	.cfi_def_cfa_offset 16
	popq	%r12
	.cfi_def_cfa_offset 8
	jmp	_ZdlPvm@PLT
	.p2align 4,,10
	.p2align 3
.L615:
	.cfi_restore_state
	popq	%rbx
	.cfi_def_cfa_offset 24
	popq	%rbp
	.cfi_def_cfa_offset 16
	popq	%r12
	.cfi_def_cfa_offset 8
	ret
	.cfi_endproc
.LFE1509:
	.size	_ZN8opendnp310CommandSetD2Ev, .-_ZN8opendnp310CommandSetD2Ev
	.globl	_ZN8opendnp310CommandSetD1Ev
	.set	_ZN8opendnp310CommandSetD1Ev,_ZN8opendnp310CommandSetD2Ev
	.section	.text._ZNSt6vectorIPN8opendnp314ICommandHeaderESaIS2_EE17_M_realloc_appendIJS2_EEEvDpOT_,"axG",@progbits,_ZNSt6vectorIPN8opendnp314ICommandHeaderESaIS2_EE17_M_realloc_appendIJS2_EEEvDpOT_,comdat
	.align 2
	.p2align 4
	.weak	_ZNSt6vectorIPN8opendnp314ICommandHeaderESaIS2_EE17_M_realloc_appendIJS2_EEEvDpOT_
	.type	_ZNSt6vectorIPN8opendnp314ICommandHeaderESaIS2_EE17_M_realloc_appendIJS2_EEEvDpOT_, @function
_ZNSt6vectorIPN8opendnp314ICommandHeaderESaIS2_EE17_M_realloc_appendIJS2_EEEvDpOT_:
.LFB1797:
	.cfi_startproc
	movabsq	$1152921504606846975, %rax
	pushq	%r15
	.cfi_def_cfa_offset 16
	.cfi_offset 15, -16
	pushq	%r14
	.cfi_def_cfa_offset 24
	.cfi_offset 14, -24
	pushq	%r13
	.cfi_def_cfa_offset 32
	.cfi_offset 13, -32
	pushq	%r12
	.cfi_def_cfa_offset 40
	.cfi_offset 12, -40
	pushq	%rbp
	.cfi_def_cfa_offset 48
	.cfi_offset 6, -48
	pushq	%rbx
	.cfi_def_cfa_offset 56
	.cfi_offset 3, -56
	subq	$8, %rsp
	.cfi_def_cfa_offset 64
	movq	(%rdi), %r14
	movq	8(%rdi), %r12
	subq	%r14, %r12
	movq	%r12, %rdx
	sarq	$3, %rdx
	cmpq	%rax, %rdx
	je	.L636
	testq	%rdx, %rdx
	movl	$1, %eax
	movq	%rdi, %r13
	movq	%rsi, %r15
	cmovne	%rdx, %rax
	addq	%rdx, %rax
	movabsq	$1152921504606846975, %rdx
	cmpq	%rdx, %rax
	cmova	%rdx, %rax
	leaq	0(,%rax,8), %rbx
	movq	%rbx, %rdi
	call	_Znwm@PLT
	movq	%rax, %rbp
	movq	(%r15), %rax
	movq	%rax, 0(%rbp,%r12)
	testq	%r12, %r12
	je	.L627
	movq	%r12, %rdx
	movq	%r14, %rsi
	movq	%rbp, %rdi
	call	memcpy@PLT
.L627:
	leaq	8(%rbp,%r12), %r12
	testq	%r14, %r14
	je	.L628
	movq	16(%r13), %rsi
	movq	%r14, %rdi
	subq	%r14, %rsi
	call	_ZdlPvm@PLT
.L628:
	movq	%rbp, 0(%r13)
	addq	%rbx, %rbp
	movq	%r12, 8(%r13)
	movq	%rbp, 16(%r13)
	addq	$8, %rsp
	.cfi_remember_state
	.cfi_def_cfa_offset 56
	popq	%rbx
	.cfi_def_cfa_offset 48
	popq	%rbp
	.cfi_def_cfa_offset 40
	popq	%r12
	.cfi_def_cfa_offset 32
	popq	%r13
	.cfi_def_cfa_offset 24
	popq	%r14
	.cfi_def_cfa_offset 16
	popq	%r15
	.cfi_def_cfa_offset 8
	ret
.L636:
	.cfi_restore_state
	leaq	.LC1(%rip), %rdi
	call	_ZSt20__throw_length_errorPKc@PLT
	.cfi_endproc
.LFE1797:
	.size	_ZNSt6vectorIPN8opendnp314ICommandHeaderESaIS2_EE17_M_realloc_appendIJS2_EEEvDpOT_, .-_ZNSt6vectorIPN8opendnp314ICommandHeaderESaIS2_EE17_M_realloc_appendIJS2_EEEvDpOT_
	.text
	.align 2
	.p2align 4
	.globl	_ZN8opendnp310CommandSet15StartHeaderCROBEv
	.type	_ZN8opendnp310CommandSet15StartHeaderCROBEv, @function
_ZN8opendnp310CommandSet15StartHeaderCROBEv:
.LFB1526:
	.cfi_startproc
	pushq	%rbx
	.cfi_def_cfa_offset 16
	.cfi_offset 3, -16
	movq	%rdi, %rbx
	movl	$72, %edi
	subq	$48, %rsp
	.cfi_def_cfa_offset 64
	movq	_ZTVN8opendnp318TypedCommandHeaderINS_23ControlRelayOutputBlockEEE@GOTPCREL(%rip), %rax
	movq	_ZN8opendnp311Group12Var110ReadTargetERN7openpal6RSliceERNS_23ControlRelayOutputBlockE@GOTPCREL(%rip), %xmm0
	movhps	_ZN8opendnp311Group12Var111WriteTargetERKNS_23ControlRelayOutputBlockERN7openpal6WSliceE@GOTPCREL(%rip), %xmm0
	movaps	%xmm0, 16(%rsp)
	leaq	168(%rax), %rdx
	addq	$16, %rax
	movq	%rdx, %xmm2
	movq	%rax, %xmm1
	punpcklqdq	%xmm2, %xmm1
	movaps	%xmm1, (%rsp)
	call	_Znwm@PLT
	movdqa	16(%rsp), %xmm0
	movdqa	(%rsp), %xmm1
	movl	$268, %edx
	movw	%dx, 40(%rax)
	movq	8(%rbx), %rdx
	movups	%xmm0, 24(%rax)
	pxor	%xmm0, %xmm0
	movl	$11, 16(%rax)
	movq	$0, 64(%rax)
	movq	%rax, 40(%rsp)
	movups	%xmm1, (%rax)
	movups	%xmm0, 48(%rax)
	cmpq	16(%rbx), %rdx
	je	.L638
	movq	%rax, (%rdx)
	addq	$8, %rdx
	addq	$8, %rax
	movq	%rdx, 8(%rbx)
	addq	$48, %rsp
	.cfi_remember_state
	.cfi_def_cfa_offset 16
	popq	%rbx
	.cfi_def_cfa_offset 8
	ret
	.p2align 4,,10
	.p2align 3
.L638:
	.cfi_restore_state
	leaq	40(%rsp), %rsi
	movq	%rbx, %rdi
	movq	%rax, (%rsp)
	call	_ZNSt6vectorIPN8opendnp314ICommandHeaderESaIS2_EE17_M_realloc_appendIJS2_EEEvDpOT_@PLT
	movq	(%rsp), %rax
	addq	$48, %rsp
	.cfi_def_cfa_offset 16
	popq	%rbx
	.cfi_def_cfa_offset 8
	addq	$8, %rax
	ret
	.cfi_endproc
.LFE1526:
	.size	_ZN8opendnp310CommandSet15StartHeaderCROBEv, .-_ZN8opendnp310CommandSet15StartHeaderCROBEv
	.section	.text.unlikely,"ax",@progbits
	.align 2
.LCOLDB4:
	.text
.LHOTB4:
	.align 2
	.p2align 4
	.globl	_ZN8opendnp310CommandSetC2ESt16initializer_listINS_7IndexedINS_23ControlRelayOutputBlockEEEE
	.type	_ZN8opendnp310CommandSetC2ESt16initializer_listINS_7IndexedINS_23ControlRelayOutputBlockEEEE, @function
_ZN8opendnp310CommandSetC2ESt16initializer_listINS_7IndexedINS_23ControlRelayOutputBlockEEEE:
.LFB1512:
	.cfi_startproc
	.cfi_personality 0x9b,DW.ref.__gxx_personality_v0
	.cfi_lsda 0x1b,.LLSDA1512
	pxor	%xmm0, %xmm0
	movq	$0, 16(%rdi)
	movups	%xmm0, (%rdi)
	testq	%rdx, %rdx
	jne	.L658
	ret
	.p2align 4,,10
	.p2align 3
.L658:
	pushq	%r14
	.cfi_def_cfa_offset 16
	.cfi_offset 14, -16
	movq	%rdi, %r14
	pushq	%r12
	.cfi_def_cfa_offset 24
	.cfi_offset 12, -24
	movq	%rdx, %r12
	pushq	%rbp
	.cfi_def_cfa_offset 32
	.cfi_offset 6, -32
	pushq	%rbx
	.cfi_def_cfa_offset 40
	.cfi_offset 3, -40
	movq	%rsi, %rbx
	subq	$24, %rsp
	.cfi_def_cfa_offset 64
	movq	%rsi, 8(%rsp)
.LEHB15:
	call	_ZN8opendnp310CommandSet15StartHeaderCROBEv@PLT
	movq	8(%rsp), %rsi
	movq	%rax, %rbp
	leaq	(%r12,%r12,4), %rax
	leaq	(%rsi,%rax,4), %r12
	cmpq	%rsi, %r12
	je	.L641
	.p2align 4
	.p2align 3
.L643:
	movq	0(%rbp), %rax
	movzwl	16(%rbx), %edx
	movq	%rbx, %rsi
	movq	%rbp, %rdi
	call	*(%rax)
.LEHE15:
	addq	$20, %rbx
	cmpq	%rbx, %r12
	jne	.L643
.L641:
	addq	$24, %rsp
	.cfi_remember_state
	.cfi_def_cfa_offset 40
	popq	%rbx
	.cfi_def_cfa_offset 32
	popq	%rbp
	.cfi_def_cfa_offset 24
	popq	%r12
	.cfi_def_cfa_offset 16
	popq	%r14
	.cfi_def_cfa_offset 8
	ret
.L646:
	.cfi_restore_state
	movq	%rax, %rbx
	jmp	.L644
	.section	.gcc_except_table,"a",@progbits
.LLSDA1512:
	.byte	0xff
	.byte	0xff
	.byte	0x1
	.uleb128 .LLSDACSE1512-.LLSDACSB1512
.LLSDACSB1512:
	.uleb128 .LEHB15-.LFB1512
	.uleb128 .LEHE15-.LEHB15
	.uleb128 .L646-.LFB1512
	.uleb128 0
.LLSDACSE1512:
	.text
	.cfi_endproc
	.section	.text.unlikely
	.cfi_startproc
	.cfi_personality 0x9b,DW.ref.__gxx_personality_v0
	.cfi_lsda 0x1b,.LLSDAC1512
	.type	_ZN8opendnp310CommandSetC2ESt16initializer_listINS_7IndexedINS_23ControlRelayOutputBlockEEEE.cold, @function
_ZN8opendnp310CommandSetC2ESt16initializer_listINS_7IndexedINS_23ControlRelayOutputBlockEEEE.cold:
.LFSB1512:
.L644:
	.cfi_def_cfa_offset 64
	.cfi_offset 3, -40
	.cfi_offset 6, -32
	.cfi_offset 12, -24
	.cfi_offset 14, -16
	movq	(%r14), %rdi
	testq	%rdi, %rdi
	je	.L645
	movq	16(%r14), %rsi
	subq	%rdi, %rsi
	call	_ZdlPvm@PLT
.L645:
	movq	%rbx, %rdi
.LEHB16:
	call	_Unwind_Resume@PLT
.LEHE16:
	.cfi_endproc
.LFE1512:
	.section	.gcc_except_table
.LLSDAC1512:
	.byte	0xff
	.byte	0xff
	.byte	0x1
	.uleb128 .LLSDACSEC1512-.LLSDACSBC1512
.LLSDACSBC1512:
	.uleb128 .LEHB16-.LCOLDB4
	.uleb128 .LEHE16-.LEHB16
	.uleb128 0
	.uleb128 0
.LLSDACSEC1512:
	.section	.text.unlikely
	.text
	.size	_ZN8opendnp310CommandSetC2ESt16initializer_listINS_7IndexedINS_23ControlRelayOutputBlockEEEE, .-_ZN8opendnp310CommandSetC2ESt16initializer_listINS_7IndexedINS_23ControlRelayOutputBlockEEEE
	.section	.text.unlikely
	.size	_ZN8opendnp310CommandSetC2ESt16initializer_listINS_7IndexedINS_23ControlRelayOutputBlockEEEE.cold, .-_ZN8opendnp310CommandSetC2ESt16initializer_listINS_7IndexedINS_23ControlRelayOutputBlockEEEE.cold
.LCOLDE4:
	.text
.LHOTE4:
	.globl	_ZN8opendnp310CommandSetC1ESt16initializer_listINS_7IndexedINS_23ControlRelayOutputBlockEEEE
	.set	_ZN8opendnp310CommandSetC1ESt16initializer_listINS_7IndexedINS_23ControlRelayOutputBlockEEEE,_ZN8opendnp310CommandSetC2ESt16initializer_listINS_7IndexedINS_23ControlRelayOutputBlockEEEE
	.align 2
	.p2align 4
	.globl	_ZN8opendnp310CommandSet18StartHeaderAOInt32Ev
	.type	_ZN8opendnp310CommandSet18StartHeaderAOInt32Ev, @function
_ZN8opendnp310CommandSet18StartHeaderAOInt32Ev:
.LFB1527:
	.cfi_startproc
	pushq	%rbx
	.cfi_def_cfa_offset 16
	.cfi_offset 3, -16
	movq	%rdi, %rbx
	movl	$72, %edi
	subq	$48, %rsp
	.cfi_def_cfa_offset 64
	movq	_ZTVN8opendnp318TypedCommandHeaderINS_17AnalogOutputInt32EEE@GOTPCREL(%rip), %rax
	movq	_ZN8opendnp311Group41Var110ReadTargetERN7openpal6RSliceERNS_17AnalogOutputInt32E@GOTPCREL(%rip), %xmm0
	movhps	_ZN8opendnp311Group41Var111WriteTargetERKNS_17AnalogOutputInt32ERN7openpal6WSliceE@GOTPCREL(%rip), %xmm0
	movaps	%xmm0, 16(%rsp)
	leaq	168(%rax), %rdx
	addq	$16, %rax
	movq	%rdx, %xmm2
	movq	%rax, %xmm1
	punpcklqdq	%xmm2, %xmm1
	movaps	%xmm1, (%rsp)
	call	_Znwm@PLT
	movdqa	16(%rsp), %xmm0
	movdqa	(%rsp), %xmm1
	movl	$297, %edx
	movw	%dx, 40(%rax)
	movq	8(%rbx), %rdx
	movups	%xmm0, 24(%rax)
	pxor	%xmm0, %xmm0
	movl	$5, 16(%rax)
	movq	$0, 64(%rax)
	movq	%rax, 40(%rsp)
	movups	%xmm1, (%rax)
	movups	%xmm0, 48(%rax)
	cmpq	16(%rbx), %rdx
	je	.L660
	movq	%rax, (%rdx)
	addq	$8, %rdx
	addq	$8, %rax
	movq	%rdx, 8(%rbx)
	addq	$48, %rsp
	.cfi_remember_state
	.cfi_def_cfa_offset 16
	popq	%rbx
	.cfi_def_cfa_offset 8
	ret
	.p2align 4,,10
	.p2align 3
.L660:
	.cfi_restore_state
	leaq	40(%rsp), %rsi
	movq	%rbx, %rdi
	movq	%rax, (%rsp)
	call	_ZNSt6vectorIPN8opendnp314ICommandHeaderESaIS2_EE17_M_realloc_appendIJS2_EEEvDpOT_@PLT
	movq	(%rsp), %rax
	addq	$48, %rsp
	.cfi_def_cfa_offset 16
	popq	%rbx
	.cfi_def_cfa_offset 8
	addq	$8, %rax
	ret
	.cfi_endproc
.LFE1527:
	.size	_ZN8opendnp310CommandSet18StartHeaderAOInt32Ev, .-_ZN8opendnp310CommandSet18StartHeaderAOInt32Ev
	.section	.text.unlikely
	.align 2
.LCOLDB6:
	.text
.LHOTB6:
	.align 2
	.p2align 4
	.globl	_ZN8opendnp310CommandSetC2ESt16initializer_listINS_7IndexedINS_17AnalogOutputInt32EEEE
	.type	_ZN8opendnp310CommandSetC2ESt16initializer_listINS_7IndexedINS_17AnalogOutputInt32EEEE, @function
_ZN8opendnp310CommandSetC2ESt16initializer_listINS_7IndexedINS_17AnalogOutputInt32EEEE:
.LFB1518:
	.cfi_startproc
	.cfi_personality 0x9b,DW.ref.__gxx_personality_v0
	.cfi_lsda 0x1b,.LLSDA1518
	pxor	%xmm0, %xmm0
	movq	$0, 16(%rdi)
	movups	%xmm0, (%rdi)
	testq	%rdx, %rdx
	jne	.L680
	ret
	.p2align 4,,10
	.p2align 3
.L680:
	pushq	%r14
	.cfi_def_cfa_offset 16
	.cfi_offset 14, -16
	movq	%rdi, %r14
	pushq	%r12
	.cfi_def_cfa_offset 24
	.cfi_offset 12, -24
	movq	%rdx, %r12
	pushq	%rbp
	.cfi_def_cfa_offset 32
	.cfi_offset 6, -32
	pushq	%rbx
	.cfi_def_cfa_offset 40
	.cfi_offset 3, -40
	movq	%rsi, %rbx
	subq	$24, %rsp
	.cfi_def_cfa_offset 64
	movq	%rsi, 8(%rsp)
.LEHB17:
	call	_ZN8opendnp310CommandSet18StartHeaderAOInt32Ev@PLT
	movq	8(%rsp), %rsi
	movq	%rax, %rbp
	leaq	(%r12,%r12,2), %rax
	leaq	(%rsi,%rax,4), %r12
	cmpq	%rsi, %r12
	je	.L663
	.p2align 4
	.p2align 3
.L665:
	movq	0(%rbp), %rax
	movzwl	8(%rbx), %edx
	movq	%rbx, %rsi
	movq	%rbp, %rdi
	call	*(%rax)
.LEHE17:
	addq	$12, %rbx
	cmpq	%rbx, %r12
	jne	.L665
.L663:
	addq	$24, %rsp
	.cfi_remember_state
	.cfi_def_cfa_offset 40
	popq	%rbx
	.cfi_def_cfa_offset 32
	popq	%rbp
	.cfi_def_cfa_offset 24
	popq	%r12
	.cfi_def_cfa_offset 16
	popq	%r14
	.cfi_def_cfa_offset 8
	ret
.L668:
	.cfi_restore_state
	movq	%rax, %rbx
	jmp	.L666
	.section	.gcc_except_table
.LLSDA1518:
	.byte	0xff
	.byte	0xff
	.byte	0x1
	.uleb128 .LLSDACSE1518-.LLSDACSB1518
.LLSDACSB1518:
	.uleb128 .LEHB17-.LFB1518
	.uleb128 .LEHE17-.LEHB17
	.uleb128 .L668-.LFB1518
	.uleb128 0
.LLSDACSE1518:
	.text
	.cfi_endproc
	.section	.text.unlikely
	.cfi_startproc
	.cfi_personality 0x9b,DW.ref.__gxx_personality_v0
	.cfi_lsda 0x1b,.LLSDAC1518
	.type	_ZN8opendnp310CommandSetC2ESt16initializer_listINS_7IndexedINS_17AnalogOutputInt32EEEE.cold, @function
_ZN8opendnp310CommandSetC2ESt16initializer_listINS_7IndexedINS_17AnalogOutputInt32EEEE.cold:
.LFSB1518:
.L666:
	.cfi_def_cfa_offset 64
	.cfi_offset 3, -40
	.cfi_offset 6, -32
	.cfi_offset 12, -24
	.cfi_offset 14, -16
	movq	(%r14), %rdi
	testq	%rdi, %rdi
	je	.L667
	movq	16(%r14), %rsi
	subq	%rdi, %rsi
	call	_ZdlPvm@PLT
.L667:
	movq	%rbx, %rdi
.LEHB18:
	call	_Unwind_Resume@PLT
.LEHE18:
	.cfi_endproc
.LFE1518:
	.section	.gcc_except_table
.LLSDAC1518:
	.byte	0xff
	.byte	0xff
	.byte	0x1
	.uleb128 .LLSDACSEC1518-.LLSDACSBC1518
.LLSDACSBC1518:
	.uleb128 .LEHB18-.LCOLDB6
	.uleb128 .LEHE18-.LEHB18
	.uleb128 0
	.uleb128 0
.LLSDACSEC1518:
	.section	.text.unlikely
	.text
	.size	_ZN8opendnp310CommandSetC2ESt16initializer_listINS_7IndexedINS_17AnalogOutputInt32EEEE, .-_ZN8opendnp310CommandSetC2ESt16initializer_listINS_7IndexedINS_17AnalogOutputInt32EEEE
	.section	.text.unlikely
	.size	_ZN8opendnp310CommandSetC2ESt16initializer_listINS_7IndexedINS_17AnalogOutputInt32EEEE.cold, .-_ZN8opendnp310CommandSetC2ESt16initializer_listINS_7IndexedINS_17AnalogOutputInt32EEEE.cold
.LCOLDE6:
	.text
.LHOTE6:
	.globl	_ZN8opendnp310CommandSetC1ESt16initializer_listINS_7IndexedINS_17AnalogOutputInt32EEEE
	.set	_ZN8opendnp310CommandSetC1ESt16initializer_listINS_7IndexedINS_17AnalogOutputInt32EEEE,_ZN8opendnp310CommandSetC2ESt16initializer_listINS_7IndexedINS_17AnalogOutputInt32EEEE
	.align 2
	.p2align 4
	.globl	_ZN8opendnp310CommandSet18StartHeaderAOInt16Ev
	.type	_ZN8opendnp310CommandSet18StartHeaderAOInt16Ev, @function
_ZN8opendnp310CommandSet18StartHeaderAOInt16Ev:
.LFB1528:
	.cfi_startproc
	pushq	%rbx
	.cfi_def_cfa_offset 16
	.cfi_offset 3, -16
	movq	%rdi, %rbx
	movl	$72, %edi
	subq	$48, %rsp
	.cfi_def_cfa_offset 64
	movq	_ZTVN8opendnp318TypedCommandHeaderINS_17AnalogOutputInt16EEE@GOTPCREL(%rip), %rax
	movq	_ZN8opendnp311Group41Var210ReadTargetERN7openpal6RSliceERNS_17AnalogOutputInt16E@GOTPCREL(%rip), %xmm0
	movhps	_ZN8opendnp311Group41Var211WriteTargetERKNS_17AnalogOutputInt16ERN7openpal6WSliceE@GOTPCREL(%rip), %xmm0
	movaps	%xmm0, 16(%rsp)
	leaq	168(%rax), %rdx
	addq	$16, %rax
	movq	%rdx, %xmm2
	movq	%rax, %xmm1
	punpcklqdq	%xmm2, %xmm1
	movaps	%xmm1, (%rsp)
	call	_Znwm@PLT
	movdqa	16(%rsp), %xmm0
	movdqa	(%rsp), %xmm1
	movl	$553, %edx
	movw	%dx, 40(%rax)
	movq	8(%rbx), %rdx
	movups	%xmm0, 24(%rax)
	pxor	%xmm0, %xmm0
	movl	$3, 16(%rax)
	movq	$0, 64(%rax)
	movq	%rax, 40(%rsp)
	movups	%xmm1, (%rax)
	movups	%xmm0, 48(%rax)
	cmpq	16(%rbx), %rdx
	je	.L682
	movq	%rax, (%rdx)
	addq	$8, %rdx
	addq	$8, %rax
	movq	%rdx, 8(%rbx)
	addq	$48, %rsp
	.cfi_remember_state
	.cfi_def_cfa_offset 16
	popq	%rbx
	.cfi_def_cfa_offset 8
	ret
	.p2align 4,,10
	.p2align 3
.L682:
	.cfi_restore_state
	leaq	40(%rsp), %rsi
	movq	%rbx, %rdi
	movq	%rax, (%rsp)
	call	_ZNSt6vectorIPN8opendnp314ICommandHeaderESaIS2_EE17_M_realloc_appendIJS2_EEEvDpOT_@PLT
	movq	(%rsp), %rax
	addq	$48, %rsp
	.cfi_def_cfa_offset 16
	popq	%rbx
	.cfi_def_cfa_offset 8
	addq	$8, %rax
	ret
	.cfi_endproc
.LFE1528:
	.size	_ZN8opendnp310CommandSet18StartHeaderAOInt16Ev, .-_ZN8opendnp310CommandSet18StartHeaderAOInt16Ev
	.section	.text.unlikely
	.align 2
.LCOLDB8:
	.text
.LHOTB8:
	.align 2
	.p2align 4
	.globl	_ZN8opendnp310CommandSetC2ESt16initializer_listINS_7IndexedINS_17AnalogOutputInt16EEEE
	.type	_ZN8opendnp310CommandSetC2ESt16initializer_listINS_7IndexedINS_17AnalogOutputInt16EEEE, @function
_ZN8opendnp310CommandSetC2ESt16initializer_listINS_7IndexedINS_17AnalogOutputInt16EEEE:
.LFB1515:
	.cfi_startproc
	.cfi_personality 0x9b,DW.ref.__gxx_personality_v0
	.cfi_lsda 0x1b,.LLSDA1515
	pxor	%xmm0, %xmm0
	movq	$0, 16(%rdi)
	movups	%xmm0, (%rdi)
	testq	%rdx, %rdx
	jne	.L702
	ret
	.p2align 4,,10
	.p2align 3
.L702:
	pushq	%r14
	.cfi_def_cfa_offset 16
	.cfi_offset 14, -16
	movq	%rdi, %r14
	pushq	%r12
	.cfi_def_cfa_offset 24
	.cfi_offset 12, -24
	movq	%rdx, %r12
	pushq	%rbp
	.cfi_def_cfa_offset 32
	.cfi_offset 6, -32
	pushq	%rbx
	.cfi_def_cfa_offset 40
	.cfi_offset 3, -40
	movq	%rsi, %rbx
	subq	$24, %rsp
	.cfi_def_cfa_offset 64
	movq	%rsi, 8(%rsp)
.LEHB19:
	call	_ZN8opendnp310CommandSet18StartHeaderAOInt16Ev@PLT
	movq	8(%rsp), %rsi
	movq	%rax, %rbp
	leaq	(%r12,%r12,2), %rax
	leaq	(%rsi,%rax,2), %r12
	cmpq	%rsi, %r12
	je	.L685
	.p2align 4
	.p2align 3
.L687:
	movq	0(%rbp), %rax
	movzwl	4(%rbx), %edx
	movq	%rbx, %rsi
	movq	%rbp, %rdi
	call	*(%rax)
.LEHE19:
	addq	$6, %rbx
	cmpq	%rbx, %r12
	jne	.L687
.L685:
	addq	$24, %rsp
	.cfi_remember_state
	.cfi_def_cfa_offset 40
	popq	%rbx
	.cfi_def_cfa_offset 32
	popq	%rbp
	.cfi_def_cfa_offset 24
	popq	%r12
	.cfi_def_cfa_offset 16
	popq	%r14
	.cfi_def_cfa_offset 8
	ret
.L690:
	.cfi_restore_state
	movq	%rax, %rbx
	jmp	.L688
	.section	.gcc_except_table
.LLSDA1515:
	.byte	0xff
	.byte	0xff
	.byte	0x1
	.uleb128 .LLSDACSE1515-.LLSDACSB1515
.LLSDACSB1515:
	.uleb128 .LEHB19-.LFB1515
	.uleb128 .LEHE19-.LEHB19
	.uleb128 .L690-.LFB1515
	.uleb128 0
.LLSDACSE1515:
	.text
	.cfi_endproc
	.section	.text.unlikely
	.cfi_startproc
	.cfi_personality 0x9b,DW.ref.__gxx_personality_v0
	.cfi_lsda 0x1b,.LLSDAC1515
	.type	_ZN8opendnp310CommandSetC2ESt16initializer_listINS_7IndexedINS_17AnalogOutputInt16EEEE.cold, @function
_ZN8opendnp310CommandSetC2ESt16initializer_listINS_7IndexedINS_17AnalogOutputInt16EEEE.cold:
.LFSB1515:
.L688:
	.cfi_def_cfa_offset 64
	.cfi_offset 3, -40
	.cfi_offset 6, -32
	.cfi_offset 12, -24
	.cfi_offset 14, -16
	movq	(%r14), %rdi
	testq	%rdi, %rdi
	je	.L689
	movq	16(%r14), %rsi
	subq	%rdi, %rsi
	call	_ZdlPvm@PLT
.L689:
	movq	%rbx, %rdi
.LEHB20:
	call	_Unwind_Resume@PLT
.LEHE20:
	.cfi_endproc
.LFE1515:
	.section	.gcc_except_table
.LLSDAC1515:
	.byte	0xff
	.byte	0xff
	.byte	0x1
	.uleb128 .LLSDACSEC1515-.LLSDACSBC1515
.LLSDACSBC1515:
	.uleb128 .LEHB20-.LCOLDB8
	.uleb128 .LEHE20-.LEHB20
	.uleb128 0
	.uleb128 0
.LLSDACSEC1515:
	.section	.text.unlikely
	.text
	.size	_ZN8opendnp310CommandSetC2ESt16initializer_listINS_7IndexedINS_17AnalogOutputInt16EEEE, .-_ZN8opendnp310CommandSetC2ESt16initializer_listINS_7IndexedINS_17AnalogOutputInt16EEEE
	.section	.text.unlikely
	.size	_ZN8opendnp310CommandSetC2ESt16initializer_listINS_7IndexedINS_17AnalogOutputInt16EEEE.cold, .-_ZN8opendnp310CommandSetC2ESt16initializer_listINS_7IndexedINS_17AnalogOutputInt16EEEE.cold
.LCOLDE8:
	.text
.LHOTE8:
	.globl	_ZN8opendnp310CommandSetC1ESt16initializer_listINS_7IndexedINS_17AnalogOutputInt16EEEE
	.set	_ZN8opendnp310CommandSetC1ESt16initializer_listINS_7IndexedINS_17AnalogOutputInt16EEEE,_ZN8opendnp310CommandSetC2ESt16initializer_listINS_7IndexedINS_17AnalogOutputInt16EEEE
	.align 2
	.p2align 4
	.globl	_ZN8opendnp310CommandSet20StartHeaderAOFloat32Ev
	.type	_ZN8opendnp310CommandSet20StartHeaderAOFloat32Ev, @function
_ZN8opendnp310CommandSet20StartHeaderAOFloat32Ev:
.LFB1529:
	.cfi_startproc
	pushq	%rbx
	.cfi_def_cfa_offset 16
	.cfi_offset 3, -16
	movq	%rdi, %rbx
	movl	$72, %edi
	subq	$48, %rsp
	.cfi_def_cfa_offset 64
	movq	_ZTVN8opendnp318TypedCommandHeaderINS_19AnalogOutputFloat32EEE@GOTPCREL(%rip), %rax
	movq	_ZN8opendnp311Group41Var310ReadTargetERN7openpal6RSliceERNS_19AnalogOutputFloat32E@GOTPCREL(%rip), %xmm0
	movhps	_ZN8opendnp311Group41Var311WriteTargetERKNS_19AnalogOutputFloat32ERN7openpal6WSliceE@GOTPCREL(%rip), %xmm0
	movaps	%xmm0, 16(%rsp)
	leaq	168(%rax), %rdx
	addq	$16, %rax
	movq	%rdx, %xmm2
	movq	%rax, %xmm1
	punpcklqdq	%xmm2, %xmm1
	movaps	%xmm1, (%rsp)
	call	_Znwm@PLT
	movdqa	16(%rsp), %xmm0
	movdqa	(%rsp), %xmm1
	movl	$809, %edx
	movw	%dx, 40(%rax)
	movq	8(%rbx), %rdx
	movups	%xmm0, 24(%rax)
	pxor	%xmm0, %xmm0
	movl	$5, 16(%rax)
	movq	$0, 64(%rax)
	movq	%rax, 40(%rsp)
	movups	%xmm1, (%rax)
	movups	%xmm0, 48(%rax)
	cmpq	16(%rbx), %rdx
	je	.L704
	movq	%rax, (%rdx)
	addq	$8, %rdx
	addq	$8, %rax
	movq	%rdx, 8(%rbx)
	addq	$48, %rsp
	.cfi_remember_state
	.cfi_def_cfa_offset 16
	popq	%rbx
	.cfi_def_cfa_offset 8
	ret
	.p2align 4,,10
	.p2align 3
.L704:
	.cfi_restore_state
	leaq	40(%rsp), %rsi
	movq	%rbx, %rdi
	movq	%rax, (%rsp)
	call	_ZNSt6vectorIPN8opendnp314ICommandHeaderESaIS2_EE17_M_realloc_appendIJS2_EEEvDpOT_@PLT
	movq	(%rsp), %rax
	addq	$48, %rsp
	.cfi_def_cfa_offset 16
	popq	%rbx
	.cfi_def_cfa_offset 8
	addq	$8, %rax
	ret
	.cfi_endproc
.LFE1529:
	.size	_ZN8opendnp310CommandSet20StartHeaderAOFloat32Ev, .-_ZN8opendnp310CommandSet20StartHeaderAOFloat32Ev
	.section	.text.unlikely
	.align 2
.LCOLDB10:
	.text
.LHOTB10:
	.align 2
	.p2align 4
	.globl	_ZN8opendnp310CommandSetC2ESt16initializer_listINS_7IndexedINS_19AnalogOutputFloat32EEEE
	.type	_ZN8opendnp310CommandSetC2ESt16initializer_listINS_7IndexedINS_19AnalogOutputFloat32EEEE, @function
_ZN8opendnp310CommandSetC2ESt16initializer_listINS_7IndexedINS_19AnalogOutputFloat32EEEE:
.LFB1521:
	.cfi_startproc
	.cfi_personality 0x9b,DW.ref.__gxx_personality_v0
	.cfi_lsda 0x1b,.LLSDA1521
	pxor	%xmm0, %xmm0
	movq	$0, 16(%rdi)
	movups	%xmm0, (%rdi)
	testq	%rdx, %rdx
	jne	.L724
	ret
	.p2align 4,,10
	.p2align 3
.L724:
	pushq	%r14
	.cfi_def_cfa_offset 16
	.cfi_offset 14, -16
	movq	%rdi, %r14
	pushq	%r12
	.cfi_def_cfa_offset 24
	.cfi_offset 12, -24
	movq	%rdx, %r12
	pushq	%rbp
	.cfi_def_cfa_offset 32
	.cfi_offset 6, -32
	pushq	%rbx
	.cfi_def_cfa_offset 40
	.cfi_offset 3, -40
	movq	%rsi, %rbx
	subq	$24, %rsp
	.cfi_def_cfa_offset 64
	movq	%rsi, 8(%rsp)
.LEHB21:
	call	_ZN8opendnp310CommandSet20StartHeaderAOFloat32Ev@PLT
	movq	8(%rsp), %rsi
	movq	%rax, %rbp
	leaq	(%r12,%r12,2), %rax
	leaq	(%rsi,%rax,4), %r12
	cmpq	%rsi, %r12
	je	.L707
	.p2align 4
	.p2align 3
.L709:
	movq	0(%rbp), %rax
	movzwl	8(%rbx), %edx
	movq	%rbx, %rsi
	movq	%rbp, %rdi
	call	*(%rax)
.LEHE21:
	addq	$12, %rbx
	cmpq	%rbx, %r12
	jne	.L709
.L707:
	addq	$24, %rsp
	.cfi_remember_state
	.cfi_def_cfa_offset 40
	popq	%rbx
	.cfi_def_cfa_offset 32
	popq	%rbp
	.cfi_def_cfa_offset 24
	popq	%r12
	.cfi_def_cfa_offset 16
	popq	%r14
	.cfi_def_cfa_offset 8
	ret
.L712:
	.cfi_restore_state
	movq	%rax, %rbx
	jmp	.L710
	.section	.gcc_except_table
.LLSDA1521:
	.byte	0xff
	.byte	0xff
	.byte	0x1
	.uleb128 .LLSDACSE1521-.LLSDACSB1521
.LLSDACSB1521:
	.uleb128 .LEHB21-.LFB1521
	.uleb128 .LEHE21-.LEHB21
	.uleb128 .L712-.LFB1521
	.uleb128 0
.LLSDACSE1521:
	.text
	.cfi_endproc
	.section	.text.unlikely
	.cfi_startproc
	.cfi_personality 0x9b,DW.ref.__gxx_personality_v0
	.cfi_lsda 0x1b,.LLSDAC1521
	.type	_ZN8opendnp310CommandSetC2ESt16initializer_listINS_7IndexedINS_19AnalogOutputFloat32EEEE.cold, @function
_ZN8opendnp310CommandSetC2ESt16initializer_listINS_7IndexedINS_19AnalogOutputFloat32EEEE.cold:
.LFSB1521:
.L710:
	.cfi_def_cfa_offset 64
	.cfi_offset 3, -40
	.cfi_offset 6, -32
	.cfi_offset 12, -24
	.cfi_offset 14, -16
	movq	(%r14), %rdi
	testq	%rdi, %rdi
	je	.L711
	movq	16(%r14), %rsi
	subq	%rdi, %rsi
	call	_ZdlPvm@PLT
.L711:
	movq	%rbx, %rdi
.LEHB22:
	call	_Unwind_Resume@PLT
.LEHE22:
	.cfi_endproc
.LFE1521:
	.section	.gcc_except_table
.LLSDAC1521:
	.byte	0xff
	.byte	0xff
	.byte	0x1
	.uleb128 .LLSDACSEC1521-.LLSDACSBC1521
.LLSDACSBC1521:
	.uleb128 .LEHB22-.LCOLDB10
	.uleb128 .LEHE22-.LEHB22
	.uleb128 0
	.uleb128 0
.LLSDACSEC1521:
	.section	.text.unlikely
	.text
	.size	_ZN8opendnp310CommandSetC2ESt16initializer_listINS_7IndexedINS_19AnalogOutputFloat32EEEE, .-_ZN8opendnp310CommandSetC2ESt16initializer_listINS_7IndexedINS_19AnalogOutputFloat32EEEE
	.section	.text.unlikely
	.size	_ZN8opendnp310CommandSetC2ESt16initializer_listINS_7IndexedINS_19AnalogOutputFloat32EEEE.cold, .-_ZN8opendnp310CommandSetC2ESt16initializer_listINS_7IndexedINS_19AnalogOutputFloat32EEEE.cold
.LCOLDE10:
	.text
.LHOTE10:
	.globl	_ZN8opendnp310CommandSetC1ESt16initializer_listINS_7IndexedINS_19AnalogOutputFloat32EEEE
	.set	_ZN8opendnp310CommandSetC1ESt16initializer_listINS_7IndexedINS_19AnalogOutputFloat32EEEE,_ZN8opendnp310CommandSetC2ESt16initializer_listINS_7IndexedINS_19AnalogOutputFloat32EEEE
	.align 2
	.p2align 4
	.globl	_ZN8opendnp310CommandSet21StartHeaderAODouble64Ev
	.type	_ZN8opendnp310CommandSet21StartHeaderAODouble64Ev, @function
_ZN8opendnp310CommandSet21StartHeaderAODouble64Ev:
.LFB1530:
	.cfi_startproc
	pushq	%rbx
	.cfi_def_cfa_offset 16
	.cfi_offset 3, -16
	movq	%rdi, %rbx
	movl	$72, %edi
	subq	$48, %rsp
	.cfi_def_cfa_offset 64
	movq	_ZTVN8opendnp318TypedCommandHeaderINS_20AnalogOutputDouble64EEE@GOTPCREL(%rip), %rax
	movq	_ZN8opendnp311Group41Var410ReadTargetERN7openpal6RSliceERNS_20AnalogOutputDouble64E@GOTPCREL(%rip), %xmm0
	movhps	_ZN8opendnp311Group41Var411WriteTargetERKNS_20AnalogOutputDouble64ERN7openpal6WSliceE@GOTPCREL(%rip), %xmm0
	movaps	%xmm0, 16(%rsp)
	leaq	168(%rax), %rdx
	addq	$16, %rax
	movq	%rdx, %xmm2
	movq	%rax, %xmm1
	punpcklqdq	%xmm2, %xmm1
	movaps	%xmm1, (%rsp)
	call	_Znwm@PLT
	movdqa	16(%rsp), %xmm0
	movdqa	(%rsp), %xmm1
	movl	$1065, %edx
	movw	%dx, 40(%rax)
	movq	8(%rbx), %rdx
	movups	%xmm0, 24(%rax)
	pxor	%xmm0, %xmm0
	movl	$9, 16(%rax)
	movq	$0, 64(%rax)
	movq	%rax, 40(%rsp)
	movups	%xmm1, (%rax)
	movups	%xmm0, 48(%rax)
	cmpq	16(%rbx), %rdx
	je	.L726
	movq	%rax, (%rdx)
	addq	$8, %rdx
	addq	$8, %rax
	movq	%rdx, 8(%rbx)
	addq	$48, %rsp
	.cfi_remember_state
	.cfi_def_cfa_offset 16
	popq	%rbx
	.cfi_def_cfa_offset 8
	ret
	.p2align 4,,10
	.p2align 3
.L726:
	.cfi_restore_state
	leaq	40(%rsp), %rsi
	movq	%rbx, %rdi
	movq	%rax, (%rsp)
	call	_ZNSt6vectorIPN8opendnp314ICommandHeaderESaIS2_EE17_M_realloc_appendIJS2_EEEvDpOT_@PLT
	movq	(%rsp), %rax
	addq	$48, %rsp
	.cfi_def_cfa_offset 16
	popq	%rbx
	.cfi_def_cfa_offset 8
	addq	$8, %rax
	ret
	.cfi_endproc
.LFE1530:
	.size	_ZN8opendnp310CommandSet21StartHeaderAODouble64Ev, .-_ZN8opendnp310CommandSet21StartHeaderAODouble64Ev
	.section	.text.unlikely
	.align 2
.LCOLDB12:
	.text
.LHOTB12:
	.align 2
	.p2align 4
	.globl	_ZN8opendnp310CommandSetC2ESt16initializer_listINS_7IndexedINS_20AnalogOutputDouble64EEEE
	.type	_ZN8opendnp310CommandSetC2ESt16initializer_listINS_7IndexedINS_20AnalogOutputDouble64EEEE, @function
_ZN8opendnp310CommandSetC2ESt16initializer_listINS_7IndexedINS_20AnalogOutputDouble64EEEE:
.LFB1524:
	.cfi_startproc
	.cfi_personality 0x9b,DW.ref.__gxx_personality_v0
	.cfi_lsda 0x1b,.LLSDA1524
	pxor	%xmm0, %xmm0
	movq	$0, 16(%rdi)
	movups	%xmm0, (%rdi)
	testq	%rdx, %rdx
	jne	.L746
	ret
	.p2align 4,,10
	.p2align 3
.L746:
	pushq	%r14
	.cfi_def_cfa_offset 16
	.cfi_offset 14, -16
	movq	%rdi, %r14
	pushq	%r12
	.cfi_def_cfa_offset 24
	.cfi_offset 12, -24
	movq	%rdx, %r12
	pushq	%rbp
	.cfi_def_cfa_offset 32
	.cfi_offset 6, -32
	pushq	%rbx
	.cfi_def_cfa_offset 40
	.cfi_offset 3, -40
	movq	%rsi, %rbx
	subq	$24, %rsp
	.cfi_def_cfa_offset 64
	movq	%rsi, 8(%rsp)
.LEHB23:
	call	_ZN8opendnp310CommandSet21StartHeaderAODouble64Ev@PLT
	movq	8(%rsp), %rsi
	movq	%rax, %rbp
	leaq	(%r12,%r12,2), %rax
	leaq	(%rsi,%rax,8), %r12
	cmpq	%rsi, %r12
	je	.L729
	.p2align 4
	.p2align 3
.L731:
	movq	0(%rbp), %rax
	movzwl	16(%rbx), %edx
	movq	%rbx, %rsi
	movq	%rbp, %rdi
	call	*(%rax)
.LEHE23:
	addq	$24, %rbx
	cmpq	%rbx, %r12
	jne	.L731
.L729:
	addq	$24, %rsp
	.cfi_remember_state
	.cfi_def_cfa_offset 40
	popq	%rbx
	.cfi_def_cfa_offset 32
	popq	%rbp
	.cfi_def_cfa_offset 24
	popq	%r12
	.cfi_def_cfa_offset 16
	popq	%r14
	.cfi_def_cfa_offset 8
	ret
.L734:
	.cfi_restore_state
	movq	%rax, %rbx
	jmp	.L732
	.section	.gcc_except_table
.LLSDA1524:
	.byte	0xff
	.byte	0xff
	.byte	0x1
	.uleb128 .LLSDACSE1524-.LLSDACSB1524
.LLSDACSB1524:
	.uleb128 .LEHB23-.LFB1524
	.uleb128 .LEHE23-.LEHB23
	.uleb128 .L734-.LFB1524
	.uleb128 0
.LLSDACSE1524:
	.text
	.cfi_endproc
	.section	.text.unlikely
	.cfi_startproc
	.cfi_personality 0x9b,DW.ref.__gxx_personality_v0
	.cfi_lsda 0x1b,.LLSDAC1524
	.type	_ZN8opendnp310CommandSetC2ESt16initializer_listINS_7IndexedINS_20AnalogOutputDouble64EEEE.cold, @function
_ZN8opendnp310CommandSetC2ESt16initializer_listINS_7IndexedINS_20AnalogOutputDouble64EEEE.cold:
.LFSB1524:
.L732:
	.cfi_def_cfa_offset 64
	.cfi_offset 3, -40
	.cfi_offset 6, -32
	.cfi_offset 12, -24
	.cfi_offset 14, -16
	movq	(%r14), %rdi
	testq	%rdi, %rdi
	je	.L733
	movq	16(%r14), %rsi
	subq	%rdi, %rsi
	call	_ZdlPvm@PLT
.L733:
	movq	%rbx, %rdi
.LEHB24:
	call	_Unwind_Resume@PLT
.LEHE24:
	.cfi_endproc
.LFE1524:
	.section	.gcc_except_table
.LLSDAC1524:
	.byte	0xff
	.byte	0xff
	.byte	0x1
	.uleb128 .LLSDACSEC1524-.LLSDACSBC1524
.LLSDACSBC1524:
	.uleb128 .LEHB24-.LCOLDB12
	.uleb128 .LEHE24-.LEHB24
	.uleb128 0
	.uleb128 0
.LLSDACSEC1524:
	.section	.text.unlikely
	.text
	.size	_ZN8opendnp310CommandSetC2ESt16initializer_listINS_7IndexedINS_20AnalogOutputDouble64EEEE, .-_ZN8opendnp310CommandSetC2ESt16initializer_listINS_7IndexedINS_20AnalogOutputDouble64EEEE
	.section	.text.unlikely
	.size	_ZN8opendnp310CommandSetC2ESt16initializer_listINS_7IndexedINS_20AnalogOutputDouble64EEEE.cold, .-_ZN8opendnp310CommandSetC2ESt16initializer_listINS_7IndexedINS_20AnalogOutputDouble64EEEE.cold
.LCOLDE12:
	.text
.LHOTE12:
	.globl	_ZN8opendnp310CommandSetC1ESt16initializer_listINS_7IndexedINS_20AnalogOutputDouble64EEEE
	.set	_ZN8opendnp310CommandSetC1ESt16initializer_listINS_7IndexedINS_20AnalogOutputDouble64EEEE,_ZN8opendnp310CommandSetC2ESt16initializer_listINS_7IndexedINS_20AnalogOutputDouble64EEEE
	.weak	_ZTSN8opendnp38IVisitorINS_7IndexedINS_20AnalogOutputDouble64EEEEE
	.section	.rodata._ZTSN8opendnp38IVisitorINS_7IndexedINS_20AnalogOutputDouble64EEEEE,"aG",@progbits,_ZTSN8opendnp38IVisitorINS_7IndexedINS_20AnalogOutputDouble64EEEEE,comdat
	.align 32
	.type	_ZTSN8opendnp38IVisitorINS_7IndexedINS_20AnalogOutputDouble64EEEEE, @object
	.size	_ZTSN8opendnp38IVisitorINS_7IndexedINS_20AnalogOutputDouble64EEEEE, 63
_ZTSN8opendnp38IVisitorINS_7IndexedINS_20AnalogOutputDouble64EEEEE:
	.string	"N8opendnp38IVisitorINS_7IndexedINS_20AnalogOutputDouble64EEEEE"
	.weak	_ZTIN8opendnp38IVisitorINS_7IndexedINS_20AnalogOutputDouble64EEEEE
	.section	.data.rel.ro._ZTIN8opendnp38IVisitorINS_7IndexedINS_20AnalogOutputDouble64EEEEE,"awG",@progbits,_ZTIN8opendnp38IVisitorINS_7IndexedINS_20AnalogOutputDouble64EEEEE,comdat
	.align 8
	.type	_ZTIN8opendnp38IVisitorINS_7IndexedINS_20AnalogOutputDouble64EEEEE, @object
	.size	_ZTIN8opendnp38IVisitorINS_7IndexedINS_20AnalogOutputDouble64EEEEE, 16
_ZTIN8opendnp38IVisitorINS_7IndexedINS_20AnalogOutputDouble64EEEEE:
	.quad	_ZTVN10__cxxabiv117__class_type_infoE+16
	.quad	_ZTSN8opendnp38IVisitorINS_7IndexedINS_20AnalogOutputDouble64EEEEE
	.weak	_ZTSN8opendnp314FunctorVisitorINS_7IndexedINS_20AnalogOutputDouble64EEEZNS_18TypedCommandHeaderIS2_E19ApplySelectResponseERKNS_11ICollectionIS3_EEEUlS3_E_EE
	.section	.rodata._ZTSN8opendnp314FunctorVisitorINS_7IndexedINS_20AnalogOutputDouble64EEEZNS_18TypedCommandHeaderIS2_E19ApplySelectResponseERKNS_11ICollectionIS3_EEEUlS3_E_EE,"aG",@progbits,_ZTSN8opendnp314FunctorVisitorINS_7IndexedINS_20AnalogOutputDouble64EEEZNS_18TypedCommandHeaderIS2_E19ApplySelectResponseERKNS_11ICollectionIS3_EEEUlS3_E_EE,comdat
	.align 32
	.type	_ZTSN8opendnp314FunctorVisitorINS_7IndexedINS_20AnalogOutputDouble64EEEZNS_18TypedCommandHeaderIS2_E19ApplySelectResponseERKNS_11ICollectionIS3_EEEUlS3_E_EE, @object
	.size	_ZTSN8opendnp314FunctorVisitorINS_7IndexedINS_20AnalogOutputDouble64EEEZNS_18TypedCommandHeaderIS2_E19ApplySelectResponseERKNS_11ICollectionIS3_EEEUlS3_E_EE, 153
_ZTSN8opendnp314FunctorVisitorINS_7IndexedINS_20AnalogOutputDouble64EEEZNS_18TypedCommandHeaderIS2_E19ApplySelectResponseERKNS_11ICollectionIS3_EEEUlS3_E_EE:
	.string	"N8opendnp314FunctorVisitorINS_7IndexedINS_20AnalogOutputDouble64EEEZNS_18TypedCommandHeaderIS2_E19ApplySelectResponseERKNS_11ICollectionIS3_EEEUlS3_E_EE"
	.weak	_ZTIN8opendnp314FunctorVisitorINS_7IndexedINS_20AnalogOutputDouble64EEEZNS_18TypedCommandHeaderIS2_E19ApplySelectResponseERKNS_11ICollectionIS3_EEEUlS3_E_EE
	.section	.data.rel.ro._ZTIN8opendnp314FunctorVisitorINS_7IndexedINS_20AnalogOutputDouble64EEEZNS_18TypedCommandHeaderIS2_E19ApplySelectResponseERKNS_11ICollectionIS3_EEEUlS3_E_EE,"awG",@progbits,_ZTIN8opendnp314FunctorVisitorINS_7IndexedINS_20AnalogOutputDouble64EEEZNS_18TypedCommandHeaderIS2_E19ApplySelectResponseERKNS_11ICollectionIS3_EEEUlS3_E_EE,comdat
	.align 8
	.type	_ZTIN8opendnp314FunctorVisitorINS_7IndexedINS_20AnalogOutputDouble64EEEZNS_18TypedCommandHeaderIS2_E19ApplySelectResponseERKNS_11ICollectionIS3_EEEUlS3_E_EE, @object
	.size	_ZTIN8opendnp314FunctorVisitorINS_7IndexedINS_20AnalogOutputDouble64EEEZNS_18TypedCommandHeaderIS2_E19ApplySelectResponseERKNS_11ICollectionIS3_EEEUlS3_E_EE, 24
_ZTIN8opendnp314FunctorVisitorINS_7IndexedINS_20AnalogOutputDouble64EEEZNS_18TypedCommandHeaderIS2_E19ApplySelectResponseERKNS_11ICollectionIS3_EEEUlS3_E_EE:
	.quad	_ZTVN10__cxxabiv120__si_class_type_infoE+16
	.quad	_ZTSN8opendnp314FunctorVisitorINS_7IndexedINS_20AnalogOutputDouble64EEEZNS_18TypedCommandHeaderIS2_E19ApplySelectResponseERKNS_11ICollectionIS3_EEEUlS3_E_EE
	.quad	_ZTIN8opendnp38IVisitorINS_7IndexedINS_20AnalogOutputDouble64EEEEE
	.weak	_ZTSN8opendnp314FunctorVisitorINS_7IndexedINS_20AnalogOutputDouble64EEEZNS_18TypedCommandHeaderIS2_E20ApplyOperateResponseERKNS_11ICollectionIS3_EEEUlS3_E_EE
	.section	.rodata._ZTSN8opendnp314FunctorVisitorINS_7IndexedINS_20AnalogOutputDouble64EEEZNS_18TypedCommandHeaderIS2_E20ApplyOperateResponseERKNS_11ICollectionIS3_EEEUlS3_E_EE,"aG",@progbits,_ZTSN8opendnp314FunctorVisitorINS_7IndexedINS_20AnalogOutputDouble64EEEZNS_18TypedCommandHeaderIS2_E20ApplyOperateResponseERKNS_11ICollectionIS3_EEEUlS3_E_EE,comdat
	.align 32
	.type	_ZTSN8opendnp314FunctorVisitorINS_7IndexedINS_20AnalogOutputDouble64EEEZNS_18TypedCommandHeaderIS2_E20ApplyOperateResponseERKNS_11ICollectionIS3_EEEUlS3_E_EE, @object
	.size	_ZTSN8opendnp314FunctorVisitorINS_7IndexedINS_20AnalogOutputDouble64EEEZNS_18TypedCommandHeaderIS2_E20ApplyOperateResponseERKNS_11ICollectionIS3_EEEUlS3_E_EE, 154
_ZTSN8opendnp314FunctorVisitorINS_7IndexedINS_20AnalogOutputDouble64EEEZNS_18TypedCommandHeaderIS2_E20ApplyOperateResponseERKNS_11ICollectionIS3_EEEUlS3_E_EE:
	.string	"N8opendnp314FunctorVisitorINS_7IndexedINS_20AnalogOutputDouble64EEEZNS_18TypedCommandHeaderIS2_E20ApplyOperateResponseERKNS_11ICollectionIS3_EEEUlS3_E_EE"
	.weak	_ZTIN8opendnp314FunctorVisitorINS_7IndexedINS_20AnalogOutputDouble64EEEZNS_18TypedCommandHeaderIS2_E20ApplyOperateResponseERKNS_11ICollectionIS3_EEEUlS3_E_EE
	.section	.data.rel.ro._ZTIN8opendnp314FunctorVisitorINS_7IndexedINS_20AnalogOutputDouble64EEEZNS_18TypedCommandHeaderIS2_E20ApplyOperateResponseERKNS_11ICollectionIS3_EEEUlS3_E_EE,"awG",@progbits,_ZTIN8opendnp314FunctorVisitorINS_7IndexedINS_20AnalogOutputDouble64EEEZNS_18TypedCommandHeaderIS2_E20ApplyOperateResponseERKNS_11ICollectionIS3_EEEUlS3_E_EE,comdat
	.align 8
	.type	_ZTIN8opendnp314FunctorVisitorINS_7IndexedINS_20AnalogOutputDouble64EEEZNS_18TypedCommandHeaderIS2_E20ApplyOperateResponseERKNS_11ICollectionIS3_EEEUlS3_E_EE, @object
	.size	_ZTIN8opendnp314FunctorVisitorINS_7IndexedINS_20AnalogOutputDouble64EEEZNS_18TypedCommandHeaderIS2_E20ApplyOperateResponseERKNS_11ICollectionIS3_EEEUlS3_E_EE, 24
_ZTIN8opendnp314FunctorVisitorINS_7IndexedINS_20AnalogOutputDouble64EEEZNS_18TypedCommandHeaderIS2_E20ApplyOperateResponseERKNS_11ICollectionIS3_EEEUlS3_E_EE:
	.quad	_ZTVN10__cxxabiv120__si_class_type_infoE+16
	.quad	_ZTSN8opendnp314FunctorVisitorINS_7IndexedINS_20AnalogOutputDouble64EEEZNS_18TypedCommandHeaderIS2_E20ApplyOperateResponseERKNS_11ICollectionIS3_EEEUlS3_E_EE
	.quad	_ZTIN8opendnp38IVisitorINS_7IndexedINS_20AnalogOutputDouble64EEEEE
	.weak	_ZTSN8opendnp38IVisitorINS_7IndexedINS_19AnalogOutputFloat32EEEEE
	.section	.rodata._ZTSN8opendnp38IVisitorINS_7IndexedINS_19AnalogOutputFloat32EEEEE,"aG",@progbits,_ZTSN8opendnp38IVisitorINS_7IndexedINS_19AnalogOutputFloat32EEEEE,comdat
	.align 32
	.type	_ZTSN8opendnp38IVisitorINS_7IndexedINS_19AnalogOutputFloat32EEEEE, @object
	.size	_ZTSN8opendnp38IVisitorINS_7IndexedINS_19AnalogOutputFloat32EEEEE, 62
_ZTSN8opendnp38IVisitorINS_7IndexedINS_19AnalogOutputFloat32EEEEE:
	.string	"N8opendnp38IVisitorINS_7IndexedINS_19AnalogOutputFloat32EEEEE"
	.weak	_ZTIN8opendnp38IVisitorINS_7IndexedINS_19AnalogOutputFloat32EEEEE
	.section	.data.rel.ro._ZTIN8opendnp38IVisitorINS_7IndexedINS_19AnalogOutputFloat32EEEEE,"awG",@progbits,_ZTIN8opendnp38IVisitorINS_7IndexedINS_19AnalogOutputFloat32EEEEE,comdat
	.align 8
	.type	_ZTIN8opendnp38IVisitorINS_7IndexedINS_19AnalogOutputFloat32EEEEE, @object
	.size	_ZTIN8opendnp38IVisitorINS_7IndexedINS_19AnalogOutputFloat32EEEEE, 16
_ZTIN8opendnp38IVisitorINS_7IndexedINS_19AnalogOutputFloat32EEEEE:
	.quad	_ZTVN10__cxxabiv117__class_type_infoE+16
	.quad	_ZTSN8opendnp38IVisitorINS_7IndexedINS_19AnalogOutputFloat32EEEEE
	.weak	_ZTSN8opendnp314FunctorVisitorINS_7IndexedINS_19AnalogOutputFloat32EEEZNS_18TypedCommandHeaderIS2_E19ApplySelectResponseERKNS_11ICollectionIS3_EEEUlS3_E_EE
	.section	.rodata._ZTSN8opendnp314FunctorVisitorINS_7IndexedINS_19AnalogOutputFloat32EEEZNS_18TypedCommandHeaderIS2_E19ApplySelectResponseERKNS_11ICollectionIS3_EEEUlS3_E_EE,"aG",@progbits,_ZTSN8opendnp314FunctorVisitorINS_7IndexedINS_19AnalogOutputFloat32EEEZNS_18TypedCommandHeaderIS2_E19ApplySelectResponseERKNS_11ICollectionIS3_EEEUlS3_E_EE,comdat
	.align 32
	.type	_ZTSN8opendnp314FunctorVisitorINS_7IndexedINS_19AnalogOutputFloat32EEEZNS_18TypedCommandHeaderIS2_E19ApplySelectResponseERKNS_11ICollectionIS3_EEEUlS3_E_EE, @object
	.size	_ZTSN8opendnp314FunctorVisitorINS_7IndexedINS_19AnalogOutputFloat32EEEZNS_18TypedCommandHeaderIS2_E19ApplySelectResponseERKNS_11ICollectionIS3_EEEUlS3_E_EE, 152
_ZTSN8opendnp314FunctorVisitorINS_7IndexedINS_19AnalogOutputFloat32EEEZNS_18TypedCommandHeaderIS2_E19ApplySelectResponseERKNS_11ICollectionIS3_EEEUlS3_E_EE:
	.string	"N8opendnp314FunctorVisitorINS_7IndexedINS_19AnalogOutputFloat32EEEZNS_18TypedCommandHeaderIS2_E19ApplySelectResponseERKNS_11ICollectionIS3_EEEUlS3_E_EE"
	.weak	_ZTIN8opendnp314FunctorVisitorINS_7IndexedINS_19AnalogOutputFloat32EEEZNS_18TypedCommandHeaderIS2_E19ApplySelectResponseERKNS_11ICollectionIS3_EEEUlS3_E_EE
	.section	.data.rel.ro._ZTIN8opendnp314FunctorVisitorINS_7IndexedINS_19AnalogOutputFloat32EEEZNS_18TypedCommandHeaderIS2_E19ApplySelectResponseERKNS_11ICollectionIS3_EEEUlS3_E_EE,"awG",@progbits,_ZTIN8opendnp314FunctorVisitorINS_7IndexedINS_19AnalogOutputFloat32EEEZNS_18TypedCommandHeaderIS2_E19ApplySelectResponseERKNS_11ICollectionIS3_EEEUlS3_E_EE,comdat
	.align 8
	.type	_ZTIN8opendnp314FunctorVisitorINS_7IndexedINS_19AnalogOutputFloat32EEEZNS_18TypedCommandHeaderIS2_E19ApplySelectResponseERKNS_11ICollectionIS3_EEEUlS3_E_EE, @object
	.size	_ZTIN8opendnp314FunctorVisitorINS_7IndexedINS_19AnalogOutputFloat32EEEZNS_18TypedCommandHeaderIS2_E19ApplySelectResponseERKNS_11ICollectionIS3_EEEUlS3_E_EE, 24
_ZTIN8opendnp314FunctorVisitorINS_7IndexedINS_19AnalogOutputFloat32EEEZNS_18TypedCommandHeaderIS2_E19ApplySelectResponseERKNS_11ICollectionIS3_EEEUlS3_E_EE:
	.quad	_ZTVN10__cxxabiv120__si_class_type_infoE+16
	.quad	_ZTSN8opendnp314FunctorVisitorINS_7IndexedINS_19AnalogOutputFloat32EEEZNS_18TypedCommandHeaderIS2_E19ApplySelectResponseERKNS_11ICollectionIS3_EEEUlS3_E_EE
	.quad	_ZTIN8opendnp38IVisitorINS_7IndexedINS_19AnalogOutputFloat32EEEEE
	.weak	_ZTSN8opendnp314FunctorVisitorINS_7IndexedINS_19AnalogOutputFloat32EEEZNS_18TypedCommandHeaderIS2_E20ApplyOperateResponseERKNS_11ICollectionIS3_EEEUlS3_E_EE
	.section	.rodata._ZTSN8opendnp314FunctorVisitorINS_7IndexedINS_19AnalogOutputFloat32EEEZNS_18TypedCommandHeaderIS2_E20ApplyOperateResponseERKNS_11ICollectionIS3_EEEUlS3_E_EE,"aG",@progbits,_ZTSN8opendnp314FunctorVisitorINS_7IndexedINS_19AnalogOutputFloat32EEEZNS_18TypedCommandHeaderIS2_E20ApplyOperateResponseERKNS_11ICollectionIS3_EEEUlS3_E_EE,comdat
	.align 32
	.type	_ZTSN8opendnp314FunctorVisitorINS_7IndexedINS_19AnalogOutputFloat32EEEZNS_18TypedCommandHeaderIS2_E20ApplyOperateResponseERKNS_11ICollectionIS3_EEEUlS3_E_EE, @object
	.size	_ZTSN8opendnp314FunctorVisitorINS_7IndexedINS_19AnalogOutputFloat32EEEZNS_18TypedCommandHeaderIS2_E20ApplyOperateResponseERKNS_11ICollectionIS3_EEEUlS3_E_EE, 153
_ZTSN8opendnp314FunctorVisitorINS_7IndexedINS_19AnalogOutputFloat32EEEZNS_18TypedCommandHeaderIS2_E20ApplyOperateResponseERKNS_11ICollectionIS3_EEEUlS3_E_EE:
	.string	"N8opendnp314FunctorVisitorINS_7IndexedINS_19AnalogOutputFloat32EEEZNS_18TypedCommandHeaderIS2_E20ApplyOperateResponseERKNS_11ICollectionIS3_EEEUlS3_E_EE"
	.weak	_ZTIN8opendnp314FunctorVisitorINS_7IndexedINS_19AnalogOutputFloat32EEEZNS_18TypedCommandHeaderIS2_E20ApplyOperateResponseERKNS_11ICollectionIS3_EEEUlS3_E_EE
	.section	.data.rel.ro._ZTIN8opendnp314FunctorVisitorINS_7IndexedINS_19AnalogOutputFloat32EEEZNS_18TypedCommandHeaderIS2_E20ApplyOperateResponseERKNS_11ICollectionIS3_EEEUlS3_E_EE,"awG",@progbits,_ZTIN8opendnp314FunctorVisitorINS_7IndexedINS_19AnalogOutputFloat32EEEZNS_18TypedCommandHeaderIS2_E20ApplyOperateResponseERKNS_11ICollectionIS3_EEEUlS3_E_EE,comdat
	.align 8
	.type	_ZTIN8opendnp314FunctorVisitorINS_7IndexedINS_19AnalogOutputFloat32EEEZNS_18TypedCommandHeaderIS2_E20ApplyOperateResponseERKNS_11ICollectionIS3_EEEUlS3_E_EE, @object
	.size	_ZTIN8opendnp314FunctorVisitorINS_7IndexedINS_19AnalogOutputFloat32EEEZNS_18TypedCommandHeaderIS2_E20ApplyOperateResponseERKNS_11ICollectionIS3_EEEUlS3_E_EE, 24
_ZTIN8opendnp314FunctorVisitorINS_7IndexedINS_19AnalogOutputFloat32EEEZNS_18TypedCommandHeaderIS2_E20ApplyOperateResponseERKNS_11ICollectionIS3_EEEUlS3_E_EE:
	.quad	_ZTVN10__cxxabiv120__si_class_type_infoE+16
	.quad	_ZTSN8opendnp314FunctorVisitorINS_7IndexedINS_19AnalogOutputFloat32EEEZNS_18TypedCommandHeaderIS2_E20ApplyOperateResponseERKNS_11ICollectionIS3_EEEUlS3_E_EE
	.quad	_ZTIN8opendnp38IVisitorINS_7IndexedINS_19AnalogOutputFloat32EEEEE
	.weak	_ZTSN8opendnp38IVisitorINS_7IndexedINS_17AnalogOutputInt16EEEEE
	.section	.rodata._ZTSN8opendnp38IVisitorINS_7IndexedINS_17AnalogOutputInt16EEEEE,"aG",@progbits,_ZTSN8opendnp38IVisitorINS_7IndexedINS_17AnalogOutputInt16EEEEE,comdat
	.align 32
	.type	_ZTSN8opendnp38IVisitorINS_7IndexedINS_17AnalogOutputInt16EEEEE, @object
	.size	_ZTSN8opendnp38IVisitorINS_7IndexedINS_17AnalogOutputInt16EEEEE, 60
_ZTSN8opendnp38IVisitorINS_7IndexedINS_17AnalogOutputInt16EEEEE:
	.string	"N8opendnp38IVisitorINS_7IndexedINS_17AnalogOutputInt16EEEEE"
	.weak	_ZTIN8opendnp38IVisitorINS_7IndexedINS_17AnalogOutputInt16EEEEE
	.section	.data.rel.ro._ZTIN8opendnp38IVisitorINS_7IndexedINS_17AnalogOutputInt16EEEEE,"awG",@progbits,_ZTIN8opendnp38IVisitorINS_7IndexedINS_17AnalogOutputInt16EEEEE,comdat
	.align 8
	.type	_ZTIN8opendnp38IVisitorINS_7IndexedINS_17AnalogOutputInt16EEEEE, @object
	.size	_ZTIN8opendnp38IVisitorINS_7IndexedINS_17AnalogOutputInt16EEEEE, 16
_ZTIN8opendnp38IVisitorINS_7IndexedINS_17AnalogOutputInt16EEEEE:
	.quad	_ZTVN10__cxxabiv117__class_type_infoE+16
	.quad	_ZTSN8opendnp38IVisitorINS_7IndexedINS_17AnalogOutputInt16EEEEE
	.weak	_ZTSN8opendnp314FunctorVisitorINS_7IndexedINS_17AnalogOutputInt16EEEZNS_18TypedCommandHeaderIS2_E19ApplySelectResponseERKNS_11ICollectionIS3_EEEUlS3_E_EE
	.section	.rodata._ZTSN8opendnp314FunctorVisitorINS_7IndexedINS_17AnalogOutputInt16EEEZNS_18TypedCommandHeaderIS2_E19ApplySelectResponseERKNS_11ICollectionIS3_EEEUlS3_E_EE,"aG",@progbits,_ZTSN8opendnp314FunctorVisitorINS_7IndexedINS_17AnalogOutputInt16EEEZNS_18TypedCommandHeaderIS2_E19ApplySelectResponseERKNS_11ICollectionIS3_EEEUlS3_E_EE,comdat
	.align 32
	.type	_ZTSN8opendnp314FunctorVisitorINS_7IndexedINS_17AnalogOutputInt16EEEZNS_18TypedCommandHeaderIS2_E19ApplySelectResponseERKNS_11ICollectionIS3_EEEUlS3_E_EE, @object
	.size	_ZTSN8opendnp314FunctorVisitorINS_7IndexedINS_17AnalogOutputInt16EEEZNS_18TypedCommandHeaderIS2_E19ApplySelectResponseERKNS_11ICollectionIS3_EEEUlS3_E_EE, 150
_ZTSN8opendnp314FunctorVisitorINS_7IndexedINS_17AnalogOutputInt16EEEZNS_18TypedCommandHeaderIS2_E19ApplySelectResponseERKNS_11ICollectionIS3_EEEUlS3_E_EE:
	.string	"N8opendnp314FunctorVisitorINS_7IndexedINS_17AnalogOutputInt16EEEZNS_18TypedCommandHeaderIS2_E19ApplySelectResponseERKNS_11ICollectionIS3_EEEUlS3_E_EE"
	.weak	_ZTIN8opendnp314FunctorVisitorINS_7IndexedINS_17AnalogOutputInt16EEEZNS_18TypedCommandHeaderIS2_E19ApplySelectResponseERKNS_11ICollectionIS3_EEEUlS3_E_EE
	.section	.data.rel.ro._ZTIN8opendnp314FunctorVisitorINS_7IndexedINS_17AnalogOutputInt16EEEZNS_18TypedCommandHeaderIS2_E19ApplySelectResponseERKNS_11ICollectionIS3_EEEUlS3_E_EE,"awG",@progbits,_ZTIN8opendnp314FunctorVisitorINS_7IndexedINS_17AnalogOutputInt16EEEZNS_18TypedCommandHeaderIS2_E19ApplySelectResponseERKNS_11ICollectionIS3_EEEUlS3_E_EE,comdat
	.align 8
	.type	_ZTIN8opendnp314FunctorVisitorINS_7IndexedINS_17AnalogOutputInt16EEEZNS_18TypedCommandHeaderIS2_E19ApplySelectResponseERKNS_11ICollectionIS3_EEEUlS3_E_EE, @object
	.size	_ZTIN8opendnp314FunctorVisitorINS_7IndexedINS_17AnalogOutputInt16EEEZNS_18TypedCommandHeaderIS2_E19ApplySelectResponseERKNS_11ICollectionIS3_EEEUlS3_E_EE, 24
_ZTIN8opendnp314FunctorVisitorINS_7IndexedINS_17AnalogOutputInt16EEEZNS_18TypedCommandHeaderIS2_E19ApplySelectResponseERKNS_11ICollectionIS3_EEEUlS3_E_EE:
	.quad	_ZTVN10__cxxabiv120__si_class_type_infoE+16
	.quad	_ZTSN8opendnp314FunctorVisitorINS_7IndexedINS_17AnalogOutputInt16EEEZNS_18TypedCommandHeaderIS2_E19ApplySelectResponseERKNS_11ICollectionIS3_EEEUlS3_E_EE
	.quad	_ZTIN8opendnp38IVisitorINS_7IndexedINS_17AnalogOutputInt16EEEEE
	.weak	_ZTSN8opendnp314FunctorVisitorINS_7IndexedINS_17AnalogOutputInt16EEEZNS_18TypedCommandHeaderIS2_E20ApplyOperateResponseERKNS_11ICollectionIS3_EEEUlS3_E_EE
	.section	.rodata._ZTSN8opendnp314FunctorVisitorINS_7IndexedINS_17AnalogOutputInt16EEEZNS_18TypedCommandHeaderIS2_E20ApplyOperateResponseERKNS_11ICollectionIS3_EEEUlS3_E_EE,"aG",@progbits,_ZTSN8opendnp314FunctorVisitorINS_7IndexedINS_17AnalogOutputInt16EEEZNS_18TypedCommandHeaderIS2_E20ApplyOperateResponseERKNS_11ICollectionIS3_EEEUlS3_E_EE,comdat
	.align 32
	.type	_ZTSN8opendnp314FunctorVisitorINS_7IndexedINS_17AnalogOutputInt16EEEZNS_18TypedCommandHeaderIS2_E20ApplyOperateResponseERKNS_11ICollectionIS3_EEEUlS3_E_EE, @object
	.size	_ZTSN8opendnp314FunctorVisitorINS_7IndexedINS_17AnalogOutputInt16EEEZNS_18TypedCommandHeaderIS2_E20ApplyOperateResponseERKNS_11ICollectionIS3_EEEUlS3_E_EE, 151
_ZTSN8opendnp314FunctorVisitorINS_7IndexedINS_17AnalogOutputInt16EEEZNS_18TypedCommandHeaderIS2_E20ApplyOperateResponseERKNS_11ICollectionIS3_EEEUlS3_E_EE:
	.string	"N8opendnp314FunctorVisitorINS_7IndexedINS_17AnalogOutputInt16EEEZNS_18TypedCommandHeaderIS2_E20ApplyOperateResponseERKNS_11ICollectionIS3_EEEUlS3_E_EE"
	.weak	_ZTIN8opendnp314FunctorVisitorINS_7IndexedINS_17AnalogOutputInt16EEEZNS_18TypedCommandHeaderIS2_E20ApplyOperateResponseERKNS_11ICollectionIS3_EEEUlS3_E_EE
	.section	.data.rel.ro._ZTIN8opendnp314FunctorVisitorINS_7IndexedINS_17AnalogOutputInt16EEEZNS_18TypedCommandHeaderIS2_E20ApplyOperateResponseERKNS_11ICollectionIS3_EEEUlS3_E_EE,"awG",@progbits,_ZTIN8opendnp314FunctorVisitorINS_7IndexedINS_17AnalogOutputInt16EEEZNS_18TypedCommandHeaderIS2_E20ApplyOperateResponseERKNS_11ICollectionIS3_EEEUlS3_E_EE,comdat
	.align 8
	.type	_ZTIN8opendnp314FunctorVisitorINS_7IndexedINS_17AnalogOutputInt16EEEZNS_18TypedCommandHeaderIS2_E20ApplyOperateResponseERKNS_11ICollectionIS3_EEEUlS3_E_EE, @object
	.size	_ZTIN8opendnp314FunctorVisitorINS_7IndexedINS_17AnalogOutputInt16EEEZNS_18TypedCommandHeaderIS2_E20ApplyOperateResponseERKNS_11ICollectionIS3_EEEUlS3_E_EE, 24
_ZTIN8opendnp314FunctorVisitorINS_7IndexedINS_17AnalogOutputInt16EEEZNS_18TypedCommandHeaderIS2_E20ApplyOperateResponseERKNS_11ICollectionIS3_EEEUlS3_E_EE:
	.quad	_ZTVN10__cxxabiv120__si_class_type_infoE+16
	.quad	_ZTSN8opendnp314FunctorVisitorINS_7IndexedINS_17AnalogOutputInt16EEEZNS_18TypedCommandHeaderIS2_E20ApplyOperateResponseERKNS_11ICollectionIS3_EEEUlS3_E_EE
	.quad	_ZTIN8opendnp38IVisitorINS_7IndexedINS_17AnalogOutputInt16EEEEE
	.weak	_ZTSN8opendnp38IVisitorINS_7IndexedINS_17AnalogOutputInt32EEEEE
	.section	.rodata._ZTSN8opendnp38IVisitorINS_7IndexedINS_17AnalogOutputInt32EEEEE,"aG",@progbits,_ZTSN8opendnp38IVisitorINS_7IndexedINS_17AnalogOutputInt32EEEEE,comdat
	.align 32
	.type	_ZTSN8opendnp38IVisitorINS_7IndexedINS_17AnalogOutputInt32EEEEE, @object
	.size	_ZTSN8opendnp38IVisitorINS_7IndexedINS_17AnalogOutputInt32EEEEE, 60
_ZTSN8opendnp38IVisitorINS_7IndexedINS_17AnalogOutputInt32EEEEE:
	.string	"N8opendnp38IVisitorINS_7IndexedINS_17AnalogOutputInt32EEEEE"
	.weak	_ZTIN8opendnp38IVisitorINS_7IndexedINS_17AnalogOutputInt32EEEEE
	.section	.data.rel.ro._ZTIN8opendnp38IVisitorINS_7IndexedINS_17AnalogOutputInt32EEEEE,"awG",@progbits,_ZTIN8opendnp38IVisitorINS_7IndexedINS_17AnalogOutputInt32EEEEE,comdat
	.align 8
	.type	_ZTIN8opendnp38IVisitorINS_7IndexedINS_17AnalogOutputInt32EEEEE, @object
	.size	_ZTIN8opendnp38IVisitorINS_7IndexedINS_17AnalogOutputInt32EEEEE, 16
_ZTIN8opendnp38IVisitorINS_7IndexedINS_17AnalogOutputInt32EEEEE:
	.quad	_ZTVN10__cxxabiv117__class_type_infoE+16
	.quad	_ZTSN8opendnp38IVisitorINS_7IndexedINS_17AnalogOutputInt32EEEEE
	.weak	_ZTSN8opendnp314FunctorVisitorINS_7IndexedINS_17AnalogOutputInt32EEEZNS_18TypedCommandHeaderIS2_E19ApplySelectResponseERKNS_11ICollectionIS3_EEEUlS3_E_EE
	.section	.rodata._ZTSN8opendnp314FunctorVisitorINS_7IndexedINS_17AnalogOutputInt32EEEZNS_18TypedCommandHeaderIS2_E19ApplySelectResponseERKNS_11ICollectionIS3_EEEUlS3_E_EE,"aG",@progbits,_ZTSN8opendnp314FunctorVisitorINS_7IndexedINS_17AnalogOutputInt32EEEZNS_18TypedCommandHeaderIS2_E19ApplySelectResponseERKNS_11ICollectionIS3_EEEUlS3_E_EE,comdat
	.align 32
	.type	_ZTSN8opendnp314FunctorVisitorINS_7IndexedINS_17AnalogOutputInt32EEEZNS_18TypedCommandHeaderIS2_E19ApplySelectResponseERKNS_11ICollectionIS3_EEEUlS3_E_EE, @object
	.size	_ZTSN8opendnp314FunctorVisitorINS_7IndexedINS_17AnalogOutputInt32EEEZNS_18TypedCommandHeaderIS2_E19ApplySelectResponseERKNS_11ICollectionIS3_EEEUlS3_E_EE, 150
_ZTSN8opendnp314FunctorVisitorINS_7IndexedINS_17AnalogOutputInt32EEEZNS_18TypedCommandHeaderIS2_E19ApplySelectResponseERKNS_11ICollectionIS3_EEEUlS3_E_EE:
	.string	"N8opendnp314FunctorVisitorINS_7IndexedINS_17AnalogOutputInt32EEEZNS_18TypedCommandHeaderIS2_E19ApplySelectResponseERKNS_11ICollectionIS3_EEEUlS3_E_EE"
	.weak	_ZTIN8opendnp314FunctorVisitorINS_7IndexedINS_17AnalogOutputInt32EEEZNS_18TypedCommandHeaderIS2_E19ApplySelectResponseERKNS_11ICollectionIS3_EEEUlS3_E_EE
	.section	.data.rel.ro._ZTIN8opendnp314FunctorVisitorINS_7IndexedINS_17AnalogOutputInt32EEEZNS_18TypedCommandHeaderIS2_E19ApplySelectResponseERKNS_11ICollectionIS3_EEEUlS3_E_EE,"awG",@progbits,_ZTIN8opendnp314FunctorVisitorINS_7IndexedINS_17AnalogOutputInt32EEEZNS_18TypedCommandHeaderIS2_E19ApplySelectResponseERKNS_11ICollectionIS3_EEEUlS3_E_EE,comdat
	.align 8
	.type	_ZTIN8opendnp314FunctorVisitorINS_7IndexedINS_17AnalogOutputInt32EEEZNS_18TypedCommandHeaderIS2_E19ApplySelectResponseERKNS_11ICollectionIS3_EEEUlS3_E_EE, @object
	.size	_ZTIN8opendnp314FunctorVisitorINS_7IndexedINS_17AnalogOutputInt32EEEZNS_18TypedCommandHeaderIS2_E19ApplySelectResponseERKNS_11ICollectionIS3_EEEUlS3_E_EE, 24
_ZTIN8opendnp314FunctorVisitorINS_7IndexedINS_17AnalogOutputInt32EEEZNS_18TypedCommandHeaderIS2_E19ApplySelectResponseERKNS_11ICollectionIS3_EEEUlS3_E_EE:
	.quad	_ZTVN10__cxxabiv120__si_class_type_infoE+16
	.quad	_ZTSN8opendnp314FunctorVisitorINS_7IndexedINS_17AnalogOutputInt32EEEZNS_18TypedCommandHeaderIS2_E19ApplySelectResponseERKNS_11ICollectionIS3_EEEUlS3_E_EE
	.quad	_ZTIN8opendnp38IVisitorINS_7IndexedINS_17AnalogOutputInt32EEEEE
	.weak	_ZTSN8opendnp314FunctorVisitorINS_7IndexedINS_17AnalogOutputInt32EEEZNS_18TypedCommandHeaderIS2_E20ApplyOperateResponseERKNS_11ICollectionIS3_EEEUlS3_E_EE
	.section	.rodata._ZTSN8opendnp314FunctorVisitorINS_7IndexedINS_17AnalogOutputInt32EEEZNS_18TypedCommandHeaderIS2_E20ApplyOperateResponseERKNS_11ICollectionIS3_EEEUlS3_E_EE,"aG",@progbits,_ZTSN8opendnp314FunctorVisitorINS_7IndexedINS_17AnalogOutputInt32EEEZNS_18TypedCommandHeaderIS2_E20ApplyOperateResponseERKNS_11ICollectionIS3_EEEUlS3_E_EE,comdat
	.align 32
	.type	_ZTSN8opendnp314FunctorVisitorINS_7IndexedINS_17AnalogOutputInt32EEEZNS_18TypedCommandHeaderIS2_E20ApplyOperateResponseERKNS_11ICollectionIS3_EEEUlS3_E_EE, @object
	.size	_ZTSN8opendnp314FunctorVisitorINS_7IndexedINS_17AnalogOutputInt32EEEZNS_18TypedCommandHeaderIS2_E20ApplyOperateResponseERKNS_11ICollectionIS3_EEEUlS3_E_EE, 151
_ZTSN8opendnp314FunctorVisitorINS_7IndexedINS_17AnalogOutputInt32EEEZNS_18TypedCommandHeaderIS2_E20ApplyOperateResponseERKNS_11ICollectionIS3_EEEUlS3_E_EE:
	.string	"N8opendnp314FunctorVisitorINS_7IndexedINS_17AnalogOutputInt32EEEZNS_18TypedCommandHeaderIS2_E20ApplyOperateResponseERKNS_11ICollectionIS3_EEEUlS3_E_EE"
	.weak	_ZTIN8opendnp314FunctorVisitorINS_7IndexedINS_17AnalogOutputInt32EEEZNS_18TypedCommandHeaderIS2_E20ApplyOperateResponseERKNS_11ICollectionIS3_EEEUlS3_E_EE
	.section	.data.rel.ro._ZTIN8opendnp314FunctorVisitorINS_7IndexedINS_17AnalogOutputInt32EEEZNS_18TypedCommandHeaderIS2_E20ApplyOperateResponseERKNS_11ICollectionIS3_EEEUlS3_E_EE,"awG",@progbits,_ZTIN8opendnp314FunctorVisitorINS_7IndexedINS_17AnalogOutputInt32EEEZNS_18TypedCommandHeaderIS2_E20ApplyOperateResponseERKNS_11ICollectionIS3_EEEUlS3_E_EE,comdat
	.align 8
	.type	_ZTIN8opendnp314FunctorVisitorINS_7IndexedINS_17AnalogOutputInt32EEEZNS_18TypedCommandHeaderIS2_E20ApplyOperateResponseERKNS_11ICollectionIS3_EEEUlS3_E_EE, @object
	.size	_ZTIN8opendnp314FunctorVisitorINS_7IndexedINS_17AnalogOutputInt32EEEZNS_18TypedCommandHeaderIS2_E20ApplyOperateResponseERKNS_11ICollectionIS3_EEEUlS3_E_EE, 24
_ZTIN8opendnp314FunctorVisitorINS_7IndexedINS_17AnalogOutputInt32EEEZNS_18TypedCommandHeaderIS2_E20ApplyOperateResponseERKNS_11ICollectionIS3_EEEUlS3_E_EE:
	.quad	_ZTVN10__cxxabiv120__si_class_type_infoE+16
	.quad	_ZTSN8opendnp314FunctorVisitorINS_7IndexedINS_17AnalogOutputInt32EEEZNS_18TypedCommandHeaderIS2_E20ApplyOperateResponseERKNS_11ICollectionIS3_EEEUlS3_E_EE
	.quad	_ZTIN8opendnp38IVisitorINS_7IndexedINS_17AnalogOutputInt32EEEEE
	.weak	_ZTSN8opendnp38IVisitorINS_7IndexedINS_23ControlRelayOutputBlockEEEEE
	.section	.rodata._ZTSN8opendnp38IVisitorINS_7IndexedINS_23ControlRelayOutputBlockEEEEE,"aG",@progbits,_ZTSN8opendnp38IVisitorINS_7IndexedINS_23ControlRelayOutputBlockEEEEE,comdat
	.align 32
	.type	_ZTSN8opendnp38IVisitorINS_7IndexedINS_23ControlRelayOutputBlockEEEEE, @object
	.size	_ZTSN8opendnp38IVisitorINS_7IndexedINS_23ControlRelayOutputBlockEEEEE, 66
_ZTSN8opendnp38IVisitorINS_7IndexedINS_23ControlRelayOutputBlockEEEEE:
	.string	"N8opendnp38IVisitorINS_7IndexedINS_23ControlRelayOutputBlockEEEEE"
	.weak	_ZTIN8opendnp38IVisitorINS_7IndexedINS_23ControlRelayOutputBlockEEEEE
	.section	.data.rel.ro._ZTIN8opendnp38IVisitorINS_7IndexedINS_23ControlRelayOutputBlockEEEEE,"awG",@progbits,_ZTIN8opendnp38IVisitorINS_7IndexedINS_23ControlRelayOutputBlockEEEEE,comdat
	.align 8
	.type	_ZTIN8opendnp38IVisitorINS_7IndexedINS_23ControlRelayOutputBlockEEEEE, @object
	.size	_ZTIN8opendnp38IVisitorINS_7IndexedINS_23ControlRelayOutputBlockEEEEE, 16
_ZTIN8opendnp38IVisitorINS_7IndexedINS_23ControlRelayOutputBlockEEEEE:
	.quad	_ZTVN10__cxxabiv117__class_type_infoE+16
	.quad	_ZTSN8opendnp38IVisitorINS_7IndexedINS_23ControlRelayOutputBlockEEEEE
	.weak	_ZTSN8opendnp314FunctorVisitorINS_7IndexedINS_23ControlRelayOutputBlockEEEZNS_18TypedCommandHeaderIS2_E19ApplySelectResponseERKNS_11ICollectionIS3_EEEUlS3_E_EE
	.section	.rodata._ZTSN8opendnp314FunctorVisitorINS_7IndexedINS_23ControlRelayOutputBlockEEEZNS_18TypedCommandHeaderIS2_E19ApplySelectResponseERKNS_11ICollectionIS3_EEEUlS3_E_EE,"aG",@progbits,_ZTSN8opendnp314FunctorVisitorINS_7IndexedINS_23ControlRelayOutputBlockEEEZNS_18TypedCommandHeaderIS2_E19ApplySelectResponseERKNS_11ICollectionIS3_EEEUlS3_E_EE,comdat
	.align 32
	.type	_ZTSN8opendnp314FunctorVisitorINS_7IndexedINS_23ControlRelayOutputBlockEEEZNS_18TypedCommandHeaderIS2_E19ApplySelectResponseERKNS_11ICollectionIS3_EEEUlS3_E_EE, @object
	.size	_ZTSN8opendnp314FunctorVisitorINS_7IndexedINS_23ControlRelayOutputBlockEEEZNS_18TypedCommandHeaderIS2_E19ApplySelectResponseERKNS_11ICollectionIS3_EEEUlS3_E_EE, 156
_ZTSN8opendnp314FunctorVisitorINS_7IndexedINS_23ControlRelayOutputBlockEEEZNS_18TypedCommandHeaderIS2_E19ApplySelectResponseERKNS_11ICollectionIS3_EEEUlS3_E_EE:
	.string	"N8opendnp314FunctorVisitorINS_7IndexedINS_23ControlRelayOutputBlockEEEZNS_18TypedCommandHeaderIS2_E19ApplySelectResponseERKNS_11ICollectionIS3_EEEUlS3_E_EE"
	.weak	_ZTIN8opendnp314FunctorVisitorINS_7IndexedINS_23ControlRelayOutputBlockEEEZNS_18TypedCommandHeaderIS2_E19ApplySelectResponseERKNS_11ICollectionIS3_EEEUlS3_E_EE
	.section	.data.rel.ro._ZTIN8opendnp314FunctorVisitorINS_7IndexedINS_23ControlRelayOutputBlockEEEZNS_18TypedCommandHeaderIS2_E19ApplySelectResponseERKNS_11ICollectionIS3_EEEUlS3_E_EE,"awG",@progbits,_ZTIN8opendnp314FunctorVisitorINS_7IndexedINS_23ControlRelayOutputBlockEEEZNS_18TypedCommandHeaderIS2_E19ApplySelectResponseERKNS_11ICollectionIS3_EEEUlS3_E_EE,comdat
	.align 8
	.type	_ZTIN8opendnp314FunctorVisitorINS_7IndexedINS_23ControlRelayOutputBlockEEEZNS_18TypedCommandHeaderIS2_E19ApplySelectResponseERKNS_11ICollectionIS3_EEEUlS3_E_EE, @object
	.size	_ZTIN8opendnp314FunctorVisitorINS_7IndexedINS_23ControlRelayOutputBlockEEEZNS_18TypedCommandHeaderIS2_E19ApplySelectResponseERKNS_11ICollectionIS3_EEEUlS3_E_EE, 24
_ZTIN8opendnp314FunctorVisitorINS_7IndexedINS_23ControlRelayOutputBlockEEEZNS_18TypedCommandHeaderIS2_E19ApplySelectResponseERKNS_11ICollectionIS3_EEEUlS3_E_EE:
	.quad	_ZTVN10__cxxabiv120__si_class_type_infoE+16
	.quad	_ZTSN8opendnp314FunctorVisitorINS_7IndexedINS_23ControlRelayOutputBlockEEEZNS_18TypedCommandHeaderIS2_E19ApplySelectResponseERKNS_11ICollectionIS3_EEEUlS3_E_EE
	.quad	_ZTIN8opendnp38IVisitorINS_7IndexedINS_23ControlRelayOutputBlockEEEEE
	.weak	_ZTSN8opendnp314FunctorVisitorINS_7IndexedINS_23ControlRelayOutputBlockEEEZNS_18TypedCommandHeaderIS2_E20ApplyOperateResponseERKNS_11ICollectionIS3_EEEUlS3_E_EE
	.section	.rodata._ZTSN8opendnp314FunctorVisitorINS_7IndexedINS_23ControlRelayOutputBlockEEEZNS_18TypedCommandHeaderIS2_E20ApplyOperateResponseERKNS_11ICollectionIS3_EEEUlS3_E_EE,"aG",@progbits,_ZTSN8opendnp314FunctorVisitorINS_7IndexedINS_23ControlRelayOutputBlockEEEZNS_18TypedCommandHeaderIS2_E20ApplyOperateResponseERKNS_11ICollectionIS3_EEEUlS3_E_EE,comdat
	.align 32
	.type	_ZTSN8opendnp314FunctorVisitorINS_7IndexedINS_23ControlRelayOutputBlockEEEZNS_18TypedCommandHeaderIS2_E20ApplyOperateResponseERKNS_11ICollectionIS3_EEEUlS3_E_EE, @object
	.size	_ZTSN8opendnp314FunctorVisitorINS_7IndexedINS_23ControlRelayOutputBlockEEEZNS_18TypedCommandHeaderIS2_E20ApplyOperateResponseERKNS_11ICollectionIS3_EEEUlS3_E_EE, 157
_ZTSN8opendnp314FunctorVisitorINS_7IndexedINS_23ControlRelayOutputBlockEEEZNS_18TypedCommandHeaderIS2_E20ApplyOperateResponseERKNS_11ICollectionIS3_EEEUlS3_E_EE:
	.string	"N8opendnp314FunctorVisitorINS_7IndexedINS_23ControlRelayOutputBlockEEEZNS_18TypedCommandHeaderIS2_E20ApplyOperateResponseERKNS_11ICollectionIS3_EEEUlS3_E_EE"
	.weak	_ZTIN8opendnp314FunctorVisitorINS_7IndexedINS_23ControlRelayOutputBlockEEEZNS_18TypedCommandHeaderIS2_E20ApplyOperateResponseERKNS_11ICollectionIS3_EEEUlS3_E_EE
	.section	.data.rel.ro._ZTIN8opendnp314FunctorVisitorINS_7IndexedINS_23ControlRelayOutputBlockEEEZNS_18TypedCommandHeaderIS2_E20ApplyOperateResponseERKNS_11ICollectionIS3_EEEUlS3_E_EE,"awG",@progbits,_ZTIN8opendnp314FunctorVisitorINS_7IndexedINS_23ControlRelayOutputBlockEEEZNS_18TypedCommandHeaderIS2_E20ApplyOperateResponseERKNS_11ICollectionIS3_EEEUlS3_E_EE,comdat
	.align 8
	.type	_ZTIN8opendnp314FunctorVisitorINS_7IndexedINS_23ControlRelayOutputBlockEEEZNS_18TypedCommandHeaderIS2_E20ApplyOperateResponseERKNS_11ICollectionIS3_EEEUlS3_E_EE, @object
	.size	_ZTIN8opendnp314FunctorVisitorINS_7IndexedINS_23ControlRelayOutputBlockEEEZNS_18TypedCommandHeaderIS2_E20ApplyOperateResponseERKNS_11ICollectionIS3_EEEUlS3_E_EE, 24
_ZTIN8opendnp314FunctorVisitorINS_7IndexedINS_23ControlRelayOutputBlockEEEZNS_18TypedCommandHeaderIS2_E20ApplyOperateResponseERKNS_11ICollectionIS3_EEEUlS3_E_EE:
	.quad	_ZTVN10__cxxabiv120__si_class_type_infoE+16
	.quad	_ZTSN8opendnp314FunctorVisitorINS_7IndexedINS_23ControlRelayOutputBlockEEEZNS_18TypedCommandHeaderIS2_E20ApplyOperateResponseERKNS_11ICollectionIS3_EEEUlS3_E_EE
	.quad	_ZTIN8opendnp38IVisitorINS_7IndexedINS_23ControlRelayOutputBlockEEEEE
	.weak	_ZTVN8opendnp314FunctorVisitorINS_7IndexedINS_20AnalogOutputDouble64EEEZNS_18TypedCommandHeaderIS2_E19ApplySelectResponseERKNS_11ICollectionIS3_EEEUlS3_E_EE
	.section	.data.rel.ro._ZTVN8opendnp314FunctorVisitorINS_7IndexedINS_20AnalogOutputDouble64EEEZNS_18TypedCommandHeaderIS2_E19ApplySelectResponseERKNS_11ICollectionIS3_EEEUlS3_E_EE,"awG",@progbits,_ZTVN8opendnp314FunctorVisitorINS_7IndexedINS_20AnalogOutputDouble64EEEZNS_18TypedCommandHeaderIS2_E19ApplySelectResponseERKNS_11ICollectionIS3_EEEUlS3_E_EE,comdat
	.align 8
	.type	_ZTVN8opendnp314FunctorVisitorINS_7IndexedINS_20AnalogOutputDouble64EEEZNS_18TypedCommandHeaderIS2_E19ApplySelectResponseERKNS_11ICollectionIS3_EEEUlS3_E_EE, @object
	.size	_ZTVN8opendnp314FunctorVisitorINS_7IndexedINS_20AnalogOutputDouble64EEEZNS_18TypedCommandHeaderIS2_E19ApplySelectResponseERKNS_11ICollectionIS3_EEEUlS3_E_EE, 24
_ZTVN8opendnp314FunctorVisitorINS_7IndexedINS_20AnalogOutputDouble64EEEZNS_18TypedCommandHeaderIS2_E19ApplySelectResponseERKNS_11ICollectionIS3_EEEUlS3_E_EE:
	.quad	0
	.quad	_ZTIN8opendnp314FunctorVisitorINS_7IndexedINS_20AnalogOutputDouble64EEEZNS_18TypedCommandHeaderIS2_E19ApplySelectResponseERKNS_11ICollectionIS3_EEEUlS3_E_EE
	.quad	_ZN8opendnp314FunctorVisitorINS_7IndexedINS_20AnalogOutputDouble64EEEZNS_18TypedCommandHeaderIS2_E19ApplySelectResponseERKNS_11ICollectionIS3_EEEUlS3_E_E7OnValueERKS3_
	.weak	_ZTVN8opendnp314FunctorVisitorINS_7IndexedINS_20AnalogOutputDouble64EEEZNS_18TypedCommandHeaderIS2_E20ApplyOperateResponseERKNS_11ICollectionIS3_EEEUlS3_E_EE
	.section	.data.rel.ro._ZTVN8opendnp314FunctorVisitorINS_7IndexedINS_20AnalogOutputDouble64EEEZNS_18TypedCommandHeaderIS2_E20ApplyOperateResponseERKNS_11ICollectionIS3_EEEUlS3_E_EE,"awG",@progbits,_ZTVN8opendnp314FunctorVisitorINS_7IndexedINS_20AnalogOutputDouble64EEEZNS_18TypedCommandHeaderIS2_E20ApplyOperateResponseERKNS_11ICollectionIS3_EEEUlS3_E_EE,comdat
	.align 8
	.type	_ZTVN8opendnp314FunctorVisitorINS_7IndexedINS_20AnalogOutputDouble64EEEZNS_18TypedCommandHeaderIS2_E20ApplyOperateResponseERKNS_11ICollectionIS3_EEEUlS3_E_EE, @object
	.size	_ZTVN8opendnp314FunctorVisitorINS_7IndexedINS_20AnalogOutputDouble64EEEZNS_18TypedCommandHeaderIS2_E20ApplyOperateResponseERKNS_11ICollectionIS3_EEEUlS3_E_EE, 24
_ZTVN8opendnp314FunctorVisitorINS_7IndexedINS_20AnalogOutputDouble64EEEZNS_18TypedCommandHeaderIS2_E20ApplyOperateResponseERKNS_11ICollectionIS3_EEEUlS3_E_EE:
	.quad	0
	.quad	_ZTIN8opendnp314FunctorVisitorINS_7IndexedINS_20AnalogOutputDouble64EEEZNS_18TypedCommandHeaderIS2_E20ApplyOperateResponseERKNS_11ICollectionIS3_EEEUlS3_E_EE
	.quad	_ZN8opendnp314FunctorVisitorINS_7IndexedINS_20AnalogOutputDouble64EEEZNS_18TypedCommandHeaderIS2_E20ApplyOperateResponseERKNS_11ICollectionIS3_EEEUlS3_E_E7OnValueERKS3_
	.weak	_ZTVN8opendnp314FunctorVisitorINS_7IndexedINS_19AnalogOutputFloat32EEEZNS_18TypedCommandHeaderIS2_E19ApplySelectResponseERKNS_11ICollectionIS3_EEEUlS3_E_EE
	.section	.data.rel.ro._ZTVN8opendnp314FunctorVisitorINS_7IndexedINS_19AnalogOutputFloat32EEEZNS_18TypedCommandHeaderIS2_E19ApplySelectResponseERKNS_11ICollectionIS3_EEEUlS3_E_EE,"awG",@progbits,_ZTVN8opendnp314FunctorVisitorINS_7IndexedINS_19AnalogOutputFloat32EEEZNS_18TypedCommandHeaderIS2_E19ApplySelectResponseERKNS_11ICollectionIS3_EEEUlS3_E_EE,comdat
	.align 8
	.type	_ZTVN8opendnp314FunctorVisitorINS_7IndexedINS_19AnalogOutputFloat32EEEZNS_18TypedCommandHeaderIS2_E19ApplySelectResponseERKNS_11ICollectionIS3_EEEUlS3_E_EE, @object
	.size	_ZTVN8opendnp314FunctorVisitorINS_7IndexedINS_19AnalogOutputFloat32EEEZNS_18TypedCommandHeaderIS2_E19ApplySelectResponseERKNS_11ICollectionIS3_EEEUlS3_E_EE, 24
_ZTVN8opendnp314FunctorVisitorINS_7IndexedINS_19AnalogOutputFloat32EEEZNS_18TypedCommandHeaderIS2_E19ApplySelectResponseERKNS_11ICollectionIS3_EEEUlS3_E_EE:
	.quad	0
	.quad	_ZTIN8opendnp314FunctorVisitorINS_7IndexedINS_19AnalogOutputFloat32EEEZNS_18TypedCommandHeaderIS2_E19ApplySelectResponseERKNS_11ICollectionIS3_EEEUlS3_E_EE
	.quad	_ZN8opendnp314FunctorVisitorINS_7IndexedINS_19AnalogOutputFloat32EEEZNS_18TypedCommandHeaderIS2_E19ApplySelectResponseERKNS_11ICollectionIS3_EEEUlS3_E_E7OnValueERKS3_
	.weak	_ZTVN8opendnp314FunctorVisitorINS_7IndexedINS_19AnalogOutputFloat32EEEZNS_18TypedCommandHeaderIS2_E20ApplyOperateResponseERKNS_11ICollectionIS3_EEEUlS3_E_EE
	.section	.data.rel.ro._ZTVN8opendnp314FunctorVisitorINS_7IndexedINS_19AnalogOutputFloat32EEEZNS_18TypedCommandHeaderIS2_E20ApplyOperateResponseERKNS_11ICollectionIS3_EEEUlS3_E_EE,"awG",@progbits,_ZTVN8opendnp314FunctorVisitorINS_7IndexedINS_19AnalogOutputFloat32EEEZNS_18TypedCommandHeaderIS2_E20ApplyOperateResponseERKNS_11ICollectionIS3_EEEUlS3_E_EE,comdat
	.align 8
	.type	_ZTVN8opendnp314FunctorVisitorINS_7IndexedINS_19AnalogOutputFloat32EEEZNS_18TypedCommandHeaderIS2_E20ApplyOperateResponseERKNS_11ICollectionIS3_EEEUlS3_E_EE, @object
	.size	_ZTVN8opendnp314FunctorVisitorINS_7IndexedINS_19AnalogOutputFloat32EEEZNS_18TypedCommandHeaderIS2_E20ApplyOperateResponseERKNS_11ICollectionIS3_EEEUlS3_E_EE, 24
_ZTVN8opendnp314FunctorVisitorINS_7IndexedINS_19AnalogOutputFloat32EEEZNS_18TypedCommandHeaderIS2_E20ApplyOperateResponseERKNS_11ICollectionIS3_EEEUlS3_E_EE:
	.quad	0
	.quad	_ZTIN8opendnp314FunctorVisitorINS_7IndexedINS_19AnalogOutputFloat32EEEZNS_18TypedCommandHeaderIS2_E20ApplyOperateResponseERKNS_11ICollectionIS3_EEEUlS3_E_EE
	.quad	_ZN8opendnp314FunctorVisitorINS_7IndexedINS_19AnalogOutputFloat32EEEZNS_18TypedCommandHeaderIS2_E20ApplyOperateResponseERKNS_11ICollectionIS3_EEEUlS3_E_E7OnValueERKS3_
	.weak	_ZTVN8opendnp314FunctorVisitorINS_7IndexedINS_17AnalogOutputInt16EEEZNS_18TypedCommandHeaderIS2_E19ApplySelectResponseERKNS_11ICollectionIS3_EEEUlS3_E_EE
	.section	.data.rel.ro._ZTVN8opendnp314FunctorVisitorINS_7IndexedINS_17AnalogOutputInt16EEEZNS_18TypedCommandHeaderIS2_E19ApplySelectResponseERKNS_11ICollectionIS3_EEEUlS3_E_EE,"awG",@progbits,_ZTVN8opendnp314FunctorVisitorINS_7IndexedINS_17AnalogOutputInt16EEEZNS_18TypedCommandHeaderIS2_E19ApplySelectResponseERKNS_11ICollectionIS3_EEEUlS3_E_EE,comdat
	.align 8
	.type	_ZTVN8opendnp314FunctorVisitorINS_7IndexedINS_17AnalogOutputInt16EEEZNS_18TypedCommandHeaderIS2_E19ApplySelectResponseERKNS_11ICollectionIS3_EEEUlS3_E_EE, @object
	.size	_ZTVN8opendnp314FunctorVisitorINS_7IndexedINS_17AnalogOutputInt16EEEZNS_18TypedCommandHeaderIS2_E19ApplySelectResponseERKNS_11ICollectionIS3_EEEUlS3_E_EE, 24
_ZTVN8opendnp314FunctorVisitorINS_7IndexedINS_17AnalogOutputInt16EEEZNS_18TypedCommandHeaderIS2_E19ApplySelectResponseERKNS_11ICollectionIS3_EEEUlS3_E_EE:
	.quad	0
	.quad	_ZTIN8opendnp314FunctorVisitorINS_7IndexedINS_17AnalogOutputInt16EEEZNS_18TypedCommandHeaderIS2_E19ApplySelectResponseERKNS_11ICollectionIS3_EEEUlS3_E_EE
	.quad	_ZN8opendnp314FunctorVisitorINS_7IndexedINS_17AnalogOutputInt16EEEZNS_18TypedCommandHeaderIS2_E19ApplySelectResponseERKNS_11ICollectionIS3_EEEUlS3_E_E7OnValueERKS3_
	.weak	_ZTVN8opendnp314FunctorVisitorINS_7IndexedINS_17AnalogOutputInt16EEEZNS_18TypedCommandHeaderIS2_E20ApplyOperateResponseERKNS_11ICollectionIS3_EEEUlS3_E_EE
	.section	.data.rel.ro._ZTVN8opendnp314FunctorVisitorINS_7IndexedINS_17AnalogOutputInt16EEEZNS_18TypedCommandHeaderIS2_E20ApplyOperateResponseERKNS_11ICollectionIS3_EEEUlS3_E_EE,"awG",@progbits,_ZTVN8opendnp314FunctorVisitorINS_7IndexedINS_17AnalogOutputInt16EEEZNS_18TypedCommandHeaderIS2_E20ApplyOperateResponseERKNS_11ICollectionIS3_EEEUlS3_E_EE,comdat
	.align 8
	.type	_ZTVN8opendnp314FunctorVisitorINS_7IndexedINS_17AnalogOutputInt16EEEZNS_18TypedCommandHeaderIS2_E20ApplyOperateResponseERKNS_11ICollectionIS3_EEEUlS3_E_EE, @object
	.size	_ZTVN8opendnp314FunctorVisitorINS_7IndexedINS_17AnalogOutputInt16EEEZNS_18TypedCommandHeaderIS2_E20ApplyOperateResponseERKNS_11ICollectionIS3_EEEUlS3_E_EE, 24
_ZTVN8opendnp314FunctorVisitorINS_7IndexedINS_17AnalogOutputInt16EEEZNS_18TypedCommandHeaderIS2_E20ApplyOperateResponseERKNS_11ICollectionIS3_EEEUlS3_E_EE:
	.quad	0
	.quad	_ZTIN8opendnp314FunctorVisitorINS_7IndexedINS_17AnalogOutputInt16EEEZNS_18TypedCommandHeaderIS2_E20ApplyOperateResponseERKNS_11ICollectionIS3_EEEUlS3_E_EE
	.quad	_ZN8opendnp314FunctorVisitorINS_7IndexedINS_17AnalogOutputInt16EEEZNS_18TypedCommandHeaderIS2_E20ApplyOperateResponseERKNS_11ICollectionIS3_EEEUlS3_E_E7OnValueERKS3_
	.weak	_ZTVN8opendnp314FunctorVisitorINS_7IndexedINS_17AnalogOutputInt32EEEZNS_18TypedCommandHeaderIS2_E19ApplySelectResponseERKNS_11ICollectionIS3_EEEUlS3_E_EE
	.section	.data.rel.ro._ZTVN8opendnp314FunctorVisitorINS_7IndexedINS_17AnalogOutputInt32EEEZNS_18TypedCommandHeaderIS2_E19ApplySelectResponseERKNS_11ICollectionIS3_EEEUlS3_E_EE,"awG",@progbits,_ZTVN8opendnp314FunctorVisitorINS_7IndexedINS_17AnalogOutputInt32EEEZNS_18TypedCommandHeaderIS2_E19ApplySelectResponseERKNS_11ICollectionIS3_EEEUlS3_E_EE,comdat
	.align 8
	.type	_ZTVN8opendnp314FunctorVisitorINS_7IndexedINS_17AnalogOutputInt32EEEZNS_18TypedCommandHeaderIS2_E19ApplySelectResponseERKNS_11ICollectionIS3_EEEUlS3_E_EE, @object
	.size	_ZTVN8opendnp314FunctorVisitorINS_7IndexedINS_17AnalogOutputInt32EEEZNS_18TypedCommandHeaderIS2_E19ApplySelectResponseERKNS_11ICollectionIS3_EEEUlS3_E_EE, 24
_ZTVN8opendnp314FunctorVisitorINS_7IndexedINS_17AnalogOutputInt32EEEZNS_18TypedCommandHeaderIS2_E19ApplySelectResponseERKNS_11ICollectionIS3_EEEUlS3_E_EE:
	.quad	0
	.quad	_ZTIN8opendnp314FunctorVisitorINS_7IndexedINS_17AnalogOutputInt32EEEZNS_18TypedCommandHeaderIS2_E19ApplySelectResponseERKNS_11ICollectionIS3_EEEUlS3_E_EE
	.quad	_ZN8opendnp314FunctorVisitorINS_7IndexedINS_17AnalogOutputInt32EEEZNS_18TypedCommandHeaderIS2_E19ApplySelectResponseERKNS_11ICollectionIS3_EEEUlS3_E_E7OnValueERKS3_
	.weak	_ZTVN8opendnp314FunctorVisitorINS_7IndexedINS_17AnalogOutputInt32EEEZNS_18TypedCommandHeaderIS2_E20ApplyOperateResponseERKNS_11ICollectionIS3_EEEUlS3_E_EE
	.section	.data.rel.ro._ZTVN8opendnp314FunctorVisitorINS_7IndexedINS_17AnalogOutputInt32EEEZNS_18TypedCommandHeaderIS2_E20ApplyOperateResponseERKNS_11ICollectionIS3_EEEUlS3_E_EE,"awG",@progbits,_ZTVN8opendnp314FunctorVisitorINS_7IndexedINS_17AnalogOutputInt32EEEZNS_18TypedCommandHeaderIS2_E20ApplyOperateResponseERKNS_11ICollectionIS3_EEEUlS3_E_EE,comdat
	.align 8
	.type	_ZTVN8opendnp314FunctorVisitorINS_7IndexedINS_17AnalogOutputInt32EEEZNS_18TypedCommandHeaderIS2_E20ApplyOperateResponseERKNS_11ICollectionIS3_EEEUlS3_E_EE, @object
	.size	_ZTVN8opendnp314FunctorVisitorINS_7IndexedINS_17AnalogOutputInt32EEEZNS_18TypedCommandHeaderIS2_E20ApplyOperateResponseERKNS_11ICollectionIS3_EEEUlS3_E_EE, 24
_ZTVN8opendnp314FunctorVisitorINS_7IndexedINS_17AnalogOutputInt32EEEZNS_18TypedCommandHeaderIS2_E20ApplyOperateResponseERKNS_11ICollectionIS3_EEEUlS3_E_EE:
	.quad	0
	.quad	_ZTIN8opendnp314FunctorVisitorINS_7IndexedINS_17AnalogOutputInt32EEEZNS_18TypedCommandHeaderIS2_E20ApplyOperateResponseERKNS_11ICollectionIS3_EEEUlS3_E_EE
	.quad	_ZN8opendnp314FunctorVisitorINS_7IndexedINS_17AnalogOutputInt32EEEZNS_18TypedCommandHeaderIS2_E20ApplyOperateResponseERKNS_11ICollectionIS3_EEEUlS3_E_E7OnValueERKS3_
	.weak	_ZTVN8opendnp314FunctorVisitorINS_7IndexedINS_23ControlRelayOutputBlockEEEZNS_18TypedCommandHeaderIS2_E19ApplySelectResponseERKNS_11ICollectionIS3_EEEUlS3_E_EE
	.section	.data.rel.ro._ZTVN8opendnp314FunctorVisitorINS_7IndexedINS_23ControlRelayOutputBlockEEEZNS_18TypedCommandHeaderIS2_E19ApplySelectResponseERKNS_11ICollectionIS3_EEEUlS3_E_EE,"awG",@progbits,_ZTVN8opendnp314FunctorVisitorINS_7IndexedINS_23ControlRelayOutputBlockEEEZNS_18TypedCommandHeaderIS2_E19ApplySelectResponseERKNS_11ICollectionIS3_EEEUlS3_E_EE,comdat
	.align 8
	.type	_ZTVN8opendnp314FunctorVisitorINS_7IndexedINS_23ControlRelayOutputBlockEEEZNS_18TypedCommandHeaderIS2_E19ApplySelectResponseERKNS_11ICollectionIS3_EEEUlS3_E_EE, @object
	.size	_ZTVN8opendnp314FunctorVisitorINS_7IndexedINS_23ControlRelayOutputBlockEEEZNS_18TypedCommandHeaderIS2_E19ApplySelectResponseERKNS_11ICollectionIS3_EEEUlS3_E_EE, 24
_ZTVN8opendnp314FunctorVisitorINS_7IndexedINS_23ControlRelayOutputBlockEEEZNS_18TypedCommandHeaderIS2_E19ApplySelectResponseERKNS_11ICollectionIS3_EEEUlS3_E_EE:
	.quad	0
	.quad	_ZTIN8opendnp314FunctorVisitorINS_7IndexedINS_23ControlRelayOutputBlockEEEZNS_18TypedCommandHeaderIS2_E19ApplySelectResponseERKNS_11ICollectionIS3_EEEUlS3_E_EE
	.quad	_ZN8opendnp314FunctorVisitorINS_7IndexedINS_23ControlRelayOutputBlockEEEZNS_18TypedCommandHeaderIS2_E19ApplySelectResponseERKNS_11ICollectionIS3_EEEUlS3_E_E7OnValueERKS3_
	.weak	_ZTVN8opendnp314FunctorVisitorINS_7IndexedINS_23ControlRelayOutputBlockEEEZNS_18TypedCommandHeaderIS2_E20ApplyOperateResponseERKNS_11ICollectionIS3_EEEUlS3_E_EE
	.section	.data.rel.ro._ZTVN8opendnp314FunctorVisitorINS_7IndexedINS_23ControlRelayOutputBlockEEEZNS_18TypedCommandHeaderIS2_E20ApplyOperateResponseERKNS_11ICollectionIS3_EEEUlS3_E_EE,"awG",@progbits,_ZTVN8opendnp314FunctorVisitorINS_7IndexedINS_23ControlRelayOutputBlockEEEZNS_18TypedCommandHeaderIS2_E20ApplyOperateResponseERKNS_11ICollectionIS3_EEEUlS3_E_EE,comdat
	.align 8
	.type	_ZTVN8opendnp314FunctorVisitorINS_7IndexedINS_23ControlRelayOutputBlockEEEZNS_18TypedCommandHeaderIS2_E20ApplyOperateResponseERKNS_11ICollectionIS3_EEEUlS3_E_EE, @object
	.size	_ZTVN8opendnp314FunctorVisitorINS_7IndexedINS_23ControlRelayOutputBlockEEEZNS_18TypedCommandHeaderIS2_E20ApplyOperateResponseERKNS_11ICollectionIS3_EEEUlS3_E_EE, 24
_ZTVN8opendnp314FunctorVisitorINS_7IndexedINS_23ControlRelayOutputBlockEEEZNS_18TypedCommandHeaderIS2_E20ApplyOperateResponseERKNS_11ICollectionIS3_EEEUlS3_E_EE:
	.quad	0
	.quad	_ZTIN8opendnp314FunctorVisitorINS_7IndexedINS_23ControlRelayOutputBlockEEEZNS_18TypedCommandHeaderIS2_E20ApplyOperateResponseERKNS_11ICollectionIS3_EEEUlS3_E_EE
	.quad	_ZN8opendnp314FunctorVisitorINS_7IndexedINS_23ControlRelayOutputBlockEEEZNS_18TypedCommandHeaderIS2_E20ApplyOperateResponseERKNS_11ICollectionIS3_EEEUlS3_E_E7OnValueERKS3_
	.weak	_ZTSN8opendnp311ICollectionINS_12CommandStateEEE
	.section	.rodata._ZTSN8opendnp311ICollectionINS_12CommandStateEEE,"aG",@progbits,_ZTSN8opendnp311ICollectionINS_12CommandStateEEE,comdat
	.align 32
	.type	_ZTSN8opendnp311ICollectionINS_12CommandStateEEE, @object
	.size	_ZTSN8opendnp311ICollectionINS_12CommandStateEEE, 45
_ZTSN8opendnp311ICollectionINS_12CommandStateEEE:
	.string	"N8opendnp311ICollectionINS_12CommandStateEEE"
	.weak	_ZTIN8opendnp311ICollectionINS_12CommandStateEEE
	.section	.data.rel.ro._ZTIN8opendnp311ICollectionINS_12CommandStateEEE,"awG",@progbits,_ZTIN8opendnp311ICollectionINS_12CommandStateEEE,comdat
	.align 8
	.type	_ZTIN8opendnp311ICollectionINS_12CommandStateEEE, @object
	.size	_ZTIN8opendnp311ICollectionINS_12CommandStateEEE, 16
_ZTIN8opendnp311ICollectionINS_12CommandStateEEE:
	.quad	_ZTVN10__cxxabiv117__class_type_infoE+16
	.quad	_ZTSN8opendnp311ICollectionINS_12CommandStateEEE
	.weak	_ZTSN8opendnp314ICommandHeaderE
	.section	.rodata._ZTSN8opendnp314ICommandHeaderE,"aG",@progbits,_ZTSN8opendnp314ICommandHeaderE,comdat
	.align 16
	.type	_ZTSN8opendnp314ICommandHeaderE, @object
	.size	_ZTSN8opendnp314ICommandHeaderE, 28
_ZTSN8opendnp314ICommandHeaderE:
	.string	"N8opendnp314ICommandHeaderE"
	.weak	_ZTIN8opendnp314ICommandHeaderE
	.section	.data.rel.ro._ZTIN8opendnp314ICommandHeaderE,"awG",@progbits,_ZTIN8opendnp314ICommandHeaderE,comdat
	.align 8
	.type	_ZTIN8opendnp314ICommandHeaderE, @object
	.size	_ZTIN8opendnp314ICommandHeaderE, 24
_ZTIN8opendnp314ICommandHeaderE:
	.quad	_ZTVN10__cxxabiv120__si_class_type_infoE+16
	.quad	_ZTSN8opendnp314ICommandHeaderE
	.quad	_ZTIN8opendnp311ICollectionINS_12CommandStateEEE
	.weak	_ZTSN8opendnp318ICommandCollectionINS_23ControlRelayOutputBlockEEE
	.section	.rodata._ZTSN8opendnp318ICommandCollectionINS_23ControlRelayOutputBlockEEE,"aG",@progbits,_ZTSN8opendnp318ICommandCollectionINS_23ControlRelayOutputBlockEEE,comdat
	.align 32
	.type	_ZTSN8opendnp318ICommandCollectionINS_23ControlRelayOutputBlockEEE, @object
	.size	_ZTSN8opendnp318ICommandCollectionINS_23ControlRelayOutputBlockEEE, 63
_ZTSN8opendnp318ICommandCollectionINS_23ControlRelayOutputBlockEEE:
	.string	"N8opendnp318ICommandCollectionINS_23ControlRelayOutputBlockEEE"
	.weak	_ZTIN8opendnp318ICommandCollectionINS_23ControlRelayOutputBlockEEE
	.section	.data.rel.ro._ZTIN8opendnp318ICommandCollectionINS_23ControlRelayOutputBlockEEE,"awG",@progbits,_ZTIN8opendnp318ICommandCollectionINS_23ControlRelayOutputBlockEEE,comdat
	.align 8
	.type	_ZTIN8opendnp318ICommandCollectionINS_23ControlRelayOutputBlockEEE, @object
	.size	_ZTIN8opendnp318ICommandCollectionINS_23ControlRelayOutputBlockEEE, 16
_ZTIN8opendnp318ICommandCollectionINS_23ControlRelayOutputBlockEEE:
	.quad	_ZTVN10__cxxabiv117__class_type_infoE+16
	.quad	_ZTSN8opendnp318ICommandCollectionINS_23ControlRelayOutputBlockEEE
	.weak	_ZTSN8opendnp318TypedCommandHeaderINS_23ControlRelayOutputBlockEEE
	.section	.rodata._ZTSN8opendnp318TypedCommandHeaderINS_23ControlRelayOutputBlockEEE,"aG",@progbits,_ZTSN8opendnp318TypedCommandHeaderINS_23ControlRelayOutputBlockEEE,comdat
	.align 32
	.type	_ZTSN8opendnp318TypedCommandHeaderINS_23ControlRelayOutputBlockEEE, @object
	.size	_ZTSN8opendnp318TypedCommandHeaderINS_23ControlRelayOutputBlockEEE, 63
_ZTSN8opendnp318TypedCommandHeaderINS_23ControlRelayOutputBlockEEE:
	.string	"N8opendnp318TypedCommandHeaderINS_23ControlRelayOutputBlockEEE"
	.weak	_ZTIN8opendnp318TypedCommandHeaderINS_23ControlRelayOutputBlockEEE
	.section	.data.rel.ro._ZTIN8opendnp318TypedCommandHeaderINS_23ControlRelayOutputBlockEEE,"awG",@progbits,_ZTIN8opendnp318TypedCommandHeaderINS_23ControlRelayOutputBlockEEE,comdat
	.align 8
	.type	_ZTIN8opendnp318TypedCommandHeaderINS_23ControlRelayOutputBlockEEE, @object
	.size	_ZTIN8opendnp318TypedCommandHeaderINS_23ControlRelayOutputBlockEEE, 56
_ZTIN8opendnp318TypedCommandHeaderINS_23ControlRelayOutputBlockEEE:
	.quad	_ZTVN10__cxxabiv121__vmi_class_type_infoE+16
	.quad	_ZTSN8opendnp318TypedCommandHeaderINS_23ControlRelayOutputBlockEEE
	.long	0
	.long	2
	.quad	_ZTIN8opendnp314ICommandHeaderE
	.quad	2
	.quad	_ZTIN8opendnp318ICommandCollectionINS_23ControlRelayOutputBlockEEE
	.quad	2050
	.weak	_ZTSN8opendnp318ICommandCollectionINS_17AnalogOutputInt32EEE
	.section	.rodata._ZTSN8opendnp318ICommandCollectionINS_17AnalogOutputInt32EEE,"aG",@progbits,_ZTSN8opendnp318ICommandCollectionINS_17AnalogOutputInt32EEE,comdat
	.align 32
	.type	_ZTSN8opendnp318ICommandCollectionINS_17AnalogOutputInt32EEE, @object
	.size	_ZTSN8opendnp318ICommandCollectionINS_17AnalogOutputInt32EEE, 57
_ZTSN8opendnp318ICommandCollectionINS_17AnalogOutputInt32EEE:
	.string	"N8opendnp318ICommandCollectionINS_17AnalogOutputInt32EEE"
	.weak	_ZTIN8opendnp318ICommandCollectionINS_17AnalogOutputInt32EEE
	.section	.data.rel.ro._ZTIN8opendnp318ICommandCollectionINS_17AnalogOutputInt32EEE,"awG",@progbits,_ZTIN8opendnp318ICommandCollectionINS_17AnalogOutputInt32EEE,comdat
	.align 8
	.type	_ZTIN8opendnp318ICommandCollectionINS_17AnalogOutputInt32EEE, @object
	.size	_ZTIN8opendnp318ICommandCollectionINS_17AnalogOutputInt32EEE, 16
_ZTIN8opendnp318ICommandCollectionINS_17AnalogOutputInt32EEE:
	.quad	_ZTVN10__cxxabiv117__class_type_infoE+16
	.quad	_ZTSN8opendnp318ICommandCollectionINS_17AnalogOutputInt32EEE
	.weak	_ZTSN8opendnp318TypedCommandHeaderINS_17AnalogOutputInt32EEE
	.section	.rodata._ZTSN8opendnp318TypedCommandHeaderINS_17AnalogOutputInt32EEE,"aG",@progbits,_ZTSN8opendnp318TypedCommandHeaderINS_17AnalogOutputInt32EEE,comdat
	.align 32
	.type	_ZTSN8opendnp318TypedCommandHeaderINS_17AnalogOutputInt32EEE, @object
	.size	_ZTSN8opendnp318TypedCommandHeaderINS_17AnalogOutputInt32EEE, 57
_ZTSN8opendnp318TypedCommandHeaderINS_17AnalogOutputInt32EEE:
	.string	"N8opendnp318TypedCommandHeaderINS_17AnalogOutputInt32EEE"
	.weak	_ZTIN8opendnp318TypedCommandHeaderINS_17AnalogOutputInt32EEE
	.section	.data.rel.ro._ZTIN8opendnp318TypedCommandHeaderINS_17AnalogOutputInt32EEE,"awG",@progbits,_ZTIN8opendnp318TypedCommandHeaderINS_17AnalogOutputInt32EEE,comdat
	.align 8
	.type	_ZTIN8opendnp318TypedCommandHeaderINS_17AnalogOutputInt32EEE, @object
	.size	_ZTIN8opendnp318TypedCommandHeaderINS_17AnalogOutputInt32EEE, 56
_ZTIN8opendnp318TypedCommandHeaderINS_17AnalogOutputInt32EEE:
	.quad	_ZTVN10__cxxabiv121__vmi_class_type_infoE+16
	.quad	_ZTSN8opendnp318TypedCommandHeaderINS_17AnalogOutputInt32EEE
	.long	0
	.long	2
	.quad	_ZTIN8opendnp314ICommandHeaderE
	.quad	2
	.quad	_ZTIN8opendnp318ICommandCollectionINS_17AnalogOutputInt32EEE
	.quad	2050
	.weak	_ZTSN8opendnp318ICommandCollectionINS_17AnalogOutputInt16EEE
	.section	.rodata._ZTSN8opendnp318ICommandCollectionINS_17AnalogOutputInt16EEE,"aG",@progbits,_ZTSN8opendnp318ICommandCollectionINS_17AnalogOutputInt16EEE,comdat
	.align 32
	.type	_ZTSN8opendnp318ICommandCollectionINS_17AnalogOutputInt16EEE, @object
	.size	_ZTSN8opendnp318ICommandCollectionINS_17AnalogOutputInt16EEE, 57
_ZTSN8opendnp318ICommandCollectionINS_17AnalogOutputInt16EEE:
	.string	"N8opendnp318ICommandCollectionINS_17AnalogOutputInt16EEE"
	.weak	_ZTIN8opendnp318ICommandCollectionINS_17AnalogOutputInt16EEE
	.section	.data.rel.ro._ZTIN8opendnp318ICommandCollectionINS_17AnalogOutputInt16EEE,"awG",@progbits,_ZTIN8opendnp318ICommandCollectionINS_17AnalogOutputInt16EEE,comdat
	.align 8
	.type	_ZTIN8opendnp318ICommandCollectionINS_17AnalogOutputInt16EEE, @object
	.size	_ZTIN8opendnp318ICommandCollectionINS_17AnalogOutputInt16EEE, 16
_ZTIN8opendnp318ICommandCollectionINS_17AnalogOutputInt16EEE:
	.quad	_ZTVN10__cxxabiv117__class_type_infoE+16
	.quad	_ZTSN8opendnp318ICommandCollectionINS_17AnalogOutputInt16EEE
	.weak	_ZTSN8opendnp318TypedCommandHeaderINS_17AnalogOutputInt16EEE
	.section	.rodata._ZTSN8opendnp318TypedCommandHeaderINS_17AnalogOutputInt16EEE,"aG",@progbits,_ZTSN8opendnp318TypedCommandHeaderINS_17AnalogOutputInt16EEE,comdat
	.align 32
	.type	_ZTSN8opendnp318TypedCommandHeaderINS_17AnalogOutputInt16EEE, @object
	.size	_ZTSN8opendnp318TypedCommandHeaderINS_17AnalogOutputInt16EEE, 57
_ZTSN8opendnp318TypedCommandHeaderINS_17AnalogOutputInt16EEE:
	.string	"N8opendnp318TypedCommandHeaderINS_17AnalogOutputInt16EEE"
	.weak	_ZTIN8opendnp318TypedCommandHeaderINS_17AnalogOutputInt16EEE
	.section	.data.rel.ro._ZTIN8opendnp318TypedCommandHeaderINS_17AnalogOutputInt16EEE,"awG",@progbits,_ZTIN8opendnp318TypedCommandHeaderINS_17AnalogOutputInt16EEE,comdat
	.align 8
	.type	_ZTIN8opendnp318TypedCommandHeaderINS_17AnalogOutputInt16EEE, @object
	.size	_ZTIN8opendnp318TypedCommandHeaderINS_17AnalogOutputInt16EEE, 56
_ZTIN8opendnp318TypedCommandHeaderINS_17AnalogOutputInt16EEE:
	.quad	_ZTVN10__cxxabiv121__vmi_class_type_infoE+16
	.quad	_ZTSN8opendnp318TypedCommandHeaderINS_17AnalogOutputInt16EEE
	.long	0
	.long	2
	.quad	_ZTIN8opendnp314ICommandHeaderE
	.quad	2
	.quad	_ZTIN8opendnp318ICommandCollectionINS_17AnalogOutputInt16EEE
	.quad	2050
	.weak	_ZTSN8opendnp318ICommandCollectionINS_19AnalogOutputFloat32EEE
	.section	.rodata._ZTSN8opendnp318ICommandCollectionINS_19AnalogOutputFloat32EEE,"aG",@progbits,_ZTSN8opendnp318ICommandCollectionINS_19AnalogOutputFloat32EEE,comdat
	.align 32
	.type	_ZTSN8opendnp318ICommandCollectionINS_19AnalogOutputFloat32EEE, @object
	.size	_ZTSN8opendnp318ICommandCollectionINS_19AnalogOutputFloat32EEE, 59
_ZTSN8opendnp318ICommandCollectionINS_19AnalogOutputFloat32EEE:
	.string	"N8opendnp318ICommandCollectionINS_19AnalogOutputFloat32EEE"
	.weak	_ZTIN8opendnp318ICommandCollectionINS_19AnalogOutputFloat32EEE
	.section	.data.rel.ro._ZTIN8opendnp318ICommandCollectionINS_19AnalogOutputFloat32EEE,"awG",@progbits,_ZTIN8opendnp318ICommandCollectionINS_19AnalogOutputFloat32EEE,comdat
	.align 8
	.type	_ZTIN8opendnp318ICommandCollectionINS_19AnalogOutputFloat32EEE, @object
	.size	_ZTIN8opendnp318ICommandCollectionINS_19AnalogOutputFloat32EEE, 16
_ZTIN8opendnp318ICommandCollectionINS_19AnalogOutputFloat32EEE:
	.quad	_ZTVN10__cxxabiv117__class_type_infoE+16
	.quad	_ZTSN8opendnp318ICommandCollectionINS_19AnalogOutputFloat32EEE
	.weak	_ZTSN8opendnp318TypedCommandHeaderINS_19AnalogOutputFloat32EEE
	.section	.rodata._ZTSN8opendnp318TypedCommandHeaderINS_19AnalogOutputFloat32EEE,"aG",@progbits,_ZTSN8opendnp318TypedCommandHeaderINS_19AnalogOutputFloat32EEE,comdat
	.align 32
	.type	_ZTSN8opendnp318TypedCommandHeaderINS_19AnalogOutputFloat32EEE, @object
	.size	_ZTSN8opendnp318TypedCommandHeaderINS_19AnalogOutputFloat32EEE, 59
_ZTSN8opendnp318TypedCommandHeaderINS_19AnalogOutputFloat32EEE:
	.string	"N8opendnp318TypedCommandHeaderINS_19AnalogOutputFloat32EEE"
	.weak	_ZTIN8opendnp318TypedCommandHeaderINS_19AnalogOutputFloat32EEE
	.section	.data.rel.ro._ZTIN8opendnp318TypedCommandHeaderINS_19AnalogOutputFloat32EEE,"awG",@progbits,_ZTIN8opendnp318TypedCommandHeaderINS_19AnalogOutputFloat32EEE,comdat
	.align 8
	.type	_ZTIN8opendnp318TypedCommandHeaderINS_19AnalogOutputFloat32EEE, @object
	.size	_ZTIN8opendnp318TypedCommandHeaderINS_19AnalogOutputFloat32EEE, 56
_ZTIN8opendnp318TypedCommandHeaderINS_19AnalogOutputFloat32EEE:
	.quad	_ZTVN10__cxxabiv121__vmi_class_type_infoE+16
	.quad	_ZTSN8opendnp318TypedCommandHeaderINS_19AnalogOutputFloat32EEE
	.long	0
	.long	2
	.quad	_ZTIN8opendnp314ICommandHeaderE
	.quad	2
	.quad	_ZTIN8opendnp318ICommandCollectionINS_19AnalogOutputFloat32EEE
	.quad	2050
	.weak	_ZTSN8opendnp318ICommandCollectionINS_20AnalogOutputDouble64EEE
	.section	.rodata._ZTSN8opendnp318ICommandCollectionINS_20AnalogOutputDouble64EEE,"aG",@progbits,_ZTSN8opendnp318ICommandCollectionINS_20AnalogOutputDouble64EEE,comdat
	.align 32
	.type	_ZTSN8opendnp318ICommandCollectionINS_20AnalogOutputDouble64EEE, @object
	.size	_ZTSN8opendnp318ICommandCollectionINS_20AnalogOutputDouble64EEE, 60
_ZTSN8opendnp318ICommandCollectionINS_20AnalogOutputDouble64EEE:
	.string	"N8opendnp318ICommandCollectionINS_20AnalogOutputDouble64EEE"
	.weak	_ZTIN8opendnp318ICommandCollectionINS_20AnalogOutputDouble64EEE
	.section	.data.rel.ro._ZTIN8opendnp318ICommandCollectionINS_20AnalogOutputDouble64EEE,"awG",@progbits,_ZTIN8opendnp318ICommandCollectionINS_20AnalogOutputDouble64EEE,comdat
	.align 8
	.type	_ZTIN8opendnp318ICommandCollectionINS_20AnalogOutputDouble64EEE, @object
	.size	_ZTIN8opendnp318ICommandCollectionINS_20AnalogOutputDouble64EEE, 16
_ZTIN8opendnp318ICommandCollectionINS_20AnalogOutputDouble64EEE:
	.quad	_ZTVN10__cxxabiv117__class_type_infoE+16
	.quad	_ZTSN8opendnp318ICommandCollectionINS_20AnalogOutputDouble64EEE
	.weak	_ZTSN8opendnp318TypedCommandHeaderINS_20AnalogOutputDouble64EEE
	.section	.rodata._ZTSN8opendnp318TypedCommandHeaderINS_20AnalogOutputDouble64EEE,"aG",@progbits,_ZTSN8opendnp318TypedCommandHeaderINS_20AnalogOutputDouble64EEE,comdat
	.align 32
	.type	_ZTSN8opendnp318TypedCommandHeaderINS_20AnalogOutputDouble64EEE, @object
	.size	_ZTSN8opendnp318TypedCommandHeaderINS_20AnalogOutputDouble64EEE, 60
_ZTSN8opendnp318TypedCommandHeaderINS_20AnalogOutputDouble64EEE:
	.string	"N8opendnp318TypedCommandHeaderINS_20AnalogOutputDouble64EEE"
	.weak	_ZTIN8opendnp318TypedCommandHeaderINS_20AnalogOutputDouble64EEE
	.section	.data.rel.ro._ZTIN8opendnp318TypedCommandHeaderINS_20AnalogOutputDouble64EEE,"awG",@progbits,_ZTIN8opendnp318TypedCommandHeaderINS_20AnalogOutputDouble64EEE,comdat
	.align 8
	.type	_ZTIN8opendnp318TypedCommandHeaderINS_20AnalogOutputDouble64EEE, @object
	.size	_ZTIN8opendnp318TypedCommandHeaderINS_20AnalogOutputDouble64EEE, 56
_ZTIN8opendnp318TypedCommandHeaderINS_20AnalogOutputDouble64EEE:
	.quad	_ZTVN10__cxxabiv121__vmi_class_type_infoE+16
	.quad	_ZTSN8opendnp318TypedCommandHeaderINS_20AnalogOutputDouble64EEE
	.long	0
	.long	2
	.quad	_ZTIN8opendnp314ICommandHeaderE
	.quad	2
	.quad	_ZTIN8opendnp318ICommandCollectionINS_20AnalogOutputDouble64EEE
	.quad	2050
	.weak	_ZTVN8opendnp318TypedCommandHeaderINS_23ControlRelayOutputBlockEEE
	.section	.data.rel.ro._ZTVN8opendnp318TypedCommandHeaderINS_23ControlRelayOutputBlockEEE,"awG",@progbits,_ZTVN8opendnp318TypedCommandHeaderINS_23ControlRelayOutputBlockEEE,comdat
	.align 8
	.type	_ZTVN8opendnp318TypedCommandHeaderINS_23ControlRelayOutputBlockEEE, @object
	.size	_ZTVN8opendnp318TypedCommandHeaderINS_23ControlRelayOutputBlockEEE, 176
_ZTVN8opendnp318TypedCommandHeaderINS_23ControlRelayOutputBlockEEE:
	.quad	0
	.quad	_ZTIN8opendnp318TypedCommandHeaderINS_23ControlRelayOutputBlockEEE
	.quad	_ZNK8opendnp318TypedCommandHeaderINS_23ControlRelayOutputBlockEE5CountEv
	.quad	_ZNK8opendnp318TypedCommandHeaderINS_23ControlRelayOutputBlockEE7ForeachERNS_8IVisitorINS_12CommandStateEEE
	.quad	_ZN8opendnp318TypedCommandHeaderINS_23ControlRelayOutputBlockEED1Ev
	.quad	_ZN8opendnp318TypedCommandHeaderINS_23ControlRelayOutputBlockEED0Ev
	.quad	_ZNK8opendnp318TypedCommandHeaderINS_23ControlRelayOutputBlockEE5WriteERNS_12HeaderWriterE
	.quad	_ZNK8opendnp318TypedCommandHeaderINS_23ControlRelayOutputBlockEE14AreAllSelectedEv
	.quad	_ZN8opendnp318TypedCommandHeaderINS_23ControlRelayOutputBlockEE19ApplySelectResponseERKNS_11ICollectionINS_7IndexedIS1_EEEE
	.quad	_ZN8opendnp314ICommandHeader19ApplySelectResponseERKNS_11ICollectionINS_7IndexedINS_17AnalogOutputInt16EEEEE
	.quad	_ZN8opendnp314ICommandHeader19ApplySelectResponseERKNS_11ICollectionINS_7IndexedINS_17AnalogOutputInt32EEEEE
	.quad	_ZN8opendnp314ICommandHeader19ApplySelectResponseERKNS_11ICollectionINS_7IndexedINS_19AnalogOutputFloat32EEEEE
	.quad	_ZN8opendnp314ICommandHeader19ApplySelectResponseERKNS_11ICollectionINS_7IndexedINS_20AnalogOutputDouble64EEEEE
	.quad	_ZN8opendnp318TypedCommandHeaderINS_23ControlRelayOutputBlockEE20ApplyOperateResponseERKNS_11ICollectionINS_7IndexedIS1_EEEE
	.quad	_ZN8opendnp314ICommandHeader20ApplyOperateResponseERKNS_11ICollectionINS_7IndexedINS_17AnalogOutputInt16EEEEE
	.quad	_ZN8opendnp314ICommandHeader20ApplyOperateResponseERKNS_11ICollectionINS_7IndexedINS_17AnalogOutputInt32EEEEE
	.quad	_ZN8opendnp314ICommandHeader20ApplyOperateResponseERKNS_11ICollectionINS_7IndexedINS_19AnalogOutputFloat32EEEEE
	.quad	_ZN8opendnp314ICommandHeader20ApplyOperateResponseERKNS_11ICollectionINS_7IndexedINS_20AnalogOutputDouble64EEEEE
	.quad	_ZN8opendnp318TypedCommandHeaderINS_23ControlRelayOutputBlockEE3AddERKS1_t
	.quad	-8
	.quad	_ZTIN8opendnp318TypedCommandHeaderINS_23ControlRelayOutputBlockEEE
	.quad	_ZThn8_N8opendnp318TypedCommandHeaderINS_23ControlRelayOutputBlockEE3AddERKS1_t
	.weak	_ZTVN8opendnp318TypedCommandHeaderINS_17AnalogOutputInt32EEE
	.section	.data.rel.ro._ZTVN8opendnp318TypedCommandHeaderINS_17AnalogOutputInt32EEE,"awG",@progbits,_ZTVN8opendnp318TypedCommandHeaderINS_17AnalogOutputInt32EEE,comdat
	.align 8
	.type	_ZTVN8opendnp318TypedCommandHeaderINS_17AnalogOutputInt32EEE, @object
	.size	_ZTVN8opendnp318TypedCommandHeaderINS_17AnalogOutputInt32EEE, 176
_ZTVN8opendnp318TypedCommandHeaderINS_17AnalogOutputInt32EEE:
	.quad	0
	.quad	_ZTIN8opendnp318TypedCommandHeaderINS_17AnalogOutputInt32EEE
	.quad	_ZNK8opendnp318TypedCommandHeaderINS_17AnalogOutputInt32EE5CountEv
	.quad	_ZNK8opendnp318TypedCommandHeaderINS_17AnalogOutputInt32EE7ForeachERNS_8IVisitorINS_12CommandStateEEE
	.quad	_ZN8opendnp318TypedCommandHeaderINS_17AnalogOutputInt32EED1Ev
	.quad	_ZN8opendnp318TypedCommandHeaderINS_17AnalogOutputInt32EED0Ev
	.quad	_ZNK8opendnp318TypedCommandHeaderINS_17AnalogOutputInt32EE5WriteERNS_12HeaderWriterE
	.quad	_ZNK8opendnp318TypedCommandHeaderINS_17AnalogOutputInt32EE14AreAllSelectedEv
	.quad	_ZN8opendnp314ICommandHeader19ApplySelectResponseERKNS_11ICollectionINS_7IndexedINS_23ControlRelayOutputBlockEEEEE
	.quad	_ZN8opendnp314ICommandHeader19ApplySelectResponseERKNS_11ICollectionINS_7IndexedINS_17AnalogOutputInt16EEEEE
	.quad	_ZN8opendnp318TypedCommandHeaderINS_17AnalogOutputInt32EE19ApplySelectResponseERKNS_11ICollectionINS_7IndexedIS1_EEEE
	.quad	_ZN8opendnp314ICommandHeader19ApplySelectResponseERKNS_11ICollectionINS_7IndexedINS_19AnalogOutputFloat32EEEEE
	.quad	_ZN8opendnp314ICommandHeader19ApplySelectResponseERKNS_11ICollectionINS_7IndexedINS_20AnalogOutputDouble64EEEEE
	.quad	_ZN8opendnp314ICommandHeader20ApplyOperateResponseERKNS_11ICollectionINS_7IndexedINS_23ControlRelayOutputBlockEEEEE
	.quad	_ZN8opendnp314ICommandHeader20ApplyOperateResponseERKNS_11ICollectionINS_7IndexedINS_17AnalogOutputInt16EEEEE
	.quad	_ZN8opendnp318TypedCommandHeaderINS_17AnalogOutputInt32EE20ApplyOperateResponseERKNS_11ICollectionINS_7IndexedIS1_EEEE
	.quad	_ZN8opendnp314ICommandHeader20ApplyOperateResponseERKNS_11ICollectionINS_7IndexedINS_19AnalogOutputFloat32EEEEE
	.quad	_ZN8opendnp314ICommandHeader20ApplyOperateResponseERKNS_11ICollectionINS_7IndexedINS_20AnalogOutputDouble64EEEEE
	.quad	_ZN8opendnp318TypedCommandHeaderINS_17AnalogOutputInt32EE3AddERKS1_t
	.quad	-8
	.quad	_ZTIN8opendnp318TypedCommandHeaderINS_17AnalogOutputInt32EEE
	.quad	_ZThn8_N8opendnp318TypedCommandHeaderINS_17AnalogOutputInt32EE3AddERKS1_t
	.weak	_ZTVN8opendnp318TypedCommandHeaderINS_17AnalogOutputInt16EEE
	.section	.data.rel.ro._ZTVN8opendnp318TypedCommandHeaderINS_17AnalogOutputInt16EEE,"awG",@progbits,_ZTVN8opendnp318TypedCommandHeaderINS_17AnalogOutputInt16EEE,comdat
	.align 8
	.type	_ZTVN8opendnp318TypedCommandHeaderINS_17AnalogOutputInt16EEE, @object
	.size	_ZTVN8opendnp318TypedCommandHeaderINS_17AnalogOutputInt16EEE, 176
_ZTVN8opendnp318TypedCommandHeaderINS_17AnalogOutputInt16EEE:
	.quad	0
	.quad	_ZTIN8opendnp318TypedCommandHeaderINS_17AnalogOutputInt16EEE
	.quad	_ZNK8opendnp318TypedCommandHeaderINS_17AnalogOutputInt16EE5CountEv
	.quad	_ZNK8opendnp318TypedCommandHeaderINS_17AnalogOutputInt16EE7ForeachERNS_8IVisitorINS_12CommandStateEEE
	.quad	_ZN8opendnp318TypedCommandHeaderINS_17AnalogOutputInt16EED1Ev
	.quad	_ZN8opendnp318TypedCommandHeaderINS_17AnalogOutputInt16EED0Ev
	.quad	_ZNK8opendnp318TypedCommandHeaderINS_17AnalogOutputInt16EE5WriteERNS_12HeaderWriterE
	.quad	_ZNK8opendnp318TypedCommandHeaderINS_17AnalogOutputInt16EE14AreAllSelectedEv
	.quad	_ZN8opendnp314ICommandHeader19ApplySelectResponseERKNS_11ICollectionINS_7IndexedINS_23ControlRelayOutputBlockEEEEE
	.quad	_ZN8opendnp318TypedCommandHeaderINS_17AnalogOutputInt16EE19ApplySelectResponseERKNS_11ICollectionINS_7IndexedIS1_EEEE
	.quad	_ZN8opendnp314ICommandHeader19ApplySelectResponseERKNS_11ICollectionINS_7IndexedINS_17AnalogOutputInt32EEEEE
	.quad	_ZN8opendnp314ICommandHeader19ApplySelectResponseERKNS_11ICollectionINS_7IndexedINS_19AnalogOutputFloat32EEEEE
	.quad	_ZN8opendnp314ICommandHeader19ApplySelectResponseERKNS_11ICollectionINS_7IndexedINS_20AnalogOutputDouble64EEEEE
	.quad	_ZN8opendnp314ICommandHeader20ApplyOperateResponseERKNS_11ICollectionINS_7IndexedINS_23ControlRelayOutputBlockEEEEE
	.quad	_ZN8opendnp318TypedCommandHeaderINS_17AnalogOutputInt16EE20ApplyOperateResponseERKNS_11ICollectionINS_7IndexedIS1_EEEE
	.quad	_ZN8opendnp314ICommandHeader20ApplyOperateResponseERKNS_11ICollectionINS_7IndexedINS_17AnalogOutputInt32EEEEE
	.quad	_ZN8opendnp314ICommandHeader20ApplyOperateResponseERKNS_11ICollectionINS_7IndexedINS_19AnalogOutputFloat32EEEEE
	.quad	_ZN8opendnp314ICommandHeader20ApplyOperateResponseERKNS_11ICollectionINS_7IndexedINS_20AnalogOutputDouble64EEEEE
	.quad	_ZN8opendnp318TypedCommandHeaderINS_17AnalogOutputInt16EE3AddERKS1_t
	.quad	-8
	.quad	_ZTIN8opendnp318TypedCommandHeaderINS_17AnalogOutputInt16EEE
	.quad	_ZThn8_N8opendnp318TypedCommandHeaderINS_17AnalogOutputInt16EE3AddERKS1_t
	.weak	_ZTVN8opendnp318TypedCommandHeaderINS_19AnalogOutputFloat32EEE
	.section	.data.rel.ro._ZTVN8opendnp318TypedCommandHeaderINS_19AnalogOutputFloat32EEE,"awG",@progbits,_ZTVN8opendnp318TypedCommandHeaderINS_19AnalogOutputFloat32EEE,comdat
	.align 8
	.type	_ZTVN8opendnp318TypedCommandHeaderINS_19AnalogOutputFloat32EEE, @object
	.size	_ZTVN8opendnp318TypedCommandHeaderINS_19AnalogOutputFloat32EEE, 176
_ZTVN8opendnp318TypedCommandHeaderINS_19AnalogOutputFloat32EEE:
	.quad	0
	.quad	_ZTIN8opendnp318TypedCommandHeaderINS_19AnalogOutputFloat32EEE
	.quad	_ZNK8opendnp318TypedCommandHeaderINS_19AnalogOutputFloat32EE5CountEv
	.quad	_ZNK8opendnp318TypedCommandHeaderINS_19AnalogOutputFloat32EE7ForeachERNS_8IVisitorINS_12CommandStateEEE
	.quad	_ZN8opendnp318TypedCommandHeaderINS_19AnalogOutputFloat32EED1Ev
	.quad	_ZN8opendnp318TypedCommandHeaderINS_19AnalogOutputFloat32EED0Ev
	.quad	_ZNK8opendnp318TypedCommandHeaderINS_19AnalogOutputFloat32EE5WriteERNS_12HeaderWriterE
	.quad	_ZNK8opendnp318TypedCommandHeaderINS_19AnalogOutputFloat32EE14AreAllSelectedEv
	.quad	_ZN8opendnp314ICommandHeader19ApplySelectResponseERKNS_11ICollectionINS_7IndexedINS_23ControlRelayOutputBlockEEEEE
	.quad	_ZN8opendnp314ICommandHeader19ApplySelectResponseERKNS_11ICollectionINS_7IndexedINS_17AnalogOutputInt16EEEEE
	.quad	_ZN8opendnp314ICommandHeader19ApplySelectResponseERKNS_11ICollectionINS_7IndexedINS_17AnalogOutputInt32EEEEE
	.quad	_ZN8opendnp318TypedCommandHeaderINS_19AnalogOutputFloat32EE19ApplySelectResponseERKNS_11ICollectionINS_7IndexedIS1_EEEE
	.quad	_ZN8opendnp314ICommandHeader19ApplySelectResponseERKNS_11ICollectionINS_7IndexedINS_20AnalogOutputDouble64EEEEE
	.quad	_ZN8opendnp314ICommandHeader20ApplyOperateResponseERKNS_11ICollectionINS_7IndexedINS_23ControlRelayOutputBlockEEEEE
	.quad	_ZN8opendnp314ICommandHeader20ApplyOperateResponseERKNS_11ICollectionINS_7IndexedINS_17AnalogOutputInt16EEEEE
	.quad	_ZN8opendnp314ICommandHeader20ApplyOperateResponseERKNS_11ICollectionINS_7IndexedINS_17AnalogOutputInt32EEEEE
	.quad	_ZN8opendnp318TypedCommandHeaderINS_19AnalogOutputFloat32EE20ApplyOperateResponseERKNS_11ICollectionINS_7IndexedIS1_EEEE
	.quad	_ZN8opendnp314ICommandHeader20ApplyOperateResponseERKNS_11ICollectionINS_7IndexedINS_20AnalogOutputDouble64EEEEE
	.quad	_ZN8opendnp318TypedCommandHeaderINS_19AnalogOutputFloat32EE3AddERKS1_t
	.quad	-8
	.quad	_ZTIN8opendnp318TypedCommandHeaderINS_19AnalogOutputFloat32EEE
	.quad	_ZThn8_N8opendnp318TypedCommandHeaderINS_19AnalogOutputFloat32EE3AddERKS1_t
	.weak	_ZTVN8opendnp318TypedCommandHeaderINS_20AnalogOutputDouble64EEE
	.section	.data.rel.ro._ZTVN8opendnp318TypedCommandHeaderINS_20AnalogOutputDouble64EEE,"awG",@progbits,_ZTVN8opendnp318TypedCommandHeaderINS_20AnalogOutputDouble64EEE,comdat
	.align 8
	.type	_ZTVN8opendnp318TypedCommandHeaderINS_20AnalogOutputDouble64EEE, @object
	.size	_ZTVN8opendnp318TypedCommandHeaderINS_20AnalogOutputDouble64EEE, 176
_ZTVN8opendnp318TypedCommandHeaderINS_20AnalogOutputDouble64EEE:
	.quad	0
	.quad	_ZTIN8opendnp318TypedCommandHeaderINS_20AnalogOutputDouble64EEE
	.quad	_ZNK8opendnp318TypedCommandHeaderINS_20AnalogOutputDouble64EE5CountEv
	.quad	_ZNK8opendnp318TypedCommandHeaderINS_20AnalogOutputDouble64EE7ForeachERNS_8IVisitorINS_12CommandStateEEE
	.quad	_ZN8opendnp318TypedCommandHeaderINS_20AnalogOutputDouble64EED1Ev
	.quad	_ZN8opendnp318TypedCommandHeaderINS_20AnalogOutputDouble64EED0Ev
	.quad	_ZNK8opendnp318TypedCommandHeaderINS_20AnalogOutputDouble64EE5WriteERNS_12HeaderWriterE
	.quad	_ZNK8opendnp318TypedCommandHeaderINS_20AnalogOutputDouble64EE14AreAllSelectedEv
	.quad	_ZN8opendnp314ICommandHeader19ApplySelectResponseERKNS_11ICollectionINS_7IndexedINS_23ControlRelayOutputBlockEEEEE
	.quad	_ZN8opendnp314ICommandHeader19ApplySelectResponseERKNS_11ICollectionINS_7IndexedINS_17AnalogOutputInt16EEEEE
	.quad	_ZN8opendnp314ICommandHeader19ApplySelectResponseERKNS_11ICollectionINS_7IndexedINS_17AnalogOutputInt32EEEEE
	.quad	_ZN8opendnp314ICommandHeader19ApplySelectResponseERKNS_11ICollectionINS_7IndexedINS_19AnalogOutputFloat32EEEEE
	.quad	_ZN8opendnp318TypedCommandHeaderINS_20AnalogOutputDouble64EE19ApplySelectResponseERKNS_11ICollectionINS_7IndexedIS1_EEEE
	.quad	_ZN8opendnp314ICommandHeader20ApplyOperateResponseERKNS_11ICollectionINS_7IndexedINS_23ControlRelayOutputBlockEEEEE
	.quad	_ZN8opendnp314ICommandHeader20ApplyOperateResponseERKNS_11ICollectionINS_7IndexedINS_17AnalogOutputInt16EEEEE
	.quad	_ZN8opendnp314ICommandHeader20ApplyOperateResponseERKNS_11ICollectionINS_7IndexedINS_17AnalogOutputInt32EEEEE
	.quad	_ZN8opendnp314ICommandHeader20ApplyOperateResponseERKNS_11ICollectionINS_7IndexedINS_19AnalogOutputFloat32EEEEE
	.quad	_ZN8opendnp318TypedCommandHeaderINS_20AnalogOutputDouble64EE20ApplyOperateResponseERKNS_11ICollectionINS_7IndexedIS1_EEEE
	.quad	_ZN8opendnp318TypedCommandHeaderINS_20AnalogOutputDouble64EE3AddERKS1_t
	.quad	-8
	.quad	_ZTIN8opendnp318TypedCommandHeaderINS_20AnalogOutputDouble64EEE
	.quad	_ZThn8_N8opendnp318TypedCommandHeaderINS_20AnalogOutputDouble64EE3AddERKS1_t
	.hidden	DW.ref.__gxx_personality_v0
	.weak	DW.ref.__gxx_personality_v0
	.section	.data.rel.local.DW.ref.__gxx_personality_v0,"awG",@progbits,DW.ref.__gxx_personality_v0,comdat
	.align 8
	.type	DW.ref.__gxx_personality_v0, @object
	.size	DW.ref.__gxx_personality_v0, 8
DW.ref.__gxx_personality_v0:
	.quad	__gxx_personality_v0
	.globl	__gxx_personality_v0
	.ident	"GCC: (Debian 15.2.0-4) 15.2.0"
	.section	.note.GNU-stack,"",@progbits
