	.file	"CommandTask.cpp"
	.text
	.section	.text._ZNK8opendnp311IMasterTask10IsAuthTaskEv,"axG",@progbits,_ZNK8opendnp311IMasterTask10IsAuthTaskEv,comdat
	.align 2
	.p2align 4
	.weak	_ZNK8opendnp311IMasterTask10IsAuthTaskEv
	.type	_ZNK8opendnp311IMasterTask10IsAuthTaskEv, @function
_ZNK8opendnp311IMasterTask10IsAuthTaskEv:
.LFB2381:
	.cfi_startproc
	xorl	%eax, %eax
	ret
	.cfi_endproc
.LFE2381:
	.size	_ZNK8opendnp311IMasterTask10IsAuthTaskEv, .-_ZNK8opendnp311IMasterTask10IsAuthTaskEv
	.section	.rodata._ZNK8opendnp311CommandTask4NameEv.str1.1,"aMS",@progbits,1
.LC0:
	.string	"Command Task"
	.section	.text._ZNK8opendnp311CommandTask4NameEv,"axG",@progbits,_ZNK8opendnp311CommandTask4NameEv,comdat
	.align 2
	.p2align 4
	.weak	_ZNK8opendnp311CommandTask4NameEv
	.type	_ZNK8opendnp311CommandTask4NameEv, @function
_ZNK8opendnp311CommandTask4NameEv:
.LFB2939:
	.cfi_startproc
	leaq	.LC0(%rip), %rax
	ret
	.cfi_endproc
.LFE2939:
	.size	_ZNK8opendnp311CommandTask4NameEv, .-_ZNK8opendnp311CommandTask4NameEv
	.section	.text._ZNK8opendnp311CommandTask8PriorityEv,"axG",@progbits,_ZNK8opendnp311CommandTask8PriorityEv,comdat
	.align 2
	.p2align 4
	.weak	_ZNK8opendnp311CommandTask8PriorityEv
	.type	_ZNK8opendnp311CommandTask8PriorityEv, @function
_ZNK8opendnp311CommandTask8PriorityEv:
.LFB2940:
	.cfi_startproc
	movl	$100, %eax
	ret
	.cfi_endproc
.LFE2940:
	.size	_ZNK8opendnp311CommandTask8PriorityEv, .-_ZNK8opendnp311CommandTask8PriorityEv
	.section	.text._ZNK8opendnp311CommandTask19BlocksLowerPriorityEv,"axG",@progbits,_ZNK8opendnp311CommandTask19BlocksLowerPriorityEv,comdat
	.align 2
	.p2align 4
	.weak	_ZNK8opendnp311CommandTask19BlocksLowerPriorityEv
	.type	_ZNK8opendnp311CommandTask19BlocksLowerPriorityEv, @function
_ZNK8opendnp311CommandTask19BlocksLowerPriorityEv:
.LFB2941:
	.cfi_startproc
	xorl	%eax, %eax
	ret
	.cfi_endproc
.LFE2941:
	.size	_ZNK8opendnp311CommandTask19BlocksLowerPriorityEv, .-_ZNK8opendnp311CommandTask19BlocksLowerPriorityEv
	.section	.text._ZNK8opendnp311CommandTask11IsRecurringEv,"axG",@progbits,_ZNK8opendnp311CommandTask11IsRecurringEv,comdat
	.align 2
	.p2align 4
	.weak	_ZNK8opendnp311CommandTask11IsRecurringEv
	.type	_ZNK8opendnp311CommandTask11IsRecurringEv, @function
_ZNK8opendnp311CommandTask11IsRecurringEv:
.LFB2942:
	.cfi_startproc
	xorl	%eax, %eax
	ret
	.cfi_endproc
.LFE2942:
	.size	_ZNK8opendnp311CommandTask11IsRecurringEv, .-_ZNK8opendnp311CommandTask11IsRecurringEv
	.section	.text._ZNK8opendnp311CommandTask9IsEnabledEv,"axG",@progbits,_ZNK8opendnp311CommandTask9IsEnabledEv,comdat
	.align 2
	.p2align 4
	.weak	_ZNK8opendnp311CommandTask9IsEnabledEv
	.type	_ZNK8opendnp311CommandTask9IsEnabledEv, @function
_ZNK8opendnp311CommandTask9IsEnabledEv:
.LFB2943:
	.cfi_startproc
	movl	$1, %eax
	ret
	.cfi_endproc
.LFE2943:
	.size	_ZNK8opendnp311CommandTask9IsEnabledEv, .-_ZNK8opendnp311CommandTask9IsEnabledEv
	.section	.text._ZNK8opendnp311CommandTask11GetTaskTypeEv,"axG",@progbits,_ZNK8opendnp311CommandTask11GetTaskTypeEv,comdat
	.align 2
	.p2align 4
	.weak	_ZNK8opendnp311CommandTask11GetTaskTypeEv
	.type	_ZNK8opendnp311CommandTask11GetTaskTypeEv, @function
_ZNK8opendnp311CommandTask11GetTaskTypeEv:
.LFB2944:
	.cfi_startproc
	movl	$7, %eax
	ret
	.cfi_endproc
.LFE2944:
	.size	_ZNK8opendnp311CommandTask11GetTaskTypeEv, .-_ZNK8opendnp311CommandTask11GetTaskTypeEv
	.text
	.align 2
	.p2align 4
	.globl	_ZN8opendnp311CommandTask10InitializeEv
	.type	_ZN8opendnp311CommandTask10InitializeEv, @function
_ZN8opendnp311CommandTask10InitializeEv:
.LFB3149:
	.cfi_startproc
	movb	$127, 168(%rdi)
	ret
	.cfi_endproc
.LFE3149:
	.size	_ZN8opendnp311CommandTask10InitializeEv, .-_ZN8opendnp311CommandTask10InitializeEv
	.section	.text._ZNSt23_Sp_counted_ptr_inplaceIN8opendnp311CommandTaskESaIvELN9__gnu_cxx12_Lock_policyE2EED2Ev,"axG",@progbits,_ZNSt23_Sp_counted_ptr_inplaceIN8opendnp311CommandTaskESaIvELN9__gnu_cxx12_Lock_policyE2EED5Ev,comdat
	.align 2
	.p2align 4
	.weak	_ZNSt23_Sp_counted_ptr_inplaceIN8opendnp311CommandTaskESaIvELN9__gnu_cxx12_Lock_policyE2EED2Ev
	.type	_ZNSt23_Sp_counted_ptr_inplaceIN8opendnp311CommandTaskESaIvELN9__gnu_cxx12_Lock_policyE2EED2Ev, @function
_ZNSt23_Sp_counted_ptr_inplaceIN8opendnp311CommandTaskESaIvELN9__gnu_cxx12_Lock_policyE2EED2Ev:
.LFB4108:
	.cfi_startproc
	ret
	.cfi_endproc
.LFE4108:
	.size	_ZNSt23_Sp_counted_ptr_inplaceIN8opendnp311CommandTaskESaIvELN9__gnu_cxx12_Lock_policyE2EED2Ev, .-_ZNSt23_Sp_counted_ptr_inplaceIN8opendnp311CommandTaskESaIvELN9__gnu_cxx12_Lock_policyE2EED2Ev
	.weak	_ZNSt23_Sp_counted_ptr_inplaceIN8opendnp311CommandTaskESaIvELN9__gnu_cxx12_Lock_policyE2EED1Ev
	.set	_ZNSt23_Sp_counted_ptr_inplaceIN8opendnp311CommandTaskESaIvELN9__gnu_cxx12_Lock_policyE2EED1Ev,_ZNSt23_Sp_counted_ptr_inplaceIN8opendnp311CommandTaskESaIvELN9__gnu_cxx12_Lock_policyE2EED2Ev
	.section	.text._ZNSt23_Sp_counted_ptr_inplaceIN8opendnp311CommandTaskESaIvELN9__gnu_cxx12_Lock_policyE2EE10_M_disposeEv,"axG",@progbits,_ZNSt23_Sp_counted_ptr_inplaceIN8opendnp311CommandTaskESaIvELN9__gnu_cxx12_Lock_policyE2EE10_M_disposeEv,comdat
	.align 2
	.p2align 4
	.weak	_ZNSt23_Sp_counted_ptr_inplaceIN8opendnp311CommandTaskESaIvELN9__gnu_cxx12_Lock_policyE2EE10_M_disposeEv
	.type	_ZNSt23_Sp_counted_ptr_inplaceIN8opendnp311CommandTaskESaIvELN9__gnu_cxx12_Lock_policyE2EE10_M_disposeEv, @function
_ZNSt23_Sp_counted_ptr_inplaceIN8opendnp311CommandTaskESaIvELN9__gnu_cxx12_Lock_policyE2EE10_M_disposeEv:
.LFB4111:
	.cfi_startproc
	movq	16(%rdi), %rax
	addq	$16, %rdi
	movq	(%rax), %rax
	jmp	*%rax
	.cfi_endproc
.LFE4111:
	.size	_ZNSt23_Sp_counted_ptr_inplaceIN8opendnp311CommandTaskESaIvELN9__gnu_cxx12_Lock_policyE2EE10_M_disposeEv, .-_ZNSt23_Sp_counted_ptr_inplaceIN8opendnp311CommandTaskESaIvELN9__gnu_cxx12_Lock_policyE2EE10_M_disposeEv
	.section	.text._ZNSt23_Sp_counted_ptr_inplaceIN8opendnp311CommandTaskESaIvELN9__gnu_cxx12_Lock_policyE2EED0Ev,"axG",@progbits,_ZNSt23_Sp_counted_ptr_inplaceIN8opendnp311CommandTaskESaIvELN9__gnu_cxx12_Lock_policyE2EED5Ev,comdat
	.align 2
	.p2align 4
	.weak	_ZNSt23_Sp_counted_ptr_inplaceIN8opendnp311CommandTaskESaIvELN9__gnu_cxx12_Lock_policyE2EED0Ev
	.type	_ZNSt23_Sp_counted_ptr_inplaceIN8opendnp311CommandTaskESaIvELN9__gnu_cxx12_Lock_policyE2EED0Ev, @function
_ZNSt23_Sp_counted_ptr_inplaceIN8opendnp311CommandTaskESaIvELN9__gnu_cxx12_Lock_policyE2EED0Ev:
.LFB4110:
	.cfi_startproc
	movl	$248, %esi
	jmp	_ZdlPvm@PLT
	.cfi_endproc
.LFE4110:
	.size	_ZNSt23_Sp_counted_ptr_inplaceIN8opendnp311CommandTaskESaIvELN9__gnu_cxx12_Lock_policyE2EED0Ev, .-_ZNSt23_Sp_counted_ptr_inplaceIN8opendnp311CommandTaskESaIvELN9__gnu_cxx12_Lock_policyE2EED0Ev
	.section	.text._ZNSt23_Sp_counted_ptr_inplaceIN8opendnp311CommandTaskESaIvELN9__gnu_cxx12_Lock_policyE2EE10_M_destroyEv,"axG",@progbits,_ZNSt23_Sp_counted_ptr_inplaceIN8opendnp311CommandTaskESaIvELN9__gnu_cxx12_Lock_policyE2EE10_M_destroyEv,comdat
	.align 2
	.p2align 4
	.weak	_ZNSt23_Sp_counted_ptr_inplaceIN8opendnp311CommandTaskESaIvELN9__gnu_cxx12_Lock_policyE2EE10_M_destroyEv
	.type	_ZNSt23_Sp_counted_ptr_inplaceIN8opendnp311CommandTaskESaIvELN9__gnu_cxx12_Lock_policyE2EE10_M_destroyEv, @function
_ZNSt23_Sp_counted_ptr_inplaceIN8opendnp311CommandTaskESaIvELN9__gnu_cxx12_Lock_policyE2EE10_M_destroyEv:
.LFB4112:
	.cfi_startproc
	movl	$248, %esi
	jmp	_ZdlPvm@PLT
	.cfi_endproc
.LFE4112:
	.size	_ZNSt23_Sp_counted_ptr_inplaceIN8opendnp311CommandTaskESaIvELN9__gnu_cxx12_Lock_policyE2EE10_M_destroyEv, .-_ZNSt23_Sp_counted_ptr_inplaceIN8opendnp311CommandTaskESaIvELN9__gnu_cxx12_Lock_policyE2EE10_M_destroyEv
	.text
	.align 2
	.p2align 4
	.globl	_ZN8opendnp311CommandTask14OnTaskCompleteENS_14TaskCompletionEN7openpal18MonotonicTimestampE
	.type	_ZN8opendnp311CommandTask14OnTaskCompleteENS_14TaskCompletionEN7openpal18MonotonicTimestampE, @function
_ZN8opendnp311CommandTask14OnTaskCompleteENS_14TaskCompletionEN7openpal18MonotonicTimestampE:
.LFB3148:
	.cfi_startproc
	leaq	176(%rdi), %rdx
	subq	$8, %rsp
	.cfi_def_cfa_offset 16
	addq	$208, %rdi
	call	_ZN8opendnp313CommandSetOps14InvokeCallbackERKNS_10CommandSetENS_14TaskCompletionERSt8functionIFvRKNS_18ICommandTaskResultEEE@PLT
	call	_ZN7openpal18MonotonicTimestamp3MaxEv@PLT
	addq	$8, %rsp
	.cfi_def_cfa_offset 8
	movq	%rax, %rdx
	xorl	%eax, %eax
	ret
	.cfi_endproc
.LFE3148:
	.size	_ZN8opendnp311CommandTask14OnTaskCompleteENS_14TaskCompletionEN7openpal18MonotonicTimestampE, .-_ZN8opendnp311CommandTask14OnTaskCompleteENS_14TaskCompletionEN7openpal18MonotonicTimestampE
	.align 2
	.p2align 4
	.globl	_ZN8opendnp311CommandTask12BuildRequestERNS_11APDURequestEh
	.type	_ZN8opendnp311CommandTask12BuildRequestERNS_11APDURequestEh, @function
_ZN8opendnp311CommandTask12BuildRequestERNS_11APDURequestEh:
.LFB3146:
	.cfi_startproc
	movl	%edx, %ecx
	movq	104(%rdi), %rdx
	cmpq	136(%rdi), %rdx
	je	.L21
	pushq	%r14
	.cfi_def_cfa_offset 16
	.cfi_offset 14, -16
	movl	%ecx, %r14d
	pushq	%rbp
	.cfi_def_cfa_offset 24
	.cfi_offset 6, -24
	movq	%rsi, %rbp
	pushq	%rbx
	.cfi_def_cfa_offset 32
	.cfi_offset 3, -32
	movq	%rdi, %rbx
	movq	%rbp, %rdi
	subq	$64, %rsp
	.cfi_def_cfa_offset 96
	movzbl	(%rdx), %esi
	call	_ZN8opendnp311APDUWrapper11SetFunctionENS_12FunctionCodeE@PLT
	movq	120(%rbx), %rcx
	movq	104(%rbx), %rax
	leaq	-1(%rcx), %rdx
	cmpq	%rdx, %rax
	je	.L18
	addq	$1, %rax
.L19:
	movq	%rax, 104(%rbx)
	movzbl	%r14b, %edi
	call	_ZN8opendnp315AppControlField7RequestEh@PLT
	movq	%rbp, %rdi
	movabsq	$1099511627775, %rdx
	andq	%rdx, %rax
	movq	%rax, %rsi
	call	_ZN8opendnp311APDUWrapper10SetControlENS_15AppControlFieldE@PLT
	leaq	32(%rsp), %rax
	movq	%rbp, %rsi
	movq	%rax, %rdi
	movq	%rax, 8(%rsp)
	call	_ZN8opendnp311APDUWrapper9GetWriterEv@PLT
	movq	8(%rsp), %rsi
	leaq	208(%rbx), %rdi
	call	_ZN8opendnp313CommandSetOps5WriteERKNS_10CommandSetERNS_12HeaderWriterE@PLT
	addq	$64, %rsp
	.cfi_def_cfa_offset 32
	popq	%rbx
	.cfi_def_cfa_offset 24
	popq	%rbp
	.cfi_def_cfa_offset 16
	popq	%r14
	.cfi_def_cfa_offset 8
	ret
	.p2align 4,,10
	.p2align 3
.L21:
	.cfi_restore 3
	.cfi_restore 6
	.cfi_restore 14
	xorl	%eax, %eax
	ret
	.p2align 4,,10
	.p2align 3
.L18:
	.cfi_def_cfa_offset 96
	.cfi_offset 3, -32
	.cfi_offset 6, -24
	.cfi_offset 14, -16
	movq	112(%rbx), %rdi
	movl	$512, %esi
	call	_ZdlPvm@PLT
	movq	128(%rbx), %rax
	leaq	8(%rax), %rdx
	movq	8(%rax), %rax
	movq	%rdx, 128(%rbx)
	leaq	512(%rax), %rdx
	movq	%rax, %xmm0
	movq	%rdx, %xmm1
	punpcklqdq	%xmm1, %xmm0
	movups	%xmm0, 112(%rbx)
	jmp	.L19
	.cfi_endproc
.LFE3146:
	.size	_ZN8opendnp311CommandTask12BuildRequestERNS_11APDURequestEh, .-_ZN8opendnp311CommandTask12BuildRequestERNS_11APDURequestEh
	.section	.text._ZNSt23_Sp_counted_ptr_inplaceIN8opendnp311CommandTaskESaIvELN9__gnu_cxx12_Lock_policyE2EE14_M_get_deleterERKSt9type_info,"axG",@progbits,_ZNSt23_Sp_counted_ptr_inplaceIN8opendnp311CommandTaskESaIvELN9__gnu_cxx12_Lock_policyE2EE14_M_get_deleterERKSt9type_info,comdat
	.align 2
	.p2align 4
	.weak	_ZNSt23_Sp_counted_ptr_inplaceIN8opendnp311CommandTaskESaIvELN9__gnu_cxx12_Lock_policyE2EE14_M_get_deleterERKSt9type_info
	.type	_ZNSt23_Sp_counted_ptr_inplaceIN8opendnp311CommandTaskESaIvELN9__gnu_cxx12_Lock_policyE2EE14_M_get_deleterERKSt9type_info, @function
_ZNSt23_Sp_counted_ptr_inplaceIN8opendnp311CommandTaskESaIvELN9__gnu_cxx12_Lock_policyE2EE14_M_get_deleterERKSt9type_info:
.LFB4113:
	.cfi_startproc
	cmpq	_ZZNSt19_Sp_make_shared_tag5_S_tiEvE5__tag@GOTPCREL(%rip), %rsi
	movq	%rdi, %rcx
	je	.L32
	movq	8(%rsi), %rdi
	movq	_ZTSSt19_Sp_make_shared_tag@GOTPCREL(%rip), %rsi
	cmpq	%rsi, %rdi
	je	.L32
	xorl	%edx, %edx
	cmpb	$42, (%rdi)
	je	.L33
	subq	$24, %rsp
	.cfi_def_cfa_offset 32
	movq	%rdx, (%rsp)
	movq	%rcx, 8(%rsp)
	call	strcmp@PLT
	xorl	%edx, %edx
	movq	8(%rsp), %rcx
	testl	%eax, %eax
	jne	.L26
	leaq	16(%rcx), %rdx
.L26:
	movq	%rdx, %rax
	addq	$24, %rsp
	.cfi_def_cfa_offset 8
	ret
	.p2align 4,,10
	.p2align 3
.L32:
	leaq	16(%rcx), %rdx
.L33:
	movq	%rdx, %rax
	ret
	.cfi_endproc
.LFE4113:
	.size	_ZNSt23_Sp_counted_ptr_inplaceIN8opendnp311CommandTaskESaIvELN9__gnu_cxx12_Lock_policyE2EE14_M_get_deleterERKSt9type_info, .-_ZNSt23_Sp_counted_ptr_inplaceIN8opendnp311CommandTaskESaIvELN9__gnu_cxx12_Lock_policyE2EE14_M_get_deleterERKSt9type_info
	.section	.text._ZN8opendnp311CommandTaskD2Ev,"axG",@progbits,_ZN8opendnp311CommandTaskD5Ev,comdat
	.align 2
	.p2align 4
	.weak	_ZN8opendnp311CommandTaskD2Ev
	.type	_ZN8opendnp311CommandTaskD2Ev, @function
_ZN8opendnp311CommandTaskD2Ev:
.LFB4104:
	.cfi_startproc
	.cfi_personality 0x9b,DW.ref.__gxx_personality_v0
	.cfi_lsda 0x1b,.LLSDA4104
	movq	_ZTVN8opendnp311CommandTaskE@GOTPCREL(%rip), %rax
	pushq	%r12
	.cfi_def_cfa_offset 16
	.cfi_offset 12, -16
	pushq	%rbp
	.cfi_def_cfa_offset 24
	.cfi_offset 6, -24
	movq	%rdi, %rbp
	addq	$208, %rdi
	addq	$16, %rax
	pushq	%rbx
	.cfi_def_cfa_offset 32
	.cfi_offset 3, -32
	movq	%rax, -208(%rdi)
	call	_ZN8opendnp310CommandSetD1Ev@PLT
	movq	192(%rbp), %rax
	testq	%rax, %rax
	je	.L37
	leaq	176(%rbp), %rdi
	movl	$3, %edx
	movq	%rdi, %rsi
	call	*%rax
.L37:
	movq	88(%rbp), %rdi
	testq	%rdi, %rdi
	je	.L38
	movq	160(%rbp), %rax
	movq	128(%rbp), %rbx
	leaq	8(%rax), %r12
	cmpq	%r12, %rbx
	jnb	.L39
	.p2align 4
	.p2align 3
.L40:
	movq	(%rbx), %rdi
	movl	$512, %esi
	addq	$8, %rbx
	call	_ZdlPvm@PLT
	cmpq	%r12, %rbx
	jb	.L40
	movq	88(%rbp), %rdi
.L39:
	movq	96(%rbp), %rax
	leaq	0(,%rax,8), %rsi
	call	_ZdlPvm@PLT
.L38:
	popq	%rbx
	.cfi_def_cfa_offset 24
	movq	%rbp, %rdi
	popq	%rbp
	.cfi_def_cfa_offset 16
	popq	%r12
	.cfi_def_cfa_offset 8
.LEHB0:
	jmp	_ZN8opendnp311IMasterTaskD2Ev@PLT
.LEHE0:
	.cfi_endproc
.LFE4104:
	.section	.gcc_except_table._ZN8opendnp311CommandTaskD2Ev,"aG",@progbits,_ZN8opendnp311CommandTaskD5Ev,comdat
.LLSDA4104:
	.byte	0xff
	.byte	0xff
	.byte	0x1
	.uleb128 .LLSDACSE4104-.LLSDACSB4104
.LLSDACSB4104:
	.uleb128 .LEHB0-.LFB4104
	.uleb128 .LEHE0-.LEHB0
	.uleb128 0
	.uleb128 0
.LLSDACSE4104:
	.section	.text._ZN8opendnp311CommandTaskD2Ev,"axG",@progbits,_ZN8opendnp311CommandTaskD5Ev,comdat
	.size	_ZN8opendnp311CommandTaskD2Ev, .-_ZN8opendnp311CommandTaskD2Ev
	.weak	_ZN8opendnp311CommandTaskD1Ev
	.set	_ZN8opendnp311CommandTaskD1Ev,_ZN8opendnp311CommandTaskD2Ev
	.section	.text._ZN8opendnp311CommandTaskD0Ev,"axG",@progbits,_ZN8opendnp311CommandTaskD5Ev,comdat
	.align 2
	.p2align 4
	.weak	_ZN8opendnp311CommandTaskD0Ev
	.type	_ZN8opendnp311CommandTaskD0Ev, @function
_ZN8opendnp311CommandTaskD0Ev:
.LFB4106:
	.cfi_startproc
	.cfi_personality 0x9b,DW.ref.__gxx_personality_v0
	.cfi_lsda 0x1b,.LLSDA4106
	movq	_ZTVN8opendnp311CommandTaskE@GOTPCREL(%rip), %rax
	pushq	%r12
	.cfi_def_cfa_offset 16
	.cfi_offset 12, -16
	pushq	%rbp
	.cfi_def_cfa_offset 24
	.cfi_offset 6, -24
	movq	%rdi, %rbp
	addq	$208, %rdi
	addq	$16, %rax
	pushq	%rbx
	.cfi_def_cfa_offset 32
	.cfi_offset 3, -32
	movq	%rax, -208(%rdi)
	call	_ZN8opendnp310CommandSetD1Ev@PLT
	movq	192(%rbp), %rax
	testq	%rax, %rax
	je	.L50
	leaq	176(%rbp), %rdi
	movl	$3, %edx
	movq	%rdi, %rsi
	call	*%rax
.L50:
	movq	88(%rbp), %rdi
	testq	%rdi, %rdi
	je	.L51
	movq	160(%rbp), %rax
	movq	128(%rbp), %rbx
	leaq	8(%rax), %r12
	cmpq	%r12, %rbx
	jnb	.L52
	.p2align 4
	.p2align 3
.L53:
	movq	(%rbx), %rdi
	movl	$512, %esi
	addq	$8, %rbx
	call	_ZdlPvm@PLT
	cmpq	%r12, %rbx
	jb	.L53
	movq	88(%rbp), %rdi
.L52:
	movq	96(%rbp), %rax
	leaq	0(,%rax,8), %rsi
	call	_ZdlPvm@PLT
.L51:
	movq	%rbp, %rdi
	call	_ZN8opendnp311IMasterTaskD2Ev@PLT
	popq	%rbx
	.cfi_def_cfa_offset 24
	movq	%rbp, %rdi
	movl	$232, %esi
	popq	%rbp
	.cfi_def_cfa_offset 16
	popq	%r12
	.cfi_def_cfa_offset 8
.LEHB1:
	jmp	_ZdlPvm@PLT
.LEHE1:
	.cfi_endproc
.LFE4106:
	.section	.gcc_except_table._ZN8opendnp311CommandTaskD0Ev,"aG",@progbits,_ZN8opendnp311CommandTaskD5Ev,comdat
.LLSDA4106:
	.byte	0xff
	.byte	0xff
	.byte	0x1
	.uleb128 .LLSDACSE4106-.LLSDACSB4106
.LLSDACSB4106:
	.uleb128 .LEHB1-.LFB4106
	.uleb128 .LEHE1-.LEHB1
	.uleb128 0
	.uleb128 0
.LLSDACSE4106:
	.section	.text._ZN8opendnp311CommandTaskD0Ev,"axG",@progbits,_ZN8opendnp311CommandTaskD5Ev,comdat
	.size	_ZN8opendnp311CommandTaskD0Ev, .-_ZN8opendnp311CommandTaskD0Ev
	.text
	.align 2
	.p2align 4
	.globl	_ZN8opendnp311CommandTask15ProcessResponseERKN7openpal6RSliceE
	.type	_ZN8opendnp311CommandTask15ProcessResponseERKN7openpal6RSliceE, @function
_ZN8opendnp311CommandTask15ProcessResponseERKN7openpal6RSliceE:
.LFB3150:
	.cfi_startproc
	subq	$8, %rsp
	.cfi_def_cfa_offset 16
	leaq	16(%rdi), %rdx
	movq	104(%rdi), %rax
	cmpq	%rax, 136(%rdi)
	je	.L68
	addq	$208, %rdi
	call	_ZN8opendnp313CommandSetOps21ProcessSelectResponseERNS_10CommandSetERKN7openpal6RSliceEPNS3_6LoggerE@PLT
	movl	%eax, %edx
	movl	$3, %eax
	testb	%dl, %dl
	je	.L62
	cmpb	$2, %dl
	sete	%al
	addl	%eax, %eax
.L62:
	addq	$8, %rsp
	.cfi_remember_state
	.cfi_def_cfa_offset 8
	ret
	.p2align 4,,10
	.p2align 3
.L68:
	.cfi_restore_state
	addq	$208, %rdi
	call	_ZN8opendnp313CommandSetOps22ProcessOperateResponseERNS_10CommandSetERKN7openpal6RSliceEPNS3_6LoggerE@PLT
	cmpb	$1, %al
	setne	%al
	addq	$8, %rsp
	.cfi_def_cfa_offset 8
	addl	%eax, %eax
	ret
	.cfi_endproc
.LFE3150:
	.size	_ZN8opendnp311CommandTask15ProcessResponseERKN7openpal6RSliceE, .-_ZN8opendnp311CommandTask15ProcessResponseERKN7openpal6RSliceE
	.align 2
	.p2align 4
	.globl	_ZN8opendnp311CommandTask15ProcessResponseERKNS_18APDUResponseHeaderERKN7openpal6RSliceE
	.type	_ZN8opendnp311CommandTask15ProcessResponseERKNS_18APDUResponseHeaderERKN7openpal6RSliceE, @function
_ZN8opendnp311CommandTask15ProcessResponseERKNS_18APDUResponseHeaderERKN7openpal6RSliceE:
.LFB3147:
	.cfi_startproc
	pushq	%r14
	.cfi_def_cfa_offset 16
	.cfi_offset 14, -16
	movq	%rdx, %r14
	pushq	%rbx
	.cfi_def_cfa_offset 24
	.cfi_offset 3, -24
	movq	%rdi, %rbx
	subq	$8, %rsp
	.cfi_def_cfa_offset 32
	call	_ZN8opendnp311IMasterTask22ValidateSingleResponseERKNS_18APDUResponseHeaderE@PLT
	testb	%al, %al
	jne	.L72
	addq	$8, %rsp
	.cfi_remember_state
	.cfi_def_cfa_offset 24
	xorl	%eax, %eax
	popq	%rbx
	.cfi_def_cfa_offset 16
	popq	%r14
	.cfi_def_cfa_offset 8
	ret
	.p2align 4,,10
	.p2align 3
.L72:
	.cfi_restore_state
	addq	$8, %rsp
	.cfi_def_cfa_offset 24
	movq	%r14, %rsi
	movq	%rbx, %rdi
	popq	%rbx
	.cfi_def_cfa_offset 16
	popq	%r14
	.cfi_def_cfa_offset 8
	jmp	_ZN8opendnp311CommandTask15ProcessResponseERKN7openpal6RSliceE@PLT
	.cfi_endproc
.LFE3147:
	.size	_ZN8opendnp311CommandTask15ProcessResponseERKNS_18APDUResponseHeaderERKN7openpal6RSliceE, .-_ZN8opendnp311CommandTask15ProcessResponseERKNS_18APDUResponseHeaderERKN7openpal6RSliceE
	.section	.text._ZNSt16_Sp_counted_baseILN9__gnu_cxx12_Lock_policyE2EE24_M_release_last_use_coldEv,"axG",@progbits,_ZNSt16_Sp_counted_baseILN9__gnu_cxx12_Lock_policyE2EE24_M_release_last_use_coldEv,comdat
	.align 2
	.p2align 4
	.weak	_ZNSt16_Sp_counted_baseILN9__gnu_cxx12_Lock_policyE2EE24_M_release_last_use_coldEv
	.type	_ZNSt16_Sp_counted_baseILN9__gnu_cxx12_Lock_policyE2EE24_M_release_last_use_coldEv, @function
_ZNSt16_Sp_counted_baseILN9__gnu_cxx12_Lock_policyE2EE24_M_release_last_use_coldEv:
.LFB3157:
	.cfi_startproc
	pushq	%rbx
	.cfi_def_cfa_offset 16
	.cfi_offset 3, -16
	movq	(%rdi), %rax
	movq	%rdi, %rbx
	call	*16(%rax)
	movq	__libc_single_threaded@GOTPCREL(%rip), %rax
	cmpb	$0, (%rax)
	je	.L74
	movl	12(%rbx), %eax
	leal	-1(%rax), %edx
	movl	%edx, 12(%rbx)
.L75:
	cmpl	$1, %eax
	je	.L78
	popq	%rbx
	.cfi_remember_state
	.cfi_def_cfa_offset 8
	ret
	.p2align 4,,10
	.p2align 3
.L78:
	.cfi_restore_state
	movq	(%rbx), %rax
	movq	%rbx, %rdi
	popq	%rbx
	.cfi_remember_state
	.cfi_def_cfa_offset 8
	movq	24(%rax), %rax
	jmp	*%rax
	.p2align 4,,10
	.p2align 3
.L74:
	.cfi_restore_state
	movl	$-1, %eax
	lock xaddl	%eax, 12(%rbx)
	jmp	.L75
	.cfi_endproc
.LFE3157:
	.size	_ZNSt16_Sp_counted_baseILN9__gnu_cxx12_Lock_policyE2EE24_M_release_last_use_coldEv, .-_ZNSt16_Sp_counted_baseILN9__gnu_cxx12_Lock_policyE2EE24_M_release_last_use_coldEv
	.section	.text._ZNSt16_Sp_counted_baseILN9__gnu_cxx12_Lock_policyE2EE10_M_releaseEv,"axG",@progbits,_ZNSt16_Sp_counted_baseILN9__gnu_cxx12_Lock_policyE2EE10_M_releaseEv,comdat
	.align 2
	.p2align 4
	.weak	_ZNSt16_Sp_counted_baseILN9__gnu_cxx12_Lock_policyE2EE10_M_releaseEv
	.type	_ZNSt16_Sp_counted_baseILN9__gnu_cxx12_Lock_policyE2EE10_M_releaseEv, @function
_ZNSt16_Sp_counted_baseILN9__gnu_cxx12_Lock_policyE2EE10_M_releaseEv:
.LFB1188:
	.cfi_startproc
	movabsq	$4294967297, %rax
	movq	8(%rdi), %rdx
	cmpq	%rax, %rdx
	je	.L87
	movq	__libc_single_threaded@GOTPCREL(%rip), %rax
	cmpb	$0, (%rax)
	je	.L81
	movl	8(%rdi), %eax
	leal	-1(%rax), %edx
	movl	%edx, 8(%rdi)
.L82:
	cmpl	$1, %eax
	je	.L88
	ret
	.p2align 4,,10
	.p2align 3
.L81:
	leaq	8(%rdi), %rcx
	movl	$-1, %eax
	lock xaddl	%eax, (%rcx)
	jmp	.L82
	.p2align 4,,10
	.p2align 3
.L87:
	subq	$24, %rsp
	.cfi_def_cfa_offset 32
	movq	(%rdi), %rax
	movq	$0, 8(%rdi)
	movq	%rdi, 8(%rsp)
	call	*16(%rax)
	movq	8(%rsp), %rdi
	movq	(%rdi), %rax
	movq	24(%rax), %rax
	addq	$24, %rsp
	.cfi_def_cfa_offset 8
	jmp	*%rax
	.p2align 4,,10
	.p2align 3
.L88:
	jmp	_ZNSt16_Sp_counted_baseILN9__gnu_cxx12_Lock_policyE2EE24_M_release_last_use_coldEv@PLT
	.cfi_endproc
.LFE1188:
	.size	_ZNSt16_Sp_counted_baseILN9__gnu_cxx12_Lock_policyE2EE10_M_releaseEv, .-_ZNSt16_Sp_counted_baseILN9__gnu_cxx12_Lock_policyE2EE10_M_releaseEv
	.section	.text._ZN7openpal6LoggerD2Ev,"axG",@progbits,_ZN7openpal6LoggerD5Ev,comdat
	.align 2
	.p2align 4
	.weak	_ZN7openpal6LoggerD2Ev
	.type	_ZN7openpal6LoggerD2Ev, @function
_ZN7openpal6LoggerD2Ev:
.LFB1998:
	.cfi_startproc
	subq	$24, %rsp
	.cfi_def_cfa_offset 32
	movq	%rdi, %rax
	movq	24(%rdi), %rdi
	testq	%rdi, %rdi
	je	.L91
	movq	8(%rdi), %rcx
	leaq	8(%rdi), %rsi
	movabsq	$4294967297, %rdx
	cmpq	%rdx, %rcx
	je	.L103
	movq	__libc_single_threaded@GOTPCREL(%rip), %rdx
	cmpb	$0, (%rdx)
	je	.L93
	movl	8(%rdi), %edx
	leal	-1(%rdx), %ecx
	movl	%ecx, 8(%rdi)
.L94:
	cmpl	$1, %edx
	je	.L104
.L91:
	movq	8(%rax), %rdi
	testq	%rdi, %rdi
	je	.L89
	movq	8(%rdi), %rdx
	leaq	8(%rdi), %rcx
	movabsq	$4294967297, %rax
	cmpq	%rax, %rdx
	je	.L105
	movq	__libc_single_threaded@GOTPCREL(%rip), %rax
	cmpb	$0, (%rax)
	je	.L99
	movl	8(%rdi), %eax
	leal	-1(%rax), %edx
	movl	%edx, 8(%rdi)
.L100:
	cmpl	$1, %eax
	je	.L106
.L89:
	addq	$24, %rsp
	.cfi_remember_state
	.cfi_def_cfa_offset 8
	ret
	.p2align 4,,10
	.p2align 3
.L105:
	.cfi_restore_state
	movq	(%rdi), %rax
	movq	%rdi, (%rsp)
	movq	$0, 8(%rdi)
	call	*16(%rax)
	movq	(%rsp), %rdi
	movq	(%rdi), %rax
	movq	24(%rax), %rax
	addq	$24, %rsp
	.cfi_remember_state
	.cfi_def_cfa_offset 8
	jmp	*%rax
	.p2align 4,,10
	.p2align 3
.L103:
	.cfi_restore_state
	movq	(%rdi), %rdx
	movq	%rax, 8(%rsp)
	movq	$0, 8(%rdi)
	movq	%rdi, (%rsp)
	call	*16(%rdx)
	movq	(%rsp), %rdi
	movq	(%rdi), %rdx
	call	*24(%rdx)
	movq	8(%rsp), %rax
	jmp	.L91
	.p2align 4,,10
	.p2align 3
.L99:
	movl	$-1, %eax
	lock xaddl	%eax, (%rcx)
	jmp	.L100
	.p2align 4,,10
	.p2align 3
.L93:
	movl	$-1, %edx
	lock xaddl	%edx, (%rsi)
	jmp	.L94
	.p2align 4,,10
	.p2align 3
.L104:
	movq	%rax, (%rsp)
	call	_ZNSt16_Sp_counted_baseILN9__gnu_cxx12_Lock_policyE2EE24_M_release_last_use_coldEv@PLT
	movq	(%rsp), %rax
	jmp	.L91
	.p2align 4,,10
	.p2align 3
.L106:
	addq	$24, %rsp
	.cfi_def_cfa_offset 8
	jmp	_ZNSt16_Sp_counted_baseILN9__gnu_cxx12_Lock_policyE2EE24_M_release_last_use_coldEv@PLT
	.cfi_endproc
.LFE1998:
	.size	_ZN7openpal6LoggerD2Ev, .-_ZN7openpal6LoggerD2Ev
	.weak	_ZN7openpal6LoggerD1Ev
	.set	_ZN7openpal6LoggerD1Ev,_ZN7openpal6LoggerD2Ev
	.section	.text.unlikely,"ax",@progbits
	.align 2
.LCOLDB1:
	.text
.LHOTB1:
	.align 2
	.p2align 4
	.globl	_ZN8opendnp311CommandTaskC2EONS_10CommandSetERNS_18IMasterApplicationERKSt8functionIFvRKNS_18ICommandTaskResultEEERKNS_10TaskConfigEN7openpal6LoggerE
	.type	_ZN8opendnp311CommandTaskC2EONS_10CommandSetERNS_18IMasterApplicationERKSt8functionIFvRKNS_18ICommandTaskResultEEERKNS_10TaskConfigEN7openpal6LoggerE, @function
_ZN8opendnp311CommandTaskC2EONS_10CommandSetERNS_18IMasterApplicationERKSt8functionIFvRKNS_18ICommandTaskResultEEERKNS_10TaskConfigEN7openpal6LoggerE:
.LFB3142:
	.cfi_startproc
	.cfi_personality 0x9b,DW.ref.__gxx_personality_v0
	.cfi_lsda 0x1b,.LLSDA3142
	pushq	%r15
	.cfi_def_cfa_offset 16
	.cfi_offset 15, -16
	pushq	%r14
	.cfi_def_cfa_offset 24
	.cfi_offset 14, -24
	movq	%r8, %r14
	pushq	%r13
	.cfi_def_cfa_offset 32
	.cfi_offset 13, -32
	movq	%rdx, %r13
	pushq	%r12
	.cfi_def_cfa_offset 40
	.cfi_offset 12, -40
	movq	%rsi, %r12
	pushq	%rbp
	.cfi_def_cfa_offset 48
	.cfi_offset 6, -48
	movq	%rcx, %rbp
	pushq	%rbx
	.cfi_def_cfa_offset 56
	.cfi_offset 3, -56
	movq	%rdi, %rbx
	subq	$40, %rsp
	.cfi_def_cfa_offset 96
	movdqu	(%r9), %xmm0
	movhlps	%xmm0, %xmm1
	movaps	%xmm0, (%rsp)
	movq	%xmm1, %rax
	testq	%rax, %rax
	je	.L108
	movq	__libc_single_threaded@GOTPCREL(%rip), %rdx
	cmpb	$0, (%rdx)
	je	.L109
	addl	$1, 8(%rax)
.L108:
	movdqu	16(%r9), %xmm0
	movhlps	%xmm0, %xmm2
	movaps	%xmm0, 16(%rsp)
	movq	%xmm2, %rax
	testq	%rax, %rax
	je	.L110
	movq	__libc_single_threaded@GOTPCREL(%rip), %rdx
	cmpb	$0, (%rdx)
	je	.L111
	addl	$1, 8(%rax)
.L110:
.LEHB2:
	call	_ZN7openpal18MonotonicTimestamp3MinEv@PLT
	movq	(%r14), %r8
	movq	8(%r14), %r9
	movq	%rsp, %rcx
	movq	%rax, %rdx
	movq	%r13, %rsi
	movq	%rbx, %rdi
	call	_ZN8opendnp311IMasterTaskC2ERNS_18IMasterApplicationEN7openpal18MonotonicTimestampENS3_6LoggerENS_10TaskConfigE@PLT
.LEHE2:
	movq	24(%rsp), %r13
	testq	%r13, %r13
	je	.L113
	movq	8(%r13), %rdx
	leaq	8(%r13), %rcx
	movabsq	$4294967297, %rax
	cmpq	%rax, %rdx
	je	.L161
	movq	__libc_single_threaded@GOTPCREL(%rip), %rax
	cmpb	$0, (%rax)
	je	.L115
	movl	8(%r13), %eax
	leal	-1(%rax), %edx
	movl	%edx, 8(%r13)
.L116:
	cmpl	$1, %eax
	je	.L162
.L113:
	movq	8(%rsp), %r13
	testq	%r13, %r13
	je	.L119
	movq	8(%r13), %rdx
	leaq	8(%r13), %rcx
	movabsq	$4294967297, %rax
	cmpq	%rax, %rdx
	je	.L163
	movq	__libc_single_threaded@GOTPCREL(%rip), %rax
	cmpb	$0, (%rax)
	je	.L121
	movl	8(%r13), %eax
	leal	-1(%rax), %edx
	movl	%edx, 8(%r13)
.L122:
	cmpl	$1, %eax
	je	.L164
.L119:
	movq	_ZTVN8opendnp311CommandTaskE@GOTPCREL(%rip), %rax
	movq	$0, 88(%rbx)
	pxor	%xmm0, %xmm0
	movl	$64, %edi
	movq	$8, 96(%rbx)
	addq	$16, %rax
	movups	%xmm0, 104(%rbx)
	movq	%rax, (%rbx)
	movups	%xmm0, 120(%rbx)
	movups	%xmm0, 136(%rbx)
	movups	%xmm0, 152(%rbx)
.LEHB3:
	call	_Znwm@PLT
.LEHE3:
	movq	%rax, 88(%rbx)
	movl	$512, %edi
	movq	%rax, %r13
	leaq	24(%rax), %r14
.LEHB4:
	call	_Znwm@PLT
.LEHE4:
	movq	%rax, %xmm0
	leaq	512(%rax), %rdx
	movq	%rax, 24(%r13)
	punpcklqdq	%xmm0, %xmm0
	movq	%rax, 144(%rbx)
	movq	%rax, 136(%rbx)
	movq	16(%rbp), %rax
	movups	%xmm0, 104(%rbx)
	pxor	%xmm0, %xmm0
	movq	%r14, 128(%rbx)
	movq	%rdx, 120(%rbx)
	movq	%r14, 160(%rbx)
	movq	%rdx, 152(%rbx)
	movb	$127, 168(%rbx)
	movq	$0, 192(%rbx)
	movq	$0, 200(%rbx)
	movups	%xmm0, 176(%rbx)
	testq	%rax, %rax
	je	.L125
	leaq	176(%rbx), %r13
	movl	$2, %edx
	movq	%rbp, %rsi
	movq	%r13, %rdi
.LEHB5:
	call	*%rax
.LEHE5:
	movdqu	16(%rbp), %xmm0
	movups	%xmm0, 192(%rbx)
.L125:
	leaq	208(%rbx), %rdi
	movq	%r12, %rsi
.LEHB6:
	call	_ZN8opendnp310CommandSetC1EOS0_@PLT
.LEHE6:
	addq	$40, %rsp
	.cfi_remember_state
	.cfi_def_cfa_offset 56
	popq	%rbx
	.cfi_def_cfa_offset 48
	popq	%rbp
	.cfi_def_cfa_offset 40
	popq	%r12
	.cfi_def_cfa_offset 32
	popq	%r13
	.cfi_def_cfa_offset 24
	popq	%r14
	.cfi_def_cfa_offset 16
	popq	%r15
	.cfi_def_cfa_offset 8
	ret
	.p2align 4,,10
	.p2align 3
.L111:
	.cfi_restore_state
	lock addl	$1, 8(%rax)
	jmp	.L110
	.p2align 4,,10
	.p2align 3
.L109:
	lock addl	$1, 8(%rax)
	jmp	.L108
	.p2align 4,,10
	.p2align 3
.L163:
	movq	0(%r13), %rax
	movq	%r13, %rdi
	movq	$0, 8(%r13)
	call	*16(%rax)
	movq	0(%r13), %rax
	movq	%r13, %rdi
	call	*24(%rax)
	jmp	.L119
	.p2align 4,,10
	.p2align 3
.L161:
	movq	0(%r13), %rax
	movq	%r13, %rdi
	movq	$0, 8(%r13)
	call	*16(%rax)
	movq	0(%r13), %rax
	movq	%r13, %rdi
	call	*24(%rax)
	jmp	.L113
	.p2align 4,,10
	.p2align 3
.L121:
	movl	$-1, %eax
	lock xaddl	%eax, (%rcx)
	jmp	.L122
	.p2align 4,,10
	.p2align 3
.L115:
	movl	$-1, %eax
	lock xaddl	%eax, (%rcx)
	jmp	.L116
.L162:
	movq	%r13, %rdi
	call	_ZNSt16_Sp_counted_baseILN9__gnu_cxx12_Lock_policyE2EE24_M_release_last_use_coldEv@PLT
	jmp	.L113
.L164:
	movq	%r13, %rdi
	call	_ZNSt16_Sp_counted_baseILN9__gnu_cxx12_Lock_policyE2EE24_M_release_last_use_coldEv@PLT
	jmp	.L119
.L140:
	movq	%rax, %rbx
	jmp	.L134
.L144:
	jmp	.L126
.L142:
	movq	%rax, %rbp
	jmp	.L135
.L141:
	movq	%rax, %rbp
	jmp	.L129
.L146:
	movq	%rax, %rbp
	jmp	.L131
	.section	.gcc_except_table,"a",@progbits
	.align 4
.LLSDA3142:
	.byte	0xff
	.byte	0x9b
	.uleb128 .LLSDATT3142-.LLSDATTD3142
.LLSDATTD3142:
	.byte	0x1
	.uleb128 .LLSDACSE3142-.LLSDACSB3142
.LLSDACSB3142:
	.uleb128 .LEHB2-.LFB3142
	.uleb128 .LEHE2-.LEHB2
	.uleb128 .L140-.LFB3142
	.uleb128 0
	.uleb128 .LEHB3-.LFB3142
	.uleb128 .LEHE3-.LEHB3
	.uleb128 .L141-.LFB3142
	.uleb128 0
	.uleb128 .LEHB4-.LFB3142
	.uleb128 .LEHE4-.LEHB4
	.uleb128 .L144-.LFB3142
	.uleb128 0x1
	.uleb128 .LEHB5-.LFB3142
	.uleb128 .LEHE5-.LEHB5
	.uleb128 .L146-.LFB3142
	.uleb128 0
	.uleb128 .LEHB6-.LFB3142
	.uleb128 .LEHE6-.LEHB6
	.uleb128 .L142-.LFB3142
	.uleb128 0
.LLSDACSE3142:
	.byte	0x1
	.byte	0
	.align 4
	.long	0

.LLSDATT3142:
	.text
	.cfi_endproc
	.section	.text.unlikely
	.cfi_startproc
	.cfi_personality 0x9b,DW.ref.__gxx_personality_v0
	.cfi_lsda 0x1b,.LLSDAC3142
	.type	_ZN8opendnp311CommandTaskC2EONS_10CommandSetERNS_18IMasterApplicationERKSt8functionIFvRKNS_18ICommandTaskResultEEERKNS_10TaskConfigEN7openpal6LoggerE.cold, @function
_ZN8opendnp311CommandTaskC2EONS_10CommandSetERNS_18IMasterApplicationERKSt8functionIFvRKNS_18ICommandTaskResultEEERKNS_10TaskConfigEN7openpal6LoggerE.cold:
.LFSB3142:
.L134:
	.cfi_def_cfa_offset 96
	.cfi_offset 3, -56
	.cfi_offset 6, -48
	.cfi_offset 12, -40
	.cfi_offset 13, -32
	.cfi_offset 14, -24
	.cfi_offset 15, -16
	movq	%rsp, %rdi
	call	_ZN7openpal6LoggerD1Ev@PLT
	movq	%rbx, %rdi
.LEHB7:
	call	_Unwind_Resume@PLT
.LEHE7:
.L126:
	movq	%rax, %rdi
	call	__cxa_begin_catch@PLT
.LEHB8:
	call	__cxa_rethrow@PLT
.LEHE8:
.L143:
	movq	%rax, %rbp
	call	__cxa_end_catch@PLT
.L129:
	movq	%rbx, %rdi
	call	_ZN8opendnp311IMasterTaskD2Ev@PLT
	movq	%rbp, %rdi
.LEHB9:
	call	_Unwind_Resume@PLT
.LEHE9:
.L145:
	movq	%rax, %rbp
	call	__cxa_end_catch@PLT
	movq	%rbp, %rdi
	call	__cxa_begin_catch@PLT
	movq	96(%rbx), %rax
	movq	88(%rbx), %rdi
	leaq	0(,%rax,8), %rsi
	call	_ZdlPvm@PLT
	xorl	%eax, %eax
	movq	%rax, 88(%rbx)
	movq	%rax, 96(%rbx)
.LEHB10:
	call	__cxa_rethrow@PLT
.LEHE10:
.L135:
	movq	192(%rbx), %rax
	testq	%rax, %rax
	je	.L133
	leaq	176(%rbx), %rdi
	movl	$3, %edx
	movq	%rdi, %rsi
	call	*%rax
	jmp	.L133
.L131:
	movq	192(%rbx), %rax
	testq	%rax, %rax
	je	.L133
	movl	$3, %edx
	movq	%r13, %rsi
	movq	%r13, %rdi
	call	*%rax
.L133:
	cmpq	$0, 88(%rbx)
	je	.L129
	movq	160(%rbx), %rax
	movq	128(%rbx), %r12
	leaq	8(%rax), %r13
.L138:
	cmpq	%r13, %r12
	jnb	.L165
	movq	(%r12), %rdi
	movl	$512, %esi
	addq	$8, %r12
	call	_ZdlPvm@PLT
	jmp	.L138
.L165:
	movq	96(%rbx), %rax
	movq	88(%rbx), %rdi
	leaq	0(,%rax,8), %rsi
	call	_ZdlPvm@PLT
	jmp	.L129
	.cfi_endproc
.LFE3142:
	.section	.gcc_except_table
	.align 4
.LLSDAC3142:
	.byte	0xff
	.byte	0x9b
	.uleb128 .LLSDATTC3142-.LLSDATTDC3142
.LLSDATTDC3142:
	.byte	0x1
	.uleb128 .LLSDACSEC3142-.LLSDACSBC3142
.LLSDACSBC3142:
	.uleb128 .LEHB7-.LCOLDB1
	.uleb128 .LEHE7-.LEHB7
	.uleb128 0
	.uleb128 0
	.uleb128 .LEHB8-.LCOLDB1
	.uleb128 .LEHE8-.LEHB8
	.uleb128 .L145-.LCOLDB1
	.uleb128 0x1
	.uleb128 .LEHB9-.LCOLDB1
	.uleb128 .LEHE9-.LEHB9
	.uleb128 0
	.uleb128 0
	.uleb128 .LEHB10-.LCOLDB1
	.uleb128 .LEHE10-.LEHB10
	.uleb128 .L143-.LCOLDB1
	.uleb128 0
.LLSDACSEC3142:
	.byte	0x1
	.byte	0
	.align 4
	.long	0

.LLSDATTC3142:
	.section	.text.unlikely
	.text
	.size	_ZN8opendnp311CommandTaskC2EONS_10CommandSetERNS_18IMasterApplicationERKSt8functionIFvRKNS_18ICommandTaskResultEEERKNS_10TaskConfigEN7openpal6LoggerE, .-_ZN8opendnp311CommandTaskC2EONS_10CommandSetERNS_18IMasterApplicationERKSt8functionIFvRKNS_18ICommandTaskResultEEERKNS_10TaskConfigEN7openpal6LoggerE
	.section	.text.unlikely
	.size	_ZN8opendnp311CommandTaskC2EONS_10CommandSetERNS_18IMasterApplicationERKSt8functionIFvRKNS_18ICommandTaskResultEEERKNS_10TaskConfigEN7openpal6LoggerE.cold, .-_ZN8opendnp311CommandTaskC2EONS_10CommandSetERNS_18IMasterApplicationERKSt8functionIFvRKNS_18ICommandTaskResultEEERKNS_10TaskConfigEN7openpal6LoggerE.cold
.LCOLDE1:
	.text
.LHOTE1:
	.globl	_ZN8opendnp311CommandTaskC1EONS_10CommandSetERNS_18IMasterApplicationERKSt8functionIFvRKNS_18ICommandTaskResultEEERKNS_10TaskConfigEN7openpal6LoggerE
	.set	_ZN8opendnp311CommandTaskC1EONS_10CommandSetERNS_18IMasterApplicationERKSt8functionIFvRKNS_18ICommandTaskResultEEERKNS_10TaskConfigEN7openpal6LoggerE,_ZN8opendnp311CommandTaskC2EONS_10CommandSetERNS_18IMasterApplicationERKSt8functionIFvRKNS_18ICommandTaskResultEEERKNS_10TaskConfigEN7openpal6LoggerE
	.section	.text._ZNSt5dequeIN8opendnp312FunctionCodeESaIS1_EE17_M_reallocate_mapEmb,"axG",@progbits,_ZNSt5dequeIN8opendnp312FunctionCodeESaIS1_EE17_M_reallocate_mapEmb,comdat
	.align 2
	.p2align 4
	.weak	_ZNSt5dequeIN8opendnp312FunctionCodeESaIS1_EE17_M_reallocate_mapEmb
	.type	_ZNSt5dequeIN8opendnp312FunctionCodeESaIS1_EE17_M_reallocate_mapEmb, @function
_ZNSt5dequeIN8opendnp312FunctionCodeESaIS1_EE17_M_reallocate_mapEmb:
.LFB4013:
	.cfi_startproc
	pushq	%r15
	.cfi_def_cfa_offset 16
	.cfi_offset 15, -16
	movl	%edx, %r8d
	movq	%rsi, %rcx
	pushq	%r14
	.cfi_def_cfa_offset 24
	.cfi_offset 14, -24
	pushq	%r13
	.cfi_def_cfa_offset 32
	.cfi_offset 13, -32
	pushq	%r12
	.cfi_def_cfa_offset 40
	.cfi_offset 12, -40
	movq	%rdi, %r12
	pushq	%rbp
	.cfi_def_cfa_offset 48
	.cfi_offset 6, -48
	pushq	%rbx
	.cfi_def_cfa_offset 56
	.cfi_offset 3, -56
	subq	$56, %rsp
	.cfi_def_cfa_offset 112
	movq	72(%rdi), %rdx
	movq	40(%rdi), %rsi
	movq	8(%rdi), %rbp
	movq	%rdx, %r13
	subq	%rsi, %r13
	movq	%r13, %rax
	sarq	$3, %rax
	leaq	1(%rax,%rcx), %r9
	leaq	(%r9,%r9), %rax
	cmpq	%rbp, %rax
	jnb	.L167
	subq	%r9, %rbp
	movq	(%rdi), %rbx
	shrq	%rbp
	salq	$3, %rbp
	testb	%r8b, %r8b
	leaq	0(%rbp,%rcx,8), %rax
	cmovne	%rax, %rbp
	addq	$8, %rdx
	subq	%rsi, %rdx
	addq	%rbp, %rbx
	cmpq	%rsi, %rbx
	jnb	.L169
	cmpq	$8, %rdx
	jle	.L170
	movq	%rbx, %rdi
	call	memmove@PLT
	movq	(%rbx), %rax
	jmp	.L171
	.p2align 4,,10
	.p2align 3
.L167:
	cmpq	%rcx, %rbp
	movq	%rcx, %rax
	movq	%rsi, 24(%rsp)
	cmovnb	%rbp, %rax
	movq	%rdx, 16(%rsp)
	movq	%rcx, 8(%rsp)
	leaq	2(%rbp,%rax), %r14
	movl	%r8d, 44(%rsp)
	leaq	0(,%r14,8), %rdi
	movq	%r9, 32(%rsp)
	movq	%r14, %rbx
	call	_Znwm@PLT
	subq	32(%rsp), %rbx
	movq	8(%rsp), %rcx
	shrq	%rbx
	movq	16(%rsp), %rdx
	movq	%rax, %r15
	movq	24(%rsp), %rsi
	salq	$3, %rbx
	cmpb	$0, 44(%rsp)
	leaq	(%rbx,%rcx,8), %rax
	cmovne	%rax, %rbx
	addq	$8, %rdx
	subq	%rsi, %rdx
	addq	%r15, %rbx
	cmpq	$8, %rdx
	jle	.L176
	movq	%rbx, %rdi
	call	memmove@PLT
.L177:
	movq	(%r12), %rdi
	leaq	0(,%rbp,8), %rsi
	call	_ZdlPvm@PLT
	movq	%r15, (%r12)
	movq	%r14, 8(%r12)
.L179:
	movq	(%rbx), %rax
.L171:
	movq	%rax, 24(%r12)
	addq	$512, %rax
	movq	%rbx, 40(%r12)
	addq	%r13, %rbx
	movq	%rax, 32(%r12)
	movq	(%rbx), %rax
	movq	%rbx, 72(%r12)
	leaq	512(%rax), %rdx
	movq	%rax, %xmm0
	movq	%rdx, %xmm1
	punpcklqdq	%xmm1, %xmm0
	movups	%xmm0, 56(%r12)
	addq	$56, %rsp
	.cfi_remember_state
	.cfi_def_cfa_offset 56
	popq	%rbx
	.cfi_def_cfa_offset 48
	popq	%rbp
	.cfi_def_cfa_offset 40
	popq	%r12
	.cfi_def_cfa_offset 32
	popq	%r13
	.cfi_def_cfa_offset 24
	popq	%r14
	.cfi_def_cfa_offset 16
	popq	%r15
	.cfi_def_cfa_offset 8
	ret
	.p2align 4,,10
	.p2align 3
.L169:
	.cfi_restore_state
	movq	%rdx, %rax
	salq	$61, %rax
	subq	%rdx, %rax
	leaq	8(%r13,%rax), %rdi
	addq	%rbx, %rdi
	cmpq	$8, %rdx
	jle	.L173
	call	memmove@PLT
	movq	(%rbx), %rax
	jmp	.L171
	.p2align 4,,10
	.p2align 3
.L176:
	jne	.L177
	movq	(%rsi), %rax
	movq	%rax, (%rbx)
	jmp	.L177
	.p2align 4,,10
	.p2align 3
.L173:
	jne	.L179
	movq	(%rsi), %rax
	movq	%rax, (%rdi)
	movq	(%rbx), %rax
	jmp	.L171
	.p2align 4,,10
	.p2align 3
.L170:
	jne	.L179
	movq	(%rsi), %rax
	movq	%rax, (%rbx)
	jmp	.L171
	.cfi_endproc
.LFE4013:
	.size	_ZNSt5dequeIN8opendnp312FunctionCodeESaIS1_EE17_M_reallocate_mapEmb, .-_ZNSt5dequeIN8opendnp312FunctionCodeESaIS1_EE17_M_reallocate_mapEmb
	.section	.rodata._ZNSt5dequeIN8opendnp312FunctionCodeESaIS1_EE16_M_push_back_auxIJS1_EEEvDpOT_.str1.8,"aMS",@progbits,1
	.align 8
.LC2:
	.string	"cannot create std::deque larger than max_size()"
	.section	.text._ZNSt5dequeIN8opendnp312FunctionCodeESaIS1_EE16_M_push_back_auxIJS1_EEEvDpOT_,"axG",@progbits,_ZNSt5dequeIN8opendnp312FunctionCodeESaIS1_EE16_M_push_back_auxIJS1_EEEvDpOT_,comdat
	.align 2
	.p2align 4
	.weak	_ZNSt5dequeIN8opendnp312FunctionCodeESaIS1_EE16_M_push_back_auxIJS1_EEEvDpOT_
	.type	_ZNSt5dequeIN8opendnp312FunctionCodeESaIS1_EE16_M_push_back_auxIJS1_EEEvDpOT_, @function
_ZNSt5dequeIN8opendnp312FunctionCodeESaIS1_EE16_M_push_back_auxIJS1_EEEvDpOT_:
.LFB3851:
	.cfi_startproc
	pushq	%r12
	.cfi_def_cfa_offset 16
	.cfi_offset 12, -16
	pushq	%rbp
	.cfi_def_cfa_offset 24
	.cfi_offset 6, -24
	pushq	%rbx
	.cfi_def_cfa_offset 32
	.cfi_offset 3, -32
	movq	72(%rdi), %r12
	movq	48(%rdi), %rdx
	movq	%r12, %rax
	subq	40(%rdi), %rax
	sarq	$3, %rax
	cmpq	$1, %r12
	adcq	$-1, %rax
	subq	56(%rdi), %rdx
	salq	$9, %rax
	addq	%rdx, %rax
	movq	32(%rdi), %rdx
	subq	16(%rdi), %rdx
	addq	%rdx, %rax
	movabsq	$9223372036854775807, %rdx
	cmpq	%rdx, %rax
	je	.L184
	movq	8(%rdi), %rax
	movq	%r12, %rdx
	subq	(%rdi), %rdx
	movq	%rdi, %rbx
	sarq	$3, %rdx
	movq	%rsi, %rbp
	subq	%rdx, %rax
	cmpq	$1, %rax
	jbe	.L185
.L182:
	movl	$512, %edi
	addq	$8, %r12
	call	_Znwm@PLT
	movzbl	0(%rbp), %ecx
	movq	%rax, (%r12)
	movq	48(%rbx), %rdx
	movq	%rax, %xmm0
	punpcklqdq	%xmm0, %xmm0
	movb	%cl, (%rdx)
	leaq	512(%rax), %rdx
	movq	%r12, 72(%rbx)
	movq	%rdx, 64(%rbx)
	movups	%xmm0, 48(%rbx)
	popq	%rbx
	.cfi_remember_state
	.cfi_def_cfa_offset 24
	popq	%rbp
	.cfi_def_cfa_offset 16
	popq	%r12
	.cfi_def_cfa_offset 8
	ret
	.p2align 4,,10
	.p2align 3
.L185:
	.cfi_restore_state
	xorl	%edx, %edx
	movl	$1, %esi
	call	_ZNSt5dequeIN8opendnp312FunctionCodeESaIS1_EE17_M_reallocate_mapEmb@PLT
	movq	72(%rbx), %r12
	jmp	.L182
.L184:
	leaq	.LC2(%rip), %rdi
	call	_ZSt20__throw_length_errorPKc@PLT
	.cfi_endproc
.LFE3851:
	.size	_ZNSt5dequeIN8opendnp312FunctionCodeESaIS1_EE16_M_push_back_auxIJS1_EEEvDpOT_, .-_ZNSt5dequeIN8opendnp312FunctionCodeESaIS1_EE16_M_push_back_auxIJS1_EEEvDpOT_
	.text
	.align 2
	.p2align 4
	.globl	_ZN8opendnp311CommandTask20LoadSelectAndOperateEv
	.type	_ZN8opendnp311CommandTask20LoadSelectAndOperateEv, @function
_ZN8opendnp311CommandTask20LoadSelectAndOperateEv:
.LFB3144:
	.cfi_startproc
	pushq	%r15
	.cfi_def_cfa_offset 16
	.cfi_offset 15, -16
	pushq	%r14
	.cfi_def_cfa_offset 24
	.cfi_offset 14, -24
	pushq	%r13
	.cfi_def_cfa_offset 32
	.cfi_offset 13, -32
	movq	%rdi, %r13
	pushq	%r12
	.cfi_def_cfa_offset 40
	.cfi_offset 12, -40
	pushq	%rbp
	.cfi_def_cfa_offset 48
	.cfi_offset 6, -48
	pushq	%rbx
	.cfi_def_cfa_offset 56
	.cfi_offset 3, -56
	subq	$56, %rsp
	.cfi_def_cfa_offset 112
	movdqu	120(%rdi), %xmm0
	movq	160(%rdi), %rax
	movdqu	104(%rdi), %xmm1
	movhlps	%xmm0, %xmm4
	leaq	8(%rax), %rbp
	movaps	%xmm0, 16(%rsp)
	movq	%xmm0, %r14
	movq	%xmm4, %rbx
	movaps	%xmm1, (%rsp)
	movq	%xmm1, %r12
	addq	$8, %rbx
	cmpq	%rbp, %rbx
	jnb	.L190
	.p2align 4
	.p2align 3
.L187:
	movq	(%rbx), %rdi
	movl	$512, %esi
	addq	$8, %rbx
	call	_ZdlPvm@PLT
	cmpq	%rbp, %rbx
	jb	.L187
.L190:
	movdqa	(%rsp), %xmm2
	movdqa	16(%rsp), %xmm3
	subq	$1, %r14
	movb	$3, 47(%rsp)
	movups	%xmm2, 136(%r13)
	movups	%xmm3, 152(%r13)
	cmpq	%r12, %r14
	je	.L198
	movb	$3, (%r12)
	addq	$1, %r12
	movq	%r12, 136(%r13)
	movb	$4, 47(%rsp)
	cmpq	%r12, %r14
	je	.L192
.L199:
	movb	$4, (%r12)
	addq	$1, %r12
	movq	%r12, 136(%r13)
	addq	$56, %rsp
	.cfi_remember_state
	.cfi_def_cfa_offset 56
	popq	%rbx
	.cfi_def_cfa_offset 48
	popq	%rbp
	.cfi_def_cfa_offset 40
	popq	%r12
	.cfi_def_cfa_offset 32
	popq	%r13
	.cfi_def_cfa_offset 24
	popq	%r14
	.cfi_def_cfa_offset 16
	popq	%r15
	.cfi_def_cfa_offset 8
	ret
	.p2align 4,,10
	.p2align 3
.L198:
	.cfi_restore_state
	leaq	47(%rsp), %rsi
	leaq	88(%r13), %rdi
	call	_ZNSt5dequeIN8opendnp312FunctionCodeESaIS1_EE16_M_push_back_auxIJS1_EEEvDpOT_@PLT
	movq	152(%r13), %rax
	movb	$4, 47(%rsp)
	movq	136(%r13), %r12
	leaq	-1(%rax), %r14
	cmpq	%r12, %r14
	jne	.L199
.L192:
	leaq	47(%rsp), %rsi
	leaq	88(%r13), %rdi
	call	_ZNSt5dequeIN8opendnp312FunctionCodeESaIS1_EE16_M_push_back_auxIJS1_EEEvDpOT_@PLT
	addq	$56, %rsp
	.cfi_def_cfa_offset 56
	popq	%rbx
	.cfi_def_cfa_offset 48
	popq	%rbp
	.cfi_def_cfa_offset 40
	popq	%r12
	.cfi_def_cfa_offset 32
	popq	%r13
	.cfi_def_cfa_offset 24
	popq	%r14
	.cfi_def_cfa_offset 16
	popq	%r15
	.cfi_def_cfa_offset 8
	ret
	.cfi_endproc
.LFE3144:
	.size	_ZN8opendnp311CommandTask20LoadSelectAndOperateEv, .-_ZN8opendnp311CommandTask20LoadSelectAndOperateEv
	.section	.text.unlikely
	.align 2
.LCOLDB5:
	.text
.LHOTB5:
	.align 2
	.p2align 4
	.globl	_ZN8opendnp311CommandTask22CreateSelectAndOperateEONS_10CommandSetERNS_18IMasterApplicationERKSt8functionIFvRKNS_18ICommandTaskResultEEERKNS_10TaskConfigEN7openpal6LoggerE
	.type	_ZN8opendnp311CommandTask22CreateSelectAndOperateEONS_10CommandSetERNS_18IMasterApplicationERKSt8functionIFvRKNS_18ICommandTaskResultEEERKNS_10TaskConfigEN7openpal6LoggerE, @function
_ZN8opendnp311CommandTask22CreateSelectAndOperateEONS_10CommandSetERNS_18IMasterApplicationERKSt8functionIFvRKNS_18ICommandTaskResultEEERKNS_10TaskConfigEN7openpal6LoggerE:
.LFB3134:
	.cfi_startproc
	.cfi_personality 0x9b,DW.ref.__gxx_personality_v0
	.cfi_lsda 0x1b,.LLSDA3134
	pushq	%r13
	.cfi_def_cfa_offset 16
	.cfi_offset 13, -16
	movq	%r9, %r13
	pushq	%r12
	.cfi_def_cfa_offset 24
	.cfi_offset 12, -24
	pushq	%rbp
	.cfi_def_cfa_offset 32
	.cfi_offset 6, -32
	movq	%rdi, %rbp
	movl	$248, %edi
	pushq	%rbx
	.cfi_def_cfa_offset 40
	.cfi_offset 3, -40
	subq	$72, %rsp
	.cfi_def_cfa_offset 112
	movq	%rsi, 24(%rsp)
	movq	%rdx, 16(%rsp)
	movq	%rcx, 8(%rsp)
	movq	%r8, (%rsp)
.LEHB11:
	call	_Znwm@PLT
.LEHE11:
	movdqu	0(%r13), %xmm0
	movq	(%rsp), %r8
	movq	%rax, %rbx
	movq	8(%rsp), %rcx
	movq	16(%rsp), %rdx
	movq	.LC3(%rip), %rax
	movhlps	%xmm0, %xmm1
	movq	24(%rsp), %rsi
	leaq	16(%rbx), %r12
	movaps	%xmm0, 32(%rsp)
	movq	%rax, 8(%rbx)
	movq	_ZTVSt23_Sp_counted_ptr_inplaceIN8opendnp311CommandTaskESaIvELN9__gnu_cxx12_Lock_policyE2EE@GOTPCREL(%rip), %rax
	addq	$16, %rax
	movq	%rax, (%rbx)
	movq	%xmm1, %rax
	testq	%rax, %rax
	je	.L201
	movq	__libc_single_threaded@GOTPCREL(%rip), %rdi
	cmpb	$0, (%rdi)
	je	.L202
	addl	$1, 8(%rax)
.L201:
	movdqu	16(%r13), %xmm0
	movhlps	%xmm0, %xmm2
	movaps	%xmm0, 48(%rsp)
	movq	%xmm2, %rax
	testq	%rax, %rax
	je	.L203
	movq	__libc_single_threaded@GOTPCREL(%rip), %rdi
	cmpb	$0, (%rdi)
	je	.L204
	addl	$1, 8(%rax)
.L203:
	leaq	32(%rsp), %r9
	movq	%r12, %rdi
.LEHB12:
	call	_ZN8opendnp311CommandTaskC1EONS_10CommandSetERNS_18IMasterApplicationERKSt8functionIFvRKNS_18ICommandTaskResultEEERKNS_10TaskConfigEN7openpal6LoggerE@PLT
.LEHE12:
	movq	56(%rsp), %r13
	testq	%r13, %r13
	je	.L206
	movq	8(%r13), %rdx
	leaq	8(%r13), %rcx
	movabsq	$4294967297, %rax
	cmpq	%rax, %rdx
	je	.L231
	movq	__libc_single_threaded@GOTPCREL(%rip), %rax
	cmpb	$0, (%rax)
	je	.L208
	movl	8(%r13), %eax
	leal	-1(%rax), %edx
	movl	%edx, 8(%r13)
.L209:
	cmpl	$1, %eax
	je	.L232
.L206:
	movq	40(%rsp), %r13
	testq	%r13, %r13
	je	.L212
	movq	8(%r13), %rdx
	leaq	8(%r13), %rcx
	movabsq	$4294967297, %rax
	cmpq	%rax, %rdx
	je	.L233
	movq	__libc_single_threaded@GOTPCREL(%rip), %rax
	cmpb	$0, (%rax)
	je	.L214
	movl	8(%r13), %eax
	leal	-1(%rax), %edx
	movl	%edx, 8(%r13)
.L215:
	cmpl	$1, %eax
	je	.L234
.L212:
	movq	%r12, %rdi
.LEHB13:
	call	_ZN8opendnp311CommandTask20LoadSelectAndOperateEv@PLT
.LEHE13:
	movq	%r12, 0(%rbp)
	movq	%rbp, %rax
	movq	%rbx, 8(%rbp)
	addq	$72, %rsp
	.cfi_remember_state
	.cfi_def_cfa_offset 40
	popq	%rbx
	.cfi_def_cfa_offset 32
	popq	%rbp
	.cfi_def_cfa_offset 24
	popq	%r12
	.cfi_def_cfa_offset 16
	popq	%r13
	.cfi_def_cfa_offset 8
	ret
	.p2align 4,,10
	.p2align 3
.L202:
	.cfi_restore_state
	lock addl	$1, 8(%rax)
	jmp	.L201
	.p2align 4,,10
	.p2align 3
.L204:
	lock addl	$1, 8(%rax)
	jmp	.L203
	.p2align 4,,10
	.p2align 3
.L233:
	movq	0(%r13), %rax
	movq	%r13, %rdi
	movq	$0, 8(%r13)
	call	*16(%rax)
	movq	0(%r13), %rax
	movq	%r13, %rdi
	call	*24(%rax)
	jmp	.L212
	.p2align 4,,10
	.p2align 3
.L231:
	movq	0(%r13), %rax
	movq	%r13, %rdi
	movq	$0, 8(%r13)
	call	*16(%rax)
	movq	0(%r13), %rax
	movq	%r13, %rdi
	call	*24(%rax)
	jmp	.L206
	.p2align 4,,10
	.p2align 3
.L208:
	movl	$-1, %eax
	lock xaddl	%eax, (%rcx)
	jmp	.L209
	.p2align 4,,10
	.p2align 3
.L214:
	movl	$-1, %eax
	lock xaddl	%eax, (%rcx)
	jmp	.L215
	.p2align 4,,10
	.p2align 3
.L234:
	movq	%r13, %rdi
	call	_ZNSt16_Sp_counted_baseILN9__gnu_cxx12_Lock_policyE2EE24_M_release_last_use_coldEv@PLT
	jmp	.L212
	.p2align 4,,10
	.p2align 3
.L232:
	movq	%r13, %rdi
	call	_ZNSt16_Sp_counted_baseILN9__gnu_cxx12_Lock_policyE2EE24_M_release_last_use_coldEv@PLT
	jmp	.L206
.L221:
	movq	%rax, %rbp
	jmp	.L218
.L220:
	movq	%rax, %rbp
	jmp	.L219
	.section	.gcc_except_table
.LLSDA3134:
	.byte	0xff
	.byte	0xff
	.byte	0x1
	.uleb128 .LLSDACSE3134-.LLSDACSB3134
.LLSDACSB3134:
	.uleb128 .LEHB11-.LFB3134
	.uleb128 .LEHE11-.LEHB11
	.uleb128 0
	.uleb128 0
	.uleb128 .LEHB12-.LFB3134
	.uleb128 .LEHE12-.LEHB12
	.uleb128 .L221-.LFB3134
	.uleb128 0
	.uleb128 .LEHB13-.LFB3134
	.uleb128 .LEHE13-.LEHB13
	.uleb128 .L220-.LFB3134
	.uleb128 0
.LLSDACSE3134:
	.text
	.cfi_endproc
	.section	.text.unlikely
	.cfi_startproc
	.cfi_personality 0x9b,DW.ref.__gxx_personality_v0
	.cfi_lsda 0x1b,.LLSDAC3134
	.type	_ZN8opendnp311CommandTask22CreateSelectAndOperateEONS_10CommandSetERNS_18IMasterApplicationERKSt8functionIFvRKNS_18ICommandTaskResultEEERKNS_10TaskConfigEN7openpal6LoggerE.cold, @function
_ZN8opendnp311CommandTask22CreateSelectAndOperateEONS_10CommandSetERNS_18IMasterApplicationERKSt8functionIFvRKNS_18ICommandTaskResultEEERKNS_10TaskConfigEN7openpal6LoggerE.cold:
.LFSB3134:
.L218:
	.cfi_def_cfa_offset 112
	.cfi_offset 3, -40
	.cfi_offset 6, -32
	.cfi_offset 12, -24
	.cfi_offset 13, -16
	leaq	32(%rsp), %rdi
	call	_ZN7openpal6LoggerD1Ev@PLT
	movq	%rbx, %rdi
	movl	$248, %esi
	call	_ZdlPvm@PLT
	movq	%rbp, %rdi
.LEHB14:
	call	_Unwind_Resume@PLT
.L219:
	movq	%rbx, %rdi
	call	_ZNSt16_Sp_counted_baseILN9__gnu_cxx12_Lock_policyE2EE10_M_releaseEv@PLT
	movq	%rbp, %rdi
	call	_Unwind_Resume@PLT
.LEHE14:
	.cfi_endproc
.LFE3134:
	.section	.gcc_except_table
.LLSDAC3134:
	.byte	0xff
	.byte	0xff
	.byte	0x1
	.uleb128 .LLSDACSEC3134-.LLSDACSBC3134
.LLSDACSBC3134:
	.uleb128 .LEHB14-.LCOLDB5
	.uleb128 .LEHE14-.LEHB14
	.uleb128 0
	.uleb128 0
.LLSDACSEC3134:
	.section	.text.unlikely
	.text
	.size	_ZN8opendnp311CommandTask22CreateSelectAndOperateEONS_10CommandSetERNS_18IMasterApplicationERKSt8functionIFvRKNS_18ICommandTaskResultEEERKNS_10TaskConfigEN7openpal6LoggerE, .-_ZN8opendnp311CommandTask22CreateSelectAndOperateEONS_10CommandSetERNS_18IMasterApplicationERKSt8functionIFvRKNS_18ICommandTaskResultEEERKNS_10TaskConfigEN7openpal6LoggerE
	.section	.text.unlikely
	.size	_ZN8opendnp311CommandTask22CreateSelectAndOperateEONS_10CommandSetERNS_18IMasterApplicationERKSt8functionIFvRKNS_18ICommandTaskResultEEERKNS_10TaskConfigEN7openpal6LoggerE.cold, .-_ZN8opendnp311CommandTask22CreateSelectAndOperateEONS_10CommandSetERNS_18IMasterApplicationERKSt8functionIFvRKNS_18ICommandTaskResultEEERKNS_10TaskConfigEN7openpal6LoggerE.cold
.LCOLDE5:
	.text
.LHOTE5:
	.align 2
	.p2align 4
	.globl	_ZN8opendnp311CommandTask17LoadDirectOperateEv
	.type	_ZN8opendnp311CommandTask17LoadDirectOperateEv, @function
_ZN8opendnp311CommandTask17LoadDirectOperateEv:
.LFB3145:
	.cfi_startproc
	pushq	%r14
	.cfi_def_cfa_offset 16
	.cfi_offset 14, -16
	pushq	%r13
	.cfi_def_cfa_offset 24
	.cfi_offset 13, -24
	pushq	%r12
	.cfi_def_cfa_offset 32
	.cfi_offset 12, -32
	movq	%rdi, %r12
	pushq	%rbp
	.cfi_def_cfa_offset 40
	.cfi_offset 6, -40
	pushq	%rbx
	.cfi_def_cfa_offset 48
	.cfi_offset 3, -48
	subq	$48, %rsp
	.cfi_def_cfa_offset 96
	movdqu	120(%rdi), %xmm0
	movq	160(%rdi), %rax
	movdqu	104(%rdi), %xmm1
	movhlps	%xmm0, %xmm4
	leaq	8(%rax), %rbp
	movaps	%xmm0, (%rsp)
	movq	%xmm0, %r14
	movq	%xmm4, %rbx
	movaps	%xmm1, 16(%rsp)
	movq	%xmm1, %r13
	addq	$8, %rbx
	cmpq	%rbp, %rbx
	jnb	.L236
	.p2align 4
	.p2align 3
.L237:
	movq	(%rbx), %rdi
	movl	$512, %esi
	addq	$8, %rbx
	call	_ZdlPvm@PLT
	cmpq	%rbp, %rbx
	jb	.L237
.L236:
	movdqa	16(%rsp), %xmm2
	movdqa	(%rsp), %xmm3
	subq	$1, %r14
	movb	$5, 47(%rsp)
	movups	%xmm2, 136(%r12)
	movups	%xmm3, 152(%r12)
	cmpq	%r14, %r13
	je	.L238
	movb	$5, 0(%r13)
	addq	$1, %r13
	movq	%r13, 136(%r12)
	addq	$48, %rsp
	.cfi_remember_state
	.cfi_def_cfa_offset 48
	popq	%rbx
	.cfi_def_cfa_offset 40
	popq	%rbp
	.cfi_def_cfa_offset 32
	popq	%r12
	.cfi_def_cfa_offset 24
	popq	%r13
	.cfi_def_cfa_offset 16
	popq	%r14
	.cfi_def_cfa_offset 8
	ret
	.p2align 4,,10
	.p2align 3
.L238:
	.cfi_restore_state
	leaq	47(%rsp), %rsi
	leaq	88(%r12), %rdi
	call	_ZNSt5dequeIN8opendnp312FunctionCodeESaIS1_EE16_M_push_back_auxIJS1_EEEvDpOT_@PLT
	addq	$48, %rsp
	.cfi_def_cfa_offset 48
	popq	%rbx
	.cfi_def_cfa_offset 40
	popq	%rbp
	.cfi_def_cfa_offset 32
	popq	%r12
	.cfi_def_cfa_offset 24
	popq	%r13
	.cfi_def_cfa_offset 16
	popq	%r14
	.cfi_def_cfa_offset 8
	ret
	.cfi_endproc
.LFE3145:
	.size	_ZN8opendnp311CommandTask17LoadDirectOperateEv, .-_ZN8opendnp311CommandTask17LoadDirectOperateEv
	.section	.text.unlikely
	.align 2
.LCOLDB6:
	.text
.LHOTB6:
	.align 2
	.p2align 4
	.globl	_ZN8opendnp311CommandTask19CreateDirectOperateEONS_10CommandSetERNS_18IMasterApplicationERKSt8functionIFvRKNS_18ICommandTaskResultEEERKNS_10TaskConfigEN7openpal6LoggerE
	.type	_ZN8opendnp311CommandTask19CreateDirectOperateEONS_10CommandSetERNS_18IMasterApplicationERKSt8functionIFvRKNS_18ICommandTaskResultEEERKNS_10TaskConfigEN7openpal6LoggerE, @function
_ZN8opendnp311CommandTask19CreateDirectOperateEONS_10CommandSetERNS_18IMasterApplicationERKSt8functionIFvRKNS_18ICommandTaskResultEEERKNS_10TaskConfigEN7openpal6LoggerE:
.LFB3120:
	.cfi_startproc
	.cfi_personality 0x9b,DW.ref.__gxx_personality_v0
	.cfi_lsda 0x1b,.LLSDA3120
	pushq	%r13
	.cfi_def_cfa_offset 16
	.cfi_offset 13, -16
	movq	%r9, %r13
	pushq	%r12
	.cfi_def_cfa_offset 24
	.cfi_offset 12, -24
	pushq	%rbp
	.cfi_def_cfa_offset 32
	.cfi_offset 6, -32
	movq	%rdi, %rbp
	movl	$248, %edi
	pushq	%rbx
	.cfi_def_cfa_offset 40
	.cfi_offset 3, -40
	subq	$72, %rsp
	.cfi_def_cfa_offset 112
	movq	%rsi, 24(%rsp)
	movq	%rdx, 16(%rsp)
	movq	%rcx, 8(%rsp)
	movq	%r8, (%rsp)
.LEHB15:
	call	_Znwm@PLT
.LEHE15:
	movdqu	0(%r13), %xmm0
	movq	(%rsp), %r8
	movq	%rax, %rbx
	movq	8(%rsp), %rcx
	movq	16(%rsp), %rdx
	movq	.LC3(%rip), %rax
	movhlps	%xmm0, %xmm1
	movq	24(%rsp), %rsi
	leaq	16(%rbx), %r12
	movaps	%xmm0, 32(%rsp)
	movq	%rax, 8(%rbx)
	movq	_ZTVSt23_Sp_counted_ptr_inplaceIN8opendnp311CommandTaskESaIvELN9__gnu_cxx12_Lock_policyE2EE@GOTPCREL(%rip), %rax
	addq	$16, %rax
	movq	%rax, (%rbx)
	movq	%xmm1, %rax
	testq	%rax, %rax
	je	.L243
	movq	__libc_single_threaded@GOTPCREL(%rip), %rdi
	cmpb	$0, (%rdi)
	je	.L244
	addl	$1, 8(%rax)
.L243:
	movdqu	16(%r13), %xmm0
	movhlps	%xmm0, %xmm2
	movaps	%xmm0, 48(%rsp)
	movq	%xmm2, %rax
	testq	%rax, %rax
	je	.L245
	movq	__libc_single_threaded@GOTPCREL(%rip), %rdi
	cmpb	$0, (%rdi)
	je	.L246
	addl	$1, 8(%rax)
.L245:
	leaq	32(%rsp), %r9
	movq	%r12, %rdi
.LEHB16:
	call	_ZN8opendnp311CommandTaskC1EONS_10CommandSetERNS_18IMasterApplicationERKSt8functionIFvRKNS_18ICommandTaskResultEEERKNS_10TaskConfigEN7openpal6LoggerE@PLT
.LEHE16:
	movq	56(%rsp), %r13
	testq	%r13, %r13
	je	.L248
	movq	8(%r13), %rdx
	leaq	8(%r13), %rcx
	movabsq	$4294967297, %rax
	cmpq	%rax, %rdx
	je	.L273
	movq	__libc_single_threaded@GOTPCREL(%rip), %rax
	cmpb	$0, (%rax)
	je	.L250
	movl	8(%r13), %eax
	leal	-1(%rax), %edx
	movl	%edx, 8(%r13)
.L251:
	cmpl	$1, %eax
	je	.L274
.L248:
	movq	40(%rsp), %r13
	testq	%r13, %r13
	je	.L254
	movq	8(%r13), %rdx
	leaq	8(%r13), %rcx
	movabsq	$4294967297, %rax
	cmpq	%rax, %rdx
	je	.L275
	movq	__libc_single_threaded@GOTPCREL(%rip), %rax
	cmpb	$0, (%rax)
	je	.L256
	movl	8(%r13), %eax
	leal	-1(%rax), %edx
	movl	%edx, 8(%r13)
.L257:
	cmpl	$1, %eax
	je	.L276
.L254:
	movq	%r12, %rdi
.LEHB17:
	call	_ZN8opendnp311CommandTask17LoadDirectOperateEv@PLT
.LEHE17:
	movq	%r12, 0(%rbp)
	movq	%rbp, %rax
	movq	%rbx, 8(%rbp)
	addq	$72, %rsp
	.cfi_remember_state
	.cfi_def_cfa_offset 40
	popq	%rbx
	.cfi_def_cfa_offset 32
	popq	%rbp
	.cfi_def_cfa_offset 24
	popq	%r12
	.cfi_def_cfa_offset 16
	popq	%r13
	.cfi_def_cfa_offset 8
	ret
	.p2align 4,,10
	.p2align 3
.L244:
	.cfi_restore_state
	lock addl	$1, 8(%rax)
	jmp	.L243
	.p2align 4,,10
	.p2align 3
.L246:
	lock addl	$1, 8(%rax)
	jmp	.L245
	.p2align 4,,10
	.p2align 3
.L275:
	movq	0(%r13), %rax
	movq	%r13, %rdi
	movq	$0, 8(%r13)
	call	*16(%rax)
	movq	0(%r13), %rax
	movq	%r13, %rdi
	call	*24(%rax)
	jmp	.L254
	.p2align 4,,10
	.p2align 3
.L273:
	movq	0(%r13), %rax
	movq	%r13, %rdi
	movq	$0, 8(%r13)
	call	*16(%rax)
	movq	0(%r13), %rax
	movq	%r13, %rdi
	call	*24(%rax)
	jmp	.L248
	.p2align 4,,10
	.p2align 3
.L250:
	movl	$-1, %eax
	lock xaddl	%eax, (%rcx)
	jmp	.L251
	.p2align 4,,10
	.p2align 3
.L256:
	movl	$-1, %eax
	lock xaddl	%eax, (%rcx)
	jmp	.L257
	.p2align 4,,10
	.p2align 3
.L276:
	movq	%r13, %rdi
	call	_ZNSt16_Sp_counted_baseILN9__gnu_cxx12_Lock_policyE2EE24_M_release_last_use_coldEv@PLT
	jmp	.L254
	.p2align 4,,10
	.p2align 3
.L274:
	movq	%r13, %rdi
	call	_ZNSt16_Sp_counted_baseILN9__gnu_cxx12_Lock_policyE2EE24_M_release_last_use_coldEv@PLT
	jmp	.L248
.L263:
	movq	%rax, %rbp
	jmp	.L260
.L262:
	movq	%rax, %rbp
	jmp	.L261
	.section	.gcc_except_table
.LLSDA3120:
	.byte	0xff
	.byte	0xff
	.byte	0x1
	.uleb128 .LLSDACSE3120-.LLSDACSB3120
.LLSDACSB3120:
	.uleb128 .LEHB15-.LFB3120
	.uleb128 .LEHE15-.LEHB15
	.uleb128 0
	.uleb128 0
	.uleb128 .LEHB16-.LFB3120
	.uleb128 .LEHE16-.LEHB16
	.uleb128 .L263-.LFB3120
	.uleb128 0
	.uleb128 .LEHB17-.LFB3120
	.uleb128 .LEHE17-.LEHB17
	.uleb128 .L262-.LFB3120
	.uleb128 0
.LLSDACSE3120:
	.text
	.cfi_endproc
	.section	.text.unlikely
	.cfi_startproc
	.cfi_personality 0x9b,DW.ref.__gxx_personality_v0
	.cfi_lsda 0x1b,.LLSDAC3120
	.type	_ZN8opendnp311CommandTask19CreateDirectOperateEONS_10CommandSetERNS_18IMasterApplicationERKSt8functionIFvRKNS_18ICommandTaskResultEEERKNS_10TaskConfigEN7openpal6LoggerE.cold, @function
_ZN8opendnp311CommandTask19CreateDirectOperateEONS_10CommandSetERNS_18IMasterApplicationERKSt8functionIFvRKNS_18ICommandTaskResultEEERKNS_10TaskConfigEN7openpal6LoggerE.cold:
.LFSB3120:
.L260:
	.cfi_def_cfa_offset 112
	.cfi_offset 3, -40
	.cfi_offset 6, -32
	.cfi_offset 12, -24
	.cfi_offset 13, -16
	leaq	32(%rsp), %rdi
	call	_ZN7openpal6LoggerD1Ev@PLT
	movq	%rbx, %rdi
	movl	$248, %esi
	call	_ZdlPvm@PLT
	movq	%rbp, %rdi
.LEHB18:
	call	_Unwind_Resume@PLT
.L261:
	movq	%rbx, %rdi
	call	_ZNSt16_Sp_counted_baseILN9__gnu_cxx12_Lock_policyE2EE10_M_releaseEv@PLT
	movq	%rbp, %rdi
	call	_Unwind_Resume@PLT
.LEHE18:
	.cfi_endproc
.LFE3120:
	.section	.gcc_except_table
.LLSDAC3120:
	.byte	0xff
	.byte	0xff
	.byte	0x1
	.uleb128 .LLSDACSEC3120-.LLSDACSBC3120
.LLSDACSBC3120:
	.uleb128 .LEHB18-.LCOLDB6
	.uleb128 .LEHE18-.LEHB18
	.uleb128 0
	.uleb128 0
.LLSDACSEC3120:
	.section	.text.unlikely
	.text
	.size	_ZN8opendnp311CommandTask19CreateDirectOperateEONS_10CommandSetERNS_18IMasterApplicationERKSt8functionIFvRKNS_18ICommandTaskResultEEERKNS_10TaskConfigEN7openpal6LoggerE, .-_ZN8opendnp311CommandTask19CreateDirectOperateEONS_10CommandSetERNS_18IMasterApplicationERKSt8functionIFvRKNS_18ICommandTaskResultEEERKNS_10TaskConfigEN7openpal6LoggerE
	.section	.text.unlikely
	.size	_ZN8opendnp311CommandTask19CreateDirectOperateEONS_10CommandSetERNS_18IMasterApplicationERKSt8functionIFvRKNS_18ICommandTaskResultEEERKNS_10TaskConfigEN7openpal6LoggerE.cold, .-_ZN8opendnp311CommandTask19CreateDirectOperateEONS_10CommandSetERNS_18IMasterApplicationERKSt8functionIFvRKNS_18ICommandTaskResultEEERKNS_10TaskConfigEN7openpal6LoggerE.cold
.LCOLDE6:
	.text
.LHOTE6:
	.weak	_ZTSSt11_Mutex_baseILN9__gnu_cxx12_Lock_policyE2EE
	.section	.rodata._ZTSSt11_Mutex_baseILN9__gnu_cxx12_Lock_policyE2EE,"aG",@progbits,_ZTSSt11_Mutex_baseILN9__gnu_cxx12_Lock_policyE2EE,comdat
	.align 32
	.type	_ZTSSt11_Mutex_baseILN9__gnu_cxx12_Lock_policyE2EE, @object
	.size	_ZTSSt11_Mutex_baseILN9__gnu_cxx12_Lock_policyE2EE, 47
_ZTSSt11_Mutex_baseILN9__gnu_cxx12_Lock_policyE2EE:
	.string	"St11_Mutex_baseILN9__gnu_cxx12_Lock_policyE2EE"
	.weak	_ZTISt11_Mutex_baseILN9__gnu_cxx12_Lock_policyE2EE
	.section	.data.rel.ro._ZTISt11_Mutex_baseILN9__gnu_cxx12_Lock_policyE2EE,"awG",@progbits,_ZTISt11_Mutex_baseILN9__gnu_cxx12_Lock_policyE2EE,comdat
	.align 8
	.type	_ZTISt11_Mutex_baseILN9__gnu_cxx12_Lock_policyE2EE, @object
	.size	_ZTISt11_Mutex_baseILN9__gnu_cxx12_Lock_policyE2EE, 16
_ZTISt11_Mutex_baseILN9__gnu_cxx12_Lock_policyE2EE:
	.quad	_ZTVN10__cxxabiv117__class_type_infoE+16
	.quad	_ZTSSt11_Mutex_baseILN9__gnu_cxx12_Lock_policyE2EE
	.weak	_ZTSSt19_Sp_make_shared_tag
	.section	.rodata._ZTSSt19_Sp_make_shared_tag,"aG",@progbits,_ZTSSt19_Sp_make_shared_tag,comdat
	.align 16
	.type	_ZTSSt19_Sp_make_shared_tag, @object
	.size	_ZTSSt19_Sp_make_shared_tag, 24
_ZTSSt19_Sp_make_shared_tag:
	.string	"St19_Sp_make_shared_tag"
	.weak	_ZTSSt16_Sp_counted_baseILN9__gnu_cxx12_Lock_policyE2EE
	.section	.rodata._ZTSSt16_Sp_counted_baseILN9__gnu_cxx12_Lock_policyE2EE,"aG",@progbits,_ZTSSt16_Sp_counted_baseILN9__gnu_cxx12_Lock_policyE2EE,comdat
	.align 32
	.type	_ZTSSt16_Sp_counted_baseILN9__gnu_cxx12_Lock_policyE2EE, @object
	.size	_ZTSSt16_Sp_counted_baseILN9__gnu_cxx12_Lock_policyE2EE, 52
_ZTSSt16_Sp_counted_baseILN9__gnu_cxx12_Lock_policyE2EE:
	.string	"St16_Sp_counted_baseILN9__gnu_cxx12_Lock_policyE2EE"
	.weak	_ZTISt16_Sp_counted_baseILN9__gnu_cxx12_Lock_policyE2EE
	.section	.data.rel.ro._ZTISt16_Sp_counted_baseILN9__gnu_cxx12_Lock_policyE2EE,"awG",@progbits,_ZTISt16_Sp_counted_baseILN9__gnu_cxx12_Lock_policyE2EE,comdat
	.align 8
	.type	_ZTISt16_Sp_counted_baseILN9__gnu_cxx12_Lock_policyE2EE, @object
	.size	_ZTISt16_Sp_counted_baseILN9__gnu_cxx12_Lock_policyE2EE, 24
_ZTISt16_Sp_counted_baseILN9__gnu_cxx12_Lock_policyE2EE:
	.quad	_ZTVN10__cxxabiv120__si_class_type_infoE+16
	.quad	_ZTSSt16_Sp_counted_baseILN9__gnu_cxx12_Lock_policyE2EE
	.quad	_ZTISt11_Mutex_baseILN9__gnu_cxx12_Lock_policyE2EE
	.weak	_ZTSN8opendnp311CommandTaskE
	.section	.rodata._ZTSN8opendnp311CommandTaskE,"aG",@progbits,_ZTSN8opendnp311CommandTaskE,comdat
	.align 16
	.type	_ZTSN8opendnp311CommandTaskE, @object
	.size	_ZTSN8opendnp311CommandTaskE, 25
_ZTSN8opendnp311CommandTaskE:
	.string	"N8opendnp311CommandTaskE"
	.weak	_ZTIN8opendnp311CommandTaskE
	.section	.data.rel.ro._ZTIN8opendnp311CommandTaskE,"awG",@progbits,_ZTIN8opendnp311CommandTaskE,comdat
	.align 8
	.type	_ZTIN8opendnp311CommandTaskE, @object
	.size	_ZTIN8opendnp311CommandTaskE, 24
_ZTIN8opendnp311CommandTaskE:
	.quad	_ZTVN10__cxxabiv120__si_class_type_infoE+16
	.quad	_ZTSN8opendnp311CommandTaskE
	.quad	_ZTIN8opendnp311IMasterTaskE
	.weak	_ZTSSt23_Sp_counted_ptr_inplaceIN8opendnp311CommandTaskESaIvELN9__gnu_cxx12_Lock_policyE2EE
	.section	.rodata._ZTSSt23_Sp_counted_ptr_inplaceIN8opendnp311CommandTaskESaIvELN9__gnu_cxx12_Lock_policyE2EE,"aG",@progbits,_ZTSSt23_Sp_counted_ptr_inplaceIN8opendnp311CommandTaskESaIvELN9__gnu_cxx12_Lock_policyE2EE,comdat
	.align 32
	.type	_ZTSSt23_Sp_counted_ptr_inplaceIN8opendnp311CommandTaskESaIvELN9__gnu_cxx12_Lock_policyE2EE, @object
	.size	_ZTSSt23_Sp_counted_ptr_inplaceIN8opendnp311CommandTaskESaIvELN9__gnu_cxx12_Lock_policyE2EE, 88
_ZTSSt23_Sp_counted_ptr_inplaceIN8opendnp311CommandTaskESaIvELN9__gnu_cxx12_Lock_policyE2EE:
	.string	"St23_Sp_counted_ptr_inplaceIN8opendnp311CommandTaskESaIvELN9__gnu_cxx12_Lock_policyE2EE"
	.weak	_ZTISt23_Sp_counted_ptr_inplaceIN8opendnp311CommandTaskESaIvELN9__gnu_cxx12_Lock_policyE2EE
	.section	.data.rel.ro._ZTISt23_Sp_counted_ptr_inplaceIN8opendnp311CommandTaskESaIvELN9__gnu_cxx12_Lock_policyE2EE,"awG",@progbits,_ZTISt23_Sp_counted_ptr_inplaceIN8opendnp311CommandTaskESaIvELN9__gnu_cxx12_Lock_policyE2EE,comdat
	.align 8
	.type	_ZTISt23_Sp_counted_ptr_inplaceIN8opendnp311CommandTaskESaIvELN9__gnu_cxx12_Lock_policyE2EE, @object
	.size	_ZTISt23_Sp_counted_ptr_inplaceIN8opendnp311CommandTaskESaIvELN9__gnu_cxx12_Lock_policyE2EE, 24
_ZTISt23_Sp_counted_ptr_inplaceIN8opendnp311CommandTaskESaIvELN9__gnu_cxx12_Lock_policyE2EE:
	.quad	_ZTVN10__cxxabiv120__si_class_type_infoE+16
	.quad	_ZTSSt23_Sp_counted_ptr_inplaceIN8opendnp311CommandTaskESaIvELN9__gnu_cxx12_Lock_policyE2EE
	.quad	_ZTISt16_Sp_counted_baseILN9__gnu_cxx12_Lock_policyE2EE
	.weak	_ZTVN8opendnp311CommandTaskE
	.section	.data.rel.ro._ZTVN8opendnp311CommandTaskE,"awG",@progbits,_ZTVN8opendnp311CommandTaskE,comdat
	.align 8
	.type	_ZTVN8opendnp311CommandTaskE, @object
	.size	_ZTVN8opendnp311CommandTaskE, 120
_ZTVN8opendnp311CommandTaskE:
	.quad	0
	.quad	_ZTIN8opendnp311CommandTaskE
	.quad	_ZN8opendnp311CommandTaskD1Ev
	.quad	_ZN8opendnp311CommandTaskD0Ev
	.quad	_ZNK8opendnp311IMasterTask10IsAuthTaskEv
	.quad	_ZNK8opendnp311CommandTask4NameEv
	.quad	_ZNK8opendnp311CommandTask8PriorityEv
	.quad	_ZNK8opendnp311CommandTask19BlocksLowerPriorityEv
	.quad	_ZNK8opendnp311CommandTask11IsRecurringEv
	.quad	_ZN8opendnp311CommandTask12BuildRequestERNS_11APDURequestEh
	.quad	_ZN8opendnp311CommandTask10InitializeEv
	.quad	_ZN8opendnp311CommandTask15ProcessResponseERKNS_18APDUResponseHeaderERKN7openpal6RSliceE
	.quad	_ZN8opendnp311CommandTask14OnTaskCompleteENS_14TaskCompletionEN7openpal18MonotonicTimestampE
	.quad	_ZNK8opendnp311CommandTask9IsEnabledEv
	.quad	_ZNK8opendnp311CommandTask11GetTaskTypeEv
	.weak	_ZTVSt23_Sp_counted_ptr_inplaceIN8opendnp311CommandTaskESaIvELN9__gnu_cxx12_Lock_policyE2EE
	.section	.data.rel.ro._ZTVSt23_Sp_counted_ptr_inplaceIN8opendnp311CommandTaskESaIvELN9__gnu_cxx12_Lock_policyE2EE,"awG",@progbits,_ZTVSt23_Sp_counted_ptr_inplaceIN8opendnp311CommandTaskESaIvELN9__gnu_cxx12_Lock_policyE2EE,comdat
	.align 8
	.type	_ZTVSt23_Sp_counted_ptr_inplaceIN8opendnp311CommandTaskESaIvELN9__gnu_cxx12_Lock_policyE2EE, @object
	.size	_ZTVSt23_Sp_counted_ptr_inplaceIN8opendnp311CommandTaskESaIvELN9__gnu_cxx12_Lock_policyE2EE, 56
_ZTVSt23_Sp_counted_ptr_inplaceIN8opendnp311CommandTaskESaIvELN9__gnu_cxx12_Lock_policyE2EE:
	.quad	0
	.quad	_ZTISt23_Sp_counted_ptr_inplaceIN8opendnp311CommandTaskESaIvELN9__gnu_cxx12_Lock_policyE2EE
	.quad	_ZNSt23_Sp_counted_ptr_inplaceIN8opendnp311CommandTaskESaIvELN9__gnu_cxx12_Lock_policyE2EED1Ev
	.quad	_ZNSt23_Sp_counted_ptr_inplaceIN8opendnp311CommandTaskESaIvELN9__gnu_cxx12_Lock_policyE2EED0Ev
	.quad	_ZNSt23_Sp_counted_ptr_inplaceIN8opendnp311CommandTaskESaIvELN9__gnu_cxx12_Lock_policyE2EE10_M_disposeEv
	.quad	_ZNSt23_Sp_counted_ptr_inplaceIN8opendnp311CommandTaskESaIvELN9__gnu_cxx12_Lock_policyE2EE10_M_destroyEv
	.quad	_ZNSt23_Sp_counted_ptr_inplaceIN8opendnp311CommandTaskESaIvELN9__gnu_cxx12_Lock_policyE2EE14_M_get_deleterERKSt9type_info
	.weak	_ZZNSt19_Sp_make_shared_tag5_S_tiEvE5__tag
	.section	.rodata._ZZNSt19_Sp_make_shared_tag5_S_tiEvE5__tag,"aG",@progbits,_ZZNSt19_Sp_make_shared_tag5_S_tiEvE5__tag,comdat
	.align 8
	.type	_ZZNSt19_Sp_make_shared_tag5_S_tiEvE5__tag, @gnu_unique_object
	.size	_ZZNSt19_Sp_make_shared_tag5_S_tiEvE5__tag, 16
_ZZNSt19_Sp_make_shared_tag5_S_tiEvE5__tag:
	.zero	16
	.section	.rodata.cst8,"aM",@progbits,8
	.align 8
.LC3:
	.long	1
	.long	1
	.hidden	DW.ref.__gxx_personality_v0
	.weak	DW.ref.__gxx_personality_v0
	.section	.data.rel.local.DW.ref.__gxx_personality_v0,"awG",@progbits,DW.ref.__gxx_personality_v0,comdat
	.align 8
	.type	DW.ref.__gxx_personality_v0, @object
	.size	DW.ref.__gxx_personality_v0, 8
DW.ref.__gxx_personality_v0:
	.quad	__gxx_personality_v0
	.globl	__gxx_personality_v0
	.ident	"GCC: (Debian 15.2.0-4) 15.2.0"
	.section	.note.GNU-stack,"",@progbits
