	.file	"CommandSetOps.cpp"
	.text
	.section	.text._ZN8opendnp312IAPDUHandler14OnHeaderResultERKNS_12HeaderRecordERKNS_8IINFieldE,"axG",@progbits,_ZN8opendnp312IAPDUHandler14OnHeaderResultERKNS_12HeaderRecordERKNS_8IINFieldE,comdat
	.align 2
	.p2align 4
	.weak	_ZN8opendnp312IAPDUHandler14OnHeaderResultERKNS_12HeaderRecordERKNS_8IINFieldE
	.type	_ZN8opendnp312IAPDUHandler14OnHeaderResultERKNS_12HeaderRecordERKNS_8IINFieldE, @function
_ZN8opendnp312IAPDUHandler14OnHeaderResultERKNS_12HeaderRecordERKNS_8IINFieldE:
.LFB1635:
	.cfi_startproc
	ret
	.cfi_endproc
.LFE1635:
	.size	_ZN8opendnp312IAPDUHandler14OnHeaderResultERKNS_12HeaderRecordERKNS_8IINFieldE, .-_ZN8opendnp312IAPDUHandler14OnHeaderResultERKNS_12HeaderRecordERKNS_8IINFieldE
	.section	.text._ZN8opendnp314ICommandHeader19ApplySelectResponseERKNS_11ICollectionINS_7IndexedINS_23ControlRelayOutputBlockEEEEE,"axG",@progbits,_ZN8opendnp314ICommandHeader19ApplySelectResponseERKNS_11ICollectionINS_7IndexedINS_23ControlRelayOutputBlockEEEEE,comdat
	.align 2
	.p2align 4
	.weak	_ZN8opendnp314ICommandHeader19ApplySelectResponseERKNS_11ICollectionINS_7IndexedINS_23ControlRelayOutputBlockEEEEE
	.type	_ZN8opendnp314ICommandHeader19ApplySelectResponseERKNS_11ICollectionINS_7IndexedINS_23ControlRelayOutputBlockEEEEE, @function
_ZN8opendnp314ICommandHeader19ApplySelectResponseERKNS_11ICollectionINS_7IndexedINS_23ControlRelayOutputBlockEEEEE:
.LFB2811:
	.cfi_startproc
	ret
	.cfi_endproc
.LFE2811:
	.size	_ZN8opendnp314ICommandHeader19ApplySelectResponseERKNS_11ICollectionINS_7IndexedINS_23ControlRelayOutputBlockEEEEE, .-_ZN8opendnp314ICommandHeader19ApplySelectResponseERKNS_11ICollectionINS_7IndexedINS_23ControlRelayOutputBlockEEEEE
	.section	.text._ZN8opendnp314ICommandHeader19ApplySelectResponseERKNS_11ICollectionINS_7IndexedINS_17AnalogOutputInt16EEEEE,"axG",@progbits,_ZN8opendnp314ICommandHeader19ApplySelectResponseERKNS_11ICollectionINS_7IndexedINS_17AnalogOutputInt16EEEEE,comdat
	.align 2
	.p2align 4
	.weak	_ZN8opendnp314ICommandHeader19ApplySelectResponseERKNS_11ICollectionINS_7IndexedINS_17AnalogOutputInt16EEEEE
	.type	_ZN8opendnp314ICommandHeader19ApplySelectResponseERKNS_11ICollectionINS_7IndexedINS_17AnalogOutputInt16EEEEE, @function
_ZN8opendnp314ICommandHeader19ApplySelectResponseERKNS_11ICollectionINS_7IndexedINS_17AnalogOutputInt16EEEEE:
.LFB2812:
	.cfi_startproc
	ret
	.cfi_endproc
.LFE2812:
	.size	_ZN8opendnp314ICommandHeader19ApplySelectResponseERKNS_11ICollectionINS_7IndexedINS_17AnalogOutputInt16EEEEE, .-_ZN8opendnp314ICommandHeader19ApplySelectResponseERKNS_11ICollectionINS_7IndexedINS_17AnalogOutputInt16EEEEE
	.section	.text._ZN8opendnp314ICommandHeader19ApplySelectResponseERKNS_11ICollectionINS_7IndexedINS_17AnalogOutputInt32EEEEE,"axG",@progbits,_ZN8opendnp314ICommandHeader19ApplySelectResponseERKNS_11ICollectionINS_7IndexedINS_17AnalogOutputInt32EEEEE,comdat
	.align 2
	.p2align 4
	.weak	_ZN8opendnp314ICommandHeader19ApplySelectResponseERKNS_11ICollectionINS_7IndexedINS_17AnalogOutputInt32EEEEE
	.type	_ZN8opendnp314ICommandHeader19ApplySelectResponseERKNS_11ICollectionINS_7IndexedINS_17AnalogOutputInt32EEEEE, @function
_ZN8opendnp314ICommandHeader19ApplySelectResponseERKNS_11ICollectionINS_7IndexedINS_17AnalogOutputInt32EEEEE:
.LFB2813:
	.cfi_startproc
	ret
	.cfi_endproc
.LFE2813:
	.size	_ZN8opendnp314ICommandHeader19ApplySelectResponseERKNS_11ICollectionINS_7IndexedINS_17AnalogOutputInt32EEEEE, .-_ZN8opendnp314ICommandHeader19ApplySelectResponseERKNS_11ICollectionINS_7IndexedINS_17AnalogOutputInt32EEEEE
	.section	.text._ZN8opendnp314ICommandHeader19ApplySelectResponseERKNS_11ICollectionINS_7IndexedINS_19AnalogOutputFloat32EEEEE,"axG",@progbits,_ZN8opendnp314ICommandHeader19ApplySelectResponseERKNS_11ICollectionINS_7IndexedINS_19AnalogOutputFloat32EEEEE,comdat
	.align 2
	.p2align 4
	.weak	_ZN8opendnp314ICommandHeader19ApplySelectResponseERKNS_11ICollectionINS_7IndexedINS_19AnalogOutputFloat32EEEEE
	.type	_ZN8opendnp314ICommandHeader19ApplySelectResponseERKNS_11ICollectionINS_7IndexedINS_19AnalogOutputFloat32EEEEE, @function
_ZN8opendnp314ICommandHeader19ApplySelectResponseERKNS_11ICollectionINS_7IndexedINS_19AnalogOutputFloat32EEEEE:
.LFB2814:
	.cfi_startproc
	ret
	.cfi_endproc
.LFE2814:
	.size	_ZN8opendnp314ICommandHeader19ApplySelectResponseERKNS_11ICollectionINS_7IndexedINS_19AnalogOutputFloat32EEEEE, .-_ZN8opendnp314ICommandHeader19ApplySelectResponseERKNS_11ICollectionINS_7IndexedINS_19AnalogOutputFloat32EEEEE
	.section	.text._ZN8opendnp314ICommandHeader19ApplySelectResponseERKNS_11ICollectionINS_7IndexedINS_20AnalogOutputDouble64EEEEE,"axG",@progbits,_ZN8opendnp314ICommandHeader19ApplySelectResponseERKNS_11ICollectionINS_7IndexedINS_20AnalogOutputDouble64EEEEE,comdat
	.align 2
	.p2align 4
	.weak	_ZN8opendnp314ICommandHeader19ApplySelectResponseERKNS_11ICollectionINS_7IndexedINS_20AnalogOutputDouble64EEEEE
	.type	_ZN8opendnp314ICommandHeader19ApplySelectResponseERKNS_11ICollectionINS_7IndexedINS_20AnalogOutputDouble64EEEEE, @function
_ZN8opendnp314ICommandHeader19ApplySelectResponseERKNS_11ICollectionINS_7IndexedINS_20AnalogOutputDouble64EEEEE:
.LFB2815:
	.cfi_startproc
	ret
	.cfi_endproc
.LFE2815:
	.size	_ZN8opendnp314ICommandHeader19ApplySelectResponseERKNS_11ICollectionINS_7IndexedINS_20AnalogOutputDouble64EEEEE, .-_ZN8opendnp314ICommandHeader19ApplySelectResponseERKNS_11ICollectionINS_7IndexedINS_20AnalogOutputDouble64EEEEE
	.section	.text._ZN8opendnp314ICommandHeader20ApplyOperateResponseERKNS_11ICollectionINS_7IndexedINS_23ControlRelayOutputBlockEEEEE,"axG",@progbits,_ZN8opendnp314ICommandHeader20ApplyOperateResponseERKNS_11ICollectionINS_7IndexedINS_23ControlRelayOutputBlockEEEEE,comdat
	.align 2
	.p2align 4
	.weak	_ZN8opendnp314ICommandHeader20ApplyOperateResponseERKNS_11ICollectionINS_7IndexedINS_23ControlRelayOutputBlockEEEEE
	.type	_ZN8opendnp314ICommandHeader20ApplyOperateResponseERKNS_11ICollectionINS_7IndexedINS_23ControlRelayOutputBlockEEEEE, @function
_ZN8opendnp314ICommandHeader20ApplyOperateResponseERKNS_11ICollectionINS_7IndexedINS_23ControlRelayOutputBlockEEEEE:
.LFB2816:
	.cfi_startproc
	ret
	.cfi_endproc
.LFE2816:
	.size	_ZN8opendnp314ICommandHeader20ApplyOperateResponseERKNS_11ICollectionINS_7IndexedINS_23ControlRelayOutputBlockEEEEE, .-_ZN8opendnp314ICommandHeader20ApplyOperateResponseERKNS_11ICollectionINS_7IndexedINS_23ControlRelayOutputBlockEEEEE
	.section	.text._ZN8opendnp314ICommandHeader20ApplyOperateResponseERKNS_11ICollectionINS_7IndexedINS_17AnalogOutputInt16EEEEE,"axG",@progbits,_ZN8opendnp314ICommandHeader20ApplyOperateResponseERKNS_11ICollectionINS_7IndexedINS_17AnalogOutputInt16EEEEE,comdat
	.align 2
	.p2align 4
	.weak	_ZN8opendnp314ICommandHeader20ApplyOperateResponseERKNS_11ICollectionINS_7IndexedINS_17AnalogOutputInt16EEEEE
	.type	_ZN8opendnp314ICommandHeader20ApplyOperateResponseERKNS_11ICollectionINS_7IndexedINS_17AnalogOutputInt16EEEEE, @function
_ZN8opendnp314ICommandHeader20ApplyOperateResponseERKNS_11ICollectionINS_7IndexedINS_17AnalogOutputInt16EEEEE:
.LFB2817:
	.cfi_startproc
	ret
	.cfi_endproc
.LFE2817:
	.size	_ZN8opendnp314ICommandHeader20ApplyOperateResponseERKNS_11ICollectionINS_7IndexedINS_17AnalogOutputInt16EEEEE, .-_ZN8opendnp314ICommandHeader20ApplyOperateResponseERKNS_11ICollectionINS_7IndexedINS_17AnalogOutputInt16EEEEE
	.section	.text._ZN8opendnp314ICommandHeader20ApplyOperateResponseERKNS_11ICollectionINS_7IndexedINS_17AnalogOutputInt32EEEEE,"axG",@progbits,_ZN8opendnp314ICommandHeader20ApplyOperateResponseERKNS_11ICollectionINS_7IndexedINS_17AnalogOutputInt32EEEEE,comdat
	.align 2
	.p2align 4
	.weak	_ZN8opendnp314ICommandHeader20ApplyOperateResponseERKNS_11ICollectionINS_7IndexedINS_17AnalogOutputInt32EEEEE
	.type	_ZN8opendnp314ICommandHeader20ApplyOperateResponseERKNS_11ICollectionINS_7IndexedINS_17AnalogOutputInt32EEEEE, @function
_ZN8opendnp314ICommandHeader20ApplyOperateResponseERKNS_11ICollectionINS_7IndexedINS_17AnalogOutputInt32EEEEE:
.LFB2818:
	.cfi_startproc
	ret
	.cfi_endproc
.LFE2818:
	.size	_ZN8opendnp314ICommandHeader20ApplyOperateResponseERKNS_11ICollectionINS_7IndexedINS_17AnalogOutputInt32EEEEE, .-_ZN8opendnp314ICommandHeader20ApplyOperateResponseERKNS_11ICollectionINS_7IndexedINS_17AnalogOutputInt32EEEEE
	.section	.text._ZN8opendnp314ICommandHeader20ApplyOperateResponseERKNS_11ICollectionINS_7IndexedINS_19AnalogOutputFloat32EEEEE,"axG",@progbits,_ZN8opendnp314ICommandHeader20ApplyOperateResponseERKNS_11ICollectionINS_7IndexedINS_19AnalogOutputFloat32EEEEE,comdat
	.align 2
	.p2align 4
	.weak	_ZN8opendnp314ICommandHeader20ApplyOperateResponseERKNS_11ICollectionINS_7IndexedINS_19AnalogOutputFloat32EEEEE
	.type	_ZN8opendnp314ICommandHeader20ApplyOperateResponseERKNS_11ICollectionINS_7IndexedINS_19AnalogOutputFloat32EEEEE, @function
_ZN8opendnp314ICommandHeader20ApplyOperateResponseERKNS_11ICollectionINS_7IndexedINS_19AnalogOutputFloat32EEEEE:
.LFB2819:
	.cfi_startproc
	ret
	.cfi_endproc
.LFE2819:
	.size	_ZN8opendnp314ICommandHeader20ApplyOperateResponseERKNS_11ICollectionINS_7IndexedINS_19AnalogOutputFloat32EEEEE, .-_ZN8opendnp314ICommandHeader20ApplyOperateResponseERKNS_11ICollectionINS_7IndexedINS_19AnalogOutputFloat32EEEEE
	.section	.text._ZN8opendnp314ICommandHeader20ApplyOperateResponseERKNS_11ICollectionINS_7IndexedINS_20AnalogOutputDouble64EEEEE,"axG",@progbits,_ZN8opendnp314ICommandHeader20ApplyOperateResponseERKNS_11ICollectionINS_7IndexedINS_20AnalogOutputDouble64EEEEE,comdat
	.align 2
	.p2align 4
	.weak	_ZN8opendnp314ICommandHeader20ApplyOperateResponseERKNS_11ICollectionINS_7IndexedINS_20AnalogOutputDouble64EEEEE
	.type	_ZN8opendnp314ICommandHeader20ApplyOperateResponseERKNS_11ICollectionINS_7IndexedINS_20AnalogOutputDouble64EEEEE, @function
_ZN8opendnp314ICommandHeader20ApplyOperateResponseERKNS_11ICollectionINS_7IndexedINS_20AnalogOutputDouble64EEEEE:
.LFB2820:
	.cfi_startproc
	ret
	.cfi_endproc
.LFE2820:
	.size	_ZN8opendnp314ICommandHeader20ApplyOperateResponseERKNS_11ICollectionINS_7IndexedINS_20AnalogOutputDouble64EEEEE, .-_ZN8opendnp314ICommandHeader20ApplyOperateResponseERKNS_11ICollectionINS_7IndexedINS_20AnalogOutputDouble64EEEEE
	.text
	.align 2
	.p2align 4
	.globl	_ZN8opendnp313CommandSetOps9IsAllowedEjNS_14GroupVariationENS_13QualifierCodeE
	.type	_ZN8opendnp313CommandSetOps9IsAllowedEjNS_14GroupVariationENS_13QualifierCodeE, @function
_ZN8opendnp313CommandSetOps9IsAllowedEjNS_14GroupVariationENS_13QualifierCodeE:
.LFB3074:
	.cfi_startproc
	xorl	%eax, %eax
	cmpb	$40, %cl
	jne	.L13
	movl	$1, %eax
	cmpw	$3073, %dx
	je	.L13
	subw	$10497, %dx
	cmpw	$3, %dx
	setbe	%al
.L13:
	ret
	.cfi_endproc
.LFE3074:
	.size	_ZN8opendnp313CommandSetOps9IsAllowedEjNS_14GroupVariationENS_13QualifierCodeE, .-_ZN8opendnp313CommandSetOps9IsAllowedEjNS_14GroupVariationENS_13QualifierCodeE
	.align 2
	.p2align 4
	.globl	_ZN8opendnp313CommandSetOps13ProcessHeaderERKNS_12PrefixHeaderERKNS_11ICollectionINS_7IndexedINS_20AnalogOutputDouble64EEEEE
	.type	_ZN8opendnp313CommandSetOps13ProcessHeaderERKNS_12PrefixHeaderERKNS_11ICollectionINS_7IndexedINS_20AnalogOutputDouble64EEEEE, @function
_ZN8opendnp313CommandSetOps13ProcessHeaderERKNS_12PrefixHeaderERKNS_11ICollectionINS_7IndexedINS_20AnalogOutputDouble64EEEEE:
.LFB3079:
	.cfi_startproc
	pushq	%r14
	.cfi_def_cfa_offset 16
	.cfi_offset 14, -16
	movq	%rdx, %r14
	pushq	%rbp
	.cfi_def_cfa_offset 24
	.cfi_offset 6, -24
	movq	%rdi, %rbp
	movq	%rsi, %rdi
	pushq	%rbx
	.cfi_def_cfa_offset 32
	.cfi_offset 3, -32
	movq	%rsi, %rbx
	subq	$16, %rsp
	.cfi_def_cfa_offset 48
	call	_ZNK8opendnp312HeaderRecord16GetQualifierCodeEv@PLT
	cmpb	$40, %al
	jne	.L25
	movq	24(%rbp), %rax
	movl	12(%rbx), %ecx
	movq	(%rax), %rdx
	movq	8(%rax), %rax
	subq	%rdx, %rax
	sarq	$3, %rax
	cmpq	%rax, %rcx
	jnb	.L25
	movq	(%rdx,%rcx,8), %rdi
	movq	(%rdi), %rax
	cmpb	$0, 20(%rbp)
	jne	.L21
	movq	80(%rax), %rax
	cmpq	_ZN8opendnp314ICommandHeader19ApplySelectResponseERKNS_11ICollectionINS_7IndexedINS_20AnalogOutputDouble64EEEEE@GOTPCREL(%rip), %rax
	jne	.L24
.L22:
	xorl	%eax, %eax
.L26:
	addq	$16, %rsp
	.cfi_remember_state
	.cfi_def_cfa_offset 32
	popq	%rbx
	.cfi_def_cfa_offset 24
	popq	%rbp
	.cfi_def_cfa_offset 16
	popq	%r14
	.cfi_def_cfa_offset 8
	ret
	.p2align 4,,10
	.p2align 3
.L25:
	.cfi_restore_state
	xorl	%eax, %eax
	leaq	14(%rsp), %rdi
	movl	$10, %esi
	movw	%ax, 14(%rsp)
	call	_ZN8opendnp38IINField6SetBitENS_6IINBitE@PLT
	movzwl	14(%rsp), %eax
	addq	$16, %rsp
	.cfi_remember_state
	.cfi_def_cfa_offset 32
	popq	%rbx
	.cfi_def_cfa_offset 24
	popq	%rbp
	.cfi_def_cfa_offset 16
	popq	%r14
	.cfi_def_cfa_offset 8
	ret
	.p2align 4,,10
	.p2align 3
.L21:
	.cfi_restore_state
	movq	120(%rax), %rax
	cmpq	_ZN8opendnp314ICommandHeader20ApplyOperateResponseERKNS_11ICollectionINS_7IndexedINS_20AnalogOutputDouble64EEEEE@GOTPCREL(%rip), %rax
	je	.L22
.L24:
	movq	%r14, %rsi
	call	*%rax
	xorl	%eax, %eax
	jmp	.L26
	.cfi_endproc
.LFE3079:
	.size	_ZN8opendnp313CommandSetOps13ProcessHeaderERKNS_12PrefixHeaderERKNS_11ICollectionINS_7IndexedINS_20AnalogOutputDouble64EEEEE, .-_ZN8opendnp313CommandSetOps13ProcessHeaderERKNS_12PrefixHeaderERKNS_11ICollectionINS_7IndexedINS_20AnalogOutputDouble64EEEEE
	.align 2
	.p2align 4
	.globl	_ZN8opendnp313CommandSetOps13ProcessHeaderERKNS_12PrefixHeaderERKNS_11ICollectionINS_7IndexedINS_19AnalogOutputFloat32EEEEE
	.type	_ZN8opendnp313CommandSetOps13ProcessHeaderERKNS_12PrefixHeaderERKNS_11ICollectionINS_7IndexedINS_19AnalogOutputFloat32EEEEE, @function
_ZN8opendnp313CommandSetOps13ProcessHeaderERKNS_12PrefixHeaderERKNS_11ICollectionINS_7IndexedINS_19AnalogOutputFloat32EEEEE:
.LFB3078:
	.cfi_startproc
	pushq	%r14
	.cfi_def_cfa_offset 16
	.cfi_offset 14, -16
	movq	%rdx, %r14
	pushq	%rbp
	.cfi_def_cfa_offset 24
	.cfi_offset 6, -24
	movq	%rdi, %rbp
	movq	%rsi, %rdi
	pushq	%rbx
	.cfi_def_cfa_offset 32
	.cfi_offset 3, -32
	movq	%rsi, %rbx
	subq	$16, %rsp
	.cfi_def_cfa_offset 48
	call	_ZNK8opendnp312HeaderRecord16GetQualifierCodeEv@PLT
	cmpb	$40, %al
	jne	.L35
	movq	24(%rbp), %rax
	movl	12(%rbx), %ecx
	movq	(%rax), %rdx
	movq	8(%rax), %rax
	subq	%rdx, %rax
	sarq	$3, %rax
	cmpq	%rax, %rcx
	jnb	.L35
	movq	(%rdx,%rcx,8), %rdi
	movq	(%rdi), %rax
	cmpb	$0, 20(%rbp)
	jne	.L31
	movq	72(%rax), %rax
	cmpq	_ZN8opendnp314ICommandHeader19ApplySelectResponseERKNS_11ICollectionINS_7IndexedINS_19AnalogOutputFloat32EEEEE@GOTPCREL(%rip), %rax
	jne	.L34
.L32:
	xorl	%eax, %eax
.L36:
	addq	$16, %rsp
	.cfi_remember_state
	.cfi_def_cfa_offset 32
	popq	%rbx
	.cfi_def_cfa_offset 24
	popq	%rbp
	.cfi_def_cfa_offset 16
	popq	%r14
	.cfi_def_cfa_offset 8
	ret
	.p2align 4,,10
	.p2align 3
.L35:
	.cfi_restore_state
	xorl	%eax, %eax
	leaq	14(%rsp), %rdi
	movl	$10, %esi
	movw	%ax, 14(%rsp)
	call	_ZN8opendnp38IINField6SetBitENS_6IINBitE@PLT
	movzwl	14(%rsp), %eax
	addq	$16, %rsp
	.cfi_remember_state
	.cfi_def_cfa_offset 32
	popq	%rbx
	.cfi_def_cfa_offset 24
	popq	%rbp
	.cfi_def_cfa_offset 16
	popq	%r14
	.cfi_def_cfa_offset 8
	ret
	.p2align 4,,10
	.p2align 3
.L31:
	.cfi_restore_state
	movq	112(%rax), %rax
	cmpq	_ZN8opendnp314ICommandHeader20ApplyOperateResponseERKNS_11ICollectionINS_7IndexedINS_19AnalogOutputFloat32EEEEE@GOTPCREL(%rip), %rax
	je	.L32
.L34:
	movq	%r14, %rsi
	call	*%rax
	xorl	%eax, %eax
	jmp	.L36
	.cfi_endproc
.LFE3078:
	.size	_ZN8opendnp313CommandSetOps13ProcessHeaderERKNS_12PrefixHeaderERKNS_11ICollectionINS_7IndexedINS_19AnalogOutputFloat32EEEEE, .-_ZN8opendnp313CommandSetOps13ProcessHeaderERKNS_12PrefixHeaderERKNS_11ICollectionINS_7IndexedINS_19AnalogOutputFloat32EEEEE
	.align 2
	.p2align 4
	.globl	_ZN8opendnp313CommandSetOps13ProcessHeaderERKNS_12PrefixHeaderERKNS_11ICollectionINS_7IndexedINS_17AnalogOutputInt32EEEEE
	.type	_ZN8opendnp313CommandSetOps13ProcessHeaderERKNS_12PrefixHeaderERKNS_11ICollectionINS_7IndexedINS_17AnalogOutputInt32EEEEE, @function
_ZN8opendnp313CommandSetOps13ProcessHeaderERKNS_12PrefixHeaderERKNS_11ICollectionINS_7IndexedINS_17AnalogOutputInt32EEEEE:
.LFB3077:
	.cfi_startproc
	pushq	%r14
	.cfi_def_cfa_offset 16
	.cfi_offset 14, -16
	movq	%rdx, %r14
	pushq	%rbp
	.cfi_def_cfa_offset 24
	.cfi_offset 6, -24
	movq	%rdi, %rbp
	movq	%rsi, %rdi
	pushq	%rbx
	.cfi_def_cfa_offset 32
	.cfi_offset 3, -32
	movq	%rsi, %rbx
	subq	$16, %rsp
	.cfi_def_cfa_offset 48
	call	_ZNK8opendnp312HeaderRecord16GetQualifierCodeEv@PLT
	cmpb	$40, %al
	jne	.L45
	movq	24(%rbp), %rax
	movl	12(%rbx), %ecx
	movq	(%rax), %rdx
	movq	8(%rax), %rax
	subq	%rdx, %rax
	sarq	$3, %rax
	cmpq	%rax, %rcx
	jnb	.L45
	movq	(%rdx,%rcx,8), %rdi
	movq	(%rdi), %rax
	cmpb	$0, 20(%rbp)
	jne	.L41
	movq	64(%rax), %rax
	cmpq	_ZN8opendnp314ICommandHeader19ApplySelectResponseERKNS_11ICollectionINS_7IndexedINS_17AnalogOutputInt32EEEEE@GOTPCREL(%rip), %rax
	jne	.L44
.L42:
	xorl	%eax, %eax
.L46:
	addq	$16, %rsp
	.cfi_remember_state
	.cfi_def_cfa_offset 32
	popq	%rbx
	.cfi_def_cfa_offset 24
	popq	%rbp
	.cfi_def_cfa_offset 16
	popq	%r14
	.cfi_def_cfa_offset 8
	ret
	.p2align 4,,10
	.p2align 3
.L45:
	.cfi_restore_state
	xorl	%eax, %eax
	leaq	14(%rsp), %rdi
	movl	$10, %esi
	movw	%ax, 14(%rsp)
	call	_ZN8opendnp38IINField6SetBitENS_6IINBitE@PLT
	movzwl	14(%rsp), %eax
	addq	$16, %rsp
	.cfi_remember_state
	.cfi_def_cfa_offset 32
	popq	%rbx
	.cfi_def_cfa_offset 24
	popq	%rbp
	.cfi_def_cfa_offset 16
	popq	%r14
	.cfi_def_cfa_offset 8
	ret
	.p2align 4,,10
	.p2align 3
.L41:
	.cfi_restore_state
	movq	104(%rax), %rax
	cmpq	_ZN8opendnp314ICommandHeader20ApplyOperateResponseERKNS_11ICollectionINS_7IndexedINS_17AnalogOutputInt32EEEEE@GOTPCREL(%rip), %rax
	je	.L42
.L44:
	movq	%r14, %rsi
	call	*%rax
	xorl	%eax, %eax
	jmp	.L46
	.cfi_endproc
.LFE3077:
	.size	_ZN8opendnp313CommandSetOps13ProcessHeaderERKNS_12PrefixHeaderERKNS_11ICollectionINS_7IndexedINS_17AnalogOutputInt32EEEEE, .-_ZN8opendnp313CommandSetOps13ProcessHeaderERKNS_12PrefixHeaderERKNS_11ICollectionINS_7IndexedINS_17AnalogOutputInt32EEEEE
	.align 2
	.p2align 4
	.globl	_ZN8opendnp313CommandSetOps13ProcessHeaderERKNS_12PrefixHeaderERKNS_11ICollectionINS_7IndexedINS_17AnalogOutputInt16EEEEE
	.type	_ZN8opendnp313CommandSetOps13ProcessHeaderERKNS_12PrefixHeaderERKNS_11ICollectionINS_7IndexedINS_17AnalogOutputInt16EEEEE, @function
_ZN8opendnp313CommandSetOps13ProcessHeaderERKNS_12PrefixHeaderERKNS_11ICollectionINS_7IndexedINS_17AnalogOutputInt16EEEEE:
.LFB3076:
	.cfi_startproc
	pushq	%r14
	.cfi_def_cfa_offset 16
	.cfi_offset 14, -16
	movq	%rdx, %r14
	pushq	%rbp
	.cfi_def_cfa_offset 24
	.cfi_offset 6, -24
	movq	%rdi, %rbp
	movq	%rsi, %rdi
	pushq	%rbx
	.cfi_def_cfa_offset 32
	.cfi_offset 3, -32
	movq	%rsi, %rbx
	subq	$16, %rsp
	.cfi_def_cfa_offset 48
	call	_ZNK8opendnp312HeaderRecord16GetQualifierCodeEv@PLT
	cmpb	$40, %al
	jne	.L55
	movq	24(%rbp), %rax
	movl	12(%rbx), %ecx
	movq	(%rax), %rdx
	movq	8(%rax), %rax
	subq	%rdx, %rax
	sarq	$3, %rax
	cmpq	%rax, %rcx
	jnb	.L55
	movq	(%rdx,%rcx,8), %rdi
	movq	(%rdi), %rax
	cmpb	$0, 20(%rbp)
	jne	.L51
	movq	56(%rax), %rax
	cmpq	_ZN8opendnp314ICommandHeader19ApplySelectResponseERKNS_11ICollectionINS_7IndexedINS_17AnalogOutputInt16EEEEE@GOTPCREL(%rip), %rax
	jne	.L54
.L52:
	xorl	%eax, %eax
.L56:
	addq	$16, %rsp
	.cfi_remember_state
	.cfi_def_cfa_offset 32
	popq	%rbx
	.cfi_def_cfa_offset 24
	popq	%rbp
	.cfi_def_cfa_offset 16
	popq	%r14
	.cfi_def_cfa_offset 8
	ret
	.p2align 4,,10
	.p2align 3
.L55:
	.cfi_restore_state
	xorl	%eax, %eax
	leaq	14(%rsp), %rdi
	movl	$10, %esi
	movw	%ax, 14(%rsp)
	call	_ZN8opendnp38IINField6SetBitENS_6IINBitE@PLT
	movzwl	14(%rsp), %eax
	addq	$16, %rsp
	.cfi_remember_state
	.cfi_def_cfa_offset 32
	popq	%rbx
	.cfi_def_cfa_offset 24
	popq	%rbp
	.cfi_def_cfa_offset 16
	popq	%r14
	.cfi_def_cfa_offset 8
	ret
	.p2align 4,,10
	.p2align 3
.L51:
	.cfi_restore_state
	movq	96(%rax), %rax
	cmpq	_ZN8opendnp314ICommandHeader20ApplyOperateResponseERKNS_11ICollectionINS_7IndexedINS_17AnalogOutputInt16EEEEE@GOTPCREL(%rip), %rax
	je	.L52
.L54:
	movq	%r14, %rsi
	call	*%rax
	xorl	%eax, %eax
	jmp	.L56
	.cfi_endproc
.LFE3076:
	.size	_ZN8opendnp313CommandSetOps13ProcessHeaderERKNS_12PrefixHeaderERKNS_11ICollectionINS_7IndexedINS_17AnalogOutputInt16EEEEE, .-_ZN8opendnp313CommandSetOps13ProcessHeaderERKNS_12PrefixHeaderERKNS_11ICollectionINS_7IndexedINS_17AnalogOutputInt16EEEEE
	.align 2
	.p2align 4
	.globl	_ZN8opendnp313CommandSetOps13ProcessHeaderERKNS_12PrefixHeaderERKNS_11ICollectionINS_7IndexedINS_23ControlRelayOutputBlockEEEEE
	.type	_ZN8opendnp313CommandSetOps13ProcessHeaderERKNS_12PrefixHeaderERKNS_11ICollectionINS_7IndexedINS_23ControlRelayOutputBlockEEEEE, @function
_ZN8opendnp313CommandSetOps13ProcessHeaderERKNS_12PrefixHeaderERKNS_11ICollectionINS_7IndexedINS_23ControlRelayOutputBlockEEEEE:
.LFB3075:
	.cfi_startproc
	pushq	%r14
	.cfi_def_cfa_offset 16
	.cfi_offset 14, -16
	movq	%rdx, %r14
	pushq	%rbp
	.cfi_def_cfa_offset 24
	.cfi_offset 6, -24
	movq	%rdi, %rbp
	movq	%rsi, %rdi
	pushq	%rbx
	.cfi_def_cfa_offset 32
	.cfi_offset 3, -32
	movq	%rsi, %rbx
	subq	$16, %rsp
	.cfi_def_cfa_offset 48
	call	_ZNK8opendnp312HeaderRecord16GetQualifierCodeEv@PLT
	cmpb	$40, %al
	jne	.L65
	movq	24(%rbp), %rax
	movl	12(%rbx), %ecx
	movq	(%rax), %rdx
	movq	8(%rax), %rax
	subq	%rdx, %rax
	sarq	$3, %rax
	cmpq	%rax, %rcx
	jnb	.L65
	movq	(%rdx,%rcx,8), %rdi
	movq	(%rdi), %rax
	cmpb	$0, 20(%rbp)
	jne	.L61
	movq	48(%rax), %rax
	cmpq	_ZN8opendnp314ICommandHeader19ApplySelectResponseERKNS_11ICollectionINS_7IndexedINS_23ControlRelayOutputBlockEEEEE@GOTPCREL(%rip), %rax
	jne	.L64
.L62:
	xorl	%eax, %eax
.L66:
	addq	$16, %rsp
	.cfi_remember_state
	.cfi_def_cfa_offset 32
	popq	%rbx
	.cfi_def_cfa_offset 24
	popq	%rbp
	.cfi_def_cfa_offset 16
	popq	%r14
	.cfi_def_cfa_offset 8
	ret
	.p2align 4,,10
	.p2align 3
.L65:
	.cfi_restore_state
	xorl	%eax, %eax
	leaq	14(%rsp), %rdi
	movl	$10, %esi
	movw	%ax, 14(%rsp)
	call	_ZN8opendnp38IINField6SetBitENS_6IINBitE@PLT
	movzwl	14(%rsp), %eax
	addq	$16, %rsp
	.cfi_remember_state
	.cfi_def_cfa_offset 32
	popq	%rbx
	.cfi_def_cfa_offset 24
	popq	%rbp
	.cfi_def_cfa_offset 16
	popq	%r14
	.cfi_def_cfa_offset 8
	ret
	.p2align 4,,10
	.p2align 3
.L61:
	.cfi_restore_state
	movq	88(%rax), %rax
	cmpq	_ZN8opendnp314ICommandHeader20ApplyOperateResponseERKNS_11ICollectionINS_7IndexedINS_23ControlRelayOutputBlockEEEEE@GOTPCREL(%rip), %rax
	je	.L62
.L64:
	movq	%r14, %rsi
	call	*%rax
	xorl	%eax, %eax
	jmp	.L66
	.cfi_endproc
.LFE3075:
	.size	_ZN8opendnp313CommandSetOps13ProcessHeaderERKNS_12PrefixHeaderERKNS_11ICollectionINS_7IndexedINS_23ControlRelayOutputBlockEEEEE, .-_ZN8opendnp313CommandSetOps13ProcessHeaderERKNS_12PrefixHeaderERKNS_11ICollectionINS_7IndexedINS_23ControlRelayOutputBlockEEEEE
	.align 2
	.p2align 4
	.globl	_ZN8opendnp313CommandSetOpsC2ENS0_4ModeERNS_10CommandSetE
	.type	_ZN8opendnp313CommandSetOpsC2ENS0_4ModeERNS_10CommandSetE, @function
_ZN8opendnp313CommandSetOpsC2ENS0_4ModeERNS_10CommandSetE:
.LFB3055:
	.cfi_startproc
	pushq	%r12
	.cfi_def_cfa_offset 16
	.cfi_offset 12, -16
	movl	%esi, %r12d
	pushq	%rbp
	.cfi_def_cfa_offset 24
	.cfi_offset 6, -24
	movq	%rdx, %rbp
	pushq	%rbx
	.cfi_def_cfa_offset 32
	.cfi_offset 3, -32
	movq	%rdi, %rbx
	call	_ZN8opendnp312IAPDUHandlerC2Ev@PLT
	movq	_ZTVN8opendnp313CommandSetOpsE@GOTPCREL(%rip), %rax
	movb	%r12b, 20(%rbx)
	movq	%rbp, 24(%rbx)
	addq	$16, %rax
	movq	%rax, (%rbx)
	popq	%rbx
	.cfi_def_cfa_offset 24
	popq	%rbp
	.cfi_def_cfa_offset 16
	popq	%r12
	.cfi_def_cfa_offset 8
	ret
	.cfi_endproc
.LFE3055:
	.size	_ZN8opendnp313CommandSetOpsC2ENS0_4ModeERNS_10CommandSetE, .-_ZN8opendnp313CommandSetOpsC2ENS0_4ModeERNS_10CommandSetE
	.globl	_ZN8opendnp313CommandSetOpsC1ENS0_4ModeERNS_10CommandSetE
	.set	_ZN8opendnp313CommandSetOpsC1ENS0_4ModeERNS_10CommandSetE,_ZN8opendnp313CommandSetOpsC2ENS0_4ModeERNS_10CommandSetE
	.align 2
	.p2align 4
	.globl	_ZN8opendnp313CommandSetOps5WriteERKNS_10CommandSetERNS_12HeaderWriterE
	.type	_ZN8opendnp313CommandSetOps5WriteERKNS_10CommandSetERNS_12HeaderWriterE, @function
_ZN8opendnp313CommandSetOps5WriteERKNS_10CommandSetERNS_12HeaderWriterE:
.LFB3057:
	.cfi_startproc
	pushq	%r12
	.cfi_def_cfa_offset 16
	.cfi_offset 12, -16
	pushq	%rbp
	.cfi_def_cfa_offset 24
	.cfi_offset 6, -24
	pushq	%rbx
	.cfi_def_cfa_offset 32
	.cfi_offset 3, -32
	movq	(%rdi), %rbx
	movq	8(%rdi), %r12
	cmpq	%rbx, %r12
	je	.L70
	movq	%rsi, %rbp
	jmp	.L72
	.p2align 4,,10
	.p2align 3
.L78:
	addq	$8, %rbx
	cmpq	%rbx, %r12
	je	.L70
.L72:
	movq	(%rbx), %rdi
	movq	%rbp, %rsi
	movq	(%rdi), %rax
	call	*32(%rax)
	testb	%al, %al
	jne	.L78
	popq	%rbx
	.cfi_remember_state
	.cfi_def_cfa_offset 24
	popq	%rbp
	.cfi_def_cfa_offset 16
	popq	%r12
	.cfi_def_cfa_offset 8
	ret
	.p2align 4,,10
	.p2align 3
.L70:
	.cfi_restore_state
	popq	%rbx
	.cfi_def_cfa_offset 24
	movl	$1, %eax
	popq	%rbp
	.cfi_def_cfa_offset 16
	popq	%r12
	.cfi_def_cfa_offset 8
	ret
	.cfi_endproc
.LFE3057:
	.size	_ZN8opendnp313CommandSetOps5WriteERKNS_10CommandSetERNS_12HeaderWriterE, .-_ZN8opendnp313CommandSetOps5WriteERKNS_10CommandSetERNS_12HeaderWriterE
	.section	.text.unlikely,"ax",@progbits
	.align 2
.LCOLDB0:
	.text
.LHOTB0:
	.align 2
	.p2align 4
	.globl	_ZN8opendnp313CommandSetOps14InvokeCallbackERKNS_10CommandSetENS_14TaskCompletionERSt8functionIFvRKNS_18ICommandTaskResultEEE
	.type	_ZN8opendnp313CommandSetOps14InvokeCallbackERKNS_10CommandSetENS_14TaskCompletionERSt8functionIFvRKNS_18ICommandTaskResultEEE, @function
_ZN8opendnp313CommandSetOps14InvokeCallbackERKNS_10CommandSetENS_14TaskCompletionERSt8functionIFvRKNS_18ICommandTaskResultEEE:
.LFB3062:
	.cfi_startproc
	pushq	%rbp
	.cfi_def_cfa_offset 16
	.cfi_offset 6, -16
	pushq	%rbx
	.cfi_def_cfa_offset 24
	.cfi_offset 3, -24
	movq	%rdx, %rbx
	movq	%rdi, %rdx
	subq	$40, %rsp
	.cfi_def_cfa_offset 64
	movq	%rsp, %rdi
	call	_ZN8opendnp317CommandTaskResultC1ENS_14TaskCompletionERKSt6vectorIPNS_14ICommandHeaderESaIS4_EE@PLT
	cmpq	$0, 16(%rbx)
	je	.L81
	movq	%rsp, %rsi
	movq	%rbx, %rdi
	call	*24(%rbx)
	addq	$40, %rsp
	.cfi_def_cfa_offset 24
	popq	%rbx
	.cfi_def_cfa_offset 16
	popq	%rbp
	.cfi_def_cfa_offset 8
	ret
	.cfi_endproc
	.section	.text.unlikely
	.cfi_startproc
	.type	_ZN8opendnp313CommandSetOps14InvokeCallbackERKNS_10CommandSetENS_14TaskCompletionERSt8functionIFvRKNS_18ICommandTaskResultEEE.cold, @function
_ZN8opendnp313CommandSetOps14InvokeCallbackERKNS_10CommandSetENS_14TaskCompletionERSt8functionIFvRKNS_18ICommandTaskResultEEE.cold:
.LFSB3062:
.L81:
	.cfi_def_cfa_offset 64
	.cfi_offset 3, -24
	.cfi_offset 6, -16
	call	_ZSt25__throw_bad_function_callv@PLT
	.cfi_endproc
.LFE3062:
	.text
	.size	_ZN8opendnp313CommandSetOps14InvokeCallbackERKNS_10CommandSetENS_14TaskCompletionERSt8functionIFvRKNS_18ICommandTaskResultEEE, .-_ZN8opendnp313CommandSetOps14InvokeCallbackERKNS_10CommandSetENS_14TaskCompletionERSt8functionIFvRKNS_18ICommandTaskResultEEE
	.section	.text.unlikely
	.size	_ZN8opendnp313CommandSetOps14InvokeCallbackERKNS_10CommandSetENS_14TaskCompletionERSt8functionIFvRKNS_18ICommandTaskResultEEE.cold, .-_ZN8opendnp313CommandSetOps14InvokeCallbackERKNS_10CommandSetENS_14TaskCompletionERSt8functionIFvRKNS_18ICommandTaskResultEEE.cold
.LCOLDE0:
	.text
.LHOTE0:
	.align 2
	.p2align 4
	.globl	_ZN8opendnp313CommandSetOps21ProcessSelectResponseERNS_10CommandSetERKN7openpal6RSliceEPNS3_6LoggerE
	.type	_ZN8opendnp313CommandSetOps21ProcessSelectResponseERNS_10CommandSetERKN7openpal6RSliceEPNS3_6LoggerE, @function
_ZN8opendnp313CommandSetOps21ProcessSelectResponseERNS_10CommandSetERKN7openpal6RSliceEPNS3_6LoggerE:
.LFB3066:
	.cfi_startproc
	pushq	%r13
	.cfi_def_cfa_offset 16
	.cfi_offset 13, -16
	movq	%rdx, %r13
	movq	%rdi, %rdx
	pushq	%r12
	.cfi_def_cfa_offset 24
	.cfi_offset 12, -24
	movq	%rsi, %r12
	xorl	%esi, %esi
	pushq	%rbp
	.cfi_def_cfa_offset 32
	.cfi_offset 6, -32
	movl	$1, %ebp
	pushq	%rbx
	.cfi_def_cfa_offset 40
	.cfi_offset 3, -40
	movq	%rdi, %rbx
	subq	$40, %rsp
	.cfi_def_cfa_offset 80
	movq	%rsp, %rdi
	call	_ZN8opendnp313CommandSetOpsC1ENS0_4ModeERNS_10CommandSetE@PLT
	movq	%r13, %rdx
	movq	%rsp, %rsi
	movq	%r12, %rdi
	movabsq	$35184372088833, %rcx
	call	_ZN8opendnp310APDUParser5ParseERKN7openpal6RSliceERNS_12IAPDUHandlerEPNS1_6LoggerENS_14ParserSettingsE@PLT
	testb	%al, %al
	jne	.L83
	movq	8(%rbx), %r12
	movq	(%rbx), %rbx
	movl	%eax, %ebp
	cmpq	%r12, %rbx
	je	.L83
	movq	%r12, %rax
	subq	%rbx, %rax
	subq	$8, %rax
	shrq	$3, %rax
	addq	$1, %rax
	andl	$3, %eax
	je	.L88
	cmpq	$1, %rax
	je	.L106
	cmpq	$2, %rax
	jne	.L114
.L107:
	movq	(%rbx), %rdi
	movq	(%rdi), %rax
	call	*40(%rax)
	testb	%al, %al
	je	.L112
	addq	$8, %rbx
.L106:
	movq	(%rbx), %rdi
	movq	(%rdi), %rax
	call	*40(%rax)
	testb	%al, %al
	je	.L112
	addq	$8, %rbx
	cmpq	%rbx, %r12
	je	.L83
.L88:
	movq	(%rbx), %rdi
	movq	(%rdi), %rax
	call	*40(%rax)
	testb	%al, %al
	je	.L112
	movq	8(%rbx), %rdi
	leaq	8(%rbx), %r13
	movq	%r13, %rbx
	movq	(%rdi), %rax
	call	*40(%rax)
	testb	%al, %al
	je	.L112
	movq	8(%rbx), %rdi
	addq	$8, %rbx
	movq	(%rdi), %rax
	call	*40(%rax)
	testb	%al, %al
	je	.L112
	movq	16(%r13), %rdi
	leaq	16(%r13), %rbx
	movq	(%rdi), %rax
	call	*40(%rax)
	testb	%al, %al
	je	.L112
	leaq	24(%r13), %rbx
	cmpq	%rbx, %r12
	jne	.L88
.L83:
	addq	$40, %rsp
	.cfi_remember_state
	.cfi_def_cfa_offset 40
	movl	%ebp, %eax
	popq	%rbx
	.cfi_def_cfa_offset 32
	popq	%rbp
	.cfi_def_cfa_offset 24
	popq	%r12
	.cfi_def_cfa_offset 16
	popq	%r13
	.cfi_def_cfa_offset 8
	ret
	.p2align 4,,10
	.p2align 3
.L112:
	.cfi_restore_state
	cmpq	%rbx, %r12
	setne	%bpl
	addq	$40, %rsp
	.cfi_remember_state
	.cfi_def_cfa_offset 40
	addl	%ebp, %ebp
	popq	%rbx
	.cfi_def_cfa_offset 32
	movl	%ebp, %eax
	popq	%rbp
	.cfi_def_cfa_offset 24
	popq	%r12
	.cfi_def_cfa_offset 16
	popq	%r13
	.cfi_def_cfa_offset 8
	ret
	.p2align 4,,10
	.p2align 3
.L114:
	.cfi_restore_state
	movq	(%rbx), %rdi
	movq	(%rdi), %rax
	call	*40(%rax)
	testb	%al, %al
	je	.L112
	addq	$8, %rbx
	jmp	.L107
	.cfi_endproc
.LFE3066:
	.size	_ZN8opendnp313CommandSetOps21ProcessSelectResponseERNS_10CommandSetERKN7openpal6RSliceEPNS3_6LoggerE, .-_ZN8opendnp313CommandSetOps21ProcessSelectResponseERNS_10CommandSetERKN7openpal6RSliceEPNS3_6LoggerE
	.align 2
	.p2align 4
	.globl	_ZN8opendnp313CommandSetOps22ProcessOperateResponseERNS_10CommandSetERKN7openpal6RSliceEPNS3_6LoggerE
	.type	_ZN8opendnp313CommandSetOps22ProcessOperateResponseERNS_10CommandSetERKN7openpal6RSliceEPNS3_6LoggerE, @function
_ZN8opendnp313CommandSetOps22ProcessOperateResponseERNS_10CommandSetERKN7openpal6RSliceEPNS3_6LoggerE:
.LFB3073:
	.cfi_startproc
	pushq	%r12
	.cfi_def_cfa_offset 16
	.cfi_offset 12, -16
	movq	%rdx, %r12
	movq	%rdi, %rdx
	pushq	%rbp
	.cfi_def_cfa_offset 24
	.cfi_offset 6, -24
	movq	%rsi, %rbp
	movl	$1, %esi
	pushq	%rbx
	.cfi_def_cfa_offset 32
	.cfi_offset 3, -32
	subq	$32, %rsp
	.cfi_def_cfa_offset 64
	movq	%rsp, %rdi
	call	_ZN8opendnp313CommandSetOpsC1ENS0_4ModeERNS_10CommandSetE@PLT
	movq	%r12, %rdx
	movq	%rsp, %rsi
	movq	%rbp, %rdi
	movabsq	$35184372088833, %rcx
	call	_ZN8opendnp310APDUParser5ParseERKN7openpal6RSliceERNS_12IAPDUHandlerEPNS1_6LoggerENS_14ParserSettingsE@PLT
	testb	%al, %al
	setne	%al
	addq	$32, %rsp
	.cfi_def_cfa_offset 32
	popq	%rbx
	.cfi_def_cfa_offset 24
	popq	%rbp
	.cfi_def_cfa_offset 16
	popq	%r12
	.cfi_def_cfa_offset 8
	ret
	.cfi_endproc
.LFE3073:
	.size	_ZN8opendnp313CommandSetOps22ProcessOperateResponseERNS_10CommandSetERKN7openpal6RSliceEPNS3_6LoggerE, .-_ZN8opendnp313CommandSetOps22ProcessOperateResponseERNS_10CommandSetERKN7openpal6RSliceEPNS3_6LoggerE
	.weak	_ZTSN7openpal10UncopyableE
	.section	.rodata._ZTSN7openpal10UncopyableE,"aG",@progbits,_ZTSN7openpal10UncopyableE,comdat
	.align 16
	.type	_ZTSN7openpal10UncopyableE, @object
	.size	_ZTSN7openpal10UncopyableE, 23
_ZTSN7openpal10UncopyableE:
	.string	"N7openpal10UncopyableE"
	.weak	_ZTIN7openpal10UncopyableE
	.section	.data.rel.ro._ZTIN7openpal10UncopyableE,"awG",@progbits,_ZTIN7openpal10UncopyableE,comdat
	.align 8
	.type	_ZTIN7openpal10UncopyableE, @object
	.size	_ZTIN7openpal10UncopyableE, 16
_ZTIN7openpal10UncopyableE:
	.quad	_ZTVN10__cxxabiv117__class_type_infoE+16
	.quad	_ZTSN7openpal10UncopyableE
	.weak	_ZTSN8opendnp313CommandSetOpsE
	.section	.rodata._ZTSN8opendnp313CommandSetOpsE,"aG",@progbits,_ZTSN8opendnp313CommandSetOpsE,comdat
	.align 16
	.type	_ZTSN8opendnp313CommandSetOpsE, @object
	.size	_ZTSN8opendnp313CommandSetOpsE, 27
_ZTSN8opendnp313CommandSetOpsE:
	.string	"N8opendnp313CommandSetOpsE"
	.weak	_ZTIN8opendnp313CommandSetOpsE
	.section	.data.rel.ro._ZTIN8opendnp313CommandSetOpsE,"awG",@progbits,_ZTIN8opendnp313CommandSetOpsE,comdat
	.align 8
	.type	_ZTIN8opendnp313CommandSetOpsE, @object
	.size	_ZTIN8opendnp313CommandSetOpsE, 56
_ZTIN8opendnp313CommandSetOpsE:
	.quad	_ZTVN10__cxxabiv121__vmi_class_type_infoE+16
	.quad	_ZTSN8opendnp313CommandSetOpsE
	.long	0
	.long	2
	.quad	_ZTIN8opendnp312IAPDUHandlerE
	.quad	2
	.quad	_ZTIN7openpal10UncopyableE
	.quad	0
	.weak	_ZTVN8opendnp313CommandSetOpsE
	.section	.data.rel.ro._ZTVN8opendnp313CommandSetOpsE,"awG",@progbits,_ZTVN8opendnp313CommandSetOpsE,comdat
	.align 8
	.type	_ZTVN8opendnp313CommandSetOpsE, @object
	.size	_ZTVN8opendnp313CommandSetOpsE, 448
_ZTVN8opendnp313CommandSetOpsE:
	.quad	0
	.quad	_ZTIN8opendnp313CommandSetOpsE
	.quad	_ZN8opendnp313CommandSetOps9IsAllowedEjNS_14GroupVariationENS_13QualifierCodeE
	.quad	_ZN8opendnp312IAPDUHandler13ProcessHeaderERKNS_16AllObjectsHeaderE
	.quad	_ZN8opendnp312IAPDUHandler13ProcessHeaderERKNS_11RangeHeaderE
	.quad	_ZN8opendnp312IAPDUHandler13ProcessHeaderERKNS_11CountHeaderE
	.quad	_ZN8opendnp312IAPDUHandler13ProcessHeaderERKNS_16FreeFormatHeaderERKNS_12Group120Var1ERKN7openpal6RSliceE
	.quad	_ZN8opendnp312IAPDUHandler13ProcessHeaderERKNS_16FreeFormatHeaderERKNS_12Group120Var2ERKN7openpal6RSliceE
	.quad	_ZN8opendnp312IAPDUHandler13ProcessHeaderERKNS_16FreeFormatHeaderERKNS_12Group120Var5ERKN7openpal6RSliceE
	.quad	_ZN8opendnp312IAPDUHandler13ProcessHeaderERKNS_16FreeFormatHeaderERKNS_12Group120Var6ERKN7openpal6RSliceE
	.quad	_ZN8opendnp312IAPDUHandler13ProcessHeaderERKNS_16FreeFormatHeaderERKNS_12Group120Var8ERKN7openpal6RSliceE
	.quad	_ZN8opendnp312IAPDUHandler13ProcessHeaderERKNS_16FreeFormatHeaderERKNS_12Group120Var7ERKN7openpal6RSliceE
	.quad	_ZN8opendnp312IAPDUHandler13ProcessHeaderERKNS_16FreeFormatHeaderERKNS_12Group120Var9ERKN7openpal6RSliceE
	.quad	_ZN8opendnp312IAPDUHandler13ProcessHeaderERKNS_16FreeFormatHeaderERKNS_13Group120Var10ERKN7openpal6RSliceE
	.quad	_ZN8opendnp312IAPDUHandler13ProcessHeaderERKNS_16FreeFormatHeaderERKNS_13Group120Var11ERKN7openpal6RSliceE
	.quad	_ZN8opendnp312IAPDUHandler13ProcessHeaderERKNS_16FreeFormatHeaderERKNS_13Group120Var12ERKN7openpal6RSliceE
	.quad	_ZN8opendnp312IAPDUHandler13ProcessHeaderERKNS_16FreeFormatHeaderERKNS_13Group120Var13ERKN7openpal6RSliceE
	.quad	_ZN8opendnp312IAPDUHandler13ProcessHeaderERKNS_16FreeFormatHeaderERKNS_13Group120Var14ERKN7openpal6RSliceE
	.quad	_ZN8opendnp312IAPDUHandler13ProcessHeaderERKNS_16FreeFormatHeaderERKNS_13Group120Var15ERKN7openpal6RSliceE
	.quad	_ZN8opendnp312IAPDUHandler13ProcessHeaderERKNS_11CountHeaderERKNS_11ICollectionINS_11Group50Var1EEE
	.quad	_ZN8opendnp312IAPDUHandler13ProcessHeaderERKNS_11CountHeaderERKNS_11ICollectionINS_11Group51Var1EEE
	.quad	_ZN8opendnp312IAPDUHandler13ProcessHeaderERKNS_11CountHeaderERKNS_11ICollectionINS_11Group51Var2EEE
	.quad	_ZN8opendnp312IAPDUHandler13ProcessHeaderERKNS_11CountHeaderERKNS_11ICollectionINS_11Group52Var1EEE
	.quad	_ZN8opendnp312IAPDUHandler13ProcessHeaderERKNS_11CountHeaderERKNS_11ICollectionINS_11Group52Var2EEE
	.quad	_ZN8opendnp312IAPDUHandler13ProcessHeaderERKNS_11CountHeaderERKNS_11ICollectionINS_12Group120Var3EEE
	.quad	_ZN8opendnp312IAPDUHandler13ProcessHeaderERKNS_11CountHeaderERKNS_11ICollectionINS_12Group120Var4EEE
	.quad	_ZN8opendnp312IAPDUHandler13ProcessHeaderERKNS_11RangeHeaderERKNS_11ICollectionINS_7IndexedINS_8IINValueEEEEE
	.quad	_ZN8opendnp312IAPDUHandler13ProcessHeaderERKNS_11RangeHeaderERKNS_11ICollectionINS_7IndexedINS_6BinaryEEEEE
	.quad	_ZN8opendnp312IAPDUHandler13ProcessHeaderERKNS_11RangeHeaderERKNS_11ICollectionINS_7IndexedINS_15DoubleBitBinaryEEEEE
	.quad	_ZN8opendnp312IAPDUHandler13ProcessHeaderERKNS_11RangeHeaderERKNS_11ICollectionINS_7IndexedINS_18BinaryOutputStatusEEEEE
	.quad	_ZN8opendnp312IAPDUHandler13ProcessHeaderERKNS_11RangeHeaderERKNS_11ICollectionINS_7IndexedINS_7CounterEEEEE
	.quad	_ZN8opendnp312IAPDUHandler13ProcessHeaderERKNS_11RangeHeaderERKNS_11ICollectionINS_7IndexedINS_13FrozenCounterEEEEE
	.quad	_ZN8opendnp312IAPDUHandler13ProcessHeaderERKNS_11RangeHeaderERKNS_11ICollectionINS_7IndexedINS_6AnalogEEEEE
	.quad	_ZN8opendnp312IAPDUHandler13ProcessHeaderERKNS_11RangeHeaderERKNS_11ICollectionINS_7IndexedINS_18AnalogOutputStatusEEEEE
	.quad	_ZN8opendnp312IAPDUHandler13ProcessHeaderERKNS_11RangeHeaderERKNS_11ICollectionINS_7IndexedINS_11OctetStringEEEEE
	.quad	_ZN8opendnp312IAPDUHandler13ProcessHeaderERKNS_11RangeHeaderERKNS_11ICollectionINS_7IndexedINS_15TimeAndIntervalEEEEE
	.quad	_ZN8opendnp312IAPDUHandler13ProcessHeaderERKNS_11RangeHeaderERKNS_11ICollectionINS_7IndexedINS_12Group121Var1EEEEE
	.quad	_ZN8opendnp312IAPDUHandler13ProcessHeaderERKNS_12PrefixHeaderERKNS_11ICollectionINS_7IndexedINS_6BinaryEEEEE
	.quad	_ZN8opendnp312IAPDUHandler13ProcessHeaderERKNS_12PrefixHeaderERKNS_11ICollectionINS_7IndexedINS_18BinaryOutputStatusEEEEE
	.quad	_ZN8opendnp312IAPDUHandler13ProcessHeaderERKNS_12PrefixHeaderERKNS_11ICollectionINS_7IndexedINS_15DoubleBitBinaryEEEEE
	.quad	_ZN8opendnp312IAPDUHandler13ProcessHeaderERKNS_12PrefixHeaderERKNS_11ICollectionINS_7IndexedINS_7CounterEEEEE
	.quad	_ZN8opendnp312IAPDUHandler13ProcessHeaderERKNS_12PrefixHeaderERKNS_11ICollectionINS_7IndexedINS_13FrozenCounterEEEEE
	.quad	_ZN8opendnp312IAPDUHandler13ProcessHeaderERKNS_12PrefixHeaderERKNS_11ICollectionINS_7IndexedINS_6AnalogEEEEE
	.quad	_ZN8opendnp312IAPDUHandler13ProcessHeaderERKNS_12PrefixHeaderERKNS_11ICollectionINS_7IndexedINS_18AnalogOutputStatusEEEEE
	.quad	_ZN8opendnp312IAPDUHandler13ProcessHeaderERKNS_12PrefixHeaderERKNS_11ICollectionINS_7IndexedINS_11OctetStringEEEEE
	.quad	_ZN8opendnp312IAPDUHandler13ProcessHeaderERKNS_12PrefixHeaderERKNS_11ICollectionINS_7IndexedINS_15TimeAndIntervalEEEEE
	.quad	_ZN8opendnp312IAPDUHandler13ProcessHeaderERKNS_12PrefixHeaderERKNS_11ICollectionINS_7IndexedINS_18BinaryCommandEventEEEEE
	.quad	_ZN8opendnp312IAPDUHandler13ProcessHeaderERKNS_12PrefixHeaderERKNS_11ICollectionINS_7IndexedINS_18AnalogCommandEventEEEEE
	.quad	_ZN8opendnp312IAPDUHandler13ProcessHeaderERKNS_12PrefixHeaderERKNS_11ICollectionINS_7IndexedINS_12Group122Var1EEEEE
	.quad	_ZN8opendnp312IAPDUHandler13ProcessHeaderERKNS_12PrefixHeaderERKNS_11ICollectionINS_7IndexedINS_12Group122Var2EEEEE
	.quad	_ZN8opendnp313CommandSetOps13ProcessHeaderERKNS_12PrefixHeaderERKNS_11ICollectionINS_7IndexedINS_23ControlRelayOutputBlockEEEEE
	.quad	_ZN8opendnp313CommandSetOps13ProcessHeaderERKNS_12PrefixHeaderERKNS_11ICollectionINS_7IndexedINS_17AnalogOutputInt16EEEEE
	.quad	_ZN8opendnp313CommandSetOps13ProcessHeaderERKNS_12PrefixHeaderERKNS_11ICollectionINS_7IndexedINS_17AnalogOutputInt32EEEEE
	.quad	_ZN8opendnp313CommandSetOps13ProcessHeaderERKNS_12PrefixHeaderERKNS_11ICollectionINS_7IndexedINS_19AnalogOutputFloat32EEEEE
	.quad	_ZN8opendnp313CommandSetOps13ProcessHeaderERKNS_12PrefixHeaderERKNS_11ICollectionINS_7IndexedINS_20AnalogOutputDouble64EEEEE
	.quad	_ZN8opendnp312IAPDUHandler14OnHeaderResultERKNS_12HeaderRecordERKNS_8IINFieldE
	.ident	"GCC: (Debian 15.2.0-4) 15.2.0"
	.section	.note.GNU-stack,"",@progbits
