	.file	"DisableUnsolicitedTask.cpp"
	.text
	.section	.text._ZNK8opendnp311IMasterTask10IsAuthTaskEv,"axG",@progbits,_ZNK8opendnp311IMasterTask10IsAuthTaskEv,comdat
	.align 2
	.p2align 4
	.weak	_ZNK8opendnp311IMasterTask10IsAuthTaskEv
	.type	_ZNK8opendnp311IMasterTask10IsAuthTaskEv, @function
_ZNK8opendnp311IMasterTask10IsAuthTaskEv:
.LFB2381:
	.cfi_startproc
	xorl	%eax, %eax
	ret
	.cfi_endproc
.LFE2381:
	.size	_ZNK8opendnp311IMasterTask10IsAuthTaskEv, .-_ZNK8opendnp311IMasterTask10IsAuthTaskEv
	.section	.text._ZN8opendnp311IMasterTask10InitializeEv,"axG",@progbits,_ZN8opendnp311IMasterTask10InitializeEv,comdat
	.align 2
	.p2align 4
	.weak	_ZN8opendnp311IMasterTask10InitializeEv
	.type	_ZN8opendnp311IMasterTask10InitializeEv, @function
_ZN8opendnp311IMasterTask10InitializeEv:
.LFB2382:
	.cfi_startproc
	ret
	.cfi_endproc
.LFE2382:
	.size	_ZN8opendnp311IMasterTask10InitializeEv, .-_ZN8opendnp311IMasterTask10InitializeEv
	.section	.rodata._ZNK8opendnp322DisableUnsolicitedTask4NameEv.str1.1,"aMS",@progbits,1
.LC0:
	.string	"Disable Unsolicited"
	.section	.text._ZNK8opendnp322DisableUnsolicitedTask4NameEv,"axG",@progbits,_ZNK8opendnp322DisableUnsolicitedTask4NameEv,comdat
	.align 2
	.p2align 4
	.weak	_ZNK8opendnp322DisableUnsolicitedTask4NameEv
	.type	_ZNK8opendnp322DisableUnsolicitedTask4NameEv, @function
_ZNK8opendnp322DisableUnsolicitedTask4NameEv:
.LFB2383:
	.cfi_startproc
	leaq	.LC0(%rip), %rax
	ret
	.cfi_endproc
.LFE2383:
	.size	_ZNK8opendnp322DisableUnsolicitedTask4NameEv, .-_ZNK8opendnp322DisableUnsolicitedTask4NameEv
	.section	.text._ZNK8opendnp322DisableUnsolicitedTask11IsRecurringEv,"axG",@progbits,_ZNK8opendnp322DisableUnsolicitedTask11IsRecurringEv,comdat
	.align 2
	.p2align 4
	.weak	_ZNK8opendnp322DisableUnsolicitedTask11IsRecurringEv
	.type	_ZNK8opendnp322DisableUnsolicitedTask11IsRecurringEv, @function
_ZNK8opendnp322DisableUnsolicitedTask11IsRecurringEv:
.LFB2384:
	.cfi_startproc
	movl	$1, %eax
	ret
	.cfi_endproc
.LFE2384:
	.size	_ZNK8opendnp322DisableUnsolicitedTask11IsRecurringEv, .-_ZNK8opendnp322DisableUnsolicitedTask11IsRecurringEv
	.section	.text._ZNK8opendnp322DisableUnsolicitedTask8PriorityEv,"axG",@progbits,_ZNK8opendnp322DisableUnsolicitedTask8PriorityEv,comdat
	.align 2
	.p2align 4
	.weak	_ZNK8opendnp322DisableUnsolicitedTask8PriorityEv
	.type	_ZNK8opendnp322DisableUnsolicitedTask8PriorityEv, @function
_ZNK8opendnp322DisableUnsolicitedTask8PriorityEv:
.LFB2385:
	.cfi_startproc
	movl	$130, %eax
	ret
	.cfi_endproc
.LFE2385:
	.size	_ZNK8opendnp322DisableUnsolicitedTask8PriorityEv, .-_ZNK8opendnp322DisableUnsolicitedTask8PriorityEv
	.section	.text._ZNK8opendnp322DisableUnsolicitedTask19BlocksLowerPriorityEv,"axG",@progbits,_ZNK8opendnp322DisableUnsolicitedTask19BlocksLowerPriorityEv,comdat
	.align 2
	.p2align 4
	.weak	_ZNK8opendnp322DisableUnsolicitedTask19BlocksLowerPriorityEv
	.type	_ZNK8opendnp322DisableUnsolicitedTask19BlocksLowerPriorityEv, @function
_ZNK8opendnp322DisableUnsolicitedTask19BlocksLowerPriorityEv:
.LFB2386:
	.cfi_startproc
	movl	$1, %eax
	ret
	.cfi_endproc
.LFE2386:
	.size	_ZNK8opendnp322DisableUnsolicitedTask19BlocksLowerPriorityEv, .-_ZNK8opendnp322DisableUnsolicitedTask19BlocksLowerPriorityEv
	.section	.text._ZNK8opendnp322DisableUnsolicitedTask11GetTaskTypeEv,"axG",@progbits,_ZNK8opendnp322DisableUnsolicitedTask11GetTaskTypeEv,comdat
	.align 2
	.p2align 4
	.weak	_ZNK8opendnp322DisableUnsolicitedTask11GetTaskTypeEv
	.type	_ZNK8opendnp322DisableUnsolicitedTask11GetTaskTypeEv, @function
_ZNK8opendnp322DisableUnsolicitedTask11GetTaskTypeEv:
.LFB2387:
	.cfi_startproc
	movl	$1, %eax
	ret
	.cfi_endproc
.LFE2387:
	.size	_ZNK8opendnp322DisableUnsolicitedTask11GetTaskTypeEv, .-_ZNK8opendnp322DisableUnsolicitedTask11GetTaskTypeEv
	.section	.text._ZNK8opendnp322DisableUnsolicitedTask9IsEnabledEv,"axG",@progbits,_ZNK8opendnp322DisableUnsolicitedTask9IsEnabledEv,comdat
	.align 2
	.p2align 4
	.weak	_ZNK8opendnp322DisableUnsolicitedTask9IsEnabledEv
	.type	_ZNK8opendnp322DisableUnsolicitedTask9IsEnabledEv, @function
_ZNK8opendnp322DisableUnsolicitedTask9IsEnabledEv:
.LFB2388:
	.cfi_startproc
	movzbl	88(%rdi), %eax
	ret
	.cfi_endproc
.LFE2388:
	.size	_ZNK8opendnp322DisableUnsolicitedTask9IsEnabledEv, .-_ZNK8opendnp322DisableUnsolicitedTask9IsEnabledEv
	.text
	.align 2
	.p2align 4
	.globl	_ZN8opendnp322DisableUnsolicitedTask12BuildRequestERNS_11APDURequestEh
	.type	_ZN8opendnp322DisableUnsolicitedTask12BuildRequestERNS_11APDURequestEh, @function
_ZN8opendnp322DisableUnsolicitedTask12BuildRequestERNS_11APDURequestEh:
.LFB3002:
	.cfi_startproc
	subq	$8, %rsp
	.cfi_def_cfa_offset 16
	movq	%rsi, %rdi
	movzbl	%dl, %esi
	call	_ZN8opendnp35build18DisableUnsolicitedERNS_11APDURequestEh@PLT
	movl	$1, %eax
	addq	$8, %rsp
	.cfi_def_cfa_offset 8
	ret
	.cfi_endproc
.LFE3002:
	.size	_ZN8opendnp322DisableUnsolicitedTask12BuildRequestERNS_11APDURequestEh, .-_ZN8opendnp322DisableUnsolicitedTask12BuildRequestERNS_11APDURequestEh
	.align 2
	.p2align 4
	.globl	_ZN8opendnp322DisableUnsolicitedTask15ProcessResponseERKNS_18APDUResponseHeaderERKN7openpal6RSliceE
	.type	_ZN8opendnp322DisableUnsolicitedTask15ProcessResponseERKNS_18APDUResponseHeaderERKN7openpal6RSliceE, @function
_ZN8opendnp322DisableUnsolicitedTask15ProcessResponseERKNS_18APDUResponseHeaderERKN7openpal6RSliceE:
.LFB3003:
	.cfi_startproc
	subq	$8, %rsp
	.cfi_def_cfa_offset 16
	call	_ZN8opendnp311IMasterTask20ValidateNullResponseERKNS_18APDUResponseHeaderERKN7openpal6RSliceE@PLT
	addq	$8, %rsp
	.cfi_def_cfa_offset 8
	addl	%eax, %eax
	ret
	.cfi_endproc
.LFE3003:
	.size	_ZN8opendnp322DisableUnsolicitedTask15ProcessResponseERKNS_18APDUResponseHeaderERKN7openpal6RSliceE, .-_ZN8opendnp322DisableUnsolicitedTask15ProcessResponseERKNS_18APDUResponseHeaderERKN7openpal6RSliceE
	.section	.text._ZN8opendnp322DisableUnsolicitedTaskD2Ev,"axG",@progbits,_ZN8opendnp322DisableUnsolicitedTaskD5Ev,comdat
	.align 2
	.p2align 4
	.weak	_ZN8opendnp322DisableUnsolicitedTaskD2Ev
	.type	_ZN8opendnp322DisableUnsolicitedTaskD2Ev, @function
_ZN8opendnp322DisableUnsolicitedTaskD2Ev:
.LFB3710:
	.cfi_startproc
	movq	_ZTVN8opendnp322DisableUnsolicitedTaskE@GOTPCREL(%rip), %rax
	addq	$16, %rax
	movq	%rax, (%rdi)
	jmp	_ZN8opendnp311IMasterTaskD2Ev@PLT
	.cfi_endproc
.LFE3710:
	.size	_ZN8opendnp322DisableUnsolicitedTaskD2Ev, .-_ZN8opendnp322DisableUnsolicitedTaskD2Ev
	.weak	_ZN8opendnp322DisableUnsolicitedTaskD1Ev
	.set	_ZN8opendnp322DisableUnsolicitedTaskD1Ev,_ZN8opendnp322DisableUnsolicitedTaskD2Ev
	.section	.text._ZN8opendnp322DisableUnsolicitedTaskD0Ev,"axG",@progbits,_ZN8opendnp322DisableUnsolicitedTaskD5Ev,comdat
	.align 2
	.p2align 4
	.weak	_ZN8opendnp322DisableUnsolicitedTaskD0Ev
	.type	_ZN8opendnp322DisableUnsolicitedTaskD0Ev, @function
_ZN8opendnp322DisableUnsolicitedTaskD0Ev:
.LFB3712:
	.cfi_startproc
	subq	$24, %rsp
	.cfi_def_cfa_offset 32
	movq	_ZTVN8opendnp322DisableUnsolicitedTaskE@GOTPCREL(%rip), %rax
	movq	%rdi, 8(%rsp)
	addq	$16, %rax
	movq	%rax, (%rdi)
	call	_ZN8opendnp311IMasterTaskD2Ev@PLT
	movq	8(%rsp), %rdi
	movl	$104, %esi
	addq	$24, %rsp
	.cfi_def_cfa_offset 8
	jmp	_ZdlPvm@PLT
	.cfi_endproc
.LFE3712:
	.size	_ZN8opendnp322DisableUnsolicitedTaskD0Ev, .-_ZN8opendnp322DisableUnsolicitedTaskD0Ev
	.text
	.align 2
	.p2align 4
	.globl	_ZN8opendnp322DisableUnsolicitedTask14OnTaskCompleteENS_14TaskCompletionEN7openpal18MonotonicTimestampE
	.type	_ZN8opendnp322DisableUnsolicitedTask14OnTaskCompleteENS_14TaskCompletionEN7openpal18MonotonicTimestampE, @function
_ZN8opendnp322DisableUnsolicitedTask14OnTaskCompleteENS_14TaskCompletionEN7openpal18MonotonicTimestampE:
.LFB3004:
	.cfi_startproc
	subq	$40, %rsp
	.cfi_def_cfa_offset 48
	movq	%rdx, 8(%rsp)
	cmpb	$2, %sil
	je	.L18
	cmpb	$-1, %sil
	je	.L19
	cmpb	$1, %sil
	jne	.L20
	call	_ZN7openpal18MonotonicTimestamp3MaxEv@PLT
	movl	$1, %esi
	addq	$40, %rsp
	.cfi_remember_state
	.cfi_def_cfa_offset 8
	movq	%rax, %rdi
	movl	%esi, %eax
	movq	%rdi, %rdx
	ret
	.p2align 4,,10
	.p2align 3
.L19:
	.cfi_restore_state
	leaq	24(%rsp), %rdi
	xorl	%esi, %esi
	call	_ZN7openpal18MonotonicTimestampC1El@PLT
	movq	24(%rsp), %rax
	xorl	%esi, %esi
	addq	$40, %rsp
	.cfi_remember_state
	.cfi_def_cfa_offset 8
	movq	%rax, %rdi
	movl	%esi, %eax
	movq	%rdi, %rdx
	ret
	.p2align 4,,10
	.p2align 3
.L18:
	.cfi_restore_state
	leaq	96(%rdi), %rsi
	leaq	8(%rsp), %rdi
	call	_ZNK7openpal18MonotonicTimestamp3AddERKNS_12TimeDurationE@PLT
	xorl	%esi, %esi
	addq	$40, %rsp
	.cfi_remember_state
	.cfi_def_cfa_offset 8
	movq	%rax, %rdi
	movl	%esi, %eax
	movq	%rdi, %rdx
	ret
	.p2align 4,,10
	.p2align 3
.L20:
	.cfi_restore_state
	call	_ZN7openpal18MonotonicTimestamp3MaxEv@PLT
	xorl	%esi, %esi
	addq	$40, %rsp
	.cfi_def_cfa_offset 8
	movq	%rax, %rdi
	movl	%esi, %eax
	movq	%rdi, %rdx
	ret
	.cfi_endproc
.LFE3004:
	.size	_ZN8opendnp322DisableUnsolicitedTask14OnTaskCompleteENS_14TaskCompletionEN7openpal18MonotonicTimestampE, .-_ZN8opendnp322DisableUnsolicitedTask14OnTaskCompleteENS_14TaskCompletionEN7openpal18MonotonicTimestampE
	.section	.text._ZNSt16_Sp_counted_baseILN9__gnu_cxx12_Lock_policyE2EE24_M_release_last_use_coldEv,"axG",@progbits,_ZNSt16_Sp_counted_baseILN9__gnu_cxx12_Lock_policyE2EE24_M_release_last_use_coldEv,comdat
	.align 2
	.p2align 4
	.weak	_ZNSt16_Sp_counted_baseILN9__gnu_cxx12_Lock_policyE2EE24_M_release_last_use_coldEv
	.type	_ZNSt16_Sp_counted_baseILN9__gnu_cxx12_Lock_policyE2EE24_M_release_last_use_coldEv, @function
_ZNSt16_Sp_counted_baseILN9__gnu_cxx12_Lock_policyE2EE24_M_release_last_use_coldEv:
.LFB3011:
	.cfi_startproc
	pushq	%rbx
	.cfi_def_cfa_offset 16
	.cfi_offset 3, -16
	movq	(%rdi), %rax
	movq	%rdi, %rbx
	call	*16(%rax)
	movq	__libc_single_threaded@GOTPCREL(%rip), %rax
	cmpb	$0, (%rax)
	je	.L24
	movl	12(%rbx), %eax
	leal	-1(%rax), %edx
	movl	%edx, 12(%rbx)
.L25:
	cmpl	$1, %eax
	je	.L28
	popq	%rbx
	.cfi_remember_state
	.cfi_def_cfa_offset 8
	ret
	.p2align 4,,10
	.p2align 3
.L28:
	.cfi_restore_state
	movq	(%rbx), %rax
	movq	%rbx, %rdi
	popq	%rbx
	.cfi_remember_state
	.cfi_def_cfa_offset 8
	movq	24(%rax), %rax
	jmp	*%rax
	.p2align 4,,10
	.p2align 3
.L24:
	.cfi_restore_state
	movl	$-1, %eax
	lock xaddl	%eax, 12(%rbx)
	jmp	.L25
	.cfi_endproc
.LFE3011:
	.size	_ZNSt16_Sp_counted_baseILN9__gnu_cxx12_Lock_policyE2EE24_M_release_last_use_coldEv, .-_ZNSt16_Sp_counted_baseILN9__gnu_cxx12_Lock_policyE2EE24_M_release_last_use_coldEv
	.section	.text._ZN7openpal6LoggerD2Ev,"axG",@progbits,_ZN7openpal6LoggerD5Ev,comdat
	.align 2
	.p2align 4
	.weak	_ZN7openpal6LoggerD2Ev
	.type	_ZN7openpal6LoggerD2Ev, @function
_ZN7openpal6LoggerD2Ev:
.LFB1998:
	.cfi_startproc
	subq	$24, %rsp
	.cfi_def_cfa_offset 32
	movq	%rdi, %rax
	movq	24(%rdi), %rdi
	testq	%rdi, %rdi
	je	.L31
	movq	8(%rdi), %rcx
	leaq	8(%rdi), %rsi
	movabsq	$4294967297, %rdx
	cmpq	%rdx, %rcx
	je	.L43
	movq	__libc_single_threaded@GOTPCREL(%rip), %rdx
	cmpb	$0, (%rdx)
	je	.L33
	movl	8(%rdi), %edx
	leal	-1(%rdx), %ecx
	movl	%ecx, 8(%rdi)
.L34:
	cmpl	$1, %edx
	je	.L44
.L31:
	movq	8(%rax), %rdi
	testq	%rdi, %rdi
	je	.L29
	movq	8(%rdi), %rdx
	leaq	8(%rdi), %rcx
	movabsq	$4294967297, %rax
	cmpq	%rax, %rdx
	je	.L45
	movq	__libc_single_threaded@GOTPCREL(%rip), %rax
	cmpb	$0, (%rax)
	je	.L39
	movl	8(%rdi), %eax
	leal	-1(%rax), %edx
	movl	%edx, 8(%rdi)
.L40:
	cmpl	$1, %eax
	je	.L46
.L29:
	addq	$24, %rsp
	.cfi_remember_state
	.cfi_def_cfa_offset 8
	ret
	.p2align 4,,10
	.p2align 3
.L45:
	.cfi_restore_state
	movq	(%rdi), %rax
	movq	%rdi, (%rsp)
	movq	$0, 8(%rdi)
	call	*16(%rax)
	movq	(%rsp), %rdi
	movq	(%rdi), %rax
	movq	24(%rax), %rax
	addq	$24, %rsp
	.cfi_remember_state
	.cfi_def_cfa_offset 8
	jmp	*%rax
	.p2align 4,,10
	.p2align 3
.L43:
	.cfi_restore_state
	movq	(%rdi), %rdx
	movq	%rax, 8(%rsp)
	movq	$0, 8(%rdi)
	movq	%rdi, (%rsp)
	call	*16(%rdx)
	movq	(%rsp), %rdi
	movq	(%rdi), %rdx
	call	*24(%rdx)
	movq	8(%rsp), %rax
	jmp	.L31
	.p2align 4,,10
	.p2align 3
.L39:
	movl	$-1, %eax
	lock xaddl	%eax, (%rcx)
	jmp	.L40
	.p2align 4,,10
	.p2align 3
.L33:
	movl	$-1, %edx
	lock xaddl	%edx, (%rsi)
	jmp	.L34
	.p2align 4,,10
	.p2align 3
.L44:
	movq	%rax, (%rsp)
	call	_ZNSt16_Sp_counted_baseILN9__gnu_cxx12_Lock_policyE2EE24_M_release_last_use_coldEv@PLT
	movq	(%rsp), %rax
	jmp	.L31
	.p2align 4,,10
	.p2align 3
.L46:
	addq	$24, %rsp
	.cfi_def_cfa_offset 8
	jmp	_ZNSt16_Sp_counted_baseILN9__gnu_cxx12_Lock_policyE2EE24_M_release_last_use_coldEv@PLT
	.cfi_endproc
.LFE1998:
	.size	_ZN7openpal6LoggerD2Ev, .-_ZN7openpal6LoggerD2Ev
	.weak	_ZN7openpal6LoggerD1Ev
	.set	_ZN7openpal6LoggerD1Ev,_ZN7openpal6LoggerD2Ev
	.section	.text.unlikely,"ax",@progbits
	.align 2
.LCOLDB1:
	.text
.LHOTB1:
	.align 2
	.p2align 4
	.globl	_ZN8opendnp322DisableUnsolicitedTaskC2ERNS_18IMasterApplicationEbN7openpal12TimeDurationENS3_6LoggerE
	.type	_ZN8opendnp322DisableUnsolicitedTaskC2ERNS_18IMasterApplicationEbN7openpal12TimeDurationENS3_6LoggerE, @function
_ZN8opendnp322DisableUnsolicitedTaskC2ERNS_18IMasterApplicationEbN7openpal12TimeDurationENS3_6LoggerE:
.LFB3000:
	.cfi_startproc
	.cfi_personality 0x9b,DW.ref.__gxx_personality_v0
	.cfi_lsda 0x1b,.LLSDA3000
	pushq	%r14
	.cfi_def_cfa_offset 16
	.cfi_offset 14, -16
	pushq	%r13
	.cfi_def_cfa_offset 24
	.cfi_offset 13, -24
	pushq	%r12
	.cfi_def_cfa_offset 32
	.cfi_offset 12, -32
	movl	%edx, %r12d
	pushq	%rbp
	.cfi_def_cfa_offset 40
	.cfi_offset 6, -40
	movq	%rcx, %rbp
	pushq	%rbx
	.cfi_def_cfa_offset 48
	.cfi_offset 3, -48
	movq	%rdi, %rbx
	subq	$48, %rsp
	.cfi_def_cfa_offset 96
	movdqu	(%r8), %xmm0
	movhlps	%xmm0, %xmm1
	movaps	%xmm0, 16(%rsp)
	movq	%xmm1, %rax
	testq	%rax, %rax
	je	.L48
	movq	__libc_single_threaded@GOTPCREL(%rip), %rdx
	cmpb	$0, (%rdx)
	je	.L49
	addl	$1, 8(%rax)
.L48:
	movdqu	16(%r8), %xmm0
	movhlps	%xmm0, %xmm2
	movaps	%xmm0, 32(%rsp)
	movq	%xmm2, %rax
	testq	%rax, %rax
	je	.L50
	movq	__libc_single_threaded@GOTPCREL(%rip), %rdx
	cmpb	$0, (%rdx)
	je	.L51
	addl	$1, 8(%rax)
.L50:
	movq	%rsi, 8(%rsp)
.LEHB0:
	call	_ZN7openpal18MonotonicTimestamp3MinEv@PLT
	movq	8(%rsp), %rsi
	xorl	%r9d, %r9d
	leaq	16(%rsp), %rcx
	movq	%rax, %rdx
	movl	$4294967295, %r8d
	movq	%rbx, %rdi
	call	_ZN8opendnp311IMasterTaskC2ERNS_18IMasterApplicationEN7openpal18MonotonicTimestampENS3_6LoggerENS_10TaskConfigE@PLT
.LEHE0:
	movq	40(%rsp), %r13
	testq	%r13, %r13
	je	.L53
	movq	8(%r13), %rdx
	leaq	8(%r13), %rcx
	movabsq	$4294967297, %rax
	cmpq	%rax, %rdx
	je	.L74
	movq	__libc_single_threaded@GOTPCREL(%rip), %rax
	cmpb	$0, (%rax)
	je	.L55
	movl	8(%r13), %eax
	leal	-1(%rax), %edx
	movl	%edx, 8(%r13)
.L56:
	cmpl	$1, %eax
	je	.L75
.L53:
	movq	24(%rsp), %r13
	testq	%r13, %r13
	je	.L59
	movq	8(%r13), %rdx
	leaq	8(%r13), %rcx
	movabsq	$4294967297, %rax
	cmpq	%rax, %rdx
	je	.L76
	movq	__libc_single_threaded@GOTPCREL(%rip), %rax
	cmpb	$0, (%rax)
	je	.L61
	movl	8(%r13), %eax
	leal	-1(%rax), %edx
	movl	%edx, 8(%r13)
.L62:
	cmpl	$1, %eax
	je	.L77
.L59:
	movq	_ZTVN8opendnp322DisableUnsolicitedTaskE@GOTPCREL(%rip), %rax
	movb	%r12b, 88(%rbx)
	movq	%rbp, 96(%rbx)
	addq	$16, %rax
	movq	%rax, (%rbx)
	addq	$48, %rsp
	.cfi_remember_state
	.cfi_def_cfa_offset 48
	popq	%rbx
	.cfi_def_cfa_offset 40
	popq	%rbp
	.cfi_def_cfa_offset 32
	popq	%r12
	.cfi_def_cfa_offset 24
	popq	%r13
	.cfi_def_cfa_offset 16
	popq	%r14
	.cfi_def_cfa_offset 8
	ret
	.p2align 4,,10
	.p2align 3
.L49:
	.cfi_restore_state
	lock addl	$1, 8(%rax)
	jmp	.L48
	.p2align 4,,10
	.p2align 3
.L51:
	lock addl	$1, 8(%rax)
	jmp	.L50
	.p2align 4,,10
	.p2align 3
.L74:
	movq	0(%r13), %rax
	movq	%r13, %rdi
	movq	$0, 8(%r13)
	call	*16(%rax)
	movq	0(%r13), %rax
	movq	%r13, %rdi
	call	*24(%rax)
	jmp	.L53
	.p2align 4,,10
	.p2align 3
.L76:
	movq	0(%r13), %rax
	movq	%r13, %rdi
	movq	$0, 8(%r13)
	call	*16(%rax)
	movq	0(%r13), %rax
	movq	%r13, %rdi
	call	*24(%rax)
	jmp	.L59
	.p2align 4,,10
	.p2align 3
.L61:
	movl	$-1, %eax
	lock xaddl	%eax, (%rcx)
	jmp	.L62
	.p2align 4,,10
	.p2align 3
.L55:
	movl	$-1, %eax
	lock xaddl	%eax, (%rcx)
	jmp	.L56
	.p2align 4,,10
	.p2align 3
.L75:
	movq	%r13, %rdi
	call	_ZNSt16_Sp_counted_baseILN9__gnu_cxx12_Lock_policyE2EE24_M_release_last_use_coldEv@PLT
	jmp	.L53
	.p2align 4,,10
	.p2align 3
.L77:
	movq	%r13, %rdi
	call	_ZNSt16_Sp_counted_baseILN9__gnu_cxx12_Lock_policyE2EE24_M_release_last_use_coldEv@PLT
	jmp	.L59
.L65:
	movq	%rax, %rbx
	jmp	.L64
	.section	.gcc_except_table,"a",@progbits
.LLSDA3000:
	.byte	0xff
	.byte	0xff
	.byte	0x1
	.uleb128 .LLSDACSE3000-.LLSDACSB3000
.LLSDACSB3000:
	.uleb128 .LEHB0-.LFB3000
	.uleb128 .LEHE0-.LEHB0
	.uleb128 .L65-.LFB3000
	.uleb128 0
.LLSDACSE3000:
	.text
	.cfi_endproc
	.section	.text.unlikely
	.cfi_startproc
	.cfi_personality 0x9b,DW.ref.__gxx_personality_v0
	.cfi_lsda 0x1b,.LLSDAC3000
	.type	_ZN8opendnp322DisableUnsolicitedTaskC2ERNS_18IMasterApplicationEbN7openpal12TimeDurationENS3_6LoggerE.cold, @function
_ZN8opendnp322DisableUnsolicitedTaskC2ERNS_18IMasterApplicationEbN7openpal12TimeDurationENS3_6LoggerE.cold:
.LFSB3000:
.L64:
	.cfi_def_cfa_offset 96
	.cfi_offset 3, -48
	.cfi_offset 6, -40
	.cfi_offset 12, -32
	.cfi_offset 13, -24
	.cfi_offset 14, -16
	leaq	16(%rsp), %rdi
	call	_ZN7openpal6LoggerD1Ev@PLT
	movq	%rbx, %rdi
.LEHB1:
	call	_Unwind_Resume@PLT
.LEHE1:
	.cfi_endproc
.LFE3000:
	.section	.gcc_except_table
.LLSDAC3000:
	.byte	0xff
	.byte	0xff
	.byte	0x1
	.uleb128 .LLSDACSEC3000-.LLSDACSBC3000
.LLSDACSBC3000:
	.uleb128 .LEHB1-.LCOLDB1
	.uleb128 .LEHE1-.LEHB1
	.uleb128 0
	.uleb128 0
.LLSDACSEC3000:
	.section	.text.unlikely
	.text
	.size	_ZN8opendnp322DisableUnsolicitedTaskC2ERNS_18IMasterApplicationEbN7openpal12TimeDurationENS3_6LoggerE, .-_ZN8opendnp322DisableUnsolicitedTaskC2ERNS_18IMasterApplicationEbN7openpal12TimeDurationENS3_6LoggerE
	.section	.text.unlikely
	.size	_ZN8opendnp322DisableUnsolicitedTaskC2ERNS_18IMasterApplicationEbN7openpal12TimeDurationENS3_6LoggerE.cold, .-_ZN8opendnp322DisableUnsolicitedTaskC2ERNS_18IMasterApplicationEbN7openpal12TimeDurationENS3_6LoggerE.cold
.LCOLDE1:
	.text
.LHOTE1:
	.globl	_ZN8opendnp322DisableUnsolicitedTaskC1ERNS_18IMasterApplicationEbN7openpal12TimeDurationENS3_6LoggerE
	.set	_ZN8opendnp322DisableUnsolicitedTaskC1ERNS_18IMasterApplicationEbN7openpal12TimeDurationENS3_6LoggerE,_ZN8opendnp322DisableUnsolicitedTaskC2ERNS_18IMasterApplicationEbN7openpal12TimeDurationENS3_6LoggerE
	.section	.text.startup,"ax",@progbits
	.p2align 4
	.type	_GLOBAL__sub_I_DisableUnsolicitedTask.cpp, @function
_GLOBAL__sub_I_DisableUnsolicitedTask.cpp:
.LFB3728:
	.cfi_startproc
	movl	$5000, %edi
	jmp	_ZN7openpal12TimeDuration12MillisecondsEl@PLT
	.cfi_endproc
.LFE3728:
	.size	_GLOBAL__sub_I_DisableUnsolicitedTask.cpp, .-_GLOBAL__sub_I_DisableUnsolicitedTask.cpp
	.section	.init_array,"aw"
	.align 8
	.quad	_GLOBAL__sub_I_DisableUnsolicitedTask.cpp
	.weak	_ZTSN8opendnp322DisableUnsolicitedTaskE
	.section	.rodata._ZTSN8opendnp322DisableUnsolicitedTaskE,"aG",@progbits,_ZTSN8opendnp322DisableUnsolicitedTaskE,comdat
	.align 32
	.type	_ZTSN8opendnp322DisableUnsolicitedTaskE, @object
	.size	_ZTSN8opendnp322DisableUnsolicitedTaskE, 36
_ZTSN8opendnp322DisableUnsolicitedTaskE:
	.string	"N8opendnp322DisableUnsolicitedTaskE"
	.weak	_ZTIN8opendnp322DisableUnsolicitedTaskE
	.section	.data.rel.ro._ZTIN8opendnp322DisableUnsolicitedTaskE,"awG",@progbits,_ZTIN8opendnp322DisableUnsolicitedTaskE,comdat
	.align 8
	.type	_ZTIN8opendnp322DisableUnsolicitedTaskE, @object
	.size	_ZTIN8opendnp322DisableUnsolicitedTaskE, 24
_ZTIN8opendnp322DisableUnsolicitedTaskE:
	.quad	_ZTVN10__cxxabiv120__si_class_type_infoE+16
	.quad	_ZTSN8opendnp322DisableUnsolicitedTaskE
	.quad	_ZTIN8opendnp311IMasterTaskE
	.weak	_ZTVN8opendnp322DisableUnsolicitedTaskE
	.section	.data.rel.ro._ZTVN8opendnp322DisableUnsolicitedTaskE,"awG",@progbits,_ZTVN8opendnp322DisableUnsolicitedTaskE,comdat
	.align 8
	.type	_ZTVN8opendnp322DisableUnsolicitedTaskE, @object
	.size	_ZTVN8opendnp322DisableUnsolicitedTaskE, 120
_ZTVN8opendnp322DisableUnsolicitedTaskE:
	.quad	0
	.quad	_ZTIN8opendnp322DisableUnsolicitedTaskE
	.quad	_ZN8opendnp322DisableUnsolicitedTaskD1Ev
	.quad	_ZN8opendnp322DisableUnsolicitedTaskD0Ev
	.quad	_ZNK8opendnp311IMasterTask10IsAuthTaskEv
	.quad	_ZNK8opendnp322DisableUnsolicitedTask4NameEv
	.quad	_ZNK8opendnp322DisableUnsolicitedTask8PriorityEv
	.quad	_ZNK8opendnp322DisableUnsolicitedTask19BlocksLowerPriorityEv
	.quad	_ZNK8opendnp322DisableUnsolicitedTask11IsRecurringEv
	.quad	_ZN8opendnp322DisableUnsolicitedTask12BuildRequestERNS_11APDURequestEh
	.quad	_ZN8opendnp311IMasterTask10InitializeEv
	.quad	_ZN8opendnp322DisableUnsolicitedTask15ProcessResponseERKNS_18APDUResponseHeaderERKN7openpal6RSliceE
	.quad	_ZN8opendnp322DisableUnsolicitedTask14OnTaskCompleteENS_14TaskCompletionEN7openpal18MonotonicTimestampE
	.quad	_ZNK8opendnp322DisableUnsolicitedTask9IsEnabledEv
	.quad	_ZNK8opendnp322DisableUnsolicitedTask11GetTaskTypeEv
	.hidden	DW.ref.__gxx_personality_v0
	.weak	DW.ref.__gxx_personality_v0
	.section	.data.rel.local.DW.ref.__gxx_personality_v0,"awG",@progbits,DW.ref.__gxx_personality_v0,comdat
	.align 8
	.type	DW.ref.__gxx_personality_v0, @object
	.size	DW.ref.__gxx_personality_v0, 8
DW.ref.__gxx_personality_v0:
	.quad	__gxx_personality_v0
	.globl	__gxx_personality_v0
	.ident	"GCC: (Debian 15.2.0-4) 15.2.0"
	.section	.note.GNU-stack,"",@progbits
