	.file	"EmptyResponseTask.cpp"
	.text
	.section	.text._ZNK8opendnp311IMasterTask10IsAuthTaskEv,"axG",@progbits,_ZNK8opendnp311IMasterTask10IsAuthTaskEv,comdat
	.align 2
	.p2align 4
	.weak	_ZNK8opendnp311IMasterTask10IsAuthTaskEv
	.type	_ZNK8opendnp311IMasterTask10IsAuthTaskEv, @function
_ZNK8opendnp311IMasterTask10IsAuthTaskEv:
.LFB2381:
	.cfi_startproc
	xorl	%eax, %eax
	ret
	.cfi_endproc
.LFE2381:
	.size	_ZNK8opendnp311IMasterTask10IsAuthTaskEv, .-_ZNK8opendnp311IMasterTask10IsAuthTaskEv
	.section	.text._ZN8opendnp311IMasterTask10InitializeEv,"axG",@progbits,_ZN8opendnp311IMasterTask10InitializeEv,comdat
	.align 2
	.p2align 4
	.weak	_ZN8opendnp311IMasterTask10InitializeEv
	.type	_ZN8opendnp311IMasterTask10InitializeEv, @function
_ZN8opendnp311IMasterTask10InitializeEv:
.LFB2382:
	.cfi_startproc
	ret
	.cfi_endproc
.LFE2382:
	.size	_ZN8opendnp311IMasterTask10InitializeEv, .-_ZN8opendnp311IMasterTask10InitializeEv
	.section	.text._ZNK8opendnp321SimpleRequestTaskBase11IsRecurringEv,"axG",@progbits,_ZNK8opendnp321SimpleRequestTaskBase11IsRecurringEv,comdat
	.align 2
	.p2align 4
	.weak	_ZNK8opendnp321SimpleRequestTaskBase11IsRecurringEv
	.type	_ZNK8opendnp321SimpleRequestTaskBase11IsRecurringEv, @function
_ZNK8opendnp321SimpleRequestTaskBase11IsRecurringEv:
.LFB2383:
	.cfi_startproc
	xorl	%eax, %eax
	ret
	.cfi_endproc
.LFE2383:
	.size	_ZNK8opendnp321SimpleRequestTaskBase11IsRecurringEv, .-_ZNK8opendnp321SimpleRequestTaskBase11IsRecurringEv
	.section	.text._ZNK8opendnp321SimpleRequestTaskBase8PriorityEv,"axG",@progbits,_ZNK8opendnp321SimpleRequestTaskBase8PriorityEv,comdat
	.align 2
	.p2align 4
	.weak	_ZNK8opendnp321SimpleRequestTaskBase8PriorityEv
	.type	_ZNK8opendnp321SimpleRequestTaskBase8PriorityEv, @function
_ZNK8opendnp321SimpleRequestTaskBase8PriorityEv:
.LFB2384:
	.cfi_startproc
	movl	92(%rdi), %eax
	ret
	.cfi_endproc
.LFE2384:
	.size	_ZNK8opendnp321SimpleRequestTaskBase8PriorityEv, .-_ZNK8opendnp321SimpleRequestTaskBase8PriorityEv
	.section	.text._ZNK8opendnp321SimpleRequestTaskBase19BlocksLowerPriorityEv,"axG",@progbits,_ZNK8opendnp321SimpleRequestTaskBase19BlocksLowerPriorityEv,comdat
	.align 2
	.p2align 4
	.weak	_ZNK8opendnp321SimpleRequestTaskBase19BlocksLowerPriorityEv
	.type	_ZNK8opendnp321SimpleRequestTaskBase19BlocksLowerPriorityEv, @function
_ZNK8opendnp321SimpleRequestTaskBase19BlocksLowerPriorityEv:
.LFB2385:
	.cfi_startproc
	xorl	%eax, %eax
	ret
	.cfi_endproc
.LFE2385:
	.size	_ZNK8opendnp321SimpleRequestTaskBase19BlocksLowerPriorityEv, .-_ZNK8opendnp321SimpleRequestTaskBase19BlocksLowerPriorityEv
	.section	.text._ZNK8opendnp321SimpleRequestTaskBase9IsEnabledEv,"axG",@progbits,_ZNK8opendnp321SimpleRequestTaskBase9IsEnabledEv,comdat
	.align 2
	.p2align 4
	.weak	_ZNK8opendnp321SimpleRequestTaskBase9IsEnabledEv
	.type	_ZNK8opendnp321SimpleRequestTaskBase9IsEnabledEv, @function
_ZNK8opendnp321SimpleRequestTaskBase9IsEnabledEv:
.LFB2386:
	.cfi_startproc
	movl	$1, %eax
	ret
	.cfi_endproc
.LFE2386:
	.size	_ZNK8opendnp321SimpleRequestTaskBase9IsEnabledEv, .-_ZNK8opendnp321SimpleRequestTaskBase9IsEnabledEv
	.section	.text._ZNK8opendnp321SimpleRequestTaskBase11GetTaskTypeEv,"axG",@progbits,_ZNK8opendnp321SimpleRequestTaskBase11GetTaskTypeEv,comdat
	.align 2
	.p2align 4
	.weak	_ZNK8opendnp321SimpleRequestTaskBase11GetTaskTypeEv
	.type	_ZNK8opendnp321SimpleRequestTaskBase11GetTaskTypeEv, @function
_ZNK8opendnp321SimpleRequestTaskBase11GetTaskTypeEv:
.LFB2387:
	.cfi_startproc
	movl	$7, %eax
	ret
	.cfi_endproc
.LFE2387:
	.size	_ZNK8opendnp321SimpleRequestTaskBase11GetTaskTypeEv, .-_ZNK8opendnp321SimpleRequestTaskBase11GetTaskTypeEv
	.section	.text._ZNK8opendnp317EmptyResponseTask4NameEv,"axG",@progbits,_ZNK8opendnp317EmptyResponseTask4NameEv,comdat
	.align 2
	.p2align 4
	.weak	_ZNK8opendnp317EmptyResponseTask4NameEv
	.type	_ZNK8opendnp317EmptyResponseTask4NameEv, @function
_ZNK8opendnp317EmptyResponseTask4NameEv:
.LFB2388:
	.cfi_startproc
	movq	128(%rdi), %rax
	ret
	.cfi_endproc
.LFE2388:
	.size	_ZNK8opendnp317EmptyResponseTask4NameEv, .-_ZNK8opendnp317EmptyResponseTask4NameEv
	.text
	.align 2
	.p2align 4
	.globl	_ZN8opendnp317EmptyResponseTask15ProcessResponseERKNS_18APDUResponseHeaderERKN7openpal6RSliceE
	.type	_ZN8opendnp317EmptyResponseTask15ProcessResponseERKNS_18APDUResponseHeaderERKN7openpal6RSliceE, @function
_ZN8opendnp317EmptyResponseTask15ProcessResponseERKNS_18APDUResponseHeaderERKN7openpal6RSliceE:
.LFB2400:
	.cfi_startproc
	subq	$8, %rsp
	.cfi_def_cfa_offset 16
	call	_ZN8opendnp311IMasterTask20ValidateNullResponseERKNS_18APDUResponseHeaderERKN7openpal6RSliceE@PLT
	addq	$8, %rsp
	.cfi_def_cfa_offset 8
	addl	%eax, %eax
	ret
	.cfi_endproc
.LFE2400:
	.size	_ZN8opendnp317EmptyResponseTask15ProcessResponseERKNS_18APDUResponseHeaderERKN7openpal6RSliceE, .-_ZN8opendnp317EmptyResponseTask15ProcessResponseERKNS_18APDUResponseHeaderERKN7openpal6RSliceE
	.section	.text._ZN8opendnp317EmptyResponseTask14OnTaskCompleteENS_14TaskCompletionEN7openpal18MonotonicTimestampE,"axG",@progbits,_ZN8opendnp317EmptyResponseTask14OnTaskCompleteENS_14TaskCompletionEN7openpal18MonotonicTimestampE,comdat
	.align 2
	.p2align 4
	.weak	_ZN8opendnp317EmptyResponseTask14OnTaskCompleteENS_14TaskCompletionEN7openpal18MonotonicTimestampE
	.type	_ZN8opendnp317EmptyResponseTask14OnTaskCompleteENS_14TaskCompletionEN7openpal18MonotonicTimestampE, @function
_ZN8opendnp317EmptyResponseTask14OnTaskCompleteENS_14TaskCompletionEN7openpal18MonotonicTimestampE:
.LFB2389:
	.cfi_startproc
	subq	$8, %rsp
	.cfi_def_cfa_offset 16
	call	_ZN7openpal18MonotonicTimestamp3MaxEv@PLT
	addq	$8, %rsp
	.cfi_def_cfa_offset 8
	movq	%rax, %rdx
	xorl	%eax, %eax
	ret
	.cfi_endproc
.LFE2389:
	.size	_ZN8opendnp317EmptyResponseTask14OnTaskCompleteENS_14TaskCompletionEN7openpal18MonotonicTimestampE, .-_ZN8opendnp317EmptyResponseTask14OnTaskCompleteENS_14TaskCompletionEN7openpal18MonotonicTimestampE
	.section	.text._ZN8opendnp317EmptyResponseTaskD2Ev,"axG",@progbits,_ZN8opendnp317EmptyResponseTaskD5Ev,comdat
	.align 2
	.p2align 4
	.weak	_ZN8opendnp317EmptyResponseTaskD2Ev
	.type	_ZN8opendnp317EmptyResponseTaskD2Ev, @function
_ZN8opendnp317EmptyResponseTaskD2Ev:
.LFB3075:
	.cfi_startproc
	.cfi_personality 0x9b,DW.ref.__gxx_personality_v0
	.cfi_lsda 0x1b,.LLSDA3075
	pushq	%rbx
	.cfi_def_cfa_offset 16
	.cfi_offset 3, -16
	movq	%rdi, %rbx
	movq	128(%rdi), %rdi
	leaq	144(%rbx), %rax
	cmpq	%rax, %rdi
	je	.L15
	movq	144(%rbx), %rax
	leaq	1(%rax), %rsi
	call	_ZdlPvm@PLT
.L15:
	movq	_ZTVN8opendnp321SimpleRequestTaskBaseE@GOTPCREL(%rip), %rax
	addq	$16, %rax
	movq	%rax, (%rbx)
	movq	112(%rbx), %rax
	testq	%rax, %rax
	je	.L16
	leaq	96(%rbx), %rdi
	movl	$3, %edx
	movq	%rdi, %rsi
	call	*%rax
.L16:
	movq	%rbx, %rdi
	popq	%rbx
	.cfi_def_cfa_offset 8
.LEHB0:
	jmp	_ZN8opendnp311IMasterTaskD2Ev@PLT
.LEHE0:
	.cfi_endproc
.LFE3075:
	.section	.gcc_except_table._ZN8opendnp317EmptyResponseTaskD2Ev,"aG",@progbits,_ZN8opendnp317EmptyResponseTaskD5Ev,comdat
.LLSDA3075:
	.byte	0xff
	.byte	0xff
	.byte	0x1
	.uleb128 .LLSDACSE3075-.LLSDACSB3075
.LLSDACSB3075:
	.uleb128 .LEHB0-.LFB3075
	.uleb128 .LEHE0-.LEHB0
	.uleb128 0
	.uleb128 0
.LLSDACSE3075:
	.section	.text._ZN8opendnp317EmptyResponseTaskD2Ev,"axG",@progbits,_ZN8opendnp317EmptyResponseTaskD5Ev,comdat
	.size	_ZN8opendnp317EmptyResponseTaskD2Ev, .-_ZN8opendnp317EmptyResponseTaskD2Ev
	.weak	_ZN8opendnp317EmptyResponseTaskD1Ev
	.set	_ZN8opendnp317EmptyResponseTaskD1Ev,_ZN8opendnp317EmptyResponseTaskD2Ev
	.section	.text._ZN8opendnp317EmptyResponseTaskD0Ev,"axG",@progbits,_ZN8opendnp317EmptyResponseTaskD5Ev,comdat
	.align 2
	.p2align 4
	.weak	_ZN8opendnp317EmptyResponseTaskD0Ev
	.type	_ZN8opendnp317EmptyResponseTaskD0Ev, @function
_ZN8opendnp317EmptyResponseTaskD0Ev:
.LFB3077:
	.cfi_startproc
	.cfi_personality 0x9b,DW.ref.__gxx_personality_v0
	.cfi_lsda 0x1b,.LLSDA3077
	pushq	%rbx
	.cfi_def_cfa_offset 16
	.cfi_offset 3, -16
	movq	%rdi, %rbx
	movq	128(%rdi), %rdi
	leaq	144(%rbx), %rax
	cmpq	%rax, %rdi
	je	.L22
	movq	144(%rbx), %rax
	leaq	1(%rax), %rsi
	call	_ZdlPvm@PLT
.L22:
	movq	_ZTVN8opendnp321SimpleRequestTaskBaseE@GOTPCREL(%rip), %rax
	addq	$16, %rax
	movq	%rax, (%rbx)
	movq	112(%rbx), %rax
	testq	%rax, %rax
	je	.L23
	leaq	96(%rbx), %rdi
	movl	$3, %edx
	movq	%rdi, %rsi
	call	*%rax
.L23:
	movq	%rbx, %rdi
	call	_ZN8opendnp311IMasterTaskD2Ev@PLT
	movq	%rbx, %rdi
	movl	$160, %esi
	popq	%rbx
	.cfi_def_cfa_offset 8
.LEHB1:
	jmp	_ZdlPvm@PLT
.LEHE1:
	.cfi_endproc
.LFE3077:
	.section	.gcc_except_table._ZN8opendnp317EmptyResponseTaskD0Ev,"aG",@progbits,_ZN8opendnp317EmptyResponseTaskD5Ev,comdat
.LLSDA3077:
	.byte	0xff
	.byte	0xff
	.byte	0x1
	.uleb128 .LLSDACSE3077-.LLSDACSB3077
.LLSDACSB3077:
	.uleb128 .LEHB1-.LFB3077
	.uleb128 .LEHE1-.LEHB1
	.uleb128 0
	.uleb128 0
.LLSDACSE3077:
	.section	.text._ZN8opendnp317EmptyResponseTaskD0Ev,"axG",@progbits,_ZN8opendnp317EmptyResponseTaskD5Ev,comdat
	.size	_ZN8opendnp317EmptyResponseTaskD0Ev, .-_ZN8opendnp317EmptyResponseTaskD0Ev
	.section	.text._ZNSt16_Sp_counted_baseILN9__gnu_cxx12_Lock_policyE2EE24_M_release_last_use_coldEv,"axG",@progbits,_ZNSt16_Sp_counted_baseILN9__gnu_cxx12_Lock_policyE2EE24_M_release_last_use_coldEv,comdat
	.align 2
	.p2align 4
	.weak	_ZNSt16_Sp_counted_baseILN9__gnu_cxx12_Lock_policyE2EE24_M_release_last_use_coldEv
	.type	_ZNSt16_Sp_counted_baseILN9__gnu_cxx12_Lock_policyE2EE24_M_release_last_use_coldEv, @function
_ZNSt16_Sp_counted_baseILN9__gnu_cxx12_Lock_policyE2EE24_M_release_last_use_coldEv:
.LFB2407:
	.cfi_startproc
	pushq	%rbx
	.cfi_def_cfa_offset 16
	.cfi_offset 3, -16
	movq	(%rdi), %rax
	movq	%rdi, %rbx
	call	*16(%rax)
	movq	__libc_single_threaded@GOTPCREL(%rip), %rax
	cmpb	$0, (%rax)
	je	.L29
	movl	12(%rbx), %eax
	leal	-1(%rax), %edx
	movl	%edx, 12(%rbx)
.L30:
	cmpl	$1, %eax
	je	.L33
	popq	%rbx
	.cfi_remember_state
	.cfi_def_cfa_offset 8
	ret
	.p2align 4,,10
	.p2align 3
.L33:
	.cfi_restore_state
	movq	(%rbx), %rax
	movq	%rbx, %rdi
	popq	%rbx
	.cfi_remember_state
	.cfi_def_cfa_offset 8
	movq	24(%rax), %rax
	jmp	*%rax
	.p2align 4,,10
	.p2align 3
.L29:
	.cfi_restore_state
	movl	$-1, %eax
	lock xaddl	%eax, 12(%rbx)
	jmp	.L30
	.cfi_endproc
.LFE2407:
	.size	_ZNSt16_Sp_counted_baseILN9__gnu_cxx12_Lock_policyE2EE24_M_release_last_use_coldEv, .-_ZNSt16_Sp_counted_baseILN9__gnu_cxx12_Lock_policyE2EE24_M_release_last_use_coldEv
	.section	.text._ZN7openpal6LoggerD2Ev,"axG",@progbits,_ZN7openpal6LoggerD5Ev,comdat
	.align 2
	.p2align 4
	.weak	_ZN7openpal6LoggerD2Ev
	.type	_ZN7openpal6LoggerD2Ev, @function
_ZN7openpal6LoggerD2Ev:
.LFB1998:
	.cfi_startproc
	subq	$24, %rsp
	.cfi_def_cfa_offset 32
	movq	%rdi, %rax
	movq	24(%rdi), %rdi
	testq	%rdi, %rdi
	je	.L36
	movq	8(%rdi), %rcx
	leaq	8(%rdi), %rsi
	movabsq	$4294967297, %rdx
	cmpq	%rdx, %rcx
	je	.L48
	movq	__libc_single_threaded@GOTPCREL(%rip), %rdx
	cmpb	$0, (%rdx)
	je	.L38
	movl	8(%rdi), %edx
	leal	-1(%rdx), %ecx
	movl	%ecx, 8(%rdi)
.L39:
	cmpl	$1, %edx
	je	.L49
.L36:
	movq	8(%rax), %rdi
	testq	%rdi, %rdi
	je	.L34
	movq	8(%rdi), %rdx
	leaq	8(%rdi), %rcx
	movabsq	$4294967297, %rax
	cmpq	%rax, %rdx
	je	.L50
	movq	__libc_single_threaded@GOTPCREL(%rip), %rax
	cmpb	$0, (%rax)
	je	.L44
	movl	8(%rdi), %eax
	leal	-1(%rax), %edx
	movl	%edx, 8(%rdi)
.L45:
	cmpl	$1, %eax
	je	.L51
.L34:
	addq	$24, %rsp
	.cfi_remember_state
	.cfi_def_cfa_offset 8
	ret
	.p2align 4,,10
	.p2align 3
.L50:
	.cfi_restore_state
	movq	(%rdi), %rax
	movq	%rdi, (%rsp)
	movq	$0, 8(%rdi)
	call	*16(%rax)
	movq	(%rsp), %rdi
	movq	(%rdi), %rax
	movq	24(%rax), %rax
	addq	$24, %rsp
	.cfi_remember_state
	.cfi_def_cfa_offset 8
	jmp	*%rax
	.p2align 4,,10
	.p2align 3
.L48:
	.cfi_restore_state
	movq	(%rdi), %rdx
	movq	%rax, 8(%rsp)
	movq	$0, 8(%rdi)
	movq	%rdi, (%rsp)
	call	*16(%rdx)
	movq	(%rsp), %rdi
	movq	(%rdi), %rdx
	call	*24(%rdx)
	movq	8(%rsp), %rax
	jmp	.L36
	.p2align 4,,10
	.p2align 3
.L44:
	movl	$-1, %eax
	lock xaddl	%eax, (%rcx)
	jmp	.L45
	.p2align 4,,10
	.p2align 3
.L38:
	movl	$-1, %edx
	lock xaddl	%edx, (%rsi)
	jmp	.L39
	.p2align 4,,10
	.p2align 3
.L49:
	movq	%rax, (%rsp)
	call	_ZNSt16_Sp_counted_baseILN9__gnu_cxx12_Lock_policyE2EE24_M_release_last_use_coldEv@PLT
	movq	(%rsp), %rax
	jmp	.L36
	.p2align 4,,10
	.p2align 3
.L51:
	addq	$24, %rsp
	.cfi_def_cfa_offset 8
	jmp	_ZNSt16_Sp_counted_baseILN9__gnu_cxx12_Lock_policyE2EE24_M_release_last_use_coldEv@PLT
	.cfi_endproc
.LFE1998:
	.size	_ZN7openpal6LoggerD2Ev, .-_ZN7openpal6LoggerD2Ev
	.weak	_ZN7openpal6LoggerD1Ev
	.set	_ZN7openpal6LoggerD1Ev,_ZN7openpal6LoggerD2Ev
	.section	.text.unlikely,"ax",@progbits
	.align 2
.LCOLDB0:
	.text
.LHOTB0:
	.align 2
	.p2align 4
	.globl	_ZN8opendnp317EmptyResponseTaskC2ERNS_18IMasterApplicationERKNSt7__cxx1112basic_stringIcSt11char_traitsIcESaIcEEENS_12FunctionCodeERKSt8functionIFbRNS_12HeaderWriterEEEN7openpal6LoggerERKNS_10TaskConfigE
	.type	_ZN8opendnp317EmptyResponseTaskC2ERNS_18IMasterApplicationERKNSt7__cxx1112basic_stringIcSt11char_traitsIcESaIcEEENS_12FunctionCodeERKSt8functionIFbRNS_12HeaderWriterEEEN7openpal6LoggerERKNS_10TaskConfigE, @function
_ZN8opendnp317EmptyResponseTaskC2ERNS_18IMasterApplicationERKNSt7__cxx1112basic_stringIcSt11char_traitsIcESaIcEEENS_12FunctionCodeERKSt8functionIFbRNS_12HeaderWriterEEEN7openpal6LoggerERKNS_10TaskConfigE:
.LFB2398:
	.cfi_startproc
	.cfi_personality 0x9b,DW.ref.__gxx_personality_v0
	.cfi_lsda 0x1b,.LLSDA2398
	pushq	%rbp
	.cfi_def_cfa_offset 16
	.cfi_offset 6, -16
	movq	%rsp, %rbp
	.cfi_def_cfa_register 6
	pushq	%r14
	pushq	%r12
	.cfi_offset 14, -24
	.cfi_offset 12, -32
	movq	%rdx, %r12
	movl	%ecx, %edx
	pushq	%rbx
	.cfi_offset 3, -40
	movq	%rdi, %rbx
	subq	$56, %rsp
	movdqu	(%r9), %xmm0
	movhlps	%xmm0, %xmm1
	movaps	%xmm0, -64(%rbp)
	movq	%xmm1, %rax
	testq	%rax, %rax
	je	.L53
	movq	__libc_single_threaded@GOTPCREL(%rip), %rcx
	cmpb	$0, (%rcx)
	je	.L54
	addl	$1, 8(%rax)
.L53:
	movdqu	16(%r9), %xmm0
	movhlps	%xmm0, %xmm2
	movaps	%xmm0, -48(%rbp)
	movq	%xmm2, %rax
	testq	%rax, %rax
	je	.L55
	movq	__libc_single_threaded@GOTPCREL(%rip), %rcx
	cmpb	$0, (%rcx)
	je	.L56
	addl	$1, 8(%rax)
.L55:
	subq	$8, %rsp
	pushq	16(%rbp)
	leaq	-64(%rbp), %r9
	movl	$110, %ecx
	movq	%rbx, %rdi
	leaq	-64(%rbp), %r14
.LEHB2:
	.cfi_escape 0x2e,0x10
	call	_ZN8opendnp321SimpleRequestTaskBaseC2ERNS_18IMasterApplicationENS_12FunctionCodeEiRKSt8functionIFbRNS_12HeaderWriterEEEN7openpal6LoggerERKNS_10TaskConfigE@PLT
.LEHE2:
	movq	-40(%rbp), %rdi
	popq	%rax
	popq	%rdx
	testq	%rdi, %rdi
	je	.L58
	movq	8(%rdi), %rdx
	leaq	8(%rdi), %rcx
	movabsq	$4294967297, %rax
	cmpq	%rax, %rdx
	je	.L95
	movq	__libc_single_threaded@GOTPCREL(%rip), %rax
	cmpb	$0, (%rax)
	je	.L60
	movl	8(%rdi), %eax
	leal	-1(%rax), %edx
	movl	%edx, 8(%rdi)
.L61:
	cmpl	$1, %eax
	je	.L96
.L58:
	movq	-56(%rbp), %rdi
	testq	%rdi, %rdi
	je	.L65
	movq	8(%rdi), %rdx
	leaq	8(%rdi), %rcx
	movabsq	$4294967297, %rax
	cmpq	%rax, %rdx
	je	.L97
	movq	__libc_single_threaded@GOTPCREL(%rip), %rax
	cmpb	$0, (%rax)
	je	.L66
	movl	8(%rdi), %eax
	leal	-1(%rax), %edx
	movl	%edx, 8(%rdi)
.L67:
	cmpl	$1, %eax
	je	.L98
.L65:
	movq	_ZTVN8opendnp317EmptyResponseTaskE@GOTPCREL(%rip), %rax
	movq	8(%r12), %rdx
	leaq	144(%rbx), %rdi
	movq	%rdi, 128(%rbx)
	movq	(%r12), %r12
	addq	$16, %rax
	movq	%rdx, -64(%rbp)
	movq	%rax, (%rbx)
	leaq	128(%rbx), %rax
	cmpq	$15, %rdx
	ja	.L68
	leaq	1(%rdx), %rcx
	testq	%rdx, %rdx
	je	.L69
.L70:
	movq	%rcx, %rdx
	movq	%r12, %rsi
	call	memcpy@PLT
	movq	-64(%rbp), %rax
.L72:
	movq	%rax, 136(%rbx)
	leaq	-24(%rbp), %rsp
	popq	%rbx
	popq	%r12
	popq	%r14
	popq	%rbp
	.cfi_remember_state
	.cfi_def_cfa 7, 8
	ret
	.p2align 4,,10
	.p2align 3
.L56:
	.cfi_restore_state
	lock addl	$1, 8(%rax)
	jmp	.L55
	.p2align 4,,10
	.p2align 3
.L54:
	lock addl	$1, 8(%rax)
	jmp	.L53
	.p2align 4,,10
	.p2align 3
.L69:
	movzbl	(%r12), %eax
	movb	%al, (%rdi)
	movq	-64(%rbp), %rax
	jmp	.L72
	.p2align 4,,10
	.p2align 3
.L68:
	xorl	%edx, %edx
	movq	%r14, %rsi
	movq	%rax, %rdi
.LEHB3:
	.cfi_escape 0x2e,0
	call	_ZNSt7__cxx1112basic_stringIcSt11char_traitsIcESaIcEE9_M_createERmm@PLT
.LEHE3:
	movq	%rax, 128(%rbx)
	movq	%rax, %rdi
	movq	-64(%rbp), %rax
	movq	%rax, 144(%rbx)
	leaq	1(%rax), %rcx
	testq	%rax, %rax
	je	.L69
	movq	$-1, %rax
	testq	%rcx, %rcx
	je	.L72
	jmp	.L70
	.p2align 4,,10
	.p2align 3
.L97:
	movq	(%rdi), %rax
	movq	%rdi, -72(%rbp)
	movq	$0, 8(%rdi)
	call	*16(%rax)
	movq	-72(%rbp), %rdi
	movq	(%rdi), %rax
	call	*24(%rax)
	jmp	.L65
	.p2align 4,,10
	.p2align 3
.L95:
	movq	(%rdi), %rax
	movq	%rdi, -72(%rbp)
	movq	$0, 8(%rdi)
	call	*16(%rax)
	movq	-72(%rbp), %rdi
	movq	(%rdi), %rax
	call	*24(%rax)
	jmp	.L58
	.p2align 4,,10
	.p2align 3
.L60:
	movl	$-1, %eax
	lock xaddl	%eax, (%rcx)
	jmp	.L61
	.p2align 4,,10
	.p2align 3
.L66:
	movl	$-1, %eax
	lock xaddl	%eax, (%rcx)
	jmp	.L67
	.p2align 4,,10
	.p2align 3
.L98:
	call	_ZNSt16_Sp_counted_baseILN9__gnu_cxx12_Lock_policyE2EE24_M_release_last_use_coldEv@PLT
	jmp	.L65
	.p2align 4,,10
	.p2align 3
.L96:
	call	_ZNSt16_Sp_counted_baseILN9__gnu_cxx12_Lock_policyE2EE24_M_release_last_use_coldEv@PLT
	jmp	.L58
.L78:
	movq	%rax, %rbx
	jmp	.L73
.L79:
	movq	%rax, %r14
	jmp	.L74
	.section	.gcc_except_table,"a",@progbits
.LLSDA2398:
	.byte	0xff
	.byte	0xff
	.byte	0x1
	.uleb128 .LLSDACSE2398-.LLSDACSB2398
.LLSDACSB2398:
	.uleb128 .LEHB2-.LFB2398
	.uleb128 .LEHE2-.LEHB2
	.uleb128 .L78-.LFB2398
	.uleb128 0
	.uleb128 .LEHB3-.LFB2398
	.uleb128 .LEHE3-.LEHB3
	.uleb128 .L79-.LFB2398
	.uleb128 0
.LLSDACSE2398:
	.text
	.cfi_endproc
	.section	.text.unlikely
	.cfi_startproc
	.cfi_personality 0x9b,DW.ref.__gxx_personality_v0
	.cfi_lsda 0x1b,.LLSDAC2398
	.type	_ZN8opendnp317EmptyResponseTaskC2ERNS_18IMasterApplicationERKNSt7__cxx1112basic_stringIcSt11char_traitsIcESaIcEEENS_12FunctionCodeERKSt8functionIFbRNS_12HeaderWriterEEEN7openpal6LoggerERKNS_10TaskConfigE.cold, @function
_ZN8opendnp317EmptyResponseTaskC2ERNS_18IMasterApplicationERKNSt7__cxx1112basic_stringIcSt11char_traitsIcESaIcEEENS_12FunctionCodeERKSt8functionIFbRNS_12HeaderWriterEEEN7openpal6LoggerERKNS_10TaskConfigE.cold:
.LFSB2398:
.L73:
	.cfi_def_cfa 6, 16
	.cfi_offset 3, -40
	.cfi_offset 6, -16
	.cfi_offset 12, -32
	.cfi_offset 14, -24
	movq	%r14, %rdi
	call	_ZN7openpal6LoggerD1Ev@PLT
	movq	%rbx, %rdi
.LEHB4:
	call	_Unwind_Resume@PLT
.LEHE4:
.L74:
	movq	_ZTVN8opendnp321SimpleRequestTaskBaseE@GOTPCREL(%rip), %rax
	addq	$16, %rax
	movq	%rax, (%rbx)
	movq	112(%rbx), %rax
	testq	%rax, %rax
	je	.L75
	leaq	96(%rbx), %rdi
	movl	$3, %edx
	movq	%rdi, %rsi
	call	*%rax
.L75:
	movq	%rbx, %rdi
	call	_ZN8opendnp311IMasterTaskD2Ev@PLT
	movq	%r14, %rdi
.LEHB5:
	call	_Unwind_Resume@PLT
.LEHE5:
	.cfi_endproc
.LFE2398:
	.section	.gcc_except_table
.LLSDAC2398:
	.byte	0xff
	.byte	0xff
	.byte	0x1
	.uleb128 .LLSDACSEC2398-.LLSDACSBC2398
.LLSDACSBC2398:
	.uleb128 .LEHB4-.LCOLDB0
	.uleb128 .LEHE4-.LEHB4
	.uleb128 0
	.uleb128 0
	.uleb128 .LEHB5-.LCOLDB0
	.uleb128 .LEHE5-.LEHB5
	.uleb128 0
	.uleb128 0
.LLSDACSEC2398:
	.section	.text.unlikely
	.text
	.size	_ZN8opendnp317EmptyResponseTaskC2ERNS_18IMasterApplicationERKNSt7__cxx1112basic_stringIcSt11char_traitsIcESaIcEEENS_12FunctionCodeERKSt8functionIFbRNS_12HeaderWriterEEEN7openpal6LoggerERKNS_10TaskConfigE, .-_ZN8opendnp317EmptyResponseTaskC2ERNS_18IMasterApplicationERKNSt7__cxx1112basic_stringIcSt11char_traitsIcESaIcEEENS_12FunctionCodeERKSt8functionIFbRNS_12HeaderWriterEEEN7openpal6LoggerERKNS_10TaskConfigE
	.section	.text.unlikely
	.size	_ZN8opendnp317EmptyResponseTaskC2ERNS_18IMasterApplicationERKNSt7__cxx1112basic_stringIcSt11char_traitsIcESaIcEEENS_12FunctionCodeERKSt8functionIFbRNS_12HeaderWriterEEEN7openpal6LoggerERKNS_10TaskConfigE.cold, .-_ZN8opendnp317EmptyResponseTaskC2ERNS_18IMasterApplicationERKNSt7__cxx1112basic_stringIcSt11char_traitsIcESaIcEEENS_12FunctionCodeERKSt8functionIFbRNS_12HeaderWriterEEEN7openpal6LoggerERKNS_10TaskConfigE.cold
.LCOLDE0:
	.text
.LHOTE0:
	.globl	_ZN8opendnp317EmptyResponseTaskC1ERNS_18IMasterApplicationERKNSt7__cxx1112basic_stringIcSt11char_traitsIcESaIcEEENS_12FunctionCodeERKSt8functionIFbRNS_12HeaderWriterEEEN7openpal6LoggerERKNS_10TaskConfigE
	.set	_ZN8opendnp317EmptyResponseTaskC1ERNS_18IMasterApplicationERKNSt7__cxx1112basic_stringIcSt11char_traitsIcESaIcEEENS_12FunctionCodeERKSt8functionIFbRNS_12HeaderWriterEEEN7openpal6LoggerERKNS_10TaskConfigE,_ZN8opendnp317EmptyResponseTaskC2ERNS_18IMasterApplicationERKNSt7__cxx1112basic_stringIcSt11char_traitsIcESaIcEEENS_12FunctionCodeERKSt8functionIFbRNS_12HeaderWriterEEEN7openpal6LoggerERKNS_10TaskConfigE
	.weak	_ZTSN8opendnp317EmptyResponseTaskE
	.section	.rodata._ZTSN8opendnp317EmptyResponseTaskE,"aG",@progbits,_ZTSN8opendnp317EmptyResponseTaskE,comdat
	.align 16
	.type	_ZTSN8opendnp317EmptyResponseTaskE, @object
	.size	_ZTSN8opendnp317EmptyResponseTaskE, 31
_ZTSN8opendnp317EmptyResponseTaskE:
	.string	"N8opendnp317EmptyResponseTaskE"
	.weak	_ZTIN8opendnp317EmptyResponseTaskE
	.section	.data.rel.ro._ZTIN8opendnp317EmptyResponseTaskE,"awG",@progbits,_ZTIN8opendnp317EmptyResponseTaskE,comdat
	.align 8
	.type	_ZTIN8opendnp317EmptyResponseTaskE, @object
	.size	_ZTIN8opendnp317EmptyResponseTaskE, 24
_ZTIN8opendnp317EmptyResponseTaskE:
	.quad	_ZTVN10__cxxabiv120__si_class_type_infoE+16
	.quad	_ZTSN8opendnp317EmptyResponseTaskE
	.quad	_ZTIN8opendnp321SimpleRequestTaskBaseE
	.weak	_ZTVN8opendnp317EmptyResponseTaskE
	.section	.data.rel.ro._ZTVN8opendnp317EmptyResponseTaskE,"awG",@progbits,_ZTVN8opendnp317EmptyResponseTaskE,comdat
	.align 8
	.type	_ZTVN8opendnp317EmptyResponseTaskE, @object
	.size	_ZTVN8opendnp317EmptyResponseTaskE, 120
_ZTVN8opendnp317EmptyResponseTaskE:
	.quad	0
	.quad	_ZTIN8opendnp317EmptyResponseTaskE
	.quad	_ZN8opendnp317EmptyResponseTaskD1Ev
	.quad	_ZN8opendnp317EmptyResponseTaskD0Ev
	.quad	_ZNK8opendnp311IMasterTask10IsAuthTaskEv
	.quad	_ZNK8opendnp317EmptyResponseTask4NameEv
	.quad	_ZNK8opendnp321SimpleRequestTaskBase8PriorityEv
	.quad	_ZNK8opendnp321SimpleRequestTaskBase19BlocksLowerPriorityEv
	.quad	_ZNK8opendnp321SimpleRequestTaskBase11IsRecurringEv
	.quad	_ZN8opendnp321SimpleRequestTaskBase12BuildRequestERNS_11APDURequestEh
	.quad	_ZN8opendnp311IMasterTask10InitializeEv
	.quad	_ZN8opendnp317EmptyResponseTask15ProcessResponseERKNS_18APDUResponseHeaderERKN7openpal6RSliceE
	.quad	_ZN8opendnp317EmptyResponseTask14OnTaskCompleteENS_14TaskCompletionEN7openpal18MonotonicTimestampE
	.quad	_ZNK8opendnp321SimpleRequestTaskBase9IsEnabledEv
	.quad	_ZNK8opendnp321SimpleRequestTaskBase11GetTaskTypeEv
	.hidden	DW.ref.__gxx_personality_v0
	.weak	DW.ref.__gxx_personality_v0
	.section	.data.rel.local.DW.ref.__gxx_personality_v0,"awG",@progbits,DW.ref.__gxx_personality_v0,comdat
	.align 8
	.type	DW.ref.__gxx_personality_v0, @object
	.size	DW.ref.__gxx_personality_v0, 8
DW.ref.__gxx_personality_v0:
	.quad	__gxx_personality_v0
	.globl	__gxx_personality_v0
	.ident	"GCC: (Debian 15.2.0-4) 15.2.0"
	.section	.note.GNU-stack,"",@progbits
