	.file	"MasterContext.cpp"
	.text
	.section	.text._ZN8opendnp318IMasterApplication12OnReceiveIINERKNS_8IINFieldE,"axG",@progbits,_ZN8opendnp318IMasterApplication12OnReceiveIINERKNS_8IINFieldE,comdat
	.align 2
	.p2align 4
	.weak	_ZN8opendnp318IMasterApplication12OnReceiveIINERKNS_8IINFieldE
	.type	_ZN8opendnp318IMasterApplication12OnReceiveIINERKNS_8IINFieldE, @function
_ZN8opendnp318IMasterApplication12OnReceiveIINERKNS_8IINFieldE:
.LFB2471:
	.cfi_startproc
	ret
	.cfi_endproc
.LFE2471:
	.size	_ZN8opendnp318IMasterApplication12OnReceiveIINERKNS_8IINFieldE, .-_ZN8opendnp318IMasterApplication12OnReceiveIINERKNS_8IINFieldE
	.section	.text._ZN8opendnp318IMasterApplication6OnOpenEv,"axG",@progbits,_ZN8opendnp318IMasterApplication6OnOpenEv,comdat
	.align 2
	.p2align 4
	.weak	_ZN8opendnp318IMasterApplication6OnOpenEv
	.type	_ZN8opendnp318IMasterApplication6OnOpenEv, @function
_ZN8opendnp318IMasterApplication6OnOpenEv:
.LFB2474:
	.cfi_startproc
	ret
	.cfi_endproc
.LFE2474:
	.size	_ZN8opendnp318IMasterApplication6OnOpenEv, .-_ZN8opendnp318IMasterApplication6OnOpenEv
	.section	.text._ZN8opendnp318IMasterApplication7OnCloseEv,"axG",@progbits,_ZN8opendnp318IMasterApplication7OnCloseEv,comdat
	.align 2
	.p2align 4
	.weak	_ZN8opendnp318IMasterApplication7OnCloseEv
	.type	_ZN8opendnp318IMasterApplication7OnCloseEv, @function
_ZN8opendnp318IMasterApplication7OnCloseEv:
.LFB2475:
	.cfi_startproc
	ret
	.cfi_endproc
.LFE2475:
	.size	_ZN8opendnp318IMasterApplication7OnCloseEv, .-_ZN8opendnp318IMasterApplication7OnCloseEv
	.section	.text._ZN8opendnp312NullTaskLock7AcquireERNS_17IScheduleCallbackE,"axG",@progbits,_ZN8opendnp312NullTaskLock7AcquireERNS_17IScheduleCallbackE,comdat
	.align 2
	.p2align 4
	.weak	_ZN8opendnp312NullTaskLock7AcquireERNS_17IScheduleCallbackE
	.type	_ZN8opendnp312NullTaskLock7AcquireERNS_17IScheduleCallbackE, @function
_ZN8opendnp312NullTaskLock7AcquireERNS_17IScheduleCallbackE:
.LFB3095:
	.cfi_startproc
	movl	$1, %eax
	ret
	.cfi_endproc
.LFE3095:
	.size	_ZN8opendnp312NullTaskLock7AcquireERNS_17IScheduleCallbackE, .-_ZN8opendnp312NullTaskLock7AcquireERNS_17IScheduleCallbackE
	.section	.text._ZN8opendnp312NullTaskLock7ReleaseERNS_17IScheduleCallbackE,"axG",@progbits,_ZN8opendnp312NullTaskLock7ReleaseERNS_17IScheduleCallbackE,comdat
	.align 2
	.p2align 4
	.weak	_ZN8opendnp312NullTaskLock7ReleaseERNS_17IScheduleCallbackE
	.type	_ZN8opendnp312NullTaskLock7ReleaseERNS_17IScheduleCallbackE, @function
_ZN8opendnp312NullTaskLock7ReleaseERNS_17IScheduleCallbackE:
.LFB3096:
	.cfi_startproc
	movl	$1, %eax
	ret
	.cfi_endproc
.LFE3096:
	.size	_ZN8opendnp312NullTaskLock7ReleaseERNS_17IScheduleCallbackE, .-_ZN8opendnp312NullTaskLock7ReleaseERNS_17IScheduleCallbackE
	.section	.text._ZN8opendnp38MContext17RecordLastRequestERKN7openpal6RSliceE,"axG",@progbits,_ZN8opendnp38MContext17RecordLastRequestERKN7openpal6RSliceE,comdat
	.align 2
	.p2align 4
	.weak	_ZN8opendnp38MContext17RecordLastRequestERKN7openpal6RSliceE
	.type	_ZN8opendnp38MContext17RecordLastRequestERKN7openpal6RSliceE, @function
_ZN8opendnp38MContext17RecordLastRequestERKN7openpal6RSliceE:
.LFB3109:
	.cfi_startproc
	ret
	.cfi_endproc
.LFE3109:
	.size	_ZN8opendnp38MContext17RecordLastRequestERKN7openpal6RSliceE, .-_ZN8opendnp38MContext17RecordLastRequestERKN7openpal6RSliceE
	.section	.text._ZN8opendnp38MContext21MeetsUserRequirementsERKSt10shared_ptrINS_11IMasterTaskEE,"axG",@progbits,_ZN8opendnp38MContext21MeetsUserRequirementsERKSt10shared_ptrINS_11IMasterTaskEE,comdat
	.align 2
	.p2align 4
	.weak	_ZN8opendnp38MContext21MeetsUserRequirementsERKSt10shared_ptrINS_11IMasterTaskEE
	.type	_ZN8opendnp38MContext21MeetsUserRequirementsERKSt10shared_ptrINS_11IMasterTaskEE, @function
_ZN8opendnp38MContext21MeetsUserRequirementsERKSt10shared_ptrINS_11IMasterTaskEE:
.LFB3110:
	.cfi_startproc
	movl	$1, %eax
	ret
	.cfi_endproc
.LFE3110:
	.size	_ZN8opendnp38MContext21MeetsUserRequirementsERKSt10shared_ptrINS_11IMasterTaskEE, .-_ZN8opendnp38MContext21MeetsUserRequirementsERKSt10shared_ptrINS_11IMasterTaskEE
	.section	.text._ZN8opendnp38MContext6CanRunERKNS_11IMasterTaskE,"axG",@progbits,_ZN8opendnp38MContext6CanRunERKNS_11IMasterTaskE,comdat
	.align 2
	.p2align 4
	.weak	_ZN8opendnp38MContext6CanRunERKNS_11IMasterTaskE
	.type	_ZN8opendnp38MContext6CanRunERKNS_11IMasterTaskE, @function
_ZN8opendnp38MContext6CanRunERKNS_11IMasterTaskE:
.LFB3111:
	.cfi_startproc
	movl	$1, %eax
	ret
	.cfi_endproc
.LFE3111:
	.size	_ZN8opendnp38MContext6CanRunERKNS_11IMasterTaskE, .-_ZN8opendnp38MContext6CanRunERKNS_11IMasterTaskE
	.section	.text._ZNSt23_Sp_counted_ptr_inplaceIN8opendnp320RestartOperationTaskESaIvELN9__gnu_cxx12_Lock_policyE2EED2Ev,"axG",@progbits,_ZNSt23_Sp_counted_ptr_inplaceIN8opendnp320RestartOperationTaskESaIvELN9__gnu_cxx12_Lock_policyE2EED5Ev,comdat
	.align 2
	.p2align 4
	.weak	_ZNSt23_Sp_counted_ptr_inplaceIN8opendnp320RestartOperationTaskESaIvELN9__gnu_cxx12_Lock_policyE2EED2Ev
	.type	_ZNSt23_Sp_counted_ptr_inplaceIN8opendnp320RestartOperationTaskESaIvELN9__gnu_cxx12_Lock_policyE2EED2Ev, @function
_ZNSt23_Sp_counted_ptr_inplaceIN8opendnp320RestartOperationTaskESaIvELN9__gnu_cxx12_Lock_policyE2EED2Ev:
.LFB5020:
	.cfi_startproc
	ret
	.cfi_endproc
.LFE5020:
	.size	_ZNSt23_Sp_counted_ptr_inplaceIN8opendnp320RestartOperationTaskESaIvELN9__gnu_cxx12_Lock_policyE2EED2Ev, .-_ZNSt23_Sp_counted_ptr_inplaceIN8opendnp320RestartOperationTaskESaIvELN9__gnu_cxx12_Lock_policyE2EED2Ev
	.weak	_ZNSt23_Sp_counted_ptr_inplaceIN8opendnp320RestartOperationTaskESaIvELN9__gnu_cxx12_Lock_policyE2EED1Ev
	.set	_ZNSt23_Sp_counted_ptr_inplaceIN8opendnp320RestartOperationTaskESaIvELN9__gnu_cxx12_Lock_policyE2EED1Ev,_ZNSt23_Sp_counted_ptr_inplaceIN8opendnp320RestartOperationTaskESaIvELN9__gnu_cxx12_Lock_policyE2EED2Ev
	.section	.text._ZNSt23_Sp_counted_ptr_inplaceIN8opendnp317EmptyResponseTaskESaIvELN9__gnu_cxx12_Lock_policyE2EED2Ev,"axG",@progbits,_ZNSt23_Sp_counted_ptr_inplaceIN8opendnp317EmptyResponseTaskESaIvELN9__gnu_cxx12_Lock_policyE2EED5Ev,comdat
	.align 2
	.p2align 4
	.weak	_ZNSt23_Sp_counted_ptr_inplaceIN8opendnp317EmptyResponseTaskESaIvELN9__gnu_cxx12_Lock_policyE2EED2Ev
	.type	_ZNSt23_Sp_counted_ptr_inplaceIN8opendnp317EmptyResponseTaskESaIvELN9__gnu_cxx12_Lock_policyE2EED2Ev, @function
_ZNSt23_Sp_counted_ptr_inplaceIN8opendnp317EmptyResponseTaskESaIvELN9__gnu_cxx12_Lock_policyE2EED2Ev:
.LFB5027:
	.cfi_startproc
	ret
	.cfi_endproc
.LFE5027:
	.size	_ZNSt23_Sp_counted_ptr_inplaceIN8opendnp317EmptyResponseTaskESaIvELN9__gnu_cxx12_Lock_policyE2EED2Ev, .-_ZNSt23_Sp_counted_ptr_inplaceIN8opendnp317EmptyResponseTaskESaIvELN9__gnu_cxx12_Lock_policyE2EED2Ev
	.weak	_ZNSt23_Sp_counted_ptr_inplaceIN8opendnp317EmptyResponseTaskESaIvELN9__gnu_cxx12_Lock_policyE2EED1Ev
	.set	_ZNSt23_Sp_counted_ptr_inplaceIN8opendnp317EmptyResponseTaskESaIvELN9__gnu_cxx12_Lock_policyE2EED1Ev,_ZNSt23_Sp_counted_ptr_inplaceIN8opendnp317EmptyResponseTaskESaIvELN9__gnu_cxx12_Lock_policyE2EED2Ev
	.section	.text._ZNSt23_Sp_counted_ptr_inplaceIN8opendnp317EmptyResponseTaskESaIvELN9__gnu_cxx12_Lock_policyE2EE10_M_disposeEv,"axG",@progbits,_ZNSt23_Sp_counted_ptr_inplaceIN8opendnp317EmptyResponseTaskESaIvELN9__gnu_cxx12_Lock_policyE2EE10_M_disposeEv,comdat
	.align 2
	.p2align 4
	.weak	_ZNSt23_Sp_counted_ptr_inplaceIN8opendnp317EmptyResponseTaskESaIvELN9__gnu_cxx12_Lock_policyE2EE10_M_disposeEv
	.type	_ZNSt23_Sp_counted_ptr_inplaceIN8opendnp317EmptyResponseTaskESaIvELN9__gnu_cxx12_Lock_policyE2EE10_M_disposeEv, @function
_ZNSt23_Sp_counted_ptr_inplaceIN8opendnp317EmptyResponseTaskESaIvELN9__gnu_cxx12_Lock_policyE2EE10_M_disposeEv:
.LFB5030:
	.cfi_startproc
	movq	16(%rdi), %rax
	addq	$16, %rdi
	movq	(%rax), %rax
	jmp	*%rax
	.cfi_endproc
.LFE5030:
	.size	_ZNSt23_Sp_counted_ptr_inplaceIN8opendnp317EmptyResponseTaskESaIvELN9__gnu_cxx12_Lock_policyE2EE10_M_disposeEv, .-_ZNSt23_Sp_counted_ptr_inplaceIN8opendnp317EmptyResponseTaskESaIvELN9__gnu_cxx12_Lock_policyE2EE10_M_disposeEv
	.section	.text._ZNSt23_Sp_counted_ptr_inplaceIN8opendnp312UserPollTaskESaIvELN9__gnu_cxx12_Lock_policyE2EED2Ev,"axG",@progbits,_ZNSt23_Sp_counted_ptr_inplaceIN8opendnp312UserPollTaskESaIvELN9__gnu_cxx12_Lock_policyE2EED5Ev,comdat
	.align 2
	.p2align 4
	.weak	_ZNSt23_Sp_counted_ptr_inplaceIN8opendnp312UserPollTaskESaIvELN9__gnu_cxx12_Lock_policyE2EED2Ev
	.type	_ZNSt23_Sp_counted_ptr_inplaceIN8opendnp312UserPollTaskESaIvELN9__gnu_cxx12_Lock_policyE2EED2Ev, @function
_ZNSt23_Sp_counted_ptr_inplaceIN8opendnp312UserPollTaskESaIvELN9__gnu_cxx12_Lock_policyE2EED2Ev:
.LFB5034:
	.cfi_startproc
	ret
	.cfi_endproc
.LFE5034:
	.size	_ZNSt23_Sp_counted_ptr_inplaceIN8opendnp312UserPollTaskESaIvELN9__gnu_cxx12_Lock_policyE2EED2Ev, .-_ZNSt23_Sp_counted_ptr_inplaceIN8opendnp312UserPollTaskESaIvELN9__gnu_cxx12_Lock_policyE2EED2Ev
	.weak	_ZNSt23_Sp_counted_ptr_inplaceIN8opendnp312UserPollTaskESaIvELN9__gnu_cxx12_Lock_policyE2EED1Ev
	.set	_ZNSt23_Sp_counted_ptr_inplaceIN8opendnp312UserPollTaskESaIvELN9__gnu_cxx12_Lock_policyE2EED1Ev,_ZNSt23_Sp_counted_ptr_inplaceIN8opendnp312UserPollTaskESaIvELN9__gnu_cxx12_Lock_policyE2EED2Ev
	.section	.text._ZNSt23_Sp_counted_ptr_inplaceIN8opendnp320RestartOperationTaskESaIvELN9__gnu_cxx12_Lock_policyE2EED0Ev,"axG",@progbits,_ZNSt23_Sp_counted_ptr_inplaceIN8opendnp320RestartOperationTaskESaIvELN9__gnu_cxx12_Lock_policyE2EED5Ev,comdat
	.align 2
	.p2align 4
	.weak	_ZNSt23_Sp_counted_ptr_inplaceIN8opendnp320RestartOperationTaskESaIvELN9__gnu_cxx12_Lock_policyE2EED0Ev
	.type	_ZNSt23_Sp_counted_ptr_inplaceIN8opendnp320RestartOperationTaskESaIvELN9__gnu_cxx12_Lock_policyE2EED0Ev, @function
_ZNSt23_Sp_counted_ptr_inplaceIN8opendnp320RestartOperationTaskESaIvELN9__gnu_cxx12_Lock_policyE2EED0Ev:
.LFB5022:
	.cfi_startproc
	movl	$208, %esi
	jmp	_ZdlPvm@PLT
	.cfi_endproc
.LFE5022:
	.size	_ZNSt23_Sp_counted_ptr_inplaceIN8opendnp320RestartOperationTaskESaIvELN9__gnu_cxx12_Lock_policyE2EED0Ev, .-_ZNSt23_Sp_counted_ptr_inplaceIN8opendnp320RestartOperationTaskESaIvELN9__gnu_cxx12_Lock_policyE2EED0Ev
	.section	.text._ZNSt23_Sp_counted_ptr_inplaceIN8opendnp317EmptyResponseTaskESaIvELN9__gnu_cxx12_Lock_policyE2EED0Ev,"axG",@progbits,_ZNSt23_Sp_counted_ptr_inplaceIN8opendnp317EmptyResponseTaskESaIvELN9__gnu_cxx12_Lock_policyE2EED5Ev,comdat
	.align 2
	.p2align 4
	.weak	_ZNSt23_Sp_counted_ptr_inplaceIN8opendnp317EmptyResponseTaskESaIvELN9__gnu_cxx12_Lock_policyE2EED0Ev
	.type	_ZNSt23_Sp_counted_ptr_inplaceIN8opendnp317EmptyResponseTaskESaIvELN9__gnu_cxx12_Lock_policyE2EED0Ev, @function
_ZNSt23_Sp_counted_ptr_inplaceIN8opendnp317EmptyResponseTaskESaIvELN9__gnu_cxx12_Lock_policyE2EED0Ev:
.LFB5029:
	.cfi_startproc
	movl	$176, %esi
	jmp	_ZdlPvm@PLT
	.cfi_endproc
.LFE5029:
	.size	_ZNSt23_Sp_counted_ptr_inplaceIN8opendnp317EmptyResponseTaskESaIvELN9__gnu_cxx12_Lock_policyE2EED0Ev, .-_ZNSt23_Sp_counted_ptr_inplaceIN8opendnp317EmptyResponseTaskESaIvELN9__gnu_cxx12_Lock_policyE2EED0Ev
	.section	.text._ZNSt23_Sp_counted_ptr_inplaceIN8opendnp312UserPollTaskESaIvELN9__gnu_cxx12_Lock_policyE2EED0Ev,"axG",@progbits,_ZNSt23_Sp_counted_ptr_inplaceIN8opendnp312UserPollTaskESaIvELN9__gnu_cxx12_Lock_policyE2EED5Ev,comdat
	.align 2
	.p2align 4
	.weak	_ZNSt23_Sp_counted_ptr_inplaceIN8opendnp312UserPollTaskESaIvELN9__gnu_cxx12_Lock_policyE2EED0Ev
	.type	_ZNSt23_Sp_counted_ptr_inplaceIN8opendnp312UserPollTaskESaIvELN9__gnu_cxx12_Lock_policyE2EED0Ev, @function
_ZNSt23_Sp_counted_ptr_inplaceIN8opendnp312UserPollTaskESaIvELN9__gnu_cxx12_Lock_policyE2EED0Ev:
.LFB5036:
	.cfi_startproc
	movl	$176, %esi
	jmp	_ZdlPvm@PLT
	.cfi_endproc
.LFE5036:
	.size	_ZNSt23_Sp_counted_ptr_inplaceIN8opendnp312UserPollTaskESaIvELN9__gnu_cxx12_Lock_policyE2EED0Ev, .-_ZNSt23_Sp_counted_ptr_inplaceIN8opendnp312UserPollTaskESaIvELN9__gnu_cxx12_Lock_policyE2EED0Ev
	.section	.text._ZNSt23_Sp_counted_ptr_inplaceIN8opendnp320RestartOperationTaskESaIvELN9__gnu_cxx12_Lock_policyE2EE10_M_destroyEv,"axG",@progbits,_ZNSt23_Sp_counted_ptr_inplaceIN8opendnp320RestartOperationTaskESaIvELN9__gnu_cxx12_Lock_policyE2EE10_M_destroyEv,comdat
	.align 2
	.p2align 4
	.weak	_ZNSt23_Sp_counted_ptr_inplaceIN8opendnp320RestartOperationTaskESaIvELN9__gnu_cxx12_Lock_policyE2EE10_M_destroyEv
	.type	_ZNSt23_Sp_counted_ptr_inplaceIN8opendnp320RestartOperationTaskESaIvELN9__gnu_cxx12_Lock_policyE2EE10_M_destroyEv, @function
_ZNSt23_Sp_counted_ptr_inplaceIN8opendnp320RestartOperationTaskESaIvELN9__gnu_cxx12_Lock_policyE2EE10_M_destroyEv:
.LFB5024:
	.cfi_startproc
	movl	$208, %esi
	jmp	_ZdlPvm@PLT
	.cfi_endproc
.LFE5024:
	.size	_ZNSt23_Sp_counted_ptr_inplaceIN8opendnp320RestartOperationTaskESaIvELN9__gnu_cxx12_Lock_policyE2EE10_M_destroyEv, .-_ZNSt23_Sp_counted_ptr_inplaceIN8opendnp320RestartOperationTaskESaIvELN9__gnu_cxx12_Lock_policyE2EE10_M_destroyEv
	.section	.text._ZNSt23_Sp_counted_ptr_inplaceIN8opendnp317EmptyResponseTaskESaIvELN9__gnu_cxx12_Lock_policyE2EE10_M_destroyEv,"axG",@progbits,_ZNSt23_Sp_counted_ptr_inplaceIN8opendnp317EmptyResponseTaskESaIvELN9__gnu_cxx12_Lock_policyE2EE10_M_destroyEv,comdat
	.align 2
	.p2align 4
	.weak	_ZNSt23_Sp_counted_ptr_inplaceIN8opendnp317EmptyResponseTaskESaIvELN9__gnu_cxx12_Lock_policyE2EE10_M_destroyEv
	.type	_ZNSt23_Sp_counted_ptr_inplaceIN8opendnp317EmptyResponseTaskESaIvELN9__gnu_cxx12_Lock_policyE2EE10_M_destroyEv, @function
_ZNSt23_Sp_counted_ptr_inplaceIN8opendnp317EmptyResponseTaskESaIvELN9__gnu_cxx12_Lock_policyE2EE10_M_destroyEv:
.LFB5031:
	.cfi_startproc
	movl	$176, %esi
	jmp	_ZdlPvm@PLT
	.cfi_endproc
.LFE5031:
	.size	_ZNSt23_Sp_counted_ptr_inplaceIN8opendnp317EmptyResponseTaskESaIvELN9__gnu_cxx12_Lock_policyE2EE10_M_destroyEv, .-_ZNSt23_Sp_counted_ptr_inplaceIN8opendnp317EmptyResponseTaskESaIvELN9__gnu_cxx12_Lock_policyE2EE10_M_destroyEv
	.section	.text._ZNSt23_Sp_counted_ptr_inplaceIN8opendnp312UserPollTaskESaIvELN9__gnu_cxx12_Lock_policyE2EE10_M_destroyEv,"axG",@progbits,_ZNSt23_Sp_counted_ptr_inplaceIN8opendnp312UserPollTaskESaIvELN9__gnu_cxx12_Lock_policyE2EE10_M_destroyEv,comdat
	.align 2
	.p2align 4
	.weak	_ZNSt23_Sp_counted_ptr_inplaceIN8opendnp312UserPollTaskESaIvELN9__gnu_cxx12_Lock_policyE2EE10_M_destroyEv
	.type	_ZNSt23_Sp_counted_ptr_inplaceIN8opendnp312UserPollTaskESaIvELN9__gnu_cxx12_Lock_policyE2EE10_M_destroyEv, @function
_ZNSt23_Sp_counted_ptr_inplaceIN8opendnp312UserPollTaskESaIvELN9__gnu_cxx12_Lock_policyE2EE10_M_destroyEv:
.LFB5038:
	.cfi_startproc
	movl	$176, %esi
	jmp	_ZdlPvm@PLT
	.cfi_endproc
.LFE5038:
	.size	_ZNSt23_Sp_counted_ptr_inplaceIN8opendnp312UserPollTaskESaIvELN9__gnu_cxx12_Lock_policyE2EE10_M_destroyEv, .-_ZNSt23_Sp_counted_ptr_inplaceIN8opendnp312UserPollTaskESaIvELN9__gnu_cxx12_Lock_policyE2EE10_M_destroyEv
	.text
	.p2align 4
	.type	_ZNSt17_Function_handlerIFbRN8opendnp312HeaderWriterEEZNS0_8MContext12AddClassScanERKNS0_10ClassFieldEN7openpal12TimeDurationENS0_10TaskConfigEEUlS2_E_E9_M_invokeERKSt9_Any_dataS2_, @function
_ZNSt17_Function_handlerIFbRN8opendnp312HeaderWriterEEZNS0_8MContext12AddClassScanERKNS0_10ClassFieldEN7openpal12TimeDurationENS0_10TaskConfigEEUlS2_E_E9_M_invokeERKSt9_Any_dataS2_:
.LFB4258:
	.cfi_startproc
	movq	%rdi, %rax
	movq	%rsi, %rdi
	movq	%rax, %rsi
	jmp	_ZN8opendnp35build17WriteClassHeadersERNS_12HeaderWriterERKNS_10ClassFieldE@PLT
	.cfi_endproc
.LFE4258:
	.size	_ZNSt17_Function_handlerIFbRN8opendnp312HeaderWriterEEZNS0_8MContext12AddClassScanERKNS0_10ClassFieldEN7openpal12TimeDurationENS0_10TaskConfigEEUlS2_E_E9_M_invokeERKSt9_Any_dataS2_, .-_ZNSt17_Function_handlerIFbRN8opendnp312HeaderWriterEEZNS0_8MContext12AddClassScanERKNS0_10ClassFieldEN7openpal12TimeDurationENS0_10TaskConfigEEUlS2_E_E9_M_invokeERKSt9_Any_dataS2_
	.p2align 4
	.type	_ZNSt17_Function_handlerIFbRN8opendnp312HeaderWriterEEZNS0_8MContext17AddAllObjectsScanENS0_16GroupVariationIDEN7openpal12TimeDurationENS0_10TaskConfigEEUlS2_E_E9_M_invokeERKSt9_Any_dataS2_, @function
_ZNSt17_Function_handlerIFbRN8opendnp312HeaderWriterEEZNS0_8MContext17AddAllObjectsScanENS0_16GroupVariationIDEN7openpal12TimeDurationENS0_10TaskConfigEEUlS2_E_E9_M_invokeERKSt9_Any_dataS2_:
.LFB4263:
	.cfi_startproc
	movq	%rdi, %rax
	movq	%rsi, %rdi
	movl	$6, %edx
	movzwl	(%rax), %esi
	jmp	_ZN8opendnp312HeaderWriter11WriteHeaderENS_16GroupVariationIDENS_13QualifierCodeE@PLT
	.cfi_endproc
.LFE4263:
	.size	_ZNSt17_Function_handlerIFbRN8opendnp312HeaderWriterEEZNS0_8MContext17AddAllObjectsScanENS0_16GroupVariationIDEN7openpal12TimeDurationENS0_10TaskConfigEEUlS2_E_E9_M_invokeERKSt9_Any_dataS2_, .-_ZNSt17_Function_handlerIFbRN8opendnp312HeaderWriterEEZNS0_8MContext17AddAllObjectsScanENS0_16GroupVariationIDEN7openpal12TimeDurationENS0_10TaskConfigEEUlS2_E_E9_M_invokeERKSt9_Any_dataS2_
	.p2align 4
	.type	_ZNSt17_Function_handlerIFbRN8opendnp312HeaderWriterEEZNS0_8MContext14ScanAllObjectsENS0_16GroupVariationIDENS0_10TaskConfigEEUlS2_E_E9_M_invokeERKSt9_Any_dataS2_, @function
_ZNSt17_Function_handlerIFbRN8opendnp312HeaderWriterEEZNS0_8MContext14ScanAllObjectsENS0_16GroupVariationIDENS0_10TaskConfigEEUlS2_E_E9_M_invokeERKSt9_Any_dataS2_:
.LFB4283:
	.cfi_startproc
	movq	%rdi, %rax
	movq	%rsi, %rdi
	movl	$6, %edx
	movzwl	(%rax), %esi
	jmp	_ZN8opendnp312HeaderWriter11WriteHeaderENS_16GroupVariationIDENS_13QualifierCodeE@PLT
	.cfi_endproc
.LFE4283:
	.size	_ZNSt17_Function_handlerIFbRN8opendnp312HeaderWriterEEZNS0_8MContext14ScanAllObjectsENS0_16GroupVariationIDENS0_10TaskConfigEEUlS2_E_E9_M_invokeERKSt9_Any_dataS2_, .-_ZNSt17_Function_handlerIFbRN8opendnp312HeaderWriterEEZNS0_8MContext14ScanAllObjectsENS0_16GroupVariationIDENS0_10TaskConfigEEUlS2_E_E9_M_invokeERKSt9_Any_dataS2_
	.section	.text.unlikely,"ax",@progbits
	.align 2
.LCOLDB1:
	.text
.LHOTB1:
	.align 2
	.p2align 4
	.globl	_ZN8opendnp38MContext19SetTaskStartTimeoutERKN7openpal18MonotonicTimestampE
	.type	_ZN8opendnp38MContext19SetTaskStartTimeoutERKN7openpal18MonotonicTimestampE, @function
_ZN8opendnp38MContext19SetTaskStartTimeoutERKN7openpal18MonotonicTimestampE:
.LFB3496:
	.cfi_startproc
	.cfi_personality 0x9b,DW.ref.__gxx_personality_v0
	.cfi_lsda 0x1b,.LLSDA3496
	pushq	%r14
	.cfi_def_cfa_offset 16
	.cfi_offset 14, -16
	movq	%rdi, %rax
	leaq	224(%rdi), %rdi
	pushq	%rbx
	.cfi_def_cfa_offset 24
	.cfi_offset 3, -24
	subq	$40, %rsp
	.cfi_def_cfa_offset 64
	movq	.LC0(%rip), %xmm0
	movq	%rax, 8(%rsp)
	leaq	_ZNSt17_Function_handlerIFvvEZN7openpal8TimerRef7RestartIZN8opendnp38MContext19SetTaskStartTimeoutERKNS1_18MonotonicTimestampEEUlvE_EEvS8_RKT_EUlvE_E9_M_invokeERKSt9_Any_data(%rip), %rax
	movq	%rsp, %rdx
	movq	%rax, %xmm1
	movq	%rdi, (%rsp)
	punpcklqdq	%xmm1, %xmm0
	movaps	%xmm0, 16(%rsp)
.LEHB0:
	call	_ZN7openpal8TimerRef13RestartActionERKNS_18MonotonicTimestampERKSt8functionIFvvEE@PLT
.LEHE0:
	movq	16(%rsp), %rax
	testq	%rax, %rax
	je	.L23
	movl	$3, %edx
	movq	%rsp, %rsi
	movq	%rsp, %rdi
	call	*%rax
.L23:
	addq	$40, %rsp
	.cfi_remember_state
	.cfi_def_cfa_offset 24
	popq	%rbx
	.cfi_def_cfa_offset 16
	popq	%r14
	.cfi_def_cfa_offset 8
	ret
.L27:
	.cfi_restore_state
	movq	%rax, %r14
	jmp	.L25
	.section	.gcc_except_table,"a",@progbits
.LLSDA3496:
	.byte	0xff
	.byte	0xff
	.byte	0x1
	.uleb128 .LLSDACSE3496-.LLSDACSB3496
.LLSDACSB3496:
	.uleb128 .LEHB0-.LFB3496
	.uleb128 .LEHE0-.LEHB0
	.uleb128 .L27-.LFB3496
	.uleb128 0
.LLSDACSE3496:
	.text
	.cfi_endproc
	.section	.text.unlikely
	.cfi_startproc
	.cfi_personality 0x9b,DW.ref.__gxx_personality_v0
	.cfi_lsda 0x1b,.LLSDAC3496
	.type	_ZN8opendnp38MContext19SetTaskStartTimeoutERKN7openpal18MonotonicTimestampE.cold, @function
_ZN8opendnp38MContext19SetTaskStartTimeoutERKN7openpal18MonotonicTimestampE.cold:
.LFSB3496:
.L25:
	.cfi_def_cfa_offset 64
	.cfi_offset 3, -24
	.cfi_offset 14, -16
	movq	16(%rsp), %rax
	testq	%rax, %rax
	je	.L26
	movl	$3, %edx
	movq	%rsp, %rsi
	movq	%rsp, %rdi
	call	*%rax
.L26:
	movq	%r14, %rdi
.LEHB1:
	call	_Unwind_Resume@PLT
.LEHE1:
	.cfi_endproc
.LFE3496:
	.section	.gcc_except_table
.LLSDAC3496:
	.byte	0xff
	.byte	0xff
	.byte	0x1
	.uleb128 .LLSDACSEC3496-.LLSDACSBC3496
.LLSDACSBC3496:
	.uleb128 .LEHB1-.LCOLDB1
	.uleb128 .LEHE1-.LEHB1
	.uleb128 0
	.uleb128 0
.LLSDACSEC3496:
	.section	.text.unlikely
	.text
	.size	_ZN8opendnp38MContext19SetTaskStartTimeoutERKN7openpal18MonotonicTimestampE, .-_ZN8opendnp38MContext19SetTaskStartTimeoutERKN7openpal18MonotonicTimestampE
	.section	.text.unlikely
	.size	_ZN8opendnp38MContext19SetTaskStartTimeoutERKN7openpal18MonotonicTimestampE.cold, .-_ZN8opendnp38MContext19SetTaskStartTimeoutERKN7openpal18MonotonicTimestampE.cold
.LCOLDE1:
	.text
.LHOTE1:
	.p2align 4
	.type	_ZNSt17_Function_handlerIFvvEZN7openpal8TimerRef5StartIZN8opendnp38MContext18StartResponseTimerEvEUlvE_EEbRKNS1_12TimeDurationERKT_EUlvE_E10_M_managerERSt9_Any_dataRKSF_St18_Manager_operation, @function
_ZNSt17_Function_handlerIFvvEZN7openpal8TimerRef5StartIZN8opendnp38MContext18StartResponseTimerEvEUlvE_EEbRKNS1_12TimeDurationERKT_EUlvE_E10_M_managerERSt9_Any_dataRKSF_St18_Manager_operation:
.LFB4460:
	.cfi_startproc
	testl	%edx, %edx
	je	.L36
	cmpl	$1, %edx
	jne	.L41
	movq	%rsi, (%rdi)
.L39:
	xorl	%eax, %eax
	ret
	.p2align 4,,10
	.p2align 3
.L41:
	cmpl	$2, %edx
	jne	.L39
	movdqu	(%rsi), %xmm0
	movups	%xmm0, (%rdi)
	jmp	.L39
	.p2align 4,,10
	.p2align 3
.L36:
	leaq	_ZTIZN7openpal8TimerRef5StartIZN8opendnp38MContext18StartResponseTimerEvEUlvE_EEbRKNS_12TimeDurationERKT_EUlvE_(%rip), %rax
	movq	%rax, (%rdi)
	xorl	%eax, %eax
	ret
	.cfi_endproc
.LFE4460:
	.size	_ZNSt17_Function_handlerIFvvEZN7openpal8TimerRef5StartIZN8opendnp38MContext18StartResponseTimerEvEUlvE_EEbRKNS1_12TimeDurationERKT_EUlvE_E10_M_managerERSt9_Any_dataRKSF_St18_Manager_operation, .-_ZNSt17_Function_handlerIFvvEZN7openpal8TimerRef5StartIZN8opendnp38MContext18StartResponseTimerEvEUlvE_EEbRKNS1_12TimeDurationERKT_EUlvE_E10_M_managerERSt9_Any_dataRKSF_St18_Manager_operation
	.p2align 4
	.type	_ZNSt17_Function_handlerIFvvEZN8opendnp38MContext16PostCheckForTaskEvEUlvE_E10_M_managerERSt9_Any_dataRKS5_St18_Manager_operation, @function
_ZNSt17_Function_handlerIFvvEZN8opendnp38MContext16PostCheckForTaskEvEUlvE_E10_M_managerERSt9_Any_dataRKS5_St18_Manager_operation:
.LFB4231:
	.cfi_startproc
	testl	%edx, %edx
	je	.L43
	cmpl	$1, %edx
	jne	.L48
	movq	%rsi, (%rdi)
.L46:
	xorl	%eax, %eax
	ret
	.p2align 4,,10
	.p2align 3
.L48:
	cmpl	$2, %edx
	jne	.L46
	movq	(%rsi), %rax
	movq	%rax, (%rdi)
	jmp	.L46
	.p2align 4,,10
	.p2align 3
.L43:
	leaq	_ZTIZN8opendnp38MContext16PostCheckForTaskEvEUlvE_(%rip), %rax
	movq	%rax, (%rdi)
	xorl	%eax, %eax
	ret
	.cfi_endproc
.LFE4231:
	.size	_ZNSt17_Function_handlerIFvvEZN8opendnp38MContext16PostCheckForTaskEvEUlvE_E10_M_managerERSt9_Any_dataRKS5_St18_Manager_operation, .-_ZNSt17_Function_handlerIFvvEZN8opendnp38MContext16PostCheckForTaskEvEUlvE_E10_M_managerERSt9_Any_dataRKS5_St18_Manager_operation
	.p2align 4
	.type	_ZNSt17_Function_handlerIFbRN8opendnp312HeaderWriterEEZNS0_8MContext12AddClassScanERKNS0_10ClassFieldEN7openpal12TimeDurationENS0_10TaskConfigEEUlS2_E_E10_M_managerERSt9_Any_dataRKSD_St18_Manager_operation, @function
_ZNSt17_Function_handlerIFbRN8opendnp312HeaderWriterEEZNS0_8MContext12AddClassScanERKNS0_10ClassFieldEN7openpal12TimeDurationENS0_10TaskConfigEEUlS2_E_E10_M_managerERSt9_Any_dataRKSD_St18_Manager_operation:
.LFB4259:
	.cfi_startproc
	testl	%edx, %edx
	je	.L50
	cmpl	$1, %edx
	jne	.L55
	movq	%rsi, (%rdi)
.L53:
	xorl	%eax, %eax
	ret
	.p2align 4,,10
	.p2align 3
.L55:
	cmpl	$2, %edx
	jne	.L53
	movzbl	(%rsi), %eax
	movb	%al, (%rdi)
	jmp	.L53
	.p2align 4,,10
	.p2align 3
.L50:
	leaq	_ZTIZN8opendnp38MContext12AddClassScanERKNS_10ClassFieldEN7openpal12TimeDurationENS_10TaskConfigEEUlRNS_12HeaderWriterEE_(%rip), %rax
	movq	%rax, (%rdi)
	xorl	%eax, %eax
	ret
	.cfi_endproc
.LFE4259:
	.size	_ZNSt17_Function_handlerIFbRN8opendnp312HeaderWriterEEZNS0_8MContext12AddClassScanERKNS0_10ClassFieldEN7openpal12TimeDurationENS0_10TaskConfigEEUlS2_E_E10_M_managerERSt9_Any_dataRKSD_St18_Manager_operation, .-_ZNSt17_Function_handlerIFbRN8opendnp312HeaderWriterEEZNS0_8MContext12AddClassScanERKNS0_10ClassFieldEN7openpal12TimeDurationENS0_10TaskConfigEEUlS2_E_E10_M_managerERSt9_Any_dataRKSD_St18_Manager_operation
	.p2align 4
	.type	_ZNSt17_Function_handlerIFbRN8opendnp312HeaderWriterEEZNS0_8MContext17AddAllObjectsScanENS0_16GroupVariationIDEN7openpal12TimeDurationENS0_10TaskConfigEEUlS2_E_E10_M_managerERSt9_Any_dataRKSB_St18_Manager_operation, @function
_ZNSt17_Function_handlerIFbRN8opendnp312HeaderWriterEEZNS0_8MContext17AddAllObjectsScanENS0_16GroupVariationIDEN7openpal12TimeDurationENS0_10TaskConfigEEUlS2_E_E10_M_managerERSt9_Any_dataRKSB_St18_Manager_operation:
.LFB4264:
	.cfi_startproc
	testl	%edx, %edx
	je	.L57
	cmpl	$1, %edx
	jne	.L62
	movq	%rsi, (%rdi)
.L60:
	xorl	%eax, %eax
	ret
	.p2align 4,,10
	.p2align 3
.L62:
	cmpl	$2, %edx
	jne	.L60
	movzwl	(%rsi), %eax
	movw	%ax, (%rdi)
	jmp	.L60
	.p2align 4,,10
	.p2align 3
.L57:
	leaq	_ZTIZN8opendnp38MContext17AddAllObjectsScanENS_16GroupVariationIDEN7openpal12TimeDurationENS_10TaskConfigEEUlRNS_12HeaderWriterEE_(%rip), %rax
	movq	%rax, (%rdi)
	xorl	%eax, %eax
	ret
	.cfi_endproc
.LFE4264:
	.size	_ZNSt17_Function_handlerIFbRN8opendnp312HeaderWriterEEZNS0_8MContext17AddAllObjectsScanENS0_16GroupVariationIDEN7openpal12TimeDurationENS0_10TaskConfigEEUlS2_E_E10_M_managerERSt9_Any_dataRKSB_St18_Manager_operation, .-_ZNSt17_Function_handlerIFbRN8opendnp312HeaderWriterEEZNS0_8MContext17AddAllObjectsScanENS0_16GroupVariationIDEN7openpal12TimeDurationENS0_10TaskConfigEEUlS2_E_E10_M_managerERSt9_Any_dataRKSB_St18_Manager_operation
	.p2align 4
	.type	_ZNSt17_Function_handlerIFbRN8opendnp312HeaderWriterEEZNS0_8MContext12AddRangeScanENS0_16GroupVariationIDEttN7openpal12TimeDurationENS0_10TaskConfigEEUlS2_E_E10_M_managerERSt9_Any_dataRKSB_St18_Manager_operation, @function
_ZNSt17_Function_handlerIFbRN8opendnp312HeaderWriterEEZNS0_8MContext12AddRangeScanENS0_16GroupVariationIDEttN7openpal12TimeDurationENS0_10TaskConfigEEUlS2_E_E10_M_managerERSt9_Any_dataRKSB_St18_Manager_operation:
.LFB4270:
	.cfi_startproc
	testl	%edx, %edx
	je	.L64
	cmpl	$1, %edx
	jne	.L69
	movq	%rsi, (%rdi)
.L67:
	xorl	%eax, %eax
	ret
	.p2align 4,,10
	.p2align 3
.L69:
	cmpl	$2, %edx
	jne	.L67
	movl	(%rsi), %eax
	movl	%eax, (%rdi)
	movzwl	4(%rsi), %eax
	movw	%ax, 4(%rdi)
	jmp	.L67
	.p2align 4,,10
	.p2align 3
.L64:
	leaq	_ZTIZN8opendnp38MContext12AddRangeScanENS_16GroupVariationIDEttN7openpal12TimeDurationENS_10TaskConfigEEUlRNS_12HeaderWriterEE_(%rip), %rax
	movq	%rax, (%rdi)
	xorl	%eax, %eax
	ret
	.cfi_endproc
.LFE4270:
	.size	_ZNSt17_Function_handlerIFbRN8opendnp312HeaderWriterEEZNS0_8MContext12AddRangeScanENS0_16GroupVariationIDEttN7openpal12TimeDurationENS0_10TaskConfigEEUlS2_E_E10_M_managerERSt9_Any_dataRKSB_St18_Manager_operation, .-_ZNSt17_Function_handlerIFbRN8opendnp312HeaderWriterEEZNS0_8MContext12AddRangeScanENS0_16GroupVariationIDEttN7openpal12TimeDurationENS0_10TaskConfigEEUlS2_E_E10_M_managerERSt9_Any_dataRKSB_St18_Manager_operation
	.p2align 4
	.type	_ZNSt17_Function_handlerIFbRN8opendnp312HeaderWriterEEZNS0_8MContext11ScanClassesERKNS0_10ClassFieldENS0_10TaskConfigEEUlS2_E_E10_M_managerERSt9_Any_dataRKSB_St18_Manager_operation, @function
_ZNSt17_Function_handlerIFbRN8opendnp312HeaderWriterEEZNS0_8MContext11ScanClassesERKNS0_10ClassFieldENS0_10TaskConfigEEUlS2_E_E10_M_managerERSt9_Any_dataRKSB_St18_Manager_operation:
.LFB4279:
	.cfi_startproc
	testl	%edx, %edx
	je	.L71
	cmpl	$1, %edx
	jne	.L76
	movq	%rsi, (%rdi)
.L74:
	xorl	%eax, %eax
	ret
	.p2align 4,,10
	.p2align 3
.L76:
	cmpl	$2, %edx
	jne	.L74
	movzbl	(%rsi), %eax
	movb	%al, (%rdi)
	jmp	.L74
	.p2align 4,,10
	.p2align 3
.L71:
	leaq	_ZTIZN8opendnp38MContext11ScanClassesERKNS_10ClassFieldENS_10TaskConfigEEUlRNS_12HeaderWriterEE_(%rip), %rax
	movq	%rax, (%rdi)
	xorl	%eax, %eax
	ret
	.cfi_endproc
.LFE4279:
	.size	_ZNSt17_Function_handlerIFbRN8opendnp312HeaderWriterEEZNS0_8MContext11ScanClassesERKNS0_10ClassFieldENS0_10TaskConfigEEUlS2_E_E10_M_managerERSt9_Any_dataRKSB_St18_Manager_operation, .-_ZNSt17_Function_handlerIFbRN8opendnp312HeaderWriterEEZNS0_8MContext11ScanClassesERKNS0_10ClassFieldENS0_10TaskConfigEEUlS2_E_E10_M_managerERSt9_Any_dataRKSB_St18_Manager_operation
	.p2align 4
	.type	_ZNSt17_Function_handlerIFbRN8opendnp312HeaderWriterEEZNS0_8MContext14ScanAllObjectsENS0_16GroupVariationIDENS0_10TaskConfigEEUlS2_E_E10_M_managerERSt9_Any_dataRKS9_St18_Manager_operation, @function
_ZNSt17_Function_handlerIFbRN8opendnp312HeaderWriterEEZNS0_8MContext14ScanAllObjectsENS0_16GroupVariationIDENS0_10TaskConfigEEUlS2_E_E10_M_managerERSt9_Any_dataRKS9_St18_Manager_operation:
.LFB4284:
	.cfi_startproc
	testl	%edx, %edx
	je	.L78
	cmpl	$1, %edx
	jne	.L83
	movq	%rsi, (%rdi)
.L81:
	xorl	%eax, %eax
	ret
	.p2align 4,,10
	.p2align 3
.L83:
	cmpl	$2, %edx
	jne	.L81
	movzwl	(%rsi), %eax
	movw	%ax, (%rdi)
	jmp	.L81
	.p2align 4,,10
	.p2align 3
.L78:
	leaq	_ZTIZN8opendnp38MContext14ScanAllObjectsENS_16GroupVariationIDENS_10TaskConfigEEUlRNS_12HeaderWriterEE_(%rip), %rax
	movq	%rax, (%rdi)
	xorl	%eax, %eax
	ret
	.cfi_endproc
.LFE4284:
	.size	_ZNSt17_Function_handlerIFbRN8opendnp312HeaderWriterEEZNS0_8MContext14ScanAllObjectsENS0_16GroupVariationIDENS0_10TaskConfigEEUlS2_E_E10_M_managerERSt9_Any_dataRKS9_St18_Manager_operation, .-_ZNSt17_Function_handlerIFbRN8opendnp312HeaderWriterEEZNS0_8MContext14ScanAllObjectsENS0_16GroupVariationIDENS0_10TaskConfigEEUlS2_E_E10_M_managerERSt9_Any_dataRKS9_St18_Manager_operation
	.p2align 4
	.type	_ZNSt17_Function_handlerIFbRN8opendnp312HeaderWriterEEZNS0_8MContext9ScanRangeENS0_16GroupVariationIDEttNS0_10TaskConfigEEUlS2_E_E10_M_managerERSt9_Any_dataRKS9_St18_Manager_operation, @function
_ZNSt17_Function_handlerIFbRN8opendnp312HeaderWriterEEZNS0_8MContext9ScanRangeENS0_16GroupVariationIDEttNS0_10TaskConfigEEUlS2_E_E10_M_managerERSt9_Any_dataRKS9_St18_Manager_operation:
.LFB4289:
	.cfi_startproc
	testl	%edx, %edx
	je	.L85
	cmpl	$1, %edx
	jne	.L90
	movq	%rsi, (%rdi)
.L88:
	xorl	%eax, %eax
	ret
	.p2align 4,,10
	.p2align 3
.L90:
	cmpl	$2, %edx
	jne	.L88
	movl	(%rsi), %eax
	movl	%eax, (%rdi)
	movzwl	4(%rsi), %eax
	movw	%ax, 4(%rdi)
	jmp	.L88
	.p2align 4,,10
	.p2align 3
.L85:
	leaq	_ZTIZN8opendnp38MContext9ScanRangeENS_16GroupVariationIDEttNS_10TaskConfigEEUlRNS_12HeaderWriterEE_(%rip), %rax
	movq	%rax, (%rdi)
	xorl	%eax, %eax
	ret
	.cfi_endproc
.LFE4289:
	.size	_ZNSt17_Function_handlerIFbRN8opendnp312HeaderWriterEEZNS0_8MContext9ScanRangeENS0_16GroupVariationIDEttNS0_10TaskConfigEEUlS2_E_E10_M_managerERSt9_Any_dataRKS9_St18_Manager_operation, .-_ZNSt17_Function_handlerIFbRN8opendnp312HeaderWriterEEZNS0_8MContext9ScanRangeENS0_16GroupVariationIDEttNS0_10TaskConfigEEUlS2_E_E10_M_managerERSt9_Any_dataRKS9_St18_Manager_operation
	.p2align 4
	.type	_ZNSt17_Function_handlerIFvvEZN7openpal8TimerRef7RestartIZN8opendnp38MContext19SetTaskStartTimeoutERKNS1_18MonotonicTimestampEEUlvE_EEvS8_RKT_EUlvE_E10_M_managerERSt9_Any_dataRKSF_St18_Manager_operation, @function
_ZNSt17_Function_handlerIFvvEZN7openpal8TimerRef7RestartIZN8opendnp38MContext19SetTaskStartTimeoutERKNS1_18MonotonicTimestampEEUlvE_EEvS8_RKT_EUlvE_E10_M_managerERSt9_Any_dataRKSF_St18_Manager_operation:
.LFB4518:
	.cfi_startproc
	testl	%edx, %edx
	je	.L92
	cmpl	$1, %edx
	jne	.L97
	movq	%rsi, (%rdi)
.L95:
	xorl	%eax, %eax
	ret
	.p2align 4,,10
	.p2align 3
.L97:
	cmpl	$2, %edx
	jne	.L95
	movdqu	(%rsi), %xmm0
	movups	%xmm0, (%rdi)
	jmp	.L95
	.p2align 4,,10
	.p2align 3
.L92:
	leaq	_ZTIZN7openpal8TimerRef7RestartIZN8opendnp38MContext19SetTaskStartTimeoutERKNS_18MonotonicTimestampEEUlvE_EEvS6_RKT_EUlvE_(%rip), %rax
	movq	%rax, (%rdi)
	xorl	%eax, %eax
	ret
	.cfi_endproc
.LFE4518:
	.size	_ZNSt17_Function_handlerIFvvEZN7openpal8TimerRef7RestartIZN8opendnp38MContext19SetTaskStartTimeoutERKNS1_18MonotonicTimestampEEUlvE_EEvS8_RKT_EUlvE_E10_M_managerERSt9_Any_dataRKSF_St18_Manager_operation, .-_ZNSt17_Function_handlerIFvvEZN7openpal8TimerRef7RestartIZN8opendnp38MContext19SetTaskStartTimeoutERKNS1_18MonotonicTimestampEEUlvE_EEvS8_RKT_EUlvE_E10_M_managerERSt9_Any_dataRKSF_St18_Manager_operation
	.p2align 4
	.type	_ZNSt17_Function_handlerIFvvEZN7openpal8TimerRef7RestartIZN8opendnp38MContext14StartTask_IdleEvEUlvE_EEvRKNS1_18MonotonicTimestampERKT_EUlvE_E10_M_managerERSt9_Any_dataRKSF_St18_Manager_operation, @function
_ZNSt17_Function_handlerIFvvEZN7openpal8TimerRef7RestartIZN8opendnp38MContext14StartTask_IdleEvEUlvE_EEvRKNS1_18MonotonicTimestampERKT_EUlvE_E10_M_managerERSt9_Any_dataRKSF_St18_Manager_operation:
.LFB4523:
	.cfi_startproc
	testl	%edx, %edx
	je	.L99
	cmpl	$1, %edx
	jne	.L104
	movq	%rsi, (%rdi)
.L102:
	xorl	%eax, %eax
	ret
	.p2align 4,,10
	.p2align 3
.L104:
	cmpl	$2, %edx
	jne	.L102
	movdqu	(%rsi), %xmm0
	movups	%xmm0, (%rdi)
	jmp	.L102
	.p2align 4,,10
	.p2align 3
.L99:
	leaq	_ZTIZN7openpal8TimerRef7RestartIZN8opendnp38MContext14StartTask_IdleEvEUlvE_EEvRKNS_18MonotonicTimestampERKT_EUlvE_(%rip), %rax
	movq	%rax, (%rdi)
	xorl	%eax, %eax
	ret
	.cfi_endproc
.LFE4523:
	.size	_ZNSt17_Function_handlerIFvvEZN7openpal8TimerRef7RestartIZN8opendnp38MContext14StartTask_IdleEvEUlvE_EEvRKNS1_18MonotonicTimestampERKT_EUlvE_E10_M_managerERSt9_Any_dataRKSF_St18_Manager_operation, .-_ZNSt17_Function_handlerIFvvEZN7openpal8TimerRef7RestartIZN8opendnp38MContext14StartTask_IdleEvEUlvE_EEvRKNS1_18MonotonicTimestampERKT_EUlvE_E10_M_managerERSt9_Any_dataRKSF_St18_Manager_operation
	.p2align 4
	.type	_ZNSt17_Function_handlerIFbRN8opendnp312HeaderWriterEEZNS0_8MContext5WriteERKNS0_15TimeAndIntervalEtNS0_10TaskConfigEEUlS2_E_E9_M_invokeERKSt9_Any_dataS2_, @function
_ZNSt17_Function_handlerIFbRN8opendnp312HeaderWriterEEZNS0_8MContext5WriteERKNS0_15TimeAndIntervalEtNS0_10TaskConfigEEUlS2_E_E9_M_invokeERKSt9_Any_dataS2_:
.LFB4997:
	.cfi_startproc
	pushq	%r12
	.cfi_def_cfa_offset 16
	.cfi_offset 12, -16
	movl	$40, %edx
	movl	$15, %ecx
	pushq	%rbp
	.cfi_def_cfa_offset 24
	.cfi_offset 6, -24
	pushq	%rbx
	.cfi_def_cfa_offset 32
	.cfi_offset 3, -32
	movq	%rsi, %rbx
	movl	$1074, %esi
	subq	$16, %rsp
	.cfi_def_cfa_offset 48
	movq	(%rdi), %rbp
	movq	%rbx, %rdi
	movzwl	16(%rbp), %r12d
	call	_ZN8opendnp312HeaderWriter22WriteHeaderWithReserveENS_16GroupVariationIDENS_13QualifierCodeEj@PLT
	movl	%eax, %edx
	testb	%al, %al
	jne	.L111
	addq	$16, %rsp
	.cfi_remember_state
	.cfi_def_cfa_offset 32
	movl	%edx, %eax
	popq	%rbx
	.cfi_def_cfa_offset 24
	popq	%rbp
	.cfi_def_cfa_offset 16
	popq	%r12
	.cfi_def_cfa_offset 8
	ret
	.p2align 4,,10
	.p2align 3
.L111:
	.cfi_restore_state
	movq	(%rbx), %rdi
	movb	%al, 15(%rsp)
	movl	$1, %edx
	movl	$2, %esi
	movq	8(%rdi), %rax
	movw	%dx, (%rax)
	call	_ZN7openpal6WSlice7AdvanceEj@PLT
	movq	(%rbx), %rdi
	movl	$2, %esi
	movq	8(%rdi), %rax
	movw	%r12w, (%rax)
	call	_ZN7openpal6WSlice7AdvanceEj@PLT
	movq	(%rbx), %rsi
	movq	%rbp, %rdi
	call	_ZN8opendnp311Group50Var411WriteTargetERKNS_15TimeAndIntervalERN7openpal6WSliceE@PLT
	movzbl	15(%rsp), %edx
	addq	$16, %rsp
	.cfi_def_cfa_offset 32
	popq	%rbx
	.cfi_def_cfa_offset 24
	popq	%rbp
	.cfi_def_cfa_offset 16
	movl	%edx, %eax
	popq	%r12
	.cfi_def_cfa_offset 8
	ret
	.cfi_endproc
.LFE4997:
	.size	_ZNSt17_Function_handlerIFbRN8opendnp312HeaderWriterEEZNS0_8MContext5WriteERKNS0_15TimeAndIntervalEtNS0_10TaskConfigEEUlS2_E_E9_M_invokeERKSt9_Any_dataS2_, .-_ZNSt17_Function_handlerIFbRN8opendnp312HeaderWriterEEZNS0_8MContext5WriteERKNS0_15TimeAndIntervalEtNS0_10TaskConfigEEUlS2_E_E9_M_invokeERKSt9_Any_dataS2_
	.p2align 4
	.type	_ZNSt17_Function_handlerIFbRN8opendnp312HeaderWriterEEZNS0_8MContext5WriteERKNS0_15TimeAndIntervalEtNS0_10TaskConfigEEUlS2_E_E10_M_managerERSt9_Any_dataRKSB_St18_Manager_operation, @function
_ZNSt17_Function_handlerIFbRN8opendnp312HeaderWriterEEZNS0_8MContext5WriteERKNS0_15TimeAndIntervalEtNS0_10TaskConfigEEUlS2_E_E10_M_managerERSt9_Any_dataRKSB_St18_Manager_operation:
.LFB4998:
	.cfi_startproc
	testl	%edx, %edx
	je	.L113
	cmpl	$1, %edx
	je	.L114
	subq	$24, %rsp
	.cfi_def_cfa_offset 32
	cmpl	$2, %edx
	je	.L117
	cmpl	$3, %edx
	je	.L118
.L116:
	xorl	%eax, %eax
	addq	$24, %rsp
	.cfi_def_cfa_offset 8
	ret
	.p2align 4,,10
	.p2align 3
.L114:
	movq	(%rsi), %rax
	movq	%rax, (%rdi)
	xorl	%eax, %eax
	ret
	.p2align 4,,10
	.p2align 3
.L113:
	leaq	_ZTIZN8opendnp38MContext5WriteERKNS_15TimeAndIntervalEtNS_10TaskConfigEEUlRNS_12HeaderWriterEE_(%rip), %rax
	movq	%rax, (%rdi)
	xorl	%eax, %eax
	ret
	.p2align 4,,10
	.p2align 3
.L118:
	.cfi_def_cfa_offset 32
	movq	(%rdi), %rdi
	testq	%rdi, %rdi
	je	.L116
	movl	$24, %esi
	call	_ZdlPvm@PLT
	jmp	.L116
	.p2align 4,,10
	.p2align 3
.L117:
	movq	(%rsi), %rdx
	movq	%rdi, 8(%rsp)
	movl	$24, %edi
	movq	%rdx, (%rsp)
	call	_Znwm@PLT
	movq	(%rsp), %rdx
	movq	8(%rsp), %rcx
	movdqu	(%rdx), %xmm0
	movups	%xmm0, (%rax)
	movq	16(%rdx), %rdx
	movq	%rax, (%rcx)
	movq	%rdx, 16(%rax)
	jmp	.L116
	.cfi_endproc
.LFE4998:
	.size	_ZNSt17_Function_handlerIFbRN8opendnp312HeaderWriterEEZNS0_8MContext5WriteERKNS0_15TimeAndIntervalEtNS0_10TaskConfigEEUlS2_E_E10_M_managerERSt9_Any_dataRKSB_St18_Manager_operation, .-_ZNSt17_Function_handlerIFbRN8opendnp312HeaderWriterEEZNS0_8MContext5WriteERKNS0_15TimeAndIntervalEtNS0_10TaskConfigEEUlS2_E_E10_M_managerERSt9_Any_dataRKSB_St18_Manager_operation
	.p2align 4
	.type	_ZNSt17_Function_handlerIFvvEZN7openpal8TimerRef7RestartIZN8opendnp38MContext19SetTaskStartTimeoutERKNS1_18MonotonicTimestampEEUlvE_EEvS8_RKT_EUlvE_E9_M_invokeERKSt9_Any_data, @function
_ZNSt17_Function_handlerIFvvEZN7openpal8TimerRef7RestartIZN8opendnp38MContext19SetTaskStartTimeoutERKNS1_18MonotonicTimestampEEUlvE_EEvS8_RKT_EUlvE_E9_M_invokeERKSt9_Any_data:
.LFB4517:
	.cfi_startproc
	pushq	%rbx
	.cfi_def_cfa_offset 16
	.cfi_offset 3, -16
	subq	$16, %rsp
	.cfi_def_cfa_offset 32
	movq	8(%rdi), %rbx
	movq	(%rdi), %rax
	movq	56(%rbx), %rdi
	movq	$0, 8(%rax)
	movq	(%rdi), %rax
	call	*16(%rax)
	leaq	8(%rsp), %rsi
	leaq	376(%rbx), %rdi
	movq	%rax, 8(%rsp)
	call	_ZN8opendnp315MasterScheduler21CheckTaskStartTimeoutERKN7openpal18MonotonicTimestampE@PLT
	addq	$16, %rsp
	.cfi_def_cfa_offset 16
	popq	%rbx
	.cfi_def_cfa_offset 8
	ret
	.cfi_endproc
.LFE4517:
	.size	_ZNSt17_Function_handlerIFvvEZN7openpal8TimerRef7RestartIZN8opendnp38MContext19SetTaskStartTimeoutERKNS1_18MonotonicTimestampEEUlvE_EEvS8_RKT_EUlvE_E9_M_invokeERKSt9_Any_data, .-_ZNSt17_Function_handlerIFvvEZN7openpal8TimerRef7RestartIZN8opendnp38MContext19SetTaskStartTimeoutERKNS1_18MonotonicTimestampEEUlvE_EEvS8_RKT_EUlvE_E9_M_invokeERKSt9_Any_data
	.section	.text._ZNSt23_Sp_counted_ptr_inplaceIN8opendnp320RestartOperationTaskESaIvELN9__gnu_cxx12_Lock_policyE2EE14_M_get_deleterERKSt9type_info,"axG",@progbits,_ZNSt23_Sp_counted_ptr_inplaceIN8opendnp320RestartOperationTaskESaIvELN9__gnu_cxx12_Lock_policyE2EE14_M_get_deleterERKSt9type_info,comdat
	.align 2
	.p2align 4
	.weak	_ZNSt23_Sp_counted_ptr_inplaceIN8opendnp320RestartOperationTaskESaIvELN9__gnu_cxx12_Lock_policyE2EE14_M_get_deleterERKSt9type_info
	.type	_ZNSt23_Sp_counted_ptr_inplaceIN8opendnp320RestartOperationTaskESaIvELN9__gnu_cxx12_Lock_policyE2EE14_M_get_deleterERKSt9type_info, @function
_ZNSt23_Sp_counted_ptr_inplaceIN8opendnp320RestartOperationTaskESaIvELN9__gnu_cxx12_Lock_policyE2EE14_M_get_deleterERKSt9type_info:
.LFB5025:
	.cfi_startproc
	cmpq	_ZZNSt19_Sp_make_shared_tag5_S_tiEvE5__tag@GOTPCREL(%rip), %rsi
	movq	%rdi, %rcx
	je	.L135
	movq	8(%rsi), %rdi
	movq	_ZTSSt19_Sp_make_shared_tag@GOTPCREL(%rip), %rsi
	cmpq	%rsi, %rdi
	je	.L135
	xorl	%edx, %edx
	cmpb	$42, (%rdi)
	je	.L136
	subq	$24, %rsp
	.cfi_def_cfa_offset 32
	movq	%rdx, (%rsp)
	movq	%rcx, 8(%rsp)
	call	strcmp@PLT
	xorl	%edx, %edx
	movq	8(%rsp), %rcx
	testl	%eax, %eax
	jne	.L129
	leaq	16(%rcx), %rdx
.L129:
	movq	%rdx, %rax
	addq	$24, %rsp
	.cfi_def_cfa_offset 8
	ret
	.p2align 4,,10
	.p2align 3
.L135:
	leaq	16(%rcx), %rdx
.L136:
	movq	%rdx, %rax
	ret
	.cfi_endproc
.LFE5025:
	.size	_ZNSt23_Sp_counted_ptr_inplaceIN8opendnp320RestartOperationTaskESaIvELN9__gnu_cxx12_Lock_policyE2EE14_M_get_deleterERKSt9type_info, .-_ZNSt23_Sp_counted_ptr_inplaceIN8opendnp320RestartOperationTaskESaIvELN9__gnu_cxx12_Lock_policyE2EE14_M_get_deleterERKSt9type_info
	.section	.text._ZN8opendnp38MContext6CanRunERKNS_11IMasterTaskE,"axG",@progbits,_ZN8opendnp38MContext6CanRunERKNS_11IMasterTaskE,comdat
	.p2align 4
	.weak	_ZThn16_N8opendnp38MContext6CanRunERKNS_11IMasterTaskE
	.type	_ZThn16_N8opendnp38MContext6CanRunERKNS_11IMasterTaskE, @function
_ZThn16_N8opendnp38MContext6CanRunERKNS_11IMasterTaskE:
.LFB5118:
	.cfi_startproc
	movl	$1, %eax
	ret
	.cfi_endproc
.LFE5118:
	.size	_ZThn16_N8opendnp38MContext6CanRunERKNS_11IMasterTaskE, .-_ZThn16_N8opendnp38MContext6CanRunERKNS_11IMasterTaskE
	.text
	.p2align 4
	.type	_ZNSt17_Function_handlerIFbRN8opendnp312HeaderWriterEEZNS0_8MContext11ScanClassesERKNS0_10ClassFieldENS0_10TaskConfigEEUlS2_E_E9_M_invokeERKSt9_Any_dataS2_, @function
_ZNSt17_Function_handlerIFbRN8opendnp312HeaderWriterEEZNS0_8MContext11ScanClassesERKNS0_10ClassFieldENS0_10TaskConfigEEUlS2_E_E9_M_invokeERKSt9_Any_dataS2_:
.LFB5117:
	.cfi_startproc
	movq	%rdi, %rax
	movq	%rsi, %rdi
	movq	%rax, %rsi
	jmp	_ZN8opendnp35build17WriteClassHeadersERNS_12HeaderWriterERKNS_10ClassFieldE@PLT
	.cfi_endproc
.LFE5117:
	.size	_ZNSt17_Function_handlerIFbRN8opendnp312HeaderWriterEEZNS0_8MContext11ScanClassesERKNS0_10ClassFieldENS0_10TaskConfigEEUlS2_E_E9_M_invokeERKSt9_Any_dataS2_, .-_ZNSt17_Function_handlerIFbRN8opendnp312HeaderWriterEEZNS0_8MContext11ScanClassesERKNS0_10ClassFieldENS0_10TaskConfigEEUlS2_E_E9_M_invokeERKSt9_Any_dataS2_
	.p2align 4
	.type	_ZNSt17_Function_handlerIFbRN8opendnp312HeaderWriterEEZNS0_8MContext12AddRangeScanENS0_16GroupVariationIDEttN7openpal12TimeDurationENS0_10TaskConfigEEUlS2_E_E9_M_invokeERKSt9_Any_dataS2_, @function
_ZNSt17_Function_handlerIFbRN8opendnp312HeaderWriterEEZNS0_8MContext12AddRangeScanENS0_16GroupVariationIDEttN7openpal12TimeDurationENS0_10TaskConfigEEUlS2_E_E9_M_invokeERKSt9_Any_dataS2_:
.LFB4269:
	.cfi_startproc
	pushq	%r12
	.cfi_def_cfa_offset 16
	.cfi_offset 12, -16
	movl	$1, %edx
	movl	$4, %ecx
	pushq	%rbp
	.cfi_def_cfa_offset 24
	.cfi_offset 6, -24
	pushq	%rbx
	.cfi_def_cfa_offset 32
	.cfi_offset 3, -32
	movq	%rsi, %rbx
	subq	$16, %rsp
	.cfi_def_cfa_offset 48
	movzwl	(%rdi), %esi
	movzwl	4(%rdi), %ebp
	movzwl	2(%rdi), %r12d
	movq	%rbx, %rdi
	call	_ZN8opendnp312HeaderWriter22WriteHeaderWithReserveENS_16GroupVariationIDENS_13QualifierCodeEj@PLT
	movl	%eax, %edx
	testb	%al, %al
	jne	.L147
	addq	$16, %rsp
	.cfi_remember_state
	.cfi_def_cfa_offset 32
	movl	%edx, %eax
	popq	%rbx
	.cfi_def_cfa_offset 24
	popq	%rbp
	.cfi_def_cfa_offset 16
	popq	%r12
	.cfi_def_cfa_offset 8
	ret
	.p2align 4,,10
	.p2align 3
.L147:
	.cfi_restore_state
	movq	(%rbx), %rdi
	movb	%al, 15(%rsp)
	movl	$2, %esi
	movq	8(%rdi), %rax
	movw	%r12w, (%rax)
	call	_ZN7openpal6WSlice7AdvanceEj@PLT
	movq	(%rbx), %rdi
	movl	$2, %esi
	movq	8(%rdi), %rax
	movw	%bp, (%rax)
	call	_ZN7openpal6WSlice7AdvanceEj@PLT
	movzbl	15(%rsp), %edx
	addq	$16, %rsp
	.cfi_def_cfa_offset 32
	popq	%rbx
	.cfi_def_cfa_offset 24
	popq	%rbp
	.cfi_def_cfa_offset 16
	movl	%edx, %eax
	popq	%r12
	.cfi_def_cfa_offset 8
	ret
	.cfi_endproc
.LFE4269:
	.size	_ZNSt17_Function_handlerIFbRN8opendnp312HeaderWriterEEZNS0_8MContext12AddRangeScanENS0_16GroupVariationIDEttN7openpal12TimeDurationENS0_10TaskConfigEEUlS2_E_E9_M_invokeERKSt9_Any_dataS2_, .-_ZNSt17_Function_handlerIFbRN8opendnp312HeaderWriterEEZNS0_8MContext12AddRangeScanENS0_16GroupVariationIDEttN7openpal12TimeDurationENS0_10TaskConfigEEUlS2_E_E9_M_invokeERKSt9_Any_dataS2_
	.p2align 4
	.type	_ZNSt17_Function_handlerIFbRN8opendnp312HeaderWriterEEZNS0_8MContext9ScanRangeENS0_16GroupVariationIDEttNS0_10TaskConfigEEUlS2_E_E9_M_invokeERKSt9_Any_dataS2_, @function
_ZNSt17_Function_handlerIFbRN8opendnp312HeaderWriterEEZNS0_8MContext9ScanRangeENS0_16GroupVariationIDEttNS0_10TaskConfigEEUlS2_E_E9_M_invokeERKSt9_Any_dataS2_:
.LFB4288:
	.cfi_startproc
	pushq	%r12
	.cfi_def_cfa_offset 16
	.cfi_offset 12, -16
	movl	$1, %edx
	movl	$4, %ecx
	pushq	%rbp
	.cfi_def_cfa_offset 24
	.cfi_offset 6, -24
	pushq	%rbx
	.cfi_def_cfa_offset 32
	.cfi_offset 3, -32
	movq	%rsi, %rbx
	subq	$16, %rsp
	.cfi_def_cfa_offset 48
	movzwl	(%rdi), %esi
	movzwl	4(%rdi), %ebp
	movzwl	2(%rdi), %r12d
	movq	%rbx, %rdi
	call	_ZN8opendnp312HeaderWriter22WriteHeaderWithReserveENS_16GroupVariationIDENS_13QualifierCodeEj@PLT
	movl	%eax, %edx
	testb	%al, %al
	jne	.L154
	addq	$16, %rsp
	.cfi_remember_state
	.cfi_def_cfa_offset 32
	movl	%edx, %eax
	popq	%rbx
	.cfi_def_cfa_offset 24
	popq	%rbp
	.cfi_def_cfa_offset 16
	popq	%r12
	.cfi_def_cfa_offset 8
	ret
	.p2align 4,,10
	.p2align 3
.L154:
	.cfi_restore_state
	movq	(%rbx), %rdi
	movb	%al, 15(%rsp)
	movl	$2, %esi
	movq	8(%rdi), %rax
	movw	%r12w, (%rax)
	call	_ZN7openpal6WSlice7AdvanceEj@PLT
	movq	(%rbx), %rdi
	movl	$2, %esi
	movq	8(%rdi), %rax
	movw	%bp, (%rax)
	call	_ZN7openpal6WSlice7AdvanceEj@PLT
	movzbl	15(%rsp), %edx
	addq	$16, %rsp
	.cfi_def_cfa_offset 32
	popq	%rbx
	.cfi_def_cfa_offset 24
	popq	%rbp
	.cfi_def_cfa_offset 16
	movl	%edx, %eax
	popq	%r12
	.cfi_def_cfa_offset 8
	ret
	.cfi_endproc
.LFE4288:
	.size	_ZNSt17_Function_handlerIFbRN8opendnp312HeaderWriterEEZNS0_8MContext9ScanRangeENS0_16GroupVariationIDEttNS0_10TaskConfigEEUlS2_E_E9_M_invokeERKSt9_Any_dataS2_, .-_ZNSt17_Function_handlerIFbRN8opendnp312HeaderWriterEEZNS0_8MContext9ScanRangeENS0_16GroupVariationIDEttNS0_10TaskConfigEEUlS2_E_E9_M_invokeERKSt9_Any_dataS2_
	.section	.text._ZNSt23_Sp_counted_ptr_inplaceIN8opendnp312UserPollTaskESaIvELN9__gnu_cxx12_Lock_policyE2EE10_M_disposeEv,"axG",@progbits,_ZNSt23_Sp_counted_ptr_inplaceIN8opendnp312UserPollTaskESaIvELN9__gnu_cxx12_Lock_policyE2EE10_M_disposeEv,comdat
	.align 2
	.p2align 4
	.weak	_ZNSt23_Sp_counted_ptr_inplaceIN8opendnp312UserPollTaskESaIvELN9__gnu_cxx12_Lock_policyE2EE10_M_disposeEv
	.type	_ZNSt23_Sp_counted_ptr_inplaceIN8opendnp312UserPollTaskESaIvELN9__gnu_cxx12_Lock_policyE2EE10_M_disposeEv, @function
_ZNSt23_Sp_counted_ptr_inplaceIN8opendnp312UserPollTaskESaIvELN9__gnu_cxx12_Lock_policyE2EE10_M_disposeEv:
.LFB5037:
	.cfi_startproc
	.cfi_personality 0x9b,DW.ref.__gxx_personality_v0
	.cfi_lsda 0x1b,.LLSDA5037
	movq	_ZTVN8opendnp312UserPollTaskE@GOTPCREL(%rip), %rax
	pushq	%rbx
	.cfi_def_cfa_offset 16
	.cfi_offset 3, -16
	movq	%rdi, %rbx
	addq	$16, %rax
	movq	%rax, 16(%rdi)
	movq	136(%rdi), %rax
	testq	%rax, %rax
	je	.L156
	leaq	120(%rdi), %rdi
	movl	$3, %edx
	movq	%rdi, %rsi
	call	*%rax
.L156:
	movq	_ZTVN8opendnp312PollTaskBaseE@GOTPCREL(%rip), %rax
	leaq	16(%rbx), %rdi
	addq	$16, %rax
	movq	%rax, 16(%rbx)
	popq	%rbx
	.cfi_def_cfa_offset 8
.LEHB2:
	jmp	_ZN8opendnp311IMasterTaskD2Ev@PLT
.LEHE2:
	.cfi_endproc
.LFE5037:
	.section	.gcc_except_table
.LLSDA5037:
	.byte	0xff
	.byte	0xff
	.byte	0x1
	.uleb128 .LLSDACSE5037-.LLSDACSB5037
.LLSDACSB5037:
	.uleb128 .LEHB2-.LFB5037
	.uleb128 .LEHE2-.LEHB2
	.uleb128 0
	.uleb128 0
.LLSDACSE5037:
	.section	.text._ZNSt23_Sp_counted_ptr_inplaceIN8opendnp312UserPollTaskESaIvELN9__gnu_cxx12_Lock_policyE2EE10_M_disposeEv,"axG",@progbits,_ZNSt23_Sp_counted_ptr_inplaceIN8opendnp312UserPollTaskESaIvELN9__gnu_cxx12_Lock_policyE2EE10_M_disposeEv,comdat
	.size	_ZNSt23_Sp_counted_ptr_inplaceIN8opendnp312UserPollTaskESaIvELN9__gnu_cxx12_Lock_policyE2EE10_M_disposeEv, .-_ZNSt23_Sp_counted_ptr_inplaceIN8opendnp312UserPollTaskESaIvELN9__gnu_cxx12_Lock_policyE2EE10_M_disposeEv
	.section	.text._ZNSt23_Sp_counted_ptr_inplaceIN8opendnp312UserPollTaskESaIvELN9__gnu_cxx12_Lock_policyE2EE14_M_get_deleterERKSt9type_info,"axG",@progbits,_ZNSt23_Sp_counted_ptr_inplaceIN8opendnp312UserPollTaskESaIvELN9__gnu_cxx12_Lock_policyE2EE14_M_get_deleterERKSt9type_info,comdat
	.align 2
	.p2align 4
	.weak	_ZNSt23_Sp_counted_ptr_inplaceIN8opendnp312UserPollTaskESaIvELN9__gnu_cxx12_Lock_policyE2EE14_M_get_deleterERKSt9type_info
	.type	_ZNSt23_Sp_counted_ptr_inplaceIN8opendnp312UserPollTaskESaIvELN9__gnu_cxx12_Lock_policyE2EE14_M_get_deleterERKSt9type_info, @function
_ZNSt23_Sp_counted_ptr_inplaceIN8opendnp312UserPollTaskESaIvELN9__gnu_cxx12_Lock_policyE2EE14_M_get_deleterERKSt9type_info:
.LFB5039:
	.cfi_startproc
	cmpq	_ZZNSt19_Sp_make_shared_tag5_S_tiEvE5__tag@GOTPCREL(%rip), %rsi
	movq	%rdi, %rcx
	je	.L167
	movq	8(%rsi), %rdi
	movq	_ZTSSt19_Sp_make_shared_tag@GOTPCREL(%rip), %rsi
	cmpq	%rsi, %rdi
	je	.L167
	xorl	%edx, %edx
	cmpb	$42, (%rdi)
	je	.L168
	subq	$24, %rsp
	.cfi_def_cfa_offset 32
	movq	%rdx, (%rsp)
	movq	%rcx, 8(%rsp)
	call	strcmp@PLT
	xorl	%edx, %edx
	movq	8(%rsp), %rcx
	testl	%eax, %eax
	jne	.L161
	leaq	16(%rcx), %rdx
.L161:
	movq	%rdx, %rax
	addq	$24, %rsp
	.cfi_def_cfa_offset 8
	ret
	.p2align 4,,10
	.p2align 3
.L167:
	leaq	16(%rcx), %rdx
.L168:
	movq	%rdx, %rax
	ret
	.cfi_endproc
.LFE5039:
	.size	_ZNSt23_Sp_counted_ptr_inplaceIN8opendnp312UserPollTaskESaIvELN9__gnu_cxx12_Lock_policyE2EE14_M_get_deleterERKSt9type_info, .-_ZNSt23_Sp_counted_ptr_inplaceIN8opendnp312UserPollTaskESaIvELN9__gnu_cxx12_Lock_policyE2EE14_M_get_deleterERKSt9type_info
	.section	.text._ZNSt23_Sp_counted_ptr_inplaceIN8opendnp317EmptyResponseTaskESaIvELN9__gnu_cxx12_Lock_policyE2EE14_M_get_deleterERKSt9type_info,"axG",@progbits,_ZNSt23_Sp_counted_ptr_inplaceIN8opendnp317EmptyResponseTaskESaIvELN9__gnu_cxx12_Lock_policyE2EE14_M_get_deleterERKSt9type_info,comdat
	.align 2
	.p2align 4
	.weak	_ZNSt23_Sp_counted_ptr_inplaceIN8opendnp317EmptyResponseTaskESaIvELN9__gnu_cxx12_Lock_policyE2EE14_M_get_deleterERKSt9type_info
	.type	_ZNSt23_Sp_counted_ptr_inplaceIN8opendnp317EmptyResponseTaskESaIvELN9__gnu_cxx12_Lock_policyE2EE14_M_get_deleterERKSt9type_info, @function
_ZNSt23_Sp_counted_ptr_inplaceIN8opendnp317EmptyResponseTaskESaIvELN9__gnu_cxx12_Lock_policyE2EE14_M_get_deleterERKSt9type_info:
.LFB5032:
	.cfi_startproc
	cmpq	_ZZNSt19_Sp_make_shared_tag5_S_tiEvE5__tag@GOTPCREL(%rip), %rsi
	movq	%rdi, %rcx
	je	.L177
	movq	8(%rsi), %rdi
	movq	_ZTSSt19_Sp_make_shared_tag@GOTPCREL(%rip), %rsi
	cmpq	%rsi, %rdi
	je	.L177
	xorl	%edx, %edx
	cmpb	$42, (%rdi)
	je	.L178
	subq	$24, %rsp
	.cfi_def_cfa_offset 32
	movq	%rdx, (%rsp)
	movq	%rcx, 8(%rsp)
	call	strcmp@PLT
	xorl	%edx, %edx
	movq	8(%rsp), %rcx
	testl	%eax, %eax
	jne	.L171
	leaq	16(%rcx), %rdx
.L171:
	movq	%rdx, %rax
	addq	$24, %rsp
	.cfi_def_cfa_offset 8
	ret
	.p2align 4,,10
	.p2align 3
.L177:
	leaq	16(%rcx), %rdx
.L178:
	movq	%rdx, %rax
	ret
	.cfi_endproc
.LFE5032:
	.size	_ZNSt23_Sp_counted_ptr_inplaceIN8opendnp317EmptyResponseTaskESaIvELN9__gnu_cxx12_Lock_policyE2EE14_M_get_deleterERKSt9type_info, .-_ZNSt23_Sp_counted_ptr_inplaceIN8opendnp317EmptyResponseTaskESaIvELN9__gnu_cxx12_Lock_policyE2EE14_M_get_deleterERKSt9type_info
	.section	.text._ZNSt23_Sp_counted_ptr_inplaceIN8opendnp320RestartOperationTaskESaIvELN9__gnu_cxx12_Lock_policyE2EE10_M_disposeEv,"axG",@progbits,_ZNSt23_Sp_counted_ptr_inplaceIN8opendnp320RestartOperationTaskESaIvELN9__gnu_cxx12_Lock_policyE2EE10_M_disposeEv,comdat
	.align 2
	.p2align 4
	.weak	_ZNSt23_Sp_counted_ptr_inplaceIN8opendnp320RestartOperationTaskESaIvELN9__gnu_cxx12_Lock_policyE2EE10_M_disposeEv
	.type	_ZNSt23_Sp_counted_ptr_inplaceIN8opendnp320RestartOperationTaskESaIvELN9__gnu_cxx12_Lock_policyE2EE10_M_disposeEv, @function
_ZNSt23_Sp_counted_ptr_inplaceIN8opendnp320RestartOperationTaskESaIvELN9__gnu_cxx12_Lock_policyE2EE10_M_disposeEv:
.LFB5023:
	.cfi_startproc
	.cfi_personality 0x9b,DW.ref.__gxx_personality_v0
	.cfi_lsda 0x1b,.LLSDA5023
	movq	_ZTVN8opendnp320RestartOperationTaskE@GOTPCREL(%rip), %rax
	pushq	%rbx
	.cfi_def_cfa_offset 16
	.cfi_offset 3, -16
	movq	%rdi, %rbx
	leaq	16(%rax), %rdx
	addq	$160, %rax
	movq	%rax, 144(%rdi)
	movq	184(%rdi), %rax
	movq	%rdx, 16(%rdi)
	testq	%rax, %rax
	je	.L182
	leaq	168(%rdi), %rdi
	movl	$3, %edx
	movq	%rdi, %rsi
	call	*%rax
.L182:
	movq	_ZTVN8opendnp321SimpleRequestTaskBaseE@GOTPCREL(%rip), %rax
	addq	$16, %rax
	movq	%rax, 16(%rbx)
	movq	128(%rbx), %rax
	testq	%rax, %rax
	je	.L183
	leaq	112(%rbx), %rdi
	movl	$3, %edx
	movq	%rdi, %rsi
	call	*%rax
.L183:
	leaq	16(%rbx), %rdi
	popq	%rbx
	.cfi_def_cfa_offset 8
.LEHB3:
	jmp	_ZN8opendnp311IMasterTaskD2Ev@PLT
.LEHE3:
	.cfi_endproc
.LFE5023:
	.section	.gcc_except_table
.LLSDA5023:
	.byte	0xff
	.byte	0xff
	.byte	0x1
	.uleb128 .LLSDACSE5023-.LLSDACSB5023
.LLSDACSB5023:
	.uleb128 .LEHB3-.LFB5023
	.uleb128 .LEHE3-.LEHB3
	.uleb128 0
	.uleb128 0
.LLSDACSE5023:
	.section	.text._ZNSt23_Sp_counted_ptr_inplaceIN8opendnp320RestartOperationTaskESaIvELN9__gnu_cxx12_Lock_policyE2EE10_M_disposeEv,"axG",@progbits,_ZNSt23_Sp_counted_ptr_inplaceIN8opendnp320RestartOperationTaskESaIvELN9__gnu_cxx12_Lock_policyE2EE10_M_disposeEv,comdat
	.size	_ZNSt23_Sp_counted_ptr_inplaceIN8opendnp320RestartOperationTaskESaIvELN9__gnu_cxx12_Lock_policyE2EE10_M_disposeEv, .-_ZNSt23_Sp_counted_ptr_inplaceIN8opendnp320RestartOperationTaskESaIvELN9__gnu_cxx12_Lock_policyE2EE10_M_disposeEv
	.section	.text.unlikely
.LCOLDB3:
	.text
.LHOTB3:
	.p2align 4
	.globl	_ZThn16_N8opendnp38MContext19SetTaskStartTimeoutERKN7openpal18MonotonicTimestampE
	.type	_ZThn16_N8opendnp38MContext19SetTaskStartTimeoutERKN7openpal18MonotonicTimestampE, @function
_ZThn16_N8opendnp38MContext19SetTaskStartTimeoutERKN7openpal18MonotonicTimestampE:
.LFB5120:
	.cfi_startproc
	.cfi_personality 0x9b,DW.ref.__gxx_personality_v0
	.cfi_lsda 0x1b,.LLSDA5120
	pushq	%r14
	.cfi_def_cfa_offset 16
	.cfi_offset 14, -16
	leaq	-16(%rdi), %rax
	addq	$208, %rdi
	pushq	%rbx
	.cfi_def_cfa_offset 24
	.cfi_offset 3, -24
	subq	$40, %rsp
	.cfi_def_cfa_offset 64
	movq	.LC0(%rip), %xmm0
	movq	%rax, 8(%rsp)
	leaq	_ZNSt17_Function_handlerIFvvEZN7openpal8TimerRef7RestartIZN8opendnp38MContext19SetTaskStartTimeoutERKNS1_18MonotonicTimestampEEUlvE_EEvS8_RKT_EUlvE_E9_M_invokeERKSt9_Any_data(%rip), %rax
	movq	%rsp, %rdx
	movq	%rax, %xmm1
	movq	%rdi, (%rsp)
	punpcklqdq	%xmm1, %xmm0
	movaps	%xmm0, 16(%rsp)
.LEHB4:
	call	_ZN7openpal8TimerRef13RestartActionERKNS_18MonotonicTimestampERKSt8functionIFvvEE@PLT
.LEHE4:
	movq	16(%rsp), %rax
	testq	%rax, %rax
	je	.L191
	movl	$3, %edx
	movq	%rsp, %rsi
	movq	%rsp, %rdi
	call	*%rax
.L191:
	addq	$40, %rsp
	.cfi_remember_state
	.cfi_def_cfa_offset 24
	popq	%rbx
	.cfi_def_cfa_offset 16
	popq	%r14
	.cfi_def_cfa_offset 8
	ret
.L195:
	.cfi_restore_state
	movq	%rax, %r14
	jmp	.L193
	.section	.gcc_except_table
.LLSDA5120:
	.byte	0xff
	.byte	0xff
	.byte	0x1
	.uleb128 .LLSDACSE5120-.LLSDACSB5120
.LLSDACSB5120:
	.uleb128 .LEHB4-.LFB5120
	.uleb128 .LEHE4-.LEHB4
	.uleb128 .L195-.LFB5120
	.uleb128 0
.LLSDACSE5120:
	.text
	.cfi_endproc
	.section	.text.unlikely
	.cfi_startproc
	.cfi_personality 0x9b,DW.ref.__gxx_personality_v0
	.cfi_lsda 0x1b,.LLSDAC5120
	.type	_ZThn16_N8opendnp38MContext19SetTaskStartTimeoutERKN7openpal18MonotonicTimestampE.cold, @function
_ZThn16_N8opendnp38MContext19SetTaskStartTimeoutERKN7openpal18MonotonicTimestampE.cold:
.LFSB5120:
.L193:
	.cfi_def_cfa_offset 64
	.cfi_offset 3, -24
	.cfi_offset 14, -16
	movq	16(%rsp), %rax
	testq	%rax, %rax
	je	.L194
	movl	$3, %edx
	movq	%rsp, %rsi
	movq	%rsp, %rdi
	call	*%rax
.L194:
	movq	%r14, %rdi
.LEHB5:
	call	_Unwind_Resume@PLT
.LEHE5:
	.cfi_endproc
.LFE5120:
	.section	.gcc_except_table
.LLSDAC5120:
	.byte	0xff
	.byte	0xff
	.byte	0x1
	.uleb128 .LLSDACSEC5120-.LLSDACSBC5120
.LLSDACSBC5120:
	.uleb128 .LEHB5-.LCOLDB3
	.uleb128 .LEHE5-.LEHB5
	.uleb128 0
	.uleb128 0
.LLSDACSEC5120:
	.section	.text.unlikely
	.text
	.size	_ZThn16_N8opendnp38MContext19SetTaskStartTimeoutERKN7openpal18MonotonicTimestampE, .-_ZThn16_N8opendnp38MContext19SetTaskStartTimeoutERKN7openpal18MonotonicTimestampE
	.section	.text.unlikely
	.size	_ZThn16_N8opendnp38MContext19SetTaskStartTimeoutERKN7openpal18MonotonicTimestampE.cold, .-_ZThn16_N8opendnp38MContext19SetTaskStartTimeoutERKN7openpal18MonotonicTimestampE.cold
.LCOLDE3:
	.text
.LHOTE3:
	.align 2
	.p2align 4
	.globl	_ZN8opendnp38MContext10ProcessIINERKNS_8IINFieldE
	.type	_ZN8opendnp38MContext10ProcessIINERKNS_8IINFieldE, @function
_ZN8opendnp38MContext10ProcessIINERKNS_8IINFieldE:
.LFB3429:
	.cfi_startproc
	pushq	%rbp
	.cfi_def_cfa_offset 16
	.cfi_offset 6, -16
	movq	%rdi, %rbp
	pushq	%rbx
	.cfi_def_cfa_offset 24
	.cfi_offset 3, -24
	movq	%rsi, %rbx
	movl	$7, %esi
	movq	%rbx, %rdi
	subq	$8, %rsp
	.cfi_def_cfa_offset 32
	call	_ZNK8opendnp38IINField5IsSetENS_6IINBitE@PLT
	testb	%al, %al
	je	.L204
	cmpb	$0, 98(%rbp)
	je	.L229
.L204:
	movl	$11, %esi
	movq	%rbx, %rdi
	call	_ZNK8opendnp38IINField5IsSetENS_6IINBitE@PLT
	testb	%al, %al
	je	.L205
	cmpb	$0, 101(%rbp)
	jne	.L230
.L205:
	movl	$4, %esi
	movq	%rbx, %rdi
	call	_ZNK8opendnp38IINField5IsSetENS_6IINBitE@PLT
	testb	%al, %al
	je	.L206
	cmpb	$1, 96(%rbp)
	je	.L231
.L206:
	movl	$1, %esi
	movq	%rbx, %rdi
	call	_ZNK8opendnp38IINField5IsSetENS_6IINBitE@PLT
	testb	%al, %al
	je	.L210
	leaq	102(%rbp), %rdi
	call	_ZNK8opendnp310ClassField9HasClass1Ev@PLT
	testb	%al, %al
	je	.L210
.L214:
	movq	336(%rbp), %rdi
	call	_ZN8opendnp311IMasterTask6DemandEv@PLT
.L211:
	movq	144(%rbp), %rdi
	movq	(%rdi), %rax
	movq	48(%rax), %rax
	cmpq	_ZN8opendnp318IMasterApplication12OnReceiveIINERKNS_8IINFieldE@GOTPCREL(%rip), %rax
	jne	.L232
	addq	$8, %rsp
	.cfi_remember_state
	.cfi_def_cfa_offset 24
	popq	%rbx
	.cfi_def_cfa_offset 16
	popq	%rbp
	.cfi_def_cfa_offset 8
	ret
	.p2align 4,,10
	.p2align 3
.L210:
	.cfi_restore_state
	movl	$2, %esi
	movq	%rbx, %rdi
	call	_ZNK8opendnp38IINField5IsSetENS_6IINBitE@PLT
	testb	%al, %al
	je	.L209
	leaq	102(%rbp), %rdi
	call	_ZNK8opendnp310ClassField9HasClass2Ev@PLT
	testb	%al, %al
	jne	.L214
.L209:
	movl	$3, %esi
	movq	%rbx, %rdi
	call	_ZNK8opendnp38IINField5IsSetENS_6IINBitE@PLT
	testb	%al, %al
	je	.L211
	leaq	102(%rbp), %rdi
	call	_ZNK8opendnp310ClassField9HasClass3Ev@PLT
	testb	%al, %al
	jne	.L214
	jmp	.L211
	.p2align 4,,10
	.p2align 3
.L232:
	addq	$8, %rsp
	.cfi_remember_state
	.cfi_def_cfa_offset 24
	movq	%rbx, %rsi
	popq	%rbx
	.cfi_def_cfa_offset 16
	popq	%rbp
	.cfi_def_cfa_offset 8
	jmp	*%rax
	.p2align 4,,10
	.p2align 3
.L229:
	.cfi_restore_state
	movq	256(%rbp), %rdi
	call	_ZN8opendnp311IMasterTask6DemandEv@PLT
	movq	272(%rbp), %rdi
	call	_ZN8opendnp311IMasterTask6DemandEv@PLT
	movq	288(%rbp), %rdi
	call	_ZN8opendnp311IMasterTask6DemandEv@PLT
	movq	240(%rbp), %rdi
	call	_ZN8opendnp311IMasterTask6DemandEv@PLT
	jmp	.L204
	.p2align 4,,10
	.p2align 3
.L230:
	movq	288(%rbp), %rdi
	call	_ZN8opendnp311IMasterTask6DemandEv@PLT
	jmp	.L205
	.p2align 4,,10
	.p2align 3
.L231:
	movq	320(%rbp), %rdi
	call	_ZN8opendnp311IMasterTask6DemandEv@PLT
	jmp	.L206
	.cfi_endproc
.LFE3429:
	.size	_ZN8opendnp38MContext10ProcessIINERKNS_8IINFieldE, .-_ZN8opendnp38MContext10ProcessIINERKNS_8IINFieldE
	.section	.text.unlikely
	.align 2
.LCOLDB5:
	.text
.LHOTB5:
	.align 2
	.p2align 4
	.globl	_ZN8opendnp38MContext18StartResponseTimerEv
	.type	_ZN8opendnp38MContext18StartResponseTimerEv, @function
_ZN8opendnp38MContext18StartResponseTimerEv:
.LFB3435:
	.cfi_startproc
	.cfi_personality 0x9b,DW.ref.__gxx_personality_v0
	.cfi_lsda 0x1b,.LLSDA3435
	pushq	%r14
	.cfi_def_cfa_offset 16
	.cfi_offset 14, -16
	leaq	_ZNSt17_Function_handlerIFvvEZN7openpal8TimerRef5StartIZN8opendnp38MContext18StartResponseTimerEvEUlvE_EEbRKNS1_12TimeDurationERKT_EUlvE_E9_M_invokeERKSt9_Any_data(%rip), %rdx
	leaq	192(%rdi), %rax
	pushq	%rbx
	.cfi_def_cfa_offset 24
	.cfi_offset 3, -24
	movq	%rdx, %xmm1
	leaq	88(%rdi), %rsi
	subq	$40, %rsp
	.cfi_def_cfa_offset 64
	movq	.LC4(%rip), %xmm0
	movq	%rdi, 8(%rsp)
	movq	%rsp, %rdx
	movq	%rax, %rdi
	punpcklqdq	%xmm1, %xmm0
	movq	%rax, (%rsp)
	movaps	%xmm0, 16(%rsp)
.LEHB6:
	call	_ZN7openpal8TimerRef11StartActionERKNS_12TimeDurationERKSt8functionIFvvEE@PLT
.LEHE6:
	movq	16(%rsp), %rax
	testq	%rax, %rax
	je	.L233
	movl	$3, %edx
	movq	%rsp, %rsi
	movq	%rsp, %rdi
	call	*%rax
.L233:
	addq	$40, %rsp
	.cfi_remember_state
	.cfi_def_cfa_offset 24
	popq	%rbx
	.cfi_def_cfa_offset 16
	popq	%r14
	.cfi_def_cfa_offset 8
	ret
.L237:
	.cfi_restore_state
	movq	%rax, %r14
	jmp	.L235
	.section	.gcc_except_table
.LLSDA3435:
	.byte	0xff
	.byte	0xff
	.byte	0x1
	.uleb128 .LLSDACSE3435-.LLSDACSB3435
.LLSDACSB3435:
	.uleb128 .LEHB6-.LFB3435
	.uleb128 .LEHE6-.LEHB6
	.uleb128 .L237-.LFB3435
	.uleb128 0
.LLSDACSE3435:
	.text
	.cfi_endproc
	.section	.text.unlikely
	.cfi_startproc
	.cfi_personality 0x9b,DW.ref.__gxx_personality_v0
	.cfi_lsda 0x1b,.LLSDAC3435
	.type	_ZN8opendnp38MContext18StartResponseTimerEv.cold, @function
_ZN8opendnp38MContext18StartResponseTimerEv.cold:
.LFSB3435:
.L235:
	.cfi_def_cfa_offset 64
	.cfi_offset 3, -24
	.cfi_offset 14, -16
	movq	16(%rsp), %rax
	testq	%rax, %rax
	je	.L236
	movl	$3, %edx
	movq	%rsp, %rsi
	movq	%rsp, %rdi
	call	*%rax
.L236:
	movq	%r14, %rdi
.LEHB7:
	call	_Unwind_Resume@PLT
.LEHE7:
	.cfi_endproc
.LFE3435:
	.section	.gcc_except_table
.LLSDAC3435:
	.byte	0xff
	.byte	0xff
	.byte	0x1
	.uleb128 .LLSDACSEC3435-.LLSDACSBC3435
.LLSDACSBC3435:
	.uleb128 .LEHB7-.LCOLDB5
	.uleb128 .LEHE7-.LEHB7
	.uleb128 0
	.uleb128 0
.LLSDACSEC3435:
	.section	.text.unlikely
	.text
	.size	_ZN8opendnp38MContext18StartResponseTimerEv, .-_ZN8opendnp38MContext18StartResponseTimerEv
	.section	.text.unlikely
	.size	_ZN8opendnp38MContext18StartResponseTimerEv.cold, .-_ZN8opendnp38MContext18StartResponseTimerEv.cold
.LCOLDE5:
	.text
.LHOTE5:
	.section	.text.unlikely
	.align 2
.LCOLDB7:
	.text
.LHOTB7:
	.align 2
	.p2align 4
	.globl	_ZN8opendnp38MContext16PostCheckForTaskEv
	.type	_ZN8opendnp38MContext16PostCheckForTaskEv, @function
_ZN8opendnp38MContext16PostCheckForTaskEv:
.LFB3437:
	.cfi_startproc
	.cfi_personality 0x9b,DW.ref.__gxx_personality_v0
	.cfi_lsda 0x1b,.LLSDA3437
	pushq	%r14
	.cfi_def_cfa_offset 16
	.cfi_offset 14, -16
	movq	%rdi, %rax
	pushq	%rbx
	.cfi_def_cfa_offset 24
	.cfi_offset 3, -24
	subq	$40, %rsp
	.cfi_def_cfa_offset 64
	movq	56(%rdi), %rdi
	movq	.LC6(%rip), %xmm0
	movq	%rsp, %rsi
	movq	(%rdi), %rdx
	movq	%rax, (%rsp)
	leaq	_ZNSt17_Function_handlerIFvvEZN8opendnp38MContext16PostCheckForTaskEvEUlvE_E9_M_invokeERKSt9_Any_data(%rip), %rax
	movq	$0, 8(%rsp)
	movq	%rax, %xmm1
	punpcklqdq	%xmm1, %xmm0
	movaps	%xmm0, 16(%rsp)
.LEHB8:
	call	*40(%rdx)
.LEHE8:
	movq	16(%rsp), %rax
	testq	%rax, %rax
	je	.L245
	movl	$3, %edx
	movq	%rsp, %rsi
	movq	%rsp, %rdi
	call	*%rax
.L245:
	addq	$40, %rsp
	.cfi_remember_state
	.cfi_def_cfa_offset 24
	popq	%rbx
	.cfi_def_cfa_offset 16
	popq	%r14
	.cfi_def_cfa_offset 8
	ret
.L249:
	.cfi_restore_state
	movq	%rax, %r14
	jmp	.L247
	.section	.gcc_except_table
.LLSDA3437:
	.byte	0xff
	.byte	0xff
	.byte	0x1
	.uleb128 .LLSDACSE3437-.LLSDACSB3437
.LLSDACSB3437:
	.uleb128 .LEHB8-.LFB3437
	.uleb128 .LEHE8-.LEHB8
	.uleb128 .L249-.LFB3437
	.uleb128 0
.LLSDACSE3437:
	.text
	.cfi_endproc
	.section	.text.unlikely
	.cfi_startproc
	.cfi_personality 0x9b,DW.ref.__gxx_personality_v0
	.cfi_lsda 0x1b,.LLSDAC3437
	.type	_ZN8opendnp38MContext16PostCheckForTaskEv.cold, @function
_ZN8opendnp38MContext16PostCheckForTaskEv.cold:
.LFSB3437:
.L247:
	.cfi_def_cfa_offset 64
	.cfi_offset 3, -24
	.cfi_offset 14, -16
	movq	16(%rsp), %rax
	testq	%rax, %rax
	je	.L248
	movl	$3, %edx
	movq	%rsp, %rsi
	movq	%rsp, %rdi
	call	*%rax
.L248:
	movq	%r14, %rdi
.LEHB9:
	call	_Unwind_Resume@PLT
.LEHE9:
	.cfi_endproc
.LFE3437:
	.section	.gcc_except_table
.LLSDAC3437:
	.byte	0xff
	.byte	0xff
	.byte	0x1
	.uleb128 .LLSDACSEC3437-.LLSDACSBC3437
.LLSDACSBC3437:
	.uleb128 .LEHB9-.LCOLDB7
	.uleb128 .LEHE9-.LEHB9
	.uleb128 0
	.uleb128 0
.LLSDACSEC3437:
	.section	.text.unlikely
	.text
	.size	_ZN8opendnp38MContext16PostCheckForTaskEv, .-_ZN8opendnp38MContext16PostCheckForTaskEv
	.section	.text.unlikely
	.size	_ZN8opendnp38MContext16PostCheckForTaskEv.cold, .-_ZN8opendnp38MContext16PostCheckForTaskEv.cold
.LCOLDE7:
	.text
.LHOTE7:
	.section	.text._ZN8opendnp38MContext13OnPendingTaskEv,"axG",@progbits,_ZN8opendnp38MContext13OnPendingTaskEv,comdat
	.align 2
	.p2align 4
	.weak	_ZN8opendnp38MContext13OnPendingTaskEv
	.type	_ZN8opendnp38MContext13OnPendingTaskEv, @function
_ZN8opendnp38MContext13OnPendingTaskEv:
.LFB3112:
	.cfi_startproc
	jmp	_ZN8opendnp38MContext16PostCheckForTaskEv@PLT
	.cfi_endproc
.LFE3112:
	.size	_ZN8opendnp38MContext13OnPendingTaskEv, .-_ZN8opendnp38MContext13OnPendingTaskEv
	.text
	.align 2
	.p2align 4
	.globl	_ZN8opendnp38MContext14OnLowerLayerUpEv
	.type	_ZN8opendnp38MContext14OnLowerLayerUpEv, @function
_ZN8opendnp38MContext14OnLowerLayerUpEv:
.LFB3418:
	.cfi_startproc
	cmpb	$0, 168(%rdi)
	je	.L268
	xorl	%eax, %eax
	ret
	.p2align 4,,10
	.p2align 3
.L268:
	pushq	%rbx
	.cfi_def_cfa_offset 16
	.cfi_offset 3, -16
	leaq	376(%rdi), %rsi
	movq	%rdi, %rbx
	leaq	240(%rdi), %rdi
	movb	$1, -72(%rdi)
	call	_ZN8opendnp311MasterTasks10InitializeERNS_15MasterSchedulerE@PLT
	movq	%rbx, %rdi
	call	_ZN8opendnp38MContext16PostCheckForTaskEv@PLT
	movq	144(%rbx), %rdi
	movq	(%rdi), %rax
	movq	72(%rax), %rax
	cmpq	_ZN8opendnp318IMasterApplication6OnOpenEv@GOTPCREL(%rip), %rax
	jne	.L260
.L261:
	movl	$1, %eax
	popq	%rbx
	.cfi_remember_state
	.cfi_def_cfa_offset 8
	ret
	.p2align 4,,10
	.p2align 3
.L260:
	.cfi_restore_state
	call	*%rax
	jmp	.L261
	.cfi_endproc
.LFE3418:
	.size	_ZN8opendnp38MContext14OnLowerLayerUpEv, .-_ZN8opendnp38MContext14OnLowerLayerUpEv
	.section	.text._ZN8opendnp38MContext13OnPendingTaskEv,"axG",@progbits,_ZN8opendnp38MContext13OnPendingTaskEv,comdat
	.p2align 4
	.weak	_ZThn8_N8opendnp38MContext13OnPendingTaskEv
	.type	_ZThn8_N8opendnp38MContext13OnPendingTaskEv, @function
_ZThn8_N8opendnp38MContext13OnPendingTaskEv:
.LFB5119:
	.cfi_startproc
	subq	$8, %rdi
	jmp	_ZN8opendnp38MContext16PostCheckForTaskEv@PLT
	.cfi_endproc
.LFE5119:
	.size	_ZThn8_N8opendnp38MContext13OnPendingTaskEv, .-_ZThn8_N8opendnp38MContext13OnPendingTaskEv
	.text
	.align 2
	.p2align 4
	.globl	_ZN8opendnp38MContext25ScheduleRecurringPollTaskERKSt10shared_ptrINS_11IMasterTaskEE
	.type	_ZN8opendnp38MContext25ScheduleRecurringPollTaskERKSt10shared_ptrINS_11IMasterTaskEE, @function
_ZN8opendnp38MContext25ScheduleRecurringPollTaskERKSt10shared_ptrINS_11IMasterTaskEE:
.LFB3498:
	.cfi_startproc
	pushq	%rbp
	.cfi_def_cfa_offset 16
	.cfi_offset 6, -16
	movq	%rsi, %rbp
	pushq	%rbx
	.cfi_def_cfa_offset 24
	.cfi_offset 3, -24
	movq	%rdi, %rbx
	addq	$240, %rdi
	subq	$8, %rsp
	.cfi_def_cfa_offset 32
	call	_ZN8opendnp311MasterTasks8BindTaskERKSt10shared_ptrINS_11IMasterTaskEE@PLT
	cmpb	$0, 168(%rbx)
	jne	.L273
	addq	$8, %rsp
	.cfi_remember_state
	.cfi_def_cfa_offset 24
	popq	%rbx
	.cfi_def_cfa_offset 16
	popq	%rbp
	.cfi_def_cfa_offset 8
	ret
	.p2align 4,,10
	.p2align 3
.L273:
	.cfi_restore_state
	leaq	376(%rbx), %rdi
	movq	%rbp, %rsi
	call	_ZN8opendnp315MasterScheduler8ScheduleERKSt10shared_ptrINS_11IMasterTaskEE@PLT
	addq	$8, %rsp
	.cfi_def_cfa_offset 24
	movq	%rbx, %rdi
	popq	%rbx
	.cfi_def_cfa_offset 16
	popq	%rbp
	.cfi_def_cfa_offset 8
	jmp	_ZN8opendnp38MContext16PostCheckForTaskEv@PLT
	.cfi_endproc
.LFE3498:
	.size	_ZN8opendnp38MContext25ScheduleRecurringPollTaskERKSt10shared_ptrINS_11IMasterTaskEE, .-_ZN8opendnp38MContext25ScheduleRecurringPollTaskERKSt10shared_ptrINS_11IMasterTaskEE
	.section	.text._ZNSt16_Sp_counted_baseILN9__gnu_cxx12_Lock_policyE2EE24_M_release_last_use_coldEv,"axG",@progbits,_ZNSt16_Sp_counted_baseILN9__gnu_cxx12_Lock_policyE2EE24_M_release_last_use_coldEv,comdat
	.align 2
	.p2align 4
	.weak	_ZNSt16_Sp_counted_baseILN9__gnu_cxx12_Lock_policyE2EE24_M_release_last_use_coldEv
	.type	_ZNSt16_Sp_counted_baseILN9__gnu_cxx12_Lock_policyE2EE24_M_release_last_use_coldEv, @function
_ZNSt16_Sp_counted_baseILN9__gnu_cxx12_Lock_policyE2EE24_M_release_last_use_coldEv:
.LFB3518:
	.cfi_startproc
	pushq	%rbx
	.cfi_def_cfa_offset 16
	.cfi_offset 3, -16
	movq	(%rdi), %rax
	movq	%rdi, %rbx
	call	*16(%rax)
	movq	__libc_single_threaded@GOTPCREL(%rip), %rax
	cmpb	$0, (%rax)
	je	.L275
	movl	12(%rbx), %eax
	leal	-1(%rax), %edx
	movl	%edx, 12(%rbx)
.L276:
	cmpl	$1, %eax
	je	.L279
	popq	%rbx
	.cfi_remember_state
	.cfi_def_cfa_offset 8
	ret
	.p2align 4,,10
	.p2align 3
.L279:
	.cfi_restore_state
	movq	(%rbx), %rax
	movq	%rbx, %rdi
	popq	%rbx
	.cfi_remember_state
	.cfi_def_cfa_offset 8
	movq	24(%rax), %rax
	jmp	*%rax
	.p2align 4,,10
	.p2align 3
.L275:
	.cfi_restore_state
	movl	$-1, %eax
	lock xaddl	%eax, 12(%rbx)
	jmp	.L276
	.cfi_endproc
.LFE3518:
	.size	_ZNSt16_Sp_counted_baseILN9__gnu_cxx12_Lock_policyE2EE24_M_release_last_use_coldEv, .-_ZNSt16_Sp_counted_baseILN9__gnu_cxx12_Lock_policyE2EE24_M_release_last_use_coldEv
	.section	.text._ZNSt16_Sp_counted_baseILN9__gnu_cxx12_Lock_policyE2EE10_M_releaseEv,"axG",@progbits,_ZNSt16_Sp_counted_baseILN9__gnu_cxx12_Lock_policyE2EE10_M_releaseEv,comdat
	.align 2
	.p2align 4
	.weak	_ZNSt16_Sp_counted_baseILN9__gnu_cxx12_Lock_policyE2EE10_M_releaseEv
	.type	_ZNSt16_Sp_counted_baseILN9__gnu_cxx12_Lock_policyE2EE10_M_releaseEv, @function
_ZNSt16_Sp_counted_baseILN9__gnu_cxx12_Lock_policyE2EE10_M_releaseEv:
.LFB1292:
	.cfi_startproc
	movabsq	$4294967297, %rax
	movq	8(%rdi), %rdx
	cmpq	%rax, %rdx
	je	.L288
	movq	__libc_single_threaded@GOTPCREL(%rip), %rax
	cmpb	$0, (%rax)
	je	.L282
	movl	8(%rdi), %eax
	leal	-1(%rax), %edx
	movl	%edx, 8(%rdi)
.L283:
	cmpl	$1, %eax
	je	.L289
	ret
	.p2align 4,,10
	.p2align 3
.L282:
	leaq	8(%rdi), %rcx
	movl	$-1, %eax
	lock xaddl	%eax, (%rcx)
	jmp	.L283
	.p2align 4,,10
	.p2align 3
.L288:
	subq	$24, %rsp
	.cfi_def_cfa_offset 32
	movq	(%rdi), %rax
	movq	$0, 8(%rdi)
	movq	%rdi, 8(%rsp)
	call	*16(%rax)
	movq	8(%rsp), %rdi
	movq	(%rdi), %rax
	movq	24(%rax), %rax
	addq	$24, %rsp
	.cfi_def_cfa_offset 8
	jmp	*%rax
	.p2align 4,,10
	.p2align 3
.L289:
	jmp	_ZNSt16_Sp_counted_baseILN9__gnu_cxx12_Lock_policyE2EE24_M_release_last_use_coldEv@PLT
	.cfi_endproc
.LFE1292:
	.size	_ZNSt16_Sp_counted_baseILN9__gnu_cxx12_Lock_policyE2EE10_M_releaseEv, .-_ZNSt16_Sp_counted_baseILN9__gnu_cxx12_Lock_policyE2EE10_M_releaseEv
	.section	.text._ZN7openpal6LoggerD2Ev,"axG",@progbits,_ZN7openpal6LoggerD5Ev,comdat
	.align 2
	.p2align 4
	.weak	_ZN7openpal6LoggerD2Ev
	.type	_ZN7openpal6LoggerD2Ev, @function
_ZN7openpal6LoggerD2Ev:
.LFB2101:
	.cfi_startproc
	subq	$24, %rsp
	.cfi_def_cfa_offset 32
	movq	%rdi, %rax
	movq	24(%rdi), %rdi
	testq	%rdi, %rdi
	je	.L292
	movq	8(%rdi), %rcx
	leaq	8(%rdi), %rsi
	movabsq	$4294967297, %rdx
	cmpq	%rdx, %rcx
	je	.L304
	movq	__libc_single_threaded@GOTPCREL(%rip), %rdx
	cmpb	$0, (%rdx)
	je	.L294
	movl	8(%rdi), %edx
	leal	-1(%rdx), %ecx
	movl	%ecx, 8(%rdi)
.L295:
	cmpl	$1, %edx
	je	.L305
.L292:
	movq	8(%rax), %rdi
	testq	%rdi, %rdi
	je	.L290
	movq	8(%rdi), %rdx
	leaq	8(%rdi), %rcx
	movabsq	$4294967297, %rax
	cmpq	%rax, %rdx
	je	.L306
	movq	__libc_single_threaded@GOTPCREL(%rip), %rax
	cmpb	$0, (%rax)
	je	.L300
	movl	8(%rdi), %eax
	leal	-1(%rax), %edx
	movl	%edx, 8(%rdi)
.L301:
	cmpl	$1, %eax
	je	.L307
.L290:
	addq	$24, %rsp
	.cfi_remember_state
	.cfi_def_cfa_offset 8
	ret
	.p2align 4,,10
	.p2align 3
.L306:
	.cfi_restore_state
	movq	(%rdi), %rax
	movq	%rdi, (%rsp)
	movq	$0, 8(%rdi)
	call	*16(%rax)
	movq	(%rsp), %rdi
	movq	(%rdi), %rax
	movq	24(%rax), %rax
	addq	$24, %rsp
	.cfi_remember_state
	.cfi_def_cfa_offset 8
	jmp	*%rax
	.p2align 4,,10
	.p2align 3
.L304:
	.cfi_restore_state
	movq	(%rdi), %rdx
	movq	%rax, 8(%rsp)
	movq	$0, 8(%rdi)
	movq	%rdi, (%rsp)
	call	*16(%rdx)
	movq	(%rsp), %rdi
	movq	(%rdi), %rdx
	call	*24(%rdx)
	movq	8(%rsp), %rax
	jmp	.L292
	.p2align 4,,10
	.p2align 3
.L300:
	movl	$-1, %eax
	lock xaddl	%eax, (%rcx)
	jmp	.L301
	.p2align 4,,10
	.p2align 3
.L294:
	movl	$-1, %edx
	lock xaddl	%edx, (%rsi)
	jmp	.L295
	.p2align 4,,10
	.p2align 3
.L305:
	movq	%rax, (%rsp)
	call	_ZNSt16_Sp_counted_baseILN9__gnu_cxx12_Lock_policyE2EE24_M_release_last_use_coldEv@PLT
	movq	(%rsp), %rax
	jmp	.L292
	.p2align 4,,10
	.p2align 3
.L307:
	addq	$24, %rsp
	.cfi_def_cfa_offset 8
	jmp	_ZNSt16_Sp_counted_baseILN9__gnu_cxx12_Lock_policyE2EE24_M_release_last_use_coldEv@PLT
	.cfi_endproc
.LFE2101:
	.size	_ZN7openpal6LoggerD2Ev, .-_ZN7openpal6LoggerD2Ev
	.weak	_ZN7openpal6LoggerD1Ev
	.set	_ZN7openpal6LoggerD1Ev,_ZN7openpal6LoggerD2Ev
	.section	.text.unlikely
	.align 2
.LCOLDB8:
	.text
.LHOTB8:
	.align 2
	.p2align 4
	.globl	_ZN8opendnp38MContext8TransmitERKN7openpal6RSliceE
	.type	_ZN8opendnp38MContext8TransmitERKN7openpal6RSliceE, @function
_ZN8opendnp38MContext8TransmitERKN7openpal6RSliceE:
.LFB3434:
	.cfi_startproc
	.cfi_personality 0x9b,DW.ref.__gxx_personality_v0
	.cfi_lsda 0x1b,.LLSDA3434
	pushq	%r12
	.cfi_def_cfa_offset 16
	.cfi_offset 12, -16
	pushq	%rbp
	.cfi_def_cfa_offset 24
	.cfi_offset 6, -24
	movq	%rsi, %rbp
	pushq	%rbx
	.cfi_def_cfa_offset 32
	.cfi_offset 3, -32
	movq	%rdi, %rbx
	subq	$32, %rsp
	.cfi_def_cfa_offset 64
	movdqu	24(%rdi), %xmm0
	movhlps	%xmm0, %xmm1
	movaps	%xmm0, (%rsp)
	movq	%xmm1, %rax
	testq	%rax, %rax
	je	.L309
	movq	__libc_single_threaded@GOTPCREL(%rip), %rdx
	cmpb	$0, (%rdx)
	je	.L310
	addl	$1, 8(%rax)
.L309:
	movdqu	40(%rbx), %xmm0
	movhlps	%xmm0, %xmm2
	movaps	%xmm0, 16(%rsp)
	movq	%xmm2, %rax
	testq	%rax, %rax
	je	.L311
	movq	__libc_single_threaded@GOTPCREL(%rip), %rdx
	cmpb	$0, (%rdx)
	je	.L312
	addl	$1, 8(%rax)
.L311:
	movq	%rbp, %rsi
	movq	%rsp, %rdi
.LEHB10:
	call	_ZN8opendnp37logging20ParseAndLogRequestTxEN7openpal6LoggerERKNS1_6RSliceE@PLT
.LEHE10:
	movq	24(%rsp), %r12
	testq	%r12, %r12
	je	.L314
	movq	8(%r12), %rdx
	leaq	8(%r12), %rcx
	movabsq	$4294967297, %rax
	cmpq	%rax, %rdx
	je	.L334
	movq	__libc_single_threaded@GOTPCREL(%rip), %rax
	cmpb	$0, (%rax)
	je	.L316
	movl	8(%r12), %eax
	leal	-1(%rax), %edx
	movl	%edx, 8(%r12)
.L317:
	cmpl	$1, %eax
	je	.L335
.L314:
	movq	8(%rsp), %r12
	testq	%r12, %r12
	je	.L320
	movq	8(%r12), %rdx
	leaq	8(%r12), %rcx
	movabsq	$4294967297, %rax
	cmpq	%rax, %rdx
	je	.L336
	movq	__libc_single_threaded@GOTPCREL(%rip), %rax
	cmpb	$0, (%rax)
	je	.L322
	movl	8(%r12), %eax
	leal	-1(%rax), %edx
	movl	%edx, 8(%r12)
.L323:
	cmpl	$1, %eax
	je	.L337
.L320:
	movq	72(%rbx), %rdi
	movb	$1, 169(%rbx)
	movq	%rbp, %rsi
	movq	(%rdi), %rax
	movq	16(%rax), %rax
	addq	$32, %rsp
	.cfi_remember_state
	.cfi_def_cfa_offset 32
	popq	%rbx
	.cfi_def_cfa_offset 24
	popq	%rbp
	.cfi_def_cfa_offset 16
	popq	%r12
	.cfi_def_cfa_offset 8
.LEHB11:
	jmp	*%rax
.LEHE11:
	.p2align 4,,10
	.p2align 3
.L310:
	.cfi_restore_state
	lock addl	$1, 8(%rax)
	jmp	.L309
	.p2align 4,,10
	.p2align 3
.L312:
	lock addl	$1, 8(%rax)
	jmp	.L311
	.p2align 4,,10
	.p2align 3
.L334:
	movq	$0, 8(%r12)
	movq	(%r12), %rax
	movq	%r12, %rdi
	call	*16(%rax)
	movq	(%r12), %rax
	movq	%r12, %rdi
	call	*24(%rax)
	jmp	.L314
	.p2align 4,,10
	.p2align 3
.L336:
	movq	$0, 8(%r12)
	movq	(%r12), %rax
	movq	%r12, %rdi
	call	*16(%rax)
	movq	(%r12), %rax
	movq	%r12, %rdi
	call	*24(%rax)
	jmp	.L320
	.p2align 4,,10
	.p2align 3
.L322:
	movl	$-1, %eax
	lock xaddl	%eax, (%rcx)
	jmp	.L323
	.p2align 4,,10
	.p2align 3
.L316:
	movl	$-1, %eax
	lock xaddl	%eax, (%rcx)
	jmp	.L317
	.p2align 4,,10
	.p2align 3
.L335:
	movq	%r12, %rdi
	call	_ZNSt16_Sp_counted_baseILN9__gnu_cxx12_Lock_policyE2EE24_M_release_last_use_coldEv@PLT
	jmp	.L314
	.p2align 4,,10
	.p2align 3
.L337:
	movq	%r12, %rdi
	call	_ZNSt16_Sp_counted_baseILN9__gnu_cxx12_Lock_policyE2EE24_M_release_last_use_coldEv@PLT
	jmp	.L320
.L326:
	movq	%rax, %rbx
	jmp	.L325
	.section	.gcc_except_table
.LLSDA3434:
	.byte	0xff
	.byte	0xff
	.byte	0x1
	.uleb128 .LLSDACSE3434-.LLSDACSB3434
.LLSDACSB3434:
	.uleb128 .LEHB10-.LFB3434
	.uleb128 .LEHE10-.LEHB10
	.uleb128 .L326-.LFB3434
	.uleb128 0
	.uleb128 .LEHB11-.LFB3434
	.uleb128 .LEHE11-.LEHB11
	.uleb128 0
	.uleb128 0
.LLSDACSE3434:
	.text
	.cfi_endproc
	.section	.text.unlikely
	.cfi_startproc
	.cfi_personality 0x9b,DW.ref.__gxx_personality_v0
	.cfi_lsda 0x1b,.LLSDAC3434
	.type	_ZN8opendnp38MContext8TransmitERKN7openpal6RSliceE.cold, @function
_ZN8opendnp38MContext8TransmitERKN7openpal6RSliceE.cold:
.LFSB3434:
.L325:
	.cfi_def_cfa_offset 64
	.cfi_offset 3, -32
	.cfi_offset 6, -24
	.cfi_offset 12, -16
	movq	%rsp, %rdi
	call	_ZN7openpal6LoggerD1Ev@PLT
	movq	%rbx, %rdi
.LEHB12:
	call	_Unwind_Resume@PLT
.LEHE12:
	.cfi_endproc
.LFE3434:
	.section	.gcc_except_table
.LLSDAC3434:
	.byte	0xff
	.byte	0xff
	.byte	0x1
	.uleb128 .LLSDACSEC3434-.LLSDACSBC3434
.LLSDACSBC3434:
	.uleb128 .LEHB12-.LCOLDB8
	.uleb128 .LEHE12-.LEHB12
	.uleb128 0
	.uleb128 0
.LLSDACSEC3434:
	.section	.text.unlikely
	.text
	.size	_ZN8opendnp38MContext8TransmitERKN7openpal6RSliceE, .-_ZN8opendnp38MContext8TransmitERKN7openpal6RSliceE
	.section	.text.unlikely
	.size	_ZN8opendnp38MContext8TransmitERKN7openpal6RSliceE.cold, .-_ZN8opendnp38MContext8TransmitERKN7openpal6RSliceE.cold
.LCOLDE8:
	.text
.LHOTE8:
	.align 2
	.p2align 4
	.globl	_ZN8opendnp38MContext20CheckConfirmTransmitEv
	.type	_ZN8opendnp38MContext20CheckConfirmTransmitEv, @function
_ZN8opendnp38MContext20CheckConfirmTransmitEv:
.LFB3433:
	.cfi_startproc
	movzbl	169(%rdi), %eax
	testb	%al, %al
	jne	.L342
	movq	424(%rdi), %rdx
	cmpq	456(%rdi), %rdx
	je	.L344
	pushq	%r14
	.cfi_def_cfa_offset 16
	.cfi_offset 14, -16
	pushq	%rbp
	.cfi_def_cfa_offset 24
	.cfi_offset 6, -24
	pushq	%rbx
	.cfi_def_cfa_offset 32
	.cfi_offset 3, -32
	movq	%rdi, %rbx
	leaq	488(%rdi), %rdi
	subq	$96, %rsp
	.cfi_def_cfa_offset 128
	movl	(%rdx), %eax
	movzbl	(%rdx), %r14d
	leaq	48(%rsp), %rbp
	movl	%eax, 26(%rsp)
	movzwl	4(%rdx), %eax
	movw	%ax, 30(%rsp)
	call	_ZN7openpal6Buffer9GetWSliceEv@PLT
	leaq	32(%rsp), %rcx
	movq	%rbp, %rdi
	movq	%rcx, %rsi
	movq	%rcx, 8(%rsp)
	movl	%eax, 32(%rsp)
	movq	%rdx, 40(%rsp)
	call	_ZN8opendnp311APDUWrapperC1ERKN7openpal6WSliceE@PLT
	movl	%r14d, %esi
	movq	%rbp, %rdi
	call	_ZN8opendnp311APDUWrapper11SetFunctionENS_12FunctionCodeE@PLT
	movzbl	28(%rsp), %eax
	movzbl	27(%rsp), %edx
	movq	%rbp, %rdi
	movzbl	31(%rsp), %esi
	salq	$8, %rax
	orq	%rdx, %rax
	movzbl	29(%rsp), %edx
	salq	$32, %rsi
	salq	$16, %rdx
	orq	%rax, %rdx
	movzbl	30(%rsp), %eax
	salq	$24, %rax
	orq	%rdx, %rax
	orq	%rax, %rsi
	call	_ZN8opendnp311APDUWrapper10SetControlENS_15AppControlFieldE@PLT
	movq	%rbp, %rdi
	call	_ZNK8opendnp311APDUWrapper8ToRSliceEv@PLT
	movq	8(%rsp), %rsi
	movq	%rbx, %rdi
	movl	%eax, 32(%rsp)
	movq	%rdx, 40(%rsp)
	call	_ZN8opendnp38MContext8TransmitERKN7openpal6RSliceE@PLT
	movq	440(%rbx), %rcx
	movq	424(%rbx), %rax
	leaq	-6(%rcx), %rdx
	cmpq	%rdx, %rax
	je	.L340
	addq	$6, %rax
	movq	%rax, 424(%rbx)
.L341:
	addq	$96, %rsp
	.cfi_def_cfa_offset 32
	movl	$1, %eax
	popq	%rbx
	.cfi_def_cfa_offset 24
	popq	%rbp
	.cfi_def_cfa_offset 16
	popq	%r14
	.cfi_def_cfa_offset 8
	ret
	.p2align 4,,10
	.p2align 3
.L344:
	.cfi_restore 3
	.cfi_restore 6
	.cfi_restore 14
	ret
	.p2align 4,,10
	.p2align 3
.L342:
	xorl	%eax, %eax
	ret
	.p2align 4,,10
	.p2align 3
.L340:
	.cfi_def_cfa_offset 128
	.cfi_offset 3, -32
	.cfi_offset 6, -24
	.cfi_offset 14, -16
	movq	432(%rbx), %rdi
	movl	$510, %esi
	call	_ZdlPvm@PLT
	movq	448(%rbx), %rdx
	movq	8(%rdx), %rax
	addq	$8, %rdx
	movq	%rdx, %xmm1
	movq	%rax, %xmm0
	addq	$510, %rax
	punpcklqdq	%xmm0, %xmm0
	movups	%xmm0, 424(%rbx)
	movq	%rax, %xmm0
	punpcklqdq	%xmm1, %xmm0
	movups	%xmm0, 440(%rbx)
	jmp	.L341
	.cfi_endproc
.LFE3433:
	.size	_ZN8opendnp38MContext20CheckConfirmTransmitEv, .-_ZN8opendnp38MContext20CheckConfirmTransmitEv
	.align 2
	.p2align 4
	.globl	_ZN8opendnp38MContext18CompleteActiveTaskEv
	.type	_ZN8opendnp38MContext18CompleteActiveTaskEv, @function
_ZN8opendnp38MContext18CompleteActiveTaskEv:
.LFB3424:
	.cfi_startproc
	pushq	%rbx
	.cfi_def_cfa_offset 16
	.cfi_offset 3, -16
	movq	%rdi, %rbx
	subq	$16, %rsp
	.cfi_def_cfa_offset 32
	movq	176(%rdi), %rdi
	testq	%rdi, %rdi
	je	.L347
	movq	(%rdi), %rax
	call	*48(%rax)
	testb	%al, %al
	jne	.L358
	movq	184(%rbx), %rdi
	pxor	%xmm0, %xmm0
	movups	%xmm0, 176(%rbx)
	testq	%rdi, %rdi
	je	.L350
	movq	8(%rdi), %rdx
	leaq	8(%rdi), %rcx
	movabsq	$4294967297, %rax
	cmpq	%rax, %rdx
	je	.L359
	movq	__libc_single_threaded@GOTPCREL(%rip), %rax
	cmpb	$0, (%rax)
	je	.L353
	movl	8(%rdi), %eax
	leal	-1(%rax), %edx
	movl	%edx, 8(%rdi)
.L354:
	cmpl	$1, %eax
	jne	.L350
	call	_ZNSt16_Sp_counted_baseILN9__gnu_cxx12_Lock_policyE2EE24_M_release_last_use_coldEv@PLT
	jmp	.L350
	.p2align 4,,10
	.p2align 3
.L358:
	leaq	176(%rbx), %rsi
	leaq	376(%rbx), %rdi
	call	_ZN8opendnp315MasterScheduler8ScheduleERKSt10shared_ptrINS_11IMasterTaskEE@PLT
.L350:
	movq	160(%rbx), %rdi
	movq	(%rdi), %rax
	movq	8(%rax), %rax
	cmpq	_ZN8opendnp312NullTaskLock7ReleaseERNS_17IScheduleCallbackE@GOTPCREL(%rip), %rax
	jne	.L360
	addq	$16, %rsp
	.cfi_remember_state
	.cfi_def_cfa_offset 16
	movq	%rbx, %rdi
	popq	%rbx
	.cfi_def_cfa_offset 8
	jmp	_ZN8opendnp38MContext16PostCheckForTaskEv@PLT
	.p2align 4,,10
	.p2align 3
.L347:
	.cfi_restore_state
	addq	$16, %rsp
	.cfi_remember_state
	.cfi_def_cfa_offset 16
	popq	%rbx
	.cfi_def_cfa_offset 8
	ret
	.p2align 4,,10
	.p2align 3
.L359:
	.cfi_restore_state
	movq	(%rdi), %rax
	movq	%rdi, 8(%rsp)
	movq	$0, 8(%rdi)
	call	*16(%rax)
	movq	8(%rsp), %rdi
	movq	(%rdi), %rax
	call	*24(%rax)
	jmp	.L350
	.p2align 4,,10
	.p2align 3
.L360:
	leaq	8(%rbx), %rsi
	call	*%rax
	addq	$16, %rsp
	.cfi_remember_state
	.cfi_def_cfa_offset 16
	movq	%rbx, %rdi
	popq	%rbx
	.cfi_def_cfa_offset 8
	jmp	_ZN8opendnp38MContext16PostCheckForTaskEv@PLT
	.p2align 4,,10
	.p2align 3
.L353:
	.cfi_restore_state
	movl	$-1, %eax
	lock xaddl	%eax, (%rcx)
	jmp	.L354
	.cfi_endproc
.LFE3424:
	.size	_ZN8opendnp38MContext18CompleteActiveTaskEv, .-_ZN8opendnp38MContext18CompleteActiveTaskEv
	.align 2
	.p2align 4
	.globl	_ZN8opendnp38MContext33OnResponseTimeout_WaitForResponseEv
	.type	_ZN8opendnp38MContext33OnResponseTimeout_WaitForResponseEv, @function
_ZN8opendnp38MContext33OnResponseTimeout_WaitForResponseEv:
.LFB3511:
	.cfi_startproc
	pushq	%rbx
	.cfi_def_cfa_offset 16
	.cfi_offset 3, -16
	movq	%rdi, %rbx
	movq	56(%rdi), %rdi
	movq	(%rdi), %rax
	call	*16(%rax)
	movq	176(%rbx), %rdi
	movq	%rax, %rsi
	call	_ZN8opendnp311IMasterTask17OnResponseTimeoutEN7openpal18MonotonicTimestampE@PLT
	movzbl	170(%rbx), %eax
	movq	%rbx, %rdi
	addl	$1, %eax
	andl	$15, %eax
	movb	%al, 170(%rbx)
	call	_ZN8opendnp38MContext18CompleteActiveTaskEv@PLT
	xorl	%eax, %eax
	popq	%rbx
	.cfi_def_cfa_offset 8
	ret
	.cfi_endproc
.LFE3511:
	.size	_ZN8opendnp38MContext33OnResponseTimeout_WaitForResponseEv, .-_ZN8opendnp38MContext33OnResponseTimeout_WaitForResponseEv
	.section	.rodata.str1.1,"aMS",@progbits,1
.LC9:
	.string	"Unexpected response timeout"
	.section	.rodata.str1.8,"aMS",@progbits,1
	.align 8
.LC10:
	.string	"/opt/PLC/OpenPLC_v3/utils/dnp3_src/cpp/libs/src/opendnp3/master/MasterContext.cpp(540)"
	.text
	.align 2
	.p2align 4
	.globl	_ZN8opendnp38MContext22OnResponseTimeoutEventEv
	.type	_ZN8opendnp38MContext22OnResponseTimeoutEventEv, @function
_ZN8opendnp38MContext22OnResponseTimeoutEventEv:
.LFB3506:
	.cfi_startproc
	cmpl	$2, 512(%rdi)
	je	.L371
	pushq	%r12
	.cfi_def_cfa_offset 16
	.cfi_offset 12, -16
	pushq	%rbp
	.cfi_def_cfa_offset 24
	.cfi_offset 6, -24
	leaq	24(%rdi), %rbp
	pushq	%rbx
	.cfi_def_cfa_offset 32
	.cfi_offset 3, -32
	movq	%rdi, %rbx
	movq	%rbp, %rdi
	subq	$16, %rsp
	.cfi_def_cfa_offset 48
	leaq	12(%rsp), %rsi
	movl	$2, 12(%rsp)
	call	_ZNK7openpal6Logger9IsEnabledERKNS_10LogFiltersE@PLT
	testb	%al, %al
	jne	.L372
	movl	512(%rbx), %eax
	addq	$16, %rsp
	.cfi_remember_state
	.cfi_def_cfa_offset 32
	popq	%rbx
	.cfi_def_cfa_offset 24
	popq	%rbp
	.cfi_def_cfa_offset 16
	popq	%r12
	.cfi_def_cfa_offset 8
	ret
	.p2align 4,,10
	.p2align 3
.L372:
	.cfi_restore_state
	leaq	12(%rsp), %rsi
	movq	%rbp, %rdi
	leaq	.LC9(%rip), %rcx
	movl	$2, 12(%rsp)
	leaq	.LC10(%rip), %rdx
	call	_ZN7openpal6Logger3LogERKNS_10LogFiltersEPKcS5_@PLT
	movl	512(%rbx), %eax
	addq	$16, %rsp
	.cfi_def_cfa_offset 32
	popq	%rbx
	.cfi_def_cfa_offset 24
	popq	%rbp
	.cfi_def_cfa_offset 16
	popq	%r12
	.cfi_def_cfa_offset 8
	ret
	.p2align 4,,10
	.p2align 3
.L371:
	.cfi_restore 3
	.cfi_restore 6
	.cfi_restore 12
	jmp	_ZN8opendnp38MContext33OnResponseTimeout_WaitForResponseEv@PLT
	.cfi_endproc
.LFE3506:
	.size	_ZN8opendnp38MContext22OnResponseTimeoutEventEv, .-_ZN8opendnp38MContext22OnResponseTimeoutEventEv
	.align 2
	.p2align 4
	.globl	_ZN8opendnp38MContext17OnResponseTimeoutEv
	.type	_ZN8opendnp38MContext17OnResponseTimeoutEv, @function
_ZN8opendnp38MContext17OnResponseTimeoutEv:
.LFB3423:
	.cfi_startproc
	cmpb	$0, 168(%rdi)
	jne	.L379
	ret
	.p2align 4,,10
	.p2align 3
.L379:
	subq	$24, %rsp
	.cfi_def_cfa_offset 32
	movq	%rdi, 8(%rsp)
	call	_ZN8opendnp38MContext22OnResponseTimeoutEventEv@PLT
	movq	8(%rsp), %rdi
	movl	%eax, 512(%rdi)
	addq	$24, %rsp
	.cfi_def_cfa_offset 8
	ret
	.cfi_endproc
.LFE3423:
	.size	_ZN8opendnp38MContext17OnResponseTimeoutEv, .-_ZN8opendnp38MContext17OnResponseTimeoutEv
	.p2align 4
	.type	_ZNSt17_Function_handlerIFvvEZN7openpal8TimerRef5StartIZN8opendnp38MContext18StartResponseTimerEvEUlvE_EEbRKNS1_12TimeDurationERKT_EUlvE_E9_M_invokeERKSt9_Any_data, @function
_ZNSt17_Function_handlerIFvvEZN7openpal8TimerRef5StartIZN8opendnp38MContext18StartResponseTimerEvEUlvE_EEbRKNS1_12TimeDurationERKT_EUlvE_E9_M_invokeERKSt9_Any_data:
.LFB4459:
	.cfi_startproc
	movq	(%rdi), %rax
	movq	8(%rdi), %rdi
	movq	$0, 8(%rax)
	jmp	_ZN8opendnp38MContext17OnResponseTimeoutEv@PLT
	.cfi_endproc
.LFE4459:
	.size	_ZNSt17_Function_handlerIFvvEZN7openpal8TimerRef5StartIZN8opendnp38MContext18StartResponseTimerEvEUlvE_EEbRKNS1_12TimeDurationERKT_EUlvE_E9_M_invokeERKSt9_Any_data, .-_ZNSt17_Function_handlerIFvvEZN7openpal8TimerRef5StartIZN8opendnp38MContext18StartResponseTimerEvEUlvE_EEbRKNS1_12TimeDurationERKT_EUlvE_E9_M_invokeERKSt9_Any_data
	.align 2
	.p2align 4
	.globl	_ZN8opendnp38MContext16ResumeActiveTaskEv
	.type	_ZN8opendnp38MContext16ResumeActiveTaskEv, @function
_ZN8opendnp38MContext16ResumeActiveTaskEv:
.LFB3503:
	.cfi_startproc
	pushq	%r12
	.cfi_def_cfa_offset 16
	.cfi_offset 12, -16
	pushq	%rbp
	.cfi_def_cfa_offset 24
	.cfi_offset 6, -24
	pushq	%rbx
	.cfi_def_cfa_offset 32
	.cfi_offset 3, -32
	movq	%rdi, %rbx
	subq	$64, %rsp
	.cfi_def_cfa_offset 96
	movq	160(%rdi), %rdi
	movq	(%rdi), %rax
	movq	(%rax), %rax
	cmpq	_ZN8opendnp312NullTaskLock7AcquireERNS_17IScheduleCallbackE@GOTPCREL(%rip), %rax
	jne	.L382
.L385:
	leaq	488(%rbx), %rdi
	leaq	16(%rsp), %rbp
	call	_ZN7openpal6Buffer9GetWSliceEv@PLT
	movq	%rsp, %rsi
	movq	%rbp, %rdi
	movl	%eax, (%rsp)
	movq	%rdx, 8(%rsp)
	call	_ZN8opendnp311APDURequestC1ERKN7openpal6WSliceE@PLT
	movq	176(%rbx), %rdi
	movzbl	170(%rbx), %edx
	movq	%rbp, %rsi
	movq	(%rdi), %rax
	call	*56(%rax)
	testb	%al, %al
	jne	.L391
	movq	56(%rbx), %rdi
	movq	176(%rbx), %rbp
	movq	(%rdi), %rax
	call	*16(%rax)
	movq	%rbp, %rdi
	movq	%rax, %rsi
	call	_ZN8opendnp311IMasterTask15OnInternalErrorEN7openpal18MonotonicTimestampE@PLT
	movq	%rbx, %rdi
	call	_ZN8opendnp38MContext18CompleteActiveTaskEv@PLT
	addq	$64, %rsp
	.cfi_remember_state
	.cfi_def_cfa_offset 32
	xorl	%eax, %eax
	popq	%rbx
	.cfi_def_cfa_offset 24
	popq	%rbp
	.cfi_def_cfa_offset 16
	popq	%r12
	.cfi_def_cfa_offset 8
	ret
	.p2align 4,,10
	.p2align 3
.L382:
	.cfi_restore_state
	leaq	8(%rbx), %rsi
	call	*%rax
	testb	%al, %al
	jne	.L385
	addq	$64, %rsp
	.cfi_remember_state
	.cfi_def_cfa_offset 32
	movl	$1, %eax
	popq	%rbx
	.cfi_def_cfa_offset 24
	popq	%rbp
	.cfi_def_cfa_offset 16
	popq	%r12
	.cfi_def_cfa_offset 8
	ret
	.p2align 4,,10
	.p2align 3
.L391:
	.cfi_restore_state
	movq	%rbx, %rdi
	call	_ZN8opendnp38MContext18StartResponseTimerEv@PLT
	movq	%rbp, %rdi
	call	_ZNK8opendnp311APDUWrapper8ToRSliceEv@PLT
	movl	%eax, (%rsp)
	movq	(%rbx), %rax
	movq	%rdx, 8(%rsp)
	movq	56(%rax), %rax
	cmpq	_ZN8opendnp38MContext17RecordLastRequestERKN7openpal6RSliceE@GOTPCREL(%rip), %rax
	jne	.L392
.L388:
	movq	%rsp, %rsi
	movq	%rbx, %rdi
	call	_ZN8opendnp38MContext8TransmitERKN7openpal6RSliceE@PLT
	addq	$64, %rsp
	.cfi_remember_state
	.cfi_def_cfa_offset 32
	movl	$2, %eax
	popq	%rbx
	.cfi_def_cfa_offset 24
	popq	%rbp
	.cfi_def_cfa_offset 16
	popq	%r12
	.cfi_def_cfa_offset 8
	ret
	.p2align 4,,10
	.p2align 3
.L392:
	.cfi_restore_state
	movq	%rsp, %rsi
	movq	%rbx, %rdi
	call	*%rax
	jmp	.L388
	.cfi_endproc
.LFE3503:
	.size	_ZN8opendnp38MContext16ResumeActiveTaskEv, .-_ZN8opendnp38MContext16ResumeActiveTaskEv
	.section	.rodata.str1.1
.LC11:
	.string	"Begining task: %s"
	.section	.rodata.str1.8
	.align 8
.LC12:
	.string	"/opt/PLC/OpenPLC_v3/utils/dnp3_src/cpp/libs/src/opendnp3/master/MasterContext.cpp(477)"
	.text
	.align 2
	.p2align 4
	.globl	_ZN8opendnp38MContext12BeginNewTaskERKSt10shared_ptrINS_11IMasterTaskEE
	.type	_ZN8opendnp38MContext12BeginNewTaskERKSt10shared_ptrINS_11IMasterTaskEE, @function
_ZN8opendnp38MContext12BeginNewTaskERKSt10shared_ptrINS_11IMasterTaskEE:
.LFB3500:
	.cfi_startproc
	pushq	%r12
	.cfi_def_cfa_offset 16
	.cfi_offset 12, -16
	pushq	%rbp
	.cfi_def_cfa_offset 24
	.cfi_offset 6, -24
	pushq	%rbx
	.cfi_def_cfa_offset 32
	.cfi_offset 3, -32
	movq	%rdi, %rbx
	subq	$144, %rsp
	.cfi_def_cfa_offset 176
	movq	(%rsi), %rdx
	movq	8(%rsi), %rbp
	movq	184(%rdi), %r12
	movq	%rdx, 176(%rdi)
	cmpq	%r12, %rbp
	je	.L394
	testq	%rbp, %rbp
	je	.L396
	movq	__libc_single_threaded@GOTPCREL(%rip), %rdx
	cmpb	$0, (%rdx)
	je	.L397
	addl	$1, 8(%rbp)
.L396:
	testq	%r12, %r12
	je	.L400
.L412:
	movq	8(%r12), %rcx
	leaq	8(%r12), %rsi
	movabsq	$4294967297, %rdx
	cmpq	%rdx, %rcx
	je	.L410
	movq	__libc_single_threaded@GOTPCREL(%rip), %rdx
	cmpb	$0, (%rdx)
	je	.L402
	movl	8(%r12), %edx
	leal	-1(%rdx), %ecx
	movl	%ecx, 8(%r12)
.L403:
	cmpl	$1, %edx
	je	.L411
.L400:
	movq	%rbp, 184(%rbx)
	movq	176(%rbx), %rdx
.L394:
	movq	%rdx, %rdi
	leaq	16(%rsp), %rbp
	call	_ZN8opendnp311IMasterTask7OnStartEv@PLT
	movq	%rbp, %rsi
	leaq	24(%rbx), %rdi
	movl	$8, 16(%rsp)
	call	_ZNK7openpal6Logger9IsEnabledERKNS_10LogFiltersE@PLT
	testb	%al, %al
	je	.L405
	movq	176(%rbx), %rdi
	movq	(%rdi), %rax
	call	*24(%rax)
	leaq	.LC11(%rip), %rdx
	movl	$120, %esi
	movq	%rbp, %rdi
	movq	%rax, %rcx
	xorl	%eax, %eax
	call	snprintf@PLT
	leaq	12(%rsp), %rsi
	movq	%rbp, %rcx
	leaq	24(%rbx), %rdi
	leaq	.LC12(%rip), %rdx
	movl	$8, 12(%rsp)
	call	_ZN7openpal6Logger3LogERKNS_10LogFiltersEPKcS5_@PLT
.L405:
	addq	$144, %rsp
	.cfi_remember_state
	.cfi_def_cfa_offset 32
	movq	%rbx, %rdi
	popq	%rbx
	.cfi_def_cfa_offset 24
	popq	%rbp
	.cfi_def_cfa_offset 16
	popq	%r12
	.cfi_def_cfa_offset 8
	jmp	_ZN8opendnp38MContext16ResumeActiveTaskEv@PLT
	.p2align 4,,10
	.p2align 3
.L402:
	.cfi_restore_state
	movl	$-1, %edx
	lock xaddl	%edx, (%rsi)
	jmp	.L403
	.p2align 4,,10
	.p2align 3
.L397:
	lock addl	$1, 8(%rbp)
	movq	184(%rdi), %r12
	testq	%r12, %r12
	jne	.L412
	jmp	.L400
	.p2align 4,,10
	.p2align 3
.L410:
	movq	$0, 8(%r12)
	movq	(%r12), %rdx
	movq	%r12, %rdi
	call	*16(%rdx)
	movq	(%r12), %rdx
	movq	%r12, %rdi
	call	*24(%rdx)
	jmp	.L400
	.p2align 4,,10
	.p2align 3
.L411:
	movq	%r12, %rdi
	call	_ZNSt16_Sp_counted_baseILN9__gnu_cxx12_Lock_policyE2EE24_M_release_last_use_coldEv@PLT
	jmp	.L400
	.cfi_endproc
.LFE3500:
	.size	_ZN8opendnp38MContext12BeginNewTaskERKSt10shared_ptrINS_11IMasterTaskEE, .-_ZN8opendnp38MContext12BeginNewTaskERKSt10shared_ptrINS_11IMasterTaskEE
	.align 2
	.p2align 4
	.globl	_ZN8opendnp38MContext19StartTask_TaskReadyEv
	.type	_ZN8opendnp38MContext19StartTask_TaskReadyEv, @function
_ZN8opendnp38MContext19StartTask_TaskReadyEv:
.LFB3509:
	.cfi_startproc
	cmpb	$0, 169(%rdi)
	je	.L415
	movl	$1, %eax
	ret
	.p2align 4,,10
	.p2align 3
.L415:
	jmp	_ZN8opendnp38MContext16ResumeActiveTaskEv@PLT
	.cfi_endproc
.LFE3509:
	.size	_ZN8opendnp38MContext19StartTask_TaskReadyEv, .-_ZN8opendnp38MContext19StartTask_TaskReadyEv
	.section	.text.unlikely
	.align 2
.LCOLDB15:
	.text
.LHOTB15:
	.align 2
	.p2align 4
	.globl	_ZN8opendnp38MContext7AddScanEN7openpal12TimeDurationERKSt8functionIFbRNS_12HeaderWriterEEENS_10TaskConfigE
	.type	_ZN8opendnp38MContext7AddScanEN7openpal12TimeDurationERKSt8functionIFbRNS_12HeaderWriterEEENS_10TaskConfigE, @function
_ZN8opendnp38MContext7AddScanEN7openpal12TimeDurationERKSt8functionIFbRNS_12HeaderWriterEEENS_10TaskConfigE:
.LFB3444:
	.cfi_startproc
	.cfi_personality 0x9b,DW.ref.__gxx_personality_v0
	.cfi_lsda 0x1b,.LLSDA3444
	pushq	%rbp
	.cfi_def_cfa_offset 16
	.cfi_offset 6, -16
	movq	%rsp, %rbp
	.cfi_def_cfa_register 6
	pushq	%r15
	.cfi_offset 15, -24
	movq	%r9, %r15
	pushq	%r14
	.cfi_offset 14, -32
	movq	%r8, %r14
	pushq	%r13
	pushq	%r12
	.cfi_offset 13, -40
	.cfi_offset 12, -48
	movq	%rdi, %r12
	movl	$176, %edi
	pushq	%rbx
	subq	$88, %rsp
	.cfi_offset 3, -56
	movq	%rcx, -104(%rbp)
	movq	144(%rsi), %r9
	movq	128(%rsi), %rcx
	movq	%rdx, -96(%rbp)
	movq	%r9, -112(%rbp)
	movq	%rcx, -120(%rbp)
	movq	%rsi, -88(%rbp)
.LEHB13:
	call	_Znwm@PLT
.LEHE13:
	movq	-112(%rbp), %r9
	movq	-120(%rbp), %rcx
	movq	%rax, %rbx
	movq	.LC13(%rip), %rax
	leaq	16(%rbx), %r13
	movq	%rax, 8(%rbx)
	movq	_ZTVSt23_Sp_counted_ptr_inplaceIN8opendnp312UserPollTaskESaIvELN9__gnu_cxx12_Lock_policyE2EE@GOTPCREL(%rip), %rax
	addq	$16, %rax
	movq	%rax, (%rbx)
	movq	-88(%rbp), %rax
	movdqu	24(%rax), %xmm0
	movhlps	%xmm0, %xmm1
	movaps	%xmm0, -80(%rbp)
	movq	%xmm1, %rdx
	testq	%rdx, %rdx
	je	.L417
	movq	__libc_single_threaded@GOTPCREL(%rip), %rax
	cmpb	$0, (%rax)
	je	.L418
	addl	$1, 8(%rdx)
.L417:
	movq	-88(%rbp), %rax
	movdqu	40(%rax), %xmm0
	movhlps	%xmm0, %xmm2
	movaps	%xmm0, -64(%rbp)
	movq	%xmm2, %rdx
	testq	%rdx, %rdx
	je	.L419
	movq	__libc_single_threaded@GOTPCREL(%rip), %rax
	cmpb	$0, (%rax)
	je	.L420
	addl	$1, 8(%rdx)
.L419:
	pushq	%r15
	movq	-88(%rbp), %rax
	movl	$1, %edx
	movq	%r13, %rdi
	pushq	%r14
	leaq	-80(%rbp), %r14
	movq	-104(%rbp), %rsi
	pushq	%r14
	movq	104(%rax), %r8
	pushq	%rcx
	movq	-96(%rbp), %rcx
.LEHB14:
	.cfi_escape 0x2e,0x20
	call	_ZN8opendnp312UserPollTaskC1ERKSt8functionIFbRNS_12HeaderWriterEEEbN7openpal12TimeDurationES9_RNS_18IMasterApplicationERNS_11ISOEHandlerENS8_6LoggerENS_10TaskConfigE@PLT
.LEHE14:
	movq	-56(%rbp), %r15
	addq	$32, %rsp
	testq	%r15, %r15
	je	.L457
	movq	8(%r15), %rdx
	leaq	8(%r15), %rcx
	movabsq	$4294967297, %rax
	cmpq	%rax, %rdx
	je	.L458
	movq	__libc_single_threaded@GOTPCREL(%rip), %rax
	cmpb	$0, (%rax)
	je	.L424
	movl	8(%r15), %edx
	leal	-1(%rdx), %ecx
	movl	%ecx, 8(%r15)
.L425:
	cmpl	$1, %edx
	jne	.L422
	movq	%r15, %rdi
	movq	%rax, -96(%rbp)
	call	_ZNSt16_Sp_counted_baseILN9__gnu_cxx12_Lock_policyE2EE24_M_release_last_use_coldEv@PLT
	movq	-96(%rbp), %rax
	jmp	.L422
	.p2align 4,,10
	.p2align 3
.L458:
	movq	(%r15), %rax
	movq	%r15, %rdi
	movq	$0, 8(%r15)
	call	*16(%rax)
	movq	(%r15), %rax
	movq	%r15, %rdi
	call	*24(%rax)
	.p2align 4
	.p2align 3
.L457:
	movq	__libc_single_threaded@GOTPCREL(%rip), %rax
.L422:
	movq	-72(%rbp), %r15
	testq	%r15, %r15
	je	.L432
	movq	8(%r15), %rcx
	leaq	8(%r15), %rsi
	movabsq	$4294967297, %rdx
	cmpq	%rdx, %rcx
	je	.L459
	cmpb	$0, (%rax)
	je	.L430
	movl	8(%r15), %edx
	leal	-1(%rdx), %ecx
	movl	%ecx, 8(%r15)
.L431:
	cmpl	$1, %edx
	je	.L460
.L432:
	movq	%r13, -80(%rbp)
	movq	%rbx, -72(%rbp)
.L428:
	cmpb	$0, (%rax)
	je	.L434
	addl	$1, 8(%rbx)
.L435:
	movq	-88(%rbp), %rdi
	movq	%r14, %rsi
	movq	%rax, -96(%rbp)
.LEHB15:
	.cfi_escape 0x2e,0
	call	_ZN8opendnp38MContext25ScheduleRecurringPollTaskERKSt10shared_ptrINS_11IMasterTaskEE@PLT
.LEHE15:
	movq	-72(%rbp), %rax
	movq	%rax, %rdi
	testq	%rax, %rax
	je	.L437
	movq	8(%rax), %rcx
	leaq	8(%rax), %rsi
	movabsq	$4294967297, %rdx
	cmpq	%rdx, %rcx
	movq	-96(%rbp), %rax
	je	.L461
	cmpb	$0, (%rax)
	je	.L439
	movl	8(%rdi), %eax
	leal	-1(%rax), %edx
	movl	%edx, 8(%rdi)
.L440:
	cmpl	$1, %eax
	je	.L462
.L437:
	movq	%r13, (%r12)
	movq	%r12, %rax
	movq	%rbx, 8(%r12)
	leaq	-40(%rbp), %rsp
	popq	%rbx
	popq	%r12
	popq	%r13
	popq	%r14
	popq	%r15
	popq	%rbp
	.cfi_remember_state
	.cfi_def_cfa 7, 8
	ret
	.p2align 4,,10
	.p2align 3
.L418:
	.cfi_restore_state
	lock addl	$1, 8(%rdx)
	jmp	.L417
	.p2align 4,,10
	.p2align 3
.L434:
	lock addl	$1, 8(%rbx)
	jmp	.L435
	.p2align 4,,10
	.p2align 3
.L420:
	lock addl	$1, 8(%rdx)
	jmp	.L419
	.p2align 4,,10
	.p2align 3
.L459:
	movq	(%r15), %rdx
	movq	%rax, -96(%rbp)
	movq	%r15, %rdi
	movq	$0, 8(%r15)
	call	*16(%rdx)
	movq	(%r15), %rdx
	movq	%r15, %rdi
	call	*24(%rdx)
	movq	%r13, -80(%rbp)
	movq	-96(%rbp), %rax
	movq	%rbx, -72(%rbp)
	jmp	.L428
	.p2align 4,,10
	.p2align 3
.L430:
	movl	$-1, %edx
	lock xaddl	%edx, (%rsi)
	jmp	.L431
	.p2align 4,,10
	.p2align 3
.L439:
	movl	$-1, %eax
	lock xaddl	%eax, (%rsi)
	jmp	.L440
	.p2align 4,,10
	.p2align 3
.L424:
	movl	$-1, %edx
	lock xaddl	%edx, (%rcx)
	jmp	.L425
	.p2align 4,,10
	.p2align 3
.L461:
	movq	(%rdi), %rax
	movq	%rdi, %r14
	movq	$0, 8(%rdi)
	call	*16(%rax)
	movq	(%r14), %rax
	movq	%r14, %rdi
	call	*24(%rax)
	jmp	.L437
	.p2align 4,,10
	.p2align 3
.L460:
	movq	%r15, %rdi
	movq	%rax, -96(%rbp)
	call	_ZNSt16_Sp_counted_baseILN9__gnu_cxx12_Lock_policyE2EE24_M_release_last_use_coldEv@PLT
	movq	%r13, -80(%rbp)
	movq	-96(%rbp), %rax
	movq	%rbx, -72(%rbp)
	jmp	.L428
	.p2align 4,,10
	.p2align 3
.L462:
	call	_ZNSt16_Sp_counted_baseILN9__gnu_cxx12_Lock_policyE2EE24_M_release_last_use_coldEv@PLT
	jmp	.L437
.L445:
	movq	%rax, %r15
	jmp	.L433
.L444:
	movq	%rax, %r14
	jmp	.L442
	.section	.gcc_except_table
.LLSDA3444:
	.byte	0xff
	.byte	0xff
	.byte	0x1
	.uleb128 .LLSDACSE3444-.LLSDACSB3444
.LLSDACSB3444:
	.uleb128 .LEHB13-.LFB3444
	.uleb128 .LEHE13-.LEHB13
	.uleb128 0
	.uleb128 0
	.uleb128 .LEHB14-.LFB3444
	.uleb128 .LEHE14-.LEHB14
	.uleb128 .L445-.LFB3444
	.uleb128 0
	.uleb128 .LEHB15-.LFB3444
	.uleb128 .LEHE15-.LEHB15
	.uleb128 .L444-.LFB3444
	.uleb128 0
.LLSDACSE3444:
	.text
	.cfi_endproc
	.section	.text.unlikely
	.cfi_startproc
	.cfi_personality 0x9b,DW.ref.__gxx_personality_v0
	.cfi_lsda 0x1b,.LLSDAC3444
	.type	_ZN8opendnp38MContext7AddScanEN7openpal12TimeDurationERKSt8functionIFbRNS_12HeaderWriterEEENS_10TaskConfigE.cold, @function
_ZN8opendnp38MContext7AddScanEN7openpal12TimeDurationERKSt8functionIFbRNS_12HeaderWriterEEENS_10TaskConfigE.cold:
.LFSB3444:
.L433:
	.cfi_def_cfa 6, 16
	.cfi_offset 3, -56
	.cfi_offset 6, -16
	.cfi_offset 12, -48
	.cfi_offset 13, -40
	.cfi_offset 14, -32
	.cfi_offset 15, -24
	movq	%r14, %rdi
	call	_ZN7openpal6LoggerD1Ev@PLT
	movq	%rbx, %rdi
	movl	$176, %esi
	call	_ZdlPvm@PLT
	movq	%r15, %rdi
.LEHB16:
	call	_Unwind_Resume@PLT
.L442:
	movq	-72(%rbp), %rdi
	testq	%rdi, %rdi
	je	.L443
	call	_ZNSt16_Sp_counted_baseILN9__gnu_cxx12_Lock_policyE2EE10_M_releaseEv@PLT
.L443:
	movq	%rbx, %rdi
	call	_ZNSt16_Sp_counted_baseILN9__gnu_cxx12_Lock_policyE2EE10_M_releaseEv@PLT
	movq	%r14, %rdi
	call	_Unwind_Resume@PLT
.LEHE16:
	.cfi_endproc
.LFE3444:
	.section	.gcc_except_table
.LLSDAC3444:
	.byte	0xff
	.byte	0xff
	.byte	0x1
	.uleb128 .LLSDACSEC3444-.LLSDACSBC3444
.LLSDACSBC3444:
	.uleb128 .LEHB16-.LCOLDB15
	.uleb128 .LEHE16-.LEHB16
	.uleb128 0
	.uleb128 0
.LLSDACSEC3444:
	.section	.text.unlikely
	.text
	.size	_ZN8opendnp38MContext7AddScanEN7openpal12TimeDurationERKSt8functionIFbRNS_12HeaderWriterEEENS_10TaskConfigE, .-_ZN8opendnp38MContext7AddScanEN7openpal12TimeDurationERKSt8functionIFbRNS_12HeaderWriterEEENS_10TaskConfigE
	.section	.text.unlikely
	.size	_ZN8opendnp38MContext7AddScanEN7openpal12TimeDurationERKSt8functionIFbRNS_12HeaderWriterEEENS_10TaskConfigE.cold, .-_ZN8opendnp38MContext7AddScanEN7openpal12TimeDurationERKSt8functionIFbRNS_12HeaderWriterEEENS_10TaskConfigE.cold
.LCOLDE15:
	.text
.LHOTE15:
	.section	.text.unlikely
	.align 2
.LCOLDB17:
	.text
.LHOTB17:
	.align 2
	.p2align 4
	.globl	_ZN8opendnp38MContext12AddClassScanERKNS_10ClassFieldEN7openpal12TimeDurationENS_10TaskConfigE
	.type	_ZN8opendnp38MContext12AddClassScanERKNS_10ClassFieldEN7openpal12TimeDurationENS_10TaskConfigE, @function
_ZN8opendnp38MContext12AddClassScanERKNS_10ClassFieldEN7openpal12TimeDurationENS_10TaskConfigE:
.LFB3452:
	.cfi_startproc
	.cfi_personality 0x9b,DW.ref.__gxx_personality_v0
	.cfi_lsda 0x1b,.LLSDA3452
	pushq	%rbp
	.cfi_def_cfa_offset 16
	.cfi_offset 6, -16
	movq	%rdx, %rax
	pxor	%xmm0, %xmm0
	movq	%rcx, %rdx
	pushq	%rbx
	.cfi_def_cfa_offset 24
	.cfi_offset 3, -24
	movq	%rdi, %rbp
	subq	$40, %rsp
	.cfi_def_cfa_offset 64
	movzbl	(%rax), %eax
	movaps	%xmm0, (%rsp)
	movq	%rsp, %rcx
	movq	.LC16(%rip), %xmm0
	movb	%al, (%rsp)
	leaq	_ZNSt17_Function_handlerIFbRN8opendnp312HeaderWriterEEZNS0_8MContext12AddClassScanERKNS0_10ClassFieldEN7openpal12TimeDurationENS0_10TaskConfigEEUlS2_E_E9_M_invokeERKSt9_Any_dataS2_(%rip), %rax
	movq	%rax, %xmm1
	punpcklqdq	%xmm1, %xmm0
	movaps	%xmm0, 16(%rsp)
.LEHB17:
	call	_ZN8opendnp38MContext7AddScanEN7openpal12TimeDurationERKSt8functionIFbRNS_12HeaderWriterEEENS_10TaskConfigE@PLT
.LEHE17:
	movq	16(%rsp), %rax
	testq	%rax, %rax
	je	.L463
	movl	$3, %edx
	movq	%rsp, %rsi
	movq	%rsp, %rdi
	call	*%rax
.L463:
	addq	$40, %rsp
	.cfi_remember_state
	.cfi_def_cfa_offset 24
	movq	%rbp, %rax
	popq	%rbx
	.cfi_def_cfa_offset 16
	popq	%rbp
	.cfi_def_cfa_offset 8
	ret
.L467:
	.cfi_restore_state
	movq	%rax, %rbp
	jmp	.L465
	.section	.gcc_except_table
.LLSDA3452:
	.byte	0xff
	.byte	0xff
	.byte	0x1
	.uleb128 .LLSDACSE3452-.LLSDACSB3452
.LLSDACSB3452:
	.uleb128 .LEHB17-.LFB3452
	.uleb128 .LEHE17-.LEHB17
	.uleb128 .L467-.LFB3452
	.uleb128 0
.LLSDACSE3452:
	.text
	.cfi_endproc
	.section	.text.unlikely
	.cfi_startproc
	.cfi_personality 0x9b,DW.ref.__gxx_personality_v0
	.cfi_lsda 0x1b,.LLSDAC3452
	.type	_ZN8opendnp38MContext12AddClassScanERKNS_10ClassFieldEN7openpal12TimeDurationENS_10TaskConfigE.cold, @function
_ZN8opendnp38MContext12AddClassScanERKNS_10ClassFieldEN7openpal12TimeDurationENS_10TaskConfigE.cold:
.LFSB3452:
.L465:
	.cfi_def_cfa_offset 64
	.cfi_offset 3, -24
	.cfi_offset 6, -16
	movq	16(%rsp), %rax
	testq	%rax, %rax
	je	.L466
	movl	$3, %edx
	movq	%rsp, %rsi
	movq	%rsp, %rdi
	call	*%rax
.L466:
	movq	%rbp, %rdi
.LEHB18:
	call	_Unwind_Resume@PLT
.LEHE18:
	.cfi_endproc
.LFE3452:
	.section	.gcc_except_table
.LLSDAC3452:
	.byte	0xff
	.byte	0xff
	.byte	0x1
	.uleb128 .LLSDACSEC3452-.LLSDACSBC3452
.LLSDACSBC3452:
	.uleb128 .LEHB18-.LCOLDB17
	.uleb128 .LEHE18-.LEHB18
	.uleb128 0
	.uleb128 0
.LLSDACSEC3452:
	.section	.text.unlikely
	.text
	.size	_ZN8opendnp38MContext12AddClassScanERKNS_10ClassFieldEN7openpal12TimeDurationENS_10TaskConfigE, .-_ZN8opendnp38MContext12AddClassScanERKNS_10ClassFieldEN7openpal12TimeDurationENS_10TaskConfigE
	.section	.text.unlikely
	.size	_ZN8opendnp38MContext12AddClassScanERKNS_10ClassFieldEN7openpal12TimeDurationENS_10TaskConfigE.cold, .-_ZN8opendnp38MContext12AddClassScanERKNS_10ClassFieldEN7openpal12TimeDurationENS_10TaskConfigE.cold
.LCOLDE17:
	.text
.LHOTE17:
	.section	.text.unlikely
	.align 2
.LCOLDB19:
	.text
.LHOTB19:
	.align 2
	.p2align 4
	.globl	_ZN8opendnp38MContext17AddAllObjectsScanENS_16GroupVariationIDEN7openpal12TimeDurationENS_10TaskConfigE
	.type	_ZN8opendnp38MContext17AddAllObjectsScanENS_16GroupVariationIDEN7openpal12TimeDurationENS_10TaskConfigE, @function
_ZN8opendnp38MContext17AddAllObjectsScanENS_16GroupVariationIDEN7openpal12TimeDurationENS_10TaskConfigE:
.LFB3459:
	.cfi_startproc
	.cfi_personality 0x9b,DW.ref.__gxx_personality_v0
	.cfi_lsda 0x1b,.LLSDA3459
	pushq	%rbp
	.cfi_def_cfa_offset 16
	.cfi_offset 6, -16
	movl	%edx, %eax
	pxor	%xmm0, %xmm0
	movq	%rcx, %rdx
	pushq	%rbx
	.cfi_def_cfa_offset 24
	.cfi_offset 3, -24
	movq	%rdi, %rbp
	subq	$40, %rsp
	.cfi_def_cfa_offset 64
	movaps	%xmm0, (%rsp)
	movq	%rsp, %rcx
	movq	.LC18(%rip), %xmm0
	movw	%ax, (%rsp)
	leaq	_ZNSt17_Function_handlerIFbRN8opendnp312HeaderWriterEEZNS0_8MContext17AddAllObjectsScanENS0_16GroupVariationIDEN7openpal12TimeDurationENS0_10TaskConfigEEUlS2_E_E9_M_invokeERKSt9_Any_dataS2_(%rip), %rax
	movq	%rax, %xmm1
	punpcklqdq	%xmm1, %xmm0
	movaps	%xmm0, 16(%rsp)
.LEHB19:
	call	_ZN8opendnp38MContext7AddScanEN7openpal12TimeDurationERKSt8functionIFbRNS_12HeaderWriterEEENS_10TaskConfigE@PLT
.LEHE19:
	movq	16(%rsp), %rax
	testq	%rax, %rax
	je	.L475
	movl	$3, %edx
	movq	%rsp, %rsi
	movq	%rsp, %rdi
	call	*%rax
.L475:
	addq	$40, %rsp
	.cfi_remember_state
	.cfi_def_cfa_offset 24
	movq	%rbp, %rax
	popq	%rbx
	.cfi_def_cfa_offset 16
	popq	%rbp
	.cfi_def_cfa_offset 8
	ret
.L479:
	.cfi_restore_state
	movq	%rax, %rbp
	jmp	.L477
	.section	.gcc_except_table
.LLSDA3459:
	.byte	0xff
	.byte	0xff
	.byte	0x1
	.uleb128 .LLSDACSE3459-.LLSDACSB3459
.LLSDACSB3459:
	.uleb128 .LEHB19-.LFB3459
	.uleb128 .LEHE19-.LEHB19
	.uleb128 .L479-.LFB3459
	.uleb128 0
.LLSDACSE3459:
	.text
	.cfi_endproc
	.section	.text.unlikely
	.cfi_startproc
	.cfi_personality 0x9b,DW.ref.__gxx_personality_v0
	.cfi_lsda 0x1b,.LLSDAC3459
	.type	_ZN8opendnp38MContext17AddAllObjectsScanENS_16GroupVariationIDEN7openpal12TimeDurationENS_10TaskConfigE.cold, @function
_ZN8opendnp38MContext17AddAllObjectsScanENS_16GroupVariationIDEN7openpal12TimeDurationENS_10TaskConfigE.cold:
.LFSB3459:
.L477:
	.cfi_def_cfa_offset 64
	.cfi_offset 3, -24
	.cfi_offset 6, -16
	movq	16(%rsp), %rax
	testq	%rax, %rax
	je	.L478
	movl	$3, %edx
	movq	%rsp, %rsi
	movq	%rsp, %rdi
	call	*%rax
.L478:
	movq	%rbp, %rdi
.LEHB20:
	call	_Unwind_Resume@PLT
.LEHE20:
	.cfi_endproc
.LFE3459:
	.section	.gcc_except_table
.LLSDAC3459:
	.byte	0xff
	.byte	0xff
	.byte	0x1
	.uleb128 .LLSDACSEC3459-.LLSDACSBC3459
.LLSDACSBC3459:
	.uleb128 .LEHB20-.LCOLDB19
	.uleb128 .LEHE20-.LEHB20
	.uleb128 0
	.uleb128 0
.LLSDACSEC3459:
	.section	.text.unlikely
	.text
	.size	_ZN8opendnp38MContext17AddAllObjectsScanENS_16GroupVariationIDEN7openpal12TimeDurationENS_10TaskConfigE, .-_ZN8opendnp38MContext17AddAllObjectsScanENS_16GroupVariationIDEN7openpal12TimeDurationENS_10TaskConfigE
	.section	.text.unlikely
	.size	_ZN8opendnp38MContext17AddAllObjectsScanENS_16GroupVariationIDEN7openpal12TimeDurationENS_10TaskConfigE.cold, .-_ZN8opendnp38MContext17AddAllObjectsScanENS_16GroupVariationIDEN7openpal12TimeDurationENS_10TaskConfigE.cold
.LCOLDE19:
	.text
.LHOTE19:
	.section	.text.unlikely
	.align 2
.LCOLDB21:
	.text
.LHOTB21:
	.align 2
	.p2align 4
	.globl	_ZN8opendnp38MContext12AddRangeScanENS_16GroupVariationIDEttN7openpal12TimeDurationENS_10TaskConfigE
	.type	_ZN8opendnp38MContext12AddRangeScanENS_16GroupVariationIDEttN7openpal12TimeDurationENS_10TaskConfigE, @function
_ZN8opendnp38MContext12AddRangeScanENS_16GroupVariationIDEttN7openpal12TimeDurationENS_10TaskConfigE:
.LFB3463:
	.cfi_startproc
	.cfi_personality 0x9b,DW.ref.__gxx_personality_v0
	.cfi_lsda 0x1b,.LLSDA3463
	pushq	%rbp
	.cfi_def_cfa_offset 16
	.cfi_offset 6, -16
	movl	%edx, %eax
	movq	%rdi, %rbp
	movq	%r9, %rdx
	pushq	%rbx
	.cfi_def_cfa_offset 24
	.cfi_offset 3, -24
	xorl	%edi, %edi
	subq	$40, %rsp
	.cfi_def_cfa_offset 64
	movq	.LC20(%rip), %xmm0
	movw	%ax, (%rsp)
	leaq	_ZNSt17_Function_handlerIFbRN8opendnp312HeaderWriterEEZNS0_8MContext12AddRangeScanENS0_16GroupVariationIDEttN7openpal12TimeDurationENS0_10TaskConfigEEUlS2_E_E9_M_invokeERKSt9_Any_dataS2_(%rip), %rax
	movq	72(%rsp), %r9
	movw	%r8w, 4(%rsp)
	movq	%rax, %xmm1
	movq	64(%rsp), %r8
	movw	%di, 14(%rsp)
	punpcklqdq	%xmm1, %xmm0
	movq	%rbp, %rdi
	movw	%cx, 2(%rsp)
	movq	%rsp, %rcx
	movq	$0, 6(%rsp)
	movaps	%xmm0, 16(%rsp)
.LEHB21:
	call	_ZN8opendnp38MContext7AddScanEN7openpal12TimeDurationERKSt8functionIFbRNS_12HeaderWriterEEENS_10TaskConfigE@PLT
.LEHE21:
	movq	16(%rsp), %rax
	testq	%rax, %rax
	je	.L487
	movl	$3, %edx
	movq	%rsp, %rsi
	movq	%rsp, %rdi
	call	*%rax
.L487:
	addq	$40, %rsp
	.cfi_remember_state
	.cfi_def_cfa_offset 24
	movq	%rbp, %rax
	popq	%rbx
	.cfi_def_cfa_offset 16
	popq	%rbp
	.cfi_def_cfa_offset 8
	ret
.L491:
	.cfi_restore_state
	movq	%rax, %rbp
	jmp	.L489
	.section	.gcc_except_table
.LLSDA3463:
	.byte	0xff
	.byte	0xff
	.byte	0x1
	.uleb128 .LLSDACSE3463-.LLSDACSB3463
.LLSDACSB3463:
	.uleb128 .LEHB21-.LFB3463
	.uleb128 .LEHE21-.LEHB21
	.uleb128 .L491-.LFB3463
	.uleb128 0
.LLSDACSE3463:
	.text
	.cfi_endproc
	.section	.text.unlikely
	.cfi_startproc
	.cfi_personality 0x9b,DW.ref.__gxx_personality_v0
	.cfi_lsda 0x1b,.LLSDAC3463
	.type	_ZN8opendnp38MContext12AddRangeScanENS_16GroupVariationIDEttN7openpal12TimeDurationENS_10TaskConfigE.cold, @function
_ZN8opendnp38MContext12AddRangeScanENS_16GroupVariationIDEttN7openpal12TimeDurationENS_10TaskConfigE.cold:
.LFSB3463:
.L489:
	.cfi_def_cfa_offset 64
	.cfi_offset 3, -24
	.cfi_offset 6, -16
	movq	16(%rsp), %rax
	testq	%rax, %rax
	je	.L490
	movl	$3, %edx
	movq	%rsp, %rsi
	movq	%rsp, %rdi
	call	*%rax
.L490:
	movq	%rbp, %rdi
.LEHB22:
	call	_Unwind_Resume@PLT
.LEHE22:
	.cfi_endproc
.LFE3463:
	.section	.gcc_except_table
.LLSDAC3463:
	.byte	0xff
	.byte	0xff
	.byte	0x1
	.uleb128 .LLSDACSEC3463-.LLSDACSBC3463
.LLSDACSBC3463:
	.uleb128 .LEHB22-.LCOLDB21
	.uleb128 .LEHE22-.LEHB22
	.uleb128 0
	.uleb128 0
.LLSDACSEC3463:
	.section	.text.unlikely
	.text
	.size	_ZN8opendnp38MContext12AddRangeScanENS_16GroupVariationIDEttN7openpal12TimeDurationENS_10TaskConfigE, .-_ZN8opendnp38MContext12AddRangeScanENS_16GroupVariationIDEttN7openpal12TimeDurationENS_10TaskConfigE
	.section	.text.unlikely
	.size	_ZN8opendnp38MContext12AddRangeScanENS_16GroupVariationIDEttN7openpal12TimeDurationENS_10TaskConfigE.cold, .-_ZN8opendnp38MContext12AddRangeScanENS_16GroupVariationIDEttN7openpal12TimeDurationENS_10TaskConfigE.cold
.LCOLDE21:
	.text
.LHOTE21:
	.section	.text.unlikely
	.align 2
.LCOLDB23:
	.text
.LHOTB23:
	.align 2
	.p2align 4
	.globl	_ZN8opendnp38MContext14StartTask_IdleEv
	.type	_ZN8opendnp38MContext14StartTask_IdleEv, @function
_ZN8opendnp38MContext14StartTask_IdleEv:
.LFB3507:
	.cfi_startproc
	.cfi_personality 0x9b,DW.ref.__gxx_personality_v0
	.cfi_lsda 0x1b,.LLSDA3507
	xorl	%eax, %eax
	cmpb	$0, 169(%rdi)
	je	.L531
	ret
	.p2align 4,,10
	.p2align 3
.L531:
	pushq	%r14
	.cfi_def_cfa_offset 16
	.cfi_offset 14, -16
	pushq	%rbp
	.cfi_def_cfa_offset 24
	.cfi_offset 6, -24
	pushq	%rbx
	.cfi_def_cfa_offset 32
	.cfi_offset 3, -32
	movq	%rdi, %rbx
	subq	$80, %rsp
	.cfi_def_cfa_offset 112
	leaq	24(%rsp), %rbp
	movq	%rbp, %rdi
.LEHB23:
	call	_ZN7openpal18MonotonicTimestampC1Ev@PLT
	movq	56(%rbx), %rdi
	movq	(%rdi), %rax
	call	*16(%rax)
	leaq	48(%rsp), %rdx
	leaq	376(%rbx), %rsi
	movq	%rbp, %rcx
	movq	%rax, 48(%rsp)
	leaq	32(%rsp), %rax
	movq	%rdx, %r14
	movq	%rax, %rdi
	movq	%rax, 8(%rsp)
	call	_ZN8opendnp315MasterScheduler7GetNextERKN7openpal18MonotonicTimestampERS2_@PLT
.LEHE23:
	cmpq	$0, 32(%rsp)
	je	.L501
	movq	8(%rsp), %rsi
	movq	%rbx, %rdi
.LEHB24:
	call	_ZN8opendnp38MContext12BeginNewTaskERKSt10shared_ptrINS_11IMasterTaskEE@PLT
.L502:
	movq	40(%rsp), %rbx
	testq	%rbx, %rbx
	je	.L499
	movq	8(%rbx), %rcx
	leaq	8(%rbx), %rsi
	movabsq	$4294967297, %rdx
	cmpq	%rdx, %rcx
	je	.L532
	movq	__libc_single_threaded@GOTPCREL(%rip), %rdx
	cmpb	$0, (%rdx)
	je	.L511
	movl	8(%rbx), %edx
	leal	-1(%rdx), %ecx
	movl	%ecx, 8(%rbx)
.L512:
	cmpl	$1, %edx
	je	.L533
.L499:
	addq	$80, %rsp
	.cfi_remember_state
	.cfi_def_cfa_offset 32
	popq	%rbx
	.cfi_def_cfa_offset 24
	popq	%rbp
	.cfi_def_cfa_offset 16
	popq	%r14
	.cfi_def_cfa_offset 8
	ret
	.p2align 4,,10
	.p2align 3
.L511:
	.cfi_restore_state
	movl	$-1, %edx
	lock xaddl	%edx, (%rsi)
	jmp	.L512
	.p2align 4,,10
	.p2align 3
.L501:
	movq	%rbp, %rdi
	call	_ZNK7openpal18MonotonicTimestamp5IsMaxEv@PLT
.LEHE24:
	testb	%al, %al
	je	.L534
.L503:
	xorl	%eax, %eax
	jmp	.L502
	.p2align 4,,10
	.p2align 3
.L532:
	movq	(%rbx), %rdx
	movl	%eax, 8(%rsp)
	movq	%rbx, %rdi
	movq	$0, 8(%rbx)
	call	*16(%rdx)
	movq	(%rbx), %rdx
	movq	%rbx, %rdi
	call	*24(%rdx)
	movl	8(%rsp), %eax
	jmp	.L499
	.p2align 4,,10
	.p2align 3
.L534:
	movq	.LC22(%rip), %xmm0
	leaq	_ZNSt17_Function_handlerIFvvEZN7openpal8TimerRef7RestartIZN8opendnp38MContext14StartTask_IdleEvEUlvE_EEvRKNS1_18MonotonicTimestampERKT_EUlvE_E9_M_invokeERKSt9_Any_data(%rip), %rax
	movq	%r14, %rdx
	movq	%rbp, %rsi
	movq	%rax, %xmm1
	leaq	208(%rbx), %rdi
	movq	%rbx, 56(%rsp)
	punpcklqdq	%xmm1, %xmm0
	movq	%rdi, 48(%rsp)
	movaps	%xmm0, 64(%rsp)
.LEHB25:
	call	_ZN7openpal8TimerRef13RestartActionERKNS_18MonotonicTimestampERKSt8functionIFvvEE@PLT
.LEHE25:
	movq	64(%rsp), %rax
	testq	%rax, %rax
	je	.L503
	movl	$3, %edx
	movq	%r14, %rsi
	movq	%r14, %rdi
	call	*%rax
	xorl	%eax, %eax
	jmp	.L502
	.p2align 4,,10
	.p2align 3
.L533:
	movq	%rbx, %rdi
	movl	%eax, 8(%rsp)
	call	_ZNSt16_Sp_counted_baseILN9__gnu_cxx12_Lock_policyE2EE24_M_release_last_use_coldEv@PLT
	movl	8(%rsp), %eax
	jmp	.L499
.L516:
	movq	%rax, %rbx
	jmp	.L507
.L517:
	movq	%rax, %rbx
	jmp	.L505
	.section	.gcc_except_table
.LLSDA3507:
	.byte	0xff
	.byte	0xff
	.byte	0x1
	.uleb128 .LLSDACSE3507-.LLSDACSB3507
.LLSDACSB3507:
	.uleb128 .LEHB23-.LFB3507
	.uleb128 .LEHE23-.LEHB23
	.uleb128 0
	.uleb128 0
	.uleb128 .LEHB24-.LFB3507
	.uleb128 .LEHE24-.LEHB24
	.uleb128 .L516-.LFB3507
	.uleb128 0
	.uleb128 .LEHB25-.LFB3507
	.uleb128 .LEHE25-.LEHB25
	.uleb128 .L517-.LFB3507
	.uleb128 0
.LLSDACSE3507:
	.text
	.cfi_endproc
	.section	.text.unlikely
	.cfi_startproc
	.cfi_personality 0x9b,DW.ref.__gxx_personality_v0
	.cfi_lsda 0x1b,.LLSDAC3507
	.type	_ZN8opendnp38MContext14StartTask_IdleEv.cold, @function
_ZN8opendnp38MContext14StartTask_IdleEv.cold:
.LFSB3507:
.L505:
	.cfi_def_cfa_offset 112
	.cfi_offset 3, -32
	.cfi_offset 6, -24
	.cfi_offset 14, -16
	movq	64(%rsp), %rax
	testq	%rax, %rax
	je	.L507
	movl	$3, %edx
	movq	%r14, %rsi
	movq	%r14, %rdi
	call	*%rax
.L507:
	movq	40(%rsp), %rdi
	testq	%rdi, %rdi
	je	.L514
	call	_ZNSt16_Sp_counted_baseILN9__gnu_cxx12_Lock_policyE2EE10_M_releaseEv@PLT
.L514:
	movq	%rbx, %rdi
.LEHB26:
	call	_Unwind_Resume@PLT
.LEHE26:
	.cfi_endproc
.LFE3507:
	.section	.gcc_except_table
.LLSDAC3507:
	.byte	0xff
	.byte	0xff
	.byte	0x1
	.uleb128 .LLSDACSEC3507-.LLSDACSBC3507
.LLSDACSBC3507:
	.uleb128 .LEHB26-.LCOLDB23
	.uleb128 .LEHE26-.LEHB26
	.uleb128 0
	.uleb128 0
.LLSDACSEC3507:
	.section	.text.unlikely
	.text
	.size	_ZN8opendnp38MContext14StartTask_IdleEv, .-_ZN8opendnp38MContext14StartTask_IdleEv
	.section	.text.unlikely
	.size	_ZN8opendnp38MContext14StartTask_IdleEv.cold, .-_ZN8opendnp38MContext14StartTask_IdleEv.cold
.LCOLDE23:
	.text
.LHOTE23:
	.align 2
	.p2align 4
	.globl	_ZN8opendnp38MContext12OnStartEventEv
	.type	_ZN8opendnp38MContext12OnStartEventEv, @function
_ZN8opendnp38MContext12OnStartEventEv:
.LFB3505:
	.cfi_startproc
	movl	512(%rdi), %eax
	testl	%eax, %eax
	je	.L536
	cmpl	$1, %eax
	je	.L537
	ret
	.p2align 4,,10
	.p2align 3
.L537:
	jmp	_ZN8opendnp38MContext19StartTask_TaskReadyEv@PLT
	.p2align 4,,10
	.p2align 3
.L536:
	jmp	_ZN8opendnp38MContext14StartTask_IdleEv@PLT
	.cfi_endproc
.LFE3505:
	.size	_ZN8opendnp38MContext12OnStartEventEv, .-_ZN8opendnp38MContext12OnStartEventEv
	.align 2
	.p2align 4
	.globl	_ZN8opendnp38MContext12CheckForTaskEv
	.type	_ZN8opendnp38MContext12CheckForTaskEv, @function
_ZN8opendnp38MContext12CheckForTaskEv:
.LFB3422:
	.cfi_startproc
	cmpb	$0, 168(%rdi)
	jne	.L546
	ret
	.p2align 4,,10
	.p2align 3
.L546:
	subq	$24, %rsp
	.cfi_def_cfa_offset 32
	movq	%rdi, 8(%rsp)
	call	_ZN8opendnp38MContext12OnStartEventEv@PLT
	movq	8(%rsp), %rdi
	movl	%eax, 512(%rdi)
	addq	$24, %rsp
	.cfi_def_cfa_offset 8
	ret
	.cfi_endproc
.LFE3422:
	.size	_ZN8opendnp38MContext12CheckForTaskEv, .-_ZN8opendnp38MContext12CheckForTaskEv
	.p2align 4
	.type	_ZNSt17_Function_handlerIFvvEZN8opendnp38MContext16PostCheckForTaskEvEUlvE_E9_M_invokeERKSt9_Any_data, @function
_ZNSt17_Function_handlerIFvvEZN8opendnp38MContext16PostCheckForTaskEvEUlvE_E9_M_invokeERKSt9_Any_data:
.LFB4230:
	.cfi_startproc
	movq	(%rdi), %rdi
	jmp	_ZN8opendnp38MContext12CheckForTaskEv@PLT
	.cfi_endproc
.LFE4230:
	.size	_ZNSt17_Function_handlerIFvvEZN8opendnp38MContext16PostCheckForTaskEvEUlvE_E9_M_invokeERKSt9_Any_data, .-_ZNSt17_Function_handlerIFvvEZN8opendnp38MContext16PostCheckForTaskEvEUlvE_E9_M_invokeERKSt9_Any_data
	.align 2
	.p2align 4
	.globl	_ZN8opendnp38MContext17ScheduleAdhocTaskERKSt10shared_ptrINS_11IMasterTaskEE
	.type	_ZN8opendnp38MContext17ScheduleAdhocTaskERKSt10shared_ptrINS_11IMasterTaskEE, @function
_ZN8opendnp38MContext17ScheduleAdhocTaskERKSt10shared_ptrINS_11IMasterTaskEE:
.LFB3499:
	.cfi_startproc
	pushq	%r12
	.cfi_def_cfa_offset 16
	.cfi_offset 12, -16
	pushq	%rbp
	.cfi_def_cfa_offset 24
	.cfi_offset 6, -24
	movq	%rsi, %rbp
	pushq	%rbx
	.cfi_def_cfa_offset 32
	.cfi_offset 3, -32
	movq	%rdi, %rbx
	subq	$16, %rsp
	.cfi_def_cfa_offset 48
	movq	56(%rdi), %rdi
	movq	(%rdi), %rax
	call	*16(%rax)
	movq	0(%rbp), %r12
	leaq	112(%rbx), %rsi
	leaq	8(%rsp), %rdi
	movq	%rax, 8(%rsp)
	call	_ZNK7openpal18MonotonicTimestamp3AddERKNS_12TimeDurationE@PLT
	movq	%r12, %rdi
	movq	%rax, %rsi
	call	_ZN8opendnp311IMasterTask24ConfigureStartExpirationEN7openpal18MonotonicTimestampE@PLT
	cmpb	$0, 168(%rbx)
	je	.L549
	movq	(%rbx), %rax
	movq	64(%rax), %rax
	cmpq	_ZN8opendnp38MContext21MeetsUserRequirementsERKSt10shared_ptrINS_11IMasterTaskEE@GOTPCREL(%rip), %rax
	jne	.L550
.L552:
	leaq	376(%rbx), %rdi
	movq	%rbp, %rsi
	call	_ZN8opendnp315MasterScheduler8ScheduleERKSt10shared_ptrINS_11IMasterTaskEE@PLT
	movq	%rbx, %rdi
	call	_ZN8opendnp38MContext12CheckForTaskEv@PLT
	addq	$16, %rsp
	.cfi_remember_state
	.cfi_def_cfa_offset 32
	popq	%rbx
	.cfi_def_cfa_offset 24
	popq	%rbp
	.cfi_def_cfa_offset 16
	popq	%r12
	.cfi_def_cfa_offset 8
	ret
	.p2align 4,,10
	.p2align 3
.L549:
	.cfi_restore_state
	movq	0(%rbp), %rdi
	movq	8(%rsp), %rsi
	call	_ZN8opendnp311IMasterTask17OnLowerLayerCloseEN7openpal18MonotonicTimestampE@PLT
	addq	$16, %rsp
	.cfi_remember_state
	.cfi_def_cfa_offset 32
	popq	%rbx
	.cfi_def_cfa_offset 24
	popq	%rbp
	.cfi_def_cfa_offset 16
	popq	%r12
	.cfi_def_cfa_offset 8
	ret
	.p2align 4,,10
	.p2align 3
.L550:
	.cfi_restore_state
	movq	%rbp, %rsi
	movq	%rbx, %rdi
	call	*%rax
	testb	%al, %al
	jne	.L552
	movq	0(%rbp), %rdi
	movq	8(%rsp), %rsi
	call	_ZN8opendnp311IMasterTask8OnNoUserEN7openpal18MonotonicTimestampE@PLT
	addq	$16, %rsp
	.cfi_def_cfa_offset 32
	popq	%rbx
	.cfi_def_cfa_offset 24
	popq	%rbp
	.cfi_def_cfa_offset 16
	popq	%r12
	.cfi_def_cfa_offset 8
	ret
	.cfi_endproc
.LFE3499:
	.size	_ZN8opendnp38MContext17ScheduleAdhocTaskERKSt10shared_ptrINS_11IMasterTaskEE, .-_ZN8opendnp38MContext17ScheduleAdhocTaskERKSt10shared_ptrINS_11IMasterTaskEE
	.section	.text.unlikely
	.align 2
.LCOLDB24:
	.text
.LHOTB24:
	.align 2
	.p2align 4
	.globl	_ZN8opendnp38MContext13DirectOperateEONS_10CommandSetERKSt8functionIFvRKNS_18ICommandTaskResultEEERKNS_10TaskConfigE
	.type	_ZN8opendnp38MContext13DirectOperateEONS_10CommandSetERKSt8functionIFvRKNS_18ICommandTaskResultEEERKNS_10TaskConfigE, @function
_ZN8opendnp38MContext13DirectOperateEONS_10CommandSetERKSt8functionIFvRKNS_18ICommandTaskResultEEERKNS_10TaskConfigE:
.LFB3426:
	.cfi_startproc
	.cfi_personality 0x9b,DW.ref.__gxx_personality_v0
	.cfi_lsda 0x1b,.LLSDA3426
	pushq	%r12
	.cfi_def_cfa_offset 16
	.cfi_offset 12, -16
	movq	%rcx, %r8
	pushq	%rbp
	.cfi_def_cfa_offset 24
	.cfi_offset 6, -24
	pushq	%rbx
	.cfi_def_cfa_offset 32
	.cfi_offset 3, -32
	movq	%rdi, %rbx
	subq	$48, %rsp
	.cfi_def_cfa_offset 80
	movdqu	24(%rdi), %xmm0
	movhlps	%xmm0, %xmm1
	movaps	%xmm0, 16(%rsp)
	movq	%xmm1, %rax
	testq	%rax, %rax
	je	.L555
	movq	__libc_single_threaded@GOTPCREL(%rip), %rcx
	cmpb	$0, (%rcx)
	je	.L556
	addl	$1, 8(%rax)
.L555:
	movdqu	40(%rbx), %xmm0
	movhlps	%xmm0, %xmm2
	movaps	%xmm0, 32(%rsp)
	movq	%xmm2, %rax
	testq	%rax, %rax
	je	.L557
	movq	__libc_single_threaded@GOTPCREL(%rip), %rcx
	cmpb	$0, (%rcx)
	je	.L558
	addl	$1, 8(%rax)
.L557:
	movq	%rdx, %rcx
	movq	144(%rbx), %rdx
	leaq	16(%rsp), %r9
	movq	%rsp, %rdi
.LEHB27:
	call	_ZN8opendnp311CommandTask19CreateDirectOperateEONS_10CommandSetERNS_18IMasterApplicationERKSt8functionIFvRKNS_18ICommandTaskResultEEERKNS_10TaskConfigEN7openpal6LoggerE@PLT
.LEHE27:
	movq	%rsp, %rsi
	movq	%rbx, %rdi
.LEHB28:
	call	_ZN8opendnp38MContext17ScheduleAdhocTaskERKSt10shared_ptrINS_11IMasterTaskEE@PLT
.LEHE28:
	movq	8(%rsp), %rbx
	testq	%rbx, %rbx
	je	.L560
	movq	8(%rbx), %rdx
	leaq	8(%rbx), %rcx
	movabsq	$4294967297, %rax
	cmpq	%rax, %rdx
	je	.L592
	movq	__libc_single_threaded@GOTPCREL(%rip), %rax
	cmpb	$0, (%rax)
	je	.L562
	movl	8(%rbx), %eax
	leal	-1(%rax), %edx
	movl	%edx, 8(%rbx)
.L563:
	cmpl	$1, %eax
	je	.L593
.L560:
	movq	40(%rsp), %rbx
	testq	%rbx, %rbx
	je	.L566
	movq	8(%rbx), %rdx
	leaq	8(%rbx), %rcx
	movabsq	$4294967297, %rax
	cmpq	%rax, %rdx
	je	.L594
	movq	__libc_single_threaded@GOTPCREL(%rip), %rax
	cmpb	$0, (%rax)
	je	.L568
	movl	8(%rbx), %eax
	leal	-1(%rax), %edx
	movl	%edx, 8(%rbx)
.L569:
	cmpl	$1, %eax
	je	.L595
.L566:
	movq	24(%rsp), %rbx
	testq	%rbx, %rbx
	je	.L554
	movq	8(%rbx), %rdx
	leaq	8(%rbx), %rcx
	movabsq	$4294967297, %rax
	cmpq	%rax, %rdx
	je	.L596
	movq	__libc_single_threaded@GOTPCREL(%rip), %rax
	cmpb	$0, (%rax)
	je	.L574
	movl	8(%rbx), %eax
	leal	-1(%rax), %edx
	movl	%edx, 8(%rbx)
.L575:
	cmpl	$1, %eax
	je	.L597
.L554:
	addq	$48, %rsp
	.cfi_remember_state
	.cfi_def_cfa_offset 32
	popq	%rbx
	.cfi_def_cfa_offset 24
	popq	%rbp
	.cfi_def_cfa_offset 16
	popq	%r12
	.cfi_def_cfa_offset 8
	ret
	.p2align 4,,10
	.p2align 3
.L556:
	.cfi_restore_state
	lock addl	$1, 8(%rax)
	jmp	.L555
	.p2align 4,,10
	.p2align 3
.L558:
	lock addl	$1, 8(%rax)
	jmp	.L557
	.p2align 4,,10
	.p2align 3
.L594:
	movq	(%rbx), %rax
	movq	%rbx, %rdi
	movq	$0, 8(%rbx)
	call	*16(%rax)
	movq	(%rbx), %rax
	movq	%rbx, %rdi
	call	*24(%rax)
	jmp	.L566
	.p2align 4,,10
	.p2align 3
.L592:
	movq	(%rbx), %rax
	movq	%rbx, %rdi
	movq	$0, 8(%rbx)
	call	*16(%rax)
	movq	(%rbx), %rax
	movq	%rbx, %rdi
	call	*24(%rax)
	jmp	.L560
	.p2align 4,,10
	.p2align 3
.L596:
	movq	(%rbx), %rax
	movq	%rbx, %rdi
	movq	$0, 8(%rbx)
	call	*16(%rax)
	movq	(%rbx), %rax
	movq	%rbx, %rdi
	call	*24(%rax)
	addq	$48, %rsp
	.cfi_remember_state
	.cfi_def_cfa_offset 32
	popq	%rbx
	.cfi_def_cfa_offset 24
	popq	%rbp
	.cfi_def_cfa_offset 16
	popq	%r12
	.cfi_def_cfa_offset 8
	ret
	.p2align 4,,10
	.p2align 3
.L574:
	.cfi_restore_state
	movl	$-1, %eax
	lock xaddl	%eax, (%rcx)
	jmp	.L575
	.p2align 4,,10
	.p2align 3
.L562:
	movl	$-1, %eax
	lock xaddl	%eax, (%rcx)
	jmp	.L563
	.p2align 4,,10
	.p2align 3
.L568:
	movl	$-1, %eax
	lock xaddl	%eax, (%rcx)
	jmp	.L569
	.p2align 4,,10
	.p2align 3
.L593:
	movq	%rbx, %rdi
	call	_ZNSt16_Sp_counted_baseILN9__gnu_cxx12_Lock_policyE2EE24_M_release_last_use_coldEv@PLT
	jmp	.L560
	.p2align 4,,10
	.p2align 3
.L597:
	movq	%rbx, %rdi
	call	_ZNSt16_Sp_counted_baseILN9__gnu_cxx12_Lock_policyE2EE24_M_release_last_use_coldEv@PLT
	jmp	.L554
	.p2align 4,,10
	.p2align 3
.L595:
	movq	%rbx, %rdi
	call	_ZNSt16_Sp_counted_baseILN9__gnu_cxx12_Lock_policyE2EE24_M_release_last_use_coldEv@PLT
	jmp	.L566
.L580:
	movq	%rax, %rbx
	jmp	.L579
.L581:
	movq	%rax, %rbx
	jmp	.L577
	.section	.gcc_except_table
.LLSDA3426:
	.byte	0xff
	.byte	0xff
	.byte	0x1
	.uleb128 .LLSDACSE3426-.LLSDACSB3426
.LLSDACSB3426:
	.uleb128 .LEHB27-.LFB3426
	.uleb128 .LEHE27-.LEHB27
	.uleb128 .L580-.LFB3426
	.uleb128 0
	.uleb128 .LEHB28-.LFB3426
	.uleb128 .LEHE28-.LEHB28
	.uleb128 .L581-.LFB3426
	.uleb128 0
.LLSDACSE3426:
	.text
	.cfi_endproc
	.section	.text.unlikely
	.cfi_startproc
	.cfi_personality 0x9b,DW.ref.__gxx_personality_v0
	.cfi_lsda 0x1b,.LLSDAC3426
	.type	_ZN8opendnp38MContext13DirectOperateEONS_10CommandSetERKSt8functionIFvRKNS_18ICommandTaskResultEEERKNS_10TaskConfigE.cold, @function
_ZN8opendnp38MContext13DirectOperateEONS_10CommandSetERKSt8functionIFvRKNS_18ICommandTaskResultEEERKNS_10TaskConfigE.cold:
.LFSB3426:
.L577:
	.cfi_def_cfa_offset 80
	.cfi_offset 3, -32
	.cfi_offset 6, -24
	.cfi_offset 12, -16
	movq	8(%rsp), %rdi
	testq	%rdi, %rdi
	je	.L579
	call	_ZNSt16_Sp_counted_baseILN9__gnu_cxx12_Lock_policyE2EE10_M_releaseEv@PLT
.L579:
	leaq	16(%rsp), %rdi
	call	_ZN7openpal6LoggerD1Ev@PLT
	movq	%rbx, %rdi
.LEHB29:
	call	_Unwind_Resume@PLT
.LEHE29:
	.cfi_endproc
.LFE3426:
	.section	.gcc_except_table
.LLSDAC3426:
	.byte	0xff
	.byte	0xff
	.byte	0x1
	.uleb128 .LLSDACSEC3426-.LLSDACSBC3426
.LLSDACSBC3426:
	.uleb128 .LEHB29-.LCOLDB24
	.uleb128 .LEHE29-.LEHB29
	.uleb128 0
	.uleb128 0
.LLSDACSEC3426:
	.section	.text.unlikely
	.text
	.size	_ZN8opendnp38MContext13DirectOperateEONS_10CommandSetERKSt8functionIFvRKNS_18ICommandTaskResultEEERKNS_10TaskConfigE, .-_ZN8opendnp38MContext13DirectOperateEONS_10CommandSetERKSt8functionIFvRKNS_18ICommandTaskResultEEERKNS_10TaskConfigE
	.section	.text.unlikely
	.size	_ZN8opendnp38MContext13DirectOperateEONS_10CommandSetERKSt8functionIFvRKNS_18ICommandTaskResultEEERKNS_10TaskConfigE.cold, .-_ZN8opendnp38MContext13DirectOperateEONS_10CommandSetERKSt8functionIFvRKNS_18ICommandTaskResultEEERKNS_10TaskConfigE.cold
.LCOLDE24:
	.text
.LHOTE24:
	.section	.text.unlikely
	.align 2
.LCOLDB25:
	.text
.LHOTB25:
	.align 2
	.p2align 4
	.globl	_ZN8opendnp38MContext16SelectAndOperateEONS_10CommandSetERKSt8functionIFvRKNS_18ICommandTaskResultEEERKNS_10TaskConfigE
	.type	_ZN8opendnp38MContext16SelectAndOperateEONS_10CommandSetERKSt8functionIFvRKNS_18ICommandTaskResultEEERKNS_10TaskConfigE, @function
_ZN8opendnp38MContext16SelectAndOperateEONS_10CommandSetERKSt8functionIFvRKNS_18ICommandTaskResultEEERKNS_10TaskConfigE:
.LFB3427:
	.cfi_startproc
	.cfi_personality 0x9b,DW.ref.__gxx_personality_v0
	.cfi_lsda 0x1b,.LLSDA3427
	pushq	%r12
	.cfi_def_cfa_offset 16
	.cfi_offset 12, -16
	movq	%rcx, %r8
	pushq	%rbp
	.cfi_def_cfa_offset 24
	.cfi_offset 6, -24
	pushq	%rbx
	.cfi_def_cfa_offset 32
	.cfi_offset 3, -32
	movq	%rdi, %rbx
	subq	$48, %rsp
	.cfi_def_cfa_offset 80
	movdqu	24(%rdi), %xmm0
	movhlps	%xmm0, %xmm1
	movaps	%xmm0, 16(%rsp)
	movq	%xmm1, %rax
	testq	%rax, %rax
	je	.L599
	movq	__libc_single_threaded@GOTPCREL(%rip), %rcx
	cmpb	$0, (%rcx)
	je	.L600
	addl	$1, 8(%rax)
.L599:
	movdqu	40(%rbx), %xmm0
	movhlps	%xmm0, %xmm2
	movaps	%xmm0, 32(%rsp)
	movq	%xmm2, %rax
	testq	%rax, %rax
	je	.L601
	movq	__libc_single_threaded@GOTPCREL(%rip), %rcx
	cmpb	$0, (%rcx)
	je	.L602
	addl	$1, 8(%rax)
.L601:
	movq	%rdx, %rcx
	movq	144(%rbx), %rdx
	leaq	16(%rsp), %r9
	movq	%rsp, %rdi
.LEHB30:
	call	_ZN8opendnp311CommandTask22CreateSelectAndOperateEONS_10CommandSetERNS_18IMasterApplicationERKSt8functionIFvRKNS_18ICommandTaskResultEEERKNS_10TaskConfigEN7openpal6LoggerE@PLT
.LEHE30:
	movq	%rsp, %rsi
	movq	%rbx, %rdi
.LEHB31:
	call	_ZN8opendnp38MContext17ScheduleAdhocTaskERKSt10shared_ptrINS_11IMasterTaskEE@PLT
.LEHE31:
	movq	8(%rsp), %rbx
	testq	%rbx, %rbx
	je	.L604
	movq	8(%rbx), %rdx
	leaq	8(%rbx), %rcx
	movabsq	$4294967297, %rax
	cmpq	%rax, %rdx
	je	.L636
	movq	__libc_single_threaded@GOTPCREL(%rip), %rax
	cmpb	$0, (%rax)
	je	.L606
	movl	8(%rbx), %eax
	leal	-1(%rax), %edx
	movl	%edx, 8(%rbx)
.L607:
	cmpl	$1, %eax
	je	.L637
.L604:
	movq	40(%rsp), %rbx
	testq	%rbx, %rbx
	je	.L610
	movq	8(%rbx), %rdx
	leaq	8(%rbx), %rcx
	movabsq	$4294967297, %rax
	cmpq	%rax, %rdx
	je	.L638
	movq	__libc_single_threaded@GOTPCREL(%rip), %rax
	cmpb	$0, (%rax)
	je	.L612
	movl	8(%rbx), %eax
	leal	-1(%rax), %edx
	movl	%edx, 8(%rbx)
.L613:
	cmpl	$1, %eax
	je	.L639
.L610:
	movq	24(%rsp), %rbx
	testq	%rbx, %rbx
	je	.L598
	movq	8(%rbx), %rdx
	leaq	8(%rbx), %rcx
	movabsq	$4294967297, %rax
	cmpq	%rax, %rdx
	je	.L640
	movq	__libc_single_threaded@GOTPCREL(%rip), %rax
	cmpb	$0, (%rax)
	je	.L618
	movl	8(%rbx), %eax
	leal	-1(%rax), %edx
	movl	%edx, 8(%rbx)
.L619:
	cmpl	$1, %eax
	je	.L641
.L598:
	addq	$48, %rsp
	.cfi_remember_state
	.cfi_def_cfa_offset 32
	popq	%rbx
	.cfi_def_cfa_offset 24
	popq	%rbp
	.cfi_def_cfa_offset 16
	popq	%r12
	.cfi_def_cfa_offset 8
	ret
	.p2align 4,,10
	.p2align 3
.L600:
	.cfi_restore_state
	lock addl	$1, 8(%rax)
	jmp	.L599
	.p2align 4,,10
	.p2align 3
.L602:
	lock addl	$1, 8(%rax)
	jmp	.L601
	.p2align 4,,10
	.p2align 3
.L638:
	movq	(%rbx), %rax
	movq	%rbx, %rdi
	movq	$0, 8(%rbx)
	call	*16(%rax)
	movq	(%rbx), %rax
	movq	%rbx, %rdi
	call	*24(%rax)
	jmp	.L610
	.p2align 4,,10
	.p2align 3
.L636:
	movq	(%rbx), %rax
	movq	%rbx, %rdi
	movq	$0, 8(%rbx)
	call	*16(%rax)
	movq	(%rbx), %rax
	movq	%rbx, %rdi
	call	*24(%rax)
	jmp	.L604
	.p2align 4,,10
	.p2align 3
.L640:
	movq	(%rbx), %rax
	movq	%rbx, %rdi
	movq	$0, 8(%rbx)
	call	*16(%rax)
	movq	(%rbx), %rax
	movq	%rbx, %rdi
	call	*24(%rax)
	addq	$48, %rsp
	.cfi_remember_state
	.cfi_def_cfa_offset 32
	popq	%rbx
	.cfi_def_cfa_offset 24
	popq	%rbp
	.cfi_def_cfa_offset 16
	popq	%r12
	.cfi_def_cfa_offset 8
	ret
	.p2align 4,,10
	.p2align 3
.L618:
	.cfi_restore_state
	movl	$-1, %eax
	lock xaddl	%eax, (%rcx)
	jmp	.L619
	.p2align 4,,10
	.p2align 3
.L606:
	movl	$-1, %eax
	lock xaddl	%eax, (%rcx)
	jmp	.L607
	.p2align 4,,10
	.p2align 3
.L612:
	movl	$-1, %eax
	lock xaddl	%eax, (%rcx)
	jmp	.L613
	.p2align 4,,10
	.p2align 3
.L637:
	movq	%rbx, %rdi
	call	_ZNSt16_Sp_counted_baseILN9__gnu_cxx12_Lock_policyE2EE24_M_release_last_use_coldEv@PLT
	jmp	.L604
	.p2align 4,,10
	.p2align 3
.L641:
	movq	%rbx, %rdi
	call	_ZNSt16_Sp_counted_baseILN9__gnu_cxx12_Lock_policyE2EE24_M_release_last_use_coldEv@PLT
	jmp	.L598
	.p2align 4,,10
	.p2align 3
.L639:
	movq	%rbx, %rdi
	call	_ZNSt16_Sp_counted_baseILN9__gnu_cxx12_Lock_policyE2EE24_M_release_last_use_coldEv@PLT
	jmp	.L610
.L624:
	movq	%rax, %rbx
	jmp	.L623
.L625:
	movq	%rax, %rbx
	jmp	.L621
	.section	.gcc_except_table
.LLSDA3427:
	.byte	0xff
	.byte	0xff
	.byte	0x1
	.uleb128 .LLSDACSE3427-.LLSDACSB3427
.LLSDACSB3427:
	.uleb128 .LEHB30-.LFB3427
	.uleb128 .LEHE30-.LEHB30
	.uleb128 .L624-.LFB3427
	.uleb128 0
	.uleb128 .LEHB31-.LFB3427
	.uleb128 .LEHE31-.LEHB31
	.uleb128 .L625-.LFB3427
	.uleb128 0
.LLSDACSE3427:
	.text
	.cfi_endproc
	.section	.text.unlikely
	.cfi_startproc
	.cfi_personality 0x9b,DW.ref.__gxx_personality_v0
	.cfi_lsda 0x1b,.LLSDAC3427
	.type	_ZN8opendnp38MContext16SelectAndOperateEONS_10CommandSetERKSt8functionIFvRKNS_18ICommandTaskResultEEERKNS_10TaskConfigE.cold, @function
_ZN8opendnp38MContext16SelectAndOperateEONS_10CommandSetERKSt8functionIFvRKNS_18ICommandTaskResultEEERKNS_10TaskConfigE.cold:
.LFSB3427:
.L621:
	.cfi_def_cfa_offset 80
	.cfi_offset 3, -32
	.cfi_offset 6, -24
	.cfi_offset 12, -16
	movq	8(%rsp), %rdi
	testq	%rdi, %rdi
	je	.L623
	call	_ZNSt16_Sp_counted_baseILN9__gnu_cxx12_Lock_policyE2EE10_M_releaseEv@PLT
.L623:
	leaq	16(%rsp), %rdi
	call	_ZN7openpal6LoggerD1Ev@PLT
	movq	%rbx, %rdi
.LEHB32:
	call	_Unwind_Resume@PLT
.LEHE32:
	.cfi_endproc
.LFE3427:
	.section	.gcc_except_table
.LLSDAC3427:
	.byte	0xff
	.byte	0xff
	.byte	0x1
	.uleb128 .LLSDACSEC3427-.LLSDACSBC3427
.LLSDACSBC3427:
	.uleb128 .LEHB32-.LCOLDB25
	.uleb128 .LEHE32-.LEHB32
	.uleb128 0
	.uleb128 0
.LLSDACSEC3427:
	.section	.text.unlikely
	.text
	.size	_ZN8opendnp38MContext16SelectAndOperateEONS_10CommandSetERKSt8functionIFvRKNS_18ICommandTaskResultEEERKNS_10TaskConfigE, .-_ZN8opendnp38MContext16SelectAndOperateEONS_10CommandSetERKSt8functionIFvRKNS_18ICommandTaskResultEEERKNS_10TaskConfigE
	.section	.text.unlikely
	.size	_ZN8opendnp38MContext16SelectAndOperateEONS_10CommandSetERKSt8functionIFvRKNS_18ICommandTaskResultEEERKNS_10TaskConfigE.cold, .-_ZN8opendnp38MContext16SelectAndOperateEONS_10CommandSetERKSt8functionIFvRKNS_18ICommandTaskResultEEERKNS_10TaskConfigE.cold
.LCOLDE25:
	.text
.LHOTE25:
	.p2align 4
	.type	_ZNSt17_Function_handlerIFvvEZN7openpal8TimerRef7RestartIZN8opendnp38MContext14StartTask_IdleEvEUlvE_EEvRKNS1_18MonotonicTimestampERKT_EUlvE_E9_M_invokeERKSt9_Any_data, @function
_ZNSt17_Function_handlerIFvvEZN7openpal8TimerRef7RestartIZN8opendnp38MContext14StartTask_IdleEvEUlvE_EEvRKNS1_18MonotonicTimestampERKT_EUlvE_E9_M_invokeERKSt9_Any_data:
.LFB4522:
	.cfi_startproc
	movq	(%rdi), %rax
	movq	8(%rdi), %rdi
	movq	$0, 8(%rax)
	jmp	_ZN8opendnp38MContext12CheckForTaskEv@PLT
	.cfi_endproc
.LFE4522:
	.size	_ZNSt17_Function_handlerIFvvEZN7openpal8TimerRef7RestartIZN8opendnp38MContext14StartTask_IdleEvEUlvE_EEvRKNS1_18MonotonicTimestampERKT_EUlvE_E9_M_invokeERKSt9_Any_data, .-_ZNSt17_Function_handlerIFvvEZN7openpal8TimerRef7RestartIZN8opendnp38MContext14StartTask_IdleEvEUlvE_EEvRKNS1_18MonotonicTimestampERKT_EUlvE_E9_M_invokeERKSt9_Any_data
	.align 2
	.p2align 4
	.globl	_ZN8opendnp38MContext12OnSendResultEb
	.type	_ZN8opendnp38MContext12OnSendResultEb, @function
_ZN8opendnp38MContext12OnSendResultEb:
.LFB3421:
	.cfi_startproc
	movzbl	168(%rdi), %edx
	testb	%dl, %dl
	je	.L652
	movzbl	169(%rdi), %edx
	testb	%dl, %dl
	jne	.L655
.L652:
	movl	%edx, %eax
	ret
	.p2align 4,,10
	.p2align 3
.L655:
	subq	$24, %rsp
	.cfi_def_cfa_offset 32
	movb	$0, 169(%rdi)
	movb	%dl, 15(%rsp)
	movq	%rdi, (%rsp)
	call	_ZN8opendnp38MContext20CheckConfirmTransmitEv@PLT
	movq	(%rsp), %rdi
	call	_ZN8opendnp38MContext12CheckForTaskEv@PLT
	movzbl	15(%rsp), %eax
	addq	$24, %rsp
	.cfi_def_cfa_offset 8
	ret
	.cfi_endproc
.LFE3421:
	.size	_ZN8opendnp38MContext12OnSendResultEb, .-_ZN8opendnp38MContext12OnSendResultEb
	.section	.text.unlikely
	.align 2
.LCOLDB27:
	.text
.LHOTB27:
	.align 2
	.p2align 4
	.globl	_ZN8opendnp38MContext7RestartENS_11RestartTypeERKSt8functionIFvRKNS_22RestartOperationResultEEENS_10TaskConfigE
	.type	_ZN8opendnp38MContext7RestartENS_11RestartTypeERKSt8functionIFvRKNS_22RestartOperationResultEEENS_10TaskConfigE, @function
_ZN8opendnp38MContext7RestartENS_11RestartTypeERKSt8functionIFvRKNS_22RestartOperationResultEEENS_10TaskConfigE:
.LFB3488:
	.cfi_startproc
	.cfi_personality 0x9b,DW.ref.__gxx_personality_v0
	.cfi_lsda 0x1b,.LLSDA3488
	pushq	%r15
	.cfi_def_cfa_offset 16
	.cfi_offset 15, -16
	pushq	%r14
	.cfi_def_cfa_offset 24
	.cfi_offset 14, -24
	pushq	%r13
	.cfi_def_cfa_offset 32
	.cfi_offset 13, -32
	pushq	%r12
	.cfi_def_cfa_offset 40
	.cfi_offset 12, -40
	movq	%rdi, %r12
	pushq	%rbp
	.cfi_def_cfa_offset 48
	.cfi_offset 6, -48
	pushq	%rbx
	.cfi_def_cfa_offset 56
	.cfi_offset 3, -56
	subq	$88, %rsp
	.cfi_def_cfa_offset 144
	movq	144(%rdi), %r14
	movl	$208, %edi
	movq	%rdx, 16(%rsp)
	movq	%rcx, 32(%rsp)
	movq	%r8, 40(%rsp)
	movb	%sil, 15(%rsp)
.LEHB33:
	call	_Znwm@PLT
.LEHE33:
	movdqu	24(%r12), %xmm0
	movq	%rax, %rbx
	addq	$8, %rax
	movq	%rax, 24(%rsp)
	movq	.LC13(%rip), %rax
	movhlps	%xmm0, %xmm1
	leaq	16(%rbx), %r15
	movq	%xmm1, %rdx
	movaps	%xmm0, 48(%rsp)
	movq	%rax, 8(%rbx)
	movq	_ZTVSt23_Sp_counted_ptr_inplaceIN8opendnp320RestartOperationTaskESaIvELN9__gnu_cxx12_Lock_policyE2EE@GOTPCREL(%rip), %rax
	addq	$16, %rax
	movq	%rax, (%rbx)
	testq	%rdx, %rdx
	je	.L657
	movq	__libc_single_threaded@GOTPCREL(%rip), %rbp
	cmpb	$0, 0(%rbp)
	je	.L658
	addl	$1, 8(%rdx)
.L657:
	movdqu	40(%r12), %xmm0
	movhlps	%xmm0, %xmm2
	movaps	%xmm0, 64(%rsp)
	movq	%xmm2, %rdx
	testq	%rdx, %rdx
	je	.L659
	movq	__libc_single_threaded@GOTPCREL(%rip), %rbp
	cmpb	$0, 0(%rbp)
	je	.L660
	addl	$1, 8(%rdx)
.L659:
	movq	16(%rsp), %rcx
	movzbl	15(%rsp), %edx
	movq	%r14, %rsi
	movq	%r15, %rdi
	leaq	32(%rsp), %r9
	leaq	48(%rsp), %r8
.LEHB34:
	call	_ZN8opendnp320RestartOperationTaskC1ERNS_18IMasterApplicationENS_11RestartTypeERKSt8functionIFvRKNS_22RestartOperationResultEEEN7openpal6LoggerERKNS_10TaskConfigE@PLT
.LEHE34:
	movq	72(%rsp), %r14
	testq	%r14, %r14
	je	.L702
	movq	8(%r14), %rcx
	leaq	8(%r14), %rsi
	movabsq	$4294967297, %rdx
	cmpq	%rdx, %rcx
	je	.L704
	movq	__libc_single_threaded@GOTPCREL(%rip), %rbp
	cmpb	$0, 0(%rbp)
	je	.L664
	movl	8(%r14), %edx
	leal	-1(%rdx), %ecx
	movl	%ecx, 8(%r14)
.L665:
	cmpl	$1, %edx
	jne	.L662
	movq	%r14, %rdi
	call	_ZNSt16_Sp_counted_baseILN9__gnu_cxx12_Lock_policyE2EE24_M_release_last_use_coldEv@PLT
	jmp	.L662
	.p2align 4,,10
	.p2align 3
.L704:
	movq	(%r14), %rdx
	movq	%r14, %rdi
	movq	$0, 8(%r14)
	call	*16(%rdx)
	movq	(%r14), %rdx
	movq	%r14, %rdi
	call	*24(%rdx)
	.p2align 4
	.p2align 3
.L702:
	movq	__libc_single_threaded@GOTPCREL(%rip), %rbp
.L662:
	movq	56(%rsp), %r14
	testq	%r14, %r14
	je	.L703
	movq	8(%r14), %rcx
	leaq	8(%r14), %rsi
	movabsq	$4294967297, %rdx
	cmpq	%rdx, %rcx
	je	.L705
	cmpb	$0, 0(%rbp)
	je	.L670
	movl	8(%r14), %edx
	leal	-1(%rdx), %ecx
	movl	%ecx, 8(%r14)
.L671:
	cmpl	$1, %edx
	je	.L706
.L703:
	movq	%r15, 48(%rsp)
	movq	%rbx, 56(%rsp)
.L668:
	cmpb	$0, 0(%rbp)
	je	.L674
	addl	$1, 8(%rbx)
.L675:
	leaq	48(%rsp), %rsi
	movq	%r12, %rdi
.LEHB35:
	call	_ZN8opendnp38MContext17ScheduleAdhocTaskERKSt10shared_ptrINS_11IMasterTaskEE@PLT
.LEHE35:
	movq	56(%rsp), %r12
	testq	%r12, %r12
	je	.L678
	movq	8(%r12), %rdx
	leaq	8(%r12), %rcx
	movabsq	$4294967297, %rax
	cmpq	%rax, %rdx
	je	.L707
	cmpb	$0, 0(%rbp)
	je	.L679
	movl	8(%r12), %eax
	leal	-1(%rax), %edx
	movl	%edx, 8(%r12)
.L680:
	cmpl	$1, %eax
	je	.L708
.L678:
	movabsq	$4294967297, %rax
	movq	8(%rbx), %rdx
	cmpq	%rax, %rdx
	je	.L709
	cmpb	$0, 0(%rbp)
	je	.L683
	movl	8(%rbx), %eax
	leal	-1(%rax), %edx
	movl	%edx, 8(%rbx)
.L684:
	cmpl	$1, %eax
	je	.L710
.L656:
	addq	$88, %rsp
	.cfi_remember_state
	.cfi_def_cfa_offset 56
	popq	%rbx
	.cfi_def_cfa_offset 48
	popq	%rbp
	.cfi_def_cfa_offset 40
	popq	%r12
	.cfi_def_cfa_offset 32
	popq	%r13
	.cfi_def_cfa_offset 24
	popq	%r14
	.cfi_def_cfa_offset 16
	popq	%r15
	.cfi_def_cfa_offset 8
	ret
	.p2align 4,,10
	.p2align 3
.L658:
	.cfi_restore_state
	lock addl	$1, 8(%rdx)
	jmp	.L657
	.p2align 4,,10
	.p2align 3
.L674:
	lock addl	$1, 8(%rbx)
	jmp	.L675
	.p2align 4,,10
	.p2align 3
.L660:
	lock addl	$1, 8(%rdx)
	jmp	.L659
	.p2align 4,,10
	.p2align 3
.L705:
	movq	(%r14), %rdx
	movq	%r14, %rdi
	movq	$0, 8(%r14)
	call	*16(%rdx)
	movq	(%r14), %rdx
	movq	%r14, %rdi
	call	*24(%rdx)
	movq	%r15, 48(%rsp)
	movq	%rbx, 56(%rsp)
	jmp	.L668
	.p2align 4,,10
	.p2align 3
.L670:
	movl	$-1, %edx
	lock xaddl	%edx, (%rsi)
	jmp	.L671
	.p2align 4,,10
	.p2align 3
.L664:
	movl	$-1, %edx
	lock xaddl	%edx, (%rsi)
	jmp	.L665
	.p2align 4,,10
	.p2align 3
.L683:
	movq	24(%rsp), %rdi
	movl	$-1, %eax
	lock xaddl	%eax, (%rdi)
	jmp	.L684
	.p2align 4,,10
	.p2align 3
.L679:
	movl	$-1, %eax
	lock xaddl	%eax, (%rcx)
	jmp	.L680
	.p2align 4,,10
	.p2align 3
.L709:
	movq	(%rbx), %rax
	movq	%rbx, %rdi
	movq	$0, 8(%rbx)
	call	*16(%rax)
	movq	(%rbx), %rax
	movq	%rbx, %rdi
	call	*24(%rax)
	addq	$88, %rsp
	.cfi_remember_state
	.cfi_def_cfa_offset 56
	popq	%rbx
	.cfi_def_cfa_offset 48
	popq	%rbp
	.cfi_def_cfa_offset 40
	popq	%r12
	.cfi_def_cfa_offset 32
	popq	%r13
	.cfi_def_cfa_offset 24
	popq	%r14
	.cfi_def_cfa_offset 16
	popq	%r15
	.cfi_def_cfa_offset 8
	ret
	.p2align 4,,10
	.p2align 3
.L707:
	.cfi_restore_state
	movq	$0, 8(%r12)
	movq	(%r12), %rax
	movq	%r12, %rdi
	call	*16(%rax)
	movq	(%r12), %rax
	movq	%r12, %rdi
	call	*24(%rax)
	jmp	.L678
	.p2align 4,,10
	.p2align 3
.L706:
	movq	%r14, %rdi
	call	_ZNSt16_Sp_counted_baseILN9__gnu_cxx12_Lock_policyE2EE24_M_release_last_use_coldEv@PLT
	jmp	.L703
	.p2align 4,,10
	.p2align 3
.L708:
	movq	%r12, %rdi
	call	_ZNSt16_Sp_counted_baseILN9__gnu_cxx12_Lock_policyE2EE24_M_release_last_use_coldEv@PLT
	jmp	.L678
	.p2align 4,,10
	.p2align 3
.L710:
	movq	%rbx, %rdi
	call	_ZNSt16_Sp_counted_baseILN9__gnu_cxx12_Lock_policyE2EE24_M_release_last_use_coldEv@PLT
	jmp	.L656
.L688:
	movq	%rax, %rbp
	jmp	.L673
.L687:
	movq	%rax, %rbp
	jmp	.L685
	.section	.gcc_except_table
.LLSDA3488:
	.byte	0xff
	.byte	0xff
	.byte	0x1
	.uleb128 .LLSDACSE3488-.LLSDACSB3488
.LLSDACSB3488:
	.uleb128 .LEHB33-.LFB3488
	.uleb128 .LEHE33-.LEHB33
	.uleb128 0
	.uleb128 0
	.uleb128 .LEHB34-.LFB3488
	.uleb128 .LEHE34-.LEHB34
	.uleb128 .L688-.LFB3488
	.uleb128 0
	.uleb128 .LEHB35-.LFB3488
	.uleb128 .LEHE35-.LEHB35
	.uleb128 .L687-.LFB3488
	.uleb128 0
.LLSDACSE3488:
	.text
	.cfi_endproc
	.section	.text.unlikely
	.cfi_startproc
	.cfi_personality 0x9b,DW.ref.__gxx_personality_v0
	.cfi_lsda 0x1b,.LLSDAC3488
	.type	_ZN8opendnp38MContext7RestartENS_11RestartTypeERKSt8functionIFvRKNS_22RestartOperationResultEEENS_10TaskConfigE.cold, @function
_ZN8opendnp38MContext7RestartENS_11RestartTypeERKSt8functionIFvRKNS_22RestartOperationResultEEENS_10TaskConfigE.cold:
.LFSB3488:
.L673:
	.cfi_def_cfa_offset 144
	.cfi_offset 3, -56
	.cfi_offset 6, -48
	.cfi_offset 12, -40
	.cfi_offset 13, -32
	.cfi_offset 14, -24
	.cfi_offset 15, -16
	leaq	48(%rsp), %rdi
	call	_ZN7openpal6LoggerD1Ev@PLT
	movq	%rbx, %rdi
	movl	$208, %esi
	call	_ZdlPvm@PLT
	movq	%rbp, %rdi
.LEHB36:
	call	_Unwind_Resume@PLT
.L685:
	movq	56(%rsp), %rdi
	testq	%rdi, %rdi
	je	.L686
	call	_ZNSt16_Sp_counted_baseILN9__gnu_cxx12_Lock_policyE2EE10_M_releaseEv@PLT
.L686:
	movq	%rbx, %rdi
	call	_ZNSt16_Sp_counted_baseILN9__gnu_cxx12_Lock_policyE2EE10_M_releaseEv@PLT
	movq	%rbp, %rdi
	call	_Unwind_Resume@PLT
.LEHE36:
	.cfi_endproc
.LFE3488:
	.section	.gcc_except_table
.LLSDAC3488:
	.byte	0xff
	.byte	0xff
	.byte	0x1
	.uleb128 .LLSDACSEC3488-.LLSDACSBC3488
.LLSDACSBC3488:
	.uleb128 .LEHB36-.LCOLDB27
	.uleb128 .LEHE36-.LEHB36
	.uleb128 0
	.uleb128 0
.LLSDACSEC3488:
	.section	.text.unlikely
	.text
	.size	_ZN8opendnp38MContext7RestartENS_11RestartTypeERKSt8functionIFvRKNS_22RestartOperationResultEEENS_10TaskConfigE, .-_ZN8opendnp38MContext7RestartENS_11RestartTypeERKSt8functionIFvRKNS_22RestartOperationResultEEENS_10TaskConfigE
	.section	.text.unlikely
	.size	_ZN8opendnp38MContext7RestartENS_11RestartTypeERKSt8functionIFvRKNS_22RestartOperationResultEEENS_10TaskConfigE.cold, .-_ZN8opendnp38MContext7RestartENS_11RestartTypeERKSt8functionIFvRKNS_22RestartOperationResultEEENS_10TaskConfigE.cold
.LCOLDE27:
	.text
.LHOTE27:
	.section	.text.unlikely
	.align 2
.LCOLDB29:
	.text
.LHOTB29:
	.align 2
	.p2align 4
	.globl	_ZN8opendnp38MContext15PerformFunctionERKNSt7__cxx1112basic_stringIcSt11char_traitsIcESaIcEEENS_12FunctionCodeERKSt8functionIFbRNS_12HeaderWriterEEENS_10TaskConfigE
	.type	_ZN8opendnp38MContext15PerformFunctionERKNSt7__cxx1112basic_stringIcSt11char_traitsIcESaIcEEENS_12FunctionCodeERKSt8functionIFbRNS_12HeaderWriterEEENS_10TaskConfigE, @function
_ZN8opendnp38MContext15PerformFunctionERKNSt7__cxx1112basic_stringIcSt11char_traitsIcESaIcEEENS_12FunctionCodeERKSt8functionIFbRNS_12HeaderWriterEEENS_10TaskConfigE:
.LFB3495:
	.cfi_startproc
	.cfi_personality 0x9b,DW.ref.__gxx_personality_v0
	.cfi_lsda 0x1b,.LLSDA3495
	pushq	%rbp
	.cfi_def_cfa_offset 16
	.cfi_offset 6, -16
	movq	%rsp, %rbp
	.cfi_def_cfa_register 6
	pushq	%r15
	pushq	%r14
	.cfi_offset 15, -24
	.cfi_offset 14, -32
	movq	%rdi, %r14
	pushq	%r13
	pushq	%r12
	pushq	%rbx
	subq	$88, %rsp
	.cfi_offset 13, -40
	.cfi_offset 12, -48
	.cfi_offset 3, -56
	movq	144(%rdi), %r13
	movl	$176, %edi
	movb	%dl, -113(%rbp)
	movq	%rcx, -112(%rbp)
	movq	%rsi, -104(%rbp)
	movq	%r8, -96(%rbp)
	movq	%r9, -88(%rbp)
.LEHB37:
	call	_Znwm@PLT
.LEHE37:
	movdqu	24(%r14), %xmm0
	movzbl	-113(%rbp), %ecx
	movq	%rax, %rbx
	addq	$8, %rax
	movq	%rax, -128(%rbp)
	movq	.LC13(%rip), %rax
	movhlps	%xmm0, %xmm1
	leaq	16(%rbx), %r15
	movq	%xmm1, %rdx
	movaps	%xmm0, -80(%rbp)
	movq	%rax, 8(%rbx)
	movq	_ZTVSt23_Sp_counted_ptr_inplaceIN8opendnp317EmptyResponseTaskESaIvELN9__gnu_cxx12_Lock_policyE2EE@GOTPCREL(%rip), %rax
	addq	$16, %rax
	testq	%rdx, %rdx
	movq	%rax, (%rbx)
	je	.L712
	movq	__libc_single_threaded@GOTPCREL(%rip), %rax
	cmpb	$0, (%rax)
	je	.L713
	addl	$1, 8(%rdx)
.L712:
	movdqu	40(%r14), %xmm0
	movhlps	%xmm0, %xmm2
	movaps	%xmm0, -64(%rbp)
	movq	%xmm2, %rdx
	testq	%rdx, %rdx
	je	.L714
	movq	__libc_single_threaded@GOTPCREL(%rip), %rax
	cmpb	$0, (%rax)
	je	.L715
	addl	$1, 8(%rdx)
.L714:
	leaq	-96(%rbp), %rdx
	subq	$8, %rsp
	leaq	-80(%rbp), %r12
	movq	-112(%rbp), %r8
	pushq	%rdx
	movq	-104(%rbp), %rdx
	movq	%r12, %r9
	movq	%r13, %rsi
	movq	%r15, %rdi
.LEHB38:
	.cfi_escape 0x2e,0x10
	call	_ZN8opendnp317EmptyResponseTaskC1ERNS_18IMasterApplicationERKNSt7__cxx1112basic_stringIcSt11char_traitsIcESaIcEEENS_12FunctionCodeERKSt8functionIFbRNS_12HeaderWriterEEEN7openpal6LoggerERKNS_10TaskConfigE@PLT
.LEHE38:
	movq	-56(%rbp), %r13
	popq	%rax
	popq	%rdx
	testq	%r13, %r13
	je	.L757
	movq	8(%r13), %rcx
	leaq	8(%r13), %rsi
	movabsq	$4294967297, %rdx
	cmpq	%rdx, %rcx
	je	.L759
	movq	__libc_single_threaded@GOTPCREL(%rip), %rax
	movq	%rax, -104(%rbp)
	cmpb	$0, (%rax)
	je	.L719
	movl	8(%r13), %edx
	leal	-1(%rdx), %ecx
	movl	%ecx, 8(%r13)
.L720:
	cmpl	$1, %edx
	jne	.L717
	movq	%r13, %rdi
	call	_ZNSt16_Sp_counted_baseILN9__gnu_cxx12_Lock_policyE2EE24_M_release_last_use_coldEv@PLT
	jmp	.L717
	.p2align 4,,10
	.p2align 3
.L759:
	movq	0(%r13), %rdx
	movq	%r13, %rdi
	movq	$0, 8(%r13)
	call	*16(%rdx)
	movq	0(%r13), %rdx
	movq	%r13, %rdi
	call	*24(%rdx)
	.p2align 4
	.p2align 3
.L757:
	movq	__libc_single_threaded@GOTPCREL(%rip), %rax
	movq	%rax, -104(%rbp)
.L717:
	movq	-72(%rbp), %r13
	testq	%r13, %r13
	je	.L758
	movq	8(%r13), %rcx
	leaq	8(%r13), %rsi
	movabsq	$4294967297, %rdx
	cmpq	%rdx, %rcx
	je	.L760
	movq	-104(%rbp), %rax
	cmpb	$0, (%rax)
	je	.L725
	movl	8(%r13), %edx
	leal	-1(%rdx), %ecx
	movl	%ecx, 8(%r13)
.L726:
	cmpl	$1, %edx
	je	.L761
.L758:
	movq	%r15, -80(%rbp)
	movq	%rbx, -72(%rbp)
.L723:
	movq	-104(%rbp), %rax
	cmpb	$0, (%rax)
	je	.L729
	addl	$1, 8(%rbx)
.L730:
	movq	%r12, %rsi
	movq	%r14, %rdi
.LEHB39:
	.cfi_escape 0x2e,0
	call	_ZN8opendnp38MContext17ScheduleAdhocTaskERKSt10shared_ptrINS_11IMasterTaskEE@PLT
.LEHE39:
	movq	-72(%rbp), %r12
	testq	%r12, %r12
	je	.L733
	movq	8(%r12), %rdx
	leaq	8(%r12), %rcx
	movabsq	$4294967297, %rax
	cmpq	%rax, %rdx
	je	.L762
	movq	-104(%rbp), %rax
	cmpb	$0, (%rax)
	je	.L734
	movl	8(%r12), %eax
	leal	-1(%rax), %edx
	movl	%edx, 8(%r12)
.L735:
	cmpl	$1, %eax
	je	.L763
.L733:
	movabsq	$4294967297, %rax
	movq	8(%rbx), %rdx
	cmpq	%rax, %rdx
	je	.L764
	movq	-104(%rbp), %rax
	cmpb	$0, (%rax)
	je	.L738
	movl	8(%rbx), %eax
	leal	-1(%rax), %edx
	movl	%edx, 8(%rbx)
.L739:
	cmpl	$1, %eax
	je	.L765
.L711:
	leaq	-40(%rbp), %rsp
	popq	%rbx
	popq	%r12
	popq	%r13
	popq	%r14
	popq	%r15
	popq	%rbp
	.cfi_remember_state
	.cfi_def_cfa 7, 8
	ret
	.p2align 4,,10
	.p2align 3
.L713:
	.cfi_restore_state
	lock addl	$1, 8(%rdx)
	jmp	.L712
	.p2align 4,,10
	.p2align 3
.L729:
	lock addl	$1, 8(%rbx)
	jmp	.L730
	.p2align 4,,10
	.p2align 3
.L715:
	lock addl	$1, 8(%rdx)
	jmp	.L714
	.p2align 4,,10
	.p2align 3
.L760:
	movq	0(%r13), %rdx
	movq	%r13, %rdi
	movq	$0, 8(%r13)
	call	*16(%rdx)
	movq	0(%r13), %rdx
	movq	%r13, %rdi
	call	*24(%rdx)
	movq	%r15, -80(%rbp)
	movq	%rbx, -72(%rbp)
	jmp	.L723
	.p2align 4,,10
	.p2align 3
.L725:
	movl	$-1, %edx
	lock xaddl	%edx, (%rsi)
	jmp	.L726
	.p2align 4,,10
	.p2align 3
.L719:
	movl	$-1, %edx
	lock xaddl	%edx, (%rsi)
	jmp	.L720
	.p2align 4,,10
	.p2align 3
.L738:
	movq	-128(%rbp), %rsi
	movl	$-1, %eax
	lock xaddl	%eax, (%rsi)
	jmp	.L739
	.p2align 4,,10
	.p2align 3
.L734:
	movl	$-1, %eax
	lock xaddl	%eax, (%rcx)
	jmp	.L735
	.p2align 4,,10
	.p2align 3
.L764:
	movq	(%rbx), %rax
	movq	%rbx, %rdi
	movq	$0, 8(%rbx)
	call	*16(%rax)
	movq	(%rbx), %rax
	movq	%rbx, %rdi
	call	*24(%rax)
	leaq	-40(%rbp), %rsp
	popq	%rbx
	popq	%r12
	popq	%r13
	popq	%r14
	popq	%r15
	popq	%rbp
	.cfi_remember_state
	.cfi_def_cfa 7, 8
	ret
	.p2align 4,,10
	.p2align 3
.L762:
	.cfi_restore_state
	movq	$0, 8(%r12)
	movq	(%r12), %rax
	movq	%r12, %rdi
	call	*16(%rax)
	movq	(%r12), %rax
	movq	%r12, %rdi
	call	*24(%rax)
	jmp	.L733
	.p2align 4,,10
	.p2align 3
.L761:
	movq	%r13, %rdi
	call	_ZNSt16_Sp_counted_baseILN9__gnu_cxx12_Lock_policyE2EE24_M_release_last_use_coldEv@PLT
	jmp	.L758
	.p2align 4,,10
	.p2align 3
.L763:
	movq	%r12, %rdi
	call	_ZNSt16_Sp_counted_baseILN9__gnu_cxx12_Lock_policyE2EE24_M_release_last_use_coldEv@PLT
	jmp	.L733
	.p2align 4,,10
	.p2align 3
.L765:
	movq	%rbx, %rdi
	call	_ZNSt16_Sp_counted_baseILN9__gnu_cxx12_Lock_policyE2EE24_M_release_last_use_coldEv@PLT
	jmp	.L711
.L743:
	movq	%rax, %r15
	jmp	.L728
.L742:
	movq	%rax, %r15
	jmp	.L740
	.section	.gcc_except_table
.LLSDA3495:
	.byte	0xff
	.byte	0xff
	.byte	0x1
	.uleb128 .LLSDACSE3495-.LLSDACSB3495
.LLSDACSB3495:
	.uleb128 .LEHB37-.LFB3495
	.uleb128 .LEHE37-.LEHB37
	.uleb128 0
	.uleb128 0
	.uleb128 .LEHB38-.LFB3495
	.uleb128 .LEHE38-.LEHB38
	.uleb128 .L743-.LFB3495
	.uleb128 0
	.uleb128 .LEHB39-.LFB3495
	.uleb128 .LEHE39-.LEHB39
	.uleb128 .L742-.LFB3495
	.uleb128 0
.LLSDACSE3495:
	.text
	.cfi_endproc
	.section	.text.unlikely
	.cfi_startproc
	.cfi_personality 0x9b,DW.ref.__gxx_personality_v0
	.cfi_lsda 0x1b,.LLSDAC3495
	.type	_ZN8opendnp38MContext15PerformFunctionERKNSt7__cxx1112basic_stringIcSt11char_traitsIcESaIcEEENS_12FunctionCodeERKSt8functionIFbRNS_12HeaderWriterEEENS_10TaskConfigE.cold, @function
_ZN8opendnp38MContext15PerformFunctionERKNSt7__cxx1112basic_stringIcSt11char_traitsIcESaIcEEENS_12FunctionCodeERKSt8functionIFbRNS_12HeaderWriterEEENS_10TaskConfigE.cold:
.LFSB3495:
.L728:
	.cfi_def_cfa 6, 16
	.cfi_offset 3, -56
	.cfi_offset 6, -16
	.cfi_offset 12, -48
	.cfi_offset 13, -40
	.cfi_offset 14, -32
	.cfi_offset 15, -24
	movq	%r12, %rdi
	call	_ZN7openpal6LoggerD1Ev@PLT
	movq	%rbx, %rdi
	movl	$176, %esi
	call	_ZdlPvm@PLT
	movq	%r15, %rdi
.LEHB40:
	call	_Unwind_Resume@PLT
.L740:
	movq	-72(%rbp), %rdi
	testq	%rdi, %rdi
	je	.L741
	call	_ZNSt16_Sp_counted_baseILN9__gnu_cxx12_Lock_policyE2EE10_M_releaseEv@PLT
.L741:
	movq	%rbx, %rdi
	call	_ZNSt16_Sp_counted_baseILN9__gnu_cxx12_Lock_policyE2EE10_M_releaseEv@PLT
	movq	%r15, %rdi
	call	_Unwind_Resume@PLT
.LEHE40:
	.cfi_endproc
.LFE3495:
	.section	.gcc_except_table
.LLSDAC3495:
	.byte	0xff
	.byte	0xff
	.byte	0x1
	.uleb128 .LLSDACSEC3495-.LLSDACSBC3495
.LLSDACSBC3495:
	.uleb128 .LEHB40-.LCOLDB29
	.uleb128 .LEHE40-.LEHB40
	.uleb128 0
	.uleb128 0
.LLSDACSEC3495:
	.section	.text.unlikely
	.text
	.size	_ZN8opendnp38MContext15PerformFunctionERKNSt7__cxx1112basic_stringIcSt11char_traitsIcESaIcEEENS_12FunctionCodeERKSt8functionIFbRNS_12HeaderWriterEEENS_10TaskConfigE, .-_ZN8opendnp38MContext15PerformFunctionERKNSt7__cxx1112basic_stringIcSt11char_traitsIcESaIcEEENS_12FunctionCodeERKSt8functionIFbRNS_12HeaderWriterEEENS_10TaskConfigE
	.section	.text.unlikely
	.size	_ZN8opendnp38MContext15PerformFunctionERKNSt7__cxx1112basic_stringIcSt11char_traitsIcESaIcEEENS_12FunctionCodeERKSt8functionIFbRNS_12HeaderWriterEEENS_10TaskConfigE.cold, .-_ZN8opendnp38MContext15PerformFunctionERKNSt7__cxx1112basic_stringIcSt11char_traitsIcESaIcEEENS_12FunctionCodeERKSt8functionIFbRNS_12HeaderWriterEEENS_10TaskConfigE.cold
.LCOLDE29:
	.text
.LHOTE29:
	.align 2
	.p2align 4
	.globl	_ZN8opendnp38MContext16OnLowerLayerDownEv
	.type	_ZN8opendnp38MContext16OnLowerLayerDownEv, @function
_ZN8opendnp38MContext16OnLowerLayerDownEv:
.LFB3419:
	.cfi_startproc
	pushq	%rbp
	.cfi_def_cfa_offset 16
	.cfi_offset 6, -16
	pushq	%rbx
	.cfi_def_cfa_offset 24
	.cfi_offset 3, -24
	subq	$40, %rsp
	.cfi_def_cfa_offset 64
	movzbl	168(%rdi), %ebp
	testb	%bpl, %bpl
	je	.L766
	movq	%rdi, %rbx
	movq	56(%rdi), %rdi
	movq	(%rdi), %rax
	call	*16(%rax)
	leaq	376(%rbx), %rdi
	leaq	24(%rsp), %rsi
	movq	%rax, 24(%rsp)
	call	_ZN8opendnp315MasterScheduler8ShutdownERKN7openpal18MonotonicTimestampE@PLT
	movq	176(%rbx), %rdi
	testq	%rdi, %rdi
	je	.L769
	movq	24(%rsp), %rsi
	call	_ZN8opendnp311IMasterTask17OnLowerLayerCloseEN7openpal18MonotonicTimestampE@PLT
	movq	184(%rbx), %rdi
	pxor	%xmm0, %xmm0
	movups	%xmm0, 176(%rbx)
	testq	%rdi, %rdi
	je	.L769
	movq	8(%rdi), %rdx
	leaq	8(%rdi), %rcx
	movabsq	$4294967297, %rax
	cmpq	%rax, %rdx
	je	.L783
	movq	__libc_single_threaded@GOTPCREL(%rip), %rax
	cmpb	$0, (%rax)
	je	.L772
	movl	8(%rdi), %eax
	leal	-1(%rax), %edx
	movl	%edx, 8(%rdi)
.L773:
	cmpl	$1, %eax
	je	.L784
.L769:
	movq	160(%rbx), %rdi
	movl	$0, 512(%rbx)
	movq	(%rdi), %rax
	movq	8(%rax), %rax
	cmpq	_ZN8opendnp312NullTaskLock7ReleaseERNS_17IScheduleCallbackE@GOTPCREL(%rip), %rax
	jne	.L785
.L774:
	leaq	192(%rbx), %rdi
	call	_ZN7openpal8TimerRef6CancelEv@PLT
	leaq	224(%rbx), %rdi
	call	_ZN7openpal8TimerRef6CancelEv@PLT
	leaq	208(%rbx), %rdi
	call	_ZN7openpal8TimerRef6CancelEv@PLT
	movq	144(%rbx), %rdi
	xorl	%eax, %eax
	movb	$0, 171(%rbx)
	movw	%ax, 168(%rbx)
	movq	(%rdi), %rax
	movb	$0, 170(%rbx)
	movq	80(%rax), %rax
	cmpq	_ZN8opendnp318IMasterApplication7OnCloseEv@GOTPCREL(%rip), %rax
	jne	.L786
.L766:
	addq	$40, %rsp
	.cfi_remember_state
	.cfi_def_cfa_offset 24
	movl	%ebp, %eax
	popq	%rbx
	.cfi_def_cfa_offset 16
	popq	%rbp
	.cfi_def_cfa_offset 8
	ret
	.p2align 4,,10
	.p2align 3
.L785:
	.cfi_restore_state
	leaq	8(%rbx), %rsi
	call	*%rax
	jmp	.L774
	.p2align 4,,10
	.p2align 3
.L786:
	call	*%rax
	addq	$40, %rsp
	.cfi_remember_state
	.cfi_def_cfa_offset 24
	movl	%ebp, %eax
	popq	%rbx
	.cfi_def_cfa_offset 16
	popq	%rbp
	.cfi_def_cfa_offset 8
	ret
	.p2align 4,,10
	.p2align 3
.L784:
	.cfi_restore_state
	call	_ZNSt16_Sp_counted_baseILN9__gnu_cxx12_Lock_policyE2EE24_M_release_last_use_coldEv@PLT
	jmp	.L769
	.p2align 4,,10
	.p2align 3
.L772:
	movl	$-1, %eax
	lock xaddl	%eax, (%rcx)
	jmp	.L773
	.p2align 4,,10
	.p2align 3
.L783:
	movq	(%rdi), %rax
	movq	%rdi, 8(%rsp)
	movq	$0, 8(%rdi)
	call	*16(%rax)
	movq	8(%rsp), %rdi
	movq	(%rdi), %rax
	call	*24(%rax)
	jmp	.L769
	.cfi_endproc
.LFE3419:
	.size	_ZN8opendnp38MContext16OnLowerLayerDownEv, .-_ZN8opendnp38MContext16OnLowerLayerDownEv
	.section	.text.unlikely
	.align 2
.LCOLDB30:
	.text
.LHOTB30:
	.align 2
	.p2align 4
	.globl	_ZN8opendnp38MContext4ScanERKSt8functionIFbRNS_12HeaderWriterEEENS_10TaskConfigE
	.type	_ZN8opendnp38MContext4ScanERKSt8functionIFbRNS_12HeaderWriterEEENS_10TaskConfigE, @function
_ZN8opendnp38MContext4ScanERKSt8functionIFbRNS_12HeaderWriterEEENS_10TaskConfigE:
.LFB3467:
	.cfi_startproc
	.cfi_personality 0x9b,DW.ref.__gxx_personality_v0
	.cfi_lsda 0x1b,.LLSDA3467
	pushq	%rbp
	.cfi_def_cfa_offset 16
	.cfi_offset 6, -16
	movq	%rsp, %rbp
	.cfi_def_cfa_register 6
	pushq	%r15
	pushq	%r14
	.cfi_offset 15, -24
	.cfi_offset 14, -32
	movq	%rdi, %r14
	pushq	%r13
	.cfi_offset 13, -40
	movq	%rcx, %r13
	pushq	%r12
	.cfi_offset 12, -48
	movq	%rdx, %r12
	pushq	%rbx
	subq	$88, %rsp
	.cfi_offset 3, -56
	movq	128(%rdi), %r8
	movq	144(%rdi), %r9
	movq	%rsi, -120(%rbp)
	movq	%rdi, -88(%rbp)
	movq	%r8, -112(%rbp)
	movq	%r9, -104(%rbp)
.LEHB41:
	call	_ZN7openpal12TimeDuration3MaxEv@PLT
	movl	$176, %edi
	movq	%rax, -96(%rbp)
	call	_Znwm@PLT
.LEHE41:
	movdqu	24(%r14), %xmm0
	movq	-104(%rbp), %r9
	movq	%rax, %rbx
	addq	$8, %rax
	movq	-112(%rbp), %r8
	movq	-120(%rbp), %rsi
	movq	%rax, -128(%rbp)
	movq	.LC13(%rip), %rax
	movhlps	%xmm0, %xmm1
	leaq	16(%rbx), %r15
	movq	%xmm1, %rcx
	movaps	%xmm0, -80(%rbp)
	movq	%rax, 8(%rbx)
	movq	_ZTVSt23_Sp_counted_ptr_inplaceIN8opendnp312UserPollTaskESaIvELN9__gnu_cxx12_Lock_policyE2EE@GOTPCREL(%rip), %rax
	addq	$16, %rax
	testq	%rcx, %rcx
	movq	%rax, (%rbx)
	je	.L788
	movq	__libc_single_threaded@GOTPCREL(%rip), %r14
	cmpb	$0, (%r14)
	je	.L789
	addl	$1, 8(%rcx)
.L788:
	movq	-88(%rbp), %rax
	movdqu	40(%rax), %xmm0
	movhlps	%xmm0, %xmm2
	movaps	%xmm0, -64(%rbp)
	movq	%xmm2, %rcx
	testq	%rcx, %rcx
	je	.L790
	movq	__libc_single_threaded@GOTPCREL(%rip), %r14
	cmpb	$0, (%r14)
	je	.L791
	addl	$1, 8(%rcx)
.L790:
	pushq	%r13
	xorl	%edx, %edx
	movq	%r15, %rdi
	pushq	%r12
	leaq	-80(%rbp), %r12
	pushq	%r12
	pushq	%r8
	movq	-88(%rbp), %rax
	movq	-96(%rbp), %rcx
	movq	104(%rax), %r8
.LEHB42:
	.cfi_escape 0x2e,0x20
	call	_ZN8opendnp312UserPollTaskC1ERKSt8functionIFbRNS_12HeaderWriterEEEbN7openpal12TimeDurationES9_RNS_18IMasterApplicationERNS_11ISOEHandlerENS8_6LoggerENS_10TaskConfigE@PLT
.LEHE42:
	movq	-56(%rbp), %r13
	addq	$32, %rsp
	testq	%r13, %r13
	je	.L833
	movq	8(%r13), %rcx
	leaq	8(%r13), %rsi
	movabsq	$4294967297, %rdx
	cmpq	%rdx, %rcx
	je	.L835
	movq	__libc_single_threaded@GOTPCREL(%rip), %r14
	cmpb	$0, (%r14)
	je	.L795
	movl	8(%r13), %ecx
	leal	-1(%rcx), %esi
	movl	%esi, 8(%r13)
.L796:
	cmpl	$1, %ecx
	jne	.L793
	movq	%r13, %rdi
	call	_ZNSt16_Sp_counted_baseILN9__gnu_cxx12_Lock_policyE2EE24_M_release_last_use_coldEv@PLT
	jmp	.L793
	.p2align 4,,10
	.p2align 3
.L835:
	movq	0(%r13), %rdx
	movq	%r13, %rdi
	movq	$0, 8(%r13)
	call	*16(%rdx)
	movq	0(%r13), %rdx
	movq	%r13, %rdi
	call	*24(%rdx)
	.p2align 4
	.p2align 3
.L833:
	movq	__libc_single_threaded@GOTPCREL(%rip), %r14
.L793:
	movq	-72(%rbp), %r13
	testq	%r13, %r13
	je	.L834
	movq	8(%r13), %rsi
	leaq	8(%r13), %rdi
	movabsq	$4294967297, %rcx
	cmpq	%rcx, %rsi
	je	.L836
	cmpb	$0, (%r14)
	je	.L801
	movl	8(%r13), %ecx
	leal	-1(%rcx), %esi
	movl	%esi, 8(%r13)
.L802:
	cmpl	$1, %ecx
	je	.L837
.L834:
	movq	%r15, -80(%rbp)
	movq	%rbx, -72(%rbp)
.L799:
	cmpb	$0, (%r14)
	je	.L805
	addl	$1, 8(%rbx)
.L806:
	movq	-88(%rbp), %rdi
	movq	%r12, %rsi
.LEHB43:
	.cfi_escape 0x2e,0
	call	_ZN8opendnp38MContext17ScheduleAdhocTaskERKSt10shared_ptrINS_11IMasterTaskEE@PLT
.LEHE43:
	movq	-72(%rbp), %rax
	movq	%rax, %rdi
	testq	%rax, %rax
	je	.L809
	movq	8(%rax), %rcx
	leaq	8(%rax), %rsi
	movabsq	$4294967297, %rax
	cmpq	%rax, %rcx
	je	.L838
	cmpb	$0, (%r14)
	je	.L810
	movl	8(%rdi), %eax
	leal	-1(%rax), %ecx
	movl	%ecx, 8(%rdi)
.L811:
	cmpl	$1, %eax
	je	.L839
.L809:
	movabsq	$4294967297, %rax
	movq	8(%rbx), %rcx
	cmpq	%rax, %rcx
	je	.L840
	cmpb	$0, (%r14)
	je	.L813
	movl	8(%rbx), %eax
	leal	-1(%rax), %edx
	movl	%edx, 8(%rbx)
.L814:
	cmpl	$1, %eax
	je	.L841
	leaq	-40(%rbp), %rsp
	popq	%rbx
	popq	%r12
	popq	%r13
	popq	%r14
	popq	%r15
	popq	%rbp
	.cfi_remember_state
	.cfi_def_cfa 7, 8
	ret
	.p2align 4,,10
	.p2align 3
.L789:
	.cfi_restore_state
	lock addl	$1, 8(%rcx)
	jmp	.L788
	.p2align 4,,10
	.p2align 3
.L805:
	lock addl	$1, 8(%rbx)
	jmp	.L806
	.p2align 4,,10
	.p2align 3
.L791:
	lock addl	$1, 8(%rcx)
	jmp	.L790
	.p2align 4,,10
	.p2align 3
.L836:
	movq	0(%r13), %rcx
	movq	%r13, %rdi
	movq	$0, 8(%r13)
	call	*16(%rcx)
	movq	0(%r13), %rcx
	movq	%r13, %rdi
	call	*24(%rcx)
	movq	%r15, -80(%rbp)
	movq	%rbx, -72(%rbp)
	jmp	.L799
	.p2align 4,,10
	.p2align 3
.L801:
	movl	$-1, %ecx
	lock xaddl	%ecx, (%rdi)
	jmp	.L802
	.p2align 4,,10
	.p2align 3
.L795:
	movl	$-1, %ecx
	lock xaddl	%ecx, (%rsi)
	jmp	.L796
	.p2align 4,,10
	.p2align 3
.L813:
	movq	-128(%rbp), %rdx
	movl	$-1, %eax
	lock xaddl	%eax, (%rdx)
	jmp	.L814
	.p2align 4,,10
	.p2align 3
.L810:
	movl	$-1, %eax
	lock xaddl	%eax, (%rsi)
	jmp	.L811
	.p2align 4,,10
	.p2align 3
.L840:
	movq	(%rbx), %rax
	movq	%rbx, %rdi
	movq	$0, 8(%rbx)
	call	*16(%rax)
	movq	(%rbx), %rax
	movq	%rbx, %rdi
	movq	24(%rax), %rax
	leaq	-40(%rbp), %rsp
	popq	%rbx
	popq	%r12
	popq	%r13
	popq	%r14
	popq	%r15
	popq	%rbp
	.cfi_remember_state
	.cfi_def_cfa 7, 8
.LEHB44:
	jmp	*%rax
	.p2align 4,,10
	.p2align 3
.L838:
	.cfi_restore_state
	movq	(%rdi), %rax
	movq	%rdi, %r15
	movq	$0, 8(%rdi)
	call	*16(%rax)
	movq	(%r15), %rax
	movq	%r15, %rdi
	call	*24(%rax)
	jmp	.L809
	.p2align 4,,10
	.p2align 3
.L837:
	movq	%r13, %rdi
	call	_ZNSt16_Sp_counted_baseILN9__gnu_cxx12_Lock_policyE2EE24_M_release_last_use_coldEv@PLT
	jmp	.L834
	.p2align 4,,10
	.p2align 3
.L839:
	call	_ZNSt16_Sp_counted_baseILN9__gnu_cxx12_Lock_policyE2EE24_M_release_last_use_coldEv@PLT
	jmp	.L809
	.p2align 4,,10
	.p2align 3
.L841:
	leaq	-40(%rbp), %rsp
	movq	%rbx, %rdi
	popq	%rbx
	popq	%r12
	popq	%r13
	popq	%r14
	popq	%r15
	popq	%rbp
	.cfi_remember_state
	.cfi_def_cfa 7, 8
	jmp	_ZNSt16_Sp_counted_baseILN9__gnu_cxx12_Lock_policyE2EE24_M_release_last_use_coldEv@PLT
.LEHE44:
.L819:
	.cfi_restore_state
	movq	%rax, %r15
	jmp	.L804
.L818:
	movq	%rax, %r15
	jmp	.L816
	.section	.gcc_except_table
.LLSDA3467:
	.byte	0xff
	.byte	0xff
	.byte	0x1
	.uleb128 .LLSDACSE3467-.LLSDACSB3467
.LLSDACSB3467:
	.uleb128 .LEHB41-.LFB3467
	.uleb128 .LEHE41-.LEHB41
	.uleb128 0
	.uleb128 0
	.uleb128 .LEHB42-.LFB3467
	.uleb128 .LEHE42-.LEHB42
	.uleb128 .L819-.LFB3467
	.uleb128 0
	.uleb128 .LEHB43-.LFB3467
	.uleb128 .LEHE43-.LEHB43
	.uleb128 .L818-.LFB3467
	.uleb128 0
	.uleb128 .LEHB44-.LFB3467
	.uleb128 .LEHE44-.LEHB44
	.uleb128 0
	.uleb128 0
.LLSDACSE3467:
	.text
	.cfi_endproc
	.section	.text.unlikely
	.cfi_startproc
	.cfi_personality 0x9b,DW.ref.__gxx_personality_v0
	.cfi_lsda 0x1b,.LLSDAC3467
	.type	_ZN8opendnp38MContext4ScanERKSt8functionIFbRNS_12HeaderWriterEEENS_10TaskConfigE.cold, @function
_ZN8opendnp38MContext4ScanERKSt8functionIFbRNS_12HeaderWriterEEENS_10TaskConfigE.cold:
.LFSB3467:
.L804:
	.cfi_def_cfa 6, 16
	.cfi_offset 3, -56
	.cfi_offset 6, -16
	.cfi_offset 12, -48
	.cfi_offset 13, -40
	.cfi_offset 14, -32
	.cfi_offset 15, -24
	movq	%r12, %rdi
	call	_ZN7openpal6LoggerD1Ev@PLT
	movq	%rbx, %rdi
	movl	$176, %esi
	call	_ZdlPvm@PLT
	movq	%r15, %rdi
.LEHB45:
	call	_Unwind_Resume@PLT
.L816:
	movq	-72(%rbp), %rdi
	testq	%rdi, %rdi
	je	.L817
	call	_ZNSt16_Sp_counted_baseILN9__gnu_cxx12_Lock_policyE2EE10_M_releaseEv@PLT
.L817:
	movq	%rbx, %rdi
	call	_ZNSt16_Sp_counted_baseILN9__gnu_cxx12_Lock_policyE2EE10_M_releaseEv@PLT
	movq	%r15, %rdi
	call	_Unwind_Resume@PLT
.LEHE45:
	.cfi_endproc
.LFE3467:
	.section	.gcc_except_table
.LLSDAC3467:
	.byte	0xff
	.byte	0xff
	.byte	0x1
	.uleb128 .LLSDACSEC3467-.LLSDACSBC3467
.LLSDACSBC3467:
	.uleb128 .LEHB45-.LCOLDB30
	.uleb128 .LEHE45-.LEHB45
	.uleb128 0
	.uleb128 0
.LLSDACSEC3467:
	.section	.text.unlikely
	.text
	.size	_ZN8opendnp38MContext4ScanERKSt8functionIFbRNS_12HeaderWriterEEENS_10TaskConfigE, .-_ZN8opendnp38MContext4ScanERKSt8functionIFbRNS_12HeaderWriterEEENS_10TaskConfigE
	.section	.text.unlikely
	.size	_ZN8opendnp38MContext4ScanERKSt8functionIFbRNS_12HeaderWriterEEENS_10TaskConfigE.cold, .-_ZN8opendnp38MContext4ScanERKSt8functionIFbRNS_12HeaderWriterEEENS_10TaskConfigE.cold
.LCOLDE30:
	.text
.LHOTE30:
	.section	.text.unlikely
	.align 2
.LCOLDB32:
	.text
.LHOTB32:
	.align 2
	.p2align 4
	.globl	_ZN8opendnp38MContext11ScanClassesERKNS_10ClassFieldENS_10TaskConfigE
	.type	_ZN8opendnp38MContext11ScanClassesERKNS_10ClassFieldENS_10TaskConfigE, @function
_ZN8opendnp38MContext11ScanClassesERKNS_10ClassFieldENS_10TaskConfigE:
.LFB3468:
	.cfi_startproc
	.cfi_personality 0x9b,DW.ref.__gxx_personality_v0
	.cfi_lsda 0x1b,.LLSDA3468
	pushq	%r14
	.cfi_def_cfa_offset 16
	.cfi_offset 14, -16
	pxor	%xmm0, %xmm0
	pushq	%rbx
	.cfi_def_cfa_offset 24
	.cfi_offset 3, -24
	subq	$40, %rsp
	.cfi_def_cfa_offset 64
	movzbl	(%rsi), %eax
	movaps	%xmm0, (%rsp)
	movq	%rsp, %rsi
	movq	.LC31(%rip), %xmm0
	movb	%al, (%rsp)
	leaq	_ZNSt17_Function_handlerIFbRN8opendnp312HeaderWriterEEZNS0_8MContext11ScanClassesERKNS0_10ClassFieldENS0_10TaskConfigEEUlS2_E_E9_M_invokeERKSt9_Any_dataS2_(%rip), %rax
	movq	%rax, %xmm1
	punpcklqdq	%xmm1, %xmm0
	movaps	%xmm0, 16(%rsp)
.LEHB46:
	call	_ZN8opendnp38MContext4ScanERKSt8functionIFbRNS_12HeaderWriterEEENS_10TaskConfigE@PLT
.LEHE46:
	movq	16(%rsp), %rax
	testq	%rax, %rax
	je	.L842
	movl	$3, %edx
	movq	%rsp, %rsi
	movq	%rsp, %rdi
	call	*%rax
.L842:
	addq	$40, %rsp
	.cfi_remember_state
	.cfi_def_cfa_offset 24
	popq	%rbx
	.cfi_def_cfa_offset 16
	popq	%r14
	.cfi_def_cfa_offset 8
	ret
.L846:
	.cfi_restore_state
	movq	%rax, %r14
	jmp	.L844
	.section	.gcc_except_table
.LLSDA3468:
	.byte	0xff
	.byte	0xff
	.byte	0x1
	.uleb128 .LLSDACSE3468-.LLSDACSB3468
.LLSDACSB3468:
	.uleb128 .LEHB46-.LFB3468
	.uleb128 .LEHE46-.LEHB46
	.uleb128 .L846-.LFB3468
	.uleb128 0
.LLSDACSE3468:
	.text
	.cfi_endproc
	.section	.text.unlikely
	.cfi_startproc
	.cfi_personality 0x9b,DW.ref.__gxx_personality_v0
	.cfi_lsda 0x1b,.LLSDAC3468
	.type	_ZN8opendnp38MContext11ScanClassesERKNS_10ClassFieldENS_10TaskConfigE.cold, @function
_ZN8opendnp38MContext11ScanClassesERKNS_10ClassFieldENS_10TaskConfigE.cold:
.LFSB3468:
.L844:
	.cfi_def_cfa_offset 64
	.cfi_offset 3, -24
	.cfi_offset 14, -16
	movq	16(%rsp), %rax
	testq	%rax, %rax
	je	.L845
	movl	$3, %edx
	movq	%rsp, %rsi
	movq	%rsp, %rdi
	call	*%rax
.L845:
	movq	%r14, %rdi
.LEHB47:
	call	_Unwind_Resume@PLT
.LEHE47:
	.cfi_endproc
.LFE3468:
	.section	.gcc_except_table
.LLSDAC3468:
	.byte	0xff
	.byte	0xff
	.byte	0x1
	.uleb128 .LLSDACSEC3468-.LLSDACSBC3468
.LLSDACSBC3468:
	.uleb128 .LEHB47-.LCOLDB32
	.uleb128 .LEHE47-.LEHB47
	.uleb128 0
	.uleb128 0
.LLSDACSEC3468:
	.section	.text.unlikely
	.text
	.size	_ZN8opendnp38MContext11ScanClassesERKNS_10ClassFieldENS_10TaskConfigE, .-_ZN8opendnp38MContext11ScanClassesERKNS_10ClassFieldENS_10TaskConfigE
	.section	.text.unlikely
	.size	_ZN8opendnp38MContext11ScanClassesERKNS_10ClassFieldENS_10TaskConfigE.cold, .-_ZN8opendnp38MContext11ScanClassesERKNS_10ClassFieldENS_10TaskConfigE.cold
.LCOLDE32:
	.text
.LHOTE32:
	.section	.text.unlikely
	.align 2
.LCOLDB34:
	.text
.LHOTB34:
	.align 2
	.p2align 4
	.globl	_ZN8opendnp38MContext14ScanAllObjectsENS_16GroupVariationIDENS_10TaskConfigE
	.type	_ZN8opendnp38MContext14ScanAllObjectsENS_16GroupVariationIDENS_10TaskConfigE, @function
_ZN8opendnp38MContext14ScanAllObjectsENS_16GroupVariationIDENS_10TaskConfigE:
.LFB3472:
	.cfi_startproc
	.cfi_personality 0x9b,DW.ref.__gxx_personality_v0
	.cfi_lsda 0x1b,.LLSDA3472
	pushq	%r14
	.cfi_def_cfa_offset 16
	.cfi_offset 14, -16
	pxor	%xmm0, %xmm0
	leaq	_ZNSt17_Function_handlerIFbRN8opendnp312HeaderWriterEEZNS0_8MContext14ScanAllObjectsENS0_16GroupVariationIDENS0_10TaskConfigEEUlS2_E_E9_M_invokeERKSt9_Any_dataS2_(%rip), %rax
	pushq	%rbx
	.cfi_def_cfa_offset 24
	.cfi_offset 3, -24
	movq	%rax, %xmm1
	subq	$40, %rsp
	.cfi_def_cfa_offset 64
	movaps	%xmm0, (%rsp)
	movq	.LC33(%rip), %xmm0
	movw	%si, (%rsp)
	movq	%rsp, %rsi
	punpcklqdq	%xmm1, %xmm0
	movaps	%xmm0, 16(%rsp)
.LEHB48:
	call	_ZN8opendnp38MContext4ScanERKSt8functionIFbRNS_12HeaderWriterEEENS_10TaskConfigE@PLT
.LEHE48:
	movq	16(%rsp), %rax
	testq	%rax, %rax
	je	.L854
	movl	$3, %edx
	movq	%rsp, %rsi
	movq	%rsp, %rdi
	call	*%rax
.L854:
	addq	$40, %rsp
	.cfi_remember_state
	.cfi_def_cfa_offset 24
	popq	%rbx
	.cfi_def_cfa_offset 16
	popq	%r14
	.cfi_def_cfa_offset 8
	ret
.L858:
	.cfi_restore_state
	movq	%rax, %r14
	jmp	.L856
	.section	.gcc_except_table
.LLSDA3472:
	.byte	0xff
	.byte	0xff
	.byte	0x1
	.uleb128 .LLSDACSE3472-.LLSDACSB3472
.LLSDACSB3472:
	.uleb128 .LEHB48-.LFB3472
	.uleb128 .LEHE48-.LEHB48
	.uleb128 .L858-.LFB3472
	.uleb128 0
.LLSDACSE3472:
	.text
	.cfi_endproc
	.section	.text.unlikely
	.cfi_startproc
	.cfi_personality 0x9b,DW.ref.__gxx_personality_v0
	.cfi_lsda 0x1b,.LLSDAC3472
	.type	_ZN8opendnp38MContext14ScanAllObjectsENS_16GroupVariationIDENS_10TaskConfigE.cold, @function
_ZN8opendnp38MContext14ScanAllObjectsENS_16GroupVariationIDENS_10TaskConfigE.cold:
.LFSB3472:
.L856:
	.cfi_def_cfa_offset 64
	.cfi_offset 3, -24
	.cfi_offset 14, -16
	movq	16(%rsp), %rax
	testq	%rax, %rax
	je	.L857
	movl	$3, %edx
	movq	%rsp, %rsi
	movq	%rsp, %rdi
	call	*%rax
.L857:
	movq	%r14, %rdi
.LEHB49:
	call	_Unwind_Resume@PLT
.LEHE49:
	.cfi_endproc
.LFE3472:
	.section	.gcc_except_table
.LLSDAC3472:
	.byte	0xff
	.byte	0xff
	.byte	0x1
	.uleb128 .LLSDACSEC3472-.LLSDACSBC3472
.LLSDACSBC3472:
	.uleb128 .LEHB49-.LCOLDB34
	.uleb128 .LEHE49-.LEHB49
	.uleb128 0
	.uleb128 0
.LLSDACSEC3472:
	.section	.text.unlikely
	.text
	.size	_ZN8opendnp38MContext14ScanAllObjectsENS_16GroupVariationIDENS_10TaskConfigE, .-_ZN8opendnp38MContext14ScanAllObjectsENS_16GroupVariationIDENS_10TaskConfigE
	.section	.text.unlikely
	.size	_ZN8opendnp38MContext14ScanAllObjectsENS_16GroupVariationIDENS_10TaskConfigE.cold, .-_ZN8opendnp38MContext14ScanAllObjectsENS_16GroupVariationIDENS_10TaskConfigE.cold
.LCOLDE34:
	.text
.LHOTE34:
	.section	.text.unlikely
	.align 2
.LCOLDB36:
	.text
.LHOTB36:
	.align 2
	.p2align 4
	.globl	_ZN8opendnp38MContext9ScanRangeENS_16GroupVariationIDEttNS_10TaskConfigE
	.type	_ZN8opendnp38MContext9ScanRangeENS_16GroupVariationIDEttNS_10TaskConfigE, @function
_ZN8opendnp38MContext9ScanRangeENS_16GroupVariationIDEttNS_10TaskConfigE:
.LFB3476:
	.cfi_startproc
	.cfi_personality 0x9b,DW.ref.__gxx_personality_v0
	.cfi_lsda 0x1b,.LLSDA3476
	pushq	%r14
	.cfi_def_cfa_offset 16
	.cfi_offset 14, -16
	xorl	%eax, %eax
	pushq	%rbx
	.cfi_def_cfa_offset 24
	.cfi_offset 3, -24
	subq	$40, %rsp
	.cfi_def_cfa_offset 64
	movq	.LC35(%rip), %xmm0
	movw	%ax, 14(%rsp)
	leaq	_ZNSt17_Function_handlerIFbRN8opendnp312HeaderWriterEEZNS0_8MContext9ScanRangeENS0_16GroupVariationIDEttNS0_10TaskConfigEEUlS2_E_E9_M_invokeERKSt9_Any_dataS2_(%rip), %rax
	movq	%rax, %xmm1
	movw	%si, (%rsp)
	movq	%rsp, %rsi
	movw	%dx, 2(%rsp)
	punpcklqdq	%xmm1, %xmm0
	movq	%r8, %rdx
	movw	%cx, 4(%rsp)
	movq	%r9, %rcx
	movq	$0, 6(%rsp)
	movaps	%xmm0, 16(%rsp)
.LEHB50:
	call	_ZN8opendnp38MContext4ScanERKSt8functionIFbRNS_12HeaderWriterEEENS_10TaskConfigE@PLT
.LEHE50:
	movq	16(%rsp), %rax
	testq	%rax, %rax
	je	.L866
	movl	$3, %edx
	movq	%rsp, %rsi
	movq	%rsp, %rdi
	call	*%rax
.L866:
	addq	$40, %rsp
	.cfi_remember_state
	.cfi_def_cfa_offset 24
	popq	%rbx
	.cfi_def_cfa_offset 16
	popq	%r14
	.cfi_def_cfa_offset 8
	ret
.L870:
	.cfi_restore_state
	movq	%rax, %r14
	jmp	.L868
	.section	.gcc_except_table
.LLSDA3476:
	.byte	0xff
	.byte	0xff
	.byte	0x1
	.uleb128 .LLSDACSE3476-.LLSDACSB3476
.LLSDACSB3476:
	.uleb128 .LEHB50-.LFB3476
	.uleb128 .LEHE50-.LEHB50
	.uleb128 .L870-.LFB3476
	.uleb128 0
.LLSDACSE3476:
	.text
	.cfi_endproc
	.section	.text.unlikely
	.cfi_startproc
	.cfi_personality 0x9b,DW.ref.__gxx_personality_v0
	.cfi_lsda 0x1b,.LLSDAC3476
	.type	_ZN8opendnp38MContext9ScanRangeENS_16GroupVariationIDEttNS_10TaskConfigE.cold, @function
_ZN8opendnp38MContext9ScanRangeENS_16GroupVariationIDEttNS_10TaskConfigE.cold:
.LFSB3476:
.L868:
	.cfi_def_cfa_offset 64
	.cfi_offset 3, -24
	.cfi_offset 14, -16
	movq	16(%rsp), %rax
	testq	%rax, %rax
	je	.L869
	movl	$3, %edx
	movq	%rsp, %rsi
	movq	%rsp, %rdi
	call	*%rax
.L869:
	movq	%r14, %rdi
.LEHB51:
	call	_Unwind_Resume@PLT
.LEHE51:
	.cfi_endproc
.LFE3476:
	.section	.gcc_except_table
.LLSDAC3476:
	.byte	0xff
	.byte	0xff
	.byte	0x1
	.uleb128 .LLSDACSEC3476-.LLSDACSBC3476
.LLSDACSBC3476:
	.uleb128 .LEHB51-.LCOLDB36
	.uleb128 .LEHE51-.LEHB51
	.uleb128 0
	.uleb128 0
.LLSDACSEC3476:
	.section	.text.unlikely
	.text
	.size	_ZN8opendnp38MContext9ScanRangeENS_16GroupVariationIDEttNS_10TaskConfigE, .-_ZN8opendnp38MContext9ScanRangeENS_16GroupVariationIDEttNS_10TaskConfigE
	.section	.text.unlikely
	.size	_ZN8opendnp38MContext9ScanRangeENS_16GroupVariationIDEttNS_10TaskConfigE.cold, .-_ZN8opendnp38MContext9ScanRangeENS_16GroupVariationIDEttNS_10TaskConfigE.cold
.LCOLDE36:
	.text
.LHOTE36:
	.section	.text.unlikely
	.align 2
.LCOLDB40:
	.text
.LHOTB40:
	.align 2
	.p2align 4
	.globl	_ZN8opendnp38MContext5WriteERKNS_15TimeAndIntervalEtNS_10TaskConfigE
	.type	_ZN8opendnp38MContext5WriteERKNS_15TimeAndIntervalEtNS_10TaskConfigE, @function
_ZN8opendnp38MContext5WriteERKNS_15TimeAndIntervalEtNS_10TaskConfigE:
.LFB3480:
	.cfi_startproc
	.cfi_personality 0x9b,DW.ref.__gxx_personality_v0
	.cfi_lsda 0x1b,.LLSDA3480
	pushq	%rbp
	.cfi_def_cfa_offset 16
	.cfi_offset 6, -16
	movq	%rsp, %rbp
	.cfi_def_cfa_register 6
	pushq	%r15
	pushq	%r14
	.cfi_offset 15, -24
	.cfi_offset 14, -32
	movq	%rdi, %r14
	pushq	%r13
	pushq	%r12
	pushq	%rbx
	subq	$184, %rsp
	.cfi_offset 13, -40
	.cfi_offset 12, -48
	.cfi_offset 3, -56
	movq	(%rsi), %rax
	movq	%rdi, -184(%rbp)
	movl	8(%rsi), %r13d
	movzbl	12(%rsi), %r12d
	movl	%edx, -204(%rbp)
	movq	%rax, -200(%rbp)
	movq	144(%rdi), %rax
	movl	$176, %edi
	movq	%rcx, -176(%rbp)
	movq	%r8, -168(%rbp)
	movq	%rax, -192(%rbp)
.LEHB52:
	call	_Znwm@PLT
.LEHE52:
	movdqu	24(%r14), %xmm0
	movq	%rax, %rbx
	addq	$8, %rax
	movq	%rax, -216(%rbp)
	movhlps	%xmm0, %xmm1
	leaq	16(%rbx), %r15
	movq	.LC13(%rip), %rax
	movq	%xmm1, %rdx
	movaps	%xmm0, -144(%rbp)
	movq	%rax, 8(%rbx)
	movq	_ZTVSt23_Sp_counted_ptr_inplaceIN8opendnp317EmptyResponseTaskESaIvELN9__gnu_cxx12_Lock_policyE2EE@GOTPCREL(%rip), %rax
	addq	$16, %rax
	movq	%rax, (%rbx)
	testq	%rdx, %rdx
	je	.L879
	movq	__libc_single_threaded@GOTPCREL(%rip), %r14
	cmpb	$0, (%r14)
	je	.L880
	addl	$1, 8(%rdx)
.L879:
	movq	-184(%rbp), %rax
	movdqu	40(%rax), %xmm0
	movhlps	%xmm0, %xmm2
	movaps	%xmm0, -128(%rbp)
	movq	%xmm2, %rdx
	testq	%rdx, %rdx
	je	.L881
	movq	__libc_single_threaded@GOTPCREL(%rip), %r14
	cmpb	$0, (%r14)
	je	.L882
	addl	$1, 8(%rdx)
.L881:
	pxor	%xmm0, %xmm0
	movl	$24, %edi
	movq	$0, -96(%rbp)
	movaps	%xmm0, -112(%rbp)
.LEHB53:
	call	_Znwm@PLT
.LEHE53:
	movq	-200(%rbp), %rcx
	movb	%r12b, 12(%rax)
	leaq	-80(%rbp), %r12
	leaq	-64(%rbp), %r14
	movl	%r13d, 8(%rax)
	leaq	-152(%rbp), %rsi
	xorl	%edx, %edx
	movq	%r12, %rdi
	movq	.LC39(%rip), %xmm0
	movq	%rcx, (%rax)
	movzwl	-204(%rbp), %ecx
	movq	%rax, -112(%rbp)
	movq	%r14, -80(%rbp)
	movw	%cx, 16(%rax)
	leaq	_ZNSt17_Function_handlerIFbRN8opendnp312HeaderWriterEEZNS0_8MContext5WriteERKNS0_15TimeAndIntervalEtNS0_10TaskConfigEEUlS2_E_E9_M_invokeERKSt9_Any_dataS2_(%rip), %rax
	movq	$21, -152(%rbp)
	movq	%rax, %xmm3
	punpcklqdq	%xmm3, %xmm0
	movaps	%xmm0, -96(%rbp)
.LEHB54:
	call	_ZNSt7__cxx1112basic_stringIcSt11char_traitsIcESaIcEE9_M_createERmm@PLT
.LEHE54:
	movq	%rax, -80(%rbp)
	movq	%rax, %rdx
	subq	$8, %rsp
	leaq	-112(%rbp), %r8
	movq	-152(%rbp), %rax
	movdqa	.LC38(%rip), %xmm0
	movq	%r15, %rdi
	movabsq	$7809653462537629257, %rcx
	leaq	-144(%rbp), %r9
	movq	-192(%rbp), %rsi
	movq	%rax, -64(%rbp)
	movups	%xmm0, (%rdx)
	movq	%rcx, 13(%rdx)
	movq	-80(%rbp), %rdx
	movl	$2, %ecx
	movq	%rax, -72(%rbp)
	movb	$0, (%rdx,%rax)
	leaq	-176(%rbp), %rax
	movq	%r12, %rdx
	movq	%r9, -200(%rbp)
	pushq	%rax
.LEHB55:
	.cfi_escape 0x2e,0x10
	call	_ZN8opendnp317EmptyResponseTaskC1ERNS_18IMasterApplicationERKNSt7__cxx1112basic_stringIcSt11char_traitsIcESaIcEEENS_12FunctionCodeERKSt8functionIFbRNS_12HeaderWriterEEEN7openpal6LoggerERKNS_10TaskConfigE@PLT
.LEHE55:
	movq	-80(%rbp), %rdi
	popq	%rax
	popq	%rdx
	cmpq	%r14, %rdi
	je	.L883
	movq	-64(%rbp), %rax
	leaq	1(%rax), %rsi
	call	_ZdlPvm@PLT
.L883:
	movq	-96(%rbp), %rax
	testq	%rax, %rax
	je	.L884
	movl	$3, %edx
	leaq	-112(%rbp), %rsi
	leaq	-112(%rbp), %rdi
	call	*%rax
.L884:
	movq	-120(%rbp), %r13
	testq	%r13, %r13
	je	.L937
	movq	8(%r13), %rdx
	leaq	8(%r13), %rcx
	movabsq	$4294967297, %rax
	cmpq	%rax, %rdx
	je	.L939
	movq	__libc_single_threaded@GOTPCREL(%rip), %r14
	cmpb	$0, (%r14)
	je	.L888
	movl	8(%r13), %edx
	leal	-1(%rdx), %ecx
	movl	%ecx, 8(%r13)
.L889:
	cmpl	$1, %edx
	jne	.L886
	movq	%r13, %rdi
	call	_ZNSt16_Sp_counted_baseILN9__gnu_cxx12_Lock_policyE2EE24_M_release_last_use_coldEv@PLT
	jmp	.L886
	.p2align 4,,10
	.p2align 3
.L939:
	movq	0(%r13), %rax
	movq	%r13, %rdi
	movq	$0, 8(%r13)
	call	*16(%rax)
	movq	0(%r13), %rax
	movq	%r13, %rdi
	call	*24(%rax)
	.p2align 4
	.p2align 3
.L937:
	movq	__libc_single_threaded@GOTPCREL(%rip), %r14
.L886:
	movq	-136(%rbp), %r13
	testq	%r13, %r13
	je	.L938
	movq	8(%r13), %rcx
	leaq	8(%r13), %rsi
	movabsq	$4294967297, %rdx
	cmpq	%rdx, %rcx
	je	.L940
	cmpb	$0, (%r14)
	je	.L894
	movl	8(%r13), %edx
	leal	-1(%rdx), %ecx
	movl	%ecx, 8(%r13)
.L895:
	cmpl	$1, %edx
	je	.L941
.L938:
	movq	%r15, -80(%rbp)
	movq	%rbx, -72(%rbp)
.L892:
	cmpb	$0, (%r14)
	je	.L901
	addl	$1, 8(%rbx)
.L902:
	movq	-184(%rbp), %rdi
	movq	%r12, %rsi
.LEHB56:
	.cfi_escape 0x2e,0
	call	_ZN8opendnp38MContext17ScheduleAdhocTaskERKSt10shared_ptrINS_11IMasterTaskEE@PLT
.LEHE56:
	movq	-72(%rbp), %rax
	movq	%rax, %rdi
	testq	%rax, %rax
	je	.L905
	movq	8(%rax), %rcx
	leaq	8(%rax), %rsi
	movabsq	$4294967297, %rdx
	cmpq	%rdx, %rcx
	je	.L942
	cmpb	$0, (%r14)
	je	.L906
	movl	8(%rax), %edx
	leal	-1(%rdx), %ecx
	movl	%ecx, 8(%rax)
.L907:
	cmpl	$1, %edx
	je	.L943
.L905:
	movabsq	$4294967297, %rdx
	movq	8(%rbx), %rcx
	cmpq	%rdx, %rcx
	je	.L944
	cmpb	$0, (%r14)
	je	.L910
	movl	8(%rbx), %eax
	leal	-1(%rax), %edx
	movl	%edx, 8(%rbx)
.L911:
	cmpl	$1, %eax
	je	.L945
.L878:
	leaq	-40(%rbp), %rsp
	popq	%rbx
	popq	%r12
	popq	%r13
	popq	%r14
	popq	%r15
	popq	%rbp
	.cfi_remember_state
	.cfi_def_cfa 7, 8
	ret
	.p2align 4,,10
	.p2align 3
.L880:
	.cfi_restore_state
	lock addl	$1, 8(%rdx)
	jmp	.L879
	.p2align 4,,10
	.p2align 3
.L901:
	lock addl	$1, 8(%rbx)
	jmp	.L902
	.p2align 4,,10
	.p2align 3
.L882:
	lock addl	$1, 8(%rdx)
	jmp	.L881
	.p2align 4,,10
	.p2align 3
.L940:
	movq	0(%r13), %rdx
	movq	%r13, %rdi
	movq	$0, 8(%r13)
	call	*16(%rdx)
	movq	0(%r13), %rdx
	movq	%r13, %rdi
	call	*24(%rdx)
	movq	%r15, -80(%rbp)
	movq	%rbx, -72(%rbp)
	jmp	.L892
	.p2align 4,,10
	.p2align 3
.L894:
	movl	$-1, %edx
	lock xaddl	%edx, (%rsi)
	jmp	.L895
	.p2align 4,,10
	.p2align 3
.L910:
	movq	-216(%rbp), %rsi
	movl	$-1, %eax
	lock xaddl	%eax, (%rsi)
	jmp	.L911
	.p2align 4,,10
	.p2align 3
.L888:
	movl	$-1, %edx
	lock xaddl	%edx, (%rcx)
	jmp	.L889
	.p2align 4,,10
	.p2align 3
.L906:
	movl	$-1, %edx
	lock xaddl	%edx, (%rsi)
	jmp	.L907
	.p2align 4,,10
	.p2align 3
.L942:
	movq	(%rax), %rdx
	movq	%rax, %r15
	movq	$0, 8(%rax)
	call	*16(%rdx)
	movq	(%r15), %rdx
	movq	%r15, %rdi
	call	*24(%rdx)
	jmp	.L905
	.p2align 4,,10
	.p2align 3
.L944:
	movq	(%rbx), %rax
	movq	%rbx, %rdi
	movq	$0, 8(%rbx)
	call	*16(%rax)
	movq	(%rbx), %rax
	movq	%rbx, %rdi
	call	*24(%rax)
	leaq	-40(%rbp), %rsp
	popq	%rbx
	popq	%r12
	popq	%r13
	popq	%r14
	popq	%r15
	popq	%rbp
	.cfi_remember_state
	.cfi_def_cfa 7, 8
	ret
	.p2align 4,,10
	.p2align 3
.L941:
	.cfi_restore_state
	movq	%r13, %rdi
	call	_ZNSt16_Sp_counted_baseILN9__gnu_cxx12_Lock_policyE2EE24_M_release_last_use_coldEv@PLT
	jmp	.L938
	.p2align 4,,10
	.p2align 3
.L943:
	call	_ZNSt16_Sp_counted_baseILN9__gnu_cxx12_Lock_policyE2EE24_M_release_last_use_coldEv@PLT
	jmp	.L905
	.p2align 4,,10
	.p2align 3
.L945:
	movq	%rbx, %rdi
	call	_ZNSt16_Sp_counted_baseILN9__gnu_cxx12_Lock_policyE2EE24_M_release_last_use_coldEv@PLT
	jmp	.L878
.L917:
	movq	%rax, %r15
	jmp	.L897
.L915:
	movq	%rax, %r15
	leaq	-144(%rbp), %rax
	movq	%rax, -200(%rbp)
	jmp	.L900
.L916:
	movq	%rax, %r15
	leaq	-144(%rbp), %rax
	movq	%rax, -200(%rbp)
	jmp	.L898
.L914:
	movq	%rax, %r15
	jmp	.L912
	.section	.gcc_except_table
.LLSDA3480:
	.byte	0xff
	.byte	0xff
	.byte	0x1
	.uleb128 .LLSDACSE3480-.LLSDACSB3480
.LLSDACSB3480:
	.uleb128 .LEHB52-.LFB3480
	.uleb128 .LEHE52-.LEHB52
	.uleb128 0
	.uleb128 0
	.uleb128 .LEHB53-.LFB3480
	.uleb128 .LEHE53-.LEHB53
	.uleb128 .L915-.LFB3480
	.uleb128 0
	.uleb128 .LEHB54-.LFB3480
	.uleb128 .LEHE54-.LEHB54
	.uleb128 .L916-.LFB3480
	.uleb128 0
	.uleb128 .LEHB55-.LFB3480
	.uleb128 .LEHE55-.LEHB55
	.uleb128 .L917-.LFB3480
	.uleb128 0
	.uleb128 .LEHB56-.LFB3480
	.uleb128 .LEHE56-.LEHB56
	.uleb128 .L914-.LFB3480
	.uleb128 0
.LLSDACSE3480:
	.text
	.cfi_endproc
	.section	.text.unlikely
	.cfi_startproc
	.cfi_personality 0x9b,DW.ref.__gxx_personality_v0
	.cfi_lsda 0x1b,.LLSDAC3480
	.type	_ZN8opendnp38MContext5WriteERKNS_15TimeAndIntervalEtNS_10TaskConfigE.cold, @function
_ZN8opendnp38MContext5WriteERKNS_15TimeAndIntervalEtNS_10TaskConfigE.cold:
.LFSB3480:
.L897:
	.cfi_def_cfa 6, 16
	.cfi_offset 3, -56
	.cfi_offset 6, -16
	.cfi_offset 12, -48
	.cfi_offset 13, -40
	.cfi_offset 14, -32
	.cfi_offset 15, -24
	movq	%r12, %rdi
	call	_ZNSt7__cxx1112basic_stringIcSt11char_traitsIcESaIcEE10_M_disposeEv@PLT
.L898:
	movq	-96(%rbp), %rax
	testq	%rax, %rax
	je	.L900
	leaq	-112(%rbp), %rdi
	movl	$3, %edx
	movq	%rdi, %rsi
	call	*%rax
.L900:
	movq	-200(%rbp), %rdi
	call	_ZN7openpal6LoggerD1Ev@PLT
	movq	%rbx, %rdi
	movl	$176, %esi
	call	_ZdlPvm@PLT
	movq	%r15, %rdi
.LEHB57:
	call	_Unwind_Resume@PLT
.L912:
	movq	-72(%rbp), %rdi
	testq	%rdi, %rdi
	je	.L913
	call	_ZNSt16_Sp_counted_baseILN9__gnu_cxx12_Lock_policyE2EE10_M_releaseEv@PLT
.L913:
	movq	%rbx, %rdi
	call	_ZNSt16_Sp_counted_baseILN9__gnu_cxx12_Lock_policyE2EE10_M_releaseEv@PLT
	movq	%r15, %rdi
	call	_Unwind_Resume@PLT
.LEHE57:
	.cfi_endproc
.LFE3480:
	.section	.gcc_except_table
.LLSDAC3480:
	.byte	0xff
	.byte	0xff
	.byte	0x1
	.uleb128 .LLSDACSEC3480-.LLSDACSBC3480
.LLSDACSBC3480:
	.uleb128 .LEHB57-.LCOLDB40
	.uleb128 .LEHE57-.LEHB57
	.uleb128 0
	.uleb128 0
.LLSDACSEC3480:
	.section	.text.unlikely
	.text
	.size	_ZN8opendnp38MContext5WriteERKNS_15TimeAndIntervalEtNS_10TaskConfigE, .-_ZN8opendnp38MContext5WriteERKNS_15TimeAndIntervalEtNS_10TaskConfigE
	.section	.text.unlikely
	.size	_ZN8opendnp38MContext5WriteERKNS_15TimeAndIntervalEtNS_10TaskConfigE.cold, .-_ZN8opendnp38MContext5WriteERKNS_15TimeAndIntervalEtNS_10TaskConfigE.cold
.LCOLDE40:
	.text
.LHOTE40:
	.section	.text._ZN8opendnp311MasterTasksD2Ev,"axG",@progbits,_ZN8opendnp311MasterTasksD5Ev,comdat
	.align 2
	.p2align 4
	.weak	_ZN8opendnp311MasterTasksD2Ev
	.type	_ZN8opendnp311MasterTasksD2Ev, @function
_ZN8opendnp311MasterTasksD2Ev:
.LFB3408:
	.cfi_startproc
	pushq	%r14
	.cfi_def_cfa_offset 16
	.cfi_offset 14, -16
	pushq	%r13
	.cfi_def_cfa_offset 24
	.cfi_offset 13, -24
	pushq	%r12
	.cfi_def_cfa_offset 32
	.cfi_offset 12, -32
	movq	%rdi, %r12
	pushq	%rbp
	.cfi_def_cfa_offset 40
	.cfi_offset 6, -40
	pushq	%rbx
	.cfi_def_cfa_offset 48
	.cfi_offset 3, -48
	movq	120(%rdi), %r13
	movq	112(%rdi), %rbx
	cmpq	%rbx, %r13
	je	.L947
	movabsq	$4294967297, %r14
	jmp	.L954
	.p2align 4,,10
	.p2align 3
.L1006:
	movl	8(%rbp), %eax
	leal	-1(%rax), %edx
	movl	%edx, 8(%rbp)
	cmpl	$1, %eax
	je	.L1003
.L949:
	addq	$16, %rbx
	cmpq	%rbx, %r13
	je	.L1004
.L954:
	movq	8(%rbx), %rbp
	testq	%rbp, %rbp
	je	.L949
	movq	8(%rbp), %rax
	leaq	8(%rbp), %rdx
	cmpq	%r14, %rax
	je	.L1005
	movq	__libc_single_threaded@GOTPCREL(%rip), %rax
	cmpb	$0, (%rax)
	jne	.L1006
	movl	$-1, %eax
	lock xaddl	%eax, (%rdx)
	cmpl	$1, %eax
	jne	.L949
.L1003:
	movq	%rbp, %rdi
	addq	$16, %rbx
	call	_ZNSt16_Sp_counted_baseILN9__gnu_cxx12_Lock_policyE2EE24_M_release_last_use_coldEv@PLT
	cmpq	%rbx, %r13
	jne	.L954
	.p2align 4
	.p2align 3
.L1004:
	movq	112(%r12), %rbx
.L947:
	testq	%rbx, %rbx
	je	.L955
	movq	128(%r12), %rsi
	movq	%rbx, %rdi
	subq	%rbx, %rsi
	call	_ZdlPvm@PLT
.L955:
	movq	104(%r12), %rbx
	testq	%rbx, %rbx
	je	.L957
	movq	8(%rbx), %rdx
	leaq	8(%rbx), %rcx
	movabsq	$4294967297, %rax
	cmpq	%rax, %rdx
	je	.L1007
	movq	__libc_single_threaded@GOTPCREL(%rip), %rax
	cmpb	$0, (%rax)
	je	.L959
	movl	8(%rbx), %eax
	leal	-1(%rax), %edx
	movl	%edx, 8(%rbx)
.L960:
	cmpl	$1, %eax
	je	.L1008
.L957:
	movq	88(%r12), %rbx
	testq	%rbx, %rbx
	je	.L963
	movq	8(%rbx), %rdx
	leaq	8(%rbx), %rcx
	movabsq	$4294967297, %rax
	cmpq	%rax, %rdx
	je	.L1009
	movq	__libc_single_threaded@GOTPCREL(%rip), %rax
	cmpb	$0, (%rax)
	je	.L965
	movl	8(%rbx), %eax
	leal	-1(%rax), %edx
	movl	%edx, 8(%rbx)
.L966:
	cmpl	$1, %eax
	je	.L1010
.L963:
	movq	72(%r12), %rbx
	testq	%rbx, %rbx
	je	.L969
	movq	8(%rbx), %rdx
	leaq	8(%rbx), %rcx
	movabsq	$4294967297, %rax
	cmpq	%rax, %rdx
	je	.L1011
	movq	__libc_single_threaded@GOTPCREL(%rip), %rax
	cmpb	$0, (%rax)
	je	.L971
	movl	8(%rbx), %eax
	leal	-1(%rax), %edx
	movl	%edx, 8(%rbx)
.L972:
	cmpl	$1, %eax
	je	.L1012
.L969:
	movq	56(%r12), %rbx
	testq	%rbx, %rbx
	je	.L975
	movq	8(%rbx), %rdx
	leaq	8(%rbx), %rcx
	movabsq	$4294967297, %rax
	cmpq	%rax, %rdx
	je	.L1013
	movq	__libc_single_threaded@GOTPCREL(%rip), %rax
	cmpb	$0, (%rax)
	je	.L977
	movl	8(%rbx), %eax
	leal	-1(%rax), %edx
	movl	%edx, 8(%rbx)
.L978:
	cmpl	$1, %eax
	je	.L1014
.L975:
	movq	40(%r12), %rbx
	testq	%rbx, %rbx
	je	.L981
	movq	8(%rbx), %rdx
	leaq	8(%rbx), %rcx
	movabsq	$4294967297, %rax
	cmpq	%rax, %rdx
	je	.L1015
	movq	__libc_single_threaded@GOTPCREL(%rip), %rax
	cmpb	$0, (%rax)
	je	.L983
	movl	8(%rbx), %eax
	leal	-1(%rax), %edx
	movl	%edx, 8(%rbx)
.L984:
	cmpl	$1, %eax
	je	.L1016
.L981:
	movq	24(%r12), %rbx
	testq	%rbx, %rbx
	je	.L987
	movq	8(%rbx), %rdx
	leaq	8(%rbx), %rcx
	movabsq	$4294967297, %rax
	cmpq	%rax, %rdx
	je	.L1017
	movq	__libc_single_threaded@GOTPCREL(%rip), %rax
	cmpb	$0, (%rax)
	je	.L989
	movl	8(%rbx), %eax
	leal	-1(%rax), %edx
	movl	%edx, 8(%rbx)
.L990:
	cmpl	$1, %eax
	je	.L1018
.L987:
	movq	8(%r12), %rbx
	testq	%rbx, %rbx
	je	.L946
	movq	8(%rbx), %rdx
	leaq	8(%rbx), %rcx
	movabsq	$4294967297, %rax
	cmpq	%rax, %rdx
	je	.L1019
	movq	__libc_single_threaded@GOTPCREL(%rip), %rax
	cmpb	$0, (%rax)
	je	.L995
	movl	8(%rbx), %eax
	leal	-1(%rax), %edx
	movl	%edx, 8(%rbx)
.L996:
	cmpl	$1, %eax
	je	.L1020
.L946:
	popq	%rbx
	.cfi_remember_state
	.cfi_def_cfa_offset 40
	popq	%rbp
	.cfi_def_cfa_offset 32
	popq	%r12
	.cfi_def_cfa_offset 24
	popq	%r13
	.cfi_def_cfa_offset 16
	popq	%r14
	.cfi_def_cfa_offset 8
	ret
	.p2align 4,,10
	.p2align 3
.L1005:
	.cfi_restore_state
	movq	0(%rbp), %rax
	movq	%rbp, %rdi
	movq	$0, 8(%rbp)
	call	*16(%rax)
	movq	0(%rbp), %rax
	movq	%rbp, %rdi
	call	*24(%rax)
	jmp	.L949
	.p2align 4,,10
	.p2align 3
.L1011:
	movq	(%rbx), %rax
	movq	%rbx, %rdi
	movq	$0, 8(%rbx)
	call	*16(%rax)
	movq	(%rbx), %rax
	movq	%rbx, %rdi
	call	*24(%rax)
	jmp	.L969
	.p2align 4,,10
	.p2align 3
.L1013:
	movq	(%rbx), %rax
	movq	%rbx, %rdi
	movq	$0, 8(%rbx)
	call	*16(%rax)
	movq	(%rbx), %rax
	movq	%rbx, %rdi
	call	*24(%rax)
	jmp	.L975
	.p2align 4,,10
	.p2align 3
.L1015:
	movq	(%rbx), %rax
	movq	%rbx, %rdi
	movq	$0, 8(%rbx)
	call	*16(%rax)
	movq	(%rbx), %rax
	movq	%rbx, %rdi
	call	*24(%rax)
	jmp	.L981
	.p2align 4,,10
	.p2align 3
.L1017:
	movq	(%rbx), %rax
	movq	%rbx, %rdi
	movq	$0, 8(%rbx)
	call	*16(%rax)
	movq	(%rbx), %rax
	movq	%rbx, %rdi
	call	*24(%rax)
	jmp	.L987
	.p2align 4,,10
	.p2align 3
.L1019:
	movq	(%rbx), %rax
	movq	%rbx, %rdi
	movq	$0, 8(%rbx)
	call	*16(%rax)
	movq	(%rbx), %rax
	movq	%rbx, %rdi
	popq	%rbx
	.cfi_remember_state
	.cfi_def_cfa_offset 40
	popq	%rbp
	.cfi_def_cfa_offset 32
	popq	%r12
	.cfi_def_cfa_offset 24
	movq	24(%rax), %rax
	popq	%r13
	.cfi_def_cfa_offset 16
	popq	%r14
	.cfi_def_cfa_offset 8
	jmp	*%rax
	.p2align 4,,10
	.p2align 3
.L1007:
	.cfi_restore_state
	movq	(%rbx), %rax
	movq	%rbx, %rdi
	movq	$0, 8(%rbx)
	call	*16(%rax)
	movq	(%rbx), %rax
	movq	%rbx, %rdi
	call	*24(%rax)
	jmp	.L957
	.p2align 4,,10
	.p2align 3
.L1009:
	movq	(%rbx), %rax
	movq	%rbx, %rdi
	movq	$0, 8(%rbx)
	call	*16(%rax)
	movq	(%rbx), %rax
	movq	%rbx, %rdi
	call	*24(%rax)
	jmp	.L963
	.p2align 4,,10
	.p2align 3
.L989:
	movl	$-1, %eax
	lock xaddl	%eax, (%rcx)
	jmp	.L990
	.p2align 4,,10
	.p2align 3
.L977:
	movl	$-1, %eax
	lock xaddl	%eax, (%rcx)
	jmp	.L978
	.p2align 4,,10
	.p2align 3
.L983:
	movl	$-1, %eax
	lock xaddl	%eax, (%rcx)
	jmp	.L984
	.p2align 4,,10
	.p2align 3
.L995:
	movl	$-1, %eax
	lock xaddl	%eax, (%rcx)
	jmp	.L996
	.p2align 4,,10
	.p2align 3
.L959:
	movl	$-1, %eax
	lock xaddl	%eax, (%rcx)
	jmp	.L960
	.p2align 4,,10
	.p2align 3
.L965:
	movl	$-1, %eax
	lock xaddl	%eax, (%rcx)
	jmp	.L966
	.p2align 4,,10
	.p2align 3
.L971:
	movl	$-1, %eax
	lock xaddl	%eax, (%rcx)
	jmp	.L972
.L1020:
	movq	%rbx, %rdi
	popq	%rbx
	.cfi_remember_state
	.cfi_def_cfa_offset 40
	popq	%rbp
	.cfi_def_cfa_offset 32
	popq	%r12
	.cfi_def_cfa_offset 24
	popq	%r13
	.cfi_def_cfa_offset 16
	popq	%r14
	.cfi_def_cfa_offset 8
	jmp	_ZNSt16_Sp_counted_baseILN9__gnu_cxx12_Lock_policyE2EE24_M_release_last_use_coldEv@PLT
.L1018:
	.cfi_restore_state
	movq	%rbx, %rdi
	call	_ZNSt16_Sp_counted_baseILN9__gnu_cxx12_Lock_policyE2EE24_M_release_last_use_coldEv@PLT
	jmp	.L987
.L1016:
	movq	%rbx, %rdi
	call	_ZNSt16_Sp_counted_baseILN9__gnu_cxx12_Lock_policyE2EE24_M_release_last_use_coldEv@PLT
	jmp	.L981
.L1014:
	movq	%rbx, %rdi
	call	_ZNSt16_Sp_counted_baseILN9__gnu_cxx12_Lock_policyE2EE24_M_release_last_use_coldEv@PLT
	jmp	.L975
.L1012:
	movq	%rbx, %rdi
	call	_ZNSt16_Sp_counted_baseILN9__gnu_cxx12_Lock_policyE2EE24_M_release_last_use_coldEv@PLT
	jmp	.L969
.L1010:
	movq	%rbx, %rdi
	call	_ZNSt16_Sp_counted_baseILN9__gnu_cxx12_Lock_policyE2EE24_M_release_last_use_coldEv@PLT
	jmp	.L963
.L1008:
	movq	%rbx, %rdi
	call	_ZNSt16_Sp_counted_baseILN9__gnu_cxx12_Lock_policyE2EE24_M_release_last_use_coldEv@PLT
	jmp	.L957
	.cfi_endproc
.LFE3408:
	.size	_ZN8opendnp311MasterTasksD2Ev, .-_ZN8opendnp311MasterTasksD2Ev
	.weak	_ZN8opendnp311MasterTasksD1Ev
	.set	_ZN8opendnp311MasterTasksD1Ev,_ZN8opendnp311MasterTasksD2Ev
	.section	.text._ZN8opendnp38MContextD0Ev,"axG",@progbits,_ZN8opendnp38MContextD5Ev,comdat
	.align 2
	.p2align 4
	.weak	_ZN8opendnp38MContextD0Ev
	.type	_ZN8opendnp38MContextD0Ev, @function
_ZN8opendnp38MContextD0Ev:
.LFB5017:
	.cfi_startproc
	movq	_ZTVN8opendnp38MContextE@GOTPCREL(%rip), %rax
	pushq	%r14
	.cfi_def_cfa_offset 16
	.cfi_offset 14, -16
	pushq	%r13
	.cfi_def_cfa_offset 24
	.cfi_offset 13, -24
	leaq	128(%rax), %rdx
	leaq	16(%rax), %rcx
	pushq	%r12
	.cfi_def_cfa_offset 32
	.cfi_offset 12, -32
	movq	%rdi, %r12
	movq	%rcx, %xmm0
	movq	%rdx, %xmm1
	addq	$152, %rax
	pushq	%rbp
	.cfi_def_cfa_offset 40
	.cfi_offset 6, -40
	punpcklqdq	%xmm1, %xmm0
	pushq	%rbx
	.cfi_def_cfa_offset 48
	.cfi_offset 3, -48
	movq	%rax, 16(%rdi)
	movups	%xmm0, (%rdi)
	movq	504(%rdi), %rdi
	testq	%rdi, %rdi
	je	.L1022
	call	_ZdaPv@PLT
.L1022:
	movq	408(%r12), %rdi
	testq	%rdi, %rdi
	je	.L1023
	movq	480(%r12), %rax
	movq	448(%r12), %rbx
	leaq	8(%rax), %rbp
	cmpq	%rbp, %rbx
	jnb	.L1024
	.p2align 4
	.p2align 3
.L1025:
	movq	(%rbx), %rdi
	movl	$510, %esi
	addq	$8, %rbx
	call	_ZdlPvm@PLT
	cmpq	%rbp, %rbx
	jb	.L1025
	movq	408(%r12), %rdi
.L1024:
	movq	416(%r12), %rax
	leaq	0(,%rax,8), %rsi
	call	_ZdlPvm@PLT
.L1023:
	movq	392(%r12), %r13
	movq	384(%r12), %rbx
	cmpq	%rbx, %r13
	je	.L1026
	movabsq	$4294967297, %r14
	jmp	.L1033
	.p2align 4,,10
	.p2align 3
.L1147:
	movl	8(%rbp), %eax
	leal	-1(%rax), %edx
	movl	%edx, 8(%rbp)
	cmpl	$1, %eax
	je	.L1144
.L1028:
	addq	$16, %rbx
	cmpq	%rbx, %r13
	je	.L1145
.L1033:
	movq	8(%rbx), %rbp
	testq	%rbp, %rbp
	je	.L1028
	movq	8(%rbp), %rax
	leaq	8(%rbp), %rdx
	cmpq	%r14, %rax
	je	.L1146
	movq	__libc_single_threaded@GOTPCREL(%rip), %rax
	cmpb	$0, (%rax)
	jne	.L1147
	movl	$-1, %eax
	lock xaddl	%eax, (%rdx)
	cmpl	$1, %eax
	jne	.L1028
.L1144:
	movq	%rbp, %rdi
	addq	$16, %rbx
	call	_ZNSt16_Sp_counted_baseILN9__gnu_cxx12_Lock_policyE2EE24_M_release_last_use_coldEv@PLT
	cmpq	%rbx, %r13
	jne	.L1033
	.p2align 4
	.p2align 3
.L1145:
	movq	384(%r12), %rbx
.L1026:
	testq	%rbx, %rbx
	je	.L1034
	movq	400(%r12), %rsi
	movq	%rbx, %rdi
	subq	%rbx, %rsi
	call	_ZdlPvm@PLT
.L1034:
	movq	360(%r12), %r13
	movq	352(%r12), %rbx
	cmpq	%rbx, %r13
	je	.L1035
	movabsq	$4294967297, %r14
	jmp	.L1042
	.p2align 4,,10
	.p2align 3
.L1151:
	movl	8(%rbp), %eax
	leal	-1(%rax), %edx
	movl	%edx, 8(%rbp)
	cmpl	$1, %eax
	je	.L1148
.L1037:
	addq	$16, %rbx
	cmpq	%rbx, %r13
	je	.L1149
.L1042:
	movq	8(%rbx), %rbp
	testq	%rbp, %rbp
	je	.L1037
	movq	8(%rbp), %rax
	leaq	8(%rbp), %rdx
	cmpq	%r14, %rax
	je	.L1150
	movq	__libc_single_threaded@GOTPCREL(%rip), %rax
	cmpb	$0, (%rax)
	jne	.L1151
	movl	$-1, %eax
	lock xaddl	%eax, (%rdx)
	cmpl	$1, %eax
	jne	.L1037
.L1148:
	movq	%rbp, %rdi
	addq	$16, %rbx
	call	_ZNSt16_Sp_counted_baseILN9__gnu_cxx12_Lock_policyE2EE24_M_release_last_use_coldEv@PLT
	cmpq	%rbx, %r13
	jne	.L1042
	.p2align 4
	.p2align 3
.L1149:
	movq	352(%r12), %rbx
.L1035:
	testq	%rbx, %rbx
	je	.L1043
	movq	368(%r12), %rsi
	movq	%rbx, %rdi
	subq	%rbx, %rsi
	call	_ZdlPvm@PLT
.L1043:
	movq	344(%r12), %rbx
	testq	%rbx, %rbx
	je	.L1045
	movq	8(%rbx), %rdx
	leaq	8(%rbx), %rcx
	movabsq	$4294967297, %rax
	cmpq	%rax, %rdx
	je	.L1152
	movq	__libc_single_threaded@GOTPCREL(%rip), %rax
	cmpb	$0, (%rax)
	je	.L1047
	movl	8(%rbx), %eax
	leal	-1(%rax), %edx
	movl	%edx, 8(%rbx)
.L1048:
	cmpl	$1, %eax
	je	.L1153
.L1045:
	movq	328(%r12), %rbx
	testq	%rbx, %rbx
	je	.L1051
	movq	8(%rbx), %rdx
	leaq	8(%rbx), %rcx
	movabsq	$4294967297, %rax
	cmpq	%rax, %rdx
	je	.L1154
	movq	__libc_single_threaded@GOTPCREL(%rip), %rax
	cmpb	$0, (%rax)
	je	.L1053
	movl	8(%rbx), %eax
	leal	-1(%rax), %edx
	movl	%edx, 8(%rbx)
.L1054:
	cmpl	$1, %eax
	je	.L1155
.L1051:
	movq	312(%r12), %rbx
	testq	%rbx, %rbx
	je	.L1057
	movq	8(%rbx), %rdx
	leaq	8(%rbx), %rcx
	movabsq	$4294967297, %rax
	cmpq	%rax, %rdx
	je	.L1156
	movq	__libc_single_threaded@GOTPCREL(%rip), %rax
	cmpb	$0, (%rax)
	je	.L1059
	movl	8(%rbx), %eax
	leal	-1(%rax), %edx
	movl	%edx, 8(%rbx)
.L1060:
	cmpl	$1, %eax
	je	.L1157
.L1057:
	movq	296(%r12), %rbx
	testq	%rbx, %rbx
	je	.L1063
	movq	8(%rbx), %rdx
	leaq	8(%rbx), %rcx
	movabsq	$4294967297, %rax
	cmpq	%rax, %rdx
	je	.L1158
	movq	__libc_single_threaded@GOTPCREL(%rip), %rax
	cmpb	$0, (%rax)
	je	.L1065
	movl	8(%rbx), %eax
	leal	-1(%rax), %edx
	movl	%edx, 8(%rbx)
.L1066:
	cmpl	$1, %eax
	je	.L1159
.L1063:
	movq	280(%r12), %rbx
	testq	%rbx, %rbx
	je	.L1069
	movq	8(%rbx), %rdx
	leaq	8(%rbx), %rcx
	movabsq	$4294967297, %rax
	cmpq	%rax, %rdx
	je	.L1160
	movq	__libc_single_threaded@GOTPCREL(%rip), %rax
	cmpb	$0, (%rax)
	je	.L1071
	movl	8(%rbx), %eax
	leal	-1(%rax), %edx
	movl	%edx, 8(%rbx)
.L1072:
	cmpl	$1, %eax
	je	.L1161
.L1069:
	movq	264(%r12), %rbx
	testq	%rbx, %rbx
	je	.L1075
	movq	8(%rbx), %rdx
	leaq	8(%rbx), %rcx
	movabsq	$4294967297, %rax
	cmpq	%rax, %rdx
	je	.L1162
	movq	__libc_single_threaded@GOTPCREL(%rip), %rax
	cmpb	$0, (%rax)
	je	.L1077
	movl	8(%rbx), %eax
	leal	-1(%rax), %edx
	movl	%edx, 8(%rbx)
.L1078:
	cmpl	$1, %eax
	je	.L1163
.L1075:
	movq	248(%r12), %rbx
	testq	%rbx, %rbx
	je	.L1081
	movq	8(%rbx), %rdx
	leaq	8(%rbx), %rcx
	movabsq	$4294967297, %rax
	cmpq	%rax, %rdx
	je	.L1164
	movq	__libc_single_threaded@GOTPCREL(%rip), %rax
	cmpb	$0, (%rax)
	je	.L1083
	movl	8(%rbx), %eax
	leal	-1(%rax), %edx
	movl	%edx, 8(%rbx)
.L1084:
	cmpl	$1, %eax
	je	.L1165
.L1081:
	leaq	224(%r12), %rdi
	call	_ZN7openpal8TimerRefD1Ev@PLT
	leaq	208(%r12), %rdi
	call	_ZN7openpal8TimerRefD1Ev@PLT
	leaq	192(%r12), %rdi
	call	_ZN7openpal8TimerRefD1Ev@PLT
	movq	184(%r12), %rbx
	testq	%rbx, %rbx
	je	.L1087
	movq	8(%rbx), %rdx
	leaq	8(%rbx), %rcx
	movabsq	$4294967297, %rax
	cmpq	%rax, %rdx
	je	.L1166
	movq	__libc_single_threaded@GOTPCREL(%rip), %rax
	cmpb	$0, (%rax)
	je	.L1089
	movl	8(%rbx), %eax
	leal	-1(%rax), %edx
	movl	%edx, 8(%rbx)
.L1090:
	cmpl	$1, %eax
	je	.L1167
.L1087:
	movq	152(%r12), %rbx
	testq	%rbx, %rbx
	je	.L1093
	movq	8(%rbx), %rdx
	leaq	8(%rbx), %rcx
	movabsq	$4294967297, %rax
	cmpq	%rax, %rdx
	je	.L1168
	movq	__libc_single_threaded@GOTPCREL(%rip), %rax
	cmpb	$0, (%rax)
	je	.L1095
	movl	8(%rbx), %eax
	leal	-1(%rax), %edx
	movl	%edx, 8(%rbx)
.L1096:
	cmpl	$1, %eax
	je	.L1169
.L1093:
	movq	136(%r12), %rbx
	testq	%rbx, %rbx
	je	.L1099
	movq	8(%rbx), %rdx
	leaq	8(%rbx), %rcx
	movabsq	$4294967297, %rax
	cmpq	%rax, %rdx
	je	.L1170
	movq	__libc_single_threaded@GOTPCREL(%rip), %rax
	cmpb	$0, (%rax)
	je	.L1101
	movl	8(%rbx), %eax
	leal	-1(%rax), %edx
	movl	%edx, 8(%rbx)
.L1102:
	cmpl	$1, %eax
	je	.L1171
.L1099:
	movq	80(%r12), %rbx
	testq	%rbx, %rbx
	je	.L1105
	movq	8(%rbx), %rdx
	leaq	8(%rbx), %rcx
	movabsq	$4294967297, %rax
	cmpq	%rax, %rdx
	je	.L1172
	movq	__libc_single_threaded@GOTPCREL(%rip), %rax
	cmpb	$0, (%rax)
	je	.L1107
	movl	8(%rbx), %eax
	leal	-1(%rax), %edx
	movl	%edx, 8(%rbx)
.L1108:
	cmpl	$1, %eax
	je	.L1173
.L1105:
	movq	64(%r12), %rbx
	testq	%rbx, %rbx
	je	.L1111
	movq	8(%rbx), %rdx
	leaq	8(%rbx), %rcx
	movabsq	$4294967297, %rax
	cmpq	%rax, %rdx
	je	.L1174
	movq	__libc_single_threaded@GOTPCREL(%rip), %rax
	cmpb	$0, (%rax)
	je	.L1113
	movl	8(%rbx), %eax
	leal	-1(%rax), %edx
	movl	%edx, 8(%rbx)
.L1114:
	cmpl	$1, %eax
	je	.L1175
.L1111:
	movq	48(%r12), %rbx
	testq	%rbx, %rbx
	je	.L1117
	movq	8(%rbx), %rdx
	leaq	8(%rbx), %rcx
	movabsq	$4294967297, %rax
	cmpq	%rax, %rdx
	je	.L1176
	movq	__libc_single_threaded@GOTPCREL(%rip), %rax
	cmpb	$0, (%rax)
	je	.L1119
	movl	8(%rbx), %eax
	leal	-1(%rax), %edx
	movl	%edx, 8(%rbx)
.L1120:
	cmpl	$1, %eax
	je	.L1177
.L1117:
	movq	32(%r12), %rbx
	testq	%rbx, %rbx
	je	.L1123
	movq	8(%rbx), %rdx
	leaq	8(%rbx), %rcx
	movabsq	$4294967297, %rax
	cmpq	%rax, %rdx
	je	.L1178
	movq	__libc_single_threaded@GOTPCREL(%rip), %rax
	cmpb	$0, (%rax)
	je	.L1125
	movl	8(%rbx), %eax
	leal	-1(%rax), %edx
	movl	%edx, 8(%rbx)
.L1126:
	cmpl	$1, %eax
	je	.L1179
.L1123:
	popq	%rbx
	.cfi_remember_state
	.cfi_def_cfa_offset 40
	movq	%r12, %rdi
	popq	%rbp
	.cfi_def_cfa_offset 32
	movl	$520, %esi
	popq	%r12
	.cfi_def_cfa_offset 24
	popq	%r13
	.cfi_def_cfa_offset 16
	popq	%r14
	.cfi_def_cfa_offset 8
	jmp	_ZdlPvm@PLT
	.p2align 4,,10
	.p2align 3
.L1146:
	.cfi_restore_state
	movq	0(%rbp), %rax
	movq	%rbp, %rdi
	movq	$0, 8(%rbp)
	call	*16(%rax)
	movq	0(%rbp), %rax
	movq	%rbp, %rdi
	call	*24(%rax)
	jmp	.L1028
	.p2align 4,,10
	.p2align 3
.L1150:
	movq	0(%rbp), %rax
	movq	%rbp, %rdi
	movq	$0, 8(%rbp)
	call	*16(%rax)
	movq	0(%rbp), %rax
	movq	%rbp, %rdi
	call	*24(%rax)
	jmp	.L1037
	.p2align 4,,10
	.p2align 3
.L1154:
	movq	(%rbx), %rax
	movq	%rbx, %rdi
	movq	$0, 8(%rbx)
	call	*16(%rax)
	movq	(%rbx), %rax
	movq	%rbx, %rdi
	call	*24(%rax)
	jmp	.L1051
	.p2align 4,,10
	.p2align 3
.L1164:
	movq	(%rbx), %rax
	movq	%rbx, %rdi
	movq	$0, 8(%rbx)
	call	*16(%rax)
	movq	(%rbx), %rax
	movq	%rbx, %rdi
	call	*24(%rax)
	jmp	.L1081
	.p2align 4,,10
	.p2align 3
.L1166:
	movq	(%rbx), %rax
	movq	%rbx, %rdi
	movq	$0, 8(%rbx)
	call	*16(%rax)
	movq	(%rbx), %rax
	movq	%rbx, %rdi
	call	*24(%rax)
	jmp	.L1087
	.p2align 4,,10
	.p2align 3
.L1168:
	movq	(%rbx), %rax
	movq	%rbx, %rdi
	movq	$0, 8(%rbx)
	call	*16(%rax)
	movq	(%rbx), %rax
	movq	%rbx, %rdi
	call	*24(%rax)
	jmp	.L1093
	.p2align 4,,10
	.p2align 3
.L1170:
	movq	(%rbx), %rax
	movq	%rbx, %rdi
	movq	$0, 8(%rbx)
	call	*16(%rax)
	movq	(%rbx), %rax
	movq	%rbx, %rdi
	call	*24(%rax)
	jmp	.L1099
	.p2align 4,,10
	.p2align 3
.L1172:
	movq	(%rbx), %rax
	movq	%rbx, %rdi
	movq	$0, 8(%rbx)
	call	*16(%rax)
	movq	(%rbx), %rax
	movq	%rbx, %rdi
	call	*24(%rax)
	jmp	.L1105
	.p2align 4,,10
	.p2align 3
.L1174:
	movq	(%rbx), %rax
	movq	%rbx, %rdi
	movq	$0, 8(%rbx)
	call	*16(%rax)
	movq	(%rbx), %rax
	movq	%rbx, %rdi
	call	*24(%rax)
	jmp	.L1111
	.p2align 4,,10
	.p2align 3
.L1176:
	movq	(%rbx), %rax
	movq	%rbx, %rdi
	movq	$0, 8(%rbx)
	call	*16(%rax)
	movq	(%rbx), %rax
	movq	%rbx, %rdi
	call	*24(%rax)
	jmp	.L1117
	.p2align 4,,10
	.p2align 3
.L1178:
	movq	(%rbx), %rax
	movq	%rbx, %rdi
	movq	$0, 8(%rbx)
	call	*16(%rax)
	movq	(%rbx), %rax
	movq	%rbx, %rdi
	call	*24(%rax)
	jmp	.L1123
	.p2align 4,,10
	.p2align 3
.L1156:
	movq	(%rbx), %rax
	movq	%rbx, %rdi
	movq	$0, 8(%rbx)
	call	*16(%rax)
	movq	(%rbx), %rax
	movq	%rbx, %rdi
	call	*24(%rax)
	jmp	.L1057
	.p2align 4,,10
	.p2align 3
.L1158:
	movq	(%rbx), %rax
	movq	%rbx, %rdi
	movq	$0, 8(%rbx)
	call	*16(%rax)
	movq	(%rbx), %rax
	movq	%rbx, %rdi
	call	*24(%rax)
	jmp	.L1063
	.p2align 4,,10
	.p2align 3
.L1160:
	movq	(%rbx), %rax
	movq	%rbx, %rdi
	movq	$0, 8(%rbx)
	call	*16(%rax)
	movq	(%rbx), %rax
	movq	%rbx, %rdi
	call	*24(%rax)
	jmp	.L1069
	.p2align 4,,10
	.p2align 3
.L1162:
	movq	(%rbx), %rax
	movq	%rbx, %rdi
	movq	$0, 8(%rbx)
	call	*16(%rax)
	movq	(%rbx), %rax
	movq	%rbx, %rdi
	call	*24(%rax)
	jmp	.L1075
	.p2align 4,,10
	.p2align 3
.L1152:
	movq	(%rbx), %rax
	movq	%rbx, %rdi
	movq	$0, 8(%rbx)
	call	*16(%rax)
	movq	(%rbx), %rax
	movq	%rbx, %rdi
	call	*24(%rax)
	jmp	.L1045
	.p2align 4,,10
	.p2align 3
.L1107:
	movl	$-1, %eax
	lock xaddl	%eax, (%rcx)
	jmp	.L1108
	.p2align 4,,10
	.p2align 3
.L1113:
	movl	$-1, %eax
	lock xaddl	%eax, (%rcx)
	jmp	.L1114
	.p2align 4,,10
	.p2align 3
.L1095:
	movl	$-1, %eax
	lock xaddl	%eax, (%rcx)
	jmp	.L1096
	.p2align 4,,10
	.p2align 3
.L1101:
	movl	$-1, %eax
	lock xaddl	%eax, (%rcx)
	jmp	.L1102
	.p2align 4,,10
	.p2align 3
.L1083:
	movl	$-1, %eax
	lock xaddl	%eax, (%rcx)
	jmp	.L1084
	.p2align 4,,10
	.p2align 3
.L1089:
	movl	$-1, %eax
	lock xaddl	%eax, (%rcx)
	jmp	.L1090
	.p2align 4,,10
	.p2align 3
.L1047:
	movl	$-1, %eax
	lock xaddl	%eax, (%rcx)
	jmp	.L1048
	.p2align 4,,10
	.p2align 3
.L1053:
	movl	$-1, %eax
	lock xaddl	%eax, (%rcx)
	jmp	.L1054
	.p2align 4,,10
	.p2align 3
.L1125:
	movl	$-1, %eax
	lock xaddl	%eax, (%rcx)
	jmp	.L1126
	.p2align 4,,10
	.p2align 3
.L1119:
	movl	$-1, %eax
	lock xaddl	%eax, (%rcx)
	jmp	.L1120
	.p2align 4,,10
	.p2align 3
.L1071:
	movl	$-1, %eax
	lock xaddl	%eax, (%rcx)
	jmp	.L1072
	.p2align 4,,10
	.p2align 3
.L1077:
	movl	$-1, %eax
	lock xaddl	%eax, (%rcx)
	jmp	.L1078
	.p2align 4,,10
	.p2align 3
.L1059:
	movl	$-1, %eax
	lock xaddl	%eax, (%rcx)
	jmp	.L1060
	.p2align 4,,10
	.p2align 3
.L1065:
	movl	$-1, %eax
	lock xaddl	%eax, (%rcx)
	jmp	.L1066
.L1153:
	movq	%rbx, %rdi
	call	_ZNSt16_Sp_counted_baseILN9__gnu_cxx12_Lock_policyE2EE24_M_release_last_use_coldEv@PLT
	jmp	.L1045
.L1177:
	movq	%rbx, %rdi
	call	_ZNSt16_Sp_counted_baseILN9__gnu_cxx12_Lock_policyE2EE24_M_release_last_use_coldEv@PLT
	jmp	.L1117
.L1175:
	movq	%rbx, %rdi
	call	_ZNSt16_Sp_counted_baseILN9__gnu_cxx12_Lock_policyE2EE24_M_release_last_use_coldEv@PLT
	jmp	.L1111
.L1173:
	movq	%rbx, %rdi
	call	_ZNSt16_Sp_counted_baseILN9__gnu_cxx12_Lock_policyE2EE24_M_release_last_use_coldEv@PLT
	jmp	.L1105
.L1171:
	movq	%rbx, %rdi
	call	_ZNSt16_Sp_counted_baseILN9__gnu_cxx12_Lock_policyE2EE24_M_release_last_use_coldEv@PLT
	jmp	.L1099
.L1169:
	movq	%rbx, %rdi
	call	_ZNSt16_Sp_counted_baseILN9__gnu_cxx12_Lock_policyE2EE24_M_release_last_use_coldEv@PLT
	jmp	.L1093
.L1167:
	movq	%rbx, %rdi
	call	_ZNSt16_Sp_counted_baseILN9__gnu_cxx12_Lock_policyE2EE24_M_release_last_use_coldEv@PLT
	jmp	.L1087
.L1165:
	movq	%rbx, %rdi
	call	_ZNSt16_Sp_counted_baseILN9__gnu_cxx12_Lock_policyE2EE24_M_release_last_use_coldEv@PLT
	jmp	.L1081
.L1163:
	movq	%rbx, %rdi
	call	_ZNSt16_Sp_counted_baseILN9__gnu_cxx12_Lock_policyE2EE24_M_release_last_use_coldEv@PLT
	jmp	.L1075
.L1161:
	movq	%rbx, %rdi
	call	_ZNSt16_Sp_counted_baseILN9__gnu_cxx12_Lock_policyE2EE24_M_release_last_use_coldEv@PLT
	jmp	.L1069
.L1159:
	movq	%rbx, %rdi
	call	_ZNSt16_Sp_counted_baseILN9__gnu_cxx12_Lock_policyE2EE24_M_release_last_use_coldEv@PLT
	jmp	.L1063
.L1157:
	movq	%rbx, %rdi
	call	_ZNSt16_Sp_counted_baseILN9__gnu_cxx12_Lock_policyE2EE24_M_release_last_use_coldEv@PLT
	jmp	.L1057
.L1155:
	movq	%rbx, %rdi
	call	_ZNSt16_Sp_counted_baseILN9__gnu_cxx12_Lock_policyE2EE24_M_release_last_use_coldEv@PLT
	jmp	.L1051
.L1179:
	movq	%rbx, %rdi
	call	_ZNSt16_Sp_counted_baseILN9__gnu_cxx12_Lock_policyE2EE24_M_release_last_use_coldEv@PLT
	jmp	.L1123
	.cfi_endproc
.LFE5017:
	.size	_ZN8opendnp38MContextD0Ev, .-_ZN8opendnp38MContextD0Ev
	.section	.text._ZN8opendnp38MContextD2Ev,"axG",@progbits,_ZN8opendnp38MContextD5Ev,comdat
	.align 2
	.p2align 4
	.weak	_ZN8opendnp38MContextD2Ev
	.type	_ZN8opendnp38MContextD2Ev, @function
_ZN8opendnp38MContextD2Ev:
.LFB5015:
	.cfi_startproc
	movq	_ZTVN8opendnp38MContextE@GOTPCREL(%rip), %rax
	pushq	%r14
	.cfi_def_cfa_offset 16
	.cfi_offset 14, -16
	pushq	%r13
	.cfi_def_cfa_offset 24
	.cfi_offset 13, -24
	leaq	128(%rax), %rdx
	leaq	16(%rax), %rcx
	pushq	%r12
	.cfi_def_cfa_offset 32
	.cfi_offset 12, -32
	movq	%rdi, %r12
	movq	%rcx, %xmm0
	movq	%rdx, %xmm1
	addq	$152, %rax
	pushq	%rbp
	.cfi_def_cfa_offset 40
	.cfi_offset 6, -40
	punpcklqdq	%xmm1, %xmm0
	pushq	%rbx
	.cfi_def_cfa_offset 48
	.cfi_offset 3, -48
	movq	%rax, 16(%rdi)
	movups	%xmm0, (%rdi)
	movq	504(%rdi), %rdi
	testq	%rdi, %rdi
	je	.L1181
	call	_ZdaPv@PLT
.L1181:
	movq	408(%r12), %rdi
	testq	%rdi, %rdi
	je	.L1182
	movq	480(%r12), %rax
	movq	448(%r12), %rbx
	leaq	8(%rax), %rbp
	cmpq	%rbp, %rbx
	jnb	.L1183
	.p2align 4
	.p2align 3
.L1184:
	movq	(%rbx), %rdi
	movl	$510, %esi
	addq	$8, %rbx
	call	_ZdlPvm@PLT
	cmpq	%rbp, %rbx
	jb	.L1184
	movq	408(%r12), %rdi
.L1183:
	movq	416(%r12), %rax
	leaq	0(,%rax,8), %rsi
	call	_ZdlPvm@PLT
.L1182:
	movq	392(%r12), %r13
	movq	384(%r12), %rbx
	cmpq	%rbx, %r13
	je	.L1185
	movabsq	$4294967297, %r14
	jmp	.L1192
	.p2align 4,,10
	.p2align 3
.L1306:
	movl	8(%rbp), %eax
	leal	-1(%rax), %edx
	movl	%edx, 8(%rbp)
	cmpl	$1, %eax
	je	.L1303
.L1187:
	addq	$16, %rbx
	cmpq	%rbx, %r13
	je	.L1304
.L1192:
	movq	8(%rbx), %rbp
	testq	%rbp, %rbp
	je	.L1187
	movq	8(%rbp), %rax
	leaq	8(%rbp), %rdx
	cmpq	%r14, %rax
	je	.L1305
	movq	__libc_single_threaded@GOTPCREL(%rip), %rax
	cmpb	$0, (%rax)
	jne	.L1306
	movl	$-1, %eax
	lock xaddl	%eax, (%rdx)
	cmpl	$1, %eax
	jne	.L1187
.L1303:
	movq	%rbp, %rdi
	addq	$16, %rbx
	call	_ZNSt16_Sp_counted_baseILN9__gnu_cxx12_Lock_policyE2EE24_M_release_last_use_coldEv@PLT
	cmpq	%rbx, %r13
	jne	.L1192
	.p2align 4
	.p2align 3
.L1304:
	movq	384(%r12), %rbx
.L1185:
	testq	%rbx, %rbx
	je	.L1193
	movq	400(%r12), %rsi
	movq	%rbx, %rdi
	subq	%rbx, %rsi
	call	_ZdlPvm@PLT
.L1193:
	movq	360(%r12), %r13
	movq	352(%r12), %rbx
	cmpq	%rbx, %r13
	je	.L1194
	movabsq	$4294967297, %r14
	jmp	.L1201
	.p2align 4,,10
	.p2align 3
.L1310:
	movl	8(%rbp), %eax
	leal	-1(%rax), %edx
	movl	%edx, 8(%rbp)
	cmpl	$1, %eax
	je	.L1307
.L1196:
	addq	$16, %rbx
	cmpq	%rbx, %r13
	je	.L1308
.L1201:
	movq	8(%rbx), %rbp
	testq	%rbp, %rbp
	je	.L1196
	movq	8(%rbp), %rax
	leaq	8(%rbp), %rdx
	cmpq	%r14, %rax
	je	.L1309
	movq	__libc_single_threaded@GOTPCREL(%rip), %rax
	cmpb	$0, (%rax)
	jne	.L1310
	movl	$-1, %eax
	lock xaddl	%eax, (%rdx)
	cmpl	$1, %eax
	jne	.L1196
.L1307:
	movq	%rbp, %rdi
	addq	$16, %rbx
	call	_ZNSt16_Sp_counted_baseILN9__gnu_cxx12_Lock_policyE2EE24_M_release_last_use_coldEv@PLT
	cmpq	%rbx, %r13
	jne	.L1201
	.p2align 4
	.p2align 3
.L1308:
	movq	352(%r12), %rbx
.L1194:
	testq	%rbx, %rbx
	je	.L1202
	movq	368(%r12), %rsi
	movq	%rbx, %rdi
	subq	%rbx, %rsi
	call	_ZdlPvm@PLT
.L1202:
	movq	344(%r12), %rbx
	testq	%rbx, %rbx
	je	.L1204
	movq	8(%rbx), %rdx
	leaq	8(%rbx), %rcx
	movabsq	$4294967297, %rax
	cmpq	%rax, %rdx
	je	.L1311
	movq	__libc_single_threaded@GOTPCREL(%rip), %rax
	cmpb	$0, (%rax)
	je	.L1206
	movl	8(%rbx), %eax
	leal	-1(%rax), %edx
	movl	%edx, 8(%rbx)
.L1207:
	cmpl	$1, %eax
	je	.L1312
.L1204:
	movq	328(%r12), %rbx
	testq	%rbx, %rbx
	je	.L1210
	movq	8(%rbx), %rdx
	leaq	8(%rbx), %rcx
	movabsq	$4294967297, %rax
	cmpq	%rax, %rdx
	je	.L1313
	movq	__libc_single_threaded@GOTPCREL(%rip), %rax
	cmpb	$0, (%rax)
	je	.L1212
	movl	8(%rbx), %eax
	leal	-1(%rax), %edx
	movl	%edx, 8(%rbx)
.L1213:
	cmpl	$1, %eax
	je	.L1314
.L1210:
	movq	312(%r12), %rbx
	testq	%rbx, %rbx
	je	.L1216
	movq	8(%rbx), %rdx
	leaq	8(%rbx), %rcx
	movabsq	$4294967297, %rax
	cmpq	%rax, %rdx
	je	.L1315
	movq	__libc_single_threaded@GOTPCREL(%rip), %rax
	cmpb	$0, (%rax)
	je	.L1218
	movl	8(%rbx), %eax
	leal	-1(%rax), %edx
	movl	%edx, 8(%rbx)
.L1219:
	cmpl	$1, %eax
	je	.L1316
.L1216:
	movq	296(%r12), %rbx
	testq	%rbx, %rbx
	je	.L1222
	movq	8(%rbx), %rdx
	leaq	8(%rbx), %rcx
	movabsq	$4294967297, %rax
	cmpq	%rax, %rdx
	je	.L1317
	movq	__libc_single_threaded@GOTPCREL(%rip), %rax
	cmpb	$0, (%rax)
	je	.L1224
	movl	8(%rbx), %eax
	leal	-1(%rax), %edx
	movl	%edx, 8(%rbx)
.L1225:
	cmpl	$1, %eax
	je	.L1318
.L1222:
	movq	280(%r12), %rbx
	testq	%rbx, %rbx
	je	.L1228
	movq	8(%rbx), %rdx
	leaq	8(%rbx), %rcx
	movabsq	$4294967297, %rax
	cmpq	%rax, %rdx
	je	.L1319
	movq	__libc_single_threaded@GOTPCREL(%rip), %rax
	cmpb	$0, (%rax)
	je	.L1230
	movl	8(%rbx), %eax
	leal	-1(%rax), %edx
	movl	%edx, 8(%rbx)
.L1231:
	cmpl	$1, %eax
	je	.L1320
.L1228:
	movq	264(%r12), %rbx
	testq	%rbx, %rbx
	je	.L1234
	movq	8(%rbx), %rdx
	leaq	8(%rbx), %rcx
	movabsq	$4294967297, %rax
	cmpq	%rax, %rdx
	je	.L1321
	movq	__libc_single_threaded@GOTPCREL(%rip), %rax
	cmpb	$0, (%rax)
	je	.L1236
	movl	8(%rbx), %eax
	leal	-1(%rax), %edx
	movl	%edx, 8(%rbx)
.L1237:
	cmpl	$1, %eax
	je	.L1322
.L1234:
	movq	248(%r12), %rbx
	testq	%rbx, %rbx
	je	.L1240
	movq	8(%rbx), %rdx
	leaq	8(%rbx), %rcx
	movabsq	$4294967297, %rax
	cmpq	%rax, %rdx
	je	.L1323
	movq	__libc_single_threaded@GOTPCREL(%rip), %rax
	cmpb	$0, (%rax)
	je	.L1242
	movl	8(%rbx), %eax
	leal	-1(%rax), %edx
	movl	%edx, 8(%rbx)
.L1243:
	cmpl	$1, %eax
	je	.L1324
.L1240:
	leaq	224(%r12), %rdi
	call	_ZN7openpal8TimerRefD1Ev@PLT
	leaq	208(%r12), %rdi
	call	_ZN7openpal8TimerRefD1Ev@PLT
	leaq	192(%r12), %rdi
	call	_ZN7openpal8TimerRefD1Ev@PLT
	movq	184(%r12), %rbx
	testq	%rbx, %rbx
	je	.L1246
	movq	8(%rbx), %rdx
	leaq	8(%rbx), %rcx
	movabsq	$4294967297, %rax
	cmpq	%rax, %rdx
	je	.L1325
	movq	__libc_single_threaded@GOTPCREL(%rip), %rax
	cmpb	$0, (%rax)
	je	.L1248
	movl	8(%rbx), %eax
	leal	-1(%rax), %edx
	movl	%edx, 8(%rbx)
.L1249:
	cmpl	$1, %eax
	je	.L1326
.L1246:
	movq	152(%r12), %rbx
	testq	%rbx, %rbx
	je	.L1252
	movq	8(%rbx), %rdx
	leaq	8(%rbx), %rcx
	movabsq	$4294967297, %rax
	cmpq	%rax, %rdx
	je	.L1327
	movq	__libc_single_threaded@GOTPCREL(%rip), %rax
	cmpb	$0, (%rax)
	je	.L1254
	movl	8(%rbx), %eax
	leal	-1(%rax), %edx
	movl	%edx, 8(%rbx)
.L1255:
	cmpl	$1, %eax
	je	.L1328
.L1252:
	movq	136(%r12), %rbx
	testq	%rbx, %rbx
	je	.L1258
	movq	8(%rbx), %rdx
	leaq	8(%rbx), %rcx
	movabsq	$4294967297, %rax
	cmpq	%rax, %rdx
	je	.L1329
	movq	__libc_single_threaded@GOTPCREL(%rip), %rax
	cmpb	$0, (%rax)
	je	.L1260
	movl	8(%rbx), %eax
	leal	-1(%rax), %edx
	movl	%edx, 8(%rbx)
.L1261:
	cmpl	$1, %eax
	je	.L1330
.L1258:
	movq	80(%r12), %rbx
	testq	%rbx, %rbx
	je	.L1264
	movq	8(%rbx), %rdx
	leaq	8(%rbx), %rcx
	movabsq	$4294967297, %rax
	cmpq	%rax, %rdx
	je	.L1331
	movq	__libc_single_threaded@GOTPCREL(%rip), %rax
	cmpb	$0, (%rax)
	je	.L1266
	movl	8(%rbx), %eax
	leal	-1(%rax), %edx
	movl	%edx, 8(%rbx)
.L1267:
	cmpl	$1, %eax
	je	.L1332
.L1264:
	movq	64(%r12), %rbx
	testq	%rbx, %rbx
	je	.L1270
	movq	8(%rbx), %rdx
	leaq	8(%rbx), %rcx
	movabsq	$4294967297, %rax
	cmpq	%rax, %rdx
	je	.L1333
	movq	__libc_single_threaded@GOTPCREL(%rip), %rax
	cmpb	$0, (%rax)
	je	.L1272
	movl	8(%rbx), %eax
	leal	-1(%rax), %edx
	movl	%edx, 8(%rbx)
.L1273:
	cmpl	$1, %eax
	je	.L1334
.L1270:
	movq	48(%r12), %rbx
	testq	%rbx, %rbx
	je	.L1276
	movq	8(%rbx), %rdx
	leaq	8(%rbx), %rcx
	movabsq	$4294967297, %rax
	cmpq	%rax, %rdx
	je	.L1335
	movq	__libc_single_threaded@GOTPCREL(%rip), %rax
	cmpb	$0, (%rax)
	je	.L1278
	movl	8(%rbx), %eax
	leal	-1(%rax), %edx
	movl	%edx, 8(%rbx)
.L1279:
	cmpl	$1, %eax
	je	.L1336
.L1276:
	movq	32(%r12), %rbx
	testq	%rbx, %rbx
	je	.L1180
	movq	8(%rbx), %rdx
	leaq	8(%rbx), %rcx
	movabsq	$4294967297, %rax
	cmpq	%rax, %rdx
	je	.L1337
	movq	__libc_single_threaded@GOTPCREL(%rip), %rax
	cmpb	$0, (%rax)
	je	.L1284
	movl	8(%rbx), %eax
	leal	-1(%rax), %edx
	movl	%edx, 8(%rbx)
.L1285:
	cmpl	$1, %eax
	je	.L1338
.L1180:
	popq	%rbx
	.cfi_remember_state
	.cfi_def_cfa_offset 40
	popq	%rbp
	.cfi_def_cfa_offset 32
	popq	%r12
	.cfi_def_cfa_offset 24
	popq	%r13
	.cfi_def_cfa_offset 16
	popq	%r14
	.cfi_def_cfa_offset 8
	ret
	.p2align 4,,10
	.p2align 3
.L1305:
	.cfi_restore_state
	movq	0(%rbp), %rax
	movq	%rbp, %rdi
	movq	$0, 8(%rbp)
	call	*16(%rax)
	movq	0(%rbp), %rax
	movq	%rbp, %rdi
	call	*24(%rax)
	jmp	.L1187
	.p2align 4,,10
	.p2align 3
.L1309:
	movq	0(%rbp), %rax
	movq	%rbp, %rdi
	movq	$0, 8(%rbp)
	call	*16(%rax)
	movq	0(%rbp), %rax
	movq	%rbp, %rdi
	call	*24(%rax)
	jmp	.L1196
	.p2align 4,,10
	.p2align 3
.L1313:
	movq	(%rbx), %rax
	movq	%rbx, %rdi
	movq	$0, 8(%rbx)
	call	*16(%rax)
	movq	(%rbx), %rax
	movq	%rbx, %rdi
	call	*24(%rax)
	jmp	.L1210
	.p2align 4,,10
	.p2align 3
.L1323:
	movq	(%rbx), %rax
	movq	%rbx, %rdi
	movq	$0, 8(%rbx)
	call	*16(%rax)
	movq	(%rbx), %rax
	movq	%rbx, %rdi
	call	*24(%rax)
	jmp	.L1240
	.p2align 4,,10
	.p2align 3
.L1325:
	movq	(%rbx), %rax
	movq	%rbx, %rdi
	movq	$0, 8(%rbx)
	call	*16(%rax)
	movq	(%rbx), %rax
	movq	%rbx, %rdi
	call	*24(%rax)
	jmp	.L1246
	.p2align 4,,10
	.p2align 3
.L1327:
	movq	(%rbx), %rax
	movq	%rbx, %rdi
	movq	$0, 8(%rbx)
	call	*16(%rax)
	movq	(%rbx), %rax
	movq	%rbx, %rdi
	call	*24(%rax)
	jmp	.L1252
	.p2align 4,,10
	.p2align 3
.L1329:
	movq	(%rbx), %rax
	movq	%rbx, %rdi
	movq	$0, 8(%rbx)
	call	*16(%rax)
	movq	(%rbx), %rax
	movq	%rbx, %rdi
	call	*24(%rax)
	jmp	.L1258
	.p2align 4,,10
	.p2align 3
.L1331:
	movq	(%rbx), %rax
	movq	%rbx, %rdi
	movq	$0, 8(%rbx)
	call	*16(%rax)
	movq	(%rbx), %rax
	movq	%rbx, %rdi
	call	*24(%rax)
	jmp	.L1264
	.p2align 4,,10
	.p2align 3
.L1333:
	movq	(%rbx), %rax
	movq	%rbx, %rdi
	movq	$0, 8(%rbx)
	call	*16(%rax)
	movq	(%rbx), %rax
	movq	%rbx, %rdi
	call	*24(%rax)
	jmp	.L1270
	.p2align 4,,10
	.p2align 3
.L1335:
	movq	(%rbx), %rax
	movq	%rbx, %rdi
	movq	$0, 8(%rbx)
	call	*16(%rax)
	movq	(%rbx), %rax
	movq	%rbx, %rdi
	call	*24(%rax)
	jmp	.L1276
	.p2align 4,,10
	.p2align 3
.L1337:
	movq	(%rbx), %rax
	movq	%rbx, %rdi
	movq	$0, 8(%rbx)
	call	*16(%rax)
	movq	(%rbx), %rax
	movq	%rbx, %rdi
	popq	%rbx
	.cfi_remember_state
	.cfi_def_cfa_offset 40
	popq	%rbp
	.cfi_def_cfa_offset 32
	popq	%r12
	.cfi_def_cfa_offset 24
	movq	24(%rax), %rax
	popq	%r13
	.cfi_def_cfa_offset 16
	popq	%r14
	.cfi_def_cfa_offset 8
	jmp	*%rax
	.p2align 4,,10
	.p2align 3
.L1315:
	.cfi_restore_state
	movq	(%rbx), %rax
	movq	%rbx, %rdi
	movq	$0, 8(%rbx)
	call	*16(%rax)
	movq	(%rbx), %rax
	movq	%rbx, %rdi
	call	*24(%rax)
	jmp	.L1216
	.p2align 4,,10
	.p2align 3
.L1317:
	movq	(%rbx), %rax
	movq	%rbx, %rdi
	movq	$0, 8(%rbx)
	call	*16(%rax)
	movq	(%rbx), %rax
	movq	%rbx, %rdi
	call	*24(%rax)
	jmp	.L1222
	.p2align 4,,10
	.p2align 3
.L1319:
	movq	(%rbx), %rax
	movq	%rbx, %rdi
	movq	$0, 8(%rbx)
	call	*16(%rax)
	movq	(%rbx), %rax
	movq	%rbx, %rdi
	call	*24(%rax)
	jmp	.L1228
	.p2align 4,,10
	.p2align 3
.L1321:
	movq	(%rbx), %rax
	movq	%rbx, %rdi
	movq	$0, 8(%rbx)
	call	*16(%rax)
	movq	(%rbx), %rax
	movq	%rbx, %rdi
	call	*24(%rax)
	jmp	.L1234
	.p2align 4,,10
	.p2align 3
.L1311:
	movq	(%rbx), %rax
	movq	%rbx, %rdi
	movq	$0, 8(%rbx)
	call	*16(%rax)
	movq	(%rbx), %rax
	movq	%rbx, %rdi
	call	*24(%rax)
	jmp	.L1204
	.p2align 4,,10
	.p2align 3
.L1266:
	movl	$-1, %eax
	lock xaddl	%eax, (%rcx)
	jmp	.L1267
	.p2align 4,,10
	.p2align 3
.L1272:
	movl	$-1, %eax
	lock xaddl	%eax, (%rcx)
	jmp	.L1273
	.p2align 4,,10
	.p2align 3
.L1254:
	movl	$-1, %eax
	lock xaddl	%eax, (%rcx)
	jmp	.L1255
	.p2align 4,,10
	.p2align 3
.L1260:
	movl	$-1, %eax
	lock xaddl	%eax, (%rcx)
	jmp	.L1261
	.p2align 4,,10
	.p2align 3
.L1242:
	movl	$-1, %eax
	lock xaddl	%eax, (%rcx)
	jmp	.L1243
	.p2align 4,,10
	.p2align 3
.L1248:
	movl	$-1, %eax
	lock xaddl	%eax, (%rcx)
	jmp	.L1249
	.p2align 4,,10
	.p2align 3
.L1206:
	movl	$-1, %eax
	lock xaddl	%eax, (%rcx)
	jmp	.L1207
	.p2align 4,,10
	.p2align 3
.L1212:
	movl	$-1, %eax
	lock xaddl	%eax, (%rcx)
	jmp	.L1213
	.p2align 4,,10
	.p2align 3
.L1284:
	movl	$-1, %eax
	lock xaddl	%eax, (%rcx)
	jmp	.L1285
	.p2align 4,,10
	.p2align 3
.L1278:
	movl	$-1, %eax
	lock xaddl	%eax, (%rcx)
	jmp	.L1279
	.p2align 4,,10
	.p2align 3
.L1230:
	movl	$-1, %eax
	lock xaddl	%eax, (%rcx)
	jmp	.L1231
	.p2align 4,,10
	.p2align 3
.L1236:
	movl	$-1, %eax
	lock xaddl	%eax, (%rcx)
	jmp	.L1237
	.p2align 4,,10
	.p2align 3
.L1218:
	movl	$-1, %eax
	lock xaddl	%eax, (%rcx)
	jmp	.L1219
	.p2align 4,,10
	.p2align 3
.L1224:
	movl	$-1, %eax
	lock xaddl	%eax, (%rcx)
	jmp	.L1225
.L1312:
	movq	%rbx, %rdi
	call	_ZNSt16_Sp_counted_baseILN9__gnu_cxx12_Lock_policyE2EE24_M_release_last_use_coldEv@PLT
	jmp	.L1204
.L1336:
	movq	%rbx, %rdi
	call	_ZNSt16_Sp_counted_baseILN9__gnu_cxx12_Lock_policyE2EE24_M_release_last_use_coldEv@PLT
	jmp	.L1276
.L1334:
	movq	%rbx, %rdi
	call	_ZNSt16_Sp_counted_baseILN9__gnu_cxx12_Lock_policyE2EE24_M_release_last_use_coldEv@PLT
	jmp	.L1270
.L1332:
	movq	%rbx, %rdi
	call	_ZNSt16_Sp_counted_baseILN9__gnu_cxx12_Lock_policyE2EE24_M_release_last_use_coldEv@PLT
	jmp	.L1264
.L1330:
	movq	%rbx, %rdi
	call	_ZNSt16_Sp_counted_baseILN9__gnu_cxx12_Lock_policyE2EE24_M_release_last_use_coldEv@PLT
	jmp	.L1258
.L1328:
	movq	%rbx, %rdi
	call	_ZNSt16_Sp_counted_baseILN9__gnu_cxx12_Lock_policyE2EE24_M_release_last_use_coldEv@PLT
	jmp	.L1252
.L1326:
	movq	%rbx, %rdi
	call	_ZNSt16_Sp_counted_baseILN9__gnu_cxx12_Lock_policyE2EE24_M_release_last_use_coldEv@PLT
	jmp	.L1246
.L1324:
	movq	%rbx, %rdi
	call	_ZNSt16_Sp_counted_baseILN9__gnu_cxx12_Lock_policyE2EE24_M_release_last_use_coldEv@PLT
	jmp	.L1240
.L1322:
	movq	%rbx, %rdi
	call	_ZNSt16_Sp_counted_baseILN9__gnu_cxx12_Lock_policyE2EE24_M_release_last_use_coldEv@PLT
	jmp	.L1234
.L1320:
	movq	%rbx, %rdi
	call	_ZNSt16_Sp_counted_baseILN9__gnu_cxx12_Lock_policyE2EE24_M_release_last_use_coldEv@PLT
	jmp	.L1228
.L1318:
	movq	%rbx, %rdi
	call	_ZNSt16_Sp_counted_baseILN9__gnu_cxx12_Lock_policyE2EE24_M_release_last_use_coldEv@PLT
	jmp	.L1222
.L1316:
	movq	%rbx, %rdi
	call	_ZNSt16_Sp_counted_baseILN9__gnu_cxx12_Lock_policyE2EE24_M_release_last_use_coldEv@PLT
	jmp	.L1216
.L1314:
	movq	%rbx, %rdi
	call	_ZNSt16_Sp_counted_baseILN9__gnu_cxx12_Lock_policyE2EE24_M_release_last_use_coldEv@PLT
	jmp	.L1210
.L1338:
	movq	%rbx, %rdi
	popq	%rbx
	.cfi_def_cfa_offset 40
	popq	%rbp
	.cfi_def_cfa_offset 32
	popq	%r12
	.cfi_def_cfa_offset 24
	popq	%r13
	.cfi_def_cfa_offset 16
	popq	%r14
	.cfi_def_cfa_offset 8
	jmp	_ZNSt16_Sp_counted_baseILN9__gnu_cxx12_Lock_policyE2EE24_M_release_last_use_coldEv@PLT
	.cfi_endproc
.LFE5015:
	.size	_ZN8opendnp38MContextD2Ev, .-_ZN8opendnp38MContextD2Ev
	.weak	_ZN8opendnp38MContextD1Ev
	.set	_ZN8opendnp38MContextD1Ev,_ZN8opendnp38MContextD2Ev
	.section	.text._ZNSt6vectorISt10shared_ptrIN8opendnp311IMasterTaskEESaIS3_EED2Ev,"axG",@progbits,_ZNSt6vectorISt10shared_ptrIN8opendnp311IMasterTaskEESaIS3_EED5Ev,comdat
	.align 2
	.p2align 4
	.weak	_ZNSt6vectorISt10shared_ptrIN8opendnp311IMasterTaskEESaIS3_EED2Ev
	.type	_ZNSt6vectorISt10shared_ptrIN8opendnp311IMasterTaskEESaIS3_EED2Ev, @function
_ZNSt6vectorISt10shared_ptrIN8opendnp311IMasterTaskEESaIS3_EED2Ev:
.LFB3857:
	.cfi_startproc
	pushq	%r14
	.cfi_def_cfa_offset 16
	.cfi_offset 14, -16
	movq	%rdi, %r14
	pushq	%r13
	.cfi_def_cfa_offset 24
	.cfi_offset 13, -24
	pushq	%r12
	.cfi_def_cfa_offset 32
	.cfi_offset 12, -32
	pushq	%rbp
	.cfi_def_cfa_offset 40
	.cfi_offset 6, -40
	pushq	%rbx
	.cfi_def_cfa_offset 48
	.cfi_offset 3, -48
	movq	8(%rdi), %r12
	movq	(%rdi), %rbx
	cmpq	%rbx, %r12
	je	.L1340
	movabsq	$4294967297, %r13
	jmp	.L1347
	.p2align 4,,10
	.p2align 3
.L1354:
	movl	8(%rbp), %eax
	leal	-1(%rax), %edx
	movl	%edx, 8(%rbp)
	cmpl	$1, %eax
	je	.L1351
.L1342:
	addq	$16, %rbx
	cmpq	%rbx, %r12
	je	.L1352
.L1347:
	movq	8(%rbx), %rbp
	testq	%rbp, %rbp
	je	.L1342
	movq	8(%rbp), %rax
	leaq	8(%rbp), %rdx
	cmpq	%r13, %rax
	je	.L1353
	movq	__libc_single_threaded@GOTPCREL(%rip), %rax
	cmpb	$0, (%rax)
	jne	.L1354
	movl	$-1, %eax
	lock xaddl	%eax, (%rdx)
	cmpl	$1, %eax
	jne	.L1342
.L1351:
	movq	%rbp, %rdi
	addq	$16, %rbx
	call	_ZNSt16_Sp_counted_baseILN9__gnu_cxx12_Lock_policyE2EE24_M_release_last_use_coldEv@PLT
	cmpq	%rbx, %r12
	jne	.L1347
	.p2align 4
	.p2align 3
.L1352:
	movq	(%r14), %rbx
.L1340:
	testq	%rbx, %rbx
	je	.L1339
	movq	16(%r14), %rsi
	movq	%rbx, %rdi
	subq	%rbx, %rsi
	popq	%rbx
	.cfi_remember_state
	.cfi_def_cfa_offset 40
	popq	%rbp
	.cfi_def_cfa_offset 32
	popq	%r12
	.cfi_def_cfa_offset 24
	popq	%r13
	.cfi_def_cfa_offset 16
	popq	%r14
	.cfi_def_cfa_offset 8
	jmp	_ZdlPvm@PLT
	.p2align 4,,10
	.p2align 3
.L1353:
	.cfi_restore_state
	movq	0(%rbp), %rax
	movq	%rbp, %rdi
	movq	$0, 8(%rbp)
	call	*16(%rax)
	movq	0(%rbp), %rax
	movq	%rbp, %rdi
	call	*24(%rax)
	jmp	.L1342
	.p2align 4,,10
	.p2align 3
.L1339:
	popq	%rbx
	.cfi_def_cfa_offset 40
	popq	%rbp
	.cfi_def_cfa_offset 32
	popq	%r12
	.cfi_def_cfa_offset 24
	popq	%r13
	.cfi_def_cfa_offset 16
	popq	%r14
	.cfi_def_cfa_offset 8
	ret
	.cfi_endproc
.LFE3857:
	.size	_ZNSt6vectorISt10shared_ptrIN8opendnp311IMasterTaskEESaIS3_EED2Ev, .-_ZNSt6vectorISt10shared_ptrIN8opendnp311IMasterTaskEESaIS3_EED2Ev
	.weak	_ZNSt6vectorISt10shared_ptrIN8opendnp311IMasterTaskEESaIS3_EED1Ev
	.set	_ZNSt6vectorISt10shared_ptrIN8opendnp311IMasterTaskEESaIS3_EED1Ev,_ZNSt6vectorISt10shared_ptrIN8opendnp311IMasterTaskEESaIS3_EED2Ev
	.section	.text.unlikely
	.align 2
.LCOLDB41:
	.text
.LHOTB41:
	.align 2
	.p2align 4
	.globl	_ZN8opendnp38MContextC2ERKN7openpal6LoggerERKSt10shared_ptrINS1_9IExecutorEERKS5_INS_11ILowerLayerEERKS5_INS_11ISOEHandlerEERKS5_INS_18IMasterApplicationEERKNS_12MasterParamsERNS_9ITaskLockE
	.type	_ZN8opendnp38MContextC2ERKN7openpal6LoggerERKSt10shared_ptrINS1_9IExecutorEERKS5_INS_11ILowerLayerEERKS5_INS_11ISOEHandlerEERKS5_INS_18IMasterApplicationEERKNS_12MasterParamsERNS_9ITaskLockE, @function
_ZN8opendnp38MContextC2ERKN7openpal6LoggerERKSt10shared_ptrINS1_9IExecutorEERKS5_INS_11ILowerLayerEERKS5_INS_11ISOEHandlerEERKS5_INS_18IMasterApplicationEERKNS_12MasterParamsERNS_9ITaskLockE:
.LFB3416:
	.cfi_startproc
	.cfi_personality 0x9b,DW.ref.__gxx_personality_v0
	.cfi_lsda 0x1b,.LLSDA3416
	pushq	%r15
	.cfi_def_cfa_offset 16
	.cfi_offset 15, -16
	movq	%rdx, %r15
	pushq	%r14
	.cfi_def_cfa_offset 24
	.cfi_offset 14, -24
	movq	%rsi, %r14
	pushq	%r13
	.cfi_def_cfa_offset 32
	.cfi_offset 13, -32
	movq	%r9, %r13
	pushq	%r12
	.cfi_def_cfa_offset 40
	.cfi_offset 12, -40
	movq	%r8, %r12
	pushq	%rbp
	.cfi_def_cfa_offset 48
	.cfi_offset 6, -48
	pushq	%rbx
	.cfi_def_cfa_offset 56
	.cfi_offset 3, -56
	movq	%rdi, %rbx
	subq	$40, %rsp
	.cfi_def_cfa_offset 96
	movq	_ZTVN8opendnp38MContextE@GOTPCREL(%rip), %rdx
	movq	96(%rsp), %rbp
	leaq	128(%rdx), %rsi
	leaq	16(%rdx), %rax
	addq	$152, %rdx
	movq	%rdx, 16(%rdi)
	movq	(%r14), %rdx
	movq	%rax, %xmm0
	movq	%rsi, %xmm1
	punpcklqdq	%xmm1, %xmm0
	movq	%rdx, 24(%rdi)
	movq	8(%r14), %rdx
	movups	%xmm0, (%rdi)
	movq	%rdx, 32(%rdi)
	testq	%rdx, %rdx
	je	.L1356
	movq	__libc_single_threaded@GOTPCREL(%rip), %rsi
	cmpb	$0, (%rsi)
	je	.L1357
	addl	$1, 8(%rdx)
.L1356:
	movdqu	16(%r14), %xmm0
	movhlps	%xmm0, %xmm2
	movups	%xmm0, 40(%rbx)
	movq	%xmm2, %rdx
	testq	%rdx, %rdx
	je	.L1358
	movq	__libc_single_threaded@GOTPCREL(%rip), %rsi
	cmpb	$0, (%rsi)
	je	.L1359
	addl	$1, 8(%rdx)
.L1358:
	movdqu	(%r15), %xmm0
	movhlps	%xmm0, %xmm3
	movups	%xmm0, 56(%rbx)
	movq	%xmm3, %rdx
	testq	%rdx, %rdx
	je	.L1360
	movq	__libc_single_threaded@GOTPCREL(%rip), %rsi
	cmpb	$0, (%rsi)
	je	.L1361
	addl	$1, 8(%rdx)
.L1360:
	movdqu	(%rcx), %xmm0
	movhlps	%xmm0, %xmm4
	movups	%xmm0, 72(%rbx)
	movq	%xmm4, %rdx
	testq	%rdx, %rdx
	je	.L1362
	movq	__libc_single_threaded@GOTPCREL(%rip), %rcx
	cmpb	$0, (%rcx)
	je	.L1363
	addl	$1, 8(%rdx)
.L1362:
	movdqu	0(%rbp), %xmm0
	movq	32(%rbp), %rdx
	movups	%xmm0, 88(%rbx)
	movdqu	16(%rbp), %xmm0
	movq	%rdx, 120(%rbx)
	movups	%xmm0, 104(%rbx)
	movdqu	(%r12), %xmm0
	movhlps	%xmm0, %xmm5
	movups	%xmm0, 128(%rbx)
	movq	%xmm5, %rdx
	testq	%rdx, %rdx
	je	.L1364
	movq	__libc_single_threaded@GOTPCREL(%rip), %rcx
	cmpb	$0, (%rcx)
	je	.L1365
	addl	$1, 8(%rdx)
.L1364:
	movdqu	0(%r13), %xmm0
	movhlps	%xmm0, %xmm6
	movups	%xmm0, 144(%rbx)
	movq	%xmm6, %rdx
	testq	%rdx, %rdx
	je	.L1366
	movq	__libc_single_threaded@GOTPCREL(%rip), %rcx
	cmpb	$0, (%rcx)
	je	.L1367
	addl	$1, 8(%rdx)
.L1366:
	movq	104(%rsp), %rdx
	pxor	%xmm0, %xmm0
	movl	$0, 168(%rbx)
	leaq	192(%rbx), %rax
	movups	%xmm0, 176(%rbx)
	movq	(%r15), %rsi
	movq	%rax, %rdi
	movq	%rdx, 160(%rbx)
	movq	%rax, 8(%rsp)
.LEHB58:
	call	_ZN7openpal8TimerRefC1ERNS_9IExecutorE@PLT
.LEHE58:
	leaq	208(%rbx), %rax
	movq	(%r15), %rsi
	movq	%rax, %rdi
	movq	%rax, 16(%rsp)
.LEHB59:
	call	_ZN7openpal8TimerRefC1ERNS_9IExecutorE@PLT
.LEHE59:
	movq	(%r15), %rsi
	leaq	224(%rbx), %rdi
	movq	%rdi, 24(%rsp)
.LEHB60:
	call	_ZN7openpal8TimerRefC1ERNS_9IExecutorE@PLT
.LEHE60:
	movq	0(%r13), %rcx
	movq	(%r12), %r8
	movq	%r14, %rdx
	movq	%rbp, %rsi
	leaq	240(%rbx), %rdi
.LEHB61:
	call	_ZN8opendnp311MasterTasksC1ERKNS_12MasterParamsERKN7openpal6LoggerERNS_18IMasterApplicationERNS_11ISOEHandlerE@PLT
.LEHE61:
	leaq	16(%rbx), %rsi
	leaq	376(%rbx), %rdi
.LEHB62:
	call	_ZN8opendnp315MasterSchedulerC1ERNS_11ITaskFilterE@PLT
.LEHE62:
	movq	$0, 408(%rbx)
	pxor	%xmm0, %xmm0
	movl	$64, %edi
	movq	$8, 416(%rbx)
	movups	%xmm0, 424(%rbx)
	movups	%xmm0, 440(%rbx)
	movups	%xmm0, 456(%rbx)
	movups	%xmm0, 472(%rbx)
.LEHB63:
	call	_Znwm@PLT
.LEHE63:
	movq	%rax, 408(%rbx)
	movl	$510, %edi
	movq	%rax, %r12
	leaq	24(%rax), %r13
.LEHB64:
	call	_Znwm@PLT
.LEHE64:
	leaq	510(%rax), %rdx
	movq	%rax, %xmm0
	movq	%rax, 24(%r12)
	movl	32(%rbp), %esi
	movq	%r13, 448(%rbx)
	punpcklqdq	%xmm0, %xmm0
	leaq	488(%rbx), %rdi
	movq	%rdx, 440(%rbx)
	movq	%r13, 480(%rbx)
	movq	%rax, 464(%rbx)
	movq	%rdx, 472(%rbx)
	movq	%rax, 456(%rbx)
	movups	%xmm0, 424(%rbx)
.LEHB65:
	call	_ZN7openpal6BufferC1Ej@PLT
.LEHE65:
	movl	$0, 512(%rbx)
	addq	$40, %rsp
	.cfi_remember_state
	.cfi_def_cfa_offset 56
	popq	%rbx
	.cfi_def_cfa_offset 48
	popq	%rbp
	.cfi_def_cfa_offset 40
	popq	%r12
	.cfi_def_cfa_offset 32
	popq	%r13
	.cfi_def_cfa_offset 24
	popq	%r14
	.cfi_def_cfa_offset 16
	popq	%r15
	.cfi_def_cfa_offset 8
	ret
	.p2align 4,,10
	.p2align 3
.L1357:
	.cfi_restore_state
	lock addl	$1, 8(%rdx)
	jmp	.L1356
	.p2align 4,,10
	.p2align 3
.L1361:
	lock addl	$1, 8(%rdx)
	jmp	.L1360
	.p2align 4,,10
	.p2align 3
.L1359:
	lock addl	$1, 8(%rdx)
	jmp	.L1358
	.p2align 4,,10
	.p2align 3
.L1365:
	lock addl	$1, 8(%rdx)
	jmp	.L1364
	.p2align 4,,10
	.p2align 3
.L1363:
	lock addl	$1, 8(%rdx)
	jmp	.L1362
	.p2align 4,,10
	.p2align 3
.L1367:
	lock addl	$1, 8(%rdx)
	jmp	.L1366
.L1393:
	movq	%rax, %rbp
	jmp	.L1373
.L1387:
	movq	%rax, %rbp
	jmp	.L1381
.L1395:
	jmp	.L1369
.L1389:
	movq	%rax, %rbp
	jmp	.L1379
.L1391:
	movq	%rax, %rbp
	jmp	.L1377
.L1390:
	movq	%rax, %rbp
	jmp	.L1378
.L1392:
	movq	%rax, %rbp
	jmp	.L1372
.L1388:
	movq	%rax, %rbp
	jmp	.L1380
	.section	.gcc_except_table
	.align 4
.LLSDA3416:
	.byte	0xff
	.byte	0x9b
	.uleb128 .LLSDATT3416-.LLSDATTD3416
.LLSDATTD3416:
	.byte	0x1
	.uleb128 .LLSDACSE3416-.LLSDACSB3416
.LLSDACSB3416:
	.uleb128 .LEHB58-.LFB3416
	.uleb128 .LEHE58-.LEHB58
	.uleb128 .L1387-.LFB3416
	.uleb128 0
	.uleb128 .LEHB59-.LFB3416
	.uleb128 .LEHE59-.LEHB59
	.uleb128 .L1388-.LFB3416
	.uleb128 0
	.uleb128 .LEHB60-.LFB3416
	.uleb128 .LEHE60-.LEHB60
	.uleb128 .L1389-.LFB3416
	.uleb128 0
	.uleb128 .LEHB61-.LFB3416
	.uleb128 .LEHE61-.LEHB61
	.uleb128 .L1390-.LFB3416
	.uleb128 0
	.uleb128 .LEHB62-.LFB3416
	.uleb128 .LEHE62-.LEHB62
	.uleb128 .L1391-.LFB3416
	.uleb128 0
	.uleb128 .LEHB63-.LFB3416
	.uleb128 .LEHE63-.LEHB63
	.uleb128 .L1392-.LFB3416
	.uleb128 0
	.uleb128 .LEHB64-.LFB3416
	.uleb128 .LEHE64-.LEHB64
	.uleb128 .L1395-.LFB3416
	.uleb128 0x1
	.uleb128 .LEHB65-.LFB3416
	.uleb128 .LEHE65-.LEHB65
	.uleb128 .L1393-.LFB3416
	.uleb128 0
.LLSDACSE3416:
	.byte	0x1
	.byte	0
	.align 4
	.long	0

.LLSDATT3416:
	.text
	.cfi_endproc
	.section	.text.unlikely
	.cfi_startproc
	.cfi_personality 0x9b,DW.ref.__gxx_personality_v0
	.cfi_lsda 0x1b,.LLSDAC3416
	.type	_ZN8opendnp38MContextC2ERKN7openpal6LoggerERKSt10shared_ptrINS1_9IExecutorEERKS5_INS_11ILowerLayerEERKS5_INS_11ISOEHandlerEERKS5_INS_18IMasterApplicationEERKNS_12MasterParamsERNS_9ITaskLockE.cold, @function
_ZN8opendnp38MContextC2ERKN7openpal6LoggerERKSt10shared_ptrINS1_9IExecutorEERKS5_INS_11ILowerLayerEERKS5_INS_11ISOEHandlerEERKS5_INS_18IMasterApplicationEERKNS_12MasterParamsERNS_9ITaskLockE.cold:
.LFSB3416:
.L1373:
	.cfi_def_cfa_offset 96
	.cfi_offset 3, -56
	.cfi_offset 6, -48
	.cfi_offset 12, -40
	.cfi_offset 13, -32
	.cfi_offset 14, -24
	.cfi_offset 15, -16
	cmpq	$0, 408(%rbx)
	je	.L1372
	movq	480(%rbx), %rax
	movq	448(%rbx), %r12
	leaq	8(%rax), %r13
.L1375:
	cmpq	%r13, %r12
	jnb	.L1433
	movq	(%r12), %rdi
	movl	$510, %esi
	addq	$8, %r12
	call	_ZdlPvm@PLT
	jmp	.L1375
.L1394:
	movq	%rax, %rbp
	call	__cxa_end_catch@PLT
.L1372:
	leaq	384(%rbx), %rdi
	call	_ZNSt6vectorISt10shared_ptrIN8opendnp311IMasterTaskEESaIS3_EED1Ev@PLT
.L1377:
	leaq	240(%rbx), %rdi
	call	_ZN8opendnp311MasterTasksD1Ev@PLT
.L1378:
	movq	24(%rsp), %rdi
	call	_ZN7openpal8TimerRefD1Ev@PLT
.L1379:
	movq	16(%rsp), %rdi
	call	_ZN7openpal8TimerRefD1Ev@PLT
.L1380:
	movq	8(%rsp), %rdi
	call	_ZN7openpal8TimerRefD1Ev@PLT
.L1381:
	movq	184(%rbx), %rdi
	testq	%rdi, %rdi
	je	.L1382
	call	_ZNSt16_Sp_counted_baseILN9__gnu_cxx12_Lock_policyE2EE10_M_releaseEv@PLT
.L1382:
	movq	152(%rbx), %rdi
	testq	%rdi, %rdi
	je	.L1383
	call	_ZNSt16_Sp_counted_baseILN9__gnu_cxx12_Lock_policyE2EE10_M_releaseEv@PLT
.L1383:
	movq	136(%rbx), %rdi
	testq	%rdi, %rdi
	je	.L1384
	call	_ZNSt16_Sp_counted_baseILN9__gnu_cxx12_Lock_policyE2EE10_M_releaseEv@PLT
.L1384:
	movq	80(%rbx), %rdi
	testq	%rdi, %rdi
	je	.L1385
	call	_ZNSt16_Sp_counted_baseILN9__gnu_cxx12_Lock_policyE2EE10_M_releaseEv@PLT
.L1385:
	movq	64(%rbx), %rdi
	testq	%rdi, %rdi
	je	.L1386
	call	_ZNSt16_Sp_counted_baseILN9__gnu_cxx12_Lock_policyE2EE10_M_releaseEv@PLT
.L1386:
	leaq	24(%rbx), %rdi
	call	_ZN7openpal6LoggerD1Ev@PLT
	movq	%rbp, %rdi
.LEHB66:
	call	_Unwind_Resume@PLT
.LEHE66:
.L1369:
	movq	%rax, %rdi
	call	__cxa_begin_catch@PLT
.LEHB67:
	call	__cxa_rethrow@PLT
.LEHE67:
.L1433:
	movq	416(%rbx), %rax
	movq	408(%rbx), %rdi
	leaq	0(,%rax,8), %rsi
	call	_ZdlPvm@PLT
	jmp	.L1372
.L1396:
	movq	%rax, %rbp
	call	__cxa_end_catch@PLT
	movq	%rbp, %rdi
	call	__cxa_begin_catch@PLT
	movq	416(%rbx), %rax
	movq	408(%rbx), %rdi
	leaq	0(,%rax,8), %rsi
	call	_ZdlPvm@PLT
	xorl	%eax, %eax
	movq	%rax, 408(%rbx)
	movq	%rax, 416(%rbx)
.LEHB68:
	call	__cxa_rethrow@PLT
.LEHE68:
	.cfi_endproc
.LFE3416:
	.section	.gcc_except_table
	.align 4
.LLSDAC3416:
	.byte	0xff
	.byte	0x9b
	.uleb128 .LLSDATTC3416-.LLSDATTDC3416
.LLSDATTDC3416:
	.byte	0x1
	.uleb128 .LLSDACSEC3416-.LLSDACSBC3416
.LLSDACSBC3416:
	.uleb128 .LEHB66-.LCOLDB41
	.uleb128 .LEHE66-.LEHB66
	.uleb128 0
	.uleb128 0
	.uleb128 .LEHB67-.LCOLDB41
	.uleb128 .LEHE67-.LEHB67
	.uleb128 .L1396-.LCOLDB41
	.uleb128 0x1
	.uleb128 .LEHB68-.LCOLDB41
	.uleb128 .LEHE68-.LEHB68
	.uleb128 .L1394-.LCOLDB41
	.uleb128 0
.LLSDACSEC3416:
	.byte	0x1
	.byte	0
	.align 4
	.long	0

.LLSDATTC3416:
	.section	.text.unlikely
	.text
	.size	_ZN8opendnp38MContextC2ERKN7openpal6LoggerERKSt10shared_ptrINS1_9IExecutorEERKS5_INS_11ILowerLayerEERKS5_INS_11ISOEHandlerEERKS5_INS_18IMasterApplicationEERKNS_12MasterParamsERNS_9ITaskLockE, .-_ZN8opendnp38MContextC2ERKN7openpal6LoggerERKSt10shared_ptrINS1_9IExecutorEERKS5_INS_11ILowerLayerEERKS5_INS_11ISOEHandlerEERKS5_INS_18IMasterApplicationEERKNS_12MasterParamsERNS_9ITaskLockE
	.section	.text.unlikely
	.size	_ZN8opendnp38MContextC2ERKN7openpal6LoggerERKSt10shared_ptrINS1_9IExecutorEERKS5_INS_11ILowerLayerEERKS5_INS_11ISOEHandlerEERKS5_INS_18IMasterApplicationEERKNS_12MasterParamsERNS_9ITaskLockE.cold, .-_ZN8opendnp38MContextC2ERKN7openpal6LoggerERKSt10shared_ptrINS1_9IExecutorEERKS5_INS_11ILowerLayerEERKS5_INS_11ISOEHandlerEERKS5_INS_18IMasterApplicationEERKNS_12MasterParamsERNS_9ITaskLockE.cold
.LCOLDE41:
	.text
.LHOTE41:
	.globl	_ZN8opendnp38MContextC1ERKN7openpal6LoggerERKSt10shared_ptrINS1_9IExecutorEERKS5_INS_11ILowerLayerEERKS5_INS_11ISOEHandlerEERKS5_INS_18IMasterApplicationEERKNS_12MasterParamsERNS_9ITaskLockE
	.set	_ZN8opendnp38MContextC1ERKN7openpal6LoggerERKSt10shared_ptrINS1_9IExecutorEERKS5_INS_11ILowerLayerEERKS5_INS_11ISOEHandlerEERKS5_INS_18IMasterApplicationEERKNS_12MasterParamsERNS_9ITaskLockE,_ZN8opendnp38MContextC2ERKN7openpal6LoggerERKSt10shared_ptrINS1_9IExecutorEERKS5_INS_11ILowerLayerEERKS5_INS_11ISOEHandlerEERKS5_INS_18IMasterApplicationEERKNS_12MasterParamsERNS_9ITaskLockE
	.section	.text._ZNSt5dequeIN8opendnp310APDUHeaderESaIS1_EE17_M_reallocate_mapEmb,"axG",@progbits,_ZNSt5dequeIN8opendnp310APDUHeaderESaIS1_EE17_M_reallocate_mapEmb,comdat
	.align 2
	.p2align 4
	.weak	_ZNSt5dequeIN8opendnp310APDUHeaderESaIS1_EE17_M_reallocate_mapEmb
	.type	_ZNSt5dequeIN8opendnp310APDUHeaderESaIS1_EE17_M_reallocate_mapEmb, @function
_ZNSt5dequeIN8opendnp310APDUHeaderESaIS1_EE17_M_reallocate_mapEmb:
.LFB4608:
	.cfi_startproc
	pushq	%r15
	.cfi_def_cfa_offset 16
	.cfi_offset 15, -16
	movl	%edx, %r8d
	movq	%rsi, %rcx
	pushq	%r14
	.cfi_def_cfa_offset 24
	.cfi_offset 14, -24
	pushq	%r13
	.cfi_def_cfa_offset 32
	.cfi_offset 13, -32
	pushq	%r12
	.cfi_def_cfa_offset 40
	.cfi_offset 12, -40
	movq	%rdi, %r12
	pushq	%rbp
	.cfi_def_cfa_offset 48
	.cfi_offset 6, -48
	pushq	%rbx
	.cfi_def_cfa_offset 56
	.cfi_offset 3, -56
	subq	$56, %rsp
	.cfi_def_cfa_offset 112
	movq	72(%rdi), %rdx
	movq	40(%rdi), %rsi
	movq	8(%rdi), %rbp
	movq	%rdx, %r13
	subq	%rsi, %r13
	movq	%r13, %rax
	sarq	$3, %rax
	leaq	1(%rax,%rcx), %r9
	leaq	(%r9,%r9), %rax
	cmpq	%rbp, %rax
	jnb	.L1435
	subq	%r9, %rbp
	movq	(%rdi), %rbx
	shrq	%rbp
	salq	$3, %rbp
	testb	%r8b, %r8b
	leaq	0(%rbp,%rcx,8), %rax
	cmovne	%rax, %rbp
	addq	$8, %rdx
	subq	%rsi, %rdx
	addq	%rbp, %rbx
	cmpq	%rsi, %rbx
	jnb	.L1437
	cmpq	$8, %rdx
	jle	.L1438
	movq	%rbx, %rdi
	call	memmove@PLT
	movq	(%rbx), %rax
	jmp	.L1439
	.p2align 4,,10
	.p2align 3
.L1435:
	cmpq	%rcx, %rbp
	movq	%rcx, %rax
	movq	%rsi, 24(%rsp)
	cmovnb	%rbp, %rax
	movq	%rdx, 16(%rsp)
	movq	%rcx, 8(%rsp)
	leaq	2(%rbp,%rax), %r14
	movl	%r8d, 44(%rsp)
	leaq	0(,%r14,8), %rdi
	movq	%r9, 32(%rsp)
	movq	%r14, %rbx
	call	_Znwm@PLT
	subq	32(%rsp), %rbx
	movq	8(%rsp), %rcx
	shrq	%rbx
	movq	16(%rsp), %rdx
	movq	%rax, %r15
	movq	24(%rsp), %rsi
	salq	$3, %rbx
	cmpb	$0, 44(%rsp)
	leaq	(%rbx,%rcx,8), %rax
	cmovne	%rax, %rbx
	addq	$8, %rdx
	subq	%rsi, %rdx
	addq	%r15, %rbx
	cmpq	$8, %rdx
	jle	.L1444
	movq	%rbx, %rdi
	call	memmove@PLT
.L1445:
	movq	(%r12), %rdi
	leaq	0(,%rbp,8), %rsi
	call	_ZdlPvm@PLT
	movq	%r15, (%r12)
	movq	%r14, 8(%r12)
.L1447:
	movq	(%rbx), %rax
.L1439:
	movq	%rax, 24(%r12)
	addq	$510, %rax
	movq	%rbx, 40(%r12)
	addq	%r13, %rbx
	movq	%rax, 32(%r12)
	movq	(%rbx), %rax
	movq	%rbx, 72(%r12)
	leaq	510(%rax), %rdx
	movq	%rax, %xmm0
	movq	%rdx, %xmm1
	punpcklqdq	%xmm1, %xmm0
	movups	%xmm0, 56(%r12)
	addq	$56, %rsp
	.cfi_remember_state
	.cfi_def_cfa_offset 56
	popq	%rbx
	.cfi_def_cfa_offset 48
	popq	%rbp
	.cfi_def_cfa_offset 40
	popq	%r12
	.cfi_def_cfa_offset 32
	popq	%r13
	.cfi_def_cfa_offset 24
	popq	%r14
	.cfi_def_cfa_offset 16
	popq	%r15
	.cfi_def_cfa_offset 8
	ret
	.p2align 4,,10
	.p2align 3
.L1437:
	.cfi_restore_state
	movq	%rdx, %rax
	salq	$61, %rax
	subq	%rdx, %rax
	leaq	8(%r13,%rax), %rdi
	addq	%rbx, %rdi
	cmpq	$8, %rdx
	jle	.L1441
	call	memmove@PLT
	movq	(%rbx), %rax
	jmp	.L1439
	.p2align 4,,10
	.p2align 3
.L1444:
	jne	.L1445
	movq	(%rsi), %rax
	movq	%rax, (%rbx)
	jmp	.L1445
	.p2align 4,,10
	.p2align 3
.L1441:
	jne	.L1447
	movq	(%rsi), %rax
	movq	%rax, (%rdi)
	movq	(%rbx), %rax
	jmp	.L1439
	.p2align 4,,10
	.p2align 3
.L1438:
	jne	.L1447
	movq	(%rsi), %rax
	movq	%rax, (%rbx)
	jmp	.L1439
	.cfi_endproc
.LFE4608:
	.size	_ZNSt5dequeIN8opendnp310APDUHeaderESaIS1_EE17_M_reallocate_mapEmb, .-_ZNSt5dequeIN8opendnp310APDUHeaderESaIS1_EE17_M_reallocate_mapEmb
	.section	.rodata.str1.8
	.align 8
.LC42:
	.string	"cannot create std::deque larger than max_size()"
	.section	.text.unlikely
	.align 2
.LCOLDB43:
	.text
.LHOTB43:
	.align 2
	.p2align 4
	.globl	_ZN8opendnp38MContext12QueueConfirmERKNS_10APDUHeaderE
	.type	_ZN8opendnp38MContext12QueueConfirmERKNS_10APDUHeaderE, @function
_ZN8opendnp38MContext12QueueConfirmERKNS_10APDUHeaderE:
.LFB3432:
	.cfi_startproc
	movq	%rsi, %r8
	movq	472(%rdi), %rsi
	movq	456(%rdi), %rax
	movq	%rdi, %rcx
	leaq	-6(%rsi), %rdx
	cmpq	%rdx, %rax
	je	.L1449
	movl	(%r8), %edx
	addq	$6, %rax
	movl	%edx, -6(%rax)
	movzwl	4(%r8), %edx
	movw	%dx, -2(%rax)
	movq	%rax, 456(%rdi)
	jmp	_ZN8opendnp38MContext20CheckConfirmTransmitEv@PLT
	.p2align 4,,10
	.p2align 3
.L1449:
	subq	$40, %rsp
	.cfi_def_cfa_offset 48
	movq	480(%rdi), %rsi
	movq	%rsi, %rdx
	subq	448(%rdi), %rdx
	sarq	$3, %rdx
	cmpq	$1, %rsi
	adcq	$-1, %rdx
	subq	464(%rdi), %rax
	movabsq	$-6148914691236517205, %rdi
	sarq	%rax
	imulq	$85, %rdx, %rdx
	imulq	%rdi, %rax
	addq	%rdx, %rax
	movq	440(%rcx), %rdx
	subq	424(%rcx), %rdx
	sarq	%rdx
	imulq	%rdi, %rdx
	addq	%rdx, %rax
	movabsq	$1537228672809129301, %rdx
	cmpq	%rdx, %rax
	je	.L1453
	movq	416(%rcx), %rax
	movq	%rsi, %rdx
	subq	408(%rcx), %rdx
	sarq	$3, %rdx
	subq	%rdx, %rax
	cmpq	$1, %rax
	jbe	.L1457
.L1452:
	movl	$510, %edi
	movq	%r8, 24(%rsp)
	movq	%rcx, 16(%rsp)
	movq	%rsi, 8(%rsp)
	call	_Znwm@PLT
	movq	16(%rsp), %rcx
	movq	8(%rsp), %rsi
	movq	24(%rsp), %r8
	movq	%rax, 8(%rsi)
	movq	456(%rcx), %rdx
	addq	$8, %rsi
	movl	(%r8), %edi
	movl	%edi, (%rdx)
	movzwl	4(%r8), %edi
	movw	%di, 4(%rdx)
	leaq	510(%rax), %rdx
	movq	%rcx, %rdi
	movq	%rsi, 480(%rcx)
	movq	%rax, 464(%rcx)
	movq	%rdx, 472(%rcx)
	movq	%rax, 456(%rcx)
	addq	$40, %rsp
	.cfi_remember_state
	.cfi_def_cfa_offset 8
	jmp	_ZN8opendnp38MContext20CheckConfirmTransmitEv@PLT
	.p2align 4,,10
	.p2align 3
.L1457:
	.cfi_restore_state
	leaq	408(%rcx), %rdi
	movl	$1, %esi
	xorl	%edx, %edx
	movq	%r8, 16(%rsp)
	movq	%rcx, 8(%rsp)
	call	_ZNSt5dequeIN8opendnp310APDUHeaderESaIS1_EE17_M_reallocate_mapEmb@PLT
	movq	8(%rsp), %rcx
	movq	16(%rsp), %r8
	movq	480(%rcx), %rsi
	jmp	.L1452
	.cfi_endproc
	.section	.text.unlikely
	.cfi_startproc
	.type	_ZN8opendnp38MContext12QueueConfirmERKNS_10APDUHeaderE.cold, @function
_ZN8opendnp38MContext12QueueConfirmERKNS_10APDUHeaderE.cold:
.LFSB3432:
.L1453:
	.cfi_def_cfa_offset 48
	leaq	.LC42(%rip), %rdi
	call	_ZSt20__throw_length_errorPKc@PLT
	.cfi_endproc
.LFE3432:
	.text
	.size	_ZN8opendnp38MContext12QueueConfirmERKNS_10APDUHeaderE, .-_ZN8opendnp38MContext12QueueConfirmERKNS_10APDUHeaderE
	.section	.text.unlikely
	.size	_ZN8opendnp38MContext12QueueConfirmERKNS_10APDUHeaderE.cold, .-_ZN8opendnp38MContext12QueueConfirmERKNS_10APDUHeaderE.cold
.LCOLDE43:
	.text
.LHOTE43:
	.section	.rodata.str1.8
	.align 8
.LC44:
	.string	"Ignoring unsolicited response without UNS bit set"
	.align 8
.LC45:
	.string	"/opt/PLC/OpenPLC_v3/utils/dnp3_src/cpp/libs/src/opendnp3/master/MasterContext.cpp(266)"
	.text
	.align 2
	.p2align 4
	.globl	_ZN8opendnp38MContext26ProcessUnsolicitedResponseERKNS_18APDUResponseHeaderERKN7openpal6RSliceE
	.type	_ZN8opendnp38MContext26ProcessUnsolicitedResponseERKNS_18APDUResponseHeaderERKN7openpal6RSliceE, @function
_ZN8opendnp38MContext26ProcessUnsolicitedResponseERKNS_18APDUResponseHeaderERKN7openpal6RSliceE:
.LFB3430:
	.cfi_startproc
	pushq	%rbp
	.cfi_def_cfa_offset 16
	.cfi_offset 6, -16
	movq	%rdi, %rbp
	pushq	%rbx
	.cfi_def_cfa_offset 24
	.cfi_offset 3, -24
	subq	$24, %rsp
	.cfi_def_cfa_offset 48
	cmpb	$0, 4(%rsi)
	je	.L1466
	movq	%rdx, %rdi
	movq	128(%rbp), %rdx
	movq	%rsi, %rbx
	leaq	24(%rbp), %rsi
	call	_ZN8opendnp318MeasurementHandler19ProcessMeasurementsERKN7openpal6RSliceERNS1_6LoggerEPNS_11ISOEHandlerE@PLT
	testb	%al, %al
	jne	.L1461
	cmpb	$0, 3(%rbx)
	jne	.L1467
.L1461:
	addq	$24, %rsp
	.cfi_remember_state
	.cfi_def_cfa_offset 24
	leaq	6(%rbx), %rsi
	movq	%rbp, %rdi
	popq	%rbx
	.cfi_def_cfa_offset 16
	popq	%rbp
	.cfi_def_cfa_offset 8
	jmp	_ZN8opendnp38MContext10ProcessIINERKNS_8IINFieldE@PLT
	.p2align 4,,10
	.p2align 3
.L1466:
	.cfi_restore_state
	addq	$24, %rbp
	leaq	8(%rsp), %rsi
	movl	$4, 8(%rsp)
	movq	%rbp, %rdi
	call	_ZNK7openpal6Logger9IsEnabledERKNS_10LogFiltersE@PLT
	testb	%al, %al
	jne	.L1468
	addq	$24, %rsp
	.cfi_remember_state
	.cfi_def_cfa_offset 24
	popq	%rbx
	.cfi_def_cfa_offset 16
	popq	%rbp
	.cfi_def_cfa_offset 8
	ret
	.p2align 4,,10
	.p2align 3
.L1467:
	.cfi_restore_state
	movzbl	5(%rbx), %edi
	call	_ZN8opendnp310APDUHeader18UnsolicitedConfirmEh@PLT
	leaq	8(%rsp), %rsi
	movq	%rbp, %rdi
	movq	%rax, %rdx
	movb	%al, 8(%rsp)
	shrq	$16, %rdx
	movb	%ah, 9(%rsp)
	movb	%dl, 10(%rsp)
	movq	%rax, %rdx
	shrq	$24, %rdx
	movb	%dl, 11(%rsp)
	movq	%rax, %rdx
	shrq	$40, %rax
	shrq	$32, %rdx
	movb	%al, 13(%rsp)
	movb	%dl, 12(%rsp)
	call	_ZN8opendnp38MContext12QueueConfirmERKNS_10APDUHeaderE@PLT
	jmp	.L1461
	.p2align 4,,10
	.p2align 3
.L1468:
	leaq	8(%rsp), %rsi
	movq	%rbp, %rdi
	leaq	.LC44(%rip), %rcx
	movl	$4, 8(%rsp)
	leaq	.LC45(%rip), %rdx
	call	_ZN7openpal6Logger3LogERKNS_10LogFiltersEPKcS5_@PLT
	addq	$24, %rsp
	.cfi_def_cfa_offset 24
	popq	%rbx
	.cfi_def_cfa_offset 16
	popq	%rbp
	.cfi_def_cfa_offset 8
	ret
	.cfi_endproc
.LFE3430:
	.size	_ZN8opendnp38MContext26ProcessUnsolicitedResponseERKNS_18APDUResponseHeaderERKN7openpal6RSliceE, .-_ZN8opendnp38MContext26ProcessUnsolicitedResponseERKNS_18APDUResponseHeaderERKN7openpal6RSliceE
	.section	.rodata.str1.8
	.align 8
.LC46:
	.string	"Response with bad sequence: %u"
	.align 8
.LC47:
	.string	"/opt/PLC/OpenPLC_v3/utils/dnp3_src/cpp/libs/src/opendnp3/master/MasterContext.cpp(589)"
	.text
	.align 2
	.p2align 4
	.globl	_ZN8opendnp38MContext26OnResponse_WaitForResponseERKNS_18APDUResponseHeaderERKN7openpal6RSliceE
	.type	_ZN8opendnp38MContext26OnResponse_WaitForResponseERKNS_18APDUResponseHeaderERKN7openpal6RSliceE, @function
_ZN8opendnp38MContext26OnResponse_WaitForResponseERKNS_18APDUResponseHeaderERKN7openpal6RSliceE:
.LFB3510:
	.cfi_startproc
	pushq	%r14
	.cfi_def_cfa_offset 16
	.cfi_offset 14, -16
	pushq	%rbp
	.cfi_def_cfa_offset 24
	.cfi_offset 6, -24
	movq	%rsi, %rbp
	pushq	%rbx
	.cfi_def_cfa_offset 32
	.cfi_offset 3, -32
	movq	%rdi, %rbx
	subq	$160, %rsp
	.cfi_def_cfa_offset 192
	movzbl	170(%rdi), %eax
	cmpb	%al, 5(%rsi)
	jne	.L1480
	leaq	192(%rdi), %rdi
	movq	%rdx, 8(%rsp)
	call	_ZN7openpal8TimerRef6CancelEv@PLT
	movzbl	170(%rbx), %eax
	movq	56(%rbx), %rdi
	addl	$1, %eax
	andl	$15, %eax
	movb	%al, 170(%rbx)
	movq	(%rdi), %rax
	call	*16(%rax)
	movq	8(%rsp), %rdx
	movq	176(%rbx), %rdi
	movq	%rbp, %rsi
	movq	%rax, %rcx
	call	_ZN8opendnp311IMasterTask10OnResponseERKNS_18APDUResponseHeaderERKN7openpal6RSliceENS4_18MonotonicTimestampE@PLT
	movl	%eax, %edx
	cmpb	$0, 3(%rbp)
	jne	.L1481
	movq	%rbx, %rdi
	cmpb	$3, %dl
	je	.L1473
.L1482:
	cmpb	$4, %dl
	jne	.L1474
	call	_ZN8opendnp38MContext18StartResponseTimerEv@PLT
.L1471:
	addq	$160, %rsp
	.cfi_remember_state
	.cfi_def_cfa_offset 32
	movl	$2, %eax
	popq	%rbx
	.cfi_def_cfa_offset 24
	popq	%rbp
	.cfi_def_cfa_offset 16
	popq	%r14
	.cfi_def_cfa_offset 8
	ret
	.p2align 4,,10
	.p2align 3
.L1473:
	.cfi_restore_state
	addq	$160, %rsp
	.cfi_remember_state
	.cfi_def_cfa_offset 32
	popq	%rbx
	.cfi_def_cfa_offset 24
	popq	%rbp
	.cfi_def_cfa_offset 16
	popq	%r14
	.cfi_def_cfa_offset 8
	jmp	_ZN8opendnp38MContext19StartTask_TaskReadyEv@PLT
	.p2align 4,,10
	.p2align 3
.L1481:
	.cfi_restore_state
	movzbl	5(%rbp), %edi
	movb	%al, 8(%rsp)
	call	_ZN8opendnp310APDUHeader16SolicitedConfirmEh@PLT
	movq	%rbx, %rdi
	leaq	32(%rsp), %rsi
	movq	%rax, %rcx
	movb	%al, 32(%rsp)
	shrq	$16, %rcx
	movb	%ah, 33(%rsp)
	movb	%cl, 34(%rsp)
	movq	%rax, %rcx
	shrq	$24, %rcx
	movb	%cl, 35(%rsp)
	movq	%rax, %rcx
	shrq	$40, %rax
	shrq	$32, %rcx
	movb	%al, 37(%rsp)
	movb	%cl, 36(%rsp)
	call	_ZN8opendnp38MContext12QueueConfirmERKNS_10APDUHeaderE@PLT
	movzbl	8(%rsp), %edx
	movq	%rbx, %rdi
	cmpb	$3, %dl
	jne	.L1482
	jmp	.L1473
	.p2align 4,,10
	.p2align 3
.L1480:
	leaq	24(%rdi), %r14
	leaq	32(%rsp), %rsi
	movl	$4, 32(%rsp)
	leaq	24(%rdi), %rdi
	call	_ZNK7openpal6Logger9IsEnabledERKNS_10LogFiltersE@PLT
	testb	%al, %al
	je	.L1471
	movzbl	5(%rbp), %ecx
	leaq	32(%rsp), %rdi
	movl	$120, %esi
	xorl	%eax, %eax
	leaq	.LC46(%rip), %rdx
	call	snprintf@PLT
	leaq	28(%rsp), %rsi
	leaq	32(%rsp), %rcx
	movq	%r14, %rdi
	leaq	.LC47(%rip), %rdx
	movl	$4, 28(%rsp)
	call	_ZN7openpal6Logger3LogERKNS_10LogFiltersEPKcS5_@PLT
	jmp	.L1471
	.p2align 4,,10
	.p2align 3
.L1474:
	call	_ZN8opendnp38MContext18CompleteActiveTaskEv@PLT
	addq	$160, %rsp
	.cfi_def_cfa_offset 32
	xorl	%eax, %eax
	popq	%rbx
	.cfi_def_cfa_offset 24
	popq	%rbp
	.cfi_def_cfa_offset 16
	popq	%r14
	.cfi_def_cfa_offset 8
	ret
	.cfi_endproc
.LFE3510:
	.size	_ZN8opendnp38MContext26OnResponse_WaitForResponseERKNS_18APDUResponseHeaderERKN7openpal6RSliceE, .-_ZN8opendnp38MContext26OnResponse_WaitForResponseERKNS_18APDUResponseHeaderERKN7openpal6RSliceE
	.section	.rodata.str1.8
	.align 8
.LC48:
	.string	"Not expecting a response, sequence: %u"
	.align 8
.LC49:
	.string	"/opt/PLC/OpenPLC_v3/utils/dnp3_src/cpp/libs/src/opendnp3/master/MasterContext.cpp(515)"
	.text
	.align 2
	.p2align 4
	.globl	_ZN8opendnp38MContext15OnResponseEventERKNS_18APDUResponseHeaderERKN7openpal6RSliceE
	.type	_ZN8opendnp38MContext15OnResponseEventERKNS_18APDUResponseHeaderERKN7openpal6RSliceE, @function
_ZN8opendnp38MContext15OnResponseEventERKNS_18APDUResponseHeaderERKN7openpal6RSliceE:
.LFB3504:
	.cfi_startproc
	cmpl	$2, 512(%rdi)
	je	.L1491
	pushq	%r14
	.cfi_def_cfa_offset 16
	.cfi_offset 14, -16
	movq	%rsi, %r14
	pushq	%r12
	.cfi_def_cfa_offset 24
	.cfi_offset 12, -24
	pushq	%rbp
	.cfi_def_cfa_offset 32
	.cfi_offset 6, -32
	pushq	%rbx
	.cfi_def_cfa_offset 40
	.cfi_offset 3, -40
	movq	%rdi, %rbx
	leaq	24(%rdi), %rdi
	subq	$152, %rsp
	.cfi_def_cfa_offset 192
	leaq	16(%rsp), %rbp
	movl	$4, 16(%rsp)
	movq	%rbp, %rsi
	call	_ZNK7openpal6Logger9IsEnabledERKNS_10LogFiltersE@PLT
	testb	%al, %al
	jne	.L1492
.L1485:
	movl	512(%rbx), %eax
	addq	$152, %rsp
	.cfi_remember_state
	.cfi_def_cfa_offset 40
	popq	%rbx
	.cfi_def_cfa_offset 32
	popq	%rbp
	.cfi_def_cfa_offset 24
	popq	%r12
	.cfi_def_cfa_offset 16
	popq	%r14
	.cfi_def_cfa_offset 8
	ret
	.p2align 4,,10
	.p2align 3
.L1492:
	.cfi_restore_state
	movzbl	5(%r14), %ecx
	movq	%rbp, %rdi
	movl	$120, %esi
	xorl	%eax, %eax
	leaq	.LC48(%rip), %rdx
	call	snprintf@PLT
	leaq	12(%rsp), %rsi
	movq	%rbp, %rcx
	leaq	24(%rbx), %rdi
	leaq	.LC49(%rip), %rdx
	movl	$4, 12(%rsp)
	call	_ZN7openpal6Logger3LogERKNS_10LogFiltersEPKcS5_@PLT
	jmp	.L1485
	.p2align 4,,10
	.p2align 3
.L1491:
	.cfi_def_cfa_offset 8
	.cfi_restore 3
	.cfi_restore 6
	.cfi_restore 12
	.cfi_restore 14
	jmp	_ZN8opendnp38MContext26OnResponse_WaitForResponseERKNS_18APDUResponseHeaderERKN7openpal6RSliceE@PLT
	.cfi_endproc
.LFE3504:
	.size	_ZN8opendnp38MContext15OnResponseEventERKNS_18APDUResponseHeaderERKN7openpal6RSliceE, .-_ZN8opendnp38MContext15OnResponseEventERKNS_18APDUResponseHeaderERKN7openpal6RSliceE
	.align 2
	.p2align 4
	.globl	_ZN8opendnp38MContext15ProcessResponseERKNS_18APDUResponseHeaderERKN7openpal6RSliceE
	.type	_ZN8opendnp38MContext15ProcessResponseERKNS_18APDUResponseHeaderERKN7openpal6RSliceE, @function
_ZN8opendnp38MContext15ProcessResponseERKNS_18APDUResponseHeaderERKN7openpal6RSliceE:
.LFB3431:
	.cfi_startproc
	pushq	%rbx
	.cfi_def_cfa_offset 16
	.cfi_offset 3, -16
	movq	%rsi, %rbx
	subq	$16, %rsp
	.cfi_def_cfa_offset 32
	movq	%rdi, 8(%rsp)
	call	_ZN8opendnp38MContext15OnResponseEventERKNS_18APDUResponseHeaderERKN7openpal6RSliceE@PLT
	movq	8(%rsp), %rdi
	leaq	6(%rbx), %rsi
	movl	%eax, 512(%rdi)
	addq	$16, %rsp
	.cfi_def_cfa_offset 16
	popq	%rbx
	.cfi_def_cfa_offset 8
	jmp	_ZN8opendnp38MContext10ProcessIINERKNS_8IINFieldE@PLT
	.cfi_endproc
.LFE3431:
	.size	_ZN8opendnp38MContext15ProcessResponseERKNS_18APDUResponseHeaderERKN7openpal6RSliceE, .-_ZN8opendnp38MContext15ProcessResponseERKNS_18APDUResponseHeaderERKN7openpal6RSliceE
	.section	.rodata.str1.8
	.align 8
.LC50:
	.string	"Ignoring unsupported function code: %s"
	.align 8
.LC51:
	.string	"/opt/PLC/OpenPLC_v3/utils/dnp3_src/cpp/libs/src/opendnp3/master/MasterContext.cpp(220)"
	.text
	.align 2
	.p2align 4
	.globl	_ZN8opendnp38MContext11ProcessAPDUERKNS_18APDUResponseHeaderERKN7openpal6RSliceE
	.type	_ZN8opendnp38MContext11ProcessAPDUERKNS_18APDUResponseHeaderERKN7openpal6RSliceE, @function
_ZN8opendnp38MContext11ProcessAPDUERKNS_18APDUResponseHeaderERKN7openpal6RSliceE:
.LFB3428:
	.cfi_startproc
	movzbl	(%rsi), %eax
	cmpb	$-127, %al
	je	.L1496
	cmpb	$-126, %al
	je	.L1504
	pushq	%r15
	.cfi_def_cfa_offset 16
	.cfi_offset 15, -16
	addq	$24, %rdi
	movq	%rsi, %r15
	pushq	%r14
	.cfi_def_cfa_offset 24
	.cfi_offset 14, -24
	movq	%rdi, %r14
	pushq	%rbx
	.cfi_def_cfa_offset 32
	.cfi_offset 3, -32
	subq	$144, %rsp
	.cfi_def_cfa_offset 176
	leaq	16(%rsp), %rsi
	movl	$4, 16(%rsp)
	call	_ZNK7openpal6Logger9IsEnabledERKNS_10LogFiltersE@PLT
	testb	%al, %al
	jne	.L1505
	addq	$144, %rsp
	.cfi_def_cfa_offset 32
	popq	%rbx
	.cfi_def_cfa_offset 24
	popq	%r14
	.cfi_def_cfa_offset 16
	popq	%r15
	.cfi_def_cfa_offset 8
	ret
	.p2align 4,,10
	.p2align 3
.L1504:
	.cfi_restore 3
	.cfi_restore 14
	.cfi_restore 15
	jmp	_ZN8opendnp38MContext26ProcessUnsolicitedResponseERKNS_18APDUResponseHeaderERKN7openpal6RSliceE@PLT
	.p2align 4,,10
	.p2align 3
.L1496:
	jmp	_ZN8opendnp38MContext15ProcessResponseERKNS_18APDUResponseHeaderERKN7openpal6RSliceE@PLT
	.p2align 4,,10
	.p2align 3
.L1505:
	.cfi_def_cfa_offset 176
	.cfi_offset 3, -32
	.cfi_offset 14, -24
	.cfi_offset 15, -16
	movzbl	(%r15), %edi
	call	_ZN8opendnp320FunctionCodeToStringENS_12FunctionCodeE@PLT
	leaq	16(%rsp), %rdi
	movl	$120, %esi
	leaq	.LC50(%rip), %rdx
	movq	%rax, %rcx
	xorl	%eax, %eax
	call	snprintf@PLT
	leaq	12(%rsp), %rsi
	movq	%r14, %rdi
	leaq	16(%rsp), %rcx
	leaq	.LC51(%rip), %rdx
	movl	$4, 12(%rsp)
	call	_ZN7openpal6Logger3LogERKNS_10LogFiltersEPKcS5_@PLT
	addq	$144, %rsp
	.cfi_def_cfa_offset 32
	popq	%rbx
	.cfi_def_cfa_offset 24
	popq	%r14
	.cfi_def_cfa_offset 16
	popq	%r15
	.cfi_def_cfa_offset 8
	ret
	.cfi_endproc
.LFE3428:
	.size	_ZN8opendnp38MContext11ProcessAPDUERKNS_18APDUResponseHeaderERKN7openpal6RSliceE, .-_ZN8opendnp38MContext11ProcessAPDUERKNS_18APDUResponseHeaderERKN7openpal6RSliceE
	.align 2
	.p2align 4
	.globl	_ZN8opendnp38MContext14OnParsedHeaderERKN7openpal6RSliceERKNS_18APDUResponseHeaderES4_
	.type	_ZN8opendnp38MContext14OnParsedHeaderERKN7openpal6RSliceERKNS_18APDUResponseHeaderES4_, @function
_ZN8opendnp38MContext14OnParsedHeaderERKN7openpal6RSliceERKNS_18APDUResponseHeaderES4_:
.LFB3425:
	.cfi_startproc
	movq	%rdx, %rsi
	movq	%rcx, %rdx
	jmp	_ZN8opendnp38MContext11ProcessAPDUERKNS_18APDUResponseHeaderERKN7openpal6RSliceE@PLT
	.cfi_endproc
.LFE3425:
	.size	_ZN8opendnp38MContext14OnParsedHeaderERKN7openpal6RSliceERKNS_18APDUResponseHeaderES4_, .-_ZN8opendnp38MContext14OnParsedHeaderERKN7openpal6RSliceERKNS_18APDUResponseHeaderES4_
	.set	_ZN8opendnp38MContext14OnParsedHeaderERKN7openpal6RSliceERKNS_18APDUResponseHeaderES4_.localalias,_ZN8opendnp38MContext14OnParsedHeaderERKN7openpal6RSliceERKNS_18APDUResponseHeaderES4_
	.section	.rodata.str1.8
	.align 8
.LC52:
	.string	"Ignorning rx data while offline"
	.align 8
.LC53:
	.string	"/opt/PLC/OpenPLC_v3/utils/dnp3_src/cpp/libs/src/opendnp3/master/MasterContext.cpp(118)"
	.align 8
.LC54:
	.string	"FIR: %i FIN: %i CON: %i UNS: %i SEQ: %i FUNC: %s IIN: [0x%02x, 0x%02x]"
	.align 8
.LC55:
	.string	"/opt/PLC/OpenPLC_v3/utils/dnp3_src/cpp/libs/src/opendnp3/master/MasterContext.cpp(129)"
	.text
	.align 2
	.p2align 4
	.globl	_ZN8opendnp38MContext9OnReceiveERKN7openpal6RSliceE
	.type	_ZN8opendnp38MContext9OnReceiveERKN7openpal6RSliceE, @function
_ZN8opendnp38MContext9OnReceiveERKN7openpal6RSliceE:
.LFB3420:
	.cfi_startproc
	pushq	%r15
	.cfi_def_cfa_offset 16
	.cfi_offset 15, -16
	pushq	%r14
	.cfi_def_cfa_offset 24
	.cfi_offset 14, -24
	pushq	%r13
	.cfi_def_cfa_offset 32
	.cfi_offset 13, -32
	pushq	%r12
	.cfi_def_cfa_offset 40
	.cfi_offset 12, -40
	pushq	%rbp
	.cfi_def_cfa_offset 48
	.cfi_offset 6, -48
	pushq	%rbx
	.cfi_def_cfa_offset 56
	.cfi_offset 3, -56
	movq	%rdi, %rbx
	subq	$168, %rsp
	.cfi_def_cfa_offset 224
	movzbl	168(%rdi), %ebp
	testb	%bpl, %bpl
	je	.L1523
	movq	%rsi, %r12
	leaq	25(%rsp), %rdi
	xorl	%r9d, %r9d
	xorl	%r8d, %r8d
	xorl	%ecx, %ecx
	movl	$1, %edx
	movl	$1, %esi
	movb	$-1, 24(%rsp)
	call	_ZN8opendnp315AppControlFieldC1Ebbbbh@PLT
	leaq	24(%rsp), %r14
	xorl	%eax, %eax
	leaq	24(%rbx), %rdx
	movq	%r14, %rsi
	movq	%r12, %rdi
	movw	%ax, 30(%rsp)
	call	_ZN8opendnp316APDUHeaderParser13ParseResponseERKN7openpal6RSliceERNS_18APDUResponseHeaderEPNS1_6LoggerE@PLT
	testb	%al, %al
	jne	.L1524
.L1507:
	addq	$168, %rsp
	.cfi_remember_state
	.cfi_def_cfa_offset 56
	movl	%ebp, %eax
	popq	%rbx
	.cfi_def_cfa_offset 48
	popq	%rbp
	.cfi_def_cfa_offset 40
	popq	%r12
	.cfi_def_cfa_offset 32
	popq	%r13
	.cfi_def_cfa_offset 24
	popq	%r14
	.cfi_def_cfa_offset 16
	popq	%r15
	.cfi_def_cfa_offset 8
	ret
	.p2align 4,,10
	.p2align 3
.L1524:
	.cfi_restore_state
	leaq	32(%rsp), %rsi
	leaq	24(%rbx), %rdi
	movl	$2048, 32(%rsp)
	leaq	32(%rsp), %r15
	call	_ZNK7openpal6Logger9IsEnabledERKNS_10LogFiltersE@PLT
	testb	%al, %al
	jne	.L1525
.L1512:
	movq	(%rbx), %rax
	movl	$4, %esi
	movq	%r12, %rdi
	movq	48(%rax), %r13
	call	_ZNK7openpal6RSlice4SkipEj@PLT
	movl	%eax, 32(%rsp)
	leaq	_ZN8opendnp38MContext14OnParsedHeaderERKN7openpal6RSliceERKNS_18APDUResponseHeaderES4_.localalias(%rip), %rax
	movq	%rdx, 40(%rsp)
	cmpq	%rax, %r13
	jne	.L1513
	movq	%r15, %rdx
	movq	%r14, %rsi
	movq	%rbx, %rdi
	call	_ZN8opendnp38MContext11ProcessAPDUERKNS_18APDUResponseHeaderERKN7openpal6RSliceE@PLT
	jmp	.L1507
	.p2align 4,,10
	.p2align 3
.L1523:
	leaq	32(%rsp), %rsi
	leaq	24(%rdi), %rdi
	movl	$2, 32(%rsp)
	call	_ZNK7openpal6Logger9IsEnabledERKNS_10LogFiltersE@PLT
	testb	%al, %al
	je	.L1507
	leaq	.LC52(%rip), %rcx
	leaq	24(%rbx), %rdi
	movl	$2, 32(%rsp)
	leaq	.LC53(%rip), %rdx
	leaq	32(%rsp), %rsi
	call	_ZN7openpal6Logger3LogERKNS_10LogFiltersEPKcS5_@PLT
	jmp	.L1507
	.p2align 4,,10
	.p2align 3
.L1525:
	movzbl	31(%rsp), %esi
	movzbl	30(%rsp), %edx
	movzbl	24(%rsp), %edi
	movl	%esi, 12(%rsp)
	movl	%edx, 8(%rsp)
	call	_ZN8opendnp320FunctionCodeToStringENS_12FunctionCodeE@PLT
	movzbl	25(%rsp), %ecx
	subq	$8, %rsp
	.cfi_def_cfa_offset 232
	movq	%r15, %rdi
	movl	20(%rsp), %esi
	pushq	%rsi
	.cfi_def_cfa_offset 240
	movl	24(%rsp), %edx
	movl	$120, %esi
	pushq	%rdx
	.cfi_def_cfa_offset 248
	leaq	.LC54(%rip), %rdx
	pushq	%rax
	.cfi_def_cfa_offset 256
	movzbl	61(%rsp), %eax
	pushq	%rax
	.cfi_def_cfa_offset 264
	movzbl	68(%rsp), %eax
	pushq	%rax
	.cfi_def_cfa_offset 272
	movzbl	75(%rsp), %r9d
	xorl	%eax, %eax
	movzbl	74(%rsp), %r8d
	call	snprintf@PLT
	movl	$2048, 68(%rsp)
	addq	$48, %rsp
	.cfi_def_cfa_offset 224
	movq	%r15, %rcx
	leaq	20(%rsp), %rsi
	leaq	.LC55(%rip), %rdx
	leaq	24(%rbx), %rdi
	call	_ZN7openpal6Logger3LogERKNS_10LogFiltersEPKcS5_@PLT
	jmp	.L1512
	.p2align 4,,10
	.p2align 3
.L1513:
	movq	%r15, %rcx
	movq	%r14, %rdx
	movq	%r12, %rsi
	movq	%rbx, %rdi
	call	*%r13
	jmp	.L1507
	.cfi_endproc
.LFE3420:
	.size	_ZN8opendnp38MContext9OnReceiveERKN7openpal6RSliceE, .-_ZN8opendnp38MContext9OnReceiveERKN7openpal6RSliceE
	.section	.text.startup,"ax",@progbits
	.p2align 4
	.type	_GLOBAL__sub_I_MasterContext.cpp, @function
_GLOBAL__sub_I_MasterContext.cpp:
.LFB5086:
	.cfi_startproc
	movl	$5000, %edi
	jmp	_ZN7openpal12TimeDuration12MillisecondsEl@PLT
	.cfi_endproc
.LFE5086:
	.size	_GLOBAL__sub_I_MasterContext.cpp, .-_GLOBAL__sub_I_MasterContext.cpp
	.section	.init_array,"aw"
	.align 8
	.quad	_GLOBAL__sub_I_MasterContext.cpp
	.weak	_ZTSN7openpal10UncopyableE
	.section	.rodata._ZTSN7openpal10UncopyableE,"aG",@progbits,_ZTSN7openpal10UncopyableE,comdat
	.align 16
	.type	_ZTSN7openpal10UncopyableE, @object
	.size	_ZTSN7openpal10UncopyableE, 23
_ZTSN7openpal10UncopyableE:
	.string	"N7openpal10UncopyableE"
	.weak	_ZTIN7openpal10UncopyableE
	.section	.data.rel.ro._ZTIN7openpal10UncopyableE,"awG",@progbits,_ZTIN7openpal10UncopyableE,comdat
	.align 8
	.type	_ZTIN7openpal10UncopyableE, @object
	.size	_ZTIN7openpal10UncopyableE, 16
_ZTIN7openpal10UncopyableE:
	.quad	_ZTVN10__cxxabiv117__class_type_infoE+16
	.quad	_ZTSN7openpal10UncopyableE
	.weak	_ZTSSt11_Mutex_baseILN9__gnu_cxx12_Lock_policyE2EE
	.section	.rodata._ZTSSt11_Mutex_baseILN9__gnu_cxx12_Lock_policyE2EE,"aG",@progbits,_ZTSSt11_Mutex_baseILN9__gnu_cxx12_Lock_policyE2EE,comdat
	.align 32
	.type	_ZTSSt11_Mutex_baseILN9__gnu_cxx12_Lock_policyE2EE, @object
	.size	_ZTSSt11_Mutex_baseILN9__gnu_cxx12_Lock_policyE2EE, 47
_ZTSSt11_Mutex_baseILN9__gnu_cxx12_Lock_policyE2EE:
	.string	"St11_Mutex_baseILN9__gnu_cxx12_Lock_policyE2EE"
