	.file	"MeasurementHandler.cpp"
	.text
	.section	.text._ZN8opendnp312IAPDUHandler14OnHeaderResultERKNS_12HeaderRecordERKNS_8IINFieldE,"axG",@progbits,_ZN8opendnp312IAPDUHandler14OnHeaderResultERKNS_12HeaderRecordERKNS_8IINFieldE,comdat
	.align 2
	.p2align 4
	.weak	_ZN8opendnp312IAPDUHandler14OnHeaderResultERKNS_12HeaderRecordERKNS_8IINFieldE
	.type	_ZN8opendnp312IAPDUHandler14OnHeaderResultERKNS_12HeaderRecordERKNS_8IINFieldE, @function
_ZN8opendnp312IAPDUHandler14OnHeaderResultERKNS_12HeaderRecordERKNS_8IINFieldE:
.LFB2339:
	.cfi_startproc
	ret
	.cfi_endproc
.LFE2339:
	.size	_ZN8opendnp312IAPDUHandler14OnHeaderResultERKNS_12HeaderRecordERKNS_8IINFieldE, .-_ZN8opendnp312IAPDUHandler14OnHeaderResultERKNS_12HeaderRecordERKNS_8IINFieldE
	.section	.text._ZN8opendnp318MeasurementHandler9IsAllowedEjNS_14GroupVariationENS_13QualifierCodeE,"axG",@progbits,_ZN8opendnp318MeasurementHandler9IsAllowedEjNS_14GroupVariationENS_13QualifierCodeE,comdat
	.align 2
	.p2align 4
	.weak	_ZN8opendnp318MeasurementHandler9IsAllowedEjNS_14GroupVariationENS_13QualifierCodeE
	.type	_ZN8opendnp318MeasurementHandler9IsAllowedEjNS_14GroupVariationENS_13QualifierCodeE, @function
_ZN8opendnp318MeasurementHandler9IsAllowedEjNS_14GroupVariationENS_13QualifierCodeE:
.LFB2350:
	.cfi_startproc
	movl	$1, %eax
	ret
	.cfi_endproc
.LFE2350:
	.size	_ZN8opendnp318MeasurementHandler9IsAllowedEjNS_14GroupVariationENS_13QualifierCodeE, .-_ZN8opendnp318MeasurementHandler9IsAllowedEjNS_14GroupVariationENS_13QualifierCodeE
	.section	.text._ZN8opendnp314FunctorVisitorINS_11Group51Var2EZNKS_11ICollectionIS1_E13ReadOnlyValueERS1_EUlRKS1_E_E7OnValueES6_,"axG",@progbits,_ZN8opendnp314FunctorVisitorINS_11Group51Var2EZNKS_11ICollectionIS1_E13ReadOnlyValueERS1_EUlRKS1_E_E7OnValueES6_,comdat
	.align 2
	.p2align 4
	.weak	_ZN8opendnp314FunctorVisitorINS_11Group51Var2EZNKS_11ICollectionIS1_E13ReadOnlyValueERS1_EUlRKS1_E_E7OnValueES6_
	.type	_ZN8opendnp314FunctorVisitorINS_11Group51Var2EZNKS_11ICollectionIS1_E13ReadOnlyValueERS1_EUlRKS1_E_E7OnValueES6_, @function
_ZN8opendnp314FunctorVisitorINS_11Group51Var2EZNKS_11ICollectionIS1_E13ReadOnlyValueERS1_EUlRKS1_E_E7OnValueES6_:
.LFB3234:
	.cfi_startproc
	movq	8(%rdi), %rax
	movq	(%rsi), %rdx
	movq	%rdx, (%rax)
	ret
	.cfi_endproc
.LFE3234:
	.size	_ZN8opendnp314FunctorVisitorINS_11Group51Var2EZNKS_11ICollectionIS1_E13ReadOnlyValueERS1_EUlRKS1_E_E7OnValueES6_, .-_ZN8opendnp314FunctorVisitorINS_11Group51Var2EZNKS_11ICollectionIS1_E13ReadOnlyValueERS1_EUlRKS1_E_E7OnValueES6_
	.section	.text._ZN8opendnp314FunctorVisitorINS_11Group51Var1EZNKS_11ICollectionIS1_E13ReadOnlyValueERS1_EUlRKS1_E_E7OnValueES6_,"axG",@progbits,_ZN8opendnp314FunctorVisitorINS_11Group51Var1EZNKS_11ICollectionIS1_E13ReadOnlyValueERS1_EUlRKS1_E_E7OnValueES6_,comdat
	.align 2
	.p2align 4
	.weak	_ZN8opendnp314FunctorVisitorINS_11Group51Var1EZNKS_11ICollectionIS1_E13ReadOnlyValueERS1_EUlRKS1_E_E7OnValueES6_
	.type	_ZN8opendnp314FunctorVisitorINS_11Group51Var1EZNKS_11ICollectionIS1_E13ReadOnlyValueERS1_EUlRKS1_E_E7OnValueES6_, @function
_ZN8opendnp314FunctorVisitorINS_11Group51Var1EZNKS_11ICollectionIS1_E13ReadOnlyValueERS1_EUlRKS1_E_E7OnValueES6_:
.LFB3235:
	.cfi_startproc
	movq	8(%rdi), %rax
	movq	(%rsi), %rdx
	movq	%rdx, (%rax)
	ret
	.cfi_endproc
.LFE3235:
	.size	_ZN8opendnp314FunctorVisitorINS_11Group51Var1EZNKS_11ICollectionIS1_E13ReadOnlyValueERS1_EUlRKS1_E_E7OnValueES6_, .-_ZN8opendnp314FunctorVisitorINS_11Group51Var1EZNKS_11ICollectionIS1_E13ReadOnlyValueERS1_EUlRKS1_E_E7OnValueES6_
	.section	.text._ZNK8opendnp321TransformedCollectionINS_7IndexedINS_12Group122Var2EEENS1_INS_12SecurityStatEEEZNS_18MeasurementHandler25LoadValuesWithTransformToIS4_S2_EENS_8IINFieldERKNS_12HeaderRecordERKNS_11ICollectionINS1_IT0_EEEEEUlRKS3_E_E5CountEv,"axG",@progbits,_ZNK8opendnp321TransformedCollectionINS_7IndexedINS_12Group122Var2EEENS1_INS_12SecurityStatEEEZNS_18MeasurementHandler25LoadValuesWithTransformToIS4_S2_EENS_8IINFieldERKNS_12HeaderRecordERKNS_11ICollectionINS1_IT0_EEEEEUlRKS3_E_E5CountEv,comdat
	.align 2
	.p2align 4
	.weak	_ZNK8opendnp321TransformedCollectionINS_7IndexedINS_12Group122Var2EEENS1_INS_12SecurityStatEEEZNS_18MeasurementHandler25LoadValuesWithTransformToIS4_S2_EENS_8IINFieldERKNS_12HeaderRecordERKNS_11ICollectionINS1_IT0_EEEEEUlRKS3_E_E5CountEv
	.type	_ZNK8opendnp321TransformedCollectionINS_7IndexedINS_12Group122Var2EEENS1_INS_12SecurityStatEEEZNS_18MeasurementHandler25LoadValuesWithTransformToIS4_S2_EENS_8IINFieldERKNS_12HeaderRecordERKNS_11ICollectionINS1_IT0_EEEEEUlRKS3_E_E5CountEv, @function
_ZNK8opendnp321TransformedCollectionINS_7IndexedINS_12Group122Var2EEENS1_INS_12SecurityStatEEEZNS_18MeasurementHandler25LoadValuesWithTransformToIS4_S2_EENS_8IINFieldERKNS_12HeaderRecordERKNS_11ICollectionINS1_IT0_EEEEEUlRKS3_E_E5CountEv:
.LFB3236:
	.cfi_startproc
	movq	8(%rdi), %rdi
	movq	(%rdi), %rax
	jmp	*(%rax)
	.cfi_endproc
.LFE3236:
	.size	_ZNK8opendnp321TransformedCollectionINS_7IndexedINS_12Group122Var2EEENS1_INS_12SecurityStatEEEZNS_18MeasurementHandler25LoadValuesWithTransformToIS4_S2_EENS_8IINFieldERKNS_12HeaderRecordERKNS_11ICollectionINS1_IT0_EEEEEUlRKS3_E_E5CountEv, .-_ZNK8opendnp321TransformedCollectionINS_7IndexedINS_12Group122Var2EEENS1_INS_12SecurityStatEEEZNS_18MeasurementHandler25LoadValuesWithTransformToIS4_S2_EENS_8IINFieldERKNS_12HeaderRecordERKNS_11ICollectionINS1_IT0_EEEEEUlRKS3_E_E5CountEv
	.section	.text._ZNK8opendnp321TransformedCollectionINS_7IndexedINS_12Group122Var2EEENS1_INS_12SecurityStatEEEZNS_18MeasurementHandler25LoadValuesWithTransformToIS4_S2_EENS_8IINFieldERKNS_12HeaderRecordERKNS_11ICollectionINS1_IT0_EEEEEUlRKS3_E_E7ForeachERNS_8IVisitorIS5_EE,"axG",@progbits,_ZNK8opendnp321TransformedCollectionINS_7IndexedINS_12Group122Var2EEENS1_INS_12SecurityStatEEEZNS_18MeasurementHandler25LoadValuesWithTransformToIS4_S2_EENS_8IINFieldERKNS_12HeaderRecordERKNS_11ICollectionINS1_IT0_EEEEEUlRKS3_E_E7ForeachERNS_8IVisitorIS5_EE,comdat
	.align 2
	.p2align 4
	.weak	_ZNK8opendnp321TransformedCollectionINS_7IndexedINS_12Group122Var2EEENS1_INS_12SecurityStatEEEZNS_18MeasurementHandler25LoadValuesWithTransformToIS4_S2_EENS_8IINFieldERKNS_12HeaderRecordERKNS_11ICollectionINS1_IT0_EEEEEUlRKS3_E_E7ForeachERNS_8IVisitorIS5_EE
	.type	_ZNK8opendnp321TransformedCollectionINS_7IndexedINS_12Group122Var2EEENS1_INS_12SecurityStatEEEZNS_18MeasurementHandler25LoadValuesWithTransformToIS4_S2_EENS_8IINFieldERKNS_12HeaderRecordERKNS_11ICollectionINS1_IT0_EEEEEUlRKS3_E_E7ForeachERNS_8IVisitorIS5_EE, @function
_ZNK8opendnp321TransformedCollectionINS_7IndexedINS_12Group122Var2EEENS1_INS_12SecurityStatEEEZNS_18MeasurementHandler25LoadValuesWithTransformToIS4_S2_EENS_8IINFieldERKNS_12HeaderRecordERKNS_11ICollectionINS1_IT0_EEEEEUlRKS3_E_E7ForeachERNS_8IVisitorIS5_EE:
.LFB3237:
	.cfi_startproc
	subq	$40, %rsp
	.cfi_def_cfa_offset 48
	movq	_ZTVN8opendnp314FunctorVisitorINS_7IndexedINS_12Group122Var2EEEZNKS_21TransformedCollectionIS3_NS1_INS_12SecurityStatEEEZNS_18MeasurementHandler25LoadValuesWithTransformToIS5_S2_EENS_8IINFieldERKNS_12HeaderRecordERKNS_11ICollectionINS1_IT0_EEEEEUlRKS3_E_E7ForeachERNS_8IVisitorIS6_EEEUlSK_E_EE@GOTPCREL(%rip), %rdx
	movq	%rdi, %rax
	movq	8(%rdi), %rdi
	movq	%rax, %xmm1
	movq	%rsi, 16(%rsp)
	movq	%rsp, %rsi
	leaq	16(%rdx), %rcx
	movq	%rcx, %xmm0
	punpcklqdq	%xmm1, %xmm0
	movaps	%xmm0, (%rsp)
	movq	(%rdi), %rax
	call	*8(%rax)
	addq	$40, %rsp
	.cfi_def_cfa_offset 8
	ret
	.cfi_endproc
.LFE3237:
	.size	_ZNK8opendnp321TransformedCollectionINS_7IndexedINS_12Group122Var2EEENS1_INS_12SecurityStatEEEZNS_18MeasurementHandler25LoadValuesWithTransformToIS4_S2_EENS_8IINFieldERKNS_12HeaderRecordERKNS_11ICollectionINS1_IT0_EEEEEUlRKS3_E_E7ForeachERNS_8IVisitorIS5_EE, .-_ZNK8opendnp321TransformedCollectionINS_7IndexedINS_12Group122Var2EEENS1_INS_12SecurityStatEEEZNS_18MeasurementHandler25LoadValuesWithTransformToIS4_S2_EENS_8IINFieldERKNS_12HeaderRecordERKNS_11ICollectionINS1_IT0_EEEEEUlRKS3_E_E7ForeachERNS_8IVisitorIS5_EE
	.section	.text._ZNK8opendnp321TransformedCollectionINS_7IndexedINS_12Group122Var1EEENS1_INS_12SecurityStatEEEZNS_18MeasurementHandler25LoadValuesWithTransformToIS4_S2_EENS_8IINFieldERKNS_12HeaderRecordERKNS_11ICollectionINS1_IT0_EEEEEUlRKS3_E_E5CountEv,"axG",@progbits,_ZNK8opendnp321TransformedCollectionINS_7IndexedINS_12Group122Var1EEENS1_INS_12SecurityStatEEEZNS_18MeasurementHandler25LoadValuesWithTransformToIS4_S2_EENS_8IINFieldERKNS_12HeaderRecordERKNS_11ICollectionINS1_IT0_EEEEEUlRKS3_E_E5CountEv,comdat
	.align 2
	.p2align 4
	.weak	_ZNK8opendnp321TransformedCollectionINS_7IndexedINS_12Group122Var1EEENS1_INS_12SecurityStatEEEZNS_18MeasurementHandler25LoadValuesWithTransformToIS4_S2_EENS_8IINFieldERKNS_12HeaderRecordERKNS_11ICollectionINS1_IT0_EEEEEUlRKS3_E_E5CountEv
	.type	_ZNK8opendnp321TransformedCollectionINS_7IndexedINS_12Group122Var1EEENS1_INS_12SecurityStatEEEZNS_18MeasurementHandler25LoadValuesWithTransformToIS4_S2_EENS_8IINFieldERKNS_12HeaderRecordERKNS_11ICollectionINS1_IT0_EEEEEUlRKS3_E_E5CountEv, @function
_ZNK8opendnp321TransformedCollectionINS_7IndexedINS_12Group122Var1EEENS1_INS_12SecurityStatEEEZNS_18MeasurementHandler25LoadValuesWithTransformToIS4_S2_EENS_8IINFieldERKNS_12HeaderRecordERKNS_11ICollectionINS1_IT0_EEEEEUlRKS3_E_E5CountEv:
.LFB3239:
	.cfi_startproc
	movq	8(%rdi), %rdi
	movq	(%rdi), %rax
	jmp	*(%rax)
	.cfi_endproc
.LFE3239:
	.size	_ZNK8opendnp321TransformedCollectionINS_7IndexedINS_12Group122Var1EEENS1_INS_12SecurityStatEEEZNS_18MeasurementHandler25LoadValuesWithTransformToIS4_S2_EENS_8IINFieldERKNS_12HeaderRecordERKNS_11ICollectionINS1_IT0_EEEEEUlRKS3_E_E5CountEv, .-_ZNK8opendnp321TransformedCollectionINS_7IndexedINS_12Group122Var1EEENS1_INS_12SecurityStatEEEZNS_18MeasurementHandler25LoadValuesWithTransformToIS4_S2_EENS_8IINFieldERKNS_12HeaderRecordERKNS_11ICollectionINS1_IT0_EEEEEUlRKS3_E_E5CountEv
	.section	.text._ZNK8opendnp321TransformedCollectionINS_7IndexedINS_12Group122Var1EEENS1_INS_12SecurityStatEEEZNS_18MeasurementHandler25LoadValuesWithTransformToIS4_S2_EENS_8IINFieldERKNS_12HeaderRecordERKNS_11ICollectionINS1_IT0_EEEEEUlRKS3_E_E7ForeachERNS_8IVisitorIS5_EE,"axG",@progbits,_ZNK8opendnp321TransformedCollectionINS_7IndexedINS_12Group122Var1EEENS1_INS_12SecurityStatEEEZNS_18MeasurementHandler25LoadValuesWithTransformToIS4_S2_EENS_8IINFieldERKNS_12HeaderRecordERKNS_11ICollectionINS1_IT0_EEEEEUlRKS3_E_E7ForeachERNS_8IVisitorIS5_EE,comdat
	.align 2
	.p2align 4
	.weak	_ZNK8opendnp321TransformedCollectionINS_7IndexedINS_12Group122Var1EEENS1_INS_12SecurityStatEEEZNS_18MeasurementHandler25LoadValuesWithTransformToIS4_S2_EENS_8IINFieldERKNS_12HeaderRecordERKNS_11ICollectionINS1_IT0_EEEEEUlRKS3_E_E7ForeachERNS_8IVisitorIS5_EE
	.type	_ZNK8opendnp321TransformedCollectionINS_7IndexedINS_12Group122Var1EEENS1_INS_12SecurityStatEEEZNS_18MeasurementHandler25LoadValuesWithTransformToIS4_S2_EENS_8IINFieldERKNS_12HeaderRecordERKNS_11ICollectionINS1_IT0_EEEEEUlRKS3_E_E7ForeachERNS_8IVisitorIS5_EE, @function
_ZNK8opendnp321TransformedCollectionINS_7IndexedINS_12Group122Var1EEENS1_INS_12SecurityStatEEEZNS_18MeasurementHandler25LoadValuesWithTransformToIS4_S2_EENS_8IINFieldERKNS_12HeaderRecordERKNS_11ICollectionINS1_IT0_EEEEEUlRKS3_E_E7ForeachERNS_8IVisitorIS5_EE:
.LFB3240:
	.cfi_startproc
	subq	$40, %rsp
	.cfi_def_cfa_offset 48
	movq	_ZTVN8opendnp314FunctorVisitorINS_7IndexedINS_12Group122Var1EEEZNKS_21TransformedCollectionIS3_NS1_INS_12SecurityStatEEEZNS_18MeasurementHandler25LoadValuesWithTransformToIS5_S2_EENS_8IINFieldERKNS_12HeaderRecordERKNS_11ICollectionINS1_IT0_EEEEEUlRKS3_E_E7ForeachERNS_8IVisitorIS6_EEEUlSK_E_EE@GOTPCREL(%rip), %rdx
	movq	%rdi, %rax
	movq	8(%rdi), %rdi
	movq	%rax, %xmm1
	movq	%rsi, 16(%rsp)
	movq	%rsp, %rsi
	leaq	16(%rdx), %rcx
	movq	%rcx, %xmm0
	punpcklqdq	%xmm1, %xmm0
	movaps	%xmm0, (%rsp)
	movq	(%rdi), %rax
	call	*8(%rax)
	addq	$40, %rsp
	.cfi_def_cfa_offset 8
	ret
	.cfi_endproc
.LFE3240:
	.size	_ZNK8opendnp321TransformedCollectionINS_7IndexedINS_12Group122Var1EEENS1_INS_12SecurityStatEEEZNS_18MeasurementHandler25LoadValuesWithTransformToIS4_S2_EENS_8IINFieldERKNS_12HeaderRecordERKNS_11ICollectionINS1_IT0_EEEEEUlRKS3_E_E7ForeachERNS_8IVisitorIS5_EE, .-_ZNK8opendnp321TransformedCollectionINS_7IndexedINS_12Group122Var1EEENS1_INS_12SecurityStatEEEZNS_18MeasurementHandler25LoadValuesWithTransformToIS4_S2_EENS_8IINFieldERKNS_12HeaderRecordERKNS_11ICollectionINS1_IT0_EEEEEUlRKS3_E_E7ForeachERNS_8IVisitorIS5_EE
	.section	.text._ZNK8opendnp321TransformedCollectionINS_7IndexedINS_12Group121Var1EEENS1_INS_12SecurityStatEEEZNS_18MeasurementHandler25LoadValuesWithTransformToIS4_S2_EENS_8IINFieldERKNS_12HeaderRecordERKNS_11ICollectionINS1_IT0_EEEEEUlRKS3_E_E5CountEv,"axG",@progbits,_ZNK8opendnp321TransformedCollectionINS_7IndexedINS_12Group121Var1EEENS1_INS_12SecurityStatEEEZNS_18MeasurementHandler25LoadValuesWithTransformToIS4_S2_EENS_8IINFieldERKNS_12HeaderRecordERKNS_11ICollectionINS1_IT0_EEEEEUlRKS3_E_E5CountEv,comdat
	.align 2
	.p2align 4
	.weak	_ZNK8opendnp321TransformedCollectionINS_7IndexedINS_12Group121Var1EEENS1_INS_12SecurityStatEEEZNS_18MeasurementHandler25LoadValuesWithTransformToIS4_S2_EENS_8IINFieldERKNS_12HeaderRecordERKNS_11ICollectionINS1_IT0_EEEEEUlRKS3_E_E5CountEv
	.type	_ZNK8opendnp321TransformedCollectionINS_7IndexedINS_12Group121Var1EEENS1_INS_12SecurityStatEEEZNS_18MeasurementHandler25LoadValuesWithTransformToIS4_S2_EENS_8IINFieldERKNS_12HeaderRecordERKNS_11ICollectionINS1_IT0_EEEEEUlRKS3_E_E5CountEv, @function
_ZNK8opendnp321TransformedCollectionINS_7IndexedINS_12Group121Var1EEENS1_INS_12SecurityStatEEEZNS_18MeasurementHandler25LoadValuesWithTransformToIS4_S2_EENS_8IINFieldERKNS_12HeaderRecordERKNS_11ICollectionINS1_IT0_EEEEEUlRKS3_E_E5CountEv:
.LFB3248:
	.cfi_startproc
	movq	8(%rdi), %rdi
	movq	(%rdi), %rax
	jmp	*(%rax)
	.cfi_endproc
.LFE3248:
	.size	_ZNK8opendnp321TransformedCollectionINS_7IndexedINS_12Group121Var1EEENS1_INS_12SecurityStatEEEZNS_18MeasurementHandler25LoadValuesWithTransformToIS4_S2_EENS_8IINFieldERKNS_12HeaderRecordERKNS_11ICollectionINS1_IT0_EEEEEUlRKS3_E_E5CountEv, .-_ZNK8opendnp321TransformedCollectionINS_7IndexedINS_12Group121Var1EEENS1_INS_12SecurityStatEEEZNS_18MeasurementHandler25LoadValuesWithTransformToIS4_S2_EENS_8IINFieldERKNS_12HeaderRecordERKNS_11ICollectionINS1_IT0_EEEEEUlRKS3_E_E5CountEv
	.section	.text._ZNK8opendnp321TransformedCollectionINS_7IndexedINS_12Group121Var1EEENS1_INS_12SecurityStatEEEZNS_18MeasurementHandler25LoadValuesWithTransformToIS4_S2_EENS_8IINFieldERKNS_12HeaderRecordERKNS_11ICollectionINS1_IT0_EEEEEUlRKS3_E_E7ForeachERNS_8IVisitorIS5_EE,"axG",@progbits,_ZNK8opendnp321TransformedCollectionINS_7IndexedINS_12Group121Var1EEENS1_INS_12SecurityStatEEEZNS_18MeasurementHandler25LoadValuesWithTransformToIS4_S2_EENS_8IINFieldERKNS_12HeaderRecordERKNS_11ICollectionINS1_IT0_EEEEEUlRKS3_E_E7ForeachERNS_8IVisitorIS5_EE,comdat
	.align 2
	.p2align 4
	.weak	_ZNK8opendnp321TransformedCollectionINS_7IndexedINS_12Group121Var1EEENS1_INS_12SecurityStatEEEZNS_18MeasurementHandler25LoadValuesWithTransformToIS4_S2_EENS_8IINFieldERKNS_12HeaderRecordERKNS_11ICollectionINS1_IT0_EEEEEUlRKS3_E_E7ForeachERNS_8IVisitorIS5_EE
	.type	_ZNK8opendnp321TransformedCollectionINS_7IndexedINS_12Group121Var1EEENS1_INS_12SecurityStatEEEZNS_18MeasurementHandler25LoadValuesWithTransformToIS4_S2_EENS_8IINFieldERKNS_12HeaderRecordERKNS_11ICollectionINS1_IT0_EEEEEUlRKS3_E_E7ForeachERNS_8IVisitorIS5_EE, @function
_ZNK8opendnp321TransformedCollectionINS_7IndexedINS_12Group121Var1EEENS1_INS_12SecurityStatEEEZNS_18MeasurementHandler25LoadValuesWithTransformToIS4_S2_EENS_8IINFieldERKNS_12HeaderRecordERKNS_11ICollectionINS1_IT0_EEEEEUlRKS3_E_E7ForeachERNS_8IVisitorIS5_EE:
.LFB3249:
	.cfi_startproc
	subq	$40, %rsp
	.cfi_def_cfa_offset 48
	movq	_ZTVN8opendnp314FunctorVisitorINS_7IndexedINS_12Group121Var1EEEZNKS_21TransformedCollectionIS3_NS1_INS_12SecurityStatEEEZNS_18MeasurementHandler25LoadValuesWithTransformToIS5_S2_EENS_8IINFieldERKNS_12HeaderRecordERKNS_11ICollectionINS1_IT0_EEEEEUlRKS3_E_E7ForeachERNS_8IVisitorIS6_EEEUlSK_E_EE@GOTPCREL(%rip), %rdx
	movq	%rdi, %rax
	movq	8(%rdi), %rdi
	movq	%rax, %xmm1
	movq	%rsi, 16(%rsp)
	movq	%rsp, %rsi
	leaq	16(%rdx), %rcx
	movq	%rcx, %xmm0
	punpcklqdq	%xmm1, %xmm0
	movaps	%xmm0, (%rsp)
	movq	(%rdi), %rax
	call	*8(%rax)
	addq	$40, %rsp
	.cfi_def_cfa_offset 8
	ret
	.cfi_endproc
.LFE3249:
	.size	_ZNK8opendnp321TransformedCollectionINS_7IndexedINS_12Group121Var1EEENS1_INS_12SecurityStatEEEZNS_18MeasurementHandler25LoadValuesWithTransformToIS4_S2_EENS_8IINFieldERKNS_12HeaderRecordERKNS_11ICollectionINS1_IT0_EEEEEUlRKS3_E_E7ForeachERNS_8IVisitorIS5_EE, .-_ZNK8opendnp321TransformedCollectionINS_7IndexedINS_12Group121Var1EEENS1_INS_12SecurityStatEEEZNS_18MeasurementHandler25LoadValuesWithTransformToIS4_S2_EENS_8IINFieldERKNS_12HeaderRecordERKNS_11ICollectionINS1_IT0_EEEEEUlRKS3_E_E7ForeachERNS_8IVisitorIS5_EE
	.text
	.align 2
	.p2align 4
	.type	_ZNK8opendnp321TransformedCollectionINS_11Group50Var1EN7openpal10UInt48TypeEZNS_18MeasurementHandler13ProcessHeaderERKNS_11CountHeaderERKNS_11ICollectionIS1_EEEUlRKS1_E_E5CountEv, @function
_ZNK8opendnp321TransformedCollectionINS_11Group50Var1EN7openpal10UInt48TypeEZNS_18MeasurementHandler13ProcessHeaderERKNS_11CountHeaderERKNS_11ICollectionIS1_EEEUlRKS1_E_E5CountEv:
.LFB3251:
	.cfi_startproc
	movq	8(%rdi), %rdi
	movq	(%rdi), %rax
	jmp	*(%rax)
	.cfi_endproc
.LFE3251:
	.size	_ZNK8opendnp321TransformedCollectionINS_11Group50Var1EN7openpal10UInt48TypeEZNS_18MeasurementHandler13ProcessHeaderERKNS_11CountHeaderERKNS_11ICollectionIS1_EEEUlRKS1_E_E5CountEv, .-_ZNK8opendnp321TransformedCollectionINS_11Group50Var1EN7openpal10UInt48TypeEZNS_18MeasurementHandler13ProcessHeaderERKNS_11CountHeaderERKNS_11ICollectionIS1_EEEUlRKS1_E_E5CountEv
	.align 2
	.p2align 4
	.type	_ZNK8opendnp321TransformedCollectionINS_11Group50Var1EN7openpal10UInt48TypeEZNS_18MeasurementHandler13ProcessHeaderERKNS_11CountHeaderERKNS_11ICollectionIS1_EEEUlRKS1_E_E7ForeachERNS_8IVisitorIS3_EE, @function
_ZNK8opendnp321TransformedCollectionINS_11Group50Var1EN7openpal10UInt48TypeEZNS_18MeasurementHandler13ProcessHeaderERKNS_11CountHeaderERKNS_11ICollectionIS1_EEEUlRKS1_E_E7ForeachERNS_8IVisitorIS3_EE:
.LFB3252:
	.cfi_startproc
	movq	%rdi, %rax
	leaq	16+_ZTVN8opendnp314FunctorVisitorINS_11Group50Var1EZNKS_21TransformedCollectionIS1_N7openpal10UInt48TypeEZNS_18MeasurementHandler13ProcessHeaderERKNS_11CountHeaderERKNS_11ICollectionIS1_EEEUlRKS1_E_E7ForeachERNS_8IVisitorIS4_EEEUlSE_E_EE(%rip), %rdx
	subq	$40, %rsp
	.cfi_def_cfa_offset 48
	movq	8(%rdi), %rdi
	movq	%rax, %xmm1
	movq	%rdx, %xmm0
	movq	%rsi, 16(%rsp)
	movq	%rsp, %rsi
	punpcklqdq	%xmm1, %xmm0
	movaps	%xmm0, (%rsp)
	movq	(%rdi), %rax
	call	*8(%rax)
	addq	$40, %rsp
	.cfi_def_cfa_offset 8
	ret
	.cfi_endproc
.LFE3252:
	.size	_ZNK8opendnp321TransformedCollectionINS_11Group50Var1EN7openpal10UInt48TypeEZNS_18MeasurementHandler13ProcessHeaderERKNS_11CountHeaderERKNS_11ICollectionIS1_EEEUlRKS1_E_E7ForeachERNS_8IVisitorIS3_EE, .-_ZNK8opendnp321TransformedCollectionINS_11Group50Var1EN7openpal10UInt48TypeEZNS_18MeasurementHandler13ProcessHeaderERKNS_11CountHeaderERKNS_11ICollectionIS1_EEEUlRKS1_E_E7ForeachERNS_8IVisitorIS3_EE
	.align 2
	.p2align 4
	.type	_ZN8opendnp314FunctorVisitorINS_11Group50Var1EZNKS_21TransformedCollectionIS1_N7openpal10UInt48TypeEZNS_18MeasurementHandler13ProcessHeaderERKNS_11CountHeaderERKNS_11ICollectionIS1_EEEUlRKS1_E_E7ForeachERNS_8IVisitorIS4_EEEUlSE_E_E7OnValueESE_, @function
_ZN8opendnp314FunctorVisitorINS_11Group50Var1EZNKS_21TransformedCollectionIS1_N7openpal10UInt48TypeEZNS_18MeasurementHandler13ProcessHeaderERKNS_11CountHeaderERKNS_11ICollectionIS1_EEEUlRKS1_E_E7ForeachERNS_8IVisitorIS4_EEEUlSE_E_E7OnValueESE_:
.LFB3303:
	.cfi_startproc
	subq	$24, %rsp
	.cfi_def_cfa_offset 32
	movq	16(%rdi), %rdi
	movq	(%rsi), %rdx
	leaq	8(%rsp), %rsi
	movq	(%rdi), %rax
	movq	(%rax), %rax
	movq	%rdx, 8(%rsp)
	call	*%rax
	addq	$24, %rsp
	.cfi_def_cfa_offset 8
	ret
	.cfi_endproc
.LFE3303:
	.size	_ZN8opendnp314FunctorVisitorINS_11Group50Var1EZNKS_21TransformedCollectionIS1_N7openpal10UInt48TypeEZNS_18MeasurementHandler13ProcessHeaderERKNS_11CountHeaderERKNS_11ICollectionIS1_EEEUlRKS1_E_E7ForeachERNS_8IVisitorIS4_EEEUlSE_E_E7OnValueESE_, .-_ZN8opendnp314FunctorVisitorINS_11Group50Var1EZNKS_21TransformedCollectionIS1_N7openpal10UInt48TypeEZNS_18MeasurementHandler13ProcessHeaderERKNS_11CountHeaderERKNS_11ICollectionIS1_EEEUlRKS1_E_E7ForeachERNS_8IVisitorIS4_EEEUlSE_E_E7OnValueESE_
	.align 2
	.p2align 4
	.globl	_ZN8opendnp318MeasurementHandler13ProcessHeaderERKNS_11CountHeaderERKNS_11ICollectionINS_11Group51Var1EEE
	.type	_ZN8opendnp318MeasurementHandler13ProcessHeaderERKNS_11CountHeaderERKNS_11ICollectionINS_11Group51Var1EEE, @function
_ZN8opendnp318MeasurementHandler13ProcessHeaderERKNS_11CountHeaderERKNS_11ICollectionINS_11Group51Var1EEE:
.LFB2385:
	.cfi_startproc
	pushq	%r12
	.cfi_def_cfa_offset 16
	.cfi_offset 12, -16
	movq	%rdi, %r12
	pushq	%rbp
	.cfi_def_cfa_offset 24
	.cfi_offset 6, -24
	pushq	%rbx
	.cfi_def_cfa_offset 32
	.cfi_offset 3, -32
	movq	%rdx, %rbx
	subq	$32, %rsp
	.cfi_def_cfa_offset 64
	leaq	8(%rsp), %rbp
	movq	%rbp, %rdi
	call	_ZN8opendnp311Group51Var1C1Ev@PLT
	movq	(%rbx), %rax
	movq	%rbx, %rdi
	call	*(%rax)
	cmpq	$1, %rax
	jne	.L21
	movq	_ZTVN8opendnp314FunctorVisitorINS_11Group51Var1EZNKS_11ICollectionIS1_E13ReadOnlyValueERS1_EUlRKS1_E_EE@GOTPCREL(%rip), %rax
	movq	%rbp, %xmm1
	leaq	16(%rsp), %rsi
	movq	%rbx, %rdi
	addq	$16, %rax
	movq	%rax, %xmm0
	movq	(%rbx), %rax
	punpcklqdq	%xmm1, %xmm0
	movaps	%xmm0, 16(%rsp)
	call	*8(%rax)
	movq	8(%rsp), %rax
	movb	$1, 72(%r12)
	movq	%rax, 80(%r12)
.L21:
	addq	$32, %rsp
	.cfi_def_cfa_offset 32
	xorl	%eax, %eax
	popq	%rbx
	.cfi_def_cfa_offset 24
	popq	%rbp
	.cfi_def_cfa_offset 16
	popq	%r12
	.cfi_def_cfa_offset 8
	ret
	.cfi_endproc
.LFE2385:
	.size	_ZN8opendnp318MeasurementHandler13ProcessHeaderERKNS_11CountHeaderERKNS_11ICollectionINS_11Group51Var1EEE, .-_ZN8opendnp318MeasurementHandler13ProcessHeaderERKNS_11CountHeaderERKNS_11ICollectionINS_11Group51Var1EEE
	.align 2
	.p2align 4
	.globl	_ZN8opendnp318MeasurementHandler13ProcessHeaderERKNS_11CountHeaderERKNS_11ICollectionINS_11Group51Var2EEE
	.type	_ZN8opendnp318MeasurementHandler13ProcessHeaderERKNS_11CountHeaderERKNS_11ICollectionINS_11Group51Var2EEE, @function
_ZN8opendnp318MeasurementHandler13ProcessHeaderERKNS_11CountHeaderERKNS_11ICollectionINS_11Group51Var2EEE:
.LFB2386:
	.cfi_startproc
	pushq	%r12
	.cfi_def_cfa_offset 16
	.cfi_offset 12, -16
	movq	%rdi, %r12
	pushq	%rbp
	.cfi_def_cfa_offset 24
	.cfi_offset 6, -24
	pushq	%rbx
	.cfi_def_cfa_offset 32
	.cfi_offset 3, -32
	movq	%rdx, %rbx
	subq	$32, %rsp
	.cfi_def_cfa_offset 64
	leaq	8(%rsp), %rbp
	movq	%rbp, %rdi
	call	_ZN8opendnp311Group51Var2C1Ev@PLT
	movq	(%rbx), %rax
	movq	%rbx, %rdi
	call	*(%rax)
	cmpq	$1, %rax
	jne	.L24
	movq	_ZTVN8opendnp314FunctorVisitorINS_11Group51Var2EZNKS_11ICollectionIS1_E13ReadOnlyValueERS1_EUlRKS1_E_EE@GOTPCREL(%rip), %rax
	movq	%rbp, %xmm1
	leaq	16(%rsp), %rsi
	movq	%rbx, %rdi
	addq	$16, %rax
	movq	%rax, %xmm0
	movq	(%rbx), %rax
	punpcklqdq	%xmm1, %xmm0
	movaps	%xmm0, 16(%rsp)
	call	*8(%rax)
	movq	8(%rsp), %rax
	movb	$2, 72(%r12)
	movq	%rax, 80(%r12)
.L24:
	addq	$32, %rsp
	.cfi_def_cfa_offset 32
	xorl	%eax, %eax
	popq	%rbx
	.cfi_def_cfa_offset 24
	popq	%rbp
	.cfi_def_cfa_offset 16
	popq	%r12
	.cfi_def_cfa_offset 8
	ret
	.cfi_endproc
.LFE2386:
	.size	_ZN8opendnp318MeasurementHandler13ProcessHeaderERKNS_11CountHeaderERKNS_11ICollectionINS_11Group51Var2EEE, .-_ZN8opendnp318MeasurementHandler13ProcessHeaderERKNS_11CountHeaderERKNS_11ICollectionINS_11Group51Var2EEE
	.section	.text._ZNK8opendnp321TransformedCollectionINS_7IndexedINS_6BinaryEEES3_ZNS_18MeasurementHandler14ProcessWithCTOIS2_EENS_8IINFieldERKNS_12HeaderRecordERKNS_11ICollectionINS1_IT_EEEEEUlRKS3_E_E5CountEv,"axG",@progbits,_ZNK8opendnp321TransformedCollectionINS_7IndexedINS_6BinaryEEES3_ZNS_18MeasurementHandler14ProcessWithCTOIS2_EENS_8IINFieldERKNS_12HeaderRecordERKNS_11ICollectionINS1_IT_EEEEEUlRKS3_E_E5CountEv,comdat
	.align 2
	.p2align 4
	.weak	_ZNK8opendnp321TransformedCollectionINS_7IndexedINS_6BinaryEEES3_ZNS_18MeasurementHandler14ProcessWithCTOIS2_EENS_8IINFieldERKNS_12HeaderRecordERKNS_11ICollectionINS1_IT_EEEEEUlRKS3_E_E5CountEv
	.type	_ZNK8opendnp321TransformedCollectionINS_7IndexedINS_6BinaryEEES3_ZNS_18MeasurementHandler14ProcessWithCTOIS2_EENS_8IINFieldERKNS_12HeaderRecordERKNS_11ICollectionINS1_IT_EEEEEUlRKS3_E_E5CountEv, @function
_ZNK8opendnp321TransformedCollectionINS_7IndexedINS_6BinaryEEES3_ZNS_18MeasurementHandler14ProcessWithCTOIS2_EENS_8IINFieldERKNS_12HeaderRecordERKNS_11ICollectionINS1_IT_EEEEEUlRKS3_E_E5CountEv:
.LFB3245:
	.cfi_startproc
	movq	_ZNK8opendnp321TransformedCollectionINS_7IndexedINS_6BinaryEEES3_ZNS_18MeasurementHandler14ProcessWithCTOIS2_EENS_8IINFieldERKNS_12HeaderRecordERKNS_11ICollectionINS1_IT_EEEEEUlRKS3_E_E5CountEv@GOTPCREL(%rip), %rax
.L35:
	movq	8(%rdi), %rdi
	movq	(%rdi), %rdx
	movq	(%rdx), %rdx
	cmpq	%rax, %rdx
	jne	.L27
	movq	8(%rdi), %rdi
	movq	(%rdi), %rdx
	movq	(%rdx), %rdx
	cmpq	%rax, %rdx
	jne	.L27
	movq	8(%rdi), %rdi
	movq	(%rdi), %rdx
	movq	(%rdx), %rdx
	cmpq	%rax, %rdx
	jne	.L27
	movq	8(%rdi), %rdi
	movq	(%rdi), %rdx
	movq	(%rdx), %rdx
	cmpq	%rax, %rdx
	jne	.L27
	movq	8(%rdi), %rdi
	movq	(%rdi), %rdx
	movq	(%rdx), %rdx
	cmpq	%rax, %rdx
	jne	.L27
	movq	8(%rdi), %rdi
	movq	(%rdi), %rdx
	movq	(%rdx), %rdx
	cmpq	%rax, %rdx
	jne	.L27
	movq	8(%rdi), %rdi
	movq	(%rdi), %rdx
	movq	(%rdx), %rdx
	cmpq	%rax, %rdx
	jne	.L27
	movq	8(%rdi), %rdi
	movq	(%rdi), %rdx
	movq	(%rdx), %rdx
	cmpq	%rax, %rdx
	jne	.L27
	movq	8(%rdi), %rdi
	movq	(%rdi), %rdx
	movq	(%rdx), %rdx
	cmpq	%rax, %rdx
	je	.L35
.L27:
	jmp	*%rdx
	.cfi_endproc
.LFE3245:
	.size	_ZNK8opendnp321TransformedCollectionINS_7IndexedINS_6BinaryEEES3_ZNS_18MeasurementHandler14ProcessWithCTOIS2_EENS_8IINFieldERKNS_12HeaderRecordERKNS_11ICollectionINS1_IT_EEEEEUlRKS3_E_E5CountEv, .-_ZNK8opendnp321TransformedCollectionINS_7IndexedINS_6BinaryEEES3_ZNS_18MeasurementHandler14ProcessWithCTOIS2_EENS_8IINFieldERKNS_12HeaderRecordERKNS_11ICollectionINS1_IT_EEEEEUlRKS3_E_E5CountEv
	.section	.text._ZNK8opendnp321TransformedCollectionINS_7IndexedINS_15DoubleBitBinaryEEES3_ZNS_18MeasurementHandler14ProcessWithCTOIS2_EENS_8IINFieldERKNS_12HeaderRecordERKNS_11ICollectionINS1_IT_EEEEEUlRKS3_E_E5CountEv,"axG",@progbits,_ZNK8opendnp321TransformedCollectionINS_7IndexedINS_15DoubleBitBinaryEEES3_ZNS_18MeasurementHandler14ProcessWithCTOIS2_EENS_8IINFieldERKNS_12HeaderRecordERKNS_11ICollectionINS1_IT_EEEEEUlRKS3_E_E5CountEv,comdat
	.align 2
	.p2align 4
	.weak	_ZNK8opendnp321TransformedCollectionINS_7IndexedINS_15DoubleBitBinaryEEES3_ZNS_18MeasurementHandler14ProcessWithCTOIS2_EENS_8IINFieldERKNS_12HeaderRecordERKNS_11ICollectionINS1_IT_EEEEEUlRKS3_E_E5CountEv
	.type	_ZNK8opendnp321TransformedCollectionINS_7IndexedINS_15DoubleBitBinaryEEES3_ZNS_18MeasurementHandler14ProcessWithCTOIS2_EENS_8IINFieldERKNS_12HeaderRecordERKNS_11ICollectionINS1_IT_EEEEEUlRKS3_E_E5CountEv, @function
_ZNK8opendnp321TransformedCollectionINS_7IndexedINS_15DoubleBitBinaryEEES3_ZNS_18MeasurementHandler14ProcessWithCTOIS2_EENS_8IINFieldERKNS_12HeaderRecordERKNS_11ICollectionINS1_IT_EEEEEUlRKS3_E_E5CountEv:
.LFB3242:
	.cfi_startproc
	movq	_ZNK8opendnp321TransformedCollectionINS_7IndexedINS_15DoubleBitBinaryEEES3_ZNS_18MeasurementHandler14ProcessWithCTOIS2_EENS_8IINFieldERKNS_12HeaderRecordERKNS_11ICollectionINS1_IT_EEEEEUlRKS3_E_E5CountEv@GOTPCREL(%rip), %rax
.L46:
	movq	8(%rdi), %rdi
	movq	(%rdi), %rdx
	movq	(%rdx), %rdx
	cmpq	%rax, %rdx
	jne	.L38
	movq	8(%rdi), %rdi
	movq	(%rdi), %rdx
	movq	(%rdx), %rdx
	cmpq	%rax, %rdx
	jne	.L38
	movq	8(%rdi), %rdi
	movq	(%rdi), %rdx
	movq	(%rdx), %rdx
	cmpq	%rax, %rdx
	jne	.L38
	movq	8(%rdi), %rdi
	movq	(%rdi), %rdx
	movq	(%rdx), %rdx
	cmpq	%rax, %rdx
	jne	.L38
	movq	8(%rdi), %rdi
	movq	(%rdi), %rdx
	movq	(%rdx), %rdx
	cmpq	%rax, %rdx
	jne	.L38
	movq	8(%rdi), %rdi
	movq	(%rdi), %rdx
	movq	(%rdx), %rdx
	cmpq	%rax, %rdx
	jne	.L38
	movq	8(%rdi), %rdi
	movq	(%rdi), %rdx
	movq	(%rdx), %rdx
	cmpq	%rax, %rdx
	jne	.L38
	movq	8(%rdi), %rdi
	movq	(%rdi), %rdx
	movq	(%rdx), %rdx
	cmpq	%rax, %rdx
	jne	.L38
	movq	8(%rdi), %rdi
	movq	(%rdi), %rdx
	movq	(%rdx), %rdx
	cmpq	%rax, %rdx
	je	.L46
.L38:
	jmp	*%rdx
	.cfi_endproc
.LFE3242:
	.size	_ZNK8opendnp321TransformedCollectionINS_7IndexedINS_15DoubleBitBinaryEEES3_ZNS_18MeasurementHandler14ProcessWithCTOIS2_EENS_8IINFieldERKNS_12HeaderRecordERKNS_11ICollectionINS1_IT_EEEEEUlRKS3_E_E5CountEv, .-_ZNK8opendnp321TransformedCollectionINS_7IndexedINS_15DoubleBitBinaryEEES3_ZNS_18MeasurementHandler14ProcessWithCTOIS2_EENS_8IINFieldERKNS_12HeaderRecordERKNS_11ICollectionINS1_IT_EEEEEUlRKS3_E_E5CountEv
	.section	.text._ZNK8opendnp321TransformedCollectionINS_7IndexedINS_6BinaryEEES3_ZNS_18MeasurementHandler14ProcessWithCTOIS2_EENS_8IINFieldERKNS_12HeaderRecordERKNS_11ICollectionINS1_IT_EEEEEUlRKS3_E_E7ForeachERNS_8IVisitorIS3_EE,"axG",@progbits,_ZNK8opendnp321TransformedCollectionINS_7IndexedINS_6BinaryEEES3_ZNS_18MeasurementHandler14ProcessWithCTOIS2_EENS_8IINFieldERKNS_12HeaderRecordERKNS_11ICollectionINS1_IT_EEEEEUlRKS3_E_E7ForeachERNS_8IVisitorIS3_EE,comdat
	.align 2
	.p2align 4
	.weak	_ZNK8opendnp321TransformedCollectionINS_7IndexedINS_6BinaryEEES3_ZNS_18MeasurementHandler14ProcessWithCTOIS2_EENS_8IINFieldERKNS_12HeaderRecordERKNS_11ICollectionINS1_IT_EEEEEUlRKS3_E_E7ForeachERNS_8IVisitorIS3_EE
	.type	_ZNK8opendnp321TransformedCollectionINS_7IndexedINS_6BinaryEEES3_ZNS_18MeasurementHandler14ProcessWithCTOIS2_EENS_8IINFieldERKNS_12HeaderRecordERKNS_11ICollectionINS1_IT_EEEEEUlRKS3_E_E7ForeachERNS_8IVisitorIS3_EE, @function
_ZNK8opendnp321TransformedCollectionINS_7IndexedINS_6BinaryEEES3_ZNS_18MeasurementHandler14ProcessWithCTOIS2_EENS_8IINFieldERKNS_12HeaderRecordERKNS_11ICollectionINS1_IT_EEEEEUlRKS3_E_E7ForeachERNS_8IVisitorIS3_EE:
.LFB3246:
	.cfi_startproc
	subq	$296, %rsp
	.cfi_def_cfa_offset 304
	movq	_ZTVN8opendnp314FunctorVisitorINS_7IndexedINS_6BinaryEEEZNKS_21TransformedCollectionIS3_S3_ZNS_18MeasurementHandler14ProcessWithCTOIS2_EENS_8IINFieldERKNS_12HeaderRecordERKNS_11ICollectionINS1_IT_EEEEEUlRKS3_E_E7ForeachERNS_8IVisitorIS3_EEEUlSI_E_EE@GOTPCREL(%rip), %rax
	movq	%rdi, %rdx
	movq	8(%rdi), %rdi
	movq	%rdx, %xmm1
	movq	%rsi, 16(%rsp)
	addq	$16, %rax
	movq	%rax, %xmm0
	punpcklqdq	%xmm1, %xmm0
	movaps	%xmm0, (%rsp)
	movq	(%rdi), %rdx
	movq	8(%rdx), %rcx
	cmpq	_ZNK8opendnp321TransformedCollectionINS_7IndexedINS_6BinaryEEES3_ZNS_18MeasurementHandler14ProcessWithCTOIS2_EENS_8IINFieldERKNS_12HeaderRecordERKNS_11ICollectionINS1_IT_EEEEEUlRKS3_E_E7ForeachERNS_8IVisitorIS3_EE@GOTPCREL(%rip), %rcx
	jne	.L49
	movq	8(%rdi), %rdx
	movq	%rax, 32(%rsp)
	movq	%rdi, 40(%rsp)
	movq	(%rdx), %rsi
	movq	%rsp, 48(%rsp)
	movq	8(%rsi), %r8
	cmpq	%rcx, %r8
	jne	.L50
	movq	8(%rdx), %rdi
	movq	%rdx, 72(%rsp)
	leaq	32(%rsp), %rdx
	movq	%rdx, 80(%rsp)
	movq	(%rdi), %rdx
	movq	%rax, 64(%rsp)
	movq	8(%rdx), %rcx
	cmpq	%r8, %rcx
	jne	.L51
	movq	8(%rdi), %rdx
	leaq	64(%rsp), %rsi
	movq	%rax, 96(%rsp)
	movq	%rsi, 112(%rsp)
	movq	(%rdx), %rsi
	movq	%rdi, 104(%rsp)
	movq	8(%rsi), %r8
	cmpq	%rcx, %r8
	jne	.L52
	movq	8(%rdx), %rdi
	movq	%rdx, 136(%rsp)
	leaq	96(%rsp), %rdx
	movq	%rdx, 144(%rsp)
	movq	(%rdi), %rdx
	movq	%rax, 128(%rsp)
	movq	8(%rdx), %rcx
	cmpq	%r8, %rcx
	jne	.L53
	movq	8(%rdi), %rdx
	leaq	128(%rsp), %rsi
	movq	%rax, 160(%rsp)
	movq	%rsi, 176(%rsp)
	movq	(%rdx), %rsi
	movq	%rdi, 168(%rsp)
	movq	8(%rsi), %r8
	cmpq	%rcx, %r8
	jne	.L54
	movq	8(%rdx), %rdi
	movq	%rdx, 200(%rsp)
	leaq	160(%rsp), %rdx
	movq	%rdx, 208(%rsp)
	movq	(%rdi), %rdx
	movq	%rax, 192(%rsp)
	movq	8(%rdx), %rcx
	cmpq	%r8, %rcx
	jne	.L55
	movq	8(%rdi), %rdx
	leaq	192(%rsp), %rsi
	movq	%rax, 224(%rsp)
	movq	%rsi, 240(%rsp)
	movq	(%rdx), %rsi
	movq	%rdi, 232(%rsp)
	movq	8(%rsi), %r8
	cmpq	%rcx, %r8
	jne	.L56
	movq	8(%rdx), %rdi
	movq	%rax, 256(%rsp)
	leaq	224(%rsp), %rax
	leaq	256(%rsp), %rsi
	movq	%rax, 272(%rsp)
	movq	(%rdi), %rax
	movq	%rdx, 264(%rsp)
	call	*8(%rax)
	addq	$296, %rsp
	.cfi_remember_state
	.cfi_def_cfa_offset 8
	ret
	.p2align 4,,10
	.p2align 3
.L49:
	.cfi_restore_state
	movq	%rsp, %rsi
	call	*%rcx
.L48:
	addq	$296, %rsp
	.cfi_remember_state
	.cfi_def_cfa_offset 8
	ret
	.p2align 4,,10
	.p2align 3
.L52:
	.cfi_restore_state
	leaq	96(%rsp), %rsi
	movq	%rdx, %rdi
	call	*%r8
	addq	$296, %rsp
	.cfi_remember_state
	.cfi_def_cfa_offset 8
	ret
	.p2align 4,,10
	.p2align 3
.L50:
	.cfi_restore_state
	leaq	32(%rsp), %rsi
	movq	%rdx, %rdi
	call	*%r8
	addq	$296, %rsp
	.cfi_remember_state
	.cfi_def_cfa_offset 8
	ret
	.p2align 4,,10
	.p2align 3
.L51:
	.cfi_restore_state
	leaq	64(%rsp), %rsi
	call	*%rcx
	addq	$296, %rsp
	.cfi_remember_state
	.cfi_def_cfa_offset 8
	ret
	.p2align 4,,10
	.p2align 3
.L53:
	.cfi_restore_state
	leaq	128(%rsp), %rsi
	call	*%rcx
	jmp	.L48
	.p2align 4,,10
	.p2align 3
.L54:
	leaq	160(%rsp), %rsi
	movq	%rdx, %rdi
	call	*%r8
	jmp	.L48
	.p2align 4,,10
	.p2align 3
.L55:
	leaq	192(%rsp), %rsi
	call	*%rcx
	jmp	.L48
	.p2align 4,,10
	.p2align 3
.L56:
	leaq	224(%rsp), %rsi
	movq	%rdx, %rdi
	call	*%r8
	jmp	.L48
	.cfi_endproc
.LFE3246:
	.size	_ZNK8opendnp321TransformedCollectionINS_7IndexedINS_6BinaryEEES3_ZNS_18MeasurementHandler14ProcessWithCTOIS2_EENS_8IINFieldERKNS_12HeaderRecordERKNS_11ICollectionINS1_IT_EEEEEUlRKS3_E_E7ForeachERNS_8IVisitorIS3_EE, .-_ZNK8opendnp321TransformedCollectionINS_7IndexedINS_6BinaryEEES3_ZNS_18MeasurementHandler14ProcessWithCTOIS2_EENS_8IINFieldERKNS_12HeaderRecordERKNS_11ICollectionINS1_IT_EEEEEUlRKS3_E_E7ForeachERNS_8IVisitorIS3_EE
	.section	.text._ZNK8opendnp321TransformedCollectionINS_7IndexedINS_15DoubleBitBinaryEEES3_ZNS_18MeasurementHandler14ProcessWithCTOIS2_EENS_8IINFieldERKNS_12HeaderRecordERKNS_11ICollectionINS1_IT_EEEEEUlRKS3_E_E7ForeachERNS_8IVisitorIS3_EE,"axG",@progbits,_ZNK8opendnp321TransformedCollectionINS_7IndexedINS_15DoubleBitBinaryEEES3_ZNS_18MeasurementHandler14ProcessWithCTOIS2_EENS_8IINFieldERKNS_12HeaderRecordERKNS_11ICollectionINS1_IT_EEEEEUlRKS3_E_E7ForeachERNS_8IVisitorIS3_EE,comdat
	.align 2
	.p2align 4
	.weak	_ZNK8opendnp321TransformedCollectionINS_7IndexedINS_15DoubleBitBinaryEEES3_ZNS_18MeasurementHandler14ProcessWithCTOIS2_EENS_8IINFieldERKNS_12HeaderRecordERKNS_11ICollectionINS1_IT_EEEEEUlRKS3_E_E7ForeachERNS_8IVisitorIS3_EE
	.type	_ZNK8opendnp321TransformedCollectionINS_7IndexedINS_15DoubleBitBinaryEEES3_ZNS_18MeasurementHandler14ProcessWithCTOIS2_EENS_8IINFieldERKNS_12HeaderRecordERKNS_11ICollectionINS1_IT_EEEEEUlRKS3_E_E7ForeachERNS_8IVisitorIS3_EE, @function
_ZNK8opendnp321TransformedCollectionINS_7IndexedINS_15DoubleBitBinaryEEES3_ZNS_18MeasurementHandler14ProcessWithCTOIS2_EENS_8IINFieldERKNS_12HeaderRecordERKNS_11ICollectionINS1_IT_EEEEEUlRKS3_E_E7ForeachERNS_8IVisitorIS3_EE:
.LFB3243:
	.cfi_startproc
	subq	$296, %rsp
	.cfi_def_cfa_offset 304
	movq	_ZTVN8opendnp314FunctorVisitorINS_7IndexedINS_15DoubleBitBinaryEEEZNKS_21TransformedCollectionIS3_S3_ZNS_18MeasurementHandler14ProcessWithCTOIS2_EENS_8IINFieldERKNS_12HeaderRecordERKNS_11ICollectionINS1_IT_EEEEEUlRKS3_E_E7ForeachERNS_8IVisitorIS3_EEEUlSI_E_EE@GOTPCREL(%rip), %rax
	movq	%rdi, %rdx
	movq	8(%rdi), %rdi
	movq	%rdx, %xmm1
	movq	%rsi, 16(%rsp)
	addq	$16, %rax
	movq	%rax, %xmm0
	punpcklqdq	%xmm1, %xmm0
	movaps	%xmm0, (%rsp)
	movq	(%rdi), %rdx
	movq	8(%rdx), %rcx
	cmpq	_ZNK8opendnp321TransformedCollectionINS_7IndexedINS_15DoubleBitBinaryEEES3_ZNS_18MeasurementHandler14ProcessWithCTOIS2_EENS_8IINFieldERKNS_12HeaderRecordERKNS_11ICollectionINS1_IT_EEEEEUlRKS3_E_E7ForeachERNS_8IVisitorIS3_EE@GOTPCREL(%rip), %rcx
	jne	.L67
	movq	8(%rdi), %rdx
	movq	%rax, 32(%rsp)
	movq	%rdi, 40(%rsp)
	movq	(%rdx), %rsi
	movq	%rsp, 48(%rsp)
	movq	8(%rsi), %r8
	cmpq	%rcx, %r8
	jne	.L68
	movq	8(%rdx), %rdi
	movq	%rdx, 72(%rsp)
	leaq	32(%rsp), %rdx
	movq	%rdx, 80(%rsp)
	movq	(%rdi), %rdx
	movq	%rax, 64(%rsp)
	movq	8(%rdx), %rcx
	cmpq	%r8, %rcx
	jne	.L69
	movq	8(%rdi), %rdx
	leaq	64(%rsp), %rsi
	movq	%rax, 96(%rsp)
	movq	%rsi, 112(%rsp)
	movq	(%rdx), %rsi
	movq	%rdi, 104(%rsp)
	movq	8(%rsi), %r8
	cmpq	%rcx, %r8
	jne	.L70
	movq	8(%rdx), %rdi
	movq	%rdx, 136(%rsp)
	leaq	96(%rsp), %rdx
	movq	%rdx, 144(%rsp)
	movq	(%rdi), %rdx
	movq	%rax, 128(%rsp)
	movq	8(%rdx), %rcx
	cmpq	%r8, %rcx
	jne	.L71
	movq	8(%rdi), %rdx
	leaq	128(%rsp), %rsi
	movq	%rax, 160(%rsp)
	movq	%rsi, 176(%rsp)
	movq	(%rdx), %rsi
	movq	%rdi, 168(%rsp)
	movq	8(%rsi), %r8
	cmpq	%rcx, %r8
	jne	.L72
	movq	8(%rdx), %rdi
	movq	%rdx, 200(%rsp)
	leaq	160(%rsp), %rdx
	movq	%rdx, 208(%rsp)
	movq	(%rdi), %rdx
	movq	%rax, 192(%rsp)
	movq	8(%rdx), %rcx
	cmpq	%r8, %rcx
	jne	.L73
	movq	8(%rdi), %rdx
	leaq	192(%rsp), %rsi
	movq	%rax, 224(%rsp)
	movq	%rsi, 240(%rsp)
	movq	(%rdx), %rsi
	movq	%rdi, 232(%rsp)
	movq	8(%rsi), %r8
	cmpq	%rcx, %r8
	jne	.L74
	movq	8(%rdx), %rdi
	movq	%rax, 256(%rsp)
	leaq	224(%rsp), %rax
	leaq	256(%rsp), %rsi
	movq	%rax, 272(%rsp)
	movq	(%rdi), %rax
	movq	%rdx, 264(%rsp)
	call	*8(%rax)
	addq	$296, %rsp
	.cfi_remember_state
	.cfi_def_cfa_offset 8
	ret
	.p2align 4,,10
	.p2align 3
.L67:
	.cfi_restore_state
	movq	%rsp, %rsi
	call	*%rcx
.L66:
	addq	$296, %rsp
	.cfi_remember_state
	.cfi_def_cfa_offset 8
	ret
	.p2align 4,,10
	.p2align 3
.L70:
	.cfi_restore_state
	leaq	96(%rsp), %rsi
	movq	%rdx, %rdi
	call	*%r8
	addq	$296, %rsp
	.cfi_remember_state
	.cfi_def_cfa_offset 8
	ret
	.p2align 4,,10
	.p2align 3
.L68:
	.cfi_restore_state
	leaq	32(%rsp), %rsi
	movq	%rdx, %rdi
	call	*%r8
	addq	$296, %rsp
	.cfi_remember_state
	.cfi_def_cfa_offset 8
	ret
	.p2align 4,,10
	.p2align 3
.L69:
	.cfi_restore_state
	leaq	64(%rsp), %rsi
	call	*%rcx
	addq	$296, %rsp
	.cfi_remember_state
	.cfi_def_cfa_offset 8
	ret
	.p2align 4,,10
	.p2align 3
.L71:
	.cfi_restore_state
	leaq	128(%rsp), %rsi
	call	*%rcx
	jmp	.L66
	.p2align 4,,10
	.p2align 3
.L72:
	leaq	160(%rsp), %rsi
	movq	%rdx, %rdi
	call	*%r8
	jmp	.L66
	.p2align 4,,10
	.p2align 3
.L73:
	leaq	192(%rsp), %rsi
	call	*%rcx
	jmp	.L66
	.p2align 4,,10
	.p2align 3
.L74:
	leaq	224(%rsp), %rsi
	movq	%rdx, %rdi
	call	*%r8
	jmp	.L66
	.cfi_endproc
.LFE3243:
	.size	_ZNK8opendnp321TransformedCollectionINS_7IndexedINS_15DoubleBitBinaryEEES3_ZNS_18MeasurementHandler14ProcessWithCTOIS2_EENS_8IINFieldERKNS_12HeaderRecordERKNS_11ICollectionINS1_IT_EEEEEUlRKS3_E_E7ForeachERNS_8IVisitorIS3_EE, .-_ZNK8opendnp321TransformedCollectionINS_7IndexedINS_15DoubleBitBinaryEEES3_ZNS_18MeasurementHandler14ProcessWithCTOIS2_EENS_8IINFieldERKNS_12HeaderRecordERKNS_11ICollectionINS1_IT_EEEEEUlRKS3_E_E7ForeachERNS_8IVisitorIS3_EE
	.section	.text._ZN8opendnp314FunctorVisitorINS_7IndexedINS_15DoubleBitBinaryEEEZNKS_21TransformedCollectionIS3_S3_ZNS_18MeasurementHandler14ProcessWithCTOIS2_EENS_8IINFieldERKNS_12HeaderRecordERKNS_11ICollectionINS1_IT_EEEEEUlRKS3_E_E7ForeachERNS_8IVisitorIS3_EEEUlSI_E_E7OnValueESI_,"axG",@progbits,_ZN8opendnp314FunctorVisitorINS_7IndexedINS_15DoubleBitBinaryEEEZNKS_21TransformedCollectionIS3_S3_ZNS_18MeasurementHandler14ProcessWithCTOIS2_EENS_8IINFieldERKNS_12HeaderRecordERKNS_11ICollectionINS1_IT_EEEEEUlRKS3_E_E7ForeachERNS_8IVisitorIS3_EEEUlSI_E_E7OnValueESI_,comdat
	.align 2
	.p2align 4
	.weak	_ZN8opendnp314FunctorVisitorINS_7IndexedINS_15DoubleBitBinaryEEEZNKS_21TransformedCollectionIS3_S3_ZNS_18MeasurementHandler14ProcessWithCTOIS2_EENS_8IINFieldERKNS_12HeaderRecordERKNS_11ICollectionINS1_IT_EEEEEUlRKS3_E_E7ForeachERNS_8IVisitorIS3_EEEUlSI_E_E7OnValueESI_
	.type	_ZN8opendnp314FunctorVisitorINS_7IndexedINS_15DoubleBitBinaryEEEZNKS_21TransformedCollectionIS3_S3_ZNS_18MeasurementHandler14ProcessWithCTOIS2_EENS_8IINFieldERKNS_12HeaderRecordERKNS_11ICollectionINS1_IT_EEEEEUlRKS3_E_E7ForeachERNS_8IVisitorIS3_EEEUlSI_E_E7OnValueESI_, @function
_ZN8opendnp314FunctorVisitorINS_7IndexedINS_15DoubleBitBinaryEEEZNKS_21TransformedCollectionIS3_S3_ZNS_18MeasurementHandler14ProcessWithCTOIS2_EENS_8IINFieldERKNS_12HeaderRecordERKNS_11ICollectionINS1_IT_EEEEEUlRKS3_E_E7ForeachERNS_8IVisitorIS3_EEEUlSI_E_E7OnValueESI_:
.LFB3306:
	.cfi_startproc
	subq	$296, %rsp
	.cfi_def_cfa_offset 304
	movq	%rdi, %rax
	movq	16(%rdi), %rdi
	movdqu	(%rsi), %xmm0
	movq	8(%rax), %rax
	movq	(%rdi), %rdx
	movq	(%rdx), %rcx
	movaps	%xmm0, (%rsp)
	movdqu	16(%rsi), %xmm0
	movaps	%xmm0, 16(%rsp)
	movq	16(%rax), %rax
	addq	8(%rsi), %rax
	cmpq	_ZN8opendnp314FunctorVisitorINS_7IndexedINS_15DoubleBitBinaryEEEZNKS_21TransformedCollectionIS3_S3_ZNS_18MeasurementHandler14ProcessWithCTOIS2_EENS_8IINFieldERKNS_12HeaderRecordERKNS_11ICollectionINS1_IT_EEEEEUlRKS3_E_E7ForeachERNS_8IVisitorIS3_EEEUlSI_E_E7OnValueESI_@GOTPCREL(%rip), %rcx
	movq	%rax, 8(%rsp)
	jne	.L85
	movq	16(%rdi), %rdx
	movdqa	(%rsp), %xmm1
	movq	(%rdx), %rsi
	movq	(%rsi), %r8
	movq	8(%rdi), %rsi
	movaps	%xmm1, 32(%rsp)
	movaps	%xmm0, 48(%rsp)
	addq	16(%rsi), %rax
	movq	%rax, 40(%rsp)
	cmpq	%rcx, %r8
	jne	.L86
	movq	16(%rdx), %rdi
	movdqa	32(%rsp), %xmm1
	movq	8(%rdx), %rdx
	movq	(%rdi), %rcx
	movq	(%rcx), %rcx
	movaps	%xmm1, 64(%rsp)
	movaps	%xmm0, 80(%rsp)
	addq	16(%rdx), %rax
	movq	%rax, 72(%rsp)
	cmpq	%r8, %rcx
	jne	.L87
	movq	16(%rdi), %rdx
	movdqa	64(%rsp), %xmm1
	movq	(%rdx), %rsi
	movq	(%rsi), %r8
	movq	8(%rdi), %rsi
	movaps	%xmm1, 96(%rsp)
	movaps	%xmm0, 112(%rsp)
	addq	16(%rsi), %rax
	movq	%rax, 104(%rsp)
	cmpq	%rcx, %r8
	jne	.L88
	movq	16(%rdx), %rdi
	movdqa	96(%rsp), %xmm1
	movq	8(%rdx), %rdx
	movq	(%rdi), %rcx
	movq	(%rcx), %rcx
	movaps	%xmm1, 128(%rsp)
	movaps	%xmm0, 144(%rsp)
	addq	16(%rdx), %rax
	movq	%rax, 136(%rsp)
	cmpq	%r8, %rcx
	jne	.L89
	movdqa	128(%rsp), %xmm1
	movq	16(%rdi), %rdx
	movq	(%rdx), %rsi
	movq	(%rsi), %r8
	movq	8(%rdi), %rsi
	movaps	%xmm1, 160(%rsp)
	movaps	%xmm0, 176(%rsp)
	addq	16(%rsi), %rax
	movq	%rax, 168(%rsp)
	cmpq	%rcx, %r8
	jne	.L90
	movdqa	160(%rsp), %xmm1
	movq	16(%rdx), %rdi
	movq	8(%rdx), %rdx
	movq	(%rdi), %rcx
	movq	(%rcx), %rcx
	movaps	%xmm1, 192(%rsp)
	movaps	%xmm0, 208(%rsp)
	addq	16(%rdx), %rax
	movq	%rax, 200(%rsp)
	cmpq	%r8, %rcx
	jne	.L91
	movdqa	192(%rsp), %xmm1
	movq	16(%rdi), %rdx
	movq	(%rdx), %rsi
	movq	(%rsi), %r8
	movq	8(%rdi), %rsi
	movaps	%xmm1, 224(%rsp)
	movaps	%xmm0, 240(%rsp)
	addq	16(%rsi), %rax
	movq	%rax, 232(%rsp)
	cmpq	%rcx, %r8
	jne	.L92
	movq	16(%rdx), %rdi
	movq	8(%rdx), %rdx
	leaq	256(%rsp), %rsi
	movdqa	224(%rsp), %xmm1
	movq	(%rdi), %rcx
	movq	(%rcx), %rcx
	movaps	%xmm1, 256(%rsp)
	movaps	%xmm0, 272(%rsp)
	addq	16(%rdx), %rax
	movq	%rax, 264(%rsp)
	cmpq	%r8, %rcx
	jne	.L104
	call	_ZN8opendnp314FunctorVisitorINS_7IndexedINS_15DoubleBitBinaryEEEZNKS_21TransformedCollectionIS3_S3_ZNS_18MeasurementHandler14ProcessWithCTOIS2_EENS_8IINFieldERKNS_12HeaderRecordERKNS_11ICollectionINS1_IT_EEEEEUlRKS3_E_E7ForeachERNS_8IVisitorIS3_EEEUlSI_E_E7OnValueESI_@PLT
	addq	$296, %rsp
	.cfi_remember_state
	.cfi_def_cfa_offset 8
	ret
	.p2align 4,,10
	.p2align 3
.L85:
	.cfi_restore_state
	movq	%rsp, %rsi
.L104:
	call	*%rcx
.L84:
	addq	$296, %rsp
	.cfi_remember_state
	.cfi_def_cfa_offset 8
	ret
	.p2align 4,,10
	.p2align 3
.L88:
	.cfi_restore_state
	leaq	96(%rsp), %rsi
	movq	%rdx, %rdi
	call	*%r8
	addq	$296, %rsp
	.cfi_remember_state
	.cfi_def_cfa_offset 8
	ret
	.p2align 4,,10
	.p2align 3
.L86:
	.cfi_restore_state
	leaq	32(%rsp), %rsi
	movq	%rdx, %rdi
	call	*%r8
	addq	$296, %rsp
	.cfi_remember_state
	.cfi_def_cfa_offset 8
	ret
	.p2align 4,,10
	.p2align 3
.L87:
	.cfi_restore_state
	leaq	64(%rsp), %rsi
	call	*%rcx
	addq	$296, %rsp
	.cfi_remember_state
	.cfi_def_cfa_offset 8
	ret
	.p2align 4,,10
	.p2align 3
.L89:
	.cfi_restore_state
	leaq	128(%rsp), %rsi
	call	*%rcx
	jmp	.L84
	.p2align 4,,10
	.p2align 3
.L90:
	leaq	160(%rsp), %rsi
	movq	%rdx, %rdi
	call	*%r8
	jmp	.L84
	.p2align 4,,10
	.p2align 3
.L91:
	leaq	192(%rsp), %rsi
	call	*%rcx
	jmp	.L84
	.p2align 4,,10
	.p2align 3
.L92:
	leaq	224(%rsp), %rsi
	movq	%rdx, %rdi
	call	*%r8
	jmp	.L84
	.cfi_endproc
.LFE3306:
	.size	_ZN8opendnp314FunctorVisitorINS_7IndexedINS_15DoubleBitBinaryEEEZNKS_21TransformedCollectionIS3_S3_ZNS_18MeasurementHandler14ProcessWithCTOIS2_EENS_8IINFieldERKNS_12HeaderRecordERKNS_11ICollectionINS1_IT_EEEEEUlRKS3_E_E7ForeachERNS_8IVisitorIS3_EEEUlSI_E_E7OnValueESI_, .-_ZN8opendnp314FunctorVisitorINS_7IndexedINS_15DoubleBitBinaryEEEZNKS_21TransformedCollectionIS3_S3_ZNS_18MeasurementHandler14ProcessWithCTOIS2_EENS_8IINFieldERKNS_12HeaderRecordERKNS_11ICollectionINS1_IT_EEEEEUlRKS3_E_E7ForeachERNS_8IVisitorIS3_EEEUlSI_E_E7OnValueESI_
	.section	.text._ZN8opendnp314FunctorVisitorINS_7IndexedINS_6BinaryEEEZNKS_21TransformedCollectionIS3_S3_ZNS_18MeasurementHandler14ProcessWithCTOIS2_EENS_8IINFieldERKNS_12HeaderRecordERKNS_11ICollectionINS1_IT_EEEEEUlRKS3_E_E7ForeachERNS_8IVisitorIS3_EEEUlSI_E_E7OnValueESI_,"axG",@progbits,_ZN8opendnp314FunctorVisitorINS_7IndexedINS_6BinaryEEEZNKS_21TransformedCollectionIS3_S3_ZNS_18MeasurementHandler14ProcessWithCTOIS2_EENS_8IINFieldERKNS_12HeaderRecordERKNS_11ICollectionINS1_IT_EEEEEUlRKS3_E_E7ForeachERNS_8IVisitorIS3_EEEUlSI_E_E7OnValueESI_,comdat
	.align 2
	.p2align 4
	.weak	_ZN8opendnp314FunctorVisitorINS_7IndexedINS_6BinaryEEEZNKS_21TransformedCollectionIS3_S3_ZNS_18MeasurementHandler14ProcessWithCTOIS2_EENS_8IINFieldERKNS_12HeaderRecordERKNS_11ICollectionINS1_IT_EEEEEUlRKS3_E_E7ForeachERNS_8IVisitorIS3_EEEUlSI_E_E7OnValueESI_
	.type	_ZN8opendnp314FunctorVisitorINS_7IndexedINS_6BinaryEEEZNKS_21TransformedCollectionIS3_S3_ZNS_18MeasurementHandler14ProcessWithCTOIS2_EENS_8IINFieldERKNS_12HeaderRecordERKNS_11ICollectionINS1_IT_EEEEEUlRKS3_E_E7ForeachERNS_8IVisitorIS3_EEEUlSI_E_E7OnValueESI_, @function
_ZN8opendnp314FunctorVisitorINS_7IndexedINS_6BinaryEEEZNKS_21TransformedCollectionIS3_S3_ZNS_18MeasurementHandler14ProcessWithCTOIS2_EENS_8IINFieldERKNS_12HeaderRecordERKNS_11ICollectionINS1_IT_EEEEEUlRKS3_E_E7ForeachERNS_8IVisitorIS3_EEEUlSI_E_E7OnValueESI_:
.LFB3305:
	.cfi_startproc
	subq	$296, %rsp
	.cfi_def_cfa_offset 304
	movq	%rdi, %rax
	movq	16(%rdi), %rdi
	movdqu	(%rsi), %xmm0
	movq	8(%rax), %rax
	movq	(%rdi), %rdx
	movq	(%rdx), %rcx
	movaps	%xmm0, (%rsp)
	movdqu	16(%rsi), %xmm0
	movaps	%xmm0, 16(%rsp)
	movq	16(%rax), %rax
	addq	8(%rsi), %rax
	cmpq	_ZN8opendnp314FunctorVisitorINS_7IndexedINS_6BinaryEEEZNKS_21TransformedCollectionIS3_S3_ZNS_18MeasurementHandler14ProcessWithCTOIS2_EENS_8IINFieldERKNS_12HeaderRecordERKNS_11ICollectionINS1_IT_EEEEEUlRKS3_E_E7ForeachERNS_8IVisitorIS3_EEEUlSI_E_E7OnValueESI_@GOTPCREL(%rip), %rcx
	movq	%rax, 8(%rsp)
	jne	.L106
	movq	16(%rdi), %rdx
	movdqa	(%rsp), %xmm1
	movq	(%rdx), %rsi
	movq	(%rsi), %r8
	movq	8(%rdi), %rsi
	movaps	%xmm1, 32(%rsp)
	movaps	%xmm0, 48(%rsp)
	addq	16(%rsi), %rax
	movq	%rax, 40(%rsp)
	cmpq	%rcx, %r8
	jne	.L107
	movq	16(%rdx), %rdi
	movdqa	32(%rsp), %xmm1
	movq	8(%rdx), %rdx
	movq	(%rdi), %rcx
	movq	(%rcx), %rcx
	movaps	%xmm1, 64(%rsp)
	movaps	%xmm0, 80(%rsp)
	addq	16(%rdx), %rax
	movq	%rax, 72(%rsp)
	cmpq	%r8, %rcx
	jne	.L108
	movq	16(%rdi), %rdx
	movdqa	64(%rsp), %xmm1
	movq	(%rdx), %rsi
	movq	(%rsi), %r8
	movq	8(%rdi), %rsi
	movaps	%xmm1, 96(%rsp)
	movaps	%xmm0, 112(%rsp)
	addq	16(%rsi), %rax
	movq	%rax, 104(%rsp)
	cmpq	%rcx, %r8
	jne	.L109
	movq	16(%rdx), %rdi
	movdqa	96(%rsp), %xmm1
	movq	8(%rdx), %rdx
	movq	(%rdi), %rcx
	movq	(%rcx), %rcx
	movaps	%xmm1, 128(%rsp)
	movaps	%xmm0, 144(%rsp)
	addq	16(%rdx), %rax
	movq	%rax, 136(%rsp)
	cmpq	%r8, %rcx
	jne	.L110
	movdqa	128(%rsp), %xmm1
	movq	16(%rdi), %rdx
	movq	(%rdx), %rsi
	movq	(%rsi), %r8
	movq	8(%rdi), %rsi
	movaps	%xmm1, 160(%rsp)
	movaps	%xmm0, 176(%rsp)
	addq	16(%rsi), %rax
	movq	%rax, 168(%rsp)
	cmpq	%rcx, %r8
	jne	.L111
	movdqa	160(%rsp), %xmm1
	movq	16(%rdx), %rdi
	movq	8(%rdx), %rdx
	movq	(%rdi), %rcx
	movq	(%rcx), %rcx
	movaps	%xmm1, 192(%rsp)
	movaps	%xmm0, 208(%rsp)
	addq	16(%rdx), %rax
	movq	%rax, 200(%rsp)
	cmpq	%r8, %rcx
	jne	.L112
	movdqa	192(%rsp), %xmm1
	movq	16(%rdi), %rdx
	movq	(%rdx), %rsi
	movq	(%rsi), %r8
	movq	8(%rdi), %rsi
	movaps	%xmm1, 224(%rsp)
	movaps	%xmm0, 240(%rsp)
	addq	16(%rsi), %rax
	movq	%rax, 232(%rsp)
	cmpq	%rcx, %r8
	jne	.L113
	movq	16(%rdx), %rdi
	movq	8(%rdx), %rdx
	leaq	256(%rsp), %rsi
	movdqa	224(%rsp), %xmm1
	movq	(%rdi), %rcx
	movq	(%rcx), %rcx
	movaps	%xmm1, 256(%rsp)
	movaps	%xmm0, 272(%rsp)
	addq	16(%rdx), %rax
	movq	%rax, 264(%rsp)
	cmpq	%r8, %rcx
	jne	.L125
	call	_ZN8opendnp314FunctorVisitorINS_7IndexedINS_6BinaryEEEZNKS_21TransformedCollectionIS3_S3_ZNS_18MeasurementHandler14ProcessWithCTOIS2_EENS_8IINFieldERKNS_12HeaderRecordERKNS_11ICollectionINS1_IT_EEEEEUlRKS3_E_E7ForeachERNS_8IVisitorIS3_EEEUlSI_E_E7OnValueESI_@PLT
	addq	$296, %rsp
	.cfi_remember_state
	.cfi_def_cfa_offset 8
	ret
	.p2align 4,,10
	.p2align 3
.L106:
	.cfi_restore_state
	movq	%rsp, %rsi
.L125:
	call	*%rcx
.L105:
	addq	$296, %rsp
	.cfi_remember_state
	.cfi_def_cfa_offset 8
	ret
	.p2align 4,,10
	.p2align 3
.L109:
	.cfi_restore_state
	leaq	96(%rsp), %rsi
	movq	%rdx, %rdi
	call	*%r8
	addq	$296, %rsp
	.cfi_remember_state
	.cfi_def_cfa_offset 8
	ret
	.p2align 4,,10
	.p2align 3
.L107:
	.cfi_restore_state
	leaq	32(%rsp), %rsi
	movq	%rdx, %rdi
	call	*%r8
	addq	$296, %rsp
	.cfi_remember_state
	.cfi_def_cfa_offset 8
	ret
	.p2align 4,,10
	.p2align 3
.L108:
	.cfi_restore_state
	leaq	64(%rsp), %rsi
	call	*%rcx
	addq	$296, %rsp
	.cfi_remember_state
	.cfi_def_cfa_offset 8
	ret
	.p2align 4,,10
	.p2align 3
.L110:
	.cfi_restore_state
	leaq	128(%rsp), %rsi
	call	*%rcx
	jmp	.L105
	.p2align 4,,10
	.p2align 3
.L111:
	leaq	160(%rsp), %rsi
	movq	%rdx, %rdi
	call	*%r8
	jmp	.L105
	.p2align 4,,10
	.p2align 3
.L112:
	leaq	192(%rsp), %rsi
	call	*%rcx
	jmp	.L105
	.p2align 4,,10
	.p2align 3
.L113:
	leaq	224(%rsp), %rsi
	movq	%rdx, %rdi
	call	*%r8
	jmp	.L105
	.cfi_endproc
.LFE3305:
	.size	_ZN8opendnp314FunctorVisitorINS_7IndexedINS_6BinaryEEEZNKS_21TransformedCollectionIS3_S3_ZNS_18MeasurementHandler14ProcessWithCTOIS2_EENS_8IINFieldERKNS_12HeaderRecordERKNS_11ICollectionINS1_IT_EEEEEUlRKS3_E_E7ForeachERNS_8IVisitorIS3_EEEUlSI_E_E7OnValueESI_, .-_ZN8opendnp314FunctorVisitorINS_7IndexedINS_6BinaryEEEZNKS_21TransformedCollectionIS3_S3_ZNS_18MeasurementHandler14ProcessWithCTOIS2_EENS_8IINFieldERKNS_12HeaderRecordERKNS_11ICollectionINS1_IT_EEEEEUlRKS3_E_E7ForeachERNS_8IVisitorIS3_EEEUlSI_E_E7OnValueESI_
	.text
	.align 2
	.p2align 4
	.globl	_ZN8opendnp318MeasurementHandlerC2ERKN7openpal6LoggerEPNS_11ISOEHandlerE
	.type	_ZN8opendnp318MeasurementHandlerC2ERKN7openpal6LoggerEPNS_11ISOEHandlerE, @function
_ZN8opendnp318MeasurementHandlerC2ERKN7openpal6LoggerEPNS_11ISOEHandlerE:
.LFB2368:
	.cfi_startproc
	pushq	%r12
	.cfi_def_cfa_offset 16
	.cfi_offset 12, -16
	movq	%rdx, %r12
	pushq	%rbp
	.cfi_def_cfa_offset 24
	.cfi_offset 6, -24
	movq	%rsi, %rbp
	pushq	%rbx
	.cfi_def_cfa_offset 32
	.cfi_offset 3, -32
	movq	%rdi, %rbx
	call	_ZN8opendnp312IAPDUHandlerC2Ev@PLT
	movq	_ZTVN8opendnp318MeasurementHandlerE@GOTPCREL(%rip), %rax
	addq	$16, %rax
	movq	%rax, (%rbx)
	movdqu	0(%rbp), %xmm0
	movhlps	%xmm0, %xmm1
	movups	%xmm0, 24(%rbx)
	movq	%xmm1, %rax
	testq	%rax, %rax
	je	.L127
	movq	__libc_single_threaded@GOTPCREL(%rip), %rdx
	cmpb	$0, (%rdx)
	je	.L128
	addl	$1, 8(%rax)
.L127:
	movdqu	16(%rbp), %xmm0
	movhlps	%xmm0, %xmm2
	movups	%xmm0, 40(%rbx)
	movq	%xmm2, %rax
	testq	%rax, %rax
	je	.L129
	movq	__libc_single_threaded@GOTPCREL(%rip), %rdx
	cmpb	$0, (%rdx)
	je	.L130
	addl	$1, 8(%rax)
.L129:
	movb	$0, 56(%rbx)
	movq	%r12, 64(%rbx)
	movb	$0, 72(%rbx)
	movq	$0, 80(%rbx)
	popq	%rbx
	.cfi_remember_state
	.cfi_def_cfa_offset 24
	popq	%rbp
	.cfi_def_cfa_offset 16
	popq	%r12
	.cfi_def_cfa_offset 8
	ret
	.p2align 4,,10
	.p2align 3
.L128:
	.cfi_restore_state
	lock addl	$1, 8(%rax)
	jmp	.L127
	.p2align 4,,10
	.p2align 3
.L130:
	lock addl	$1, 8(%rax)
	jmp	.L129
	.cfi_endproc
.LFE2368:
	.size	_ZN8opendnp318MeasurementHandlerC2ERKN7openpal6LoggerEPNS_11ISOEHandlerE, .-_ZN8opendnp318MeasurementHandlerC2ERKN7openpal6LoggerEPNS_11ISOEHandlerE
	.globl	_ZN8opendnp318MeasurementHandlerC1ERKN7openpal6LoggerEPNS_11ISOEHandlerE
	.set	_ZN8opendnp318MeasurementHandlerC1ERKN7openpal6LoggerEPNS_11ISOEHandlerE,_ZN8opendnp318MeasurementHandlerC2ERKN7openpal6LoggerEPNS_11ISOEHandlerE
	.align 2
	.p2align 4
	.globl	_ZN8opendnp318MeasurementHandler12ModeFromTypeENS_14GroupVariationE
	.type	_ZN8opendnp318MeasurementHandler12ModeFromTypeENS_14GroupVariationE, @function
_ZN8opendnp318MeasurementHandler12ModeFromTypeENS_14GroupVariationE:
.LFB2373:
	.cfi_startproc
	jmp	_ZN8opendnp315HasAbsoluteTimeENS_14GroupVariationE@PLT
	.cfi_endproc
.LFE2373:
	.size	_ZN8opendnp318MeasurementHandler12ModeFromTypeENS_14GroupVariationE, .-_ZN8opendnp318MeasurementHandler12ModeFromTypeENS_14GroupVariationE
	.align 2
	.p2align 4
	.globl	_ZN8opendnp318MeasurementHandler15CheckForTxStartEv
	.type	_ZN8opendnp318MeasurementHandler15CheckForTxStartEv, @function
_ZN8opendnp318MeasurementHandler15CheckForTxStartEv:
.LFB2374:
	.cfi_startproc
	cmpb	$0, 56(%rdi)
	jne	.L139
	movb	$1, 56(%rdi)
	movq	64(%rdi), %rdi
	testq	%rdi, %rdi
	je	.L139
	movq	(%rdi), %rax
	jmp	*16(%rax)
	.p2align 4,,10
	.p2align 3
.L139:
	ret
	.cfi_endproc
.LFE2374:
	.size	_ZN8opendnp318MeasurementHandler15CheckForTxStartEv, .-_ZN8opendnp318MeasurementHandler15CheckForTxStartEv
	.align 2
	.p2align 4
	.globl	_ZN8opendnp318MeasurementHandler13ProcessHeaderERKNS_12PrefixHeaderERKNS_11ICollectionINS_7IndexedINS_18BinaryOutputStatusEEEEE
	.type	_ZN8opendnp318MeasurementHandler13ProcessHeaderERKNS_12PrefixHeaderERKNS_11ICollectionINS_7IndexedINS_18BinaryOutputStatusEEEEE, @function
_ZN8opendnp318MeasurementHandler13ProcessHeaderERKNS_12PrefixHeaderERKNS_11ICollectionINS_7IndexedINS_18BinaryOutputStatusEEEEE:
.LFB2398:
	.cfi_startproc
	pushq	%r13
	.cfi_def_cfa_offset 16
	.cfi_offset 13, -16
	pushq	%r12
	.cfi_def_cfa_offset 24
	.cfi_offset 12, -24
	pushq	%rbp
	.cfi_def_cfa_offset 32
	.cfi_offset 6, -32
	movq	%rdi, %rbp
	pushq	%rbx
	.cfi_def_cfa_offset 40
	.cfi_offset 3, -40
	movq	%rsi, %rbx
	subq	$40, %rsp
	.cfi_def_cfa_offset 80
	movzwl	(%rsi), %edi
	movq	%rdx, 8(%rsp)
	call	_ZN8opendnp318MeasurementHandler12ModeFromTypeENS_14GroupVariationE@PLT
	movq	%rbp, %rdi
	movl	%eax, %r13d
	call	_ZN8opendnp318MeasurementHandler15CheckForTxStartEv@PLT
	movq	%rbx, %rdi
	movl	12(%rbx), %r12d
	call	_ZNK8opendnp312HeaderRecord16GetQualifierCodeEv@PLT
	movzwl	(%rbx), %ebx
	movb	%r13b, 23(%rsp)
	movb	%al, 22(%rsp)
	movl	%ebx, %edi
	movw	%bx, 20(%rsp)
	call	_ZN8opendnp37IsEventENS_14GroupVariationE@PLT
	movl	%ebx, %edi
	movb	%al, 24(%rsp)
	call	_ZN8opendnp38HasFlagsENS_14GroupVariationE@PLT
	movq	64(%rbp), %rdi
	movl	%r12d, 28(%rsp)
	leaq	20(%rsp), %rsi
	movb	%al, 25(%rsp)
	movq	8(%rsp), %rdx
	movq	(%rdi), %rax
	call	*72(%rax)
	addq	$40, %rsp
	.cfi_def_cfa_offset 40
	xorl	%eax, %eax
	popq	%rbx
	.cfi_def_cfa_offset 32
	popq	%rbp
	.cfi_def_cfa_offset 24
	popq	%r12
	.cfi_def_cfa_offset 16
	popq	%r13
	.cfi_def_cfa_offset 8
	ret
	.cfi_endproc
.LFE2398:
	.size	_ZN8opendnp318MeasurementHandler13ProcessHeaderERKNS_12PrefixHeaderERKNS_11ICollectionINS_7IndexedINS_18BinaryOutputStatusEEEEE, .-_ZN8opendnp318MeasurementHandler13ProcessHeaderERKNS_12PrefixHeaderERKNS_11ICollectionINS_7IndexedINS_18BinaryOutputStatusEEEEE
	.align 2
	.p2align 4
	.globl	_ZN8opendnp318MeasurementHandler13ProcessHeaderERKNS_12PrefixHeaderERKNS_11ICollectionINS_7IndexedINS_7CounterEEEEE
	.type	_ZN8opendnp318MeasurementHandler13ProcessHeaderERKNS_12PrefixHeaderERKNS_11ICollectionINS_7IndexedINS_7CounterEEEEE, @function
_ZN8opendnp318MeasurementHandler13ProcessHeaderERKNS_12PrefixHeaderERKNS_11ICollectionINS_7IndexedINS_7CounterEEEEE:
.LFB2400:
	.cfi_startproc
	pushq	%r13
	.cfi_def_cfa_offset 16
	.cfi_offset 13, -16
	pushq	%r12
	.cfi_def_cfa_offset 24
	.cfi_offset 12, -24
	pushq	%rbp
	.cfi_def_cfa_offset 32
	.cfi_offset 6, -32
	movq	%rdi, %rbp
	pushq	%rbx
	.cfi_def_cfa_offset 40
	.cfi_offset 3, -40
	movq	%rsi, %rbx
	subq	$40, %rsp
	.cfi_def_cfa_offset 80
	movzwl	(%rsi), %edi
	movq	%rdx, 8(%rsp)
	call	_ZN8opendnp318MeasurementHandler12ModeFromTypeENS_14GroupVariationE@PLT
	movq	%rbp, %rdi
	movl	%eax, %r13d
	call	_ZN8opendnp318MeasurementHandler15CheckForTxStartEv@PLT
	movq	%rbx, %rdi
	movl	12(%rbx), %r12d
	call	_ZNK8opendnp312HeaderRecord16GetQualifierCodeEv@PLT
	movzwl	(%rbx), %ebx
	movb	%r13b, 23(%rsp)
	movb	%al, 22(%rsp)
	movl	%ebx, %edi
	movw	%bx, 20(%rsp)
	call	_ZN8opendnp37IsEventENS_14GroupVariationE@PLT
	movl	%ebx, %edi
	movb	%al, 24(%rsp)
	call	_ZN8opendnp38HasFlagsENS_14GroupVariationE@PLT
	movq	64(%rbp), %rdi
	movl	%r12d, 28(%rsp)
	leaq	20(%rsp), %rsi
	movb	%al, 25(%rsp)
	movq	8(%rsp), %rdx
	movq	(%rdi), %rax
	call	*56(%rax)
	addq	$40, %rsp
	.cfi_def_cfa_offset 40
	xorl	%eax, %eax
	popq	%rbx
	.cfi_def_cfa_offset 32
	popq	%rbp
	.cfi_def_cfa_offset 24
	popq	%r12
	.cfi_def_cfa_offset 16
	popq	%r13
	.cfi_def_cfa_offset 8
	ret
	.cfi_endproc
.LFE2400:
	.size	_ZN8opendnp318MeasurementHandler13ProcessHeaderERKNS_12PrefixHeaderERKNS_11ICollectionINS_7IndexedINS_7CounterEEEEE, .-_ZN8opendnp318MeasurementHandler13ProcessHeaderERKNS_12PrefixHeaderERKNS_11ICollectionINS_7IndexedINS_7CounterEEEEE
	.align 2
	.p2align 4
	.globl	_ZN8opendnp318MeasurementHandler13ProcessHeaderERKNS_12PrefixHeaderERKNS_11ICollectionINS_7IndexedINS_13FrozenCounterEEEEE
	.type	_ZN8opendnp318MeasurementHandler13ProcessHeaderERKNS_12PrefixHeaderERKNS_11ICollectionINS_7IndexedINS_13FrozenCounterEEEEE, @function
_ZN8opendnp318MeasurementHandler13ProcessHeaderERKNS_12PrefixHeaderERKNS_11ICollectionINS_7IndexedINS_13FrozenCounterEEEEE:
.LFB2401:
	.cfi_startproc
	pushq	%r13
	.cfi_def_cfa_offset 16
	.cfi_offset 13, -16
	pushq	%r12
	.cfi_def_cfa_offset 24
	.cfi_offset 12, -24
	pushq	%rbp
	.cfi_def_cfa_offset 32
	.cfi_offset 6, -32
	movq	%rdi, %rbp
	pushq	%rbx
	.cfi_def_cfa_offset 40
	.cfi_offset 3, -40
	movq	%rsi, %rbx
	subq	$40, %rsp
	.cfi_def_cfa_offset 80
	movzwl	(%rsi), %edi
	movq	%rdx, 8(%rsp)
	call	_ZN8opendnp318MeasurementHandler12ModeFromTypeENS_14GroupVariationE@PLT
	movq	%rbp, %rdi
	movl	%eax, %r13d
	call	_ZN8opendnp318MeasurementHandler15CheckForTxStartEv@PLT
	movq	%rbx, %rdi
	movl	12(%rbx), %r12d
	call	_ZNK8opendnp312HeaderRecord16GetQualifierCodeEv@PLT
	movzwl	(%rbx), %ebx
	movb	%r13b, 23(%rsp)
	movb	%al, 22(%rsp)
	movl	%ebx, %edi
	movw	%bx, 20(%rsp)
	call	_ZN8opendnp37IsEventENS_14GroupVariationE@PLT
	movl	%ebx, %edi
	movb	%al, 24(%rsp)
	call	_ZN8opendnp38HasFlagsENS_14GroupVariationE@PLT
	movq	64(%rbp), %rdi
	movl	%r12d, 28(%rsp)
	leaq	20(%rsp), %rsi
	movb	%al, 25(%rsp)
	movq	8(%rsp), %rdx
	movq	(%rdi), %rax
	call	*64(%rax)
	addq	$40, %rsp
	.cfi_def_cfa_offset 40
	xorl	%eax, %eax
	popq	%rbx
	.cfi_def_cfa_offset 32
	popq	%rbp
	.cfi_def_cfa_offset 24
	popq	%r12
	.cfi_def_cfa_offset 16
	popq	%r13
	.cfi_def_cfa_offset 8
	ret
	.cfi_endproc
.LFE2401:
	.size	_ZN8opendnp318MeasurementHandler13ProcessHeaderERKNS_12PrefixHeaderERKNS_11ICollectionINS_7IndexedINS_13FrozenCounterEEEEE, .-_ZN8opendnp318MeasurementHandler13ProcessHeaderERKNS_12PrefixHeaderERKNS_11ICollectionINS_7IndexedINS_13FrozenCounterEEEEE
	.align 2
	.p2align 4
	.globl	_ZN8opendnp318MeasurementHandler13ProcessHeaderERKNS_12PrefixHeaderERKNS_11ICollectionINS_7IndexedINS_6AnalogEEEEE
	.type	_ZN8opendnp318MeasurementHandler13ProcessHeaderERKNS_12PrefixHeaderERKNS_11ICollectionINS_7IndexedINS_6AnalogEEEEE, @function
_ZN8opendnp318MeasurementHandler13ProcessHeaderERKNS_12PrefixHeaderERKNS_11ICollectionINS_7IndexedINS_6AnalogEEEEE:
.LFB2402:
	.cfi_startproc
	pushq	%r13
	.cfi_def_cfa_offset 16
	.cfi_offset 13, -16
	pushq	%r12
	.cfi_def_cfa_offset 24
	.cfi_offset 12, -24
	pushq	%rbp
	.cfi_def_cfa_offset 32
	.cfi_offset 6, -32
	movq	%rdi, %rbp
	pushq	%rbx
	.cfi_def_cfa_offset 40
	.cfi_offset 3, -40
	movq	%rsi, %rbx
	subq	$40, %rsp
	.cfi_def_cfa_offset 80
	movzwl	(%rsi), %edi
	movq	%rdx, 8(%rsp)
	call	_ZN8opendnp318MeasurementHandler12ModeFromTypeENS_14GroupVariationE@PLT
	movq	%rbp, %rdi
	movl	%eax, %r13d
	call	_ZN8opendnp318MeasurementHandler15CheckForTxStartEv@PLT
	movq	%rbx, %rdi
	movl	12(%rbx), %r12d
	call	_ZNK8opendnp312HeaderRecord16GetQualifierCodeEv@PLT
	movzwl	(%rbx), %ebx
	movb	%r13b, 23(%rsp)
	movb	%al, 22(%rsp)
	movl	%ebx, %edi
	movw	%bx, 20(%rsp)
	call	_ZN8opendnp37IsEventENS_14GroupVariationE@PLT
	movl	%ebx, %edi
	movb	%al, 24(%rsp)
	call	_ZN8opendnp38HasFlagsENS_14GroupVariationE@PLT
	movq	64(%rbp), %rdi
	movl	%r12d, 28(%rsp)
	leaq	20(%rsp), %rsi
	movb	%al, 25(%rsp)
	movq	8(%rsp), %rdx
	movq	(%rdi), %rax
	call	*48(%rax)
	addq	$40, %rsp
	.cfi_def_cfa_offset 40
	xorl	%eax, %eax
	popq	%rbx
	.cfi_def_cfa_offset 32
	popq	%rbp
	.cfi_def_cfa_offset 24
	popq	%r12
	.cfi_def_cfa_offset 16
	popq	%r13
	.cfi_def_cfa_offset 8
	ret
	.cfi_endproc
.LFE2402:
	.size	_ZN8opendnp318MeasurementHandler13ProcessHeaderERKNS_12PrefixHeaderERKNS_11ICollectionINS_7IndexedINS_6AnalogEEEEE, .-_ZN8opendnp318MeasurementHandler13ProcessHeaderERKNS_12PrefixHeaderERKNS_11ICollectionINS_7IndexedINS_6AnalogEEEEE
	.align 2
	.p2align 4
	.globl	_ZN8opendnp318MeasurementHandler13ProcessHeaderERKNS_12PrefixHeaderERKNS_11ICollectionINS_7IndexedINS_18AnalogOutputStatusEEEEE
	.type	_ZN8opendnp318MeasurementHandler13ProcessHeaderERKNS_12PrefixHeaderERKNS_11ICollectionINS_7IndexedINS_18AnalogOutputStatusEEEEE, @function
_ZN8opendnp318MeasurementHandler13ProcessHeaderERKNS_12PrefixHeaderERKNS_11ICollectionINS_7IndexedINS_18AnalogOutputStatusEEEEE:
.LFB2403:
	.cfi_startproc
	pushq	%r13
	.cfi_def_cfa_offset 16
	.cfi_offset 13, -16
	pushq	%r12
	.cfi_def_cfa_offset 24
	.cfi_offset 12, -24
	pushq	%rbp
	.cfi_def_cfa_offset 32
	.cfi_offset 6, -32
	movq	%rdi, %rbp
	pushq	%rbx
	.cfi_def_cfa_offset 40
	.cfi_offset 3, -40
	movq	%rsi, %rbx
	subq	$40, %rsp
	.cfi_def_cfa_offset 80
	movzwl	(%rsi), %edi
	movq	%rdx, 8(%rsp)
	call	_ZN8opendnp318MeasurementHandler12ModeFromTypeENS_14GroupVariationE@PLT
	movq	%rbp, %rdi
	movl	%eax, %r13d
	call	_ZN8opendnp318MeasurementHandler15CheckForTxStartEv@PLT
	movq	%rbx, %rdi
	movl	12(%rbx), %r12d
	call	_ZNK8opendnp312HeaderRecord16GetQualifierCodeEv@PLT
	movzwl	(%rbx), %ebx
	movb	%r13b, 23(%rsp)
	movb	%al, 22(%rsp)
	movl	%ebx, %edi
	movw	%bx, 20(%rsp)
	call	_ZN8opendnp37IsEventENS_14GroupVariationE@PLT
	movl	%ebx, %edi
	movb	%al, 24(%rsp)
	call	_ZN8opendnp38HasFlagsENS_14GroupVariationE@PLT
	movq	64(%rbp), %rdi
	movl	%r12d, 28(%rsp)
	leaq	20(%rsp), %rsi
	movb	%al, 25(%rsp)
	movq	8(%rsp), %rdx
	movq	(%rdi), %rax
	call	*80(%rax)
	addq	$40, %rsp
	.cfi_def_cfa_offset 40
	xorl	%eax, %eax
	popq	%rbx
	.cfi_def_cfa_offset 32
	popq	%rbp
	.cfi_def_cfa_offset 24
	popq	%r12
	.cfi_def_cfa_offset 16
	popq	%r13
	.cfi_def_cfa_offset 8
	ret
	.cfi_endproc
.LFE2403:
	.size	_ZN8opendnp318MeasurementHandler13ProcessHeaderERKNS_12PrefixHeaderERKNS_11ICollectionINS_7IndexedINS_18AnalogOutputStatusEEEEE, .-_ZN8opendnp318MeasurementHandler13ProcessHeaderERKNS_12PrefixHeaderERKNS_11ICollectionINS_7IndexedINS_18AnalogOutputStatusEEEEE
	.align 2
	.p2align 4
	.globl	_ZN8opendnp318MeasurementHandler13ProcessHeaderERKNS_12PrefixHeaderERKNS_11ICollectionINS_7IndexedINS_11OctetStringEEEEE
	.type	_ZN8opendnp318MeasurementHandler13ProcessHeaderERKNS_12PrefixHeaderERKNS_11ICollectionINS_7IndexedINS_11OctetStringEEEEE, @function
_ZN8opendnp318MeasurementHandler13ProcessHeaderERKNS_12PrefixHeaderERKNS_11ICollectionINS_7IndexedINS_11OctetStringEEEEE:
.LFB2404:
	.cfi_startproc
	pushq	%r13
	.cfi_def_cfa_offset 16
	.cfi_offset 13, -16
	pushq	%r12
	.cfi_def_cfa_offset 24
	.cfi_offset 12, -24
	pushq	%rbp
	.cfi_def_cfa_offset 32
	.cfi_offset 6, -32
	movq	%rdi, %rbp
	pushq	%rbx
	.cfi_def_cfa_offset 40
	.cfi_offset 3, -40
	movq	%rsi, %rbx
	subq	$40, %rsp
	.cfi_def_cfa_offset 80
	movzwl	(%rsi), %edi
	movq	%rdx, 8(%rsp)
	call	_ZN8opendnp318MeasurementHandler12ModeFromTypeENS_14GroupVariationE@PLT
	movq	%rbp, %rdi
	movl	%eax, %r13d
	call	_ZN8opendnp318MeasurementHandler15CheckForTxStartEv@PLT
	movq	%rbx, %rdi
	movl	12(%rbx), %r12d
	call	_ZNK8opendnp312HeaderRecord16GetQualifierCodeEv@PLT
	movzwl	(%rbx), %ebx
	movb	%r13b, 23(%rsp)
	movb	%al, 22(%rsp)
	movl	%ebx, %edi
	movw	%bx, 20(%rsp)
	call	_ZN8opendnp37IsEventENS_14GroupVariationE@PLT
	movl	%ebx, %edi
	movb	%al, 24(%rsp)
	call	_ZN8opendnp38HasFlagsENS_14GroupVariationE@PLT
	movq	64(%rbp), %rdi
	movl	%r12d, 28(%rsp)
	leaq	20(%rsp), %rsi
	movb	%al, 25(%rsp)
	movq	8(%rsp), %rdx
	movq	(%rdi), %rax
	call	*88(%rax)
	addq	$40, %rsp
	.cfi_def_cfa_offset 40
	xorl	%eax, %eax
	popq	%rbx
	.cfi_def_cfa_offset 32
	popq	%rbp
	.cfi_def_cfa_offset 24
	popq	%r12
	.cfi_def_cfa_offset 16
	popq	%r13
	.cfi_def_cfa_offset 8
	ret
	.cfi_endproc
.LFE2404:
	.size	_ZN8opendnp318MeasurementHandler13ProcessHeaderERKNS_12PrefixHeaderERKNS_11ICollectionINS_7IndexedINS_11OctetStringEEEEE, .-_ZN8opendnp318MeasurementHandler13ProcessHeaderERKNS_12PrefixHeaderERKNS_11ICollectionINS_7IndexedINS_11OctetStringEEEEE
	.align 2
	.p2align 4
	.globl	_ZN8opendnp318MeasurementHandler13ProcessHeaderERKNS_11RangeHeaderERKNS_11ICollectionINS_7IndexedINS_15TimeAndIntervalEEEEE
	.type	_ZN8opendnp318MeasurementHandler13ProcessHeaderERKNS_11RangeHeaderERKNS_11ICollectionINS_7IndexedINS_15TimeAndIntervalEEEEE, @function
_ZN8opendnp318MeasurementHandler13ProcessHeaderERKNS_11RangeHeaderERKNS_11ICollectionINS_7IndexedINS_15TimeAndIntervalEEEEE:
.LFB2395:
	.cfi_startproc
	pushq	%r13
	.cfi_def_cfa_offset 16
	.cfi_offset 13, -16
	pushq	%r12
	.cfi_def_cfa_offset 24
	.cfi_offset 12, -24
	pushq	%rbp
	.cfi_def_cfa_offset 32
	.cfi_offset 6, -32
	movq	%rdi, %rbp
	pushq	%rbx
	.cfi_def_cfa_offset 40
	.cfi_offset 3, -40
	movq	%rsi, %rbx
	subq	$40, %rsp
	.cfi_def_cfa_offset 80
	movzwl	(%rsi), %edi
	movq	%rdx, 8(%rsp)
	call	_ZN8opendnp318MeasurementHandler12ModeFromTypeENS_14GroupVariationE@PLT
	movq	%rbp, %rdi
	movl	%eax, %r13d
	call	_ZN8opendnp318MeasurementHandler15CheckForTxStartEv@PLT
	movq	%rbx, %rdi
	movl	12(%rbx), %r12d
	call	_ZNK8opendnp312HeaderRecord16GetQualifierCodeEv@PLT
	movzwl	(%rbx), %ebx
	movb	%r13b, 23(%rsp)
	movb	%al, 22(%rsp)
	movl	%ebx, %edi
	movw	%bx, 20(%rsp)
	call	_ZN8opendnp37IsEventENS_14GroupVariationE@PLT
	movl	%ebx, %edi
	movb	%al, 24(%rsp)
	call	_ZN8opendnp38HasFlagsENS_14GroupVariationE@PLT
	movq	64(%rbp), %rdi
	movl	%r12d, 28(%rsp)
	leaq	20(%rsp), %rsi
	movb	%al, 25(%rsp)
	movq	8(%rsp), %rdx
	movq	(%rdi), %rax
	call	*96(%rax)
	addq	$40, %rsp
	.cfi_def_cfa_offset 40
	xorl	%eax, %eax
	popq	%rbx
	.cfi_def_cfa_offset 32
	popq	%rbp
	.cfi_def_cfa_offset 24
	popq	%r12
	.cfi_def_cfa_offset 16
	popq	%r13
	.cfi_def_cfa_offset 8
	ret
	.cfi_endproc
.LFE2395:
	.size	_ZN8opendnp318MeasurementHandler13ProcessHeaderERKNS_11RangeHeaderERKNS_11ICollectionINS_7IndexedINS_15TimeAndIntervalEEEEE, .-_ZN8opendnp318MeasurementHandler13ProcessHeaderERKNS_11RangeHeaderERKNS_11ICollectionINS_7IndexedINS_15TimeAndIntervalEEEEE
	.align 2
	.p2align 4
	.globl	_ZN8opendnp318MeasurementHandler13ProcessHeaderERKNS_12PrefixHeaderERKNS_11ICollectionINS_7IndexedINS_18BinaryCommandEventEEEEE
	.type	_ZN8opendnp318MeasurementHandler13ProcessHeaderERKNS_12PrefixHeaderERKNS_11ICollectionINS_7IndexedINS_18BinaryCommandEventEEEEE, @function
_ZN8opendnp318MeasurementHandler13ProcessHeaderERKNS_12PrefixHeaderERKNS_11ICollectionINS_7IndexedINS_18BinaryCommandEventEEEEE:
.LFB2405:
	.cfi_startproc
	pushq	%r13
	.cfi_def_cfa_offset 16
	.cfi_offset 13, -16
	pushq	%r12
	.cfi_def_cfa_offset 24
	.cfi_offset 12, -24
	pushq	%rbp
	.cfi_def_cfa_offset 32
	.cfi_offset 6, -32
	movq	%rdi, %rbp
	pushq	%rbx
	.cfi_def_cfa_offset 40
	.cfi_offset 3, -40
	movq	%rsi, %rbx
	subq	$40, %rsp
	.cfi_def_cfa_offset 80
	movzwl	(%rsi), %edi
	movq	%rdx, 8(%rsp)
	call	_ZN8opendnp318MeasurementHandler12ModeFromTypeENS_14GroupVariationE@PLT
	movq	%rbp, %rdi
	movl	%eax, %r13d
	call	_ZN8opendnp318MeasurementHandler15CheckForTxStartEv@PLT
	movq	%rbx, %rdi
	movl	12(%rbx), %r12d
	call	_ZNK8opendnp312HeaderRecord16GetQualifierCodeEv@PLT
	movzwl	(%rbx), %ebx
	movb	%r13b, 23(%rsp)
	movb	%al, 22(%rsp)
	movl	%ebx, %edi
	movw	%bx, 20(%rsp)
	call	_ZN8opendnp37IsEventENS_14GroupVariationE@PLT
	movl	%ebx, %edi
	movb	%al, 24(%rsp)
	call	_ZN8opendnp38HasFlagsENS_14GroupVariationE@PLT
	movq	64(%rbp), %rdi
	movl	%r12d, 28(%rsp)
	leaq	20(%rsp), %rsi
	movb	%al, 25(%rsp)
	movq	8(%rsp), %rdx
	movq	(%rdi), %rax
	call	*104(%rax)
	addq	$40, %rsp
	.cfi_def_cfa_offset 40
	xorl	%eax, %eax
	popq	%rbx
	.cfi_def_cfa_offset 32
	popq	%rbp
	.cfi_def_cfa_offset 24
	popq	%r12
	.cfi_def_cfa_offset 16
	popq	%r13
	.cfi_def_cfa_offset 8
	ret
	.cfi_endproc
.LFE2405:
	.size	_ZN8opendnp318MeasurementHandler13ProcessHeaderERKNS_12PrefixHeaderERKNS_11ICollectionINS_7IndexedINS_18BinaryCommandEventEEEEE, .-_ZN8opendnp318MeasurementHandler13ProcessHeaderERKNS_12PrefixHeaderERKNS_11ICollectionINS_7IndexedINS_18BinaryCommandEventEEEEE
	.align 2
	.p2align 4
	.globl	_ZN8opendnp318MeasurementHandler13ProcessHeaderERKNS_12PrefixHeaderERKNS_11ICollectionINS_7IndexedINS_18AnalogCommandEventEEEEE
	.type	_ZN8opendnp318MeasurementHandler13ProcessHeaderERKNS_12PrefixHeaderERKNS_11ICollectionINS_7IndexedINS_18AnalogCommandEventEEEEE, @function
_ZN8opendnp318MeasurementHandler13ProcessHeaderERKNS_12PrefixHeaderERKNS_11ICollectionINS_7IndexedINS_18AnalogCommandEventEEEEE:
.LFB2406:
	.cfi_startproc
	pushq	%r13
	.cfi_def_cfa_offset 16
	.cfi_offset 13, -16
	pushq	%r12
	.cfi_def_cfa_offset 24
	.cfi_offset 12, -24
	pushq	%rbp
	.cfi_def_cfa_offset 32
	.cfi_offset 6, -32
	movq	%rdi, %rbp
	pushq	%rbx
	.cfi_def_cfa_offset 40
	.cfi_offset 3, -40
	movq	%rsi, %rbx
	subq	$40, %rsp
	.cfi_def_cfa_offset 80
	movzwl	(%rsi), %edi
	movq	%rdx, 8(%rsp)
	call	_ZN8opendnp318MeasurementHandler12ModeFromTypeENS_14GroupVariationE@PLT
	movq	%rbp, %rdi
	movl	%eax, %r13d
	call	_ZN8opendnp318MeasurementHandler15CheckForTxStartEv@PLT
	movq	%rbx, %rdi
	movl	12(%rbx), %r12d
	call	_ZNK8opendnp312HeaderRecord16GetQualifierCodeEv@PLT
	movzwl	(%rbx), %ebx
	movb	%r13b, 23(%rsp)
	movb	%al, 22(%rsp)
	movl	%ebx, %edi
	movw	%bx, 20(%rsp)
	call	_ZN8opendnp37IsEventENS_14GroupVariationE@PLT
	movl	%ebx, %edi
	movb	%al, 24(%rsp)
	call	_ZN8opendnp38HasFlagsENS_14GroupVariationE@PLT
	movq	64(%rbp), %rdi
	movl	%r12d, 28(%rsp)
	leaq	20(%rsp), %rsi
	movb	%al, 25(%rsp)
	movq	8(%rsp), %rdx
	movq	(%rdi), %rax
	call	*112(%rax)
	addq	$40, %rsp
	.cfi_def_cfa_offset 40
	xorl	%eax, %eax
	popq	%rbx
	.cfi_def_cfa_offset 32
	popq	%rbp
	.cfi_def_cfa_offset 24
	popq	%r12
	.cfi_def_cfa_offset 16
	popq	%r13
	.cfi_def_cfa_offset 8
	ret
	.cfi_endproc
.LFE2406:
	.size	_ZN8opendnp318MeasurementHandler13ProcessHeaderERKNS_12PrefixHeaderERKNS_11ICollectionINS_7IndexedINS_18AnalogCommandEventEEEEE, .-_ZN8opendnp318MeasurementHandler13ProcessHeaderERKNS_12PrefixHeaderERKNS_11ICollectionINS_7IndexedINS_18AnalogCommandEventEEEEE
	.align 2
	.p2align 4
	.globl	_ZN8opendnp318MeasurementHandler13ProcessHeaderERKNS_11CountHeaderERKNS_11ICollectionINS_11Group50Var1EEE
	.type	_ZN8opendnp318MeasurementHandler13ProcessHeaderERKNS_11CountHeaderERKNS_11ICollectionINS_11Group50Var1EEE, @function
_ZN8opendnp318MeasurementHandler13ProcessHeaderERKNS_11CountHeaderERKNS_11ICollectionINS_11Group50Var1EEE:
.LFB2375:
	.cfi_startproc
	pushq	%r12
	.cfi_def_cfa_offset 16
	.cfi_offset 12, -16
	leaq	16+_ZTVN8opendnp321TransformedCollectionINS_11Group50Var1EN7openpal10UInt48TypeEZNS_18MeasurementHandler13ProcessHeaderERKNS_11CountHeaderERKNS_11ICollectionIS1_EEEUlRKS1_E_EE(%rip), %rax
	movq	%rdx, %xmm1
	pushq	%rbp
	.cfi_def_cfa_offset 24
	.cfi_offset 6, -24
	movq	%rax, %xmm0
	movq	%rdi, %rbp
	pushq	%rbx
	.cfi_def_cfa_offset 32
	.cfi_offset 3, -32
	punpcklqdq	%xmm1, %xmm0
	movq	%rsi, %rbx
	subq	$64, %rsp
	.cfi_def_cfa_offset 96
	movaps	%xmm0, (%rsp)
	call	_ZN8opendnp318MeasurementHandler15CheckForTxStartEv@PLT
	movdqa	(%rsp), %xmm0
	movq	%rbx, %rdi
	movl	12(%rbx), %r12d
	movaps	%xmm0, 32(%rsp)
	call	_ZNK8opendnp312HeaderRecord16GetQualifierCodeEv@PLT
	movzwl	(%rbx), %ebx
	movb	$0, 23(%rsp)
	movb	%al, 22(%rsp)
	movl	%ebx, %edi
	movw	%bx, 20(%rsp)
	call	_ZN8opendnp37IsEventENS_14GroupVariationE@PLT
	movl	%ebx, %edi
	movb	%al, 24(%rsp)
	call	_ZN8opendnp38HasFlagsENS_14GroupVariationE@PLT
	movq	64(%rbp), %rdi
	movl	%r12d, 28(%rsp)
	leaq	32(%rsp), %rdx
	movb	%al, 25(%rsp)
	leaq	20(%rsp), %rsi
	movq	(%rdi), %rax
	call	*128(%rax)
	addq	$64, %rsp
	.cfi_def_cfa_offset 32
	xorl	%eax, %eax
	popq	%rbx
	.cfi_def_cfa_offset 24
	popq	%rbp
	.cfi_def_cfa_offset 16
	popq	%r12
	.cfi_def_cfa_offset 8
	ret
	.cfi_endproc
.LFE2375:
	.size	_ZN8opendnp318MeasurementHandler13ProcessHeaderERKNS_11CountHeaderERKNS_11ICollectionINS_11Group50Var1EEE, .-_ZN8opendnp318MeasurementHandler13ProcessHeaderERKNS_11CountHeaderERKNS_11ICollectionINS_11Group50Var1EEE
	.align 2
	.p2align 4
	.globl	_ZN8opendnp318MeasurementHandler13ProcessHeaderERKNS_12PrefixHeaderERKNS_11ICollectionINS_7IndexedINS_12Group122Var2EEEEE
	.type	_ZN8opendnp318MeasurementHandler13ProcessHeaderERKNS_12PrefixHeaderERKNS_11ICollectionINS_7IndexedINS_12Group122Var2EEEEE, @function
_ZN8opendnp318MeasurementHandler13ProcessHeaderERKNS_12PrefixHeaderERKNS_11ICollectionINS_7IndexedINS_12Group122Var2EEEEE:
.LFB2408:
	.cfi_startproc
	pushq	%r13
	.cfi_def_cfa_offset 16
	.cfi_offset 13, -16
	movq	%rdx, %xmm1
	pushq	%r12
	.cfi_def_cfa_offset 24
	.cfi_offset 12, -24
	pushq	%rbp
	.cfi_def_cfa_offset 32
	.cfi_offset 6, -32
	movq	%rdi, %rbp
	pushq	%rbx
	.cfi_def_cfa_offset 40
	.cfi_offset 3, -40
	movq	%rsi, %rbx
	subq	$56, %rsp
	.cfi_def_cfa_offset 96
	movq	_ZTVN8opendnp321TransformedCollectionINS_7IndexedINS_12Group122Var2EEENS1_INS_12SecurityStatEEEZNS_18MeasurementHandler25LoadValuesWithTransformToIS4_S2_EENS_8IINFieldERKNS_12HeaderRecordERKNS_11ICollectionINS1_IT0_EEEEEUlRKS3_E_EE@GOTPCREL(%rip), %rax
	movzwl	(%rsi), %edi
	addq	$16, %rax
	movq	%rax, %xmm0
	punpcklqdq	%xmm1, %xmm0
	movaps	%xmm0, 16(%rsp)
	call	_ZN8opendnp318MeasurementHandler12ModeFromTypeENS_14GroupVariationE@PLT
	movq	%rbp, %rdi
	movl	%eax, %r13d
	call	_ZN8opendnp318MeasurementHandler15CheckForTxStartEv@PLT
	movq	%rbx, %rdi
	movl	12(%rbx), %r12d
	call	_ZNK8opendnp312HeaderRecord16GetQualifierCodeEv@PLT
	movzwl	(%rbx), %ebx
	movb	%r13b, 7(%rsp)
	movb	%al, 6(%rsp)
	movl	%ebx, %edi
	movw	%bx, 4(%rsp)
	call	_ZN8opendnp37IsEventENS_14GroupVariationE@PLT
	movl	%ebx, %edi
	movb	%al, 8(%rsp)
	call	_ZN8opendnp38HasFlagsENS_14GroupVariationE@PLT
	movq	64(%rbp), %rdi
	movl	%r12d, 12(%rsp)
	leaq	16(%rsp), %rdx
	movb	%al, 9(%rsp)
	leaq	4(%rsp), %rsi
	movq	(%rdi), %rax
	call	*120(%rax)
	addq	$56, %rsp
	.cfi_def_cfa_offset 40
	xorl	%eax, %eax
	popq	%rbx
	.cfi_def_cfa_offset 32
	popq	%rbp
	.cfi_def_cfa_offset 24
	popq	%r12
	.cfi_def_cfa_offset 16
	popq	%r13
	.cfi_def_cfa_offset 8
	ret
	.cfi_endproc
.LFE2408:
	.size	_ZN8opendnp318MeasurementHandler13ProcessHeaderERKNS_12PrefixHeaderERKNS_11ICollectionINS_7IndexedINS_12Group122Var2EEEEE, .-_ZN8opendnp318MeasurementHandler13ProcessHeaderERKNS_12PrefixHeaderERKNS_11ICollectionINS_7IndexedINS_12Group122Var2EEEEE
	.align 2
	.p2align 4
	.globl	_ZN8opendnp318MeasurementHandler13ProcessHeaderERKNS_11RangeHeaderERKNS_11ICollectionINS_7IndexedINS_18BinaryOutputStatusEEEEE
	.type	_ZN8opendnp318MeasurementHandler13ProcessHeaderERKNS_11RangeHeaderERKNS_11ICollectionINS_7IndexedINS_18BinaryOutputStatusEEEEE, @function
_ZN8opendnp318MeasurementHandler13ProcessHeaderERKNS_11RangeHeaderERKNS_11ICollectionINS_7IndexedINS_18BinaryOutputStatusEEEEE:
.LFB2389:
	.cfi_startproc
	pushq	%r13
	.cfi_def_cfa_offset 16
	.cfi_offset 13, -16
	pushq	%r12
	.cfi_def_cfa_offset 24
	.cfi_offset 12, -24
	pushq	%rbp
	.cfi_def_cfa_offset 32
	.cfi_offset 6, -32
	movq	%rdi, %rbp
	pushq	%rbx
	.cfi_def_cfa_offset 40
	.cfi_offset 3, -40
	movq	%rsi, %rbx
	subq	$40, %rsp
	.cfi_def_cfa_offset 80
	movzwl	(%rsi), %edi
	movq	%rdx, 8(%rsp)
	call	_ZN8opendnp318MeasurementHandler12ModeFromTypeENS_14GroupVariationE@PLT
	movq	%rbp, %rdi
	movl	%eax, %r13d
	call	_ZN8opendnp318MeasurementHandler15CheckForTxStartEv@PLT
	movq	%rbx, %rdi
	movl	12(%rbx), %r12d
	call	_ZNK8opendnp312HeaderRecord16GetQualifierCodeEv@PLT
	movzwl	(%rbx), %ebx
	movb	%r13b, 23(%rsp)
	movb	%al, 22(%rsp)
	movl	%ebx, %edi
	movw	%bx, 20(%rsp)
	call	_ZN8opendnp37IsEventENS_14GroupVariationE@PLT
	movl	%ebx, %edi
	movb	%al, 24(%rsp)
	call	_ZN8opendnp38HasFlagsENS_14GroupVariationE@PLT
	movq	64(%rbp), %rdi
	movl	%r12d, 28(%rsp)
	leaq	20(%rsp), %rsi
	movb	%al, 25(%rsp)
	movq	8(%rsp), %rdx
	movq	(%rdi), %rax
	call	*72(%rax)
	addq	$40, %rsp
	.cfi_def_cfa_offset 40
	xorl	%eax, %eax
	popq	%rbx
	.cfi_def_cfa_offset 32
	popq	%rbp
	.cfi_def_cfa_offset 24
	popq	%r12
	.cfi_def_cfa_offset 16
	popq	%r13
	.cfi_def_cfa_offset 8
	ret
	.cfi_endproc
.LFE2389:
	.size	_ZN8opendnp318MeasurementHandler13ProcessHeaderERKNS_11RangeHeaderERKNS_11ICollectionINS_7IndexedINS_18BinaryOutputStatusEEEEE, .-_ZN8opendnp318MeasurementHandler13ProcessHeaderERKNS_11RangeHeaderERKNS_11ICollectionINS_7IndexedINS_18BinaryOutputStatusEEEEE
	.align 2
	.p2align 4
	.globl	_ZN8opendnp318MeasurementHandler13ProcessHeaderERKNS_11RangeHeaderERKNS_11ICollectionINS_7IndexedINS_7CounterEEEEE
	.type	_ZN8opendnp318MeasurementHandler13ProcessHeaderERKNS_11RangeHeaderERKNS_11ICollectionINS_7IndexedINS_7CounterEEEEE, @function
_ZN8opendnp318MeasurementHandler13ProcessHeaderERKNS_11RangeHeaderERKNS_11ICollectionINS_7IndexedINS_7CounterEEEEE:
.LFB2390:
	.cfi_startproc
	pushq	%r13
	.cfi_def_cfa_offset 16
	.cfi_offset 13, -16
	pushq	%r12
	.cfi_def_cfa_offset 24
	.cfi_offset 12, -24
	pushq	%rbp
	.cfi_def_cfa_offset 32
	.cfi_offset 6, -32
	movq	%rdi, %rbp
	pushq	%rbx
	.cfi_def_cfa_offset 40
	.cfi_offset 3, -40
	movq	%rsi, %rbx
	subq	$40, %rsp
	.cfi_def_cfa_offset 80
	movzwl	(%rsi), %edi
	movq	%rdx, 8(%rsp)
	call	_ZN8opendnp318MeasurementHandler12ModeFromTypeENS_14GroupVariationE@PLT
	movq	%rbp, %rdi
	movl	%eax, %r13d
	call	_ZN8opendnp318MeasurementHandler15CheckForTxStartEv@PLT
	movq	%rbx, %rdi
	movl	12(%rbx), %r12d
	call	_ZNK8opendnp312HeaderRecord16GetQualifierCodeEv@PLT
	movzwl	(%rbx), %ebx
	movb	%r13b, 23(%rsp)
	movb	%al, 22(%rsp)
	movl	%ebx, %edi
	movw	%bx, 20(%rsp)
	call	_ZN8opendnp37IsEventENS_14GroupVariationE@PLT
	movl	%ebx, %edi
	movb	%al, 24(%rsp)
	call	_ZN8opendnp38HasFlagsENS_14GroupVariationE@PLT
	movq	64(%rbp), %rdi
	movl	%r12d, 28(%rsp)
	leaq	20(%rsp), %rsi
	movb	%al, 25(%rsp)
	movq	8(%rsp), %rdx
	movq	(%rdi), %rax
	call	*56(%rax)
	addq	$40, %rsp
	.cfi_def_cfa_offset 40
	xorl	%eax, %eax
	popq	%rbx
	.cfi_def_cfa_offset 32
	popq	%rbp
	.cfi_def_cfa_offset 24
	popq	%r12
	.cfi_def_cfa_offset 16
	popq	%r13
	.cfi_def_cfa_offset 8
	ret
	.cfi_endproc
.LFE2390:
	.size	_ZN8opendnp318MeasurementHandler13ProcessHeaderERKNS_11RangeHeaderERKNS_11ICollectionINS_7IndexedINS_7CounterEEEEE, .-_ZN8opendnp318MeasurementHandler13ProcessHeaderERKNS_11RangeHeaderERKNS_11ICollectionINS_7IndexedINS_7CounterEEEEE
	.align 2
	.p2align 4
	.globl	_ZN8opendnp318MeasurementHandler13ProcessHeaderERKNS_11RangeHeaderERKNS_11ICollectionINS_7IndexedINS_13FrozenCounterEEEEE
	.type	_ZN8opendnp318MeasurementHandler13ProcessHeaderERKNS_11RangeHeaderERKNS_11ICollectionINS_7IndexedINS_13FrozenCounterEEEEE, @function
_ZN8opendnp318MeasurementHandler13ProcessHeaderERKNS_11RangeHeaderERKNS_11ICollectionINS_7IndexedINS_13FrozenCounterEEEEE:
.LFB2391:
	.cfi_startproc
	pushq	%r13
	.cfi_def_cfa_offset 16
	.cfi_offset 13, -16
	pushq	%r12
	.cfi_def_cfa_offset 24
	.cfi_offset 12, -24
	pushq	%rbp
	.cfi_def_cfa_offset 32
	.cfi_offset 6, -32
	movq	%rdi, %rbp
	pushq	%rbx
	.cfi_def_cfa_offset 40
	.cfi_offset 3, -40
	movq	%rsi, %rbx
	subq	$40, %rsp
	.cfi_def_cfa_offset 80
	movzwl	(%rsi), %edi
	movq	%rdx, 8(%rsp)
	call	_ZN8opendnp318MeasurementHandler12ModeFromTypeENS_14GroupVariationE@PLT
	movq	%rbp, %rdi
	movl	%eax, %r13d
	call	_ZN8opendnp318MeasurementHandler15CheckForTxStartEv@PLT
	movq	%rbx, %rdi
	movl	12(%rbx), %r12d
	call	_ZNK8opendnp312HeaderRecord16GetQualifierCodeEv@PLT
	movzwl	(%rbx), %ebx
	movb	%r13b, 23(%rsp)
	movb	%al, 22(%rsp)
	movl	%ebx, %edi
	movw	%bx, 20(%rsp)
	call	_ZN8opendnp37IsEventENS_14GroupVariationE@PLT
	movl	%ebx, %edi
	movb	%al, 24(%rsp)
	call	_ZN8opendnp38HasFlagsENS_14GroupVariationE@PLT
	movq	64(%rbp), %rdi
	movl	%r12d, 28(%rsp)
	leaq	20(%rsp), %rsi
	movb	%al, 25(%rsp)
	movq	8(%rsp), %rdx
	movq	(%rdi), %rax
	call	*64(%rax)
	addq	$40, %rsp
	.cfi_def_cfa_offset 40
	xorl	%eax, %eax
	popq	%rbx
	.cfi_def_cfa_offset 32
	popq	%rbp
	.cfi_def_cfa_offset 24
	popq	%r12
	.cfi_def_cfa_offset 16
	popq	%r13
	.cfi_def_cfa_offset 8
	ret
	.cfi_endproc
.LFE2391:
	.size	_ZN8opendnp318MeasurementHandler13ProcessHeaderERKNS_11RangeHeaderERKNS_11ICollectionINS_7IndexedINS_13FrozenCounterEEEEE, .-_ZN8opendnp318MeasurementHandler13ProcessHeaderERKNS_11RangeHeaderERKNS_11ICollectionINS_7IndexedINS_13FrozenCounterEEEEE
	.align 2
	.p2align 4
	.globl	_ZN8opendnp318MeasurementHandler13ProcessHeaderERKNS_11RangeHeaderERKNS_11ICollectionINS_7IndexedINS_6AnalogEEEEE
	.type	_ZN8opendnp318MeasurementHandler13ProcessHeaderERKNS_11RangeHeaderERKNS_11ICollectionINS_7IndexedINS_6AnalogEEEEE, @function
_ZN8opendnp318MeasurementHandler13ProcessHeaderERKNS_11RangeHeaderERKNS_11ICollectionINS_7IndexedINS_6AnalogEEEEE:
.LFB2392:
	.cfi_startproc
	pushq	%r13
	.cfi_def_cfa_offset 16
	.cfi_offset 13, -16
	pushq	%r12
	.cfi_def_cfa_offset 24
	.cfi_offset 12, -24
	pushq	%rbp
	.cfi_def_cfa_offset 32
	.cfi_offset 6, -32
	movq	%rdi, %rbp
	pushq	%rbx
	.cfi_def_cfa_offset 40
	.cfi_offset 3, -40
	movq	%rsi, %rbx
	subq	$40, %rsp
	.cfi_def_cfa_offset 80
	movzwl	(%rsi), %edi
	movq	%rdx, 8(%rsp)
	call	_ZN8opendnp318MeasurementHandler12ModeFromTypeENS_14GroupVariationE@PLT
	movq	%rbp, %rdi
	movl	%eax, %r13d
	call	_ZN8opendnp318MeasurementHandler15CheckForTxStartEv@PLT
	movq	%rbx, %rdi
	movl	12(%rbx), %r12d
	call	_ZNK8opendnp312HeaderRecord16GetQualifierCodeEv@PLT
	movzwl	(%rbx), %ebx
	movb	%r13b, 23(%rsp)
	movb	%al, 22(%rsp)
	movl	%ebx, %edi
	movw	%bx, 20(%rsp)
	call	_ZN8opendnp37IsEventENS_14GroupVariationE@PLT
	movl	%ebx, %edi
	movb	%al, 24(%rsp)
	call	_ZN8opendnp38HasFlagsENS_14GroupVariationE@PLT
	movq	64(%rbp), %rdi
	movl	%r12d, 28(%rsp)
	leaq	20(%rsp), %rsi
	movb	%al, 25(%rsp)
	movq	8(%rsp), %rdx
	movq	(%rdi), %rax
	call	*48(%rax)
	addq	$40, %rsp
	.cfi_def_cfa_offset 40
	xorl	%eax, %eax
	popq	%rbx
	.cfi_def_cfa_offset 32
	popq	%rbp
	.cfi_def_cfa_offset 24
	popq	%r12
	.cfi_def_cfa_offset 16
	popq	%r13
	.cfi_def_cfa_offset 8
	ret
	.cfi_endproc
.LFE2392:
	.size	_ZN8opendnp318MeasurementHandler13ProcessHeaderERKNS_11RangeHeaderERKNS_11ICollectionINS_7IndexedINS_6AnalogEEEEE, .-_ZN8opendnp318MeasurementHandler13ProcessHeaderERKNS_11RangeHeaderERKNS_11ICollectionINS_7IndexedINS_6AnalogEEEEE
	.align 2
	.p2align 4
	.globl	_ZN8opendnp318MeasurementHandler13ProcessHeaderERKNS_11RangeHeaderERKNS_11ICollectionINS_7IndexedINS_18AnalogOutputStatusEEEEE
	.type	_ZN8opendnp318MeasurementHandler13ProcessHeaderERKNS_11RangeHeaderERKNS_11ICollectionINS_7IndexedINS_18AnalogOutputStatusEEEEE, @function
_ZN8opendnp318MeasurementHandler13ProcessHeaderERKNS_11RangeHeaderERKNS_11ICollectionINS_7IndexedINS_18AnalogOutputStatusEEEEE:
.LFB2393:
	.cfi_startproc
	pushq	%r13
	.cfi_def_cfa_offset 16
	.cfi_offset 13, -16
	pushq	%r12
	.cfi_def_cfa_offset 24
	.cfi_offset 12, -24
	pushq	%rbp
	.cfi_def_cfa_offset 32
	.cfi_offset 6, -32
	movq	%rdi, %rbp
	pushq	%rbx
	.cfi_def_cfa_offset 40
	.cfi_offset 3, -40
	movq	%rsi, %rbx
	subq	$40, %rsp
	.cfi_def_cfa_offset 80
	movzwl	(%rsi), %edi
	movq	%rdx, 8(%rsp)
	call	_ZN8opendnp318MeasurementHandler12ModeFromTypeENS_14GroupVariationE@PLT
	movq	%rbp, %rdi
	movl	%eax, %r13d
	call	_ZN8opendnp318MeasurementHandler15CheckForTxStartEv@PLT
	movq	%rbx, %rdi
	movl	12(%rbx), %r12d
	call	_ZNK8opendnp312HeaderRecord16GetQualifierCodeEv@PLT
	movzwl	(%rbx), %ebx
	movb	%r13b, 23(%rsp)
	movb	%al, 22(%rsp)
	movl	%ebx, %edi
	movw	%bx, 20(%rsp)
	call	_ZN8opendnp37IsEventENS_14GroupVariationE@PLT
	movl	%ebx, %edi
	movb	%al, 24(%rsp)
	call	_ZN8opendnp38HasFlagsENS_14GroupVariationE@PLT
	movq	64(%rbp), %rdi
	movl	%r12d, 28(%rsp)
	leaq	20(%rsp), %rsi
	movb	%al, 25(%rsp)
	movq	8(%rsp), %rdx
	movq	(%rdi), %rax
	call	*80(%rax)
	addq	$40, %rsp
	.cfi_def_cfa_offset 40
	xorl	%eax, %eax
	popq	%rbx
	.cfi_def_cfa_offset 32
	popq	%rbp
	.cfi_def_cfa_offset 24
	popq	%r12
	.cfi_def_cfa_offset 16
	popq	%r13
	.cfi_def_cfa_offset 8
	ret
	.cfi_endproc
.LFE2393:
	.size	_ZN8opendnp318MeasurementHandler13ProcessHeaderERKNS_11RangeHeaderERKNS_11ICollectionINS_7IndexedINS_18AnalogOutputStatusEEEEE, .-_ZN8opendnp318MeasurementHandler13ProcessHeaderERKNS_11RangeHeaderERKNS_11ICollectionINS_7IndexedINS_18AnalogOutputStatusEEEEE
	.align 2
	.p2align 4
	.globl	_ZN8opendnp318MeasurementHandler13ProcessHeaderERKNS_11RangeHeaderERKNS_11ICollectionINS_7IndexedINS_11OctetStringEEEEE
	.type	_ZN8opendnp318MeasurementHandler13ProcessHeaderERKNS_11RangeHeaderERKNS_11ICollectionINS_7IndexedINS_11OctetStringEEEEE, @function
_ZN8opendnp318MeasurementHandler13ProcessHeaderERKNS_11RangeHeaderERKNS_11ICollectionINS_7IndexedINS_11OctetStringEEEEE:
.LFB2394:
	.cfi_startproc
	pushq	%r13
	.cfi_def_cfa_offset 16
	.cfi_offset 13, -16
	pushq	%r12
	.cfi_def_cfa_offset 24
	.cfi_offset 12, -24
	pushq	%rbp
	.cfi_def_cfa_offset 32
	.cfi_offset 6, -32
	movq	%rdi, %rbp
	pushq	%rbx
	.cfi_def_cfa_offset 40
	.cfi_offset 3, -40
	movq	%rsi, %rbx
	subq	$40, %rsp
	.cfi_def_cfa_offset 80
	movzwl	(%rsi), %edi
	movq	%rdx, 8(%rsp)
	call	_ZN8opendnp318MeasurementHandler12ModeFromTypeENS_14GroupVariationE@PLT
	movq	%rbp, %rdi
	movl	%eax, %r13d
	call	_ZN8opendnp318MeasurementHandler15CheckForTxStartEv@PLT
	movq	%rbx, %rdi
	movl	12(%rbx), %r12d
	call	_ZNK8opendnp312HeaderRecord16GetQualifierCodeEv@PLT
	movzwl	(%rbx), %ebx
	movb	%r13b, 23(%rsp)
	movb	%al, 22(%rsp)
	movl	%ebx, %edi
	movw	%bx, 20(%rsp)
	call	_ZN8opendnp37IsEventENS_14GroupVariationE@PLT
	movl	%ebx, %edi
	movb	%al, 24(%rsp)
	call	_ZN8opendnp38HasFlagsENS_14GroupVariationE@PLT
	movq	64(%rbp), %rdi
	movl	%r12d, 28(%rsp)
	leaq	20(%rsp), %rsi
	movb	%al, 25(%rsp)
	movq	8(%rsp), %rdx
	movq	(%rdi), %rax
	call	*88(%rax)
	addq	$40, %rsp
	.cfi_def_cfa_offset 40
	xorl	%eax, %eax
	popq	%rbx
	.cfi_def_cfa_offset 32
	popq	%rbp
	.cfi_def_cfa_offset 24
	popq	%r12
	.cfi_def_cfa_offset 16
	popq	%r13
	.cfi_def_cfa_offset 8
	ret
	.cfi_endproc
.LFE2394:
	.size	_ZN8opendnp318MeasurementHandler13ProcessHeaderERKNS_11RangeHeaderERKNS_11ICollectionINS_7IndexedINS_11OctetStringEEEEE, .-_ZN8opendnp318MeasurementHandler13ProcessHeaderERKNS_11RangeHeaderERKNS_11ICollectionINS_7IndexedINS_11OctetStringEEEEE
	.align 2
	.p2align 4
	.globl	_ZN8opendnp318MeasurementHandler13ProcessHeaderERKNS_11RangeHeaderERKNS_11ICollectionINS_7IndexedINS_6BinaryEEEEE
	.type	_ZN8opendnp318MeasurementHandler13ProcessHeaderERKNS_11RangeHeaderERKNS_11ICollectionINS_7IndexedINS_6BinaryEEEEE, @function
_ZN8opendnp318MeasurementHandler13ProcessHeaderERKNS_11RangeHeaderERKNS_11ICollectionINS_7IndexedINS_6BinaryEEEEE:
.LFB2387:
	.cfi_startproc
	pushq	%r13
	.cfi_def_cfa_offset 16
	.cfi_offset 13, -16
	pushq	%r12
	.cfi_def_cfa_offset 24
	.cfi_offset 12, -24
	pushq	%rbp
	.cfi_def_cfa_offset 32
	.cfi_offset 6, -32
	movq	%rdi, %rbp
	pushq	%rbx
	.cfi_def_cfa_offset 40
	.cfi_offset 3, -40
	movq	%rsi, %rbx
	subq	$40, %rsp
	.cfi_def_cfa_offset 80
	movzwl	(%rsi), %edi
	movq	%rdx, 8(%rsp)
	call	_ZN8opendnp318MeasurementHandler12ModeFromTypeENS_14GroupVariationE@PLT
	movq	%rbp, %rdi
	movl	%eax, %r13d
	call	_ZN8opendnp318MeasurementHandler15CheckForTxStartEv@PLT
	movq	%rbx, %rdi
	movl	12(%rbx), %r12d
	call	_ZNK8opendnp312HeaderRecord16GetQualifierCodeEv@PLT
	movzwl	(%rbx), %ebx
	movb	%r13b, 23(%rsp)
	movb	%al, 22(%rsp)
	movl	%ebx, %edi
	movw	%bx, 20(%rsp)
	call	_ZN8opendnp37IsEventENS_14GroupVariationE@PLT
	movl	%ebx, %edi
	movb	%al, 24(%rsp)
	call	_ZN8opendnp38HasFlagsENS_14GroupVariationE@PLT
	movq	64(%rbp), %rdi
	movl	%r12d, 28(%rsp)
	leaq	20(%rsp), %rsi
	movb	%al, 25(%rsp)
	movq	8(%rsp), %rdx
	movq	(%rdi), %rax
	call	*32(%rax)
	addq	$40, %rsp
	.cfi_def_cfa_offset 40
	xorl	%eax, %eax
	popq	%rbx
	.cfi_def_cfa_offset 32
	popq	%rbp
	.cfi_def_cfa_offset 24
	popq	%r12
	.cfi_def_cfa_offset 16
	popq	%r13
	.cfi_def_cfa_offset 8
	ret
	.cfi_endproc
.LFE2387:
	.size	_ZN8opendnp318MeasurementHandler13ProcessHeaderERKNS_11RangeHeaderERKNS_11ICollectionINS_7IndexedINS_6BinaryEEEEE, .-_ZN8opendnp318MeasurementHandler13ProcessHeaderERKNS_11RangeHeaderERKNS_11ICollectionINS_7IndexedINS_6BinaryEEEEE
	.align 2
	.p2align 4
	.globl	_ZN8opendnp318MeasurementHandler13ProcessHeaderERKNS_11RangeHeaderERKNS_11ICollectionINS_7IndexedINS_15DoubleBitBinaryEEEEE
	.type	_ZN8opendnp318MeasurementHandler13ProcessHeaderERKNS_11RangeHeaderERKNS_11ICollectionINS_7IndexedINS_15DoubleBitBinaryEEEEE, @function
_ZN8opendnp318MeasurementHandler13ProcessHeaderERKNS_11RangeHeaderERKNS_11ICollectionINS_7IndexedINS_15DoubleBitBinaryEEEEE:
.LFB2388:
	.cfi_startproc
	pushq	%r13
	.cfi_def_cfa_offset 16
	.cfi_offset 13, -16
	pushq	%r12
	.cfi_def_cfa_offset 24
	.cfi_offset 12, -24
	pushq	%rbp
	.cfi_def_cfa_offset 32
	.cfi_offset 6, -32
	movq	%rdi, %rbp
	pushq	%rbx
	.cfi_def_cfa_offset 40
	.cfi_offset 3, -40
	movq	%rsi, %rbx
	subq	$40, %rsp
	.cfi_def_cfa_offset 80
	movzwl	(%rsi), %edi
	movq	%rdx, 8(%rsp)
	call	_ZN8opendnp318MeasurementHandler12ModeFromTypeENS_14GroupVariationE@PLT
	movq	%rbp, %rdi
	movl	%eax, %r13d
	call	_ZN8opendnp318MeasurementHandler15CheckForTxStartEv@PLT
	movq	%rbx, %rdi
	movl	12(%rbx), %r12d
	call	_ZNK8opendnp312HeaderRecord16GetQualifierCodeEv@PLT
	movzwl	(%rbx), %ebx
	movb	%r13b, 23(%rsp)
	movb	%al, 22(%rsp)
	movl	%ebx, %edi
	movw	%bx, 20(%rsp)
	call	_ZN8opendnp37IsEventENS_14GroupVariationE@PLT
	movl	%ebx, %edi
	movb	%al, 24(%rsp)
	call	_ZN8opendnp38HasFlagsENS_14GroupVariationE@PLT
	movq	64(%rbp), %rdi
	movl	%r12d, 28(%rsp)
	leaq	20(%rsp), %rsi
	movb	%al, 25(%rsp)
	movq	8(%rsp), %rdx
	movq	(%rdi), %rax
	call	*40(%rax)
	addq	$40, %rsp
	.cfi_def_cfa_offset 40
	xorl	%eax, %eax
	popq	%rbx
	.cfi_def_cfa_offset 32
	popq	%rbp
	.cfi_def_cfa_offset 24
	popq	%r12
	.cfi_def_cfa_offset 16
	popq	%r13
	.cfi_def_cfa_offset 8
	ret
	.cfi_endproc
.LFE2388:
	.size	_ZN8opendnp318MeasurementHandler13ProcessHeaderERKNS_11RangeHeaderERKNS_11ICollectionINS_7IndexedINS_15DoubleBitBinaryEEEEE, .-_ZN8opendnp318MeasurementHandler13ProcessHeaderERKNS_11RangeHeaderERKNS_11ICollectionINS_7IndexedINS_15DoubleBitBinaryEEEEE
	.align 2
	.p2align 4
	.globl	_ZN8opendnp318MeasurementHandler13ProcessHeaderERKNS_11RangeHeaderERKNS_11ICollectionINS_7IndexedINS_12Group121Var1EEEEE
	.type	_ZN8opendnp318MeasurementHandler13ProcessHeaderERKNS_11RangeHeaderERKNS_11ICollectionINS_7IndexedINS_12Group121Var1EEEEE, @function
_ZN8opendnp318MeasurementHandler13ProcessHeaderERKNS_11RangeHeaderERKNS_11ICollectionINS_7IndexedINS_12Group121Var1EEEEE:
.LFB2396:
	.cfi_startproc
	pushq	%r13
	.cfi_def_cfa_offset 16
	.cfi_offset 13, -16
	movq	%rdx, %xmm1
	pushq	%r12
	.cfi_def_cfa_offset 24
	.cfi_offset 12, -24
	pushq	%rbp
	.cfi_def_cfa_offset 32
	.cfi_offset 6, -32
	movq	%rdi, %rbp
	pushq	%rbx
	.cfi_def_cfa_offset 40
	.cfi_offset 3, -40
	movq	%rsi, %rbx
	subq	$56, %rsp
	.cfi_def_cfa_offset 96
	movq	_ZTVN8opendnp321TransformedCollectionINS_7IndexedINS_12Group121Var1EEENS1_INS_12SecurityStatEEEZNS_18MeasurementHandler25LoadValuesWithTransformToIS4_S2_EENS_8IINFieldERKNS_12HeaderRecordERKNS_11ICollectionINS1_IT0_EEEEEUlRKS3_E_EE@GOTPCREL(%rip), %rax
	movzwl	(%rsi), %edi
	addq	$16, %rax
	movq	%rax, %xmm0
	punpcklqdq	%xmm1, %xmm0
	movaps	%xmm0, 16(%rsp)
	call	_ZN8opendnp318MeasurementHandler12ModeFromTypeENS_14GroupVariationE@PLT
	movq	%rbp, %rdi
	movl	%eax, %r13d
	call	_ZN8opendnp318MeasurementHandler15CheckForTxStartEv@PLT
	movq	%rbx, %rdi
	movl	12(%rbx), %r12d
	call	_ZNK8opendnp312HeaderRecord16GetQualifierCodeEv@PLT
	movzwl	(%rbx), %ebx
	movb	%r13b, 7(%rsp)
	movb	%al, 6(%rsp)
	movl	%ebx, %edi
	movw	%bx, 4(%rsp)
	call	_ZN8opendnp37IsEventENS_14GroupVariationE@PLT
	movl	%ebx, %edi
	movb	%al, 8(%rsp)
	call	_ZN8opendnp38HasFlagsENS_14GroupVariationE@PLT
	movq	64(%rbp), %rdi
	movl	%r12d, 12(%rsp)
	leaq	16(%rsp), %rdx
	movb	%al, 9(%rsp)
	leaq	4(%rsp), %rsi
	movq	(%rdi), %rax
	call	*120(%rax)
	addq	$56, %rsp
	.cfi_def_cfa_offset 40
	xorl	%eax, %eax
	popq	%rbx
	.cfi_def_cfa_offset 32
	popq	%rbp
	.cfi_def_cfa_offset 24
	popq	%r12
	.cfi_def_cfa_offset 16
	popq	%r13
	.cfi_def_cfa_offset 8
	ret
	.cfi_endproc
.LFE2396:
	.size	_ZN8opendnp318MeasurementHandler13ProcessHeaderERKNS_11RangeHeaderERKNS_11ICollectionINS_7IndexedINS_12Group121Var1EEEEE, .-_ZN8opendnp318MeasurementHandler13ProcessHeaderERKNS_11RangeHeaderERKNS_11ICollectionINS_7IndexedINS_12Group121Var1EEEEE
	.align 2
	.p2align 4
	.globl	_ZN8opendnp318MeasurementHandler13ProcessHeaderERKNS_12PrefixHeaderERKNS_11ICollectionINS_7IndexedINS_12Group122Var1EEEEE
	.type	_ZN8opendnp318MeasurementHandler13ProcessHeaderERKNS_12PrefixHeaderERKNS_11ICollectionINS_7IndexedINS_12Group122Var1EEEEE, @function
_ZN8opendnp318MeasurementHandler13ProcessHeaderERKNS_12PrefixHeaderERKNS_11ICollectionINS_7IndexedINS_12Group122Var1EEEEE:
.LFB2407:
	.cfi_startproc
	pushq	%r13
	.cfi_def_cfa_offset 16
	.cfi_offset 13, -16
	movq	%rdx, %xmm1
	pushq	%r12
	.cfi_def_cfa_offset 24
	.cfi_offset 12, -24
	pushq	%rbp
	.cfi_def_cfa_offset 32
	.cfi_offset 6, -32
	movq	%rdi, %rbp
	pushq	%rbx
	.cfi_def_cfa_offset 40
	.cfi_offset 3, -40
	movq	%rsi, %rbx
	subq	$56, %rsp
	.cfi_def_cfa_offset 96
	movq	_ZTVN8opendnp321TransformedCollectionINS_7IndexedINS_12Group122Var1EEENS1_INS_12SecurityStatEEEZNS_18MeasurementHandler25LoadValuesWithTransformToIS4_S2_EENS_8IINFieldERKNS_12HeaderRecordERKNS_11ICollectionINS1_IT0_EEEEEUlRKS3_E_EE@GOTPCREL(%rip), %rax
	movzwl	(%rsi), %edi
	addq	$16, %rax
	movq	%rax, %xmm0
	punpcklqdq	%xmm1, %xmm0
	movaps	%xmm0, 16(%rsp)
	call	_ZN8opendnp318MeasurementHandler12ModeFromTypeENS_14GroupVariationE@PLT
	movq	%rbp, %rdi
	movl	%eax, %r13d
	call	_ZN8opendnp318MeasurementHandler15CheckForTxStartEv@PLT
	movq	%rbx, %rdi
	movl	12(%rbx), %r12d
	call	_ZNK8opendnp312HeaderRecord16GetQualifierCodeEv@PLT
	movzwl	(%rbx), %ebx
	movb	%r13b, 7(%rsp)
	movb	%al, 6(%rsp)
	movl	%ebx, %edi
	movw	%bx, 4(%rsp)
	call	_ZN8opendnp37IsEventENS_14GroupVariationE@PLT
	movl	%ebx, %edi
	movb	%al, 8(%rsp)
	call	_ZN8opendnp38HasFlagsENS_14GroupVariationE@PLT
	movq	64(%rbp), %rdi
	movl	%r12d, 12(%rsp)
	leaq	16(%rsp), %rdx
	movb	%al, 9(%rsp)
	leaq	4(%rsp), %rsi
	movq	(%rdi), %rax
	call	*120(%rax)
	addq	$56, %rsp
	.cfi_def_cfa_offset 40
	xorl	%eax, %eax
	popq	%rbx
	.cfi_def_cfa_offset 32
	popq	%rbp
	.cfi_def_cfa_offset 24
	popq	%r12
	.cfi_def_cfa_offset 16
	popq	%r13
	.cfi_def_cfa_offset 8
	ret
	.cfi_endproc
.LFE2407:
	.size	_ZN8opendnp318MeasurementHandler13ProcessHeaderERKNS_12PrefixHeaderERKNS_11ICollectionINS_7IndexedINS_12Group122Var1EEEEE, .-_ZN8opendnp318MeasurementHandler13ProcessHeaderERKNS_12PrefixHeaderERKNS_11ICollectionINS_7IndexedINS_12Group122Var1EEEEE
	.section	.rodata.str1.1,"aMS",@progbits,1
.LC0:
	.string	"No prior CTO objects for %s"
	.section	.rodata.str1.8,"aMS",@progbits,1
	.align 8
.LC1:
	.string	"/opt/PLC/OpenPLC_v3/utils/dnp3_src/cpp/libs/src/opendnp3/master/MeasurementHandler.h(154)"
	.text
	.align 2
	.p2align 4
	.globl	_ZN8opendnp318MeasurementHandler13ProcessHeaderERKNS_12PrefixHeaderERKNS_11ICollectionINS_7IndexedINS_6BinaryEEEEE
	.type	_ZN8opendnp318MeasurementHandler13ProcessHeaderERKNS_12PrefixHeaderERKNS_11ICollectionINS_7IndexedINS_6BinaryEEEEE, @function
_ZN8opendnp318MeasurementHandler13ProcessHeaderERKNS_12PrefixHeaderERKNS_11ICollectionINS_7IndexedINS_6BinaryEEEEE:
.LFB2397:
	.cfi_startproc
	pushq	%r14
	.cfi_def_cfa_offset 16
	.cfi_offset 14, -16
	pushq	%r12
	.cfi_def_cfa_offset 24
	.cfi_offset 12, -24
	pushq	%rbp
	.cfi_def_cfa_offset 32
	.cfi_offset 6, -32
	movq	%rdi, %rbp
	pushq	%rbx
	.cfi_def_cfa_offset 40
	.cfi_offset 3, -40
	movq	%rsi, %rbx
	subq	$168, %rsp
	.cfi_def_cfa_offset 208
	movzwl	(%rsi), %edi
	cmpw	$515, %di
	je	.L198
	movq	%rdx, 8(%rsp)
	call	_ZN8opendnp318MeasurementHandler12ModeFromTypeENS_14GroupVariationE@PLT
	movq	%rbp, %rdi
	movl	%eax, %r14d
	call	_ZN8opendnp318MeasurementHandler15CheckForTxStartEv@PLT
	movq	%rbx, %rdi
	movl	12(%rbx), %r12d
	call	_ZNK8opendnp312HeaderRecord16GetQualifierCodeEv@PLT
	movzwl	(%rbx), %ebx
	movb	%r14b, 35(%rsp)
	movb	%al, 34(%rsp)
	movl	%ebx, %edi
	movw	%bx, 32(%rsp)
	call	_ZN8opendnp37IsEventENS_14GroupVariationE@PLT
	movl	%ebx, %edi
	movb	%al, 36(%rsp)
	call	_ZN8opendnp38HasFlagsENS_14GroupVariationE@PLT
	movq	64(%rbp), %rdi
	movl	%r12d, 40(%rsp)
	leaq	32(%rsp), %rsi
	movb	%al, 37(%rsp)
	movq	8(%rsp), %rdx
	movq	(%rdi), %rax
	call	*32(%rax)
	addq	$168, %rsp
	.cfi_remember_state
	.cfi_def_cfa_offset 40
	xorl	%eax, %eax
	popq	%rbx
	.cfi_def_cfa_offset 32
	popq	%rbp
	.cfi_def_cfa_offset 24
	popq	%r12
	.cfi_def_cfa_offset 16
	popq	%r14
	.cfi_def_cfa_offset 8
	ret
	.p2align 4,,10
	.p2align 3
.L198:
	.cfi_restore_state
	movzbl	72(%rbp), %r12d
	testb	%r12b, %r12b
	jne	.L190
	addq	$24, %rbp
	leaq	32(%rsp), %rsi
	movl	$4, 32(%rsp)
	movq	%rbp, %rdi
	call	_ZNK7openpal6Logger9IsEnabledERKNS_10LogFiltersE@PLT
	testb	%al, %al
	jne	.L199
.L191:
	xorl	%eax, %eax
	leaq	32(%rsp), %rdi
	movl	$10, %esi
	movw	%ax, 32(%rsp)
	call	_ZN8opendnp38IINField6SetBitENS_6IINBitE@PLT
	movzwl	32(%rsp), %eax
	addq	$168, %rsp
	.cfi_remember_state
	.cfi_def_cfa_offset 40
	popq	%rbx
	.cfi_def_cfa_offset 32
	popq	%rbp
	.cfi_def_cfa_offset 24
	popq	%r12
	.cfi_def_cfa_offset 16
	popq	%r14
	.cfi_def_cfa_offset 8
	ret
	.p2align 4,,10
	.p2align 3
.L190:
	.cfi_restore_state
	movq	_ZTVN8opendnp321TransformedCollectionINS_7IndexedINS_6BinaryEEES3_ZNS_18MeasurementHandler14ProcessWithCTOIS2_EENS_8IINFieldERKNS_12HeaderRecordERKNS_11ICollectionINS1_IT_EEEEEUlRKS3_E_EE@GOTPCREL(%rip), %rcx
	movq	%rdx, %xmm1
	movq	80(%rbp), %rax
	movq	%rbp, %rdi
	addq	$16, %rcx
	movq	%rax, 48(%rsp)
	movq	%rcx, %xmm0
	punpcklqdq	%xmm1, %xmm0
	movaps	%xmm0, 32(%rsp)
	call	_ZN8opendnp318MeasurementHandler15CheckForTxStartEv@PLT
	movl	12(%rbx), %edx
	movq	%rbx, %rdi
	movl	%edx, 8(%rsp)
	call	_ZNK8opendnp312HeaderRecord16GetQualifierCodeEv@PLT
	movzwl	(%rbx), %ebx
	movb	%r12b, 23(%rsp)
	movb	%al, 22(%rsp)
	movl	%ebx, %edi
	movw	%bx, 20(%rsp)
	call	_ZN8opendnp37IsEventENS_14GroupVariationE@PLT
	movl	%ebx, %edi
	movb	%al, 24(%rsp)
	call	_ZN8opendnp38HasFlagsENS_14GroupVariationE@PLT
	movq	64(%rbp), %rdi
	movl	8(%rsp), %edx
	leaq	20(%rsp), %rsi
	movb	%al, 25(%rsp)
	movq	(%rdi), %rax
	movl	%edx, 28(%rsp)
	leaq	32(%rsp), %rdx
	call	*32(%rax)
	addq	$168, %rsp
	.cfi_remember_state
	.cfi_def_cfa_offset 40
	xorl	%eax, %eax
	popq	%rbx
	.cfi_def_cfa_offset 32
	popq	%rbp
	.cfi_def_cfa_offset 24
	popq	%r12
	.cfi_def_cfa_offset 16
	popq	%r14
	.cfi_def_cfa_offset 8
	ret
	.p2align 4,,10
	.p2align 3
.L199:
	.cfi_restore_state
	movzwl	(%rbx), %edi
	call	_ZN8opendnp322GroupVariationToStringENS_14GroupVariationE@PLT
	leaq	32(%rsp), %rdi
	movl	$120, %esi
	leaq	.LC0(%rip), %rdx
	movq	%rax, %rcx
	xorl	%eax, %eax
	call	snprintf@PLT
	leaq	20(%rsp), %rsi
	leaq	32(%rsp), %rcx
	movq	%rbp, %rdi
	leaq	.LC1(%rip), %rdx
	movl	$4, 20(%rsp)
	call	_ZN7openpal6Logger3LogERKNS_10LogFiltersEPKcS5_@PLT
	jmp	.L191
	.cfi_endproc
.LFE2397:
	.size	_ZN8opendnp318MeasurementHandler13ProcessHeaderERKNS_12PrefixHeaderERKNS_11ICollectionINS_7IndexedINS_6BinaryEEEEE, .-_ZN8opendnp318MeasurementHandler13ProcessHeaderERKNS_12PrefixHeaderERKNS_11ICollectionINS_7IndexedINS_6BinaryEEEEE
	.align 2
	.p2align 4
	.globl	_ZN8opendnp318MeasurementHandler13ProcessHeaderERKNS_12PrefixHeaderERKNS_11ICollectionINS_7IndexedINS_15DoubleBitBinaryEEEEE
	.type	_ZN8opendnp318MeasurementHandler13ProcessHeaderERKNS_12PrefixHeaderERKNS_11ICollectionINS_7IndexedINS_15DoubleBitBinaryEEEEE, @function
_ZN8opendnp318MeasurementHandler13ProcessHeaderERKNS_12PrefixHeaderERKNS_11ICollectionINS_7IndexedINS_15DoubleBitBinaryEEEEE:
.LFB2399:
	.cfi_startproc
	pushq	%r14
	.cfi_def_cfa_offset 16
	.cfi_offset 14, -16
	pushq	%r12
	.cfi_def_cfa_offset 24
	.cfi_offset 12, -24
	pushq	%rbp
	.cfi_def_cfa_offset 32
	.cfi_offset 6, -32
	movq	%rdi, %rbp
	pushq	%rbx
	.cfi_def_cfa_offset 40
	.cfi_offset 3, -40
	movq	%rsi, %rbx
	subq	$168, %rsp
	.cfi_def_cfa_offset 208
	movzwl	(%rsi), %edi
	cmpw	$1027, %di
	je	.L210
	movq	%rdx, 8(%rsp)
	call	_ZN8opendnp318MeasurementHandler12ModeFromTypeENS_14GroupVariationE@PLT
	movq	%rbp, %rdi
	movl	%eax, %r14d
	call	_ZN8opendnp318MeasurementHandler15CheckForTxStartEv@PLT
	movq	%rbx, %rdi
	movl	12(%rbx), %r12d
	call	_ZNK8opendnp312HeaderRecord16GetQualifierCodeEv@PLT
	movzwl	(%rbx), %ebx
	movb	%r14b, 35(%rsp)
	movb	%al, 34(%rsp)
	movl	%ebx, %edi
	movw	%bx, 32(%rsp)
	call	_ZN8opendnp37IsEventENS_14GroupVariationE@PLT
	movl	%ebx, %edi
	movb	%al, 36(%rsp)
	call	_ZN8opendnp38HasFlagsENS_14GroupVariationE@PLT
	movq	64(%rbp), %rdi
	movl	%r12d, 40(%rsp)
	leaq	32(%rsp), %rsi
	movb	%al, 37(%rsp)
	movq	8(%rsp), %rdx
	movq	(%rdi), %rax
	call	*40(%rax)
	addq	$168, %rsp
	.cfi_remember_state
	.cfi_def_cfa_offset 40
	xorl	%eax, %eax
	popq	%rbx
	.cfi_def_cfa_offset 32
	popq	%rbp
	.cfi_def_cfa_offset 24
	popq	%r12
	.cfi_def_cfa_offset 16
	popq	%r14
	.cfi_def_cfa_offset 8
	ret
	.p2align 4,,10
	.p2align 3
.L210:
	.cfi_restore_state
	movzbl	72(%rbp), %r12d
	testb	%r12b, %r12b
	jne	.L202
	addq	$24, %rbp
	leaq	32(%rsp), %rsi
	movl	$4, 32(%rsp)
	movq	%rbp, %rdi
	call	_ZNK7openpal6Logger9IsEnabledERKNS_10LogFiltersE@PLT
	testb	%al, %al
	jne	.L211
.L203:
	xorl	%eax, %eax
	leaq	32(%rsp), %rdi
	movl	$10, %esi
	movw	%ax, 32(%rsp)
	call	_ZN8opendnp38IINField6SetBitENS_6IINBitE@PLT
	movzwl	32(%rsp), %eax
	addq	$168, %rsp
	.cfi_remember_state
	.cfi_def_cfa_offset 40
	popq	%rbx
	.cfi_def_cfa_offset 32
	popq	%rbp
	.cfi_def_cfa_offset 24
	popq	%r12
	.cfi_def_cfa_offset 16
	popq	%r14
	.cfi_def_cfa_offset 8
	ret
	.p2align 4,,10
	.p2align 3
.L202:
	.cfi_restore_state
	movq	_ZTVN8opendnp321TransformedCollectionINS_7IndexedINS_15DoubleBitBinaryEEES3_ZNS_18MeasurementHandler14ProcessWithCTOIS2_EENS_8IINFieldERKNS_12HeaderRecordERKNS_11ICollectionINS1_IT_EEEEEUlRKS3_E_EE@GOTPCREL(%rip), %rcx
	movq	%rdx, %xmm1
	movq	80(%rbp), %rax
	movq	%rbp, %rdi
	addq	$16, %rcx
	movq	%rax, 48(%rsp)
	movq	%rcx, %xmm0
	punpcklqdq	%xmm1, %xmm0
	movaps	%xmm0, 32(%rsp)
	call	_ZN8opendnp318MeasurementHandler15CheckForTxStartEv@PLT
	movl	12(%rbx), %edx
	movq	%rbx, %rdi
	movl	%edx, 8(%rsp)
	call	_ZNK8opendnp312HeaderRecord16GetQualifierCodeEv@PLT
	movzwl	(%rbx), %ebx
	movb	%r12b, 23(%rsp)
	movb	%al, 22(%rsp)
	movl	%ebx, %edi
	movw	%bx, 20(%rsp)
	call	_ZN8opendnp37IsEventENS_14GroupVariationE@PLT
	movl	%ebx, %edi
	movb	%al, 24(%rsp)
	call	_ZN8opendnp38HasFlagsENS_14GroupVariationE@PLT
	movq	64(%rbp), %rdi
	movl	8(%rsp), %edx
	leaq	20(%rsp), %rsi
	movb	%al, 25(%rsp)
	movq	(%rdi), %rax
	movl	%edx, 28(%rsp)
	leaq	32(%rsp), %rdx
	call	*40(%rax)
	addq	$168, %rsp
	.cfi_remember_state
	.cfi_def_cfa_offset 40
	xorl	%eax, %eax
	popq	%rbx
	.cfi_def_cfa_offset 32
	popq	%rbp
	.cfi_def_cfa_offset 24
	popq	%r12
	.cfi_def_cfa_offset 16
	popq	%r14
	.cfi_def_cfa_offset 8
	ret
	.p2align 4,,10
	.p2align 3
.L211:
	.cfi_restore_state
	movzwl	(%rbx), %edi
	call	_ZN8opendnp322GroupVariationToStringENS_14GroupVariationE@PLT
	leaq	32(%rsp), %rdi
	movl	$120, %esi
	leaq	.LC0(%rip), %rdx
	movq	%rax, %rcx
	xorl	%eax, %eax
	call	snprintf@PLT
	leaq	20(%rsp), %rsi
	leaq	32(%rsp), %rcx
	movq	%rbp, %rdi
	leaq	.LC1(%rip), %rdx
	movl	$4, 20(%rsp)
	call	_ZN7openpal6Logger3LogERKNS_10LogFiltersEPKcS5_@PLT
	jmp	.L203
	.cfi_endproc
.LFE2399:
	.size	_ZN8opendnp318MeasurementHandler13ProcessHeaderERKNS_12PrefixHeaderERKNS_11ICollectionINS_7IndexedINS_15DoubleBitBinaryEEEEE, .-_ZN8opendnp318MeasurementHandler13ProcessHeaderERKNS_12PrefixHeaderERKNS_11ICollectionINS_7IndexedINS_15DoubleBitBinaryEEEEE
	.align 2
	.p2align 4
	.globl	_ZN8opendnp318MeasurementHandler7ConvertERKNS_12Group121Var1E
	.type	_ZN8opendnp318MeasurementHandler7ConvertERKNS_12Group121Var1E, @function
_ZN8opendnp318MeasurementHandler7ConvertERKNS_12Group121Var1E:
.LFB2409:
	.cfi_startproc
	pushq	%rbx
	.cfi_def_cfa_offset 16
	.cfi_offset 3, -16
	movl	4(%rsi), %ecx
	movq	%rdi, %rbx
	movzwl	2(%rsi), %edx
	movzbl	(%rsi), %esi
	call	_ZN8opendnp312SecurityStatC1Ehtj@PLT
	movq	%rbx, %rax
	popq	%rbx
	.cfi_def_cfa_offset 8
	ret
	.cfi_endproc
.LFE2409:
	.size	_ZN8opendnp318MeasurementHandler7ConvertERKNS_12Group121Var1E, .-_ZN8opendnp318MeasurementHandler7ConvertERKNS_12Group121Var1E
	.section	.text._ZN8opendnp314FunctorVisitorINS_7IndexedINS_12Group121Var1EEEZNKS_21TransformedCollectionIS3_NS1_INS_12SecurityStatEEEZNS_18MeasurementHandler25LoadValuesWithTransformToIS5_S2_EENS_8IINFieldERKNS_12HeaderRecordERKNS_11ICollectionINS1_IT0_EEEEEUlRKS3_E_E7ForeachERNS_8IVisitorIS6_EEEUlSK_E_E7OnValueESK_,"axG",@progbits,_ZN8opendnp314FunctorVisitorINS_7IndexedINS_12Group121Var1EEEZNKS_21TransformedCollectionIS3_NS1_INS_12SecurityStatEEEZNS_18MeasurementHandler25LoadValuesWithTransformToIS5_S2_EENS_8IINFieldERKNS_12HeaderRecordERKNS_11ICollectionINS1_IT0_EEEEEUlRKS3_E_E7ForeachERNS_8IVisitorIS6_EEEUlSK_E_E7OnValueESK_,comdat
	.align 2
	.p2align 4
	.weak	_ZN8opendnp314FunctorVisitorINS_7IndexedINS_12Group121Var1EEEZNKS_21TransformedCollectionIS3_NS1_INS_12SecurityStatEEEZNS_18MeasurementHandler25LoadValuesWithTransformToIS5_S2_EENS_8IINFieldERKNS_12HeaderRecordERKNS_11ICollectionINS1_IT0_EEEEEUlRKS3_E_E7ForeachERNS_8IVisitorIS6_EEEUlSK_E_E7OnValueESK_
	.type	_ZN8opendnp314FunctorVisitorINS_7IndexedINS_12Group121Var1EEEZNKS_21TransformedCollectionIS3_NS1_INS_12SecurityStatEEEZNS_18MeasurementHandler25LoadValuesWithTransformToIS5_S2_EENS_8IINFieldERKNS_12HeaderRecordERKNS_11ICollectionINS1_IT0_EEEEEUlRKS3_E_E7ForeachERNS_8IVisitorIS6_EEEUlSK_E_E7OnValueESK_, @function
_ZN8opendnp314FunctorVisitorINS_7IndexedINS_12Group121Var1EEEZNKS_21TransformedCollectionIS3_NS1_INS_12SecurityStatEEEZNS_18MeasurementHandler25LoadValuesWithTransformToIS5_S2_EENS_8IINFieldERKNS_12HeaderRecordERKNS_11ICollectionINS1_IT0_EEEEEUlRKS3_E_E7ForeachERNS_8IVisitorIS6_EEEUlSK_E_E7OnValueESK_:
.LFB3304:
	.cfi_startproc
	pushq	%r12
	.cfi_def_cfa_offset 16
	.cfi_offset 12, -16
	pushq	%rbp
	.cfi_def_cfa_offset 24
	.cfi_offset 6, -24
	pushq	%rbx
	.cfi_def_cfa_offset 32
	.cfi_offset 3, -32
	subq	$64, %rsp
	.cfi_def_cfa_offset 96
	movq	16(%rdi), %rbx
	movzwl	8(%rsi), %r12d
	movq	%rsp, %rdi
	movq	(%rbx), %rax
	movq	(%rax), %rbp
	call	_ZN8opendnp318MeasurementHandler7ConvertERKNS_12Group121Var1E@PLT
	movdqa	(%rsp), %xmm0
	movq	16(%rsp), %rax
	movq	%rbx, %rdi
	movw	%r12w, 56(%rsp)
	leaq	32(%rsp), %rsi
	movq	%rax, 48(%rsp)
	movaps	%xmm0, 32(%rsp)
	call	*%rbp
	addq	$64, %rsp
	.cfi_def_cfa_offset 32
	popq	%rbx
	.cfi_def_cfa_offset 24
	popq	%rbp
	.cfi_def_cfa_offset 16
	popq	%r12
	.cfi_def_cfa_offset 8
	ret
	.cfi_endproc
.LFE3304:
	.size	_ZN8opendnp314FunctorVisitorINS_7IndexedINS_12Group121Var1EEEZNKS_21TransformedCollectionIS3_NS1_INS_12SecurityStatEEEZNS_18MeasurementHandler25LoadValuesWithTransformToIS5_S2_EENS_8IINFieldERKNS_12HeaderRecordERKNS_11ICollectionINS1_IT0_EEEEEUlRKS3_E_E7ForeachERNS_8IVisitorIS6_EEEUlSK_E_E7OnValueESK_, .-_ZN8opendnp314FunctorVisitorINS_7IndexedINS_12Group121Var1EEEZNKS_21TransformedCollectionIS3_NS1_INS_12SecurityStatEEEZNS_18MeasurementHandler25LoadValuesWithTransformToIS5_S2_EENS_8IINFieldERKNS_12HeaderRecordERKNS_11ICollectionINS1_IT0_EEEEEUlRKS3_E_E7ForeachERNS_8IVisitorIS6_EEEUlSK_E_E7OnValueESK_
	.text
	.align 2
	.p2align 4
	.globl	_ZN8opendnp318MeasurementHandler7ConvertERKNS_12Group122Var1E
	.type	_ZN8opendnp318MeasurementHandler7ConvertERKNS_12Group122Var1E, @function
_ZN8opendnp318MeasurementHandler7ConvertERKNS_12Group122Var1E:
.LFB2410:
	.cfi_startproc
	pushq	%rbx
	.cfi_def_cfa_offset 16
	.cfi_offset 3, -16
	movl	4(%rsi), %ecx
	movq	%rdi, %rbx
	movzwl	2(%rsi), %edx
	movzbl	(%rsi), %esi
	call	_ZN8opendnp312SecurityStatC1Ehtj@PLT
	movq	%rbx, %rax
	popq	%rbx
	.cfi_def_cfa_offset 8
	ret
	.cfi_endproc
.LFE2410:
	.size	_ZN8opendnp318MeasurementHandler7ConvertERKNS_12Group122Var1E, .-_ZN8opendnp318MeasurementHandler7ConvertERKNS_12Group122Var1E
	.section	.text._ZN8opendnp314FunctorVisitorINS_7IndexedINS_12Group122Var1EEEZNKS_21TransformedCollectionIS3_NS1_INS_12SecurityStatEEEZNS_18MeasurementHandler25LoadValuesWithTransformToIS5_S2_EENS_8IINFieldERKNS_12HeaderRecordERKNS_11ICollectionINS1_IT0_EEEEEUlRKS3_E_E7ForeachERNS_8IVisitorIS6_EEEUlSK_E_E7OnValueESK_,"axG",@progbits,_ZN8opendnp314FunctorVisitorINS_7IndexedINS_12Group122Var1EEEZNKS_21TransformedCollectionIS3_NS1_INS_12SecurityStatEEEZNS_18MeasurementHandler25LoadValuesWithTransformToIS5_S2_EENS_8IINFieldERKNS_12HeaderRecordERKNS_11ICollectionINS1_IT0_EEEEEUlRKS3_E_E7ForeachERNS_8IVisitorIS6_EEEUlSK_E_E7OnValueESK_,comdat
	.align 2
	.p2align 4
	.weak	_ZN8opendnp314FunctorVisitorINS_7IndexedINS_12Group122Var1EEEZNKS_21TransformedCollectionIS3_NS1_INS_12SecurityStatEEEZNS_18MeasurementHandler25LoadValuesWithTransformToIS5_S2_EENS_8IINFieldERKNS_12HeaderRecordERKNS_11ICollectionINS1_IT0_EEEEEUlRKS3_E_E7ForeachERNS_8IVisitorIS6_EEEUlSK_E_E7OnValueESK_
	.type	_ZN8opendnp314FunctorVisitorINS_7IndexedINS_12Group122Var1EEEZNKS_21TransformedCollectionIS3_NS1_INS_12SecurityStatEEEZNS_18MeasurementHandler25LoadValuesWithTransformToIS5_S2_EENS_8IINFieldERKNS_12HeaderRecordERKNS_11ICollectionINS1_IT0_EEEEEUlRKS3_E_E7ForeachERNS_8IVisitorIS6_EEEUlSK_E_E7OnValueESK_, @function
_ZN8opendnp314FunctorVisitorINS_7IndexedINS_12Group122Var1EEEZNKS_21TransformedCollectionIS3_NS1_INS_12SecurityStatEEEZNS_18MeasurementHandler25LoadValuesWithTransformToIS5_S2_EENS_8IINFieldERKNS_12HeaderRecordERKNS_11ICollectionINS1_IT0_EEEEEUlRKS3_E_E7ForeachERNS_8IVisitorIS6_EEEUlSK_E_E7OnValueESK_:
.LFB3307:
	.cfi_startproc
	pushq	%r12
	.cfi_def_cfa_offset 16
	.cfi_offset 12, -16
	pushq	%rbp
	.cfi_def_cfa_offset 24
	.cfi_offset 6, -24
	pushq	%rbx
	.cfi_def_cfa_offset 32
	.cfi_offset 3, -32
	subq	$64, %rsp
	.cfi_def_cfa_offset 96
	movq	16(%rdi), %rbx
	movzwl	8(%rsi), %r12d
	movq	%rsp, %rdi
	movq	(%rbx), %rax
	movq	(%rax), %rbp
	call	_ZN8opendnp318MeasurementHandler7ConvertERKNS_12Group122Var1E@PLT
	movdqa	(%rsp), %xmm0
	movq	16(%rsp), %rax
	movq	%rbx, %rdi
	movw	%r12w, 56(%rsp)
	leaq	32(%rsp), %rsi
	movq	%rax, 48(%rsp)
	movaps	%xmm0, 32(%rsp)
	call	*%rbp
	addq	$64, %rsp
	.cfi_def_cfa_offset 32
	popq	%rbx
	.cfi_def_cfa_offset 24
	popq	%rbp
	.cfi_def_cfa_offset 16
	popq	%r12
	.cfi_def_cfa_offset 8
	ret
	.cfi_endproc
.LFE3307:
	.size	_ZN8opendnp314FunctorVisitorINS_7IndexedINS_12Group122Var1EEEZNKS_21TransformedCollectionIS3_NS1_INS_12SecurityStatEEEZNS_18MeasurementHandler25LoadValuesWithTransformToIS5_S2_EENS_8IINFieldERKNS_12HeaderRecordERKNS_11ICollectionINS1_IT0_EEEEEUlRKS3_E_E7ForeachERNS_8IVisitorIS6_EEEUlSK_E_E7OnValueESK_, .-_ZN8opendnp314FunctorVisitorINS_7IndexedINS_12Group122Var1EEEZNKS_21TransformedCollectionIS3_NS1_INS_12SecurityStatEEEZNS_18MeasurementHandler25LoadValuesWithTransformToIS5_S2_EENS_8IINFieldERKNS_12HeaderRecordERKNS_11ICollectionINS1_IT0_EEEEEUlRKS3_E_E7ForeachERNS_8IVisitorIS6_EEEUlSK_E_E7OnValueESK_
	.text
	.align 2
	.p2align 4
	.globl	_ZN8opendnp318MeasurementHandler7ConvertERKNS_12Group122Var2E
	.type	_ZN8opendnp318MeasurementHandler7ConvertERKNS_12Group122Var2E, @function
_ZN8opendnp318MeasurementHandler7ConvertERKNS_12Group122Var2E:
.LFB2411:
	.cfi_startproc
	pushq	%rbx
	.cfi_def_cfa_offset 16
	.cfi_offset 3, -16
	movzbl	(%rsi), %eax
	movq	%rdi, %rbx
	movl	4(%rsi), %ecx
	movzwl	2(%rsi), %edx
	movq	8(%rsi), %r8
	movl	%eax, %esi
	call	_ZN8opendnp312SecurityStatC1EhtjN7openpal10UInt48TypeE@PLT
	movq	%rbx, %rax
	popq	%rbx
	.cfi_def_cfa_offset 8
	ret
	.cfi_endproc
.LFE2411:
	.size	_ZN8opendnp318MeasurementHandler7ConvertERKNS_12Group122Var2E, .-_ZN8opendnp318MeasurementHandler7ConvertERKNS_12Group122Var2E
	.section	.text._ZN8opendnp314FunctorVisitorINS_7IndexedINS_12Group122Var2EEEZNKS_21TransformedCollectionIS3_NS1_INS_12SecurityStatEEEZNS_18MeasurementHandler25LoadValuesWithTransformToIS5_S2_EENS_8IINFieldERKNS_12HeaderRecordERKNS_11ICollectionINS1_IT0_EEEEEUlRKS3_E_E7ForeachERNS_8IVisitorIS6_EEEUlSK_E_E7OnValueESK_,"axG",@progbits,_ZN8opendnp314FunctorVisitorINS_7IndexedINS_12Group122Var2EEEZNKS_21TransformedCollectionIS3_NS1_INS_12SecurityStatEEEZNS_18MeasurementHandler25LoadValuesWithTransformToIS5_S2_EENS_8IINFieldERKNS_12HeaderRecordERKNS_11ICollectionINS1_IT0_EEEEEUlRKS3_E_E7ForeachERNS_8IVisitorIS6_EEEUlSK_E_E7OnValueESK_,comdat
	.align 2
	.p2align 4
	.weak	_ZN8opendnp314FunctorVisitorINS_7IndexedINS_12Group122Var2EEEZNKS_21TransformedCollectionIS3_NS1_INS_12SecurityStatEEEZNS_18MeasurementHandler25LoadValuesWithTransformToIS5_S2_EENS_8IINFieldERKNS_12HeaderRecordERKNS_11ICollectionINS1_IT0_EEEEEUlRKS3_E_E7ForeachERNS_8IVisitorIS6_EEEUlSK_E_E7OnValueESK_
	.type	_ZN8opendnp314FunctorVisitorINS_7IndexedINS_12Group122Var2EEEZNKS_21TransformedCollectionIS3_NS1_INS_12SecurityStatEEEZNS_18MeasurementHandler25LoadValuesWithTransformToIS5_S2_EENS_8IINFieldERKNS_12HeaderRecordERKNS_11ICollectionINS1_IT0_EEEEEUlRKS3_E_E7ForeachERNS_8IVisitorIS6_EEEUlSK_E_E7OnValueESK_, @function
_ZN8opendnp314FunctorVisitorINS_7IndexedINS_12Group122Var2EEEZNKS_21TransformedCollectionIS3_NS1_INS_12SecurityStatEEEZNS_18MeasurementHandler25LoadValuesWithTransformToIS5_S2_EENS_8IINFieldERKNS_12HeaderRecordERKNS_11ICollectionINS1_IT0_EEEEEUlRKS3_E_E7ForeachERNS_8IVisitorIS6_EEEUlSK_E_E7OnValueESK_:
.LFB3308:
	.cfi_startproc
	pushq	%r12
	.cfi_def_cfa_offset 16
	.cfi_offset 12, -16
	pushq	%rbp
	.cfi_def_cfa_offset 24
	.cfi_offset 6, -24
	pushq	%rbx
	.cfi_def_cfa_offset 32
	.cfi_offset 3, -32
	subq	$64, %rsp
	.cfi_def_cfa_offset 96
	movq	16(%rdi), %rbx
	movzwl	16(%rsi), %r12d
	movq	%rsp, %rdi
	movq	(%rbx), %rax
	movq	(%rax), %rbp
	call	_ZN8opendnp318MeasurementHandler7ConvertERKNS_12Group122Var2E@PLT
	movdqa	(%rsp), %xmm0
	movq	16(%rsp), %rax
	movq	%rbx, %rdi
	movw	%r12w, 56(%rsp)
	leaq	32(%rsp), %rsi
	movq	%rax, 48(%rsp)
	movaps	%xmm0, 32(%rsp)
	call	*%rbp
	addq	$64, %rsp
	.cfi_def_cfa_offset 32
	popq	%rbx
	.cfi_def_cfa_offset 24
	popq	%rbp
	.cfi_def_cfa_offset 16
	popq	%r12
	.cfi_def_cfa_offset 8
	ret
	.cfi_endproc
.LFE3308:
	.size	_ZN8opendnp314FunctorVisitorINS_7IndexedINS_12Group122Var2EEEZNKS_21TransformedCollectionIS3_NS1_INS_12SecurityStatEEEZNS_18MeasurementHandler25LoadValuesWithTransformToIS5_S2_EENS_8IINFieldERKNS_12HeaderRecordERKNS_11ICollectionINS1_IT0_EEEEEUlRKS3_E_E7ForeachERNS_8IVisitorIS6_EEEUlSK_E_E7OnValueESK_, .-_ZN8opendnp314FunctorVisitorINS_7IndexedINS_12Group122Var2EEEZNKS_21TransformedCollectionIS3_NS1_INS_12SecurityStatEEEZNS_18MeasurementHandler25LoadValuesWithTransformToIS5_S2_EENS_8IINFieldERKNS_12HeaderRecordERKNS_11ICollectionINS1_IT0_EEEEEUlRKS3_E_E7ForeachERNS_8IVisitorIS6_EEEUlSK_E_E7OnValueESK_
	.section	.text._ZNSt16_Sp_counted_baseILN9__gnu_cxx12_Lock_policyE2EE24_M_release_last_use_coldEv,"axG",@progbits,_ZNSt16_Sp_counted_baseILN9__gnu_cxx12_Lock_policyE2EE24_M_release_last_use_coldEv,comdat
	.align 2
	.p2align 4
	.weak	_ZNSt16_Sp_counted_baseILN9__gnu_cxx12_Lock_policyE2EE24_M_release_last_use_coldEv
	.type	_ZNSt16_Sp_counted_baseILN9__gnu_cxx12_Lock_policyE2EE24_M_release_last_use_coldEv, @function
_ZNSt16_Sp_counted_baseILN9__gnu_cxx12_Lock_policyE2EE24_M_release_last_use_coldEv:
.LFB2418:
	.cfi_startproc
	pushq	%rbx
	.cfi_def_cfa_offset 16
	.cfi_offset 3, -16
	movq	(%rdi), %rax
	movq	%rdi, %rbx
	call	*16(%rax)
	movq	__libc_single_threaded@GOTPCREL(%rip), %rax
	cmpb	$0, (%rax)
	je	.L225
	movl	12(%rbx), %eax
	leal	-1(%rax), %edx
	movl	%edx, 12(%rbx)
.L226:
	cmpl	$1, %eax
	je	.L229
	popq	%rbx
	.cfi_remember_state
	.cfi_def_cfa_offset 8
	ret
	.p2align 4,,10
	.p2align 3
.L229:
	.cfi_restore_state
	movq	(%rbx), %rax
	movq	%rbx, %rdi
	popq	%rbx
	.cfi_remember_state
	.cfi_def_cfa_offset 8
	movq	24(%rax), %rax
	jmp	*%rax
	.p2align 4,,10
	.p2align 3
.L225:
	.cfi_restore_state
	movl	$-1, %eax
	lock xaddl	%eax, 12(%rbx)
	jmp	.L226
	.cfi_endproc
.LFE2418:
	.size	_ZNSt16_Sp_counted_baseILN9__gnu_cxx12_Lock_policyE2EE24_M_release_last_use_coldEv, .-_ZNSt16_Sp_counted_baseILN9__gnu_cxx12_Lock_policyE2EE24_M_release_last_use_coldEv
	.text
	.align 2
	.p2align 4
	.globl	_ZN8opendnp318MeasurementHandlerD2Ev
	.type	_ZN8opendnp318MeasurementHandlerD2Ev, @function
_ZN8opendnp318MeasurementHandlerD2Ev:
.LFB2371:
	.cfi_startproc
	.cfi_personality 0x9b,DW.ref.__gxx_personality_v0
	.cfi_lsda 0x1b,.LLSDA2371
	subq	$24, %rsp
	.cfi_def_cfa_offset 32
	movq	_ZTVN8opendnp318MeasurementHandlerE@GOTPCREL(%rip), %rdx
	movq	%rdi, %rax
	addq	$16, %rdx
	movq	%rdx, (%rdi)
	cmpb	$0, 56(%rdi)
	je	.L231
	movq	64(%rdi), %rdi
	testq	%rdi, %rdi
	je	.L231
	movq	(%rdi), %rdx
	movq	%rax, (%rsp)
	call	*24(%rdx)
	movq	(%rsp), %rax
.L231:
	movq	48(%rax), %rdi
	testq	%rdi, %rdi
	je	.L233
	movq	8(%rdi), %rcx
	leaq	8(%rdi), %rsi
	movabsq	$4294967297, %rdx
	cmpq	%rdx, %rcx
	je	.L248
	movq	__libc_single_threaded@GOTPCREL(%rip), %rdx
	cmpb	$0, (%rdx)
	je	.L235
	movl	8(%rdi), %edx
	leal	-1(%rdx), %ecx
	movl	%ecx, 8(%rdi)
.L236:
	cmpl	$1, %edx
	je	.L249
.L233:
	movq	32(%rax), %rdi
	testq	%rdi, %rdi
	je	.L230
	movq	8(%rdi), %rdx
	leaq	8(%rdi), %rcx
	movabsq	$4294967297, %rax
	cmpq	%rax, %rdx
	je	.L250
	movq	__libc_single_threaded@GOTPCREL(%rip), %rax
	cmpb	$0, (%rax)
	je	.L241
	movl	8(%rdi), %eax
	leal	-1(%rax), %edx
	movl	%edx, 8(%rdi)
.L242:
	cmpl	$1, %eax
	je	.L251
.L230:
	addq	$24, %rsp
	.cfi_remember_state
	.cfi_def_cfa_offset 8
	ret
	.p2align 4,,10
	.p2align 3
.L250:
	.cfi_restore_state
	movq	(%rdi), %rax
	movq	%rdi, (%rsp)
	movq	$0, 8(%rdi)
	call	*16(%rax)
	movq	(%rsp), %rdi
	movq	(%rdi), %rax
	movq	24(%rax), %rax
	addq	$24, %rsp
	.cfi_remember_state
	.cfi_def_cfa_offset 8
.LEHB0:
	jmp	*%rax
	.p2align 4,,10
	.p2align 3
.L248:
	.cfi_restore_state
	movq	(%rdi), %rdx
	movq	%rax, 8(%rsp)
	movq	$0, 8(%rdi)
	movq	%rdi, (%rsp)
	call	*16(%rdx)
	movq	(%rsp), %rdi
	movq	(%rdi), %rdx
	call	*24(%rdx)
	movq	8(%rsp), %rax
	jmp	.L233
	.p2align 4,,10
	.p2align 3
.L241:
	movl	$-1, %eax
	lock xaddl	%eax, (%rcx)
	jmp	.L242
	.p2align 4,,10
	.p2align 3
.L235:
	movl	$-1, %edx
	lock xaddl	%edx, (%rsi)
	jmp	.L236
	.p2align 4,,10
	.p2align 3
.L249:
	movq	%rax, (%rsp)
	call	_ZNSt16_Sp_counted_baseILN9__gnu_cxx12_Lock_policyE2EE24_M_release_last_use_coldEv@PLT
	movq	(%rsp), %rax
	jmp	.L233
	.p2align 4,,10
	.p2align 3
.L251:
	addq	$24, %rsp
	.cfi_def_cfa_offset 8
	jmp	_ZNSt16_Sp_counted_baseILN9__gnu_cxx12_Lock_policyE2EE24_M_release_last_use_coldEv@PLT
.LEHE0:
	.cfi_endproc
.LFE2371:
	.section	.gcc_except_table,"a",@progbits
.LLSDA2371:
	.byte	0xff
	.byte	0xff
	.byte	0x1
	.uleb128 .LLSDACSE2371-.LLSDACSB2371
.LLSDACSB2371:
	.uleb128 .LEHB0-.LFB2371
	.uleb128 .LEHE0-.LEHB0
	.uleb128 0
	.uleb128 0
.LLSDACSE2371:
	.text
	.size	_ZN8opendnp318MeasurementHandlerD2Ev, .-_ZN8opendnp318MeasurementHandlerD2Ev
	.globl	_ZN8opendnp318MeasurementHandlerD1Ev
	.set	_ZN8opendnp318MeasurementHandlerD1Ev,_ZN8opendnp318MeasurementHandlerD2Ev
	.section	.text.unlikely,"ax",@progbits
	.align 2
.LCOLDB2:
	.text
.LHOTB2:
	.align 2
	.p2align 4
	.globl	_ZN8opendnp318MeasurementHandler19ProcessMeasurementsERKN7openpal6RSliceERNS1_6LoggerEPNS_11ISOEHandlerE
	.type	_ZN8opendnp318MeasurementHandler19ProcessMeasurementsERKN7openpal6RSliceERNS1_6LoggerEPNS_11ISOEHandlerE, @function
_ZN8opendnp318MeasurementHandler19ProcessMeasurementsERKN7openpal6RSliceERNS1_6LoggerEPNS_11ISOEHandlerE:
.LFB2366:
	.cfi_startproc
	.cfi_personality 0x9b,DW.ref.__gxx_personality_v0
	.cfi_lsda 0x1b,.LLSDA2366
	pushq	%r12
	.cfi_def_cfa_offset 16
	.cfi_offset 12, -16
	movq	%rdi, %r12
	pushq	%rbp
	.cfi_def_cfa_offset 24
	.cfi_offset 6, -24
	movq	%rsi, %rbp
	pushq	%rbx
	.cfi_def_cfa_offset 32
	.cfi_offset 3, -32
	subq	$96, %rsp
	.cfi_def_cfa_offset 128
	movq	%rsp, %rdi
.LEHB1:
	call	_ZN8opendnp318MeasurementHandlerC1ERKN7openpal6LoggerEPNS_11ISOEHandlerE@PLT
.LEHE1:
	movq	%rbp, %rdx
	movq	%rsp, %rsi
	movq	%r12, %rdi
	movabsq	$35184372088833, %rcx
.LEHB2:
	call	_ZN8opendnp310APDUParser5ParseERKN7openpal6RSliceERNS_12IAPDUHandlerEPNS1_6LoggerENS_14ParserSettingsE@PLT
.LEHE2:
	movq	%rsp, %rdi
	movl	%eax, %ebp
	call	_ZN8opendnp318MeasurementHandlerD1Ev@PLT
	addq	$96, %rsp
	.cfi_remember_state
	.cfi_def_cfa_offset 32
	movl	%ebp, %eax
	popq	%rbx
	.cfi_def_cfa_offset 24
	popq	%rbp
	.cfi_def_cfa_offset 16
	popq	%r12
	.cfi_def_cfa_offset 8
	ret
.L254:
	.cfi_restore_state
	movq	%rax, %rbp
	jmp	.L253
	.section	.gcc_except_table
.LLSDA2366:
	.byte	0xff
	.byte	0xff
	.byte	0x1
	.uleb128 .LLSDACSE2366-.LLSDACSB2366
.LLSDACSB2366:
	.uleb128 .LEHB1-.LFB2366
	.uleb128 .LEHE1-.LEHB1
	.uleb128 0
	.uleb128 0
	.uleb128 .LEHB2-.LFB2366
	.uleb128 .LEHE2-.LEHB2
	.uleb128 .L254-.LFB2366
	.uleb128 0
.LLSDACSE2366:
	.text
	.cfi_endproc
	.section	.text.unlikely
	.cfi_startproc
	.cfi_personality 0x9b,DW.ref.__gxx_personality_v0
	.cfi_lsda 0x1b,.LLSDAC2366
	.type	_ZN8opendnp318MeasurementHandler19ProcessMeasurementsERKN7openpal6RSliceERNS1_6LoggerEPNS_11ISOEHandlerE.cold, @function
_ZN8opendnp318MeasurementHandler19ProcessMeasurementsERKN7openpal6RSliceERNS1_6LoggerEPNS_11ISOEHandlerE.cold:
.LFSB2366:
.L253:
	.cfi_def_cfa_offset 128
	.cfi_offset 3, -32
	.cfi_offset 6, -24
	.cfi_offset 12, -16
	movq	%rsp, %rdi
	call	_ZN8opendnp318MeasurementHandlerD1Ev@PLT
	movq	%rbp, %rdi
.LEHB3:
	call	_Unwind_Resume@PLT
.LEHE3:
	.cfi_endproc
.LFE2366:
	.section	.gcc_except_table
.LLSDAC2366:
	.byte	0xff
	.byte	0xff
	.byte	0x1
	.uleb128 .LLSDACSEC2366-.LLSDACSBC2366
.LLSDACSBC2366:
	.uleb128 .LEHB3-.LCOLDB2
	.uleb128 .LEHE3-.LEHB3
	.uleb128 0
	.uleb128 0
.LLSDACSEC2366:
	.section	.text.unlikely
	.text
	.size	_ZN8opendnp318MeasurementHandler19ProcessMeasurementsERKN7openpal6RSliceERNS1_6LoggerEPNS_11ISOEHandlerE, .-_ZN8opendnp318MeasurementHandler19ProcessMeasurementsERKN7openpal6RSliceERNS1_6LoggerEPNS_11ISOEHandlerE
	.section	.text.unlikely
	.size	_ZN8opendnp318MeasurementHandler19ProcessMeasurementsERKN7openpal6RSliceERNS1_6LoggerEPNS_11ISOEHandlerE.cold, .-_ZN8opendnp318MeasurementHandler19ProcessMeasurementsERKN7openpal6RSliceERNS1_6LoggerEPNS_11ISOEHandlerE.cold
.LCOLDE2:
	.text
.LHOTE2:
	.weak	_ZTSN8opendnp38IVisitorINS_7IndexedINS_15DoubleBitBinaryEEEEE
	.section	.rodata._ZTSN8opendnp38IVisitorINS_7IndexedINS_15DoubleBitBinaryEEEEE,"aG",@progbits,_ZTSN8opendnp38IVisitorINS_7IndexedINS_15DoubleBitBinaryEEEEE,comdat
	.align 32
	.type	_ZTSN8opendnp38IVisitorINS_7IndexedINS_15DoubleBitBinaryEEEEE, @object
	.size	_ZTSN8opendnp38IVisitorINS_7IndexedINS_15DoubleBitBinaryEEEEE, 58
_ZTSN8opendnp38IVisitorINS_7IndexedINS_15DoubleBitBinaryEEEEE:
	.string	"N8opendnp38IVisitorINS_7IndexedINS_15DoubleBitBinaryEEEEE"
	.weak	_ZTIN8opendnp38IVisitorINS_7IndexedINS_15DoubleBitBinaryEEEEE
	.section	.data.rel.ro._ZTIN8opendnp38IVisitorINS_7IndexedINS_15DoubleBitBinaryEEEEE,"awG",@progbits,_ZTIN8opendnp38IVisitorINS_7IndexedINS_15DoubleBitBinaryEEEEE,comdat
	.align 8
	.type	_ZTIN8opendnp38IVisitorINS_7IndexedINS_15DoubleBitBinaryEEEEE, @object
	.size	_ZTIN8opendnp38IVisitorINS_7IndexedINS_15DoubleBitBinaryEEEEE, 16
_ZTIN8opendnp38IVisitorINS_7IndexedINS_15DoubleBitBinaryEEEEE:
	.quad	_ZTVN10__cxxabiv117__class_type_infoE+16
	.quad	_ZTSN8opendnp38IVisitorINS_7IndexedINS_15DoubleBitBinaryEEEEE
	.weak	_ZTSN8opendnp38IVisitorINS_7IndexedINS_6BinaryEEEEE
	.section	.rodata._ZTSN8opendnp38IVisitorINS_7IndexedINS_6BinaryEEEEE,"aG",@progbits,_ZTSN8opendnp38IVisitorINS_7IndexedINS_6BinaryEEEEE,comdat
	.align 32
	.type	_ZTSN8opendnp38IVisitorINS_7IndexedINS_6BinaryEEEEE, @object
	.size	_ZTSN8opendnp38IVisitorINS_7IndexedINS_6BinaryEEEEE, 48
_ZTSN8opendnp38IVisitorINS_7IndexedINS_6BinaryEEEEE:
	.string	"N8opendnp38IVisitorINS_7IndexedINS_6BinaryEEEEE"
	.weak	_ZTIN8opendnp38IVisitorINS_7IndexedINS_6BinaryEEEEE
	.section	.data.rel.ro._ZTIN8opendnp38IVisitorINS_7IndexedINS_6BinaryEEEEE,"awG",@progbits,_ZTIN8opendnp38IVisitorINS_7IndexedINS_6BinaryEEEEE,comdat
	.align 8
	.type	_ZTIN8opendnp38IVisitorINS_7IndexedINS_6BinaryEEEEE, @object
	.size	_ZTIN8opendnp38IVisitorINS_7IndexedINS_6BinaryEEEEE, 16
_ZTIN8opendnp38IVisitorINS_7IndexedINS_6BinaryEEEEE:
	.quad	_ZTVN10__cxxabiv117__class_type_infoE+16
	.quad	_ZTSN8opendnp38IVisitorINS_7IndexedINS_6BinaryEEEEE
	.weak	_ZTSN8opendnp38IVisitorINS_7IndexedINS_12Group122Var2EEEEE
	.section	.rodata._ZTSN8opendnp38IVisitorINS_7IndexedINS_12Group122Var2EEEEE,"aG",@progbits,_ZTSN8opendnp38IVisitorINS_7IndexedINS_12Group122Var2EEEEE,comdat
	.align 32
	.type	_ZTSN8opendnp38IVisitorINS_7IndexedINS_12Group122Var2EEEEE, @object
	.size	_ZTSN8opendnp38IVisitorINS_7IndexedINS_12Group122Var2EEEEE, 55
_ZTSN8opendnp38IVisitorINS_7IndexedINS_12Group122Var2EEEEE:
	.string	"N8opendnp38IVisitorINS_7IndexedINS_12Group122Var2EEEEE"
	.weak	_ZTIN8opendnp38IVisitorINS_7IndexedINS_12Group122Var2EEEEE
	.section	.data.rel.ro._ZTIN8opendnp38IVisitorINS_7IndexedINS_12Group122Var2EEEEE,"awG",@progbits,_ZTIN8opendnp38IVisitorINS_7IndexedINS_12Group122Var2EEEEE,comdat
	.align 8
	.type	_ZTIN8opendnp38IVisitorINS_7IndexedINS_12Group122Var2EEEEE, @object
	.size	_ZTIN8opendnp38IVisitorINS_7IndexedINS_12Group122Var2EEEEE, 16
_ZTIN8opendnp38IVisitorINS_7IndexedINS_12Group122Var2EEEEE:
	.quad	_ZTVN10__cxxabiv117__class_type_infoE+16
	.quad	_ZTSN8opendnp38IVisitorINS_7IndexedINS_12Group122Var2EEEEE
	.weak	_ZTSN8opendnp314FunctorVisitorINS_7IndexedINS_12Group122Var2EEEZNKS_21TransformedCollectionIS3_NS1_INS_12SecurityStatEEEZNS_18MeasurementHandler25LoadValuesWithTransformToIS5_S2_EENS_8IINFieldERKNS_12HeaderRecordERKNS_11ICollectionINS1_IT0_EEEEEUlRKS3_E_E7ForeachERNS_8IVisitorIS6_EEEUlSK_E_EE
	.section	.rodata._ZTSN8opendnp314FunctorVisitorINS_7IndexedINS_12Group122Var2EEEZNKS_21TransformedCollectionIS3_NS1_INS_12SecurityStatEEEZNS_18MeasurementHandler25LoadValuesWithTransformToIS5_S2_EENS_8IINFieldERKNS_12HeaderRecordERKNS_11ICollectionINS1_IT0_EEEEEUlRKS3_E_E7ForeachERNS_8IVisitorIS6_EEEUlSK_E_EE,"aG",@progbits,_ZTSN8opendnp314FunctorVisitorINS_7IndexedINS_12Group122Var2EEEZNKS_21TransformedCollectionIS3_NS1_INS_12SecurityStatEEEZNS_18MeasurementHandler25LoadValuesWithTransformToIS5_S2_EENS_8IINFieldERKNS_12HeaderRecordERKNS_11ICollectionINS1_IT0_EEEEEUlRKS3_E_E7ForeachERNS_8IVisitorIS6_EEEUlSK_E_EE,comdat
	.align 32
	.type	_ZTSN8opendnp314FunctorVisitorINS_7IndexedINS_12Group122Var2EEEZNKS_21TransformedCollectionIS3_NS1_INS_12SecurityStatEEEZNS_18MeasurementHandler25LoadValuesWithTransformToIS5_S2_EENS_8IINFieldERKNS_12HeaderRecordERKNS_11ICollectionINS1_IT0_EEEEEUlRKS3_E_E7ForeachERNS_8IVisitorIS6_EEEUlSK_E_EE, @object
	.size	_ZTSN8opendnp314FunctorVisitorINS_7IndexedINS_12Group122Var2EEEZNKS_21TransformedCollectionIS3_NS1_INS_12SecurityStatEEEZNS_18MeasurementHandler25LoadValuesWithTransformToIS5_S2_EENS_8IINFieldERKNS_12HeaderRecordERKNS_11ICollectionINS1_IT0_EEEEEUlRKS3_E_E7ForeachERNS_8IVisitorIS6_EEEUlSK_E_EE, 290
_ZTSN8opendnp314FunctorVisitorINS_7IndexedINS_12Group122Var2EEEZNKS_21TransformedCollectionIS3_NS1_INS_12SecurityStatEEEZNS_18MeasurementHandler25LoadValuesWithTransformToIS5_S2_EENS_8IINFieldERKNS_12HeaderRecordERKNS_11ICollectionINS1_IT0_EEEEEUlRKS3_E_E7ForeachERNS_8IVisitorIS6_EEEUlSK_E_EE:
	.ascii	"N8opendnp314FunctorVisitorINS_7In"
	.string	"dexedINS_12Group122Var2EEEZNKS_21TransformedCollectionIS3_NS1_INS_12SecurityStatEEEZNS_18MeasurementHandler25LoadValuesWithTransformToIS5_S2_EENS_8IINFieldERKNS_12HeaderRecordERKNS_11ICollectionINS1_IT0_EEEEEUlRKS3_E_E7ForeachERNS_8IVisitorIS6_EEEUlSK_E_EE"
	.weak	_ZTIN8opendnp314FunctorVisitorINS_7IndexedINS_12Group122Var2EEEZNKS_21TransformedCollectionIS3_NS1_INS_12SecurityStatEEEZNS_18MeasurementHandler25LoadValuesWithTransformToIS5_S2_EENS_8IINFieldERKNS_12HeaderRecordERKNS_11ICollectionINS1_IT0_EEEEEUlRKS3_E_E7ForeachERNS_8IVisitorIS6_EEEUlSK_E_EE
	.section	.data.rel.ro._ZTIN8opendnp314FunctorVisitorINS_7IndexedINS_12Group122Var2EEEZNKS_21TransformedCollectionIS3_NS1_INS_12SecurityStatEEEZNS_18MeasurementHandler25LoadValuesWithTransformToIS5_S2_EENS_8IINFieldERKNS_12HeaderRecordERKNS_11ICollectionINS1_IT0_EEEEEUlRKS3_E_E7ForeachERNS_8IVisitorIS6_EEEUlSK_E_EE,"awG",@progbits,_ZTIN8opendnp314FunctorVisitorINS_7IndexedINS_12Group122Var2EEEZNKS_21TransformedCollectionIS3_NS1_INS_12SecurityStatEEEZNS_18MeasurementHandler25LoadValuesWithTransformToIS5_S2_EENS_8IINFieldERKNS_12HeaderRecordERKNS_11ICollectionINS1_IT0_EEEEEUlRKS3_E_E7ForeachERNS_8IVisitorIS6_EEEUlSK_E_EE,comdat
	.align 8
	.type	_ZTIN8opendnp314FunctorVisitorINS_7IndexedINS_12Group122Var2EEEZNKS_21TransformedCollectionIS3_NS1_INS_12SecurityStatEEEZNS_18MeasurementHandler25LoadValuesWithTransformToIS5_S2_EENS_8IINFieldERKNS_12HeaderRecordERKNS_11ICollectionINS1_IT0_EEEEEUlRKS3_E_E7ForeachERNS_8IVisitorIS6_EEEUlSK_E_EE, @object
	.size	_ZTIN8opendnp314FunctorVisitorINS_7IndexedINS_12Group122Var2EEEZNKS_21TransformedCollectionIS3_NS1_INS_12SecurityStatEEEZNS_18MeasurementHandler25LoadValuesWithTransformToIS5_S2_EENS_8IINFieldERKNS_12HeaderRecordERKNS_11ICollectionINS1_IT0_EEEEEUlRKS3_E_E7ForeachERNS_8IVisitorIS6_EEEUlSK_E_EE, 24
_ZTIN8opendnp314FunctorVisitorINS_7IndexedINS_12Group122Var2EEEZNKS_21TransformedCollectionIS3_NS1_INS_12SecurityStatEEEZNS_18MeasurementHandler25LoadValuesWithTransformToIS5_S2_EENS_8IINFieldERKNS_12HeaderRecordERKNS_11ICollectionINS1_IT0_EEEEEUlRKS3_E_E7ForeachERNS_8IVisitorIS6_EEEUlSK_E_EE:
	.quad	_ZTVN10__cxxabiv120__si_class_type_infoE+16
	.quad	_ZTSN8opendnp314FunctorVisitorINS_7IndexedINS_12Group122Var2EEEZNKS_21TransformedCollectionIS3_NS1_INS_12SecurityStatEEEZNS_18MeasurementHandler25LoadValuesWithTransformToIS5_S2_EENS_8IINFieldERKNS_12HeaderRecordERKNS_11ICollectionINS1_IT0_EEEEEUlRKS3_E_E7ForeachERNS_8IVisitorIS6_EEEUlSK_E_EE
	.quad	_ZTIN8opendnp38IVisitorINS_7IndexedINS_12Group122Var2EEEEE
	.weak	_ZTSN8opendnp38IVisitorINS_7IndexedINS_12Group122Var1EEEEE
	.section	.rodata._ZTSN8opendnp38IVisitorINS_7IndexedINS_12Group122Var1EEEEE,"aG",@progbits,_ZTSN8opendnp38IVisitorINS_7IndexedINS_12Group122Var1EEEEE,comdat
	.align 32
	.type	_ZTSN8opendnp38IVisitorINS_7IndexedINS_12Group122Var1EEEEE, @object
	.size	_ZTSN8opendnp38IVisitorINS_7IndexedINS_12Group122Var1EEEEE, 55
_ZTSN8opendnp38IVisitorINS_7IndexedINS_12Group122Var1EEEEE:
	.string	"N8opendnp38IVisitorINS_7IndexedINS_12Group122Var1EEEEE"
	.weak	_ZTIN8opendnp38IVisitorINS_7IndexedINS_12Group122Var1EEEEE
	.section	.data.rel.ro._ZTIN8opendnp38IVisitorINS_7IndexedINS_12Group122Var1EEEEE,"awG",@progbits,_ZTIN8opendnp38IVisitorINS_7IndexedINS_12Group122Var1EEEEE,comdat
	.align 8
	.type	_ZTIN8opendnp38IVisitorINS_7IndexedINS_12Group122Var1EEEEE, @object
	.size	_ZTIN8opendnp38IVisitorINS_7IndexedINS_12Group122Var1EEEEE, 16
_ZTIN8opendnp38IVisitorINS_7IndexedINS_12Group122Var1EEEEE:
	.quad	_ZTVN10__cxxabiv117__class_type_infoE+16
	.quad	_ZTSN8opendnp38IVisitorINS_7IndexedINS_12Group122Var1EEEEE
	.weak	_ZTSN8opendnp314FunctorVisitorINS_7IndexedINS_12Group122Var1EEEZNKS_21TransformedCollectionIS3_NS1_INS_12SecurityStatEEEZNS_18MeasurementHandler25LoadValuesWithTransformToIS5_S2_EENS_8IINFieldERKNS_12HeaderRecordERKNS_11ICollectionINS1_IT0_EEEEEUlRKS3_E_E7ForeachERNS_8IVisitorIS6_EEEUlSK_E_EE
	.section	.rodata._ZTSN8opendnp314FunctorVisitorINS_7IndexedINS_12Group122Var1EEEZNKS_21TransformedCollectionIS3_NS1_INS_12SecurityStatEEEZNS_18MeasurementHandler25LoadValuesWithTransformToIS5_S2_EENS_8IINFieldERKNS_12HeaderRecordERKNS_11ICollectionINS1_IT0_EEEEEUlRKS3_E_E7ForeachERNS_8IVisitorIS6_EEEUlSK_E_EE,"aG",@progbits,_ZTSN8opendnp314FunctorVisitorINS_7IndexedINS_12Group122Var1EEEZNKS_21TransformedCollectionIS3_NS1_INS_12SecurityStatEEEZNS_18MeasurementHandler25LoadValuesWithTransformToIS5_S2_EENS_8IINFieldERKNS_12HeaderRecordERKNS_11ICollectionINS1_IT0_EEEEEUlRKS3_E_E7ForeachERNS_8IVisitorIS6_EEEUlSK_E_EE,comdat
	.align 32
	.type	_ZTSN8opendnp314FunctorVisitorINS_7IndexedINS_12Group122Var1EEEZNKS_21TransformedCollectionIS3_NS1_INS_12SecurityStatEEEZNS_18MeasurementHandler25LoadValuesWithTransformToIS5_S2_EENS_8IINFieldERKNS_12HeaderRecordERKNS_11ICollectionINS1_IT0_EEEEEUlRKS3_E_E7ForeachERNS_8IVisitorIS6_EEEUlSK_E_EE, @object
	.size	_ZTSN8opendnp314FunctorVisitorINS_7IndexedINS_12Group122Var1EEEZNKS_21TransformedCollectionIS3_NS1_INS_12SecurityStatEEEZNS_18MeasurementHandler25LoadValuesWithTransformToIS5_S2_EENS_8IINFieldERKNS_12HeaderRecordERKNS_11ICollectionINS1_IT0_EEEEEUlRKS3_E_E7ForeachERNS_8IVisitorIS6_EEEUlSK_E_EE, 290
_ZTSN8opendnp314FunctorVisitorINS_7IndexedINS_12Group122Var1EEEZNKS_21TransformedCollectionIS3_NS1_INS_12SecurityStatEEEZNS_18MeasurementHandler25LoadValuesWithTransformToIS5_S2_EENS_8IINFieldERKNS_12HeaderRecordERKNS_11ICollectionINS1_IT0_EEEEEUlRKS3_E_E7ForeachERNS_8IVisitorIS6_EEEUlSK_E_EE:
	.ascii	"N8opendnp314FunctorVisitorINS_7In"
	.string	"dexedINS_12Group122Var1EEEZNKS_21TransformedCollectionIS3_NS1_INS_12SecurityStatEEEZNS_18MeasurementHandler25LoadValuesWithTransformToIS5_S2_EENS_8IINFieldERKNS_12HeaderRecordERKNS_11ICollectionINS1_IT0_EEEEEUlRKS3_E_E7ForeachERNS_8IVisitorIS6_EEEUlSK_E_EE"
	.weak	_ZTIN8opendnp314FunctorVisitorINS_7IndexedINS_12Group122Var1EEEZNKS_21TransformedCollectionIS3_NS1_INS_12SecurityStatEEEZNS_18MeasurementHandler25LoadValuesWithTransformToIS5_S2_EENS_8IINFieldERKNS_12HeaderRecordERKNS_11ICollectionINS1_IT0_EEEEEUlRKS3_E_E7ForeachERNS_8IVisitorIS6_EEEUlSK_E_EE
	.section	.data.rel.ro._ZTIN8opendnp314FunctorVisitorINS_7IndexedINS_12Group122Var1EEEZNKS_21TransformedCollectionIS3_NS1_INS_12SecurityStatEEEZNS_18MeasurementHandler25LoadValuesWithTransformToIS5_S2_EENS_8IINFieldERKNS_12HeaderRecordERKNS_11ICollectionINS1_IT0_EEEEEUlRKS3_E_E7ForeachERNS_8IVisitorIS6_EEEUlSK_E_EE,"awG",@progbits,_ZTIN8opendnp314FunctorVisitorINS_7IndexedINS_12Group122Var1EEEZNKS_21TransformedCollectionIS3_NS1_INS_12SecurityStatEEEZNS_18MeasurementHandler25LoadValuesWithTransformToIS5_S2_EENS_8IINFieldERKNS_12HeaderRecordERKNS_11ICollectionINS1_IT0_EEEEEUlRKS3_E_E7ForeachERNS_8IVisitorIS6_EEEUlSK_E_EE,comdat
	.align 8
	.type	_ZTIN8opendnp314FunctorVisitorINS_7IndexedINS_12Group122Var1EEEZNKS_21TransformedCollectionIS3_NS1_INS_12SecurityStatEEEZNS_18MeasurementHandler25LoadValuesWithTransformToIS5_S2_EENS_8IINFieldERKNS_12HeaderRecordERKNS_11ICollectionINS1_IT0_EEEEEUlRKS3_E_E7ForeachERNS_8IVisitorIS6_EEEUlSK_E_EE, @object
	.size	_ZTIN8opendnp314FunctorVisitorINS_7IndexedINS_12Group122Var1EEEZNKS_21TransformedCollectionIS3_NS1_INS_12SecurityStatEEEZNS_18MeasurementHandler25LoadValuesWithTransformToIS5_S2_EENS_8IINFieldERKNS_12HeaderRecordERKNS_11ICollectionINS1_IT0_EEEEEUlRKS3_E_E7ForeachERNS_8IVisitorIS6_EEEUlSK_E_EE, 24
_ZTIN8opendnp314FunctorVisitorINS_7IndexedINS_12Group122Var1EEEZNKS_21TransformedCollectionIS3_NS1_INS_12SecurityStatEEEZNS_18MeasurementHandler25LoadValuesWithTransformToIS5_S2_EENS_8IINFieldERKNS_12HeaderRecordERKNS_11ICollectionINS1_IT0_EEEEEUlRKS3_E_E7ForeachERNS_8IVisitorIS6_EEEUlSK_E_EE:
	.quad	_ZTVN10__cxxabiv120__si_class_type_infoE+16
	.quad	_ZTSN8opendnp314FunctorVisitorINS_7IndexedINS_12Group122Var1EEEZNKS_21TransformedCollectionIS3_NS1_INS_12SecurityStatEEEZNS_18MeasurementHandler25LoadValuesWithTransformToIS5_S2_EENS_8IINFieldERKNS_12HeaderRecordERKNS_11ICollectionINS1_IT0_EEEEEUlRKS3_E_E7ForeachERNS_8IVisitorIS6_EEEUlSK_E_EE
	.quad	_ZTIN8opendnp38IVisitorINS_7IndexedINS_12Group122Var1EEEEE
	.weak	_ZTSN8opendnp314FunctorVisitorINS_7IndexedINS_15DoubleBitBinaryEEEZNKS_21TransformedCollectionIS3_S3_ZNS_18MeasurementHandler14ProcessWithCTOIS2_EENS_8IINFieldERKNS_12HeaderRecordERKNS_11ICollectionINS1_IT_EEEEEUlRKS3_E_E7ForeachERNS_8IVisitorIS3_EEEUlSI_E_EE
	.section	.rodata._ZTSN8opendnp314FunctorVisitorINS_7IndexedINS_15DoubleBitBinaryEEEZNKS_21TransformedCollectionIS3_S3_ZNS_18MeasurementHandler14ProcessWithCTOIS2_EENS_8IINFieldERKNS_12HeaderRecordERKNS_11ICollectionINS1_IT_EEEEEUlRKS3_E_E7ForeachERNS_8IVisitorIS3_EEEUlSI_E_EE,"aG",@progbits,_ZTSN8opendnp314FunctorVisitorINS_7IndexedINS_15DoubleBitBinaryEEEZNKS_21TransformedCollectionIS3_S3_ZNS_18MeasurementHandler14ProcessWithCTOIS2_EENS_8IINFieldERKNS_12HeaderRecordERKNS_11ICollectionINS1_IT_EEEEEUlRKS3_E_E7ForeachERNS_8IVisitorIS3_EEEUlSI_E_EE,comdat
	.align 32
	.type	_ZTSN8opendnp314FunctorVisitorINS_7IndexedINS_15DoubleBitBinaryEEEZNKS_21TransformedCollectionIS3_S3_ZNS_18MeasurementHandler14ProcessWithCTOIS2_EENS_8IINFieldERKNS_12HeaderRecordERKNS_11ICollectionINS1_IT_EEEEEUlRKS3_E_E7ForeachERNS_8IVisitorIS3_EEEUlSI_E_EE, @object
	.size	_ZTSN8opendnp314FunctorVisitorINS_7IndexedINS_15DoubleBitBinaryEEEZNKS_21TransformedCollectionIS3_S3_ZNS_18MeasurementHandler14ProcessWithCTOIS2_EENS_8IINFieldERKNS_12HeaderRecordERKNS_11ICollectionINS1_IT_EEEEEUlRKS3_E_E7ForeachERNS_8IVisitorIS3_EEEUlSI_E_EE, 256
_ZTSN8opendnp314FunctorVisitorINS_7IndexedINS_15DoubleBitBinaryEEEZNKS_21TransformedCollectionIS3_S3_ZNS_18MeasurementHandler14ProcessWithCTOIS2_EENS_8IINFieldERKNS_12HeaderRecordERKNS_11ICollectionINS1_IT_EEEEEUlRKS3_E_E7ForeachERNS_8IVisitorIS3_EEEUlSI_E_EE:
	.string	"N8opendnp314FunctorVisitorINS_7IndexedINS_15DoubleBitBinaryEEEZNKS_21TransformedCollectionIS3_S3_ZNS_18MeasurementHandler14ProcessWithCTOIS2_EENS_8IINFieldERKNS_12HeaderRecordERKNS_11ICollectionINS1_IT_EEEEEUlRKS3_E_E7ForeachERNS_8IVisitorIS3_EEEUlSI_E_EE"
	.weak	_ZTIN8opendnp314FunctorVisitorINS_7IndexedINS_15DoubleBitBinaryEEEZNKS_21TransformedCollectionIS3_S3_ZNS_18MeasurementHandler14ProcessWithCTOIS2_EENS_8IINFieldERKNS_12HeaderRecordERKNS_11ICollectionINS1_IT_EEEEEUlRKS3_E_E7ForeachERNS_8IVisitorIS3_EEEUlSI_E_EE
	.section	.data.rel.ro._ZTIN8opendnp314FunctorVisitorINS_7IndexedINS_15DoubleBitBinaryEEEZNKS_21TransformedCollectionIS3_S3_ZNS_18MeasurementHandler14ProcessWithCTOIS2_EENS_8IINFieldERKNS_12HeaderRecordERKNS_11ICollectionINS1_IT_EEEEEUlRKS3_E_E7ForeachERNS_8IVisitorIS3_EEEUlSI_E_EE,"awG",@progbits,_ZTIN8opendnp314FunctorVisitorINS_7IndexedINS_15DoubleBitBinaryEEEZNKS_21TransformedCollectionIS3_S3_ZNS_18MeasurementHandler14ProcessWithCTOIS2_EENS_8IINFieldERKNS_12HeaderRecordERKNS_11ICollectionINS1_IT_EEEEEUlRKS3_E_E7ForeachERNS_8IVisitorIS3_EEEUlSI_E_EE,comdat
	.align 8
	.type	_ZTIN8opendnp314FunctorVisitorINS_7IndexedINS_15DoubleBitBinaryEEEZNKS_21TransformedCollectionIS3_S3_ZNS_18MeasurementHandler14ProcessWithCTOIS2_EENS_8IINFieldERKNS_12HeaderRecordERKNS_11ICollectionINS1_IT_EEEEEUlRKS3_E_E7ForeachERNS_8IVisitorIS3_EEEUlSI_E_EE, @object
	.size	_ZTIN8opendnp314FunctorVisitorINS_7IndexedINS_15DoubleBitBinaryEEEZNKS_21TransformedCollectionIS3_S3_ZNS_18MeasurementHandler14ProcessWithCTOIS2_EENS_8IINFieldERKNS_12HeaderRecordERKNS_11ICollectionINS1_IT_EEEEEUlRKS3_E_E7ForeachERNS_8IVisitorIS3_EEEUlSI_E_EE, 24
_ZTIN8opendnp314FunctorVisitorINS_7IndexedINS_15DoubleBitBinaryEEEZNKS_21TransformedCollectionIS3_S3_ZNS_18MeasurementHandler14ProcessWithCTOIS2_EENS_8IINFieldERKNS_12HeaderRecordERKNS_11ICollectionINS1_IT_EEEEEUlRKS3_E_E7ForeachERNS_8IVisitorIS3_EEEUlSI_E_EE:
	.quad	_ZTVN10__cxxabiv120__si_class_type_infoE+16
	.quad	_ZTSN8opendnp314FunctorVisitorINS_7IndexedINS_15DoubleBitBinaryEEEZNKS_21TransformedCollectionIS3_S3_ZNS_18MeasurementHandler14ProcessWithCTOIS2_EENS_8IINFieldERKNS_12HeaderRecordERKNS_11ICollectionINS1_IT_EEEEEUlRKS3_E_E7ForeachERNS_8IVisitorIS3_EEEUlSI_E_EE
	.quad	_ZTIN8opendnp38IVisitorINS_7IndexedINS_15DoubleBitBinaryEEEEE
	.weak	_ZTSN8opendnp314FunctorVisitorINS_7IndexedINS_6BinaryEEEZNKS_21TransformedCollectionIS3_S3_ZNS_18MeasurementHandler14ProcessWithCTOIS2_EENS_8IINFieldERKNS_12HeaderRecordERKNS_11ICollectionINS1_IT_EEEEEUlRKS3_E_E7ForeachERNS_8IVisitorIS3_EEEUlSI_E_EE
	.section	.rodata._ZTSN8opendnp314FunctorVisitorINS_7IndexedINS_6BinaryEEEZNKS_21TransformedCollectionIS3_S3_ZNS_18MeasurementHandler14ProcessWithCTOIS2_EENS_8IINFieldERKNS_12HeaderRecordERKNS_11ICollectionINS1_IT_EEEEEUlRKS3_E_E7ForeachERNS_8IVisitorIS3_EEEUlSI_E_EE,"aG",@progbits,_ZTSN8opendnp314FunctorVisitorINS_7IndexedINS_6BinaryEEEZNKS_21TransformedCollectionIS3_S3_ZNS_18MeasurementHandler14ProcessWithCTOIS2_EENS_8IINFieldERKNS_12HeaderRecordERKNS_11ICollectionINS1_IT_EEEEEUlRKS3_E_E7ForeachERNS_8IVisitorIS3_EEEUlSI_E_EE,comdat
	.align 32
	.type	_ZTSN8opendnp314FunctorVisitorINS_7IndexedINS_6BinaryEEEZNKS_21TransformedCollectionIS3_S3_ZNS_18MeasurementHandler14ProcessWithCTOIS2_EENS_8IINFieldERKNS_12HeaderRecordERKNS_11ICollectionINS1_IT_EEEEEUlRKS3_E_E7ForeachERNS_8IVisitorIS3_EEEUlSI_E_EE, @object
	.size	_ZTSN8opendnp314FunctorVisitorINS_7IndexedINS_6BinaryEEEZNKS_21TransformedCollectionIS3_S3_ZNS_18MeasurementHandler14ProcessWithCTOIS2_EENS_8IINFieldERKNS_12HeaderRecordERKNS_11ICollectionINS1_IT_EEEEEUlRKS3_E_E7ForeachERNS_8IVisitorIS3_EEEUlSI_E_EE, 246
_ZTSN8opendnp314FunctorVisitorINS_7IndexedINS_6BinaryEEEZNKS_21TransformedCollectionIS3_S3_ZNS_18MeasurementHandler14ProcessWithCTOIS2_EENS_8IINFieldERKNS_12HeaderRecordERKNS_11ICollectionINS1_IT_EEEEEUlRKS3_E_E7ForeachERNS_8IVisitorIS3_EEEUlSI_E_EE:
	.string	"N8opendnp314FunctorVisitorINS_7IndexedINS_6BinaryEEEZNKS_21TransformedCollectionIS3_S3_ZNS_18MeasurementHandler14ProcessWithCTOIS2_EENS_8IINFieldERKNS_12HeaderRecordERKNS_11ICollectionINS1_IT_EEEEEUlRKS3_E_E7ForeachERNS_8IVisitorIS3_EEEUlSI_E_EE"
	.weak	_ZTIN8opendnp314FunctorVisitorINS_7IndexedINS_6BinaryEEEZNKS_21TransformedCollectionIS3_S3_ZNS_18MeasurementHandler14ProcessWithCTOIS2_EENS_8IINFieldERKNS_12HeaderRecordERKNS_11ICollectionINS1_IT_EEEEEUlRKS3_E_E7ForeachERNS_8IVisitorIS3_EEEUlSI_E_EE
	.section	.data.rel.ro._ZTIN8opendnp314FunctorVisitorINS_7IndexedINS_6BinaryEEEZNKS_21TransformedCollectionIS3_S3_ZNS_18MeasurementHandler14ProcessWithCTOIS2_EENS_8IINFieldERKNS_12HeaderRecordERKNS_11ICollectionINS1_IT_EEEEEUlRKS3_E_E7ForeachERNS_8IVisitorIS3_EEEUlSI_E_EE,"awG",@progbits,_ZTIN8opendnp314FunctorVisitorINS_7IndexedINS_6BinaryEEEZNKS_21TransformedCollectionIS3_S3_ZNS_18MeasurementHandler14ProcessWithCTOIS2_EENS_8IINFieldERKNS_12HeaderRecordERKNS_11ICollectionINS1_IT_EEEEEUlRKS3_E_E7ForeachERNS_8IVisitorIS3_EEEUlSI_E_EE,comdat
	.align 8
	.type	_ZTIN8opendnp314FunctorVisitorINS_7IndexedINS_6BinaryEEEZNKS_21TransformedCollectionIS3_S3_ZNS_18MeasurementHandler14ProcessWithCTOIS2_EENS_8IINFieldERKNS_12HeaderRecordERKNS_11ICollectionINS1_IT_EEEEEUlRKS3_E_E7ForeachERNS_8IVisitorIS3_EEEUlSI_E_EE, @object
	.size	_ZTIN8opendnp314FunctorVisitorINS_7IndexedINS_6BinaryEEEZNKS_21TransformedCollectionIS3_S3_ZNS_18MeasurementHandler14ProcessWithCTOIS2_EENS_8IINFieldERKNS_12HeaderRecordERKNS_11ICollectionINS1_IT_EEEEEUlRKS3_E_E7ForeachERNS_8IVisitorIS3_EEEUlSI_E_EE, 24
_ZTIN8opendnp314FunctorVisitorINS_7IndexedINS_6BinaryEEEZNKS_21TransformedCollectionIS3_S3_ZNS_18MeasurementHandler14ProcessWithCTOIS2_EENS_8IINFieldERKNS_12HeaderRecordERKNS_11ICollectionINS1_IT_EEEEEUlRKS3_E_E7ForeachERNS_8IVisitorIS3_EEEUlSI_E_EE:
	.quad	_ZTVN10__cxxabiv120__si_class_type_infoE+16
	.quad	_ZTSN8opendnp314FunctorVisitorINS_7IndexedINS_6BinaryEEEZNKS_21TransformedCollectionIS3_S3_ZNS_18MeasurementHandler14ProcessWithCTOIS2_EENS_8IINFieldERKNS_12HeaderRecordERKNS_11ICollectionINS1_IT_EEEEEUlRKS3_E_E7ForeachERNS_8IVisitorIS3_EEEUlSI_E_EE
	.quad	_ZTIN8opendnp38IVisitorINS_7IndexedINS_6BinaryEEEEE
	.weak	_ZTSN8opendnp38IVisitorINS_7IndexedINS_12Group121Var1EEEEE
	.section	.rodata._ZTSN8opendnp38IVisitorINS_7IndexedINS_12Group121Var1EEEEE,"aG",@progbits,_ZTSN8opendnp38IVisitorINS_7IndexedINS_12Group121Var1EEEEE,comdat
	.align 32
	.type	_ZTSN8opendnp38IVisitorINS_7IndexedINS_12Group121Var1EEEEE, @object
	.size	_ZTSN8opendnp38IVisitorINS_7IndexedINS_12Group121Var1EEEEE, 55
_ZTSN8opendnp38IVisitorINS_7IndexedINS_12Group121Var1EEEEE:
	.string	"N8opendnp38IVisitorINS_7IndexedINS_12Group121Var1EEEEE"
	.weak	_ZTIN8opendnp38IVisitorINS_7IndexedINS_12Group121Var1EEEEE
	.section	.data.rel.ro._ZTIN8opendnp38IVisitorINS_7IndexedINS_12Group121Var1EEEEE,"awG",@progbits,_ZTIN8opendnp38IVisitorINS_7IndexedINS_12Group121Var1EEEEE,comdat
	.align 8
	.type	_ZTIN8opendnp38IVisitorINS_7IndexedINS_12Group121Var1EEEEE, @object
	.size	_ZTIN8opendnp38IVisitorINS_7IndexedINS_12Group121Var1EEEEE, 16
_ZTIN8opendnp38IVisitorINS_7IndexedINS_12Group121Var1EEEEE:
	.quad	_ZTVN10__cxxabiv117__class_type_infoE+16
	.quad	_ZTSN8opendnp38IVisitorINS_7IndexedINS_12Group121Var1EEEEE
	.weak	_ZTSN8opendnp314FunctorVisitorINS_7IndexedINS_12Group121Var1EEEZNKS_21TransformedCollectionIS3_NS1_INS_12SecurityStatEEEZNS_18MeasurementHandler25LoadValuesWithTransformToIS5_S2_EENS_8IINFieldERKNS_12HeaderRecordERKNS_11ICollectionINS1_IT0_EEEEEUlRKS3_E_E7ForeachERNS_8IVisitorIS6_EEEUlSK_E_EE
	.section	.rodata._ZTSN8opendnp314FunctorVisitorINS_7IndexedINS_12Group121Var1EEEZNKS_21TransformedCollectionIS3_NS1_INS_12SecurityStatEEEZNS_18MeasurementHandler25LoadValuesWithTransformToIS5_S2_EENS_8IINFieldERKNS_12HeaderRecordERKNS_11ICollectionINS1_IT0_EEEEEUlRKS3_E_E7ForeachERNS_8IVisitorIS6_EEEUlSK_E_EE,"aG",@progbits,_ZTSN8opendnp314FunctorVisitorINS_7IndexedINS_12Group121Var1EEEZNKS_21TransformedCollectionIS3_NS1_INS_12SecurityStatEEEZNS_18MeasurementHandler25LoadValuesWithTransformToIS5_S2_EENS_8IINFieldERKNS_12HeaderRecordERKNS_11ICollectionINS1_IT0_EEEEEUlRKS3_E_E7ForeachERNS_8IVisitorIS6_EEEUlSK_E_EE,comdat
	.align 32
	.type	_ZTSN8opendnp314FunctorVisitorINS_7IndexedINS_12Group121Var1EEEZNKS_21TransformedCollectionIS3_NS1_INS_12SecurityStatEEEZNS_18MeasurementHandler25LoadValuesWithTransformToIS5_S2_EENS_8IINFieldERKNS_12HeaderRecordERKNS_11ICollectionINS1_IT0_EEEEEUlRKS3_E_E7ForeachERNS_8IVisitorIS6_EEEUlSK_E_EE, @object
	.size	_ZTSN8opendnp314FunctorVisitorINS_7IndexedINS_12Group121Var1EEEZNKS_21TransformedCollectionIS3_NS1_INS_12SecurityStatEEEZNS_18MeasurementHandler25LoadValuesWithTransformToIS5_S2_EENS_8IINFieldERKNS_12HeaderRecordERKNS_11ICollectionINS1_IT0_EEEEEUlRKS3_E_E7ForeachERNS_8IVisitorIS6_EEEUlSK_E_EE, 290
_ZTSN8opendnp314FunctorVisitorINS_7IndexedINS_12Group121Var1EEEZNKS_21TransformedCollectionIS3_NS1_INS_12SecurityStatEEEZNS_18MeasurementHandler25LoadValuesWithTransformToIS5_S2_EENS_8IINFieldERKNS_12HeaderRecordERKNS_11ICollectionINS1_IT0_EEEEEUlRKS3_E_E7ForeachERNS_8IVisitorIS6_EEEUlSK_E_EE:
	.ascii	"N8opendnp314FunctorVisitorINS_7In"
	.string	"dexedINS_12Group121Var1EEEZNKS_21TransformedCollectionIS3_NS1_INS_12SecurityStatEEEZNS_18MeasurementHandler25LoadValuesWithTransformToIS5_S2_EENS_8IINFieldERKNS_12HeaderRecordERKNS_11ICollectionINS1_IT0_EEEEEUlRKS3_E_E7ForeachERNS_8IVisitorIS6_EEEUlSK_E_EE"
	.weak	_ZTIN8opendnp314FunctorVisitorINS_7IndexedINS_12Group121Var1EEEZNKS_21TransformedCollectionIS3_NS1_INS_12SecurityStatEEEZNS_18MeasurementHandler25LoadValuesWithTransformToIS5_S2_EENS_8IINFieldERKNS_12HeaderRecordERKNS_11ICollectionINS1_IT0_EEEEEUlRKS3_E_E7ForeachERNS_8IVisitorIS6_EEEUlSK_E_EE
	.section	.data.rel.ro._ZTIN8opendnp314FunctorVisitorINS_7IndexedINS_12Group121Var1EEEZNKS_21TransformedCollectionIS3_NS1_INS_12SecurityStatEEEZNS_18MeasurementHandler25LoadValuesWithTransformToIS5_S2_EENS_8IINFieldERKNS_12HeaderRecordERKNS_11ICollectionINS1_IT0_EEEEEUlRKS3_E_E7ForeachERNS_8IVisitorIS6_EEEUlSK_E_EE,"awG",@progbits,_ZTIN8opendnp314FunctorVisitorINS_7IndexedINS_12Group121Var1EEEZNKS_21TransformedCollectionIS3_NS1_INS_12SecurityStatEEEZNS_18MeasurementHandler25LoadValuesWithTransformToIS5_S2_EENS_8IINFieldERKNS_12HeaderRecordERKNS_11ICollectionINS1_IT0_EEEEEUlRKS3_E_E7ForeachERNS_8IVisitorIS6_EEEUlSK_E_EE,comdat
	.align 8
	.type	_ZTIN8opendnp314FunctorVisitorINS_7IndexedINS_12Group121Var1EEEZNKS_21TransformedCollectionIS3_NS1_INS_12SecurityStatEEEZNS_18MeasurementHandler25LoadValuesWithTransformToIS5_S2_EENS_8IINFieldERKNS_12HeaderRecordERKNS_11ICollectionINS1_IT0_EEEEEUlRKS3_E_E7ForeachERNS_8IVisitorIS6_EEEUlSK_E_EE, @object
	.size	_ZTIN8opendnp314FunctorVisitorINS_7IndexedINS_12Group121Var1EEEZNKS_21TransformedCollectionIS3_NS1_INS_12SecurityStatEEEZNS_18MeasurementHandler25LoadValuesWithTransformToIS5_S2_EENS_8IINFieldERKNS_12HeaderRecordERKNS_11ICollectionINS1_IT0_EEEEEUlRKS3_E_E7ForeachERNS_8IVisitorIS6_EEEUlSK_E_EE, 24
_ZTIN8opendnp314FunctorVisitorINS_7IndexedINS_12Group121Var1EEEZNKS_21TransformedCollectionIS3_NS1_INS_12SecurityStatEEEZNS_18MeasurementHandler25LoadValuesWithTransformToIS5_S2_EENS_8IINFieldERKNS_12HeaderRecordERKNS_11ICollectionINS1_IT0_EEEEEUlRKS3_E_E7ForeachERNS_8IVisitorIS6_EEEUlSK_E_EE:
	.quad	_ZTVN10__cxxabiv120__si_class_type_infoE+16
	.quad	_ZTSN8opendnp314FunctorVisitorINS_7IndexedINS_12Group121Var1EEEZNKS_21TransformedCollectionIS3_NS1_INS_12SecurityStatEEEZNS_18MeasurementHandler25LoadValuesWithTransformToIS5_S2_EENS_8IINFieldERKNS_12HeaderRecordERKNS_11ICollectionINS1_IT0_EEEEEUlRKS3_E_E7ForeachERNS_8IVisitorIS6_EEEUlSK_E_EE
	.quad	_ZTIN8opendnp38IVisitorINS_7IndexedINS_12Group121Var1EEEEE
	.weak	_ZTSN8opendnp38IVisitorINS_11Group50Var1EEE
	.section	.rodata._ZTSN8opendnp38IVisitorINS_11Group50Var1EEE,"aG",@progbits,_ZTSN8opendnp38IVisitorINS_11Group50Var1EEE,comdat
	.align 32
	.type	_ZTSN8opendnp38IVisitorINS_11Group50Var1EEE, @object
	.size	_ZTSN8opendnp38IVisitorINS_11Group50Var1EEE, 40
_ZTSN8opendnp38IVisitorINS_11Group50Var1EEE:
	.string	"N8opendnp38IVisitorINS_11Group50Var1EEE"
	.weak	_ZTIN8opendnp38IVisitorINS_11Group50Var1EEE
	.section	.data.rel.ro._ZTIN8opendnp38IVisitorINS_11Group50Var1EEE,"awG",@progbits,_ZTIN8opendnp38IVisitorINS_11Group50Var1EEE,comdat
	.align 8
	.type	_ZTIN8opendnp38IVisitorINS_11Group50Var1EEE, @object
	.size	_ZTIN8opendnp38IVisitorINS_11Group50Var1EEE, 16
_ZTIN8opendnp38IVisitorINS_11Group50Var1EEE:
	.quad	_ZTVN10__cxxabiv117__class_type_infoE+16
	.quad	_ZTSN8opendnp38IVisitorINS_11Group50Var1EEE
	.section	.data.rel.ro,"aw"
	.align 8
	.type	_ZTIN8opendnp314FunctorVisitorINS_11Group50Var1EZNKS_21TransformedCollectionIS1_N7openpal10UInt48TypeEZNS_18MeasurementHandler13ProcessHeaderERKNS_11CountHeaderERKNS_11ICollectionIS1_EEEUlRKS1_E_E7ForeachERNS_8IVisitorIS4_EEEUlSE_E_EE, @object
	.size	_ZTIN8opendnp314FunctorVisitorINS_11Group50Var1EZNKS_21TransformedCollectionIS1_N7openpal10UInt48TypeEZNS_18MeasurementHandler13ProcessHeaderERKNS_11CountHeaderERKNS_11ICollectionIS1_EEEUlRKS1_E_E7ForeachERNS_8IVisitorIS4_EEEUlSE_E_EE, 24
_ZTIN8opendnp314FunctorVisitorINS_11Group50Var1EZNKS_21TransformedCollectionIS1_N7openpal10UInt48TypeEZNS_18MeasurementHandler13ProcessHeaderERKNS_11CountHeaderERKNS_11ICollectionIS1_EEEUlRKS1_E_E7ForeachERNS_8IVisitorIS4_EEEUlSE_E_EE:
	.quad	_ZTVN10__cxxabiv120__si_class_type_infoE+16
	.quad	_ZTSN8opendnp314FunctorVisitorINS_11Group50Var1EZNKS_21TransformedCollectionIS1_N7openpal10UInt48TypeEZNS_18MeasurementHandler13ProcessHeaderERKNS_11CountHeaderERKNS_11ICollectionIS1_EEEUlRKS1_E_E7ForeachERNS_8IVisitorIS4_EEEUlSE_E_EE
	.quad	_ZTIN8opendnp38IVisitorINS_11Group50Var1EEE
	.section	.rodata
	.align 32
	.type	_ZTSN8opendnp314FunctorVisitorINS_11Group50Var1EZNKS_21TransformedCollectionIS1_N7openpal10UInt48TypeEZNS_18MeasurementHandler13ProcessHeaderERKNS_11CountHeaderERKNS_11ICollectionIS1_EEEUlRKS1_E_E7ForeachERNS_8IVisitorIS4_EEEUlSE_E_EE, @object
	.size	_ZTSN8opendnp314FunctorVisitorINS_11Group50Var1EZNKS_21TransformedCollectionIS1_N7openpal10UInt48TypeEZNS_18MeasurementHandler13ProcessHeaderERKNS_11CountHeaderERKNS_11ICollectionIS1_EEEUlRKS1_E_E7ForeachERNS_8IVisitorIS4_EEEUlSE_E_EE, 232
_ZTSN8opendnp314FunctorVisitorINS_11Group50Var1EZNKS_21TransformedCollectionIS1_N7openpal10UInt48TypeEZNS_18MeasurementHandler13ProcessHeaderERKNS_11CountHeaderERKNS_11ICollectionIS1_EEEUlRKS1_E_E7ForeachERNS_8IVisitorIS4_EEEUlSE_E_EE:
	.string	"*N8opendnp314FunctorVisitorINS_11Group50Var1EZNKS_21TransformedCollectionIS1_N7openpal10UInt48TypeEZNS_18MeasurementHandler13ProcessHeaderERKNS_11CountHeaderERKNS_11ICollectionIS1_EEEUlRKS1_E_E7ForeachERNS_8IVisitorIS4_EEEUlSE_E_EE"
	.weak	_ZTVN8opendnp314FunctorVisitorINS_7IndexedINS_12Group122Var2EEEZNKS_21TransformedCollectionIS3_NS1_INS_12SecurityStatEEEZNS_18MeasurementHandler25LoadValuesWithTransformToIS5_S2_EENS_8IINFieldERKNS_12HeaderRecordERKNS_11ICollectionINS1_IT0_EEEEEUlRKS3_E_E7ForeachERNS_8IVisitorIS6_EEEUlSK_E_EE
	.section	.data.rel.ro._ZTVN8opendnp314FunctorVisitorINS_7IndexedINS_12Group122Var2EEEZNKS_21TransformedCollectionIS3_NS1_INS_12SecurityStatEEEZNS_18MeasurementHandler25LoadValuesWithTransformToIS5_S2_EENS_8IINFieldERKNS_12HeaderRecordERKNS_11ICollectionINS1_IT0_EEEEEUlRKS3_E_E7ForeachERNS_8IVisitorIS6_EEEUlSK_E_EE,"awG",@progbits,_ZTVN8opendnp314FunctorVisitorINS_7IndexedINS_12Group122Var2EEEZNKS_21TransformedCollectionIS3_NS1_INS_12SecurityStatEEEZNS_18MeasurementHandler25LoadValuesWithTransformToIS5_S2_EENS_8IINFieldERKNS_12HeaderRecordERKNS_11ICollectionINS1_IT0_EEEEEUlRKS3_E_E7ForeachERNS_8IVisitorIS6_EEEUlSK_E_EE,comdat
	.align 8
	.type	_ZTVN8opendnp314FunctorVisitorINS_7IndexedINS_12Group122Var2EEEZNKS_21TransformedCollectionIS3_NS1_INS_12SecurityStatEEEZNS_18MeasurementHandler25LoadValuesWithTransformToIS5_S2_EENS_8IINFieldERKNS_12HeaderRecordERKNS_11ICollectionINS1_IT0_EEEEEUlRKS3_E_E7ForeachERNS_8IVisitorIS6_EEEUlSK_E_EE, @object
	.size	_ZTVN8opendnp314FunctorVisitorINS_7IndexedINS_12Group122Var2EEEZNKS_21TransformedCollectionIS3_NS1_INS_12SecurityStatEEEZNS_18MeasurementHandler25LoadValuesWithTransformToIS5_S2_EENS_8IINFieldERKNS_12HeaderRecordERKNS_11ICollectionINS1_IT0_EEEEEUlRKS3_E_E7ForeachERNS_8IVisitorIS6_EEEUlSK_E_EE, 24
_ZTVN8opendnp314FunctorVisitorINS_7IndexedINS_12Group122Var2EEEZNKS_21TransformedCollectionIS3_NS1_INS_12SecurityStatEEEZNS_18MeasurementHandler25LoadValuesWithTransformToIS5_S2_EENS_8IINFieldERKNS_12HeaderRecordERKNS_11ICollectionINS1_IT0_EEEEEUlRKS3_E_E7ForeachERNS_8IVisitorIS6_EEEUlSK_E_EE:
	.quad	0
	.quad	_ZTIN8opendnp314FunctorVisitorINS_7IndexedINS_12Group122Var2EEEZNKS_21TransformedCollectionIS3_NS1_INS_12SecurityStatEEEZNS_18MeasurementHandler25LoadValuesWithTransformToIS5_S2_EENS_8IINFieldERKNS_12HeaderRecordERKNS_11ICollectionINS1_IT0_EEEEEUlRKS3_E_E7ForeachERNS_8IVisitorIS6_EEEUlSK_E_EE
	.quad	_ZN8opendnp314FunctorVisitorINS_7IndexedINS_12Group122Var2EEEZNKS_21TransformedCollectionIS3_NS1_INS_12SecurityStatEEEZNS_18MeasurementHandler25LoadValuesWithTransformToIS5_S2_EENS_8IINFieldERKNS_12HeaderRecordERKNS_11ICollectionINS1_IT0_EEEEEUlRKS3_E_E7ForeachERNS_8IVisitorIS6_EEEUlSK_E_E7OnValueESK_
	.weak	_ZTVN8opendnp314FunctorVisitorINS_7IndexedINS_12Group122Var1EEEZNKS_21TransformedCollectionIS3_NS1_INS_12SecurityStatEEEZNS_18MeasurementHandler25LoadValuesWithTransformToIS5_S2_EENS_8IINFieldERKNS_12HeaderRecordERKNS_11ICollectionINS1_IT0_EEEEEUlRKS3_E_E7ForeachERNS_8IVisitorIS6_EEEUlSK_E_EE
	.section	.data.rel.ro._ZTVN8opendnp314FunctorVisitorINS_7IndexedINS_12Group122Var1EEEZNKS_21TransformedCollectionIS3_NS1_INS_12SecurityStatEEEZNS_18MeasurementHandler25LoadValuesWithTransformToIS5_S2_EENS_8IINFieldERKNS_12HeaderRecordERKNS_11ICollectionINS1_IT0_EEEEEUlRKS3_E_E7ForeachERNS_8IVisitorIS6_EEEUlSK_E_EE,"awG",@progbits,_ZTVN8opendnp314FunctorVisitorINS_7IndexedINS_12Group122Var1EEEZNKS_21TransformedCollectionIS3_NS1_INS_12SecurityStatEEEZNS_18MeasurementHandler25LoadValuesWithTransformToIS5_S2_EENS_8IINFieldERKNS_12HeaderRecordERKNS_11ICollectionINS1_IT0_EEEEEUlRKS3_E_E7ForeachERNS_8IVisitorIS6_EEEUlSK_E_EE,comdat
	.align 8
	.type	_ZTVN8opendnp314FunctorVisitorINS_7IndexedINS_12Group122Var1EEEZNKS_21TransformedCollectionIS3_NS1_INS_12SecurityStatEEEZNS_18MeasurementHandler25LoadValuesWithTransformToIS5_S2_EENS_8IINFieldERKNS_12HeaderRecordERKNS_11ICollectionINS1_IT0_EEEEEUlRKS3_E_E7ForeachERNS_8IVisitorIS6_EEEUlSK_E_EE, @object
	.size	_ZTVN8opendnp314FunctorVisitorINS_7IndexedINS_12Group122Var1EEEZNKS_21TransformedCollectionIS3_NS1_INS_12SecurityStatEEEZNS_18MeasurementHandler25LoadValuesWithTransformToIS5_S2_EENS_8IINFieldERKNS_12HeaderRecordERKNS_11ICollectionINS1_IT0_EEEEEUlRKS3_E_E7ForeachERNS_8IVisitorIS6_EEEUlSK_E_EE, 24
_ZTVN8opendnp314FunctorVisitorINS_7IndexedINS_12Group122Var1EEEZNKS_21TransformedCollectionIS3_NS1_INS_12SecurityStatEEEZNS_18MeasurementHandler25LoadValuesWithTransformToIS5_S2_EENS_8IINFieldERKNS_12HeaderRecordERKNS_11ICollectionINS1_IT0_EEEEEUlRKS3_E_E7ForeachERNS_8IVisitorIS6_EEEUlSK_E_EE:
	.quad	0
	.quad	_ZTIN8opendnp314FunctorVisitorINS_7IndexedINS_12Group122Var1EEEZNKS_21TransformedCollectionIS3_NS1_INS_12SecurityStatEEEZNS_18MeasurementHandler25LoadValuesWithTransformToIS5_S2_EENS_8IINFieldERKNS_12HeaderRecordERKNS_11ICollectionINS1_IT0_EEEEEUlRKS3_E_E7ForeachERNS_8IVisitorIS6_EEEUlSK_E_EE
	.quad	_ZN8opendnp314FunctorVisitorINS_7IndexedINS_12Group122Var1EEEZNKS_21TransformedCollectionIS3_NS1_INS_12SecurityStatEEEZNS_18MeasurementHandler25LoadValuesWithTransformToIS5_S2_EENS_8IINFieldERKNS_12HeaderRecordERKNS_11ICollectionINS1_IT0_EEEEEUlRKS3_E_E7ForeachERNS_8IVisitorIS6_EEEUlSK_E_E7OnValueESK_
	.weak	_ZTVN8opendnp314FunctorVisitorINS_7IndexedINS_15DoubleBitBinaryEEEZNKS_21TransformedCollectionIS3_S3_ZNS_18MeasurementHandler14ProcessWithCTOIS2_EENS_8IINFieldERKNS_12HeaderRecordERKNS_11ICollectionINS1_IT_EEEEEUlRKS3_E_E7ForeachERNS_8IVisitorIS3_EEEUlSI_E_EE
	.section	.data.rel.ro._ZTVN8opendnp314FunctorVisitorINS_7IndexedINS_15DoubleBitBinaryEEEZNKS_21TransformedCollectionIS3_S3_ZNS_18MeasurementHandler14ProcessWithCTOIS2_EENS_8IINFieldERKNS_12HeaderRecordERKNS_11ICollectionINS1_IT_EEEEEUlRKS3_E_E7ForeachERNS_8IVisitorIS3_EEEUlSI_E_EE,"awG",@progbits,_ZTVN8opendnp314FunctorVisitorINS_7IndexedINS_15DoubleBitBinaryEEEZNKS_21TransformedCollectionIS3_S3_ZNS_18MeasurementHandler14ProcessWithCTOIS2_EENS_8IINFieldERKNS_12HeaderRecordERKNS_11ICollectionINS1_IT_EEEEEUlRKS3_E_E7ForeachERNS_8IVisitorIS3_EEEUlSI_E_EE,comdat
	.align 8
	.type	_ZTVN8opendnp314FunctorVisitorINS_7IndexedINS_15DoubleBitBinaryEEEZNKS_21TransformedCollectionIS3_S3_ZNS_18MeasurementHandler14ProcessWithCTOIS2_EENS_8IINFieldERKNS_12HeaderRecordERKNS_11ICollectionINS1_IT_EEEEEUlRKS3_E_E7ForeachERNS_8IVisitorIS3_EEEUlSI_E_EE, @object
	.size	_ZTVN8opendnp314FunctorVisitorINS_7IndexedINS_15DoubleBitBinaryEEEZNKS_21TransformedCollectionIS3_S3_ZNS_18MeasurementHandler14ProcessWithCTOIS2_EENS_8IINFieldERKNS_12HeaderRecordERKNS_11ICollectionINS1_IT_EEEEEUlRKS3_E_E7ForeachERNS_8IVisitorIS3_EEEUlSI_E_EE, 24
_ZTVN8opendnp314FunctorVisitorINS_7IndexedINS_15DoubleBitBinaryEEEZNKS_21TransformedCollectionIS3_S3_ZNS_18MeasurementHandler14ProcessWithCTOIS2_EENS_8IINFieldERKNS_12HeaderRecordERKNS_11ICollectionINS1_IT_EEEEEUlRKS3_E_E7ForeachERNS_8IVisitorIS3_EEEUlSI_E_EE:
	.quad	0
	.quad	_ZTIN8opendnp314FunctorVisitorINS_7IndexedINS_15DoubleBitBinaryEEEZNKS_21TransformedCollectionIS3_S3_ZNS_18MeasurementHandler14ProcessWithCTOIS2_EENS_8IINFieldERKNS_12HeaderRecordERKNS_11ICollectionINS1_IT_EEEEEUlRKS3_E_E7ForeachERNS_8IVisitorIS3_EEEUlSI_E_EE
	.quad	_ZN8opendnp314FunctorVisitorINS_7IndexedINS_15DoubleBitBinaryEEEZNKS_21TransformedCollectionIS3_S3_ZNS_18MeasurementHandler14ProcessWithCTOIS2_EENS_8IINFieldERKNS_12HeaderRecordERKNS_11ICollectionINS1_IT_EEEEEUlRKS3_E_E7ForeachERNS_8IVisitorIS3_EEEUlSI_E_E7OnValueESI_
	.weak	_ZTVN8opendnp314FunctorVisitorINS_7IndexedINS_6BinaryEEEZNKS_21TransformedCollectionIS3_S3_ZNS_18MeasurementHandler14ProcessWithCTOIS2_EENS_8IINFieldERKNS_12HeaderRecordERKNS_11ICollectionINS1_IT_EEEEEUlRKS3_E_E7ForeachERNS_8IVisitorIS3_EEEUlSI_E_EE
	.section	.data.rel.ro._ZTVN8opendnp314FunctorVisitorINS_7IndexedINS_6BinaryEEEZNKS_21TransformedCollectionIS3_S3_ZNS_18MeasurementHandler14ProcessWithCTOIS2_EENS_8IINFieldERKNS_12HeaderRecordERKNS_11ICollectionINS1_IT_EEEEEUlRKS3_E_E7ForeachERNS_8IVisitorIS3_EEEUlSI_E_EE,"awG",@progbits,_ZTVN8opendnp314FunctorVisitorINS_7IndexedINS_6BinaryEEEZNKS_21TransformedCollectionIS3_S3_ZNS_18MeasurementHandler14ProcessWithCTOIS2_EENS_8IINFieldERKNS_12HeaderRecordERKNS_11ICollectionINS1_IT_EEEEEUlRKS3_E_E7ForeachERNS_8IVisitorIS3_EEEUlSI_E_EE,comdat
	.align 8
	.type	_ZTVN8opendnp314FunctorVisitorINS_7IndexedINS_6BinaryEEEZNKS_21TransformedCollectionIS3_S3_ZNS_18MeasurementHandler14ProcessWithCTOIS2_EENS_8IINFieldERKNS_12HeaderRecordERKNS_11ICollectionINS1_IT_EEEEEUlRKS3_E_E7ForeachERNS_8IVisitorIS3_EEEUlSI_E_EE, @object
	.size	_ZTVN8opendnp314FunctorVisitorINS_7IndexedINS_6BinaryEEEZNKS_21TransformedCollectionIS3_S3_ZNS_18MeasurementHandler14ProcessWithCTOIS2_EENS_8IINFieldERKNS_12HeaderRecordERKNS_11ICollectionINS1_IT_EEEEEUlRKS3_E_E7ForeachERNS_8IVisitorIS3_EEEUlSI_E_EE, 24
_ZTVN8opendnp314FunctorVisitorINS_7IndexedINS_6BinaryEEEZNKS_21TransformedCollectionIS3_S3_ZNS_18MeasurementHandler14ProcessWithCTOIS2_EENS_8IINFieldERKNS_12HeaderRecordERKNS_11ICollectionINS1_IT_EEEEEUlRKS3_E_E7ForeachERNS_8IVisitorIS3_EEEUlSI_E_EE:
	.quad	0
	.quad	_ZTIN8opendnp314FunctorVisitorINS_7IndexedINS_6BinaryEEEZNKS_21TransformedCollectionIS3_S3_ZNS_18MeasurementHandler14ProcessWithCTOIS2_EENS_8IINFieldERKNS_12HeaderRecordERKNS_11ICollectionINS1_IT_EEEEEUlRKS3_E_E7ForeachERNS_8IVisitorIS3_EEEUlSI_E_EE
	.quad	_ZN8opendnp314FunctorVisitorINS_7IndexedINS_6BinaryEEEZNKS_21TransformedCollectionIS3_S3_ZNS_18MeasurementHandler14ProcessWithCTOIS2_EENS_8IINFieldERKNS_12HeaderRecordERKNS_11ICollectionINS1_IT_EEEEEUlRKS3_E_E7ForeachERNS_8IVisitorIS3_EEEUlSI_E_E7OnValueESI_
	.weak	_ZTVN8opendnp314FunctorVisitorINS_7IndexedINS_12Group121Var1EEEZNKS_21TransformedCollectionIS3_NS1_INS_12SecurityStatEEEZNS_18MeasurementHandler25LoadValuesWithTransformToIS5_S2_EENS_8IINFieldERKNS_12HeaderRecordERKNS_11ICollectionINS1_IT0_EEEEEUlRKS3_E_E7ForeachERNS_8IVisitorIS6_EEEUlSK_E_EE
	.section	.data.rel.ro._ZTVN8opendnp314FunctorVisitorINS_7IndexedINS_12Group121Var1EEEZNKS_21TransformedCollectionIS3_NS1_INS_12SecurityStatEEEZNS_18MeasurementHandler25LoadValuesWithTransformToIS5_S2_EENS_8IINFieldERKNS_12HeaderRecordERKNS_11ICollectionINS1_IT0_EEEEEUlRKS3_E_E7ForeachERNS_8IVisitorIS6_EEEUlSK_E_EE,"awG",@progbits,_ZTVN8opendnp314FunctorVisitorINS_7IndexedINS_12Group121Var1EEEZNKS_21TransformedCollectionIS3_NS1_INS_12SecurityStatEEEZNS_18MeasurementHandler25LoadValuesWithTransformToIS5_S2_EENS_8IINFieldERKNS_12HeaderRecordERKNS_11ICollectionINS1_IT0_EEEEEUlRKS3_E_E7ForeachERNS_8IVisitorIS6_EEEUlSK_E_EE,comdat
	.align 8
	.type	_ZTVN8opendnp314FunctorVisitorINS_7IndexedINS_12Group121Var1EEEZNKS_21TransformedCollectionIS3_NS1_INS_12SecurityStatEEEZNS_18MeasurementHandler25LoadValuesWithTransformToIS5_S2_EENS_8IINFieldERKNS_12HeaderRecordERKNS_11ICollectionINS1_IT0_EEEEEUlRKS3_E_E7ForeachERNS_8IVisitorIS6_EEEUlSK_E_EE, @object
	.size	_ZTVN8opendnp314FunctorVisitorINS_7IndexedINS_12Group121Var1EEEZNKS_21TransformedCollectionIS3_NS1_INS_12SecurityStatEEEZNS_18MeasurementHandler25LoadValuesWithTransformToIS5_S2_EENS_8IINFieldERKNS_12HeaderRecordERKNS_11ICollectionINS1_IT0_EEEEEUlRKS3_E_E7ForeachERNS_8IVisitorIS6_EEEUlSK_E_EE, 24
_ZTVN8opendnp314FunctorVisitorINS_7IndexedINS_12Group121Var1EEEZNKS_21TransformedCollectionIS3_NS1_INS_12SecurityStatEEEZNS_18MeasurementHandler25LoadValuesWithTransformToIS5_S2_EENS_8IINFieldERKNS_12HeaderRecordERKNS_11ICollectionINS1_IT0_EEEEEUlRKS3_E_E7ForeachERNS_8IVisitorIS6_EEEUlSK_E_EE:
	.quad	0
	.quad	_ZTIN8opendnp314FunctorVisitorINS_7IndexedINS_12Group121Var1EEEZNKS_21TransformedCollectionIS3_NS1_INS_12SecurityStatEEEZNS_18MeasurementHandler25LoadValuesWithTransformToIS5_S2_EENS_8IINFieldERKNS_12HeaderRecordERKNS_11ICollectionINS1_IT0_EEEEEUlRKS3_E_E7ForeachERNS_8IVisitorIS6_EEEUlSK_E_EE
	.quad	_ZN8opendnp314FunctorVisitorINS_7IndexedINS_12Group121Var1EEEZNKS_21TransformedCollectionIS3_NS1_INS_12SecurityStatEEEZNS_18MeasurementHandler25LoadValuesWithTransformToIS5_S2_EENS_8IINFieldERKNS_12HeaderRecordERKNS_11ICollectionINS1_IT0_EEEEEUlRKS3_E_E7ForeachERNS_8IVisitorIS6_EEEUlSK_E_E7OnValueESK_
	.section	.data.rel.ro.local,"aw"
	.align 8
	.type	_ZTVN8opendnp314FunctorVisitorINS_11Group50Var1EZNKS_21TransformedCollectionIS1_N7openpal10UInt48TypeEZNS_18MeasurementHandler13ProcessHeaderERKNS_11CountHeaderERKNS_11ICollectionIS1_EEEUlRKS1_E_E7ForeachERNS_8IVisitorIS4_EEEUlSE_E_EE, @object
	.size	_ZTVN8opendnp314FunctorVisitorINS_11Group50Var1EZNKS_21TransformedCollectionIS1_N7openpal10UInt48TypeEZNS_18MeasurementHandler13ProcessHeaderERKNS_11CountHeaderERKNS_11ICollectionIS1_EEEUlRKS1_E_E7ForeachERNS_8IVisitorIS4_EEEUlSE_E_EE, 24
_ZTVN8opendnp314FunctorVisitorINS_11Group50Var1EZNKS_21TransformedCollectionIS1_N7openpal10UInt48TypeEZNS_18MeasurementHandler13ProcessHeaderERKNS_11CountHeaderERKNS_11ICollectionIS1_EEEUlRKS1_E_E7ForeachERNS_8IVisitorIS4_EEEUlSE_E_EE:
	.quad	0
	.quad	_ZTIN8opendnp314FunctorVisitorINS_11Group50Var1EZNKS_21TransformedCollectionIS1_N7openpal10UInt48TypeEZNS_18MeasurementHandler13ProcessHeaderERKNS_11CountHeaderERKNS_11ICollectionIS1_EEEUlRKS1_E_E7ForeachERNS_8IVisitorIS4_EEEUlSE_E_EE
	.quad	_ZN8opendnp314FunctorVisitorINS_11Group50Var1EZNKS_21TransformedCollectionIS1_N7openpal10UInt48TypeEZNS_18MeasurementHandler13ProcessHeaderERKNS_11CountHeaderERKNS_11ICollectionIS1_EEEUlRKS1_E_E7ForeachERNS_8IVisitorIS4_EEEUlSE_E_E7OnValueESE_
	.weak	_ZTSN8opendnp318MeasurementHandlerE
	.section	.rodata._ZTSN8opendnp318MeasurementHandlerE,"aG",@progbits,_ZTSN8opendnp318MeasurementHandlerE,comdat
	.align 32
	.type	_ZTSN8opendnp318MeasurementHandlerE, @object
	.size	_ZTSN8opendnp318MeasurementHandlerE, 32
_ZTSN8opendnp318MeasurementHandlerE:
	.string	"N8opendnp318MeasurementHandlerE"
	.weak	_ZTIN8opendnp318MeasurementHandlerE
	.section	.data.rel.ro._ZTIN8opendnp318MeasurementHandlerE,"awG",@progbits,_ZTIN8opendnp318MeasurementHandlerE,comdat
	.align 8
	.type	_ZTIN8opendnp318MeasurementHandlerE, @object
	.size	_ZTIN8opendnp318MeasurementHandlerE, 24
_ZTIN8opendnp318MeasurementHandlerE:
	.quad	_ZTVN10__cxxabiv120__si_class_type_infoE+16
	.quad	_ZTSN8opendnp318MeasurementHandlerE
	.quad	_ZTIN8opendnp312IAPDUHandlerE
	.weak	_ZTSN8opendnp311ICollectionIN7openpal10UInt48TypeEEE
	.section	.rodata._ZTSN8opendnp311ICollectionIN7openpal10UInt48TypeEEE,"aG",@progbits,_ZTSN8opendnp311ICollectionIN7openpal10UInt48TypeEEE,comdat
	.align 32
	.type	_ZTSN8opendnp311ICollectionIN7openpal10UInt48TypeEEE, @object
	.size	_ZTSN8opendnp311ICollectionIN7openpal10UInt48TypeEEE, 49
_ZTSN8opendnp311ICollectionIN7openpal10UInt48TypeEEE:
	.string	"N8opendnp311ICollectionIN7openpal10UInt48TypeEEE"
	.weak	_ZTIN8opendnp311ICollectionIN7openpal10UInt48TypeEEE
	.section	.data.rel.ro._ZTIN8opendnp311ICollectionIN7openpal10UInt48TypeEEE,"awG",@progbits,_ZTIN8opendnp311ICollectionIN7openpal10UInt48TypeEEE,comdat
	.align 8
	.type	_ZTIN8opendnp311ICollectionIN7openpal10UInt48TypeEEE, @object
	.size	_ZTIN8opendnp311ICollectionIN7openpal10UInt48TypeEEE, 16
_ZTIN8opendnp311ICollectionIN7openpal10UInt48TypeEEE:
	.quad	_ZTVN10__cxxabiv117__class_type_infoE+16
	.quad	_ZTSN8opendnp311ICollectionIN7openpal10UInt48TypeEEE
	.section	.data.rel.ro
	.align 8
	.type	_ZTIN8opendnp321TransformedCollectionINS_11Group50Var1EN7openpal10UInt48TypeEZNS_18MeasurementHandler13ProcessHeaderERKNS_11CountHeaderERKNS_11ICollectionIS1_EEEUlRKS1_E_EE, @object
	.size	_ZTIN8opendnp321TransformedCollectionINS_11Group50Var1EN7openpal10UInt48TypeEZNS_18MeasurementHandler13ProcessHeaderERKNS_11CountHeaderERKNS_11ICollectionIS1_EEEUlRKS1_E_EE, 24
_ZTIN8opendnp321TransformedCollectionINS_11Group50Var1EN7openpal10UInt48TypeEZNS_18MeasurementHandler13ProcessHeaderERKNS_11CountHeaderERKNS_11ICollectionIS1_EEEUlRKS1_E_EE:
	.quad	_ZTVN10__cxxabiv120__si_class_type_infoE+16
	.quad	_ZTSN8opendnp321TransformedCollectionINS_11Group50Var1EN7openpal10UInt48TypeEZNS_18MeasurementHandler13ProcessHeaderERKNS_11CountHeaderERKNS_11ICollectionIS1_EEEUlRKS1_E_EE
	.quad	_ZTIN8opendnp311ICollectionIN7openpal10UInt48TypeEEE
	.section	.rodata
	.align 32
	.type	_ZTSN8opendnp321TransformedCollectionINS_11Group50Var1EN7openpal10UInt48TypeEZNS_18MeasurementHandler13ProcessHeaderERKNS_11CountHeaderERKNS_11ICollectionIS1_EEEUlRKS1_E_EE, @object
	.size	_ZTSN8opendnp321TransformedCollectionINS_11Group50Var1EN7openpal10UInt48TypeEZNS_18MeasurementHandler13ProcessHeaderERKNS_11CountHeaderERKNS_11ICollectionIS1_EEEUlRKS1_E_EE, 170
_ZTSN8opendnp321TransformedCollectionINS_11Group50Var1EN7openpal10UInt48TypeEZNS_18MeasurementHandler13ProcessHeaderERKNS_11CountHeaderERKNS_11ICollectionIS1_EEEUlRKS1_E_EE:
	.string	"*N8opendnp321TransformedCollectionINS_11Group50Var1EN7openpal10UInt48TypeEZNS_18MeasurementHandler13ProcessHeaderERKNS_11CountHeaderERKNS_11ICollectionIS1_EEEUlRKS1_E_EE"
	.weak	_ZTSN8opendnp311ICollectionINS_7IndexedINS_12SecurityStatEEEEE
	.section	.rodata._ZTSN8opendnp311ICollectionINS_7IndexedINS_12SecurityStatEEEEE,"aG",@progbits,_ZTSN8opendnp311ICollectionINS_7IndexedINS_12SecurityStatEEEEE,comdat
	.align 32
	.type	_ZTSN8opendnp311ICollectionINS_7IndexedINS_12SecurityStatEEEEE, @object
	.size	_ZTSN8opendnp311ICollectionINS_7IndexedINS_12SecurityStatEEEEE, 59
_ZTSN8opendnp311ICollectionINS_7IndexedINS_12SecurityStatEEEEE:
	.string	"N8opendnp311ICollectionINS_7IndexedINS_12SecurityStatEEEEE"
	.weak	_ZTIN8opendnp311ICollectionINS_7IndexedINS_12SecurityStatEEEEE
	.section	.data.rel.ro._ZTIN8opendnp311ICollectionINS_7IndexedINS_12SecurityStatEEEEE,"awG",@progbits,_ZTIN8opendnp311ICollectionINS_7IndexedINS_12SecurityStatEEEEE,comdat
	.align 8
	.type	_ZTIN8opendnp311ICollectionINS_7IndexedINS_12SecurityStatEEEEE, @object
	.size	_ZTIN8opendnp311ICollectionINS_7IndexedINS_12SecurityStatEEEEE, 16
_ZTIN8opendnp311ICollectionINS_7IndexedINS_12SecurityStatEEEEE:
	.quad	_ZTVN10__cxxabiv117__class_type_infoE+16
	.quad	_ZTSN8opendnp311ICollectionINS_7IndexedINS_12SecurityStatEEEEE
	.weak	_ZTSN8opendnp311ICollectionINS_7IndexedINS_15DoubleBitBinaryEEEEE
	.section	.rodata._ZTSN8opendnp311ICollectionINS_7IndexedINS_15DoubleBitBinaryEEEEE,"aG",@progbits,_ZTSN8opendnp311ICollectionINS_7IndexedINS_15DoubleBitBinaryEEEEE,comdat
	.align 32
	.type	_ZTSN8opendnp311ICollectionINS_7IndexedINS_15DoubleBitBinaryEEEEE, @object
	.size	_ZTSN8opendnp311ICollectionINS_7IndexedINS_15DoubleBitBinaryEEEEE, 62
_ZTSN8opendnp311ICollectionINS_7IndexedINS_15DoubleBitBinaryEEEEE:
	.string	"N8opendnp311ICollectionINS_7IndexedINS_15DoubleBitBinaryEEEEE"
	.weak	_ZTIN8opendnp311ICollectionINS_7IndexedINS_15DoubleBitBinaryEEEEE
	.section	.data.rel.ro._ZTIN8opendnp311ICollectionINS_7IndexedINS_15DoubleBitBinaryEEEEE,"awG",@progbits,_ZTIN8opendnp311ICollectionINS_7IndexedINS_15DoubleBitBinaryEEEEE,comdat
	.align 8
	.type	_ZTIN8opendnp311ICollectionINS_7IndexedINS_15DoubleBitBinaryEEEEE, @object
	.size	_ZTIN8opendnp311ICollectionINS_7IndexedINS_15DoubleBitBinaryEEEEE, 16
_ZTIN8opendnp311ICollectionINS_7IndexedINS_15DoubleBitBinaryEEEEE:
	.quad	_ZTVN10__cxxabiv117__class_type_infoE+16
	.quad	_ZTSN8opendnp311ICollectionINS_7IndexedINS_15DoubleBitBinaryEEEEE
	.weak	_ZTSN8opendnp311ICollectionINS_7IndexedINS_6BinaryEEEEE
	.section	.rodata._ZTSN8opendnp311ICollectionINS_7IndexedINS_6BinaryEEEEE,"aG",@progbits,_ZTSN8opendnp311ICollectionINS_7IndexedINS_6BinaryEEEEE,comdat
	.align 32
	.type	_ZTSN8opendnp311ICollectionINS_7IndexedINS_6BinaryEEEEE, @object
	.size	_ZTSN8opendnp311ICollectionINS_7IndexedINS_6BinaryEEEEE, 52
_ZTSN8opendnp311ICollectionINS_7IndexedINS_6BinaryEEEEE:
	.string	"N8opendnp311ICollectionINS_7IndexedINS_6BinaryEEEEE"
	.weak	_ZTIN8opendnp311ICollectionINS_7IndexedINS_6BinaryEEEEE
	.section	.data.rel.ro._ZTIN8opendnp311ICollectionINS_7IndexedINS_6BinaryEEEEE,"awG",@progbits,_ZTIN8opendnp311ICollectionINS_7IndexedINS_6BinaryEEEEE,comdat
	.align 8
	.type	_ZTIN8opendnp311ICollectionINS_7IndexedINS_6BinaryEEEEE, @object
	.size	_ZTIN8opendnp311ICollectionINS_7IndexedINS_6BinaryEEEEE, 16
_ZTIN8opendnp311ICollectionINS_7IndexedINS_6BinaryEEEEE:
	.quad	_ZTVN10__cxxabiv117__class_type_infoE+16
	.quad	_ZTSN8opendnp311ICollectionINS_7IndexedINS_6BinaryEEEEE
	.weak	_ZTSN8opendnp321TransformedCollectionINS_7IndexedINS_12Group121Var1EEENS1_INS_12SecurityStatEEEZNS_18MeasurementHandler25LoadValuesWithTransformToIS4_S2_EENS_8IINFieldERKNS_12HeaderRecordERKNS_11ICollectionINS1_IT0_EEEEEUlRKS3_E_EE
	.section	.rodata._ZTSN8opendnp321TransformedCollectionINS_7IndexedINS_12Group121Var1EEENS1_INS_12SecurityStatEEEZNS_18MeasurementHandler25LoadValuesWithTransformToIS4_S2_EENS_8IINFieldERKNS_12HeaderRecordERKNS_11ICollectionINS1_IT0_EEEEEUlRKS3_E_EE,"aG",@progbits,_ZTSN8opendnp321TransformedCollectionINS_7IndexedINS_12Group121Var1EEENS1_INS_12SecurityStatEEEZNS_18MeasurementHandler25LoadValuesWithTransformToIS4_S2_EENS_8IINFieldERKNS_12HeaderRecordERKNS_11ICollectionINS1_IT0_EEEEEUlRKS3_E_EE,comdat
	.align 32
	.type	_ZTSN8opendnp321TransformedCollectionINS_7IndexedINS_12Group121Var1EEENS1_INS_12SecurityStatEEEZNS_18MeasurementHandler25LoadValuesWithTransformToIS4_S2_EENS_8IINFieldERKNS_12HeaderRecordERKNS_11ICollectionINS1_IT0_EEEEEUlRKS3_E_EE, @object
	.size	_ZTSN8opendnp321TransformedCollectionINS_7IndexedINS_12Group121Var1EEENS1_INS_12SecurityStatEEEZNS_18MeasurementHandler25LoadValuesWithTransformToIS4_S2_EENS_8IINFieldERKNS_12HeaderRecordERKNS_11ICollectionINS1_IT0_EEEEEUlRKS3_E_EE, 228
_ZTSN8opendnp321TransformedCollectionINS_7IndexedINS_12Group121Var1EEENS1_INS_12SecurityStatEEEZNS_18MeasurementHandler25LoadValuesWithTransformToIS4_S2_EENS_8IINFieldERKNS_12HeaderRecordERKNS_11ICollectionINS1_IT0_EEEEEUlRKS3_E_EE:
	.string	"N8opendnp321TransformedCollectionINS_7IndexedINS_12Group121Var1EEENS1_INS_12SecurityStatEEEZNS_18MeasurementHandler25LoadValuesWithTransformToIS4_S2_EENS_8IINFieldERKNS_12HeaderRecordERKNS_11ICollectionINS1_IT0_EEEEEUlRKS3_E_EE"
	.weak	_ZTIN8opendnp321TransformedCollectionINS_7IndexedINS_12Group121Var1EEENS1_INS_12SecurityStatEEEZNS_18MeasurementHandler25LoadValuesWithTransformToIS4_S2_EENS_8IINFieldERKNS_12HeaderRecordERKNS_11ICollectionINS1_IT0_EEEEEUlRKS3_E_EE
	.section	.data.rel.ro._ZTIN8opendnp321TransformedCollectionINS_7IndexedINS_12Group121Var1EEENS1_INS_12SecurityStatEEEZNS_18MeasurementHandler25LoadValuesWithTransformToIS4_S2_EENS_8IINFieldERKNS_12HeaderRecordERKNS_11ICollectionINS1_IT0_EEEEEUlRKS3_E_EE,"awG",@progbits,_ZTIN8opendnp321TransformedCollectionINS_7IndexedINS_12Group121Var1EEENS1_INS_12SecurityStatEEEZNS_18MeasurementHandler25LoadValuesWithTransformToIS4_S2_EENS_8IINFieldERKNS_12HeaderRecordERKNS_11ICollectionINS1_IT0_EEEEEUlRKS3_E_EE,comdat
	.align 8
	.type	_ZTIN8opendnp321TransformedCollectionINS_7IndexedINS_12Group121Var1EEENS1_INS_12SecurityStatEEEZNS_18MeasurementHandler25LoadValuesWithTransformToIS4_S2_EENS_8IINFieldERKNS_12HeaderRecordERKNS_11ICollectionINS1_IT0_EEEEEUlRKS3_E_EE, @object
	.size	_ZTIN8opendnp321TransformedCollectionINS_7IndexedINS_12Group121Var1EEENS1_INS_12SecurityStatEEEZNS_18MeasurementHandler25LoadValuesWithTransformToIS4_S2_EENS_8IINFieldERKNS_12HeaderRecordERKNS_11ICollectionINS1_IT0_EEEEEUlRKS3_E_EE, 24
_ZTIN8opendnp321TransformedCollectionINS_7IndexedINS_12Group121Var1EEENS1_INS_12SecurityStatEEEZNS_18MeasurementHandler25LoadValuesWithTransformToIS4_S2_EENS_8IINFieldERKNS_12HeaderRecordERKNS_11ICollectionINS1_IT0_EEEEEUlRKS3_E_EE:
	.quad	_ZTVN10__cxxabiv120__si_class_type_infoE+16
	.quad	_ZTSN8opendnp321TransformedCollectionINS_7IndexedINS_12Group121Var1EEENS1_INS_12SecurityStatEEEZNS_18MeasurementHandler25LoadValuesWithTransformToIS4_S2_EENS_8IINFieldERKNS_12HeaderRecordERKNS_11ICollectionINS1_IT0_EEEEEUlRKS3_E_EE
	.quad	_ZTIN8opendnp311ICollectionINS_7IndexedINS_12SecurityStatEEEEE
	.weak	_ZTSN8opendnp321TransformedCollectionINS_7IndexedINS_6BinaryEEES3_ZNS_18MeasurementHandler14ProcessWithCTOIS2_EENS_8IINFieldERKNS_12HeaderRecordERKNS_11ICollectionINS1_IT_EEEEEUlRKS3_E_EE
	.section	.rodata._ZTSN8opendnp321TransformedCollectionINS_7IndexedINS_6BinaryEEES3_ZNS_18MeasurementHandler14ProcessWithCTOIS2_EENS_8IINFieldERKNS_12HeaderRecordERKNS_11ICollectionINS1_IT_EEEEEUlRKS3_E_EE,"aG",@progbits,_ZTSN8opendnp321TransformedCollectionINS_7IndexedINS_6BinaryEEES3_ZNS_18MeasurementHandler14ProcessWithCTOIS2_EENS_8IINFieldERKNS_12HeaderRecordERKNS_11ICollectionINS1_IT_EEEEEUlRKS3_E_EE,comdat
	.align 32
	.type	_ZTSN8opendnp321TransformedCollectionINS_7IndexedINS_6BinaryEEES3_ZNS_18MeasurementHandler14ProcessWithCTOIS2_EENS_8IINFieldERKNS_12HeaderRecordERKNS_11ICollectionINS1_IT_EEEEEUlRKS3_E_EE, @object
	.size	_ZTSN8opendnp321TransformedCollectionINS_7IndexedINS_6BinaryEEES3_ZNS_18MeasurementHandler14ProcessWithCTOIS2_EENS_8IINFieldERKNS_12HeaderRecordERKNS_11ICollectionINS1_IT_EEEEEUlRKS3_E_EE, 184
_ZTSN8opendnp321TransformedCollectionINS_7IndexedINS_6BinaryEEES3_ZNS_18MeasurementHandler14ProcessWithCTOIS2_EENS_8IINFieldERKNS_12HeaderRecordERKNS_11ICollectionINS1_IT_EEEEEUlRKS3_E_EE:
	.string	"N8opendnp321TransformedCollectionINS_7IndexedINS_6BinaryEEES3_ZNS_18MeasurementHandler14ProcessWithCTOIS2_EENS_8IINFieldERKNS_12HeaderRecordERKNS_11ICollectionINS1_IT_EEEEEUlRKS3_E_EE"
	.weak	_ZTIN8opendnp321TransformedCollectionINS_7IndexedINS_6BinaryEEES3_ZNS_18MeasurementHandler14ProcessWithCTOIS2_EENS_8IINFieldERKNS_12HeaderRecordERKNS_11ICollectionINS1_IT_EEEEEUlRKS3_E_EE
	.section	.data.rel.ro._ZTIN8opendnp321TransformedCollectionINS_7IndexedINS_6BinaryEEES3_ZNS_18MeasurementHandler14ProcessWithCTOIS2_EENS_8IINFieldERKNS_12HeaderRecordERKNS_11ICollectionINS1_IT_EEEEEUlRKS3_E_EE,"awG",@progbits,_ZTIN8opendnp321TransformedCollectionINS_7IndexedINS_6BinaryEEES3_ZNS_18MeasurementHandler14ProcessWithCTOIS2_EENS_8IINFieldERKNS_12HeaderRecordERKNS_11ICollectionINS1_IT_EEEEEUlRKS3_E_EE,comdat
	.align 8
	.type	_ZTIN8opendnp321TransformedCollectionINS_7IndexedINS_6BinaryEEES3_ZNS_18MeasurementHandler14ProcessWithCTOIS2_EENS_8IINFieldERKNS_12HeaderRecordERKNS_11ICollectionINS1_IT_EEEEEUlRKS3_E_EE, @object
	.size	_ZTIN8opendnp321TransformedCollectionINS_7IndexedINS_6BinaryEEES3_ZNS_18MeasurementHandler14ProcessWithCTOIS2_EENS_8IINFieldERKNS_12HeaderRecordERKNS_11ICollectionINS1_IT_EEEEEUlRKS3_E_EE, 24
_ZTIN8opendnp321TransformedCollectionINS_7IndexedINS_6BinaryEEES3_ZNS_18MeasurementHandler14ProcessWithCTOIS2_EENS_8IINFieldERKNS_12HeaderRecordERKNS_11ICollectionINS1_IT_EEEEEUlRKS3_E_EE:
	.quad	_ZTVN10__cxxabiv120__si_class_type_infoE+16
	.quad	_ZTSN8opendnp321TransformedCollectionINS_7IndexedINS_6BinaryEEES3_ZNS_18MeasurementHandler14ProcessWithCTOIS2_EENS_8IINFieldERKNS_12HeaderRecordERKNS_11ICollectionINS1_IT_EEEEEUlRKS3_E_EE
	.quad	_ZTIN8opendnp311ICollectionINS_7IndexedINS_6BinaryEEEEE
	.weak	_ZTSN8opendnp321TransformedCollectionINS_7IndexedINS_15DoubleBitBinaryEEES3_ZNS_18MeasurementHandler14ProcessWithCTOIS2_EENS_8IINFieldERKNS_12HeaderRecordERKNS_11ICollectionINS1_IT_EEEEEUlRKS3_E_EE
	.section	.rodata._ZTSN8opendnp321TransformedCollectionINS_7IndexedINS_15DoubleBitBinaryEEES3_ZNS_18MeasurementHandler14ProcessWithCTOIS2_EENS_8IINFieldERKNS_12HeaderRecordERKNS_11ICollectionINS1_IT_EEEEEUlRKS3_E_EE,"aG",@progbits,_ZTSN8opendnp321TransformedCollectionINS_7IndexedINS_15DoubleBitBinaryEEES3_ZNS_18MeasurementHandler14ProcessWithCTOIS2_EENS_8IINFieldERKNS_12HeaderRecordERKNS_11ICollectionINS1_IT_EEEEEUlRKS3_E_EE,comdat
	.align 32
	.type	_ZTSN8opendnp321TransformedCollectionINS_7IndexedINS_15DoubleBitBinaryEEES3_ZNS_18MeasurementHandler14ProcessWithCTOIS2_EENS_8IINFieldERKNS_12HeaderRecordERKNS_11ICollectionINS1_IT_EEEEEUlRKS3_E_EE, @object
	.size	_ZTSN8opendnp321TransformedCollectionINS_7IndexedINS_15DoubleBitBinaryEEES3_ZNS_18MeasurementHandler14ProcessWithCTOIS2_EENS_8IINFieldERKNS_12HeaderRecordERKNS_11ICollectionINS1_IT_EEEEEUlRKS3_E_EE, 194
_ZTSN8opendnp321TransformedCollectionINS_7IndexedINS_15DoubleBitBinaryEEES3_ZNS_18MeasurementHandler14ProcessWithCTOIS2_EENS_8IINFieldERKNS_12HeaderRecordERKNS_11ICollectionINS1_IT_EEEEEUlRKS3_E_EE:
	.string	"N8opendnp321TransformedCollectionINS_7IndexedINS_15DoubleBitBinaryEEES3_ZNS_18MeasurementHandler14ProcessWithCTOIS2_EENS_8IINFieldERKNS_12HeaderRecordERKNS_11ICollectionINS1_IT_EEEEEUlRKS3_E_EE"
	.weak	_ZTIN8opendnp321TransformedCollectionINS_7IndexedINS_15DoubleBitBinaryEEES3_ZNS_18MeasurementHandler14ProcessWithCTOIS2_EENS_8IINFieldERKNS_12HeaderRecordERKNS_11ICollectionINS1_IT_EEEEEUlRKS3_E_EE
	.section	.data.rel.ro._ZTIN8opendnp321TransformedCollectionINS_7IndexedINS_15DoubleBitBinaryEEES3_ZNS_18MeasurementHandler14ProcessWithCTOIS2_EENS_8IINFieldERKNS_12HeaderRecordERKNS_11ICollectionINS1_IT_EEEEEUlRKS3_E_EE,"awG",@progbits,_ZTIN8opendnp321TransformedCollectionINS_7IndexedINS_15DoubleBitBinaryEEES3_ZNS_18MeasurementHandler14ProcessWithCTOIS2_EENS_8IINFieldERKNS_12HeaderRecordERKNS_11ICollectionINS1_IT_EEEEEUlRKS3_E_EE,comdat
	.align 8
	.type	_ZTIN8opendnp321TransformedCollectionINS_7IndexedINS_15DoubleBitBinaryEEES3_ZNS_18MeasurementHandler14ProcessWithCTOIS2_EENS_8IINFieldERKNS_12HeaderRecordERKNS_11ICollectionINS1_IT_EEEEEUlRKS3_E_EE, @object
	.size	_ZTIN8opendnp321TransformedCollectionINS_7IndexedINS_15DoubleBitBinaryEEES3_ZNS_18MeasurementHandler14ProcessWithCTOIS2_EENS_8IINFieldERKNS_12HeaderRecordERKNS_11ICollectionINS1_IT_EEEEEUlRKS3_E_EE, 24
_ZTIN8opendnp321TransformedCollectionINS_7IndexedINS_15DoubleBitBinaryEEES3_ZNS_18MeasurementHandler14ProcessWithCTOIS2_EENS_8IINFieldERKNS_12HeaderRecordERKNS_11ICollectionINS1_IT_EEEEEUlRKS3_E_EE:
	.quad	_ZTVN10__cxxabiv120__si_class_type_infoE+16
	.quad	_ZTSN8opendnp321TransformedCollectionINS_7IndexedINS_15DoubleBitBinaryEEES3_ZNS_18MeasurementHandler14ProcessWithCTOIS2_EENS_8IINFieldERKNS_12HeaderRecordERKNS_11ICollectionINS1_IT_EEEEEUlRKS3_E_EE
	.quad	_ZTIN8opendnp311ICollectionINS_7IndexedINS_15DoubleBitBinaryEEEEE
	.weak	_ZTSN8opendnp321TransformedCollectionINS_7IndexedINS_12Group122Var1EEENS1_INS_12SecurityStatEEEZNS_18MeasurementHandler25LoadValuesWithTransformToIS4_S2_EENS_8IINFieldERKNS_12HeaderRecordERKNS_11ICollectionINS1_IT0_EEEEEUlRKS3_E_EE
	.section	.rodata._ZTSN8opendnp321TransformedCollectionINS_7IndexedINS_12Group122Var1EEENS1_INS_12SecurityStatEEEZNS_18MeasurementHandler25LoadValuesWithTransformToIS4_S2_EENS_8IINFieldERKNS_12HeaderRecordERKNS_11ICollectionINS1_IT0_EEEEEUlRKS3_E_EE,"aG",@progbits,_ZTSN8opendnp321TransformedCollectionINS_7IndexedINS_12Group122Var1EEENS1_INS_12SecurityStatEEEZNS_18MeasurementHandler25LoadValuesWithTransformToIS4_S2_EENS_8IINFieldERKNS_12HeaderRecordERKNS_11ICollectionINS1_IT0_EEEEEUlRKS3_E_EE,comdat
	.align 32
	.type	_ZTSN8opendnp321TransformedCollectionINS_7IndexedINS_12Group122Var1EEENS1_INS_12SecurityStatEEEZNS_18MeasurementHandler25LoadValuesWithTransformToIS4_S2_EENS_8IINFieldERKNS_12HeaderRecordERKNS_11ICollectionINS1_IT0_EEEEEUlRKS3_E_EE, @object
	.size	_ZTSN8opendnp321TransformedCollectionINS_7IndexedINS_12Group122Var1EEENS1_INS_12SecurityStatEEEZNS_18MeasurementHandler25LoadValuesWithTransformToIS4_S2_EENS_8IINFieldERKNS_12HeaderRecordERKNS_11ICollectionINS1_IT0_EEEEEUlRKS3_E_EE, 228
_ZTSN8opendnp321TransformedCollectionINS_7IndexedINS_12Group122Var1EEENS1_INS_12SecurityStatEEEZNS_18MeasurementHandler25LoadValuesWithTransformToIS4_S2_EENS_8IINFieldERKNS_12HeaderRecordERKNS_11ICollectionINS1_IT0_EEEEEUlRKS3_E_EE:
	.string	"N8opendnp321TransformedCollectionINS_7IndexedINS_12Group122Var1EEENS1_INS_12SecurityStatEEEZNS_18MeasurementHandler25LoadValuesWithTransformToIS4_S2_EENS_8IINFieldERKNS_12HeaderRecordERKNS_11ICollectionINS1_IT0_EEEEEUlRKS3_E_EE"
	.weak	_ZTIN8opendnp321TransformedCollectionINS_7IndexedINS_12Group122Var1EEENS1_INS_12SecurityStatEEEZNS_18MeasurementHandler25LoadValuesWithTransformToIS4_S2_EENS_8IINFieldERKNS_12HeaderRecordERKNS_11ICollectionINS1_IT0_EEEEEUlRKS3_E_EE
	.section	.data.rel.ro._ZTIN8opendnp321TransformedCollectionINS_7IndexedINS_12Group122Var1EEENS1_INS_12SecurityStatEEEZNS_18MeasurementHandler25LoadValuesWithTransformToIS4_S2_EENS_8IINFieldERKNS_12HeaderRecordERKNS_11ICollectionINS1_IT0_EEEEEUlRKS3_E_EE,"awG",@progbits,_ZTIN8opendnp321TransformedCollectionINS_7IndexedINS_12Group122Var1EEENS1_INS_12SecurityStatEEEZNS_18MeasurementHandler25LoadValuesWithTransformToIS4_S2_EENS_8IINFieldERKNS_12HeaderRecordERKNS_11ICollectionINS1_IT0_EEEEEUlRKS3_E_EE,comdat
	.align 8
	.type	_ZTIN8opendnp321TransformedCollectionINS_7IndexedINS_12Group122Var1EEENS1_INS_12SecurityStatEEEZNS_18MeasurementHandler25LoadValuesWithTransformToIS4_S2_EENS_8IINFieldERKNS_12HeaderRecordERKNS_11ICollectionINS1_IT0_EEEEEUlRKS3_E_EE, @object
	.size	_ZTIN8opendnp321TransformedCollectionINS_7IndexedINS_12Group122Var1EEENS1_INS_12SecurityStatEEEZNS_18MeasurementHandler25LoadValuesWithTransformToIS4_S2_EENS_8IINFieldERKNS_12HeaderRecordERKNS_11ICollectionINS1_IT0_EEEEEUlRKS3_E_EE, 24
_ZTIN8opendnp321TransformedCollectionINS_7IndexedINS_12Group122Var1EEENS1_INS_12SecurityStatEEEZNS_18MeasurementHandler25LoadValuesWithTransformToIS4_S2_EENS_8IINFieldERKNS_12HeaderRecordERKNS_11ICollectionINS1_IT0_EEEEEUlRKS3_E_EE:
	.quad	_ZTVN10__cxxabiv120__si_class_type_infoE+16
	.quad	_ZTSN8opendnp321TransformedCollectionINS_7IndexedINS_12Group122Var1EEENS1_INS_12SecurityStatEEEZNS_18MeasurementHandler25LoadValuesWithTransformToIS4_S2_EENS_8IINFieldERKNS_12HeaderRecordERKNS_11ICollectionINS1_IT0_EEEEEUlRKS3_E_EE
	.quad	_ZTIN8opendnp311ICollectionINS_7IndexedINS_12SecurityStatEEEEE
	.weak	_ZTSN8opendnp321TransformedCollectionINS_7IndexedINS_12Group122Var2EEENS1_INS_12SecurityStatEEEZNS_18MeasurementHandler25LoadValuesWithTransformToIS4_S2_EENS_8IINFieldERKNS_12HeaderRecordERKNS_11ICollectionINS1_IT0_EEEEEUlRKS3_E_EE
	.section	.rodata._ZTSN8opendnp321TransformedCollectionINS_7IndexedINS_12Group122Var2EEENS1_INS_12SecurityStatEEEZNS_18MeasurementHandler25LoadValuesWithTransformToIS4_S2_EENS_8IINFieldERKNS_12HeaderRecordERKNS_11ICollectionINS1_IT0_EEEEEUlRKS3_E_EE,"aG",@progbits,_ZTSN8opendnp321TransformedCollectionINS_7IndexedINS_12Group122Var2EEENS1_INS_12SecurityStatEEEZNS_18MeasurementHandler25LoadValuesWithTransformToIS4_S2_EENS_8IINFieldERKNS_12HeaderRecordERKNS_11ICollectionINS1_IT0_EEEEEUlRKS3_E_EE,comdat
	.align 32
	.type	_ZTSN8opendnp321TransformedCollectionINS_7IndexedINS_12Group122Var2EEENS1_INS_12SecurityStatEEEZNS_18MeasurementHandler25LoadValuesWithTransformToIS4_S2_EENS_8IINFieldERKNS_12HeaderRecordERKNS_11ICollectionINS1_IT0_EEEEEUlRKS3_E_EE, @object
	.size	_ZTSN8opendnp321TransformedCollectionINS_7IndexedINS_12Group122Var2EEENS1_INS_12SecurityStatEEEZNS_18MeasurementHandler25LoadValuesWithTransformToIS4_S2_EENS_8IINFieldERKNS_12HeaderRecordERKNS_11ICollectionINS1_IT0_EEEEEUlRKS3_E_EE, 228
_ZTSN8opendnp321TransformedCollectionINS_7IndexedINS_12Group122Var2EEENS1_INS_12SecurityStatEEEZNS_18MeasurementHandler25LoadValuesWithTransformToIS4_S2_EENS_8IINFieldERKNS_12HeaderRecordERKNS_11ICollectionINS1_IT0_EEEEEUlRKS3_E_EE:
	.string	"N8opendnp321TransformedCollectionINS_7IndexedINS_12Group122Var2EEENS1_INS_12SecurityStatEEEZNS_18MeasurementHandler25LoadValuesWithTransformToIS4_S2_EENS_8IINFieldERKNS_12HeaderRecordERKNS_11ICollectionINS1_IT0_EEEEEUlRKS3_E_EE"
	.weak	_ZTIN8opendnp321TransformedCollectionINS_7IndexedINS_12Group122Var2EEENS1_INS_12SecurityStatEEEZNS_18MeasurementHandler25LoadValuesWithTransformToIS4_S2_EENS_8IINFieldERKNS_12HeaderRecordERKNS_11ICollectionINS1_IT0_EEEEEUlRKS3_E_EE
	.section	.data.rel.ro._ZTIN8opendnp321TransformedCollectionINS_7IndexedINS_12Group122Var2EEENS1_INS_12SecurityStatEEEZNS_18MeasurementHandler25LoadValuesWithTransformToIS4_S2_EENS_8IINFieldERKNS_12HeaderRecordERKNS_11ICollectionINS1_IT0_EEEEEUlRKS3_E_EE,"awG",@progbits,_ZTIN8opendnp321TransformedCollectionINS_7IndexedINS_12Group122Var2EEENS1_INS_12SecurityStatEEEZNS_18MeasurementHandler25LoadValuesWithTransformToIS4_S2_EENS_8IINFieldERKNS_12HeaderRecordERKNS_11ICollectionINS1_IT0_EEEEEUlRKS3_E_EE,comdat
	.align 8
	.type	_ZTIN8opendnp321TransformedCollectionINS_7IndexedINS_12Group122Var2EEENS1_INS_12SecurityStatEEEZNS_18MeasurementHandler25LoadValuesWithTransformToIS4_S2_EENS_8IINFieldERKNS_12HeaderRecordERKNS_11ICollectionINS1_IT0_EEEEEUlRKS3_E_EE, @object
	.size	_ZTIN8opendnp321TransformedCollectionINS_7IndexedINS_12Group122Var2EEENS1_INS_12SecurityStatEEEZNS_18MeasurementHandler25LoadValuesWithTransformToIS4_S2_EENS_8IINFieldERKNS_12HeaderRecordERKNS_11ICollectionINS1_IT0_EEEEEUlRKS3_E_EE, 24
_ZTIN8opendnp321TransformedCollectionINS_7IndexedINS_12Group122Var2EEENS1_INS_12SecurityStatEEEZNS_18MeasurementHandler25LoadValuesWithTransformToIS4_S2_EENS_8IINFieldERKNS_12HeaderRecordERKNS_11ICollectionINS1_IT0_EEEEEUlRKS3_E_EE:
	.quad	_ZTVN10__cxxabiv120__si_class_type_infoE+16
	.quad	_ZTSN8opendnp321TransformedCollectionINS_7IndexedINS_12Group122Var2EEENS1_INS_12SecurityStatEEEZNS_18MeasurementHandler25LoadValuesWithTransformToIS4_S2_EENS_8IINFieldERKNS_12HeaderRecordERKNS_11ICollectionINS1_IT0_EEEEEUlRKS3_E_EE
	.quad	_ZTIN8opendnp311ICollectionINS_7IndexedINS_12SecurityStatEEEEE
	.weak	_ZTSN8opendnp38IVisitorINS_11Group51Var1EEE
	.section	.rodata._ZTSN8opendnp38IVisitorINS_11Group51Var1EEE,"aG",@progbits,_ZTSN8opendnp38IVisitorINS_11Group51Var1EEE,comdat
	.align 32
	.type	_ZTSN8opendnp38IVisitorINS_11Group51Var1EEE, @object
	.size	_ZTSN8opendnp38IVisitorINS_11Group51Var1EEE, 40
_ZTSN8opendnp38IVisitorINS_11Group51Var1EEE:
	.string	"N8opendnp38IVisitorINS_11Group51Var1EEE"
	.weak	_ZTIN8opendnp38IVisitorINS_11Group51Var1EEE
	.section	.data.rel.ro._ZTIN8opendnp38IVisitorINS_11Group51Var1EEE,"awG",@progbits,_ZTIN8opendnp38IVisitorINS_11Group51Var1EEE,comdat
	.align 8
	.type	_ZTIN8opendnp38IVisitorINS_11Group51Var1EEE, @object
	.size	_ZTIN8opendnp38IVisitorINS_11Group51Var1EEE, 16
_ZTIN8opendnp38IVisitorINS_11Group51Var1EEE:
	.quad	_ZTVN10__cxxabiv117__class_type_infoE+16
	.quad	_ZTSN8opendnp38IVisitorINS_11Group51Var1EEE
	.weak	_ZTSN8opendnp314FunctorVisitorINS_11Group51Var1EZNKS_11ICollectionIS1_E13ReadOnlyValueERS1_EUlRKS1_E_EE
	.section	.rodata._ZTSN8opendnp314FunctorVisitorINS_11Group51Var1EZNKS_11ICollectionIS1_E13ReadOnlyValueERS1_EUlRKS1_E_EE,"aG",@progbits,_ZTSN8opendnp314FunctorVisitorINS_11Group51Var1EZNKS_11ICollectionIS1_E13ReadOnlyValueERS1_EUlRKS1_E_EE,comdat
	.align 32
	.type	_ZTSN8opendnp314FunctorVisitorINS_11Group51Var1EZNKS_11ICollectionIS1_E13ReadOnlyValueERS1_EUlRKS1_E_EE, @object
	.size	_ZTSN8opendnp314FunctorVisitorINS_11Group51Var1EZNKS_11ICollectionIS1_E13ReadOnlyValueERS1_EUlRKS1_E_EE, 100
_ZTSN8opendnp314FunctorVisitorINS_11Group51Var1EZNKS_11ICollectionIS1_E13ReadOnlyValueERS1_EUlRKS1_E_EE:
	.string	"N8opendnp314FunctorVisitorINS_11Group51Var1EZNKS_11ICollectionIS1_E13ReadOnlyValueERS1_EUlRKS1_E_EE"
	.weak	_ZTIN8opendnp314FunctorVisitorINS_11Group51Var1EZNKS_11ICollectionIS1_E13ReadOnlyValueERS1_EUlRKS1_E_EE
	.section	.data.rel.ro._ZTIN8opendnp314FunctorVisitorINS_11Group51Var1EZNKS_11ICollectionIS1_E13ReadOnlyValueERS1_EUlRKS1_E_EE,"awG",@progbits,_ZTIN8opendnp314FunctorVisitorINS_11Group51Var1EZNKS_11ICollectionIS1_E13ReadOnlyValueERS1_EUlRKS1_E_EE,comdat
	.align 8
	.type	_ZTIN8opendnp314FunctorVisitorINS_11Group51Var1EZNKS_11ICollectionIS1_E13ReadOnlyValueERS1_EUlRKS1_E_EE, @object
	.size	_ZTIN8opendnp314FunctorVisitorINS_11Group51Var1EZNKS_11ICollectionIS1_E13ReadOnlyValueERS1_EUlRKS1_E_EE, 24
_ZTIN8opendnp314FunctorVisitorINS_11Group51Var1EZNKS_11ICollectionIS1_E13ReadOnlyValueERS1_EUlRKS1_E_EE:
	.quad	_ZTVN10__cxxabiv120__si_class_type_infoE+16
	.quad	_ZTSN8opendnp314FunctorVisitorINS_11Group51Var1EZNKS_11ICollectionIS1_E13ReadOnlyValueERS1_EUlRKS1_E_EE
	.quad	_ZTIN8opendnp38IVisitorINS_11Group51Var1EEE
	.weak	_ZTSN8opendnp38IVisitorINS_11Group51Var2EEE
	.section	.rodata._ZTSN8opendnp38IVisitorINS_11Group51Var2EEE,"aG",@progbits,_ZTSN8opendnp38IVisitorINS_11Group51Var2EEE,comdat
	.align 32
	.type	_ZTSN8opendnp38IVisitorINS_11Group51Var2EEE, @object
	.size	_ZTSN8opendnp38IVisitorINS_11Group51Var2EEE, 40
_ZTSN8opendnp38IVisitorINS_11Group51Var2EEE:
	.string	"N8opendnp38IVisitorINS_11Group51Var2EEE"
	.weak	_ZTIN8opendnp38IVisitorINS_11Group51Var2EEE
	.section	.data.rel.ro._ZTIN8opendnp38IVisitorINS_11Group51Var2EEE,"awG",@progbits,_ZTIN8opendnp38IVisitorINS_11Group51Var2EEE,comdat
	.align 8
	.type	_ZTIN8opendnp38IVisitorINS_11Group51Var2EEE, @object
	.size	_ZTIN8opendnp38IVisitorINS_11Group51Var2EEE, 16
_ZTIN8opendnp38IVisitorINS_11Group51Var2EEE:
	.quad	_ZTVN10__cxxabiv117__class_type_infoE+16
	.quad	_ZTSN8opendnp38IVisitorINS_11Group51Var2EEE
	.weak	_ZTSN8opendnp314FunctorVisitorINS_11Group51Var2EZNKS_11ICollectionIS1_E13ReadOnlyValueERS1_EUlRKS1_E_EE
	.section	.rodata._ZTSN8opendnp314FunctorVisitorINS_11Group51Var2EZNKS_11ICollectionIS1_E13ReadOnlyValueERS1_EUlRKS1_E_EE,"aG",@progbits,_ZTSN8opendnp314FunctorVisitorINS_11Group51Var2EZNKS_11ICollectionIS1_E13ReadOnlyValueERS1_EUlRKS1_E_EE,comdat
	.align 32
	.type	_ZTSN8opendnp314FunctorVisitorINS_11Group51Var2EZNKS_11ICollectionIS1_E13ReadOnlyValueERS1_EUlRKS1_E_EE, @object
	.size	_ZTSN8opendnp314FunctorVisitorINS_11Group51Var2EZNKS_11ICollectionIS1_E13ReadOnlyValueERS1_EUlRKS1_E_EE, 100
_ZTSN8opendnp314FunctorVisitorINS_11Group51Var2EZNKS_11ICollectionIS1_E13ReadOnlyValueERS1_EUlRKS1_E_EE:
	.string	"N8opendnp314FunctorVisitorINS_11Group51Var2EZNKS_11ICollectionIS1_E13ReadOnlyValueERS1_EUlRKS1_E_EE"
	.weak	_ZTIN8opendnp314FunctorVisitorINS_11Group51Var2EZNKS_11ICollectionIS1_E13ReadOnlyValueERS1_EUlRKS1_E_EE
	.section	.data.rel.ro._ZTIN8opendnp314FunctorVisitorINS_11Group51Var2EZNKS_11ICollectionIS1_E13ReadOnlyValueERS1_EUlRKS1_E_EE,"awG",@progbits,_ZTIN8opendnp314FunctorVisitorINS_11Group51Var2EZNKS_11ICollectionIS1_E13ReadOnlyValueERS1_EUlRKS1_E_EE,comdat
	.align 8
	.type	_ZTIN8opendnp314FunctorVisitorINS_11Group51Var2EZNKS_11ICollectionIS1_E13ReadOnlyValueERS1_EUlRKS1_E_EE, @object
	.size	_ZTIN8opendnp314FunctorVisitorINS_11Group51Var2EZNKS_11ICollectionIS1_E13ReadOnlyValueERS1_EUlRKS1_E_EE, 24
_ZTIN8opendnp314FunctorVisitorINS_11Group51Var2EZNKS_11ICollectionIS1_E13ReadOnlyValueERS1_EUlRKS1_E_EE:
	.quad	_ZTVN10__cxxabiv120__si_class_type_infoE+16
	.quad	_ZTSN8opendnp314FunctorVisitorINS_11Group51Var2EZNKS_11ICollectionIS1_E13ReadOnlyValueERS1_EUlRKS1_E_EE
	.quad	_ZTIN8opendnp38IVisitorINS_11Group51Var2EEE
	.section	.data.rel.ro.local
	.align 8
	.type	_ZTVN8opendnp321TransformedCollectionINS_11Group50Var1EN7openpal10UInt48TypeEZNS_18MeasurementHandler13ProcessHeaderERKNS_11CountHeaderERKNS_11ICollectionIS1_EEEUlRKS1_E_EE, @object
	.size	_ZTVN8opendnp321TransformedCollectionINS_11Group50Var1EN7openpal10UInt48TypeEZNS_18MeasurementHandler13ProcessHeaderERKNS_11CountHeaderERKNS_11ICollectionIS1_EEEUlRKS1_E_EE, 32
_ZTVN8opendnp321TransformedCollectionINS_11Group50Var1EN7openpal10UInt48TypeEZNS_18MeasurementHandler13ProcessHeaderERKNS_11CountHeaderERKNS_11ICollectionIS1_EEEUlRKS1_E_EE:
	.quad	0
	.quad	_ZTIN8opendnp321TransformedCollectionINS_11Group50Var1EN7openpal10UInt48TypeEZNS_18MeasurementHandler13ProcessHeaderERKNS_11CountHeaderERKNS_11ICollectionIS1_EEEUlRKS1_E_EE
	.quad	_ZNK8opendnp321TransformedCollectionINS_11Group50Var1EN7openpal10UInt48TypeEZNS_18MeasurementHandler13ProcessHeaderERKNS_11CountHeaderERKNS_11ICollectionIS1_EEEUlRKS1_E_E5CountEv
	.quad	_ZNK8opendnp321TransformedCollectionINS_11Group50Var1EN7openpal10UInt48TypeEZNS_18MeasurementHandler13ProcessHeaderERKNS_11CountHeaderERKNS_11ICollectionIS1_EEEUlRKS1_E_E7ForeachERNS_8IVisitorIS3_EE
	.weak	_ZTVN8opendnp318MeasurementHandlerE
	.section	.data.rel.ro._ZTVN8opendnp318MeasurementHandlerE,"awG",@progbits,_ZTVN8opendnp318MeasurementHandlerE,comdat
	.align 8
	.type	_ZTVN8opendnp318MeasurementHandlerE, @object
	.size	_ZTVN8opendnp318MeasurementHandlerE, 448
_ZTVN8opendnp318MeasurementHandlerE:
	.quad	0
	.quad	_ZTIN8opendnp318MeasurementHandlerE
	.quad	_ZN8opendnp318MeasurementHandler9IsAllowedEjNS_14GroupVariationENS_13QualifierCodeE
	.quad	_ZN8opendnp312IAPDUHandler13ProcessHeaderERKNS_16AllObjectsHeaderE
	.quad	_ZN8opendnp312IAPDUHandler13ProcessHeaderERKNS_11RangeHeaderE
	.quad	_ZN8opendnp312IAPDUHandler13ProcessHeaderERKNS_11CountHeaderE
	.quad	_ZN8opendnp312IAPDUHandler13ProcessHeaderERKNS_16FreeFormatHeaderERKNS_12Group120Var1ERKN7openpal6RSliceE
	.quad	_ZN8opendnp312IAPDUHandler13ProcessHeaderERKNS_16FreeFormatHeaderERKNS_12Group120Var2ERKN7openpal6RSliceE
	.quad	_ZN8opendnp312IAPDUHandler13ProcessHeaderERKNS_16FreeFormatHeaderERKNS_12Group120Var5ERKN7openpal6RSliceE
	.quad	_ZN8opendnp312IAPDUHandler13ProcessHeaderERKNS_16FreeFormatHeaderERKNS_12Group120Var6ERKN7openpal6RSliceE
	.quad	_ZN8opendnp312IAPDUHandler13ProcessHeaderERKNS_16FreeFormatHeaderERKNS_12Group120Var8ERKN7openpal6RSliceE
	.quad	_ZN8opendnp312IAPDUHandler13ProcessHeaderERKNS_16FreeFormatHeaderERKNS_12Group120Var7ERKN7openpal6RSliceE
	.quad	_ZN8opendnp312IAPDUHandler13ProcessHeaderERKNS_16FreeFormatHeaderERKNS_12Group120Var9ERKN7openpal6RSliceE
	.quad	_ZN8opendnp312IAPDUHandler13ProcessHeaderERKNS_16FreeFormatHeaderERKNS_13Group120Var10ERKN7openpal6RSliceE
	.quad	_ZN8opendnp312IAPDUHandler13ProcessHeaderERKNS_16FreeFormatHeaderERKNS_13Group120Var11ERKN7openpal6RSliceE
	.quad	_ZN8opendnp312IAPDUHandler13ProcessHeaderERKNS_16FreeFormatHeaderERKNS_13Group120Var12ERKN7openpal6RSliceE
	.quad	_ZN8opendnp312IAPDUHandler13ProcessHeaderERKNS_16FreeFormatHeaderERKNS_13Group120Var13ERKN7openpal6RSliceE
	.quad	_ZN8opendnp312IAPDUHandler13ProcessHeaderERKNS_16FreeFormatHeaderERKNS_13Group120Var14ERKN7openpal6RSliceE
	.quad	_ZN8opendnp312IAPDUHandler13ProcessHeaderERKNS_16FreeFormatHeaderERKNS_13Group120Var15ERKN7openpal6RSliceE
	.quad	_ZN8opendnp318MeasurementHandler13ProcessHeaderERKNS_11CountHeaderERKNS_11ICollectionINS_11Group50Var1EEE
	.quad	_ZN8opendnp318MeasurementHandler13ProcessHeaderERKNS_11CountHeaderERKNS_11ICollectionINS_11Group51Var1EEE
	.quad	_ZN8opendnp318MeasurementHandler13ProcessHeaderERKNS_11CountHeaderERKNS_11ICollectionINS_11Group51Var2EEE
	.quad	_ZN8opendnp312IAPDUHandler13ProcessHeaderERKNS_11CountHeaderERKNS_11ICollectionINS_11Group52Var1EEE
	.quad	_ZN8opendnp312IAPDUHandler13ProcessHeaderERKNS_11CountHeaderERKNS_11ICollectionINS_11Group52Var2EEE
	.quad	_ZN8opendnp312IAPDUHandler13ProcessHeaderERKNS_11CountHeaderERKNS_11ICollectionINS_12Group120Var3EEE
	.quad	_ZN8opendnp312IAPDUHandler13ProcessHeaderERKNS_11CountHeaderERKNS_11ICollectionINS_12Group120Var4EEE
	.quad	_ZN8opendnp312IAPDUHandler13ProcessHeaderERKNS_11RangeHeaderERKNS_11ICollectionINS_7IndexedINS_8IINValueEEEEE
	.quad	_ZN8opendnp318MeasurementHandler13ProcessHeaderERKNS_11RangeHeaderERKNS_11ICollectionINS_7IndexedINS_6BinaryEEEEE
	.quad	_ZN8opendnp318MeasurementHandler13ProcessHeaderERKNS_11RangeHeaderERKNS_11ICollectionINS_7IndexedINS_15DoubleBitBinaryEEEEE
	.quad	_ZN8opendnp318MeasurementHandler13ProcessHeaderERKNS_11RangeHeaderERKNS_11ICollectionINS_7IndexedINS_18BinaryOutputStatusEEEEE
	.quad	_ZN8opendnp318MeasurementHandler13ProcessHeaderERKNS_11RangeHeaderERKNS_11ICollectionINS_7IndexedINS_7CounterEEEEE
	.quad	_ZN8opendnp318MeasurementHandler13ProcessHeaderERKNS_11RangeHeaderERKNS_11ICollectionINS_7IndexedINS_13FrozenCounterEEEEE
	.quad	_ZN8opendnp318MeasurementHandler13ProcessHeaderERKNS_11RangeHeaderERKNS_11ICollectionINS_7IndexedINS_6AnalogEEEEE
	.quad	_ZN8opendnp318MeasurementHandler13ProcessHeaderERKNS_11RangeHeaderERKNS_11ICollectionINS_7IndexedINS_18AnalogOutputStatusEEEEE
	.quad	_ZN8opendnp318MeasurementHandler13ProcessHeaderERKNS_11RangeHeaderERKNS_11ICollectionINS_7IndexedINS_11OctetStringEEEEE
	.quad	_ZN8opendnp318MeasurementHandler13ProcessHeaderERKNS_11RangeHeaderERKNS_11ICollectionINS_7IndexedINS_15TimeAndIntervalEEEEE
	.quad	_ZN8opendnp318MeasurementHandler13ProcessHeaderERKNS_11RangeHeaderERKNS_11ICollectionINS_7IndexedINS_12Group121Var1EEEEE
	.quad	_ZN8opendnp318MeasurementHandler13ProcessHeaderERKNS_12PrefixHeaderERKNS_11ICollectionINS_7IndexedINS_6BinaryEEEEE
	.quad	_ZN8opendnp318MeasurementHandler13ProcessHeaderERKNS_12PrefixHeaderERKNS_11ICollectionINS_7IndexedINS_18BinaryOutputStatusEEEEE
	.quad	_ZN8opendnp318MeasurementHandler13ProcessHeaderERKNS_12PrefixHeaderERKNS_11ICollectionINS_7IndexedINS_15DoubleBitBinaryEEEEE
	.quad	_ZN8opendnp318MeasurementHandler13ProcessHeaderERKNS_12PrefixHeaderERKNS_11ICollectionINS_7IndexedINS_7CounterEEEEE
	.quad	_ZN8opendnp318MeasurementHandler13ProcessHeaderERKNS_12PrefixHeaderERKNS_11ICollectionINS_7IndexedINS_13FrozenCounterEEEEE
	.quad	_ZN8opendnp318MeasurementHandler13ProcessHeaderERKNS_12PrefixHeaderERKNS_11ICollectionINS_7IndexedINS_6AnalogEEEEE
	.quad	_ZN8opendnp318MeasurementHandler13ProcessHeaderERKNS_12PrefixHeaderERKNS_11ICollectionINS_7IndexedINS_18AnalogOutputStatusEEEEE
	.quad	_ZN8opendnp318MeasurementHandler13ProcessHeaderERKNS_12PrefixHeaderERKNS_11ICollectionINS_7IndexedINS_11OctetStringEEEEE
	.quad	_ZN8opendnp312IAPDUHandler13ProcessHeaderERKNS_12PrefixHeaderERKNS_11ICollectionINS_7IndexedINS_15TimeAndIntervalEEEEE
	.quad	_ZN8opendnp318MeasurementHandler13ProcessHeaderERKNS_12PrefixHeaderERKNS_11ICollectionINS_7IndexedINS_18BinaryCommandEventEEEEE
	.quad	_ZN8opendnp318MeasurementHandler13ProcessHeaderERKNS_12PrefixHeaderERKNS_11ICollectionINS_7IndexedINS_18AnalogCommandEventEEEEE
	.quad	_ZN8opendnp318MeasurementHandler13ProcessHeaderERKNS_12PrefixHeaderERKNS_11ICollectionINS_7IndexedINS_12Group122Var1EEEEE
	.quad	_ZN8opendnp318MeasurementHandler13ProcessHeaderERKNS_12PrefixHeaderERKNS_11ICollectionINS_7IndexedINS_12Group122Var2EEEEE
	.quad	_ZN8opendnp312IAPDUHandler13ProcessHeaderERKNS_12PrefixHeaderERKNS_11ICollectionINS_7IndexedINS_23ControlRelayOutputBlockEEEEE
	.quad	_ZN8opendnp312IAPDUHandler13ProcessHeaderERKNS_12PrefixHeaderERKNS_11ICollectionINS_7IndexedINS_17AnalogOutputInt16EEEEE
	.quad	_ZN8opendnp312IAPDUHandler13ProcessHeaderERKNS_12PrefixHeaderERKNS_11ICollectionINS_7IndexedINS_17AnalogOutputInt32EEEEE
	.quad	_ZN8opendnp312IAPDUHandler13ProcessHeaderERKNS_12PrefixHeaderERKNS_11ICollectionINS_7IndexedINS_19AnalogOutputFloat32EEEEE
	.quad	_ZN8opendnp312IAPDUHandler13ProcessHeaderERKNS_12PrefixHeaderERKNS_11ICollectionINS_7IndexedINS_20AnalogOutputDouble64EEEEE
	.quad	_ZN8opendnp312IAPDUHandler14OnHeaderResultERKNS_12HeaderRecordERKNS_8IINFieldE
	.weak	_ZTVN8opendnp321TransformedCollectionINS_7IndexedINS_12Group121Var1EEENS1_INS_12SecurityStatEEEZNS_18MeasurementHandler25LoadValuesWithTransformToIS4_S2_EENS_8IINFieldERKNS_12HeaderRecordERKNS_11ICollectionINS1_IT0_EEEEEUlRKS3_E_EE
	.section	.data.rel.ro._ZTVN8opendnp321TransformedCollectionINS_7IndexedINS_12Group121Var1EEENS1_INS_12SecurityStatEEEZNS_18MeasurementHandler25LoadValuesWithTransformToIS4_S2_EENS_8IINFieldERKNS_12HeaderRecordERKNS_11ICollectionINS1_IT0_EEEEEUlRKS3_E_EE,"awG",@progbits,_ZTVN8opendnp321TransformedCollectionINS_7IndexedINS_12Group121Var1EEENS1_INS_12SecurityStatEEEZNS_18MeasurementHandler25LoadValuesWithTransformToIS4_S2_EENS_8IINFieldERKNS_12HeaderRecordERKNS_11ICollectionINS1_IT0_EEEEEUlRKS3_E_EE,comdat
	.align 8
	.type	_ZTVN8opendnp321TransformedCollectionINS_7IndexedINS_12Group121Var1EEENS1_INS_12SecurityStatEEEZNS_18MeasurementHandler25LoadValuesWithTransformToIS4_S2_EENS_8IINFieldERKNS_12HeaderRecordERKNS_11ICollectionINS1_IT0_EEEEEUlRKS3_E_EE, @object
	.size	_ZTVN8opendnp321TransformedCollectionINS_7IndexedINS_12Group121Var1EEENS1_INS_12SecurityStatEEEZNS_18MeasurementHandler25LoadValuesWithTransformToIS4_S2_EENS_8IINFieldERKNS_12HeaderRecordERKNS_11ICollectionINS1_IT0_EEEEEUlRKS3_E_EE, 32
_ZTVN8opendnp321TransformedCollectionINS_7IndexedINS_12Group121Var1EEENS1_INS_12SecurityStatEEEZNS_18MeasurementHandler25LoadValuesWithTransformToIS4_S2_EENS_8IINFieldERKNS_12HeaderRecordERKNS_11ICollectionINS1_IT0_EEEEEUlRKS3_E_EE:
	.quad	0
	.quad	_ZTIN8opendnp321TransformedCollectionINS_7IndexedINS_12Group121Var1EEENS1_INS_12SecurityStatEEEZNS_18MeasurementHandler25LoadValuesWithTransformToIS4_S2_EENS_8IINFieldERKNS_12HeaderRecordERKNS_11ICollectionINS1_IT0_EEEEEUlRKS3_E_EE
	.quad	_ZNK8opendnp321TransformedCollectionINS_7IndexedINS_12Group121Var1EEENS1_INS_12SecurityStatEEEZNS_18MeasurementHandler25LoadValuesWithTransformToIS4_S2_EENS_8IINFieldERKNS_12HeaderRecordERKNS_11ICollectionINS1_IT0_EEEEEUlRKS3_E_E5CountEv
	.quad	_ZNK8opendnp321TransformedCollectionINS_7IndexedINS_12Group121Var1EEENS1_INS_12SecurityStatEEEZNS_18MeasurementHandler25LoadValuesWithTransformToIS4_S2_EENS_8IINFieldERKNS_12HeaderRecordERKNS_11ICollectionINS1_IT0_EEEEEUlRKS3_E_E7ForeachERNS_8IVisitorIS5_EE
	.weak	_ZTVN8opendnp321TransformedCollectionINS_7IndexedINS_6BinaryEEES3_ZNS_18MeasurementHandler14ProcessWithCTOIS2_EENS_8IINFieldERKNS_12HeaderRecordERKNS_11ICollectionINS1_IT_EEEEEUlRKS3_E_EE
	.section	.data.rel.ro._ZTVN8opendnp321TransformedCollectionINS_7IndexedINS_6BinaryEEES3_ZNS_18MeasurementHandler14ProcessWithCTOIS2_EENS_8IINFieldERKNS_12HeaderRecordERKNS_11ICollectionINS1_IT_EEEEEUlRKS3_E_EE,"awG",@progbits,_ZTVN8opendnp321TransformedCollectionINS_7IndexedINS_6BinaryEEES3_ZNS_18MeasurementHandler14ProcessWithCTOIS2_EENS_8IINFieldERKNS_12HeaderRecordERKNS_11ICollectionINS1_IT_EEEEEUlRKS3_E_EE,comdat
	.align 8
	.type	_ZTVN8opendnp321TransformedCollectionINS_7IndexedINS_6BinaryEEES3_ZNS_18MeasurementHandler14ProcessWithCTOIS2_EENS_8IINFieldERKNS_12HeaderRecordERKNS_11ICollectionINS1_IT_EEEEEUlRKS3_E_EE, @object
	.size	_ZTVN8opendnp321TransformedCollectionINS_7IndexedINS_6BinaryEEES3_ZNS_18MeasurementHandler14ProcessWithCTOIS2_EENS_8IINFieldERKNS_12HeaderRecordERKNS_11ICollectionINS1_IT_EEEEEUlRKS3_E_EE, 32
_ZTVN8opendnp321TransformedCollectionINS_7IndexedINS_6BinaryEEES3_ZNS_18MeasurementHandler14ProcessWithCTOIS2_EENS_8IINFieldERKNS_12HeaderRecordERKNS_11ICollectionINS1_IT_EEEEEUlRKS3_E_EE:
	.quad	0
	.quad	_ZTIN8opendnp321TransformedCollectionINS_7IndexedINS_6BinaryEEES3_ZNS_18MeasurementHandler14ProcessWithCTOIS2_EENS_8IINFieldERKNS_12HeaderRecordERKNS_11ICollectionINS1_IT_EEEEEUlRKS3_E_EE
	.quad	_ZNK8opendnp321TransformedCollectionINS_7IndexedINS_6BinaryEEES3_ZNS_18MeasurementHandler14ProcessWithCTOIS2_EENS_8IINFieldERKNS_12HeaderRecordERKNS_11ICollectionINS1_IT_EEEEEUlRKS3_E_E5CountEv
	.quad	_ZNK8opendnp321TransformedCollectionINS_7IndexedINS_6BinaryEEES3_ZNS_18MeasurementHandler14ProcessWithCTOIS2_EENS_8IINFieldERKNS_12HeaderRecordERKNS_11ICollectionINS1_IT_EEEEEUlRKS3_E_E7ForeachERNS_8IVisitorIS3_EE
	.weak	_ZTVN8opendnp321TransformedCollectionINS_7IndexedINS_15DoubleBitBinaryEEES3_ZNS_18MeasurementHandler14ProcessWithCTOIS2_EENS_8IINFieldERKNS_12HeaderRecordERKNS_11ICollectionINS1_IT_EEEEEUlRKS3_E_EE
	.section	.data.rel.ro._ZTVN8opendnp321TransformedCollectionINS_7IndexedINS_15DoubleBitBinaryEEES3_ZNS_18MeasurementHandler14ProcessWithCTOIS2_EENS_8IINFieldERKNS_12HeaderRecordERKNS_11ICollectionINS1_IT_EEEEEUlRKS3_E_EE,"awG",@progbits,_ZTVN8opendnp321TransformedCollectionINS_7IndexedINS_15DoubleBitBinaryEEES3_ZNS_18MeasurementHandler14ProcessWithCTOIS2_EENS_8IINFieldERKNS_12HeaderRecordERKNS_11ICollectionINS1_IT_EEEEEUlRKS3_E_EE,comdat
	.align 8
	.type	_ZTVN8opendnp321TransformedCollectionINS_7IndexedINS_15DoubleBitBinaryEEES3_ZNS_18MeasurementHandler14ProcessWithCTOIS2_EENS_8IINFieldERKNS_12HeaderRecordERKNS_11ICollectionINS1_IT_EEEEEUlRKS3_E_EE, @object
	.size	_ZTVN8opendnp321TransformedCollectionINS_7IndexedINS_15DoubleBitBinaryEEES3_ZNS_18MeasurementHandler14ProcessWithCTOIS2_EENS_8IINFieldERKNS_12HeaderRecordERKNS_11ICollectionINS1_IT_EEEEEUlRKS3_E_EE, 32
_ZTVN8opendnp321TransformedCollectionINS_7IndexedINS_15DoubleBitBinaryEEES3_ZNS_18MeasurementHandler14ProcessWithCTOIS2_EENS_8IINFieldERKNS_12HeaderRecordERKNS_11ICollectionINS1_IT_EEEEEUlRKS3_E_EE:
	.quad	0
	.quad	_ZTIN8opendnp321TransformedCollectionINS_7IndexedINS_15DoubleBitBinaryEEES3_ZNS_18MeasurementHandler14ProcessWithCTOIS2_EENS_8IINFieldERKNS_12HeaderRecordERKNS_11ICollectionINS1_IT_EEEEEUlRKS3_E_EE
	.quad	_ZNK8opendnp321TransformedCollectionINS_7IndexedINS_15DoubleBitBinaryEEES3_ZNS_18MeasurementHandler14ProcessWithCTOIS2_EENS_8IINFieldERKNS_12HeaderRecordERKNS_11ICollectionINS1_IT_EEEEEUlRKS3_E_E5CountEv
	.quad	_ZNK8opendnp321TransformedCollectionINS_7IndexedINS_15DoubleBitBinaryEEES3_ZNS_18MeasurementHandler14ProcessWithCTOIS2_EENS_8IINFieldERKNS_12HeaderRecordERKNS_11ICollectionINS1_IT_EEEEEUlRKS3_E_E7ForeachERNS_8IVisitorIS3_EE
	.weak	_ZTVN8opendnp321TransformedCollectionINS_7IndexedINS_12Group122Var1EEENS1_INS_12SecurityStatEEEZNS_18MeasurementHandler25LoadValuesWithTransformToIS4_S2_EENS_8IINFieldERKNS_12HeaderRecordERKNS_11ICollectionINS1_IT0_EEEEEUlRKS3_E_EE
	.section	.data.rel.ro._ZTVN8opendnp321TransformedCollectionINS_7IndexedINS_12Group122Var1EEENS1_INS_12SecurityStatEEEZNS_18MeasurementHandler25LoadValuesWithTransformToIS4_S2_EENS_8IINFieldERKNS_12HeaderRecordERKNS_11ICollectionINS1_IT0_EEEEEUlRKS3_E_EE,"awG",@progbits,_ZTVN8opendnp321TransformedCollectionINS_7IndexedINS_12Group122Var1EEENS1_INS_12SecurityStatEEEZNS_18MeasurementHandler25LoadValuesWithTransformToIS4_S2_EENS_8IINFieldERKNS_12HeaderRecordERKNS_11ICollectionINS1_IT0_EEEEEUlRKS3_E_EE,comdat
	.align 8
	.type	_ZTVN8opendnp321TransformedCollectionINS_7IndexedINS_12Group122Var1EEENS1_INS_12SecurityStatEEEZNS_18MeasurementHandler25LoadValuesWithTransformToIS4_S2_EENS_8IINFieldERKNS_12HeaderRecordERKNS_11ICollectionINS1_IT0_EEEEEUlRKS3_E_EE, @object
	.size	_ZTVN8opendnp321TransformedCollectionINS_7IndexedINS_12Group122Var1EEENS1_INS_12SecurityStatEEEZNS_18MeasurementHandler25LoadValuesWithTransformToIS4_S2_EENS_8IINFieldERKNS_12HeaderRecordERKNS_11ICollectionINS1_IT0_EEEEEUlRKS3_E_EE, 32
_ZTVN8opendnp321TransformedCollectionINS_7IndexedINS_12Group122Var1EEENS1_INS_12SecurityStatEEEZNS_18MeasurementHandler25LoadValuesWithTransformToIS4_S2_EENS_8IINFieldERKNS_12HeaderRecordERKNS_11ICollectionINS1_IT0_EEEEEUlRKS3_E_EE:
	.quad	0
	.quad	_ZTIN8opendnp321TransformedCollectionINS_7IndexedINS_12Group122Var1EEENS1_INS_12SecurityStatEEEZNS_18MeasurementHandler25LoadValuesWithTransformToIS4_S2_EENS_8IINFieldERKNS_12HeaderRecordERKNS_11ICollectionINS1_IT0_EEEEEUlRKS3_E_EE
	.quad	_ZNK8opendnp321TransformedCollectionINS_7IndexedINS_12Group122Var1EEENS1_INS_12SecurityStatEEEZNS_18MeasurementHandler25LoadValuesWithTransformToIS4_S2_EENS_8IINFieldERKNS_12HeaderRecordERKNS_11ICollectionINS1_IT0_EEEEEUlRKS3_E_E5CountEv
	.quad	_ZNK8opendnp321TransformedCollectionINS_7IndexedINS_12Group122Var1EEENS1_INS_12SecurityStatEEEZNS_18MeasurementHandler25LoadValuesWithTransformToIS4_S2_EENS_8IINFieldERKNS_12HeaderRecordERKNS_11ICollectionINS1_IT0_EEEEEUlRKS3_E_E7ForeachERNS_8IVisitorIS5_EE
	.weak	_ZTVN8opendnp321TransformedCollectionINS_7IndexedINS_12Group122Var2EEENS1_INS_12SecurityStatEEEZNS_18MeasurementHandler25LoadValuesWithTransformToIS4_S2_EENS_8IINFieldERKNS_12HeaderRecordERKNS_11ICollectionINS1_IT0_EEEEEUlRKS3_E_EE
	.section	.data.rel.ro._ZTVN8opendnp321TransformedCollectionINS_7IndexedINS_12Group122Var2EEENS1_INS_12SecurityStatEEEZNS_18MeasurementHandler25LoadValuesWithTransformToIS4_S2_EENS_8IINFieldERKNS_12HeaderRecordERKNS_11ICollectionINS1_IT0_EEEEEUlRKS3_E_EE,"awG",@progbits,_ZTVN8opendnp321TransformedCollectionINS_7IndexedINS_12Group122Var2EEENS1_INS_12SecurityStatEEEZNS_18MeasurementHandler25LoadValuesWithTransformToIS4_S2_EENS_8IINFieldERKNS_12HeaderRecordERKNS_11ICollectionINS1_IT0_EEEEEUlRKS3_E_EE,comdat
	.align 8
	.type	_ZTVN8opendnp321TransformedCollectionINS_7IndexedINS_12Group122Var2EEENS1_INS_12SecurityStatEEEZNS_18MeasurementHandler25LoadValuesWithTransformToIS4_S2_EENS_8IINFieldERKNS_12HeaderRecordERKNS_11ICollectionINS1_IT0_EEEEEUlRKS3_E_EE, @object
	.size	_ZTVN8opendnp321TransformedCollectionINS_7IndexedINS_12Group122Var2EEENS1_INS_12SecurityStatEEEZNS_18MeasurementHandler25LoadValuesWithTransformToIS4_S2_EENS_8IINFieldERKNS_12HeaderRecordERKNS_11ICollectionINS1_IT0_EEEEEUlRKS3_E_EE, 32
_ZTVN8opendnp321TransformedCollectionINS_7IndexedINS_12Group122Var2EEENS1_INS_12SecurityStatEEEZNS_18MeasurementHandler25LoadValuesWithTransformToIS4_S2_EENS_8IINFieldERKNS_12HeaderRecordERKNS_11ICollectionINS1_IT0_EEEEEUlRKS3_E_EE:
	.quad	0
	.quad	_ZTIN8opendnp321TransformedCollectionINS_7IndexedINS_12Group122Var2EEENS1_INS_12SecurityStatEEEZNS_18MeasurementHandler25LoadValuesWithTransformToIS4_S2_EENS_8IINFieldERKNS_12HeaderRecordERKNS_11ICollectionINS1_IT0_EEEEEUlRKS3_E_EE
	.quad	_ZNK8opendnp321TransformedCollectionINS_7IndexedINS_12Group122Var2EEENS1_INS_12SecurityStatEEEZNS_18MeasurementHandler25LoadValuesWithTransformToIS4_S2_EENS_8IINFieldERKNS_12HeaderRecordERKNS_11ICollectionINS1_IT0_EEEEEUlRKS3_E_E5CountEv
	.quad	_ZNK8opendnp321TransformedCollectionINS_7IndexedINS_12Group122Var2EEENS1_INS_12SecurityStatEEEZNS_18MeasurementHandler25LoadValuesWithTransformToIS4_S2_EENS_8IINFieldERKNS_12HeaderRecordERKNS_11ICollectionINS1_IT0_EEEEEUlRKS3_E_E7ForeachERNS_8IVisitorIS5_EE
	.weak	_ZTVN8opendnp314FunctorVisitorINS_11Group51Var1EZNKS_11ICollectionIS1_E13ReadOnlyValueERS1_EUlRKS1_E_EE
	.section	.data.rel.ro._ZTVN8opendnp314FunctorVisitorINS_11Group51Var1EZNKS_11ICollectionIS1_E13ReadOnlyValueERS1_EUlRKS1_E_EE,"awG",@progbits,_ZTVN8opendnp314FunctorVisitorINS_11Group51Var1EZNKS_11ICollectionIS1_E13ReadOnlyValueERS1_EUlRKS1_E_EE,comdat
	.align 8
	.type	_ZTVN8opendnp314FunctorVisitorINS_11Group51Var1EZNKS_11ICollectionIS1_E13ReadOnlyValueERS1_EUlRKS1_E_EE, @object
	.size	_ZTVN8opendnp314FunctorVisitorINS_11Group51Var1EZNKS_11ICollectionIS1_E13ReadOnlyValueERS1_EUlRKS1_E_EE, 24
_ZTVN8opendnp314FunctorVisitorINS_11Group51Var1EZNKS_11ICollectionIS1_E13ReadOnlyValueERS1_EUlRKS1_E_EE:
	.quad	0
	.quad	_ZTIN8opendnp314FunctorVisitorINS_11Group51Var1EZNKS_11ICollectionIS1_E13ReadOnlyValueERS1_EUlRKS1_E_EE
	.quad	_ZN8opendnp314FunctorVisitorINS_11Group51Var1EZNKS_11ICollectionIS1_E13ReadOnlyValueERS1_EUlRKS1_E_E7OnValueES6_
	.weak	_ZTVN8opendnp314FunctorVisitorINS_11Group51Var2EZNKS_11ICollectionIS1_E13ReadOnlyValueERS1_EUlRKS1_E_EE
	.section	.data.rel.ro._ZTVN8opendnp314FunctorVisitorINS_11Group51Var2EZNKS_11ICollectionIS1_E13ReadOnlyValueERS1_EUlRKS1_E_EE,"awG",@progbits,_ZTVN8opendnp314FunctorVisitorINS_11Group51Var2EZNKS_11ICollectionIS1_E13ReadOnlyValueERS1_EUlRKS1_E_EE,comdat
	.align 8
	.type	_ZTVN8opendnp314FunctorVisitorINS_11Group51Var2EZNKS_11ICollectionIS1_E13ReadOnlyValueERS1_EUlRKS1_E_EE, @object
	.size	_ZTVN8opendnp314FunctorVisitorINS_11Group51Var2EZNKS_11ICollectionIS1_E13ReadOnlyValueERS1_EUlRKS1_E_EE, 24
_ZTVN8opendnp314FunctorVisitorINS_11Group51Var2EZNKS_11ICollectionIS1_E13ReadOnlyValueERS1_EUlRKS1_E_EE:
	.quad	0
	.quad	_ZTIN8opendnp314FunctorVisitorINS_11Group51Var2EZNKS_11ICollectionIS1_E13ReadOnlyValueERS1_EUlRKS1_E_EE
	.quad	_ZN8opendnp314FunctorVisitorINS_11Group51Var2EZNKS_11ICollectionIS1_E13ReadOnlyValueERS1_EUlRKS1_E_E7OnValueES6_
	.hidden	DW.ref.__gxx_personality_v0
	.weak	DW.ref.__gxx_personality_v0
	.section	.data.rel.local.DW.ref.__gxx_personality_v0,"awG",@progbits,DW.ref.__gxx_personality_v0,comdat
	.align 8
	.type	DW.ref.__gxx_personality_v0, @object
	.size	DW.ref.__gxx_personality_v0, 8
DW.ref.__gxx_personality_v0:
	.quad	__gxx_personality_v0
	.globl	__gxx_personality_v0
	.ident	"GCC: (Debian 15.2.0-4) 15.2.0"
	.section	.note.GNU-stack,"",@progbits
