	.file	"RestartOperationTask.cpp"
	.text
	.section	.text._ZNK8opendnp311IMasterTask10IsAuthTaskEv,"axG",@progbits,_ZNK8opendnp311IMasterTask10IsAuthTaskEv,comdat
	.align 2
	.p2align 4
	.weak	_ZNK8opendnp311IMasterTask10IsAuthTaskEv
	.type	_ZNK8opendnp311IMasterTask10IsAuthTaskEv, @function
_ZNK8opendnp311IMasterTask10IsAuthTaskEv:
.LFB2381:
	.cfi_startproc
	xorl	%eax, %eax
	ret
	.cfi_endproc
.LFE2381:
	.size	_ZNK8opendnp311IMasterTask10IsAuthTaskEv, .-_ZNK8opendnp311IMasterTask10IsAuthTaskEv
	.section	.text._ZN8opendnp311IMasterTask10InitializeEv,"axG",@progbits,_ZN8opendnp311IMasterTask10InitializeEv,comdat
	.align 2
	.p2align 4
	.weak	_ZN8opendnp311IMasterTask10InitializeEv
	.type	_ZN8opendnp311IMasterTask10InitializeEv, @function
_ZN8opendnp311IMasterTask10InitializeEv:
.LFB2382:
	.cfi_startproc
	ret
	.cfi_endproc
.LFE2382:
	.size	_ZN8opendnp311IMasterTask10InitializeEv, .-_ZN8opendnp311IMasterTask10InitializeEv
	.section	.text._ZNK8opendnp321SimpleRequestTaskBase11IsRecurringEv,"axG",@progbits,_ZNK8opendnp321SimpleRequestTaskBase11IsRecurringEv,comdat
	.align 2
	.p2align 4
	.weak	_ZNK8opendnp321SimpleRequestTaskBase11IsRecurringEv
	.type	_ZNK8opendnp321SimpleRequestTaskBase11IsRecurringEv, @function
_ZNK8opendnp321SimpleRequestTaskBase11IsRecurringEv:
.LFB2383:
	.cfi_startproc
	xorl	%eax, %eax
	ret
	.cfi_endproc
.LFE2383:
	.size	_ZNK8opendnp321SimpleRequestTaskBase11IsRecurringEv, .-_ZNK8opendnp321SimpleRequestTaskBase11IsRecurringEv
	.section	.text._ZNK8opendnp321SimpleRequestTaskBase8PriorityEv,"axG",@progbits,_ZNK8opendnp321SimpleRequestTaskBase8PriorityEv,comdat
	.align 2
	.p2align 4
	.weak	_ZNK8opendnp321SimpleRequestTaskBase8PriorityEv
	.type	_ZNK8opendnp321SimpleRequestTaskBase8PriorityEv, @function
_ZNK8opendnp321SimpleRequestTaskBase8PriorityEv:
.LFB2384:
	.cfi_startproc
	movl	92(%rdi), %eax
	ret
	.cfi_endproc
.LFE2384:
	.size	_ZNK8opendnp321SimpleRequestTaskBase8PriorityEv, .-_ZNK8opendnp321SimpleRequestTaskBase8PriorityEv
	.section	.text._ZNK8opendnp321SimpleRequestTaskBase19BlocksLowerPriorityEv,"axG",@progbits,_ZNK8opendnp321SimpleRequestTaskBase19BlocksLowerPriorityEv,comdat
	.align 2
	.p2align 4
	.weak	_ZNK8opendnp321SimpleRequestTaskBase19BlocksLowerPriorityEv
	.type	_ZNK8opendnp321SimpleRequestTaskBase19BlocksLowerPriorityEv, @function
_ZNK8opendnp321SimpleRequestTaskBase19BlocksLowerPriorityEv:
.LFB2385:
	.cfi_startproc
	xorl	%eax, %eax
	ret
	.cfi_endproc
.LFE2385:
	.size	_ZNK8opendnp321SimpleRequestTaskBase19BlocksLowerPriorityEv, .-_ZNK8opendnp321SimpleRequestTaskBase19BlocksLowerPriorityEv
	.section	.text._ZNK8opendnp321SimpleRequestTaskBase9IsEnabledEv,"axG",@progbits,_ZNK8opendnp321SimpleRequestTaskBase9IsEnabledEv,comdat
	.align 2
	.p2align 4
	.weak	_ZNK8opendnp321SimpleRequestTaskBase9IsEnabledEv
	.type	_ZNK8opendnp321SimpleRequestTaskBase9IsEnabledEv, @function
_ZNK8opendnp321SimpleRequestTaskBase9IsEnabledEv:
.LFB2386:
	.cfi_startproc
	movl	$1, %eax
	ret
	.cfi_endproc
.LFE2386:
	.size	_ZNK8opendnp321SimpleRequestTaskBase9IsEnabledEv, .-_ZNK8opendnp321SimpleRequestTaskBase9IsEnabledEv
	.section	.text._ZNK8opendnp321SimpleRequestTaskBase11GetTaskTypeEv,"axG",@progbits,_ZNK8opendnp321SimpleRequestTaskBase11GetTaskTypeEv,comdat
	.align 2
	.p2align 4
	.weak	_ZNK8opendnp321SimpleRequestTaskBase11GetTaskTypeEv
	.type	_ZNK8opendnp321SimpleRequestTaskBase11GetTaskTypeEv, @function
_ZNK8opendnp321SimpleRequestTaskBase11GetTaskTypeEv:
.LFB2387:
	.cfi_startproc
	movl	$7, %eax
	ret
	.cfi_endproc
.LFE2387:
	.size	_ZNK8opendnp321SimpleRequestTaskBase11GetTaskTypeEv, .-_ZNK8opendnp321SimpleRequestTaskBase11GetTaskTypeEv
	.section	.text._ZN8opendnp312IAPDUHandler14OnHeaderResultERKNS_12HeaderRecordERKNS_8IINFieldE,"axG",@progbits,_ZN8opendnp312IAPDUHandler14OnHeaderResultERKNS_12HeaderRecordERKNS_8IINFieldE,comdat
	.align 2
	.p2align 4
	.weak	_ZN8opendnp312IAPDUHandler14OnHeaderResultERKNS_12HeaderRecordERKNS_8IINFieldE
	.type	_ZN8opendnp312IAPDUHandler14OnHeaderResultERKNS_12HeaderRecordERKNS_8IINFieldE, @function
_ZN8opendnp312IAPDUHandler14OnHeaderResultERKNS_12HeaderRecordERKNS_8IINFieldE:
.LFB2546:
	.cfi_startproc
	ret
	.cfi_endproc
.LFE2546:
	.size	_ZN8opendnp312IAPDUHandler14OnHeaderResultERKNS_12HeaderRecordERKNS_8IINFieldE, .-_ZN8opendnp312IAPDUHandler14OnHeaderResultERKNS_12HeaderRecordERKNS_8IINFieldE
	.text
	.align 2
	.p2align 4
	.globl	_ZN8opendnp320RestartOperationTask9IsAllowedEjNS_14GroupVariationENS_13QualifierCodeE
	.type	_ZN8opendnp320RestartOperationTask9IsAllowedEjNS_14GroupVariationENS_13QualifierCodeE, @function
_ZN8opendnp320RestartOperationTask9IsAllowedEjNS_14GroupVariationENS_13QualifierCodeE:
.LFB2578:
	.cfi_startproc
	xorl	%eax, %eax
	testl	%esi, %esi
	jne	.L10
	subw	$13313, %dx
	cmpw	$1, %dx
	setbe	%al
.L10:
	ret
	.cfi_endproc
.LFE2578:
	.size	_ZN8opendnp320RestartOperationTask9IsAllowedEjNS_14GroupVariationENS_13QualifierCodeE, .-_ZN8opendnp320RestartOperationTask9IsAllowedEjNS_14GroupVariationENS_13QualifierCodeE
	.p2align 4
	.type	_ZNSt17_Function_handlerIFbRN8opendnp312HeaderWriterEEZNS0_20RestartOperationTaskC4ERNS0_18IMasterApplicationENS0_11RestartTypeERKSt8functionIFvRKNS0_22RestartOperationResultEEEN7openpal6LoggerERKNS0_10TaskConfigEEUlS2_E_E9_M_invokeERKSt9_Any_dataS2_, @function
_ZNSt17_Function_handlerIFbRN8opendnp312HeaderWriterEEZNS0_20RestartOperationTaskC4ERNS0_18IMasterApplicationENS0_11RestartTypeERKSt8functionIFvRKNS0_22RestartOperationResultEEEN7openpal6LoggerERKNS0_10TaskConfigEEUlS2_E_E9_M_invokeERKSt9_Any_dataS2_:
.LFB3089:
	.cfi_startproc
	movl	$1, %eax
	ret
	.cfi_endproc
.LFE3089:
	.size	_ZNSt17_Function_handlerIFbRN8opendnp312HeaderWriterEEZNS0_20RestartOperationTaskC4ERNS0_18IMasterApplicationENS0_11RestartTypeERKSt8functionIFvRKNS0_22RestartOperationResultEEEN7openpal6LoggerERKNS0_10TaskConfigEEUlS2_E_E9_M_invokeERKSt9_Any_dataS2_, .-_ZNSt17_Function_handlerIFbRN8opendnp312HeaderWriterEEZNS0_20RestartOperationTaskC4ERNS0_18IMasterApplicationENS0_11RestartTypeERKSt8functionIFvRKNS0_22RestartOperationResultEEEN7openpal6LoggerERKNS0_10TaskConfigEEUlS2_E_E9_M_invokeERKSt9_Any_dataS2_
	.p2align 4
	.type	_ZNSt17_Function_handlerIFbRN8opendnp312HeaderWriterEEZNS0_20RestartOperationTaskC4ERNS0_18IMasterApplicationENS0_11RestartTypeERKSt8functionIFvRKNS0_22RestartOperationResultEEEN7openpal6LoggerERKNS0_10TaskConfigEEUlS2_E_E10_M_managerERSt9_Any_dataRKSN_St18_Manager_operation, @function
_ZNSt17_Function_handlerIFbRN8opendnp312HeaderWriterEEZNS0_20RestartOperationTaskC4ERNS0_18IMasterApplicationENS0_11RestartTypeERKSt8functionIFvRKNS0_22RestartOperationResultEEEN7openpal6LoggerERKNS0_10TaskConfigEEUlS2_E_E10_M_managerERSt9_Any_dataRKSN_St18_Manager_operation:
.LFB3090:
	.cfi_startproc
	testl	%edx, %edx
	je	.L15
	cmpl	$1, %edx
	je	.L16
	xorl	%eax, %eax
	ret
	.p2align 4,,10
	.p2align 3
.L16:
	movq	%rsi, (%rdi)
	xorl	%eax, %eax
	ret
	.p2align 4,,10
	.p2align 3
.L15:
	leaq	_ZTIZN8opendnp320RestartOperationTaskC4ERNS_18IMasterApplicationENS_11RestartTypeERKSt8functionIFvRKNS_22RestartOperationResultEEEN7openpal6LoggerERKNS_10TaskConfigEEUlRNS_12HeaderWriterEE_(%rip), %rax
	movq	%rax, (%rdi)
	xorl	%eax, %eax
	ret
	.cfi_endproc
.LFE3090:
	.size	_ZNSt17_Function_handlerIFbRN8opendnp312HeaderWriterEEZNS0_20RestartOperationTaskC4ERNS0_18IMasterApplicationENS0_11RestartTypeERKSt8functionIFvRKNS0_22RestartOperationResultEEEN7openpal6LoggerERKNS0_10TaskConfigEEUlS2_E_E10_M_managerERSt9_Any_dataRKSN_St18_Manager_operation, .-_ZNSt17_Function_handlerIFbRN8opendnp312HeaderWriterEEZNS0_20RestartOperationTaskC4ERNS0_18IMasterApplicationENS0_11RestartTypeERKSt8functionIFvRKNS0_22RestartOperationResultEEEN7openpal6LoggerERKNS0_10TaskConfigEEUlS2_E_E10_M_managerERSt9_Any_dataRKSN_St18_Manager_operation
	.section	.text._ZN8opendnp314FunctorVisitorINS_11Group52Var2EZNKS_11ICollectionIS1_E13ReadOnlyValueERS1_EUlRKS1_E_E7OnValueES6_,"axG",@progbits,_ZN8opendnp314FunctorVisitorINS_11Group52Var2EZNKS_11ICollectionIS1_E13ReadOnlyValueERS1_EUlRKS1_E_E7OnValueES6_,comdat
	.align 2
	.p2align 4
	.weak	_ZN8opendnp314FunctorVisitorINS_11Group52Var2EZNKS_11ICollectionIS1_E13ReadOnlyValueERS1_EUlRKS1_E_E7OnValueES6_
	.type	_ZN8opendnp314FunctorVisitorINS_11Group52Var2EZNKS_11ICollectionIS1_E13ReadOnlyValueERS1_EUlRKS1_E_E7OnValueES6_, @function
_ZN8opendnp314FunctorVisitorINS_11Group52Var2EZNKS_11ICollectionIS1_E13ReadOnlyValueERS1_EUlRKS1_E_E7OnValueES6_:
.LFB3351:
	.cfi_startproc
	movq	8(%rdi), %rax
	movzwl	(%rsi), %edx
	movw	%dx, (%rax)
	ret
	.cfi_endproc
.LFE3351:
	.size	_ZN8opendnp314FunctorVisitorINS_11Group52Var2EZNKS_11ICollectionIS1_E13ReadOnlyValueERS1_EUlRKS1_E_E7OnValueES6_, .-_ZN8opendnp314FunctorVisitorINS_11Group52Var2EZNKS_11ICollectionIS1_E13ReadOnlyValueERS1_EUlRKS1_E_E7OnValueES6_
	.section	.text._ZN8opendnp314FunctorVisitorINS_11Group52Var1EZNKS_11ICollectionIS1_E13ReadOnlyValueERS1_EUlRKS1_E_E7OnValueES6_,"axG",@progbits,_ZN8opendnp314FunctorVisitorINS_11Group52Var1EZNKS_11ICollectionIS1_E13ReadOnlyValueERS1_EUlRKS1_E_E7OnValueES6_,comdat
	.align 2
	.p2align 4
	.weak	_ZN8opendnp314FunctorVisitorINS_11Group52Var1EZNKS_11ICollectionIS1_E13ReadOnlyValueERS1_EUlRKS1_E_E7OnValueES6_
	.type	_ZN8opendnp314FunctorVisitorINS_11Group52Var1EZNKS_11ICollectionIS1_E13ReadOnlyValueERS1_EUlRKS1_E_E7OnValueES6_, @function
_ZN8opendnp314FunctorVisitorINS_11Group52Var1EZNKS_11ICollectionIS1_E13ReadOnlyValueERS1_EUlRKS1_E_E7OnValueES6_:
.LFB3352:
	.cfi_startproc
	movq	8(%rdi), %rax
	movzwl	(%rsi), %edx
	movw	%dx, (%rax)
	ret
	.cfi_endproc
.LFE3352:
	.size	_ZN8opendnp314FunctorVisitorINS_11Group52Var1EZNKS_11ICollectionIS1_E13ReadOnlyValueERS1_EUlRKS1_E_E7OnValueES6_, .-_ZN8opendnp314FunctorVisitorINS_11Group52Var1EZNKS_11ICollectionIS1_E13ReadOnlyValueERS1_EUlRKS1_E_E7OnValueES6_
	.text
	.align 2
	.p2align 4
	.globl	_ZNK8opendnp320RestartOperationTask4NameEv
	.type	_ZNK8opendnp320RestartOperationTask4NameEv, @function
_ZNK8opendnp320RestartOperationTask4NameEv:
.LFB2579:
	.cfi_startproc
	movzbl	88(%rdi), %edi
	jmp	_ZN8opendnp320FunctionCodeToStringENS_12FunctionCodeE@PLT
	.cfi_endproc
.LFE2579:
	.size	_ZNK8opendnp320RestartOperationTask4NameEv, .-_ZNK8opendnp320RestartOperationTask4NameEv
	.align 2
	.p2align 4
	.globl	_ZN8opendnp320RestartOperationTask15ProcessResponseERKNS_18APDUResponseHeaderERKN7openpal6RSliceE
	.type	_ZN8opendnp320RestartOperationTask15ProcessResponseERKNS_18APDUResponseHeaderERKN7openpal6RSliceE, @function
_ZN8opendnp320RestartOperationTask15ProcessResponseERKNS_18APDUResponseHeaderERKN7openpal6RSliceE:
.LFB2580:
	.cfi_startproc
	pushq	%r14
	.cfi_def_cfa_offset 16
	.cfi_offset 14, -16
	movq	%rdx, %r14
	pushq	%rbp
	.cfi_def_cfa_offset 24
	.cfi_offset 6, -24
	movq	%rsi, %rbp
	pushq	%rbx
	.cfi_def_cfa_offset 32
	.cfi_offset 3, -32
	movq	%rdi, %rbx
	call	_ZN8opendnp311IMasterTask22ValidateSingleResponseERKNS_18APDUResponseHeaderE@PLT
	testb	%al, %al
	jne	.L22
.L24:
	popq	%rbx
	.cfi_remember_state
	.cfi_def_cfa_offset 24
	xorl	%eax, %eax
	popq	%rbp
	.cfi_def_cfa_offset 16
	popq	%r14
	.cfi_def_cfa_offset 8
	ret
	.p2align 4,,10
	.p2align 3
.L22:
	.cfi_restore_state
	movq	%rbp, %rsi
	movq	%rbx, %rdi
	call	_ZN8opendnp311IMasterTask27ValidateInternalIndicationsERKNS_18APDUResponseHeaderE@PLT
	testb	%al, %al
	je	.L24
	movl	(%r14), %eax
	movq	%r14, %rdi
	testl	%eax, %eax
	je	.L24
	leaq	16(%rbx), %rdx
	leaq	128(%rbx), %rsi
	movabsq	$35184372088833, %rcx
	call	_ZN8opendnp310APDUParser5ParseERKN7openpal6RSliceERNS_12IAPDUHandlerEPNS1_6LoggerENS_14ParserSettingsE@PLT
	popq	%rbx
	.cfi_def_cfa_offset 24
	popq	%rbp
	.cfi_def_cfa_offset 16
	testb	%al, %al
	popq	%r14
	.cfi_def_cfa_offset 8
	sete	%al
	addl	%eax, %eax
	ret
	.cfi_endproc
.LFE2580:
	.size	_ZN8opendnp320RestartOperationTask15ProcessResponseERKNS_18APDUResponseHeaderERKN7openpal6RSliceE, .-_ZN8opendnp320RestartOperationTask15ProcessResponseERKNS_18APDUResponseHeaderERKN7openpal6RSliceE
	.section	.text.unlikely,"ax",@progbits
	.align 2
.LCOLDB0:
	.text
.LHOTB0:
	.align 2
	.p2align 4
	.globl	_ZN8opendnp320RestartOperationTask14OnTaskCompleteENS_14TaskCompletionEN7openpal18MonotonicTimestampE
	.type	_ZN8opendnp320RestartOperationTask14OnTaskCompleteENS_14TaskCompletionEN7openpal18MonotonicTimestampE, @function
_ZN8opendnp320RestartOperationTask14OnTaskCompleteENS_14TaskCompletionEN7openpal18MonotonicTimestampE:
.LFB2584:
	.cfi_startproc
	pushq	%rbp
	.cfi_def_cfa_offset 16
	.cfi_offset 6, -16
	movl	%esi, %ebp
	pushq	%rbx
	.cfi_def_cfa_offset 24
	.cfi_offset 3, -24
	movq	%rdi, %rbx
	subq	$-128, %rdi
	subq	$40, %rsp
	.cfi_def_cfa_offset 64
	call	_ZNK8opendnp312IAPDUHandler6ErrorsEv@PLT
	movq	184(%rbx), %rdx
	movl	%eax, %ecx
	orb	%ah, %cl
	movq	168(%rbx), %rax
	testb	%cl, %cl
	je	.L30
	movb	$1, (%rsp)
	movq	%rdx, 8(%rsp)
	testq	%rax, %rax
	je	.L33
	movq	%rsp, %rsi
	leaq	152(%rbx), %rdi
	call	*176(%rbx)
.L32:
	call	_ZN7openpal18MonotonicTimestamp3MaxEv@PLT
	addq	$40, %rsp
	.cfi_remember_state
	.cfi_def_cfa_offset 24
	movq	%rax, %rdx
	popq	%rbx
	.cfi_def_cfa_offset 16
	xorl	%eax, %eax
	popq	%rbp
	.cfi_def_cfa_offset 8
	ret
	.p2align 4,,10
	.p2align 3
.L30:
	.cfi_restore_state
	movb	%bpl, 16(%rsp)
	movq	%rdx, 24(%rsp)
	testq	%rax, %rax
	je	.L33
	leaq	16(%rsp), %rsi
	leaq	152(%rbx), %rdi
	call	*176(%rbx)
	jmp	.L32
	.cfi_endproc
	.section	.text.unlikely
	.cfi_startproc
	.type	_ZN8opendnp320RestartOperationTask14OnTaskCompleteENS_14TaskCompletionEN7openpal18MonotonicTimestampE.cold, @function
_ZN8opendnp320RestartOperationTask14OnTaskCompleteENS_14TaskCompletionEN7openpal18MonotonicTimestampE.cold:
.LFSB2584:
.L33:
	.cfi_def_cfa_offset 64
	.cfi_offset 3, -24
	.cfi_offset 6, -16
	call	_ZSt25__throw_bad_function_callv@PLT
	.cfi_endproc
.LFE2584:
	.text
	.size	_ZN8opendnp320RestartOperationTask14OnTaskCompleteENS_14TaskCompletionEN7openpal18MonotonicTimestampE, .-_ZN8opendnp320RestartOperationTask14OnTaskCompleteENS_14TaskCompletionEN7openpal18MonotonicTimestampE
	.section	.text.unlikely
	.size	_ZN8opendnp320RestartOperationTask14OnTaskCompleteENS_14TaskCompletionEN7openpal18MonotonicTimestampE.cold, .-_ZN8opendnp320RestartOperationTask14OnTaskCompleteENS_14TaskCompletionEN7openpal18MonotonicTimestampE.cold
.LCOLDE0:
	.text
.LHOTE0:
	.align 2
	.p2align 4
	.globl	_ZN8opendnp320RestartOperationTask13ProcessHeaderERKNS_11CountHeaderERKNS_11ICollectionINS_11Group52Var1EEE
	.type	_ZN8opendnp320RestartOperationTask13ProcessHeaderERKNS_11CountHeaderERKNS_11ICollectionINS_11Group52Var1EEE, @function
_ZN8opendnp320RestartOperationTask13ProcessHeaderERKNS_11CountHeaderERKNS_11ICollectionINS_11Group52Var1EEE:
.LFB2581:
	.cfi_startproc
	pushq	%r12
	.cfi_def_cfa_offset 16
	.cfi_offset 12, -16
	movq	%rdi, %r12
	pushq	%rbp
	.cfi_def_cfa_offset 24
	.cfi_offset 6, -24
	pushq	%rbx
	.cfi_def_cfa_offset 32
	.cfi_offset 3, -32
	movq	%rdx, %rbx
	subq	$32, %rsp
	.cfi_def_cfa_offset 64
	leaq	14(%rsp), %rbp
	movq	%rbp, %rdi
	call	_ZN8opendnp311Group52Var1C1Ev@PLT
	movq	(%rbx), %rax
	movq	%rbx, %rdi
	call	*(%rax)
	cmpq	$1, %rax
	je	.L39
	xorl	%eax, %eax
	leaq	16(%rsp), %rdi
	movl	$10, %esi
	movw	%ax, 16(%rsp)
	call	_ZN8opendnp38IINField6SetBitENS_6IINBitE@PLT
	movzwl	16(%rsp), %eax
	addq	$32, %rsp
	.cfi_remember_state
	.cfi_def_cfa_offset 32
	popq	%rbx
	.cfi_def_cfa_offset 24
	popq	%rbp
	.cfi_def_cfa_offset 16
	popq	%r12
	.cfi_def_cfa_offset 8
	ret
	.p2align 4,,10
	.p2align 3
.L39:
	.cfi_restore_state
	movq	_ZTVN8opendnp314FunctorVisitorINS_11Group52Var1EZNKS_11ICollectionIS1_E13ReadOnlyValueERS1_EUlRKS1_E_EE@GOTPCREL(%rip), %rax
	movq	%rbp, %xmm1
	leaq	16(%rsp), %rsi
	movq	%rbx, %rdi
	addq	$16, %rax
	movq	%rax, %xmm0
	movq	(%rbx), %rax
	punpcklqdq	%xmm1, %xmm0
	movaps	%xmm0, 16(%rsp)
	call	*8(%rax)
	movzwl	14(%rsp), %edi
	call	_ZN7openpal12TimeDuration7SecondsEl@PLT
	movq	%rax, 184(%r12)
	addq	$32, %rsp
	.cfi_def_cfa_offset 32
	xorl	%eax, %eax
	popq	%rbx
	.cfi_def_cfa_offset 24
	popq	%rbp
	.cfi_def_cfa_offset 16
	popq	%r12
	.cfi_def_cfa_offset 8
	ret
	.cfi_endproc
.LFE2581:
	.size	_ZN8opendnp320RestartOperationTask13ProcessHeaderERKNS_11CountHeaderERKNS_11ICollectionINS_11Group52Var1EEE, .-_ZN8opendnp320RestartOperationTask13ProcessHeaderERKNS_11CountHeaderERKNS_11ICollectionINS_11Group52Var1EEE
	.align 2
	.p2align 4
	.globl	_ZN8opendnp320RestartOperationTask13ProcessHeaderERKNS_11CountHeaderERKNS_11ICollectionINS_11Group52Var2EEE
	.type	_ZN8opendnp320RestartOperationTask13ProcessHeaderERKNS_11CountHeaderERKNS_11ICollectionINS_11Group52Var2EEE, @function
_ZN8opendnp320RestartOperationTask13ProcessHeaderERKNS_11CountHeaderERKNS_11ICollectionINS_11Group52Var2EEE:
.LFB2582:
	.cfi_startproc
	pushq	%r12
	.cfi_def_cfa_offset 16
	.cfi_offset 12, -16
	movq	%rdi, %r12
	pushq	%rbp
	.cfi_def_cfa_offset 24
	.cfi_offset 6, -24
	pushq	%rbx
	.cfi_def_cfa_offset 32
	.cfi_offset 3, -32
	movq	%rdx, %rbx
	subq	$32, %rsp
	.cfi_def_cfa_offset 64
	leaq	14(%rsp), %rbp
	movq	%rbp, %rdi
	call	_ZN8opendnp311Group52Var2C1Ev@PLT
	movq	(%rbx), %rax
	movq	%rbx, %rdi
	call	*(%rax)
	cmpq	$1, %rax
	je	.L43
	xorl	%eax, %eax
	leaq	16(%rsp), %rdi
	movl	$10, %esi
	movw	%ax, 16(%rsp)
	call	_ZN8opendnp38IINField6SetBitENS_6IINBitE@PLT
	movzwl	16(%rsp), %eax
	addq	$32, %rsp
	.cfi_remember_state
	.cfi_def_cfa_offset 32
	popq	%rbx
	.cfi_def_cfa_offset 24
	popq	%rbp
	.cfi_def_cfa_offset 16
	popq	%r12
	.cfi_def_cfa_offset 8
	ret
	.p2align 4,,10
	.p2align 3
.L43:
	.cfi_restore_state
	movq	_ZTVN8opendnp314FunctorVisitorINS_11Group52Var2EZNKS_11ICollectionIS1_E13ReadOnlyValueERS1_EUlRKS1_E_EE@GOTPCREL(%rip), %rax
	movq	%rbp, %xmm1
	leaq	16(%rsp), %rsi
	movq	%rbx, %rdi
	addq	$16, %rax
	movq	%rax, %xmm0
	movq	(%rbx), %rax
	punpcklqdq	%xmm1, %xmm0
	movaps	%xmm0, 16(%rsp)
	call	*8(%rax)
	movzwl	14(%rsp), %edi
	call	_ZN7openpal12TimeDuration12MillisecondsEl@PLT
	movq	%rax, 184(%r12)
	addq	$32, %rsp
	.cfi_def_cfa_offset 32
	xorl	%eax, %eax
	popq	%rbx
	.cfi_def_cfa_offset 24
	popq	%rbp
	.cfi_def_cfa_offset 16
	popq	%r12
	.cfi_def_cfa_offset 8
	ret
	.cfi_endproc
.LFE2582:
	.size	_ZN8opendnp320RestartOperationTask13ProcessHeaderERKNS_11CountHeaderERKNS_11ICollectionINS_11Group52Var2EEE, .-_ZN8opendnp320RestartOperationTask13ProcessHeaderERKNS_11CountHeaderERKNS_11ICollectionINS_11Group52Var2EEE
	.p2align 4
	.globl	_ZThn128_N8opendnp320RestartOperationTask9IsAllowedEjNS_14GroupVariationENS_13QualifierCodeE
	.type	_ZThn128_N8opendnp320RestartOperationTask9IsAllowedEjNS_14GroupVariationENS_13QualifierCodeE, @function
_ZThn128_N8opendnp320RestartOperationTask9IsAllowedEjNS_14GroupVariationENS_13QualifierCodeE:
.LFB3366:
	.cfi_startproc
	xorl	%eax, %eax
	testl	%esi, %esi
	jne	.L46
	subw	$13313, %dx
	cmpw	$1, %dx
	setbe	%al
.L46:
	ret
	.cfi_endproc
.LFE3366:
	.size	_ZThn128_N8opendnp320RestartOperationTask9IsAllowedEjNS_14GroupVariationENS_13QualifierCodeE, .-_ZThn128_N8opendnp320RestartOperationTask9IsAllowedEjNS_14GroupVariationENS_13QualifierCodeE
	.section	.text._ZN8opendnp320RestartOperationTaskD2Ev,"axG",@progbits,_ZN8opendnp320RestartOperationTaskD5Ev,comdat
	.align 2
	.p2align 4
	.weak	_ZN8opendnp320RestartOperationTaskD2Ev
	.type	_ZN8opendnp320RestartOperationTaskD2Ev, @function
_ZN8opendnp320RestartOperationTaskD2Ev:
.LFB3341:
	.cfi_startproc
	.cfi_personality 0x9b,DW.ref.__gxx_personality_v0
	.cfi_lsda 0x1b,.LLSDA3341
	movq	_ZTVN8opendnp320RestartOperationTaskE@GOTPCREL(%rip), %rax
	pushq	%rbx
	.cfi_def_cfa_offset 16
	.cfi_offset 3, -16
	movq	%rdi, %rbx
	leaq	16(%rax), %rdx
	addq	$160, %rax
	movq	%rax, 128(%rdi)
	movq	168(%rdi), %rax
	movq	%rdx, (%rdi)
	testq	%rax, %rax
	je	.L50
	leaq	152(%rdi), %rdi
	movl	$3, %edx
	movq	%rdi, %rsi
	call	*%rax
.L50:
	movq	_ZTVN8opendnp321SimpleRequestTaskBaseE@GOTPCREL(%rip), %rax
	addq	$16, %rax
	movq	%rax, (%rbx)
	movq	112(%rbx), %rax
	testq	%rax, %rax
	je	.L51
	leaq	96(%rbx), %rdi
	movl	$3, %edx
	movq	%rdi, %rsi
	call	*%rax
.L51:
	movq	%rbx, %rdi
	popq	%rbx
	.cfi_def_cfa_offset 8
.LEHB0:
	jmp	_ZN8opendnp311IMasterTaskD2Ev@PLT
.LEHE0:
	.cfi_endproc
.LFE3341:
	.section	.gcc_except_table._ZN8opendnp320RestartOperationTaskD2Ev,"aG",@progbits,_ZN8opendnp320RestartOperationTaskD5Ev,comdat
.LLSDA3341:
	.byte	0xff
	.byte	0xff
	.byte	0x1
	.uleb128 .LLSDACSE3341-.LLSDACSB3341
.LLSDACSB3341:
	.uleb128 .LEHB0-.LFB3341
	.uleb128 .LEHE0-.LEHB0
	.uleb128 0
	.uleb128 0
.LLSDACSE3341:
	.section	.text._ZN8opendnp320RestartOperationTaskD2Ev,"axG",@progbits,_ZN8opendnp320RestartOperationTaskD5Ev,comdat
	.size	_ZN8opendnp320RestartOperationTaskD2Ev, .-_ZN8opendnp320RestartOperationTaskD2Ev
	.weak	_ZN8opendnp320RestartOperationTaskD1Ev
	.set	_ZN8opendnp320RestartOperationTaskD1Ev,_ZN8opendnp320RestartOperationTaskD2Ev
	.section	.text._ZN8opendnp320RestartOperationTaskD0Ev,"axG",@progbits,_ZN8opendnp320RestartOperationTaskD5Ev,comdat
	.align 2
	.p2align 4
	.weak	_ZN8opendnp320RestartOperationTaskD0Ev
	.type	_ZN8opendnp320RestartOperationTaskD0Ev, @function
_ZN8opendnp320RestartOperationTaskD0Ev:
.LFB3343:
	.cfi_startproc
	.cfi_personality 0x9b,DW.ref.__gxx_personality_v0
	.cfi_lsda 0x1b,.LLSDA3343
	movq	_ZTVN8opendnp320RestartOperationTaskE@GOTPCREL(%rip), %rax
	pushq	%rbx
	.cfi_def_cfa_offset 16
	.cfi_offset 3, -16
	movq	%rdi, %rbx
	leaq	16(%rax), %rdx
	addq	$160, %rax
	movq	%rax, 128(%rdi)
	movq	168(%rdi), %rax
	movq	%rdx, (%rdi)
	testq	%rax, %rax
	je	.L60
	leaq	152(%rdi), %rdi
	movl	$3, %edx
	movq	%rdi, %rsi
	call	*%rax
.L60:
	movq	_ZTVN8opendnp321SimpleRequestTaskBaseE@GOTPCREL(%rip), %rax
	addq	$16, %rax
	movq	%rax, (%rbx)
	movq	112(%rbx), %rax
	testq	%rax, %rax
	je	.L61
	leaq	96(%rbx), %rdi
	movl	$3, %edx
	movq	%rdi, %rsi
	call	*%rax
.L61:
	movq	%rbx, %rdi
	call	_ZN8opendnp311IMasterTaskD2Ev@PLT
	movq	%rbx, %rdi
	movl	$192, %esi
	popq	%rbx
	.cfi_def_cfa_offset 8
.LEHB1:
	jmp	_ZdlPvm@PLT
.LEHE1:
	.cfi_endproc
.LFE3343:
	.section	.gcc_except_table._ZN8opendnp320RestartOperationTaskD0Ev,"aG",@progbits,_ZN8opendnp320RestartOperationTaskD5Ev,comdat
.LLSDA3343:
	.byte	0xff
	.byte	0xff
	.byte	0x1
	.uleb128 .LLSDACSE3343-.LLSDACSB3343
.LLSDACSB3343:
	.uleb128 .LEHB1-.LFB3343
	.uleb128 .LEHE1-.LEHB1
	.uleb128 0
	.uleb128 0
.LLSDACSE3343:
	.section	.text._ZN8opendnp320RestartOperationTaskD0Ev,"axG",@progbits,_ZN8opendnp320RestartOperationTaskD5Ev,comdat
	.size	_ZN8opendnp320RestartOperationTaskD0Ev, .-_ZN8opendnp320RestartOperationTaskD0Ev
	.text
	.p2align 4
	.globl	_ZThn128_N8opendnp320RestartOperationTask13ProcessHeaderERKNS_11CountHeaderERKNS_11ICollectionINS_11Group52Var1EEE
	.type	_ZThn128_N8opendnp320RestartOperationTask13ProcessHeaderERKNS_11CountHeaderERKNS_11ICollectionINS_11Group52Var1EEE, @function
_ZThn128_N8opendnp320RestartOperationTask13ProcessHeaderERKNS_11CountHeaderERKNS_11ICollectionINS_11Group52Var1EEE:
.LFB3367:
	.cfi_startproc
	pushq	%r12
	.cfi_def_cfa_offset 16
	.cfi_offset 12, -16
	movq	%rdi, %r12
	pushq	%rbp
	.cfi_def_cfa_offset 24
	.cfi_offset 6, -24
	pushq	%rbx
	.cfi_def_cfa_offset 32
	.cfi_offset 3, -32
	movq	%rdx, %rbx
	subq	$32, %rsp
	.cfi_def_cfa_offset 64
	leaq	14(%rsp), %rbp
	movq	%rbp, %rdi
	call	_ZN8opendnp311Group52Var1C1Ev@PLT
	movq	(%rbx), %rax
	movq	%rbx, %rdi
	call	*(%rax)
	cmpq	$1, %rax
	je	.L70
	xorl	%eax, %eax
	leaq	16(%rsp), %rdi
	movl	$10, %esi
	movw	%ax, 16(%rsp)
	call	_ZN8opendnp38IINField6SetBitENS_6IINBitE@PLT
	movzwl	16(%rsp), %eax
	addq	$32, %rsp
	.cfi_remember_state
	.cfi_def_cfa_offset 32
	popq	%rbx
	.cfi_def_cfa_offset 24
	popq	%rbp
	.cfi_def_cfa_offset 16
	popq	%r12
	.cfi_def_cfa_offset 8
	ret
	.p2align 4,,10
	.p2align 3
.L70:
	.cfi_restore_state
	movq	_ZTVN8opendnp314FunctorVisitorINS_11Group52Var1EZNKS_11ICollectionIS1_E13ReadOnlyValueERS1_EUlRKS1_E_EE@GOTPCREL(%rip), %rax
	movq	%rbp, %xmm1
	leaq	16(%rsp), %rsi
	movq	%rbx, %rdi
	addq	$16, %rax
	movq	%rax, %xmm0
	movq	(%rbx), %rax
	punpcklqdq	%xmm1, %xmm0
	movaps	%xmm0, 16(%rsp)
	call	*8(%rax)
	movzwl	14(%rsp), %edi
	call	_ZN7openpal12TimeDuration7SecondsEl@PLT
	movq	%rax, 56(%r12)
	addq	$32, %rsp
	.cfi_def_cfa_offset 32
	xorl	%eax, %eax
	popq	%rbx
	.cfi_def_cfa_offset 24
	popq	%rbp
	.cfi_def_cfa_offset 16
	popq	%r12
	.cfi_def_cfa_offset 8
	ret
	.cfi_endproc
.LFE3367:
	.size	_ZThn128_N8opendnp320RestartOperationTask13ProcessHeaderERKNS_11CountHeaderERKNS_11ICollectionINS_11Group52Var1EEE, .-_ZThn128_N8opendnp320RestartOperationTask13ProcessHeaderERKNS_11CountHeaderERKNS_11ICollectionINS_11Group52Var1EEE
	.p2align 4
	.globl	_ZThn128_N8opendnp320RestartOperationTask13ProcessHeaderERKNS_11CountHeaderERKNS_11ICollectionINS_11Group52Var2EEE
	.type	_ZThn128_N8opendnp320RestartOperationTask13ProcessHeaderERKNS_11CountHeaderERKNS_11ICollectionINS_11Group52Var2EEE, @function
_ZThn128_N8opendnp320RestartOperationTask13ProcessHeaderERKNS_11CountHeaderERKNS_11ICollectionINS_11Group52Var2EEE:
.LFB3368:
	.cfi_startproc
	pushq	%r12
	.cfi_def_cfa_offset 16
	.cfi_offset 12, -16
	movq	%rdi, %r12
	pushq	%rbp
	.cfi_def_cfa_offset 24
	.cfi_offset 6, -24
	pushq	%rbx
	.cfi_def_cfa_offset 32
	.cfi_offset 3, -32
	movq	%rdx, %rbx
	subq	$32, %rsp
	.cfi_def_cfa_offset 64
	leaq	14(%rsp), %rbp
	movq	%rbp, %rdi
	call	_ZN8opendnp311Group52Var2C1Ev@PLT
	movq	(%rbx), %rax
	movq	%rbx, %rdi
	call	*(%rax)
	cmpq	$1, %rax
	je	.L74
	xorl	%eax, %eax
	leaq	16(%rsp), %rdi
	movl	$10, %esi
	movw	%ax, 16(%rsp)
	call	_ZN8opendnp38IINField6SetBitENS_6IINBitE@PLT
	movzwl	16(%rsp), %eax
	addq	$32, %rsp
	.cfi_remember_state
	.cfi_def_cfa_offset 32
	popq	%rbx
	.cfi_def_cfa_offset 24
	popq	%rbp
	.cfi_def_cfa_offset 16
	popq	%r12
	.cfi_def_cfa_offset 8
	ret
	.p2align 4,,10
	.p2align 3
.L74:
	.cfi_restore_state
	movq	_ZTVN8opendnp314FunctorVisitorINS_11Group52Var2EZNKS_11ICollectionIS1_E13ReadOnlyValueERS1_EUlRKS1_E_EE@GOTPCREL(%rip), %rax
	movq	%rbp, %xmm1
	leaq	16(%rsp), %rsi
	movq	%rbx, %rdi
	addq	$16, %rax
	movq	%rax, %xmm0
	movq	(%rbx), %rax
	punpcklqdq	%xmm1, %xmm0
	movaps	%xmm0, 16(%rsp)
	call	*8(%rax)
	movzwl	14(%rsp), %edi
	call	_ZN7openpal12TimeDuration12MillisecondsEl@PLT
	movq	%rax, 56(%r12)
	addq	$32, %rsp
	.cfi_def_cfa_offset 32
	xorl	%eax, %eax
	popq	%rbx
	.cfi_def_cfa_offset 24
	popq	%rbp
	.cfi_def_cfa_offset 16
	popq	%r12
	.cfi_def_cfa_offset 8
	ret
	.cfi_endproc
.LFE3368:
	.size	_ZThn128_N8opendnp320RestartOperationTask13ProcessHeaderERKNS_11CountHeaderERKNS_11ICollectionINS_11Group52Var2EEE, .-_ZThn128_N8opendnp320RestartOperationTask13ProcessHeaderERKNS_11CountHeaderERKNS_11ICollectionINS_11Group52Var2EEE
	.align 2
	.p2align 4
	.globl	_ZN8opendnp320RestartOperationTask14ToFunctionCodeENS_11RestartTypeE
	.type	_ZN8opendnp320RestartOperationTask14ToFunctionCodeENS_11RestartTypeE, @function
_ZN8opendnp320RestartOperationTask14ToFunctionCodeENS_11RestartTypeE:
.LFB2583:
	.cfi_startproc
	cmpb	$1, %dil
	movl	$13, %eax
	sbbb	$-1, %al
	ret
	.cfi_endproc
.LFE2583:
	.size	_ZN8opendnp320RestartOperationTask14ToFunctionCodeENS_11RestartTypeE, .-_ZN8opendnp320RestartOperationTask14ToFunctionCodeENS_11RestartTypeE
	.section	.text._ZNSt16_Sp_counted_baseILN9__gnu_cxx12_Lock_policyE2EE24_M_release_last_use_coldEv,"axG",@progbits,_ZNSt16_Sp_counted_baseILN9__gnu_cxx12_Lock_policyE2EE24_M_release_last_use_coldEv,comdat
	.align 2
	.p2align 4
	.weak	_ZNSt16_Sp_counted_baseILN9__gnu_cxx12_Lock_policyE2EE24_M_release_last_use_coldEv
	.type	_ZNSt16_Sp_counted_baseILN9__gnu_cxx12_Lock_policyE2EE24_M_release_last_use_coldEv, @function
_ZNSt16_Sp_counted_baseILN9__gnu_cxx12_Lock_policyE2EE24_M_release_last_use_coldEv:
.LFB2591:
	.cfi_startproc
	pushq	%rbx
	.cfi_def_cfa_offset 16
	.cfi_offset 3, -16
	movq	(%rdi), %rax
	movq	%rdi, %rbx
	call	*16(%rax)
	movq	__libc_single_threaded@GOTPCREL(%rip), %rax
	cmpb	$0, (%rax)
	je	.L81
	movl	12(%rbx), %eax
	leal	-1(%rax), %edx
	movl	%edx, 12(%rbx)
.L82:
	cmpl	$1, %eax
	je	.L85
	popq	%rbx
	.cfi_remember_state
	.cfi_def_cfa_offset 8
	ret
	.p2align 4,,10
	.p2align 3
.L85:
	.cfi_restore_state
	movq	(%rbx), %rax
	movq	%rbx, %rdi
	popq	%rbx
	.cfi_remember_state
	.cfi_def_cfa_offset 8
	movq	24(%rax), %rax
	jmp	*%rax
	.p2align 4,,10
	.p2align 3
.L81:
	.cfi_restore_state
	movl	$-1, %eax
	lock xaddl	%eax, 12(%rbx)
	jmp	.L82
	.cfi_endproc
.LFE2591:
	.size	_ZNSt16_Sp_counted_baseILN9__gnu_cxx12_Lock_policyE2EE24_M_release_last_use_coldEv, .-_ZNSt16_Sp_counted_baseILN9__gnu_cxx12_Lock_policyE2EE24_M_release_last_use_coldEv
	.section	.text._ZN7openpal6LoggerD2Ev,"axG",@progbits,_ZN7openpal6LoggerD5Ev,comdat
	.align 2
	.p2align 4
	.weak	_ZN7openpal6LoggerD2Ev
	.type	_ZN7openpal6LoggerD2Ev, @function
_ZN7openpal6LoggerD2Ev:
.LFB1998:
	.cfi_startproc
	subq	$24, %rsp
	.cfi_def_cfa_offset 32
	movq	%rdi, %rax
	movq	24(%rdi), %rdi
	testq	%rdi, %rdi
	je	.L88
	movq	8(%rdi), %rcx
	leaq	8(%rdi), %rsi
	movabsq	$4294967297, %rdx
	cmpq	%rdx, %rcx
	je	.L100
	movq	__libc_single_threaded@GOTPCREL(%rip), %rdx
	cmpb	$0, (%rdx)
	je	.L90
	movl	8(%rdi), %edx
	leal	-1(%rdx), %ecx
	movl	%ecx, 8(%rdi)
.L91:
	cmpl	$1, %edx
	je	.L101
.L88:
	movq	8(%rax), %rdi
	testq	%rdi, %rdi
	je	.L86
	movq	8(%rdi), %rdx
	leaq	8(%rdi), %rcx
	movabsq	$4294967297, %rax
	cmpq	%rax, %rdx
	je	.L102
	movq	__libc_single_threaded@GOTPCREL(%rip), %rax
	cmpb	$0, (%rax)
	je	.L96
	movl	8(%rdi), %eax
	leal	-1(%rax), %edx
	movl	%edx, 8(%rdi)
.L97:
	cmpl	$1, %eax
	je	.L103
.L86:
	addq	$24, %rsp
	.cfi_remember_state
	.cfi_def_cfa_offset 8
	ret
	.p2align 4,,10
	.p2align 3
.L102:
	.cfi_restore_state
	movq	(%rdi), %rax
	movq	%rdi, (%rsp)
	movq	$0, 8(%rdi)
	call	*16(%rax)
	movq	(%rsp), %rdi
	movq	(%rdi), %rax
	movq	24(%rax), %rax
	addq	$24, %rsp
	.cfi_remember_state
	.cfi_def_cfa_offset 8
	jmp	*%rax
	.p2align 4,,10
	.p2align 3
.L100:
	.cfi_restore_state
	movq	(%rdi), %rdx
	movq	%rax, 8(%rsp)
	movq	$0, 8(%rdi)
	movq	%rdi, (%rsp)
	call	*16(%rdx)
	movq	(%rsp), %rdi
	movq	(%rdi), %rdx
	call	*24(%rdx)
	movq	8(%rsp), %rax
	jmp	.L88
	.p2align 4,,10
	.p2align 3
.L96:
	movl	$-1, %eax
	lock xaddl	%eax, (%rcx)
	jmp	.L97
	.p2align 4,,10
	.p2align 3
.L90:
	movl	$-1, %edx
	lock xaddl	%edx, (%rsi)
	jmp	.L91
	.p2align 4,,10
	.p2align 3
.L101:
	movq	%rax, (%rsp)
	call	_ZNSt16_Sp_counted_baseILN9__gnu_cxx12_Lock_policyE2EE24_M_release_last_use_coldEv@PLT
	movq	(%rsp), %rax
	jmp	.L88
	.p2align 4,,10
	.p2align 3
.L103:
	addq	$24, %rsp
	.cfi_def_cfa_offset 8
	jmp	_ZNSt16_Sp_counted_baseILN9__gnu_cxx12_Lock_policyE2EE24_M_release_last_use_coldEv@PLT
	.cfi_endproc
.LFE1998:
	.size	_ZN7openpal6LoggerD2Ev, .-_ZN7openpal6LoggerD2Ev
	.weak	_ZN7openpal6LoggerD1Ev
	.set	_ZN7openpal6LoggerD1Ev,_ZN7openpal6LoggerD2Ev
	.section	.text.unlikely
	.align 2
.LCOLDB2:
	.text
.LHOTB2:
	.align 2
	.p2align 4
	.globl	_ZN8opendnp320RestartOperationTaskC2ERNS_18IMasterApplicationENS_11RestartTypeERKSt8functionIFvRKNS_22RestartOperationResultEEEN7openpal6LoggerERKNS_10TaskConfigE
	.type	_ZN8opendnp320RestartOperationTaskC2ERNS_18IMasterApplicationENS_11RestartTypeERKSt8functionIFvRKNS_22RestartOperationResultEEEN7openpal6LoggerERKNS_10TaskConfigE, @function
_ZN8opendnp320RestartOperationTaskC2ERNS_18IMasterApplicationENS_11RestartTypeERKSt8functionIFvRKNS_22RestartOperationResultEEEN7openpal6LoggerERKNS_10TaskConfigE:
.LFB2576:
	.cfi_startproc
	.cfi_personality 0x9b,DW.ref.__gxx_personality_v0
	.cfi_lsda 0x1b,.LLSDA2576
	pushq	%rbp
	.cfi_def_cfa_offset 16
	.cfi_offset 6, -16
	movq	%rsp, %rbp
	.cfi_def_cfa_register 6
	pushq	%r15
	.cfi_offset 15, -24
	movq	%r9, %r15
	pushq	%r14
	pushq	%r13
	pushq	%r12
	.cfi_offset 14, -32
	.cfi_offset 13, -40
	.cfi_offset 12, -48
	movq	%rcx, %r12
	pushq	%rbx
	.cfi_offset 3, -56
	movq	%rdi, %rbx
	movl	%edx, %edi
	subq	$88, %rsp
	movdqu	(%r8), %xmm0
	movhlps	%xmm0, %xmm1
	movaps	%xmm0, -80(%rbp)
	movq	%xmm1, %rax
	testq	%rax, %rax
	je	.L105
	movq	__libc_single_threaded@GOTPCREL(%rip), %rdx
	cmpb	$0, (%rdx)
	je	.L106
	addl	$1, 8(%rax)
.L105:
	movdqu	16(%r8), %xmm0
	movhlps	%xmm0, %xmm2
	movaps	%xmm0, -64(%rbp)
	movq	%xmm2, %rax
	testq	%rax, %rax
	je	.L107
	movq	__libc_single_threaded@GOTPCREL(%rip), %rdx
	cmpb	$0, (%rdx)
	je	.L108
	addl	$1, 8(%rax)
.L107:
	pxor	%xmm0, %xmm0
	leaq	_ZNSt17_Function_handlerIFbRN8opendnp312HeaderWriterEEZNS0_20RestartOperationTaskC4ERNS0_18IMasterApplicationENS0_11RestartTypeERKSt8functionIFvRKNS0_22RestartOperationResultEEEN7openpal6LoggerERKNS0_10TaskConfigEEUlS2_E_E9_M_invokeERKSt9_Any_dataS2_(%rip), %rax
	movq	%rsi, -120(%rbp)
	movaps	%xmm0, -112(%rbp)
	movq	%rax, %xmm3
	movq	.LC1(%rip), %xmm0
	punpcklqdq	%xmm3, %xmm0
	movaps	%xmm0, -96(%rbp)
.LEHB2:
	call	_ZN8opendnp320RestartOperationTask14ToFunctionCodeENS_11RestartTypeE@PLT
	subq	$8, %rsp
	movq	-120(%rbp), %rsi
	leaq	-80(%rbp), %r9
	leaq	-112(%rbp), %r8
	pushq	%r15
	movl	$110, %ecx
	movl	%eax, %edx
	movq	%rbx, %rdi
	.cfi_escape 0x2e,0x10
	call	_ZN8opendnp321SimpleRequestTaskBaseC2ERNS_18IMasterApplicationENS_12FunctionCodeEiRKSt8functionIFbRNS_12HeaderWriterEEEN7openpal6LoggerERKNS_10TaskConfigE@PLT
.LEHE2:
	popq	%rax
	movq	-96(%rbp), %rax
	popq	%rdx
	testq	%rax, %rax
	je	.L109
	movl	$3, %edx
	leaq	-112(%rbp), %rsi
	leaq	-112(%rbp), %rdi
	call	*%rax
.L109:
	movq	-56(%rbp), %rax
	movq	%rax, %rdi
	testq	%rax, %rax
	je	.L111
	movq	8(%rax), %rdx
	leaq	8(%rax), %rcx
	movabsq	$4294967297, %rax
	cmpq	%rax, %rdx
	je	.L162
	movq	__libc_single_threaded@GOTPCREL(%rip), %rax
	cmpb	$0, (%rax)
	je	.L113
	movl	8(%rdi), %eax
	leal	-1(%rax), %edx
	movl	%edx, 8(%rdi)
.L114:
	cmpl	$1, %eax
	je	.L163
.L111:
	movq	-72(%rbp), %rax
	movq	%rax, %rdi
	testq	%rax, %rax
	je	.L117
	movq	8(%rax), %rdx
	leaq	8(%rax), %rcx
	movabsq	$4294967297, %rax
	cmpq	%rax, %rdx
	je	.L164
	movq	__libc_single_threaded@GOTPCREL(%rip), %rax
	cmpb	$0, (%rax)
	je	.L119
	movl	8(%rdi), %eax
	leal	-1(%rax), %edx
	movl	%edx, 8(%rdi)
.L120:
	cmpl	$1, %eax
	je	.L165
.L117:
	leaq	128(%rbx), %rdi
.LEHB3:
	.cfi_escape 0x2e,0
	call	_ZN8opendnp312IAPDUHandlerC2Ev@PLT
.LEHE3:
	movq	_ZTVN8opendnp320RestartOperationTaskE@GOTPCREL(%rip), %rax
	pxor	%xmm0, %xmm0
	movq	$0, 168(%rbx)
	movq	$0, 176(%rbx)
	leaq	16(%rax), %rdx
	addq	$160, %rax
	movups	%xmm0, 152(%rbx)
	movq	%rax, 128(%rbx)
	movq	16(%r12), %rax
	movq	%rdx, (%rbx)
	testq	%rax, %rax
	je	.L122
	leaq	152(%rbx), %r15
	movl	$2, %edx
	movq	%r12, %rsi
	leaq	152(%rbx), %rdi
.LEHB4:
	call	*%rax
.LEHE4:
	movdqu	16(%r12), %xmm0
	movups	%xmm0, 168(%rbx)
.L122:
.LEHB5:
	call	_ZN7openpal12TimeDuration3MinEv@PLT
.LEHE5:
	movq	%rax, 184(%rbx)
	leaq	-40(%rbp), %rsp
	popq	%rbx
	popq	%r12
	popq	%r13
	popq	%r14
	popq	%r15
	popq	%rbp
	.cfi_remember_state
	.cfi_def_cfa 7, 8
	ret
	.p2align 4,,10
	.p2align 3
.L108:
	.cfi_restore_state
	lock addl	$1, 8(%rax)
	jmp	.L107
	.p2align 4,,10
	.p2align 3
.L106:
	lock addl	$1, 8(%rax)
	jmp	.L105
	.p2align 4,,10
	.p2align 3
.L164:
	movq	(%rdi), %rax
	movq	%rdi, %r14
	movq	$0, 8(%rdi)
	call	*16(%rax)
	movq	(%r14), %rax
	movq	%r14, %rdi
	call	*24(%rax)
	jmp	.L117
	.p2align 4,,10
	.p2align 3
.L162:
	movq	(%rdi), %rax
	movq	%rdi, %r14
	movq	$0, 8(%rdi)
	call	*16(%rax)
	movq	(%r14), %rax
	movq	%r14, %rdi
	call	*24(%rax)
	jmp	.L111
	.p2align 4,,10
	.p2align 3
.L113:
	movl	$-1, %eax
	lock xaddl	%eax, (%rcx)
	jmp	.L114
	.p2align 4,,10
	.p2align 3
.L119:
	movl	$-1, %eax
	lock xaddl	%eax, (%rcx)
	jmp	.L120
	.p2align 4,,10
	.p2align 3
.L163:
	call	_ZNSt16_Sp_counted_baseILN9__gnu_cxx12_Lock_policyE2EE24_M_release_last_use_coldEv@PLT
	jmp	.L111
	.p2align 4,,10
	.p2align 3
.L165:
	call	_ZNSt16_Sp_counted_baseILN9__gnu_cxx12_Lock_policyE2EE24_M_release_last_use_coldEv@PLT
	jmp	.L117
.L134:
	movq	%rax, %r15
	jmp	.L129
.L132:
	movq	%rax, %rbx
	jmp	.L127
.L135:
	movq	%rax, %r12
	jmp	.L124
.L133:
	movq	%rax, %r15
	jmp	.L126
	.section	.gcc_except_table,"a",@progbits
.LLSDA2576:
	.byte	0xff
	.byte	0xff
	.byte	0x1
	.uleb128 .LLSDACSE2576-.LLSDACSB2576
.LLSDACSB2576:
	.uleb128 .LEHB2-.LFB2576
	.uleb128 .LEHE2-.LEHB2
	.uleb128 .L132-.LFB2576
	.uleb128 0
	.uleb128 .LEHB3-.LFB2576
	.uleb128 .LEHE3-.LEHB3
	.uleb128 .L133-.LFB2576
	.uleb128 0
	.uleb128 .LEHB4-.LFB2576
	.uleb128 .LEHE4-.LEHB4
	.uleb128 .L135-.LFB2576
	.uleb128 0
	.uleb128 .LEHB5-.LFB2576
	.uleb128 .LEHE5-.LEHB5
	.uleb128 .L134-.LFB2576
	.uleb128 0
.LLSDACSE2576:
	.text
	.cfi_endproc
	.section	.text.unlikely
	.cfi_startproc
	.cfi_personality 0x9b,DW.ref.__gxx_personality_v0
	.cfi_lsda 0x1b,.LLSDAC2576
	.type	_ZN8opendnp320RestartOperationTaskC2ERNS_18IMasterApplicationENS_11RestartTypeERKSt8functionIFvRKNS_22RestartOperationResultEEEN7openpal6LoggerERKNS_10TaskConfigE.cold, @function
_ZN8opendnp320RestartOperationTaskC2ERNS_18IMasterApplicationENS_11RestartTypeERKSt8functionIFvRKNS_22RestartOperationResultEEEN7openpal6LoggerERKNS_10TaskConfigE.cold:
.LFSB2576:
.L129:
	.cfi_def_cfa 6, 16
	.cfi_offset 3, -56
	.cfi_offset 6, -16
	.cfi_offset 12, -48
	.cfi_offset 13, -40
	.cfi_offset 14, -32
	.cfi_offset 15, -24
	movq	168(%rbx), %rax
	testq	%rax, %rax
	je	.L126
	leaq	152(%rbx), %rdi
	movl	$3, %edx
	movq	%rdi, %rsi
	call	*%rax
.L126:
	movq	_ZTVN8opendnp321SimpleRequestTaskBaseE@GOTPCREL(%rip), %rax
	addq	$16, %rax
	movq	%rax, (%rbx)
	movq	112(%rbx), %rax
	testq	%rax, %rax
	je	.L131
	leaq	96(%rbx), %rdi
	movl	$3, %edx
	movq	%rdi, %rsi
	call	*%rax
.L131:
	movq	%rbx, %rdi
	call	_ZN8opendnp311IMasterTaskD2Ev@PLT
	movq	%r15, %rdi
.LEHB6:
	call	_Unwind_Resume@PLT
.LEHE6:
.L127:
	movq	-96(%rbp), %rax
	testq	%rax, %rax
	je	.L128
	leaq	-112(%rbp), %rdi
	movl	$3, %edx
	movq	%rdi, %rsi
	call	*%rax
.L128:
	leaq	-80(%rbp), %rdi
	call	_ZN7openpal6LoggerD1Ev@PLT
	movq	%rbx, %rdi
.LEHB7:
	call	_Unwind_Resume@PLT
.LEHE7:
.L124:
	movq	168(%rbx), %rax
	testq	%rax, %rax
	je	.L125
	movl	$3, %edx
	movq	%r15, %rsi
	movq	%r15, %rdi
	call	*%rax
.L125:
	movq	%r12, %r15
	jmp	.L126
	.cfi_endproc
.LFE2576:
	.section	.gcc_except_table
.LLSDAC2576:
	.byte	0xff
	.byte	0xff
	.byte	0x1
	.uleb128 .LLSDACSEC2576-.LLSDACSBC2576
.LLSDACSBC2576:
	.uleb128 .LEHB6-.LCOLDB2
	.uleb128 .LEHE6-.LEHB6
	.uleb128 0
	.uleb128 0
	.uleb128 .LEHB7-.LCOLDB2
	.uleb128 .LEHE7-.LEHB7
	.uleb128 0
	.uleb128 0
.LLSDACSEC2576:
	.section	.text.unlikely
	.text
	.size	_ZN8opendnp320RestartOperationTaskC2ERNS_18IMasterApplicationENS_11RestartTypeERKSt8functionIFvRKNS_22RestartOperationResultEEEN7openpal6LoggerERKNS_10TaskConfigE, .-_ZN8opendnp320RestartOperationTaskC2ERNS_18IMasterApplicationENS_11RestartTypeERKSt8functionIFvRKNS_22RestartOperationResultEEEN7openpal6LoggerERKNS_10TaskConfigE
	.section	.text.unlikely
	.size	_ZN8opendnp320RestartOperationTaskC2ERNS_18IMasterApplicationENS_11RestartTypeERKSt8functionIFvRKNS_22RestartOperationResultEEEN7openpal6LoggerERKNS_10TaskConfigE.cold, .-_ZN8opendnp320RestartOperationTaskC2ERNS_18IMasterApplicationENS_11RestartTypeERKSt8functionIFvRKNS_22RestartOperationResultEEEN7openpal6LoggerERKNS_10TaskConfigE.cold
.LCOLDE2:
	.text
.LHOTE2:
	.globl	_ZN8opendnp320RestartOperationTaskC1ERNS_18IMasterApplicationENS_11RestartTypeERKSt8functionIFvRKNS_22RestartOperationResultEEEN7openpal6LoggerERKNS_10TaskConfigE
	.set	_ZN8opendnp320RestartOperationTaskC1ERNS_18IMasterApplicationENS_11RestartTypeERKSt8functionIFvRKNS_22RestartOperationResultEEEN7openpal6LoggerERKNS_10TaskConfigE,_ZN8opendnp320RestartOperationTaskC2ERNS_18IMasterApplicationENS_11RestartTypeERKSt8functionIFvRKNS_22RestartOperationResultEEEN7openpal6LoggerERKNS_10TaskConfigE
	.weak	_ZTSN8opendnp320RestartOperationTaskE
	.section	.rodata._ZTSN8opendnp320RestartOperationTaskE,"aG",@progbits,_ZTSN8opendnp320RestartOperationTaskE,comdat
	.align 32
	.type	_ZTSN8opendnp320RestartOperationTaskE, @object
	.size	_ZTSN8opendnp320RestartOperationTaskE, 34
_ZTSN8opendnp320RestartOperationTaskE:
	.string	"N8opendnp320RestartOperationTaskE"
	.weak	_ZTIN8opendnp320RestartOperationTaskE
	.section	.data.rel.ro._ZTIN8opendnp320RestartOperationTaskE,"awG",@progbits,_ZTIN8opendnp320RestartOperationTaskE,comdat
	.align 8
	.type	_ZTIN8opendnp320RestartOperationTaskE, @object
	.size	_ZTIN8opendnp320RestartOperationTaskE, 56
_ZTIN8opendnp320RestartOperationTaskE:
	.quad	_ZTVN10__cxxabiv121__vmi_class_type_infoE+16
	.quad	_ZTSN8opendnp320RestartOperationTaskE
	.long	0
	.long	2
	.quad	_ZTIN8opendnp321SimpleRequestTaskBaseE
	.quad	2
	.quad	_ZTIN8opendnp312IAPDUHandlerE
	.quad	32768
	.section	.data.rel.ro,"aw"
	.align 8
	.type	_ZTIZN8opendnp320RestartOperationTaskC4ERNS_18IMasterApplicationENS_11RestartTypeERKSt8functionIFvRKNS_22RestartOperationResultEEEN7openpal6LoggerERKNS_10TaskConfigEEUlRNS_12HeaderWriterEE_, @object
	.size	_ZTIZN8opendnp320RestartOperationTaskC4ERNS_18IMasterApplicationENS_11RestartTypeERKSt8functionIFvRKNS_22RestartOperationResultEEEN7openpal6LoggerERKNS_10TaskConfigEEUlRNS_12HeaderWriterEE_, 16
_ZTIZN8opendnp320RestartOperationTaskC4ERNS_18IMasterApplicationENS_11RestartTypeERKSt8functionIFvRKNS_22RestartOperationResultEEEN7openpal6LoggerERKNS_10TaskConfigEEUlRNS_12HeaderWriterEE_:
	.quad	_ZTVN10__cxxabiv117__class_type_infoE+16
	.quad	_ZTSZN8opendnp320RestartOperationTaskC4ERNS_18IMasterApplicationENS_11RestartTypeERKSt8functionIFvRKNS_22RestartOperationResultEEEN7openpal6LoggerERKNS_10TaskConfigEEUlRNS_12HeaderWriterEE_
	.section	.rodata
	.align 32
	.type	_ZTSZN8opendnp320RestartOperationTaskC4ERNS_18IMasterApplicationENS_11RestartTypeERKSt8functionIFvRKNS_22RestartOperationResultEEEN7openpal6LoggerERKNS_10TaskConfigEEUlRNS_12HeaderWriterEE_, @object
	.size	_ZTSZN8opendnp320RestartOperationTaskC4ERNS_18IMasterApplicationENS_11RestartTypeERKSt8functionIFvRKNS_22RestartOperationResultEEEN7openpal6LoggerERKNS_10TaskConfigEEUlRNS_12HeaderWriterEE_, 187
_ZTSZN8opendnp320RestartOperationTaskC4ERNS_18IMasterApplicationENS_11RestartTypeERKSt8functionIFvRKNS_22RestartOperationResultEEEN7openpal6LoggerERKNS_10TaskConfigEEUlRNS_12HeaderWriterEE_:
	.string	"*ZN8opendnp320RestartOperationTaskC4ERNS_18IMasterApplicationENS_11RestartTypeERKSt8functionIFvRKNS_22RestartOperationResultEEEN7openpal6LoggerERKNS_10TaskConfigEEUlRNS_12HeaderWriterEE_"
	.weak	_ZTSN8opendnp38IVisitorINS_11Group52Var1EEE
	.section	.rodata._ZTSN8opendnp38IVisitorINS_11Group52Var1EEE,"aG",@progbits,_ZTSN8opendnp38IVisitorINS_11Group52Var1EEE,comdat
	.align 32
	.type	_ZTSN8opendnp38IVisitorINS_11Group52Var1EEE, @object
	.size	_ZTSN8opendnp38IVisitorINS_11Group52Var1EEE, 40
_ZTSN8opendnp38IVisitorINS_11Group52Var1EEE:
	.string	"N8opendnp38IVisitorINS_11Group52Var1EEE"
	.weak	_ZTIN8opendnp38IVisitorINS_11Group52Var1EEE
	.section	.data.rel.ro._ZTIN8opendnp38IVisitorINS_11Group52Var1EEE,"awG",@progbits,_ZTIN8opendnp38IVisitorINS_11Group52Var1EEE,comdat
	.align 8
	.type	_ZTIN8opendnp38IVisitorINS_11Group52Var1EEE, @object
	.size	_ZTIN8opendnp38IVisitorINS_11Group52Var1EEE, 16
_ZTIN8opendnp38IVisitorINS_11Group52Var1EEE:
	.quad	_ZTVN10__cxxabiv117__class_type_infoE+16
	.quad	_ZTSN8opendnp38IVisitorINS_11Group52Var1EEE
	.weak	_ZTSN8opendnp314FunctorVisitorINS_11Group52Var1EZNKS_11ICollectionIS1_E13ReadOnlyValueERS1_EUlRKS1_E_EE
	.section	.rodata._ZTSN8opendnp314FunctorVisitorINS_11Group52Var1EZNKS_11ICollectionIS1_E13ReadOnlyValueERS1_EUlRKS1_E_EE,"aG",@progbits,_ZTSN8opendnp314FunctorVisitorINS_11Group52Var1EZNKS_11ICollectionIS1_E13ReadOnlyValueERS1_EUlRKS1_E_EE,comdat
	.align 32
	.type	_ZTSN8opendnp314FunctorVisitorINS_11Group52Var1EZNKS_11ICollectionIS1_E13ReadOnlyValueERS1_EUlRKS1_E_EE, @object
	.size	_ZTSN8opendnp314FunctorVisitorINS_11Group52Var1EZNKS_11ICollectionIS1_E13ReadOnlyValueERS1_EUlRKS1_E_EE, 100
_ZTSN8opendnp314FunctorVisitorINS_11Group52Var1EZNKS_11ICollectionIS1_E13ReadOnlyValueERS1_EUlRKS1_E_EE:
	.string	"N8opendnp314FunctorVisitorINS_11Group52Var1EZNKS_11ICollectionIS1_E13ReadOnlyValueERS1_EUlRKS1_E_EE"
	.weak	_ZTIN8opendnp314FunctorVisitorINS_11Group52Var1EZNKS_11ICollectionIS1_E13ReadOnlyValueERS1_EUlRKS1_E_EE
	.section	.data.rel.ro._ZTIN8opendnp314FunctorVisitorINS_11Group52Var1EZNKS_11ICollectionIS1_E13ReadOnlyValueERS1_EUlRKS1_E_EE,"awG",@progbits,_ZTIN8opendnp314FunctorVisitorINS_11Group52Var1EZNKS_11ICollectionIS1_E13ReadOnlyValueERS1_EUlRKS1_E_EE,comdat
	.align 8
	.type	_ZTIN8opendnp314FunctorVisitorINS_11Group52Var1EZNKS_11ICollectionIS1_E13ReadOnlyValueERS1_EUlRKS1_E_EE, @object
	.size	_ZTIN8opendnp314FunctorVisitorINS_11Group52Var1EZNKS_11ICollectionIS1_E13ReadOnlyValueERS1_EUlRKS1_E_EE, 24
_ZTIN8opendnp314FunctorVisitorINS_11Group52Var1EZNKS_11ICollectionIS1_E13ReadOnlyValueERS1_EUlRKS1_E_EE:
	.quad	_ZTVN10__cxxabiv120__si_class_type_infoE+16
	.quad	_ZTSN8opendnp314FunctorVisitorINS_11Group52Var1EZNKS_11ICollectionIS1_E13ReadOnlyValueERS1_EUlRKS1_E_EE
	.quad	_ZTIN8opendnp38IVisitorINS_11Group52Var1EEE
	.weak	_ZTSN8opendnp38IVisitorINS_11Group52Var2EEE
	.section	.rodata._ZTSN8opendnp38IVisitorINS_11Group52Var2EEE,"aG",@progbits,_ZTSN8opendnp38IVisitorINS_11Group52Var2EEE,comdat
	.align 32
	.type	_ZTSN8opendnp38IVisitorINS_11Group52Var2EEE, @object
	.size	_ZTSN8opendnp38IVisitorINS_11Group52Var2EEE, 40
_ZTSN8opendnp38IVisitorINS_11Group52Var2EEE:
	.string	"N8opendnp38IVisitorINS_11Group52Var2EEE"
	.weak	_ZTIN8opendnp38IVisitorINS_11Group52Var2EEE
	.section	.data.rel.ro._ZTIN8opendnp38IVisitorINS_11Group52Var2EEE,"awG",@progbits,_ZTIN8opendnp38IVisitorINS_11Group52Var2EEE,comdat
	.align 8
	.type	_ZTIN8opendnp38IVisitorINS_11Group52Var2EEE, @object
	.size	_ZTIN8opendnp38IVisitorINS_11Group52Var2EEE, 16
_ZTIN8opendnp38IVisitorINS_11Group52Var2EEE:
	.quad	_ZTVN10__cxxabiv117__class_type_infoE+16
	.quad	_ZTSN8opendnp38IVisitorINS_11Group52Var2EEE
	.weak	_ZTSN8opendnp314FunctorVisitorINS_11Group52Var2EZNKS_11ICollectionIS1_E13ReadOnlyValueERS1_EUlRKS1_E_EE
	.section	.rodata._ZTSN8opendnp314FunctorVisitorINS_11Group52Var2EZNKS_11ICollectionIS1_E13ReadOnlyValueERS1_EUlRKS1_E_EE,"aG",@progbits,_ZTSN8opendnp314FunctorVisitorINS_11Group52Var2EZNKS_11ICollectionIS1_E13ReadOnlyValueERS1_EUlRKS1_E_EE,comdat
	.align 32
	.type	_ZTSN8opendnp314FunctorVisitorINS_11Group52Var2EZNKS_11ICollectionIS1_E13ReadOnlyValueERS1_EUlRKS1_E_EE, @object
	.size	_ZTSN8opendnp314FunctorVisitorINS_11Group52Var2EZNKS_11ICollectionIS1_E13ReadOnlyValueERS1_EUlRKS1_E_EE, 100
_ZTSN8opendnp314FunctorVisitorINS_11Group52Var2EZNKS_11ICollectionIS1_E13ReadOnlyValueERS1_EUlRKS1_E_EE:
	.string	"N8opendnp314FunctorVisitorINS_11Group52Var2EZNKS_11ICollectionIS1_E13ReadOnlyValueERS1_EUlRKS1_E_EE"
	.weak	_ZTIN8opendnp314FunctorVisitorINS_11Group52Var2EZNKS_11ICollectionIS1_E13ReadOnlyValueERS1_EUlRKS1_E_EE
	.section	.data.rel.ro._ZTIN8opendnp314FunctorVisitorINS_11Group52Var2EZNKS_11ICollectionIS1_E13ReadOnlyValueERS1_EUlRKS1_E_EE,"awG",@progbits,_ZTIN8opendnp314FunctorVisitorINS_11Group52Var2EZNKS_11ICollectionIS1_E13ReadOnlyValueERS1_EUlRKS1_E_EE,comdat
	.align 8
	.type	_ZTIN8opendnp314FunctorVisitorINS_11Group52Var2EZNKS_11ICollectionIS1_E13ReadOnlyValueERS1_EUlRKS1_E_EE, @object
	.size	_ZTIN8opendnp314FunctorVisitorINS_11Group52Var2EZNKS_11ICollectionIS1_E13ReadOnlyValueERS1_EUlRKS1_E_EE, 24
_ZTIN8opendnp314FunctorVisitorINS_11Group52Var2EZNKS_11ICollectionIS1_E13ReadOnlyValueERS1_EUlRKS1_E_EE:
	.quad	_ZTVN10__cxxabiv120__si_class_type_infoE+16
	.quad	_ZTSN8opendnp314FunctorVisitorINS_11Group52Var2EZNKS_11ICollectionIS1_E13ReadOnlyValueERS1_EUlRKS1_E_EE
	.quad	_ZTIN8opendnp38IVisitorINS_11Group52Var2EEE
	.weak	_ZTVN8opendnp320RestartOperationTaskE
	.section	.data.rel.ro._ZTVN8opendnp320RestartOperationTaskE,"awG",@progbits,_ZTVN8opendnp320RestartOperationTaskE,comdat
	.align 8
	.type	_ZTVN8opendnp320RestartOperationTaskE, @object
	.size	_ZTVN8opendnp320RestartOperationTaskE, 592
_ZTVN8opendnp320RestartOperationTaskE:
	.quad	0
	.quad	_ZTIN8opendnp320RestartOperationTaskE
	.quad	_ZN8opendnp320RestartOperationTaskD1Ev
	.quad	_ZN8opendnp320RestartOperationTaskD0Ev
	.quad	_ZNK8opendnp311IMasterTask10IsAuthTaskEv
	.quad	_ZNK8opendnp320RestartOperationTask4NameEv
	.quad	_ZNK8opendnp321SimpleRequestTaskBase8PriorityEv
	.quad	_ZNK8opendnp321SimpleRequestTaskBase19BlocksLowerPriorityEv
	.quad	_ZNK8opendnp321SimpleRequestTaskBase11IsRecurringEv
	.quad	_ZN8opendnp321SimpleRequestTaskBase12BuildRequestERNS_11APDURequestEh
	.quad	_ZN8opendnp311IMasterTask10InitializeEv
	.quad	_ZN8opendnp320RestartOperationTask15ProcessResponseERKNS_18APDUResponseHeaderERKN7openpal6RSliceE
	.quad	_ZN8opendnp320RestartOperationTask14OnTaskCompleteENS_14TaskCompletionEN7openpal18MonotonicTimestampE
	.quad	_ZNK8opendnp321SimpleRequestTaskBase9IsEnabledEv
	.quad	_ZNK8opendnp321SimpleRequestTaskBase11GetTaskTypeEv
	.quad	_ZN8opendnp320RestartOperationTask9IsAllowedEjNS_14GroupVariationENS_13QualifierCodeE
	.quad	_ZN8opendnp320RestartOperationTask13ProcessHeaderERKNS_11CountHeaderERKNS_11ICollectionINS_11Group52Var1EEE
	.quad	_ZN8opendnp320RestartOperationTask13ProcessHeaderERKNS_11CountHeaderERKNS_11ICollectionINS_11Group52Var2EEE
	.quad	-128
	.quad	_ZTIN8opendnp320RestartOperationTaskE
	.quad	_ZThn128_N8opendnp320RestartOperationTask9IsAllowedEjNS_14GroupVariationENS_13QualifierCodeE
	.quad	_ZN8opendnp312IAPDUHandler13ProcessHeaderERKNS_16AllObjectsHeaderE
	.quad	_ZN8opendnp312IAPDUHandler13ProcessHeaderERKNS_11RangeHeaderE
	.quad	_ZN8opendnp312IAPDUHandler13ProcessHeaderERKNS_11CountHeaderE
	.quad	_ZN8opendnp312IAPDUHandler13ProcessHeaderERKNS_16FreeFormatHeaderERKNS_12Group120Var1ERKN7openpal6RSliceE
	.quad	_ZN8opendnp312IAPDUHandler13ProcessHeaderERKNS_16FreeFormatHeaderERKNS_12Group120Var2ERKN7openpal6RSliceE
	.quad	_ZN8opendnp312IAPDUHandler13ProcessHeaderERKNS_16FreeFormatHeaderERKNS_12Group120Var5ERKN7openpal6RSliceE
	.quad	_ZN8opendnp312IAPDUHandler13ProcessHeaderERKNS_16FreeFormatHeaderERKNS_12Group120Var6ERKN7openpal6RSliceE
	.quad	_ZN8opendnp312IAPDUHandler13ProcessHeaderERKNS_16FreeFormatHeaderERKNS_12Group120Var8ERKN7openpal6RSliceE
	.quad	_ZN8opendnp312IAPDUHandler13ProcessHeaderERKNS_16FreeFormatHeaderERKNS_12Group120Var7ERKN7openpal6RSliceE
	.quad	_ZN8opendnp312IAPDUHandler13ProcessHeaderERKNS_16FreeFormatHeaderERKNS_12Group120Var9ERKN7openpal6RSliceE
	.quad	_ZN8opendnp312IAPDUHandler13ProcessHeaderERKNS_16FreeFormatHeaderERKNS_13Group120Var10ERKN7openpal6RSliceE
	.quad	_ZN8opendnp312IAPDUHandler13ProcessHeaderERKNS_16FreeFormatHeaderERKNS_13Group120Var11ERKN7openpal6RSliceE
	.quad	_ZN8opendnp312IAPDUHandler13ProcessHeaderERKNS_16FreeFormatHeaderERKNS_13Group120Var12ERKN7openpal6RSliceE
	.quad	_ZN8opendnp312IAPDUHandler13ProcessHeaderERKNS_16FreeFormatHeaderERKNS_13Group120Var13ERKN7openpal6RSliceE
	.quad	_ZN8opendnp312IAPDUHandler13ProcessHeaderERKNS_16FreeFormatHeaderERKNS_13Group120Var14ERKN7openpal6RSliceE
	.quad	_ZN8opendnp312IAPDUHandler13ProcessHeaderERKNS_16FreeFormatHeaderERKNS_13Group120Var15ERKN7openpal6RSliceE
	.quad	_ZN8opendnp312IAPDUHandler13ProcessHeaderERKNS_11CountHeaderERKNS_11ICollectionINS_11Group50Var1EEE
	.quad	_ZN8opendnp312IAPDUHandler13ProcessHeaderERKNS_11CountHeaderERKNS_11ICollectionINS_11Group51Var1EEE
	.quad	_ZN8opendnp312IAPDUHandler13ProcessHeaderERKNS_11CountHeaderERKNS_11ICollectionINS_11Group51Var2EEE
	.quad	_ZThn128_N8opendnp320RestartOperationTask13ProcessHeaderERKNS_11CountHeaderERKNS_11ICollectionINS_11Group52Var1EEE
	.quad	_ZThn128_N8opendnp320RestartOperationTask13ProcessHeaderERKNS_11CountHeaderERKNS_11ICollectionINS_11Group52Var2EEE
	.quad	_ZN8opendnp312IAPDUHandler13ProcessHeaderERKNS_11CountHeaderERKNS_11ICollectionINS_12Group120Var3EEE
	.quad	_ZN8opendnp312IAPDUHandler13ProcessHeaderERKNS_11CountHeaderERKNS_11ICollectionINS_12Group120Var4EEE
	.quad	_ZN8opendnp312IAPDUHandler13ProcessHeaderERKNS_11RangeHeaderERKNS_11ICollectionINS_7IndexedINS_8IINValueEEEEE
	.quad	_ZN8opendnp312IAPDUHandler13ProcessHeaderERKNS_11RangeHeaderERKNS_11ICollectionINS_7IndexedINS_6BinaryEEEEE
	.quad	_ZN8opendnp312IAPDUHandler13ProcessHeaderERKNS_11RangeHeaderERKNS_11ICollectionINS_7IndexedINS_15DoubleBitBinaryEEEEE
	.quad	_ZN8opendnp312IAPDUHandler13ProcessHeaderERKNS_11RangeHeaderERKNS_11ICollectionINS_7IndexedINS_18BinaryOutputStatusEEEEE
	.quad	_ZN8opendnp312IAPDUHandler13ProcessHeaderERKNS_11RangeHeaderERKNS_11ICollectionINS_7IndexedINS_7CounterEEEEE
	.quad	_ZN8opendnp312IAPDUHandler13ProcessHeaderERKNS_11RangeHeaderERKNS_11ICollectionINS_7IndexedINS_13FrozenCounterEEEEE
	.quad	_ZN8opendnp312IAPDUHandler13ProcessHeaderERKNS_11RangeHeaderERKNS_11ICollectionINS_7IndexedINS_6AnalogEEEEE
	.quad	_ZN8opendnp312IAPDUHandler13ProcessHeaderERKNS_11RangeHeaderERKNS_11ICollectionINS_7IndexedINS_18AnalogOutputStatusEEEEE
	.quad	_ZN8opendnp312IAPDUHandler13ProcessHeaderERKNS_11RangeHeaderERKNS_11ICollectionINS_7IndexedINS_11OctetStringEEEEE
	.quad	_ZN8opendnp312IAPDUHandler13ProcessHeaderERKNS_11RangeHeaderERKNS_11ICollectionINS_7IndexedINS_15TimeAndIntervalEEEEE
	.quad	_ZN8opendnp312IAPDUHandler13ProcessHeaderERKNS_11RangeHeaderERKNS_11ICollectionINS_7IndexedINS_12Group121Var1EEEEE
	.quad	_ZN8opendnp312IAPDUHandler13ProcessHeaderERKNS_12PrefixHeaderERKNS_11ICollectionINS_7IndexedINS_6BinaryEEEEE
	.quad	_ZN8opendnp312IAPDUHandler13ProcessHeaderERKNS_12PrefixHeaderERKNS_11ICollectionINS_7IndexedINS_18BinaryOutputStatusEEEEE
	.quad	_ZN8opendnp312IAPDUHandler13ProcessHeaderERKNS_12PrefixHeaderERKNS_11ICollectionINS_7IndexedINS_15DoubleBitBinaryEEEEE
	.quad	_ZN8opendnp312IAPDUHandler13ProcessHeaderERKNS_12PrefixHeaderERKNS_11ICollectionINS_7IndexedINS_7CounterEEEEE
	.quad	_ZN8opendnp312IAPDUHandler13ProcessHeaderERKNS_12PrefixHeaderERKNS_11ICollectionINS_7IndexedINS_13FrozenCounterEEEEE
	.quad	_ZN8opendnp312IAPDUHandler13ProcessHeaderERKNS_12PrefixHeaderERKNS_11ICollectionINS_7IndexedINS_6AnalogEEEEE
	.quad	_ZN8opendnp312IAPDUHandler13ProcessHeaderERKNS_12PrefixHeaderERKNS_11ICollectionINS_7IndexedINS_18AnalogOutputStatusEEEEE
	.quad	_ZN8opendnp312IAPDUHandler13ProcessHeaderERKNS_12PrefixHeaderERKNS_11ICollectionINS_7IndexedINS_11OctetStringEEEEE
	.quad	_ZN8opendnp312IAPDUHandler13ProcessHeaderERKNS_12PrefixHeaderERKNS_11ICollectionINS_7IndexedINS_15TimeAndIntervalEEEEE
	.quad	_ZN8opendnp312IAPDUHandler13ProcessHeaderERKNS_12PrefixHeaderERKNS_11ICollectionINS_7IndexedINS_18BinaryCommandEventEEEEE
	.quad	_ZN8opendnp312IAPDUHandler13ProcessHeaderERKNS_12PrefixHeaderERKNS_11ICollectionINS_7IndexedINS_18AnalogCommandEventEEEEE
	.quad	_ZN8opendnp312IAPDUHandler13ProcessHeaderERKNS_12PrefixHeaderERKNS_11ICollectionINS_7IndexedINS_12Group122Var1EEEEE
	.quad	_ZN8opendnp312IAPDUHandler13ProcessHeaderERKNS_12PrefixHeaderERKNS_11ICollectionINS_7IndexedINS_12Group122Var2EEEEE
	.quad	_ZN8opendnp312IAPDUHandler13ProcessHeaderERKNS_12PrefixHeaderERKNS_11ICollectionINS_7IndexedINS_23ControlRelayOutputBlockEEEEE
	.quad	_ZN8opendnp312IAPDUHandler13ProcessHeaderERKNS_12PrefixHeaderERKNS_11ICollectionINS_7IndexedINS_17AnalogOutputInt16EEEEE
	.quad	_ZN8opendnp312IAPDUHandler13ProcessHeaderERKNS_12PrefixHeaderERKNS_11ICollectionINS_7IndexedINS_17AnalogOutputInt32EEEEE
	.quad	_ZN8opendnp312IAPDUHandler13ProcessHeaderERKNS_12PrefixHeaderERKNS_11ICollectionINS_7IndexedINS_19AnalogOutputFloat32EEEEE
	.quad	_ZN8opendnp312IAPDUHandler13ProcessHeaderERKNS_12PrefixHeaderERKNS_11ICollectionINS_7IndexedINS_20AnalogOutputDouble64EEEEE
	.quad	_ZN8opendnp312IAPDUHandler14OnHeaderResultERKNS_12HeaderRecordERKNS_8IINFieldE
	.weak	_ZTVN8opendnp314FunctorVisitorINS_11Group52Var1EZNKS_11ICollectionIS1_E13ReadOnlyValueERS1_EUlRKS1_E_EE
	.section	.data.rel.ro._ZTVN8opendnp314FunctorVisitorINS_11Group52Var1EZNKS_11ICollectionIS1_E13ReadOnlyValueERS1_EUlRKS1_E_EE,"awG",@progbits,_ZTVN8opendnp314FunctorVisitorINS_11Group52Var1EZNKS_11ICollectionIS1_E13ReadOnlyValueERS1_EUlRKS1_E_EE,comdat
	.align 8
	.type	_ZTVN8opendnp314FunctorVisitorINS_11Group52Var1EZNKS_11ICollectionIS1_E13ReadOnlyValueERS1_EUlRKS1_E_EE, @object
	.size	_ZTVN8opendnp314FunctorVisitorINS_11Group52Var1EZNKS_11ICollectionIS1_E13ReadOnlyValueERS1_EUlRKS1_E_EE, 24
_ZTVN8opendnp314FunctorVisitorINS_11Group52Var1EZNKS_11ICollectionIS1_E13ReadOnlyValueERS1_EUlRKS1_E_EE:
	.quad	0
	.quad	_ZTIN8opendnp314FunctorVisitorINS_11Group52Var1EZNKS_11ICollectionIS1_E13ReadOnlyValueERS1_EUlRKS1_E_EE
	.quad	_ZN8opendnp314FunctorVisitorINS_11Group52Var1EZNKS_11ICollectionIS1_E13ReadOnlyValueERS1_EUlRKS1_E_E7OnValueES6_
	.weak	_ZTVN8opendnp314FunctorVisitorINS_11Group52Var2EZNKS_11ICollectionIS1_E13ReadOnlyValueERS1_EUlRKS1_E_EE
	.section	.data.rel.ro._ZTVN8opendnp314FunctorVisitorINS_11Group52Var2EZNKS_11ICollectionIS1_E13ReadOnlyValueERS1_EUlRKS1_E_EE,"awG",@progbits,_ZTVN8opendnp314FunctorVisitorINS_11Group52Var2EZNKS_11ICollectionIS1_E13ReadOnlyValueERS1_EUlRKS1_E_EE,comdat
	.align 8
	.type	_ZTVN8opendnp314FunctorVisitorINS_11Group52Var2EZNKS_11ICollectionIS1_E13ReadOnlyValueERS1_EUlRKS1_E_EE, @object
	.size	_ZTVN8opendnp314FunctorVisitorINS_11Group52Var2EZNKS_11ICollectionIS1_E13ReadOnlyValueERS1_EUlRKS1_E_EE, 24
_ZTVN8opendnp314FunctorVisitorINS_11Group52Var2EZNKS_11ICollectionIS1_E13ReadOnlyValueERS1_EUlRKS1_E_EE:
	.quad	0
	.quad	_ZTIN8opendnp314FunctorVisitorINS_11Group52Var2EZNKS_11ICollectionIS1_E13ReadOnlyValueERS1_EUlRKS1_E_EE
	.quad	_ZN8opendnp314FunctorVisitorINS_11Group52Var2EZNKS_11ICollectionIS1_E13ReadOnlyValueERS1_EUlRKS1_E_E7OnValueES6_
	.section	.data.rel.ro.local,"aw"
	.align 8
.LC1:
	.quad	_ZNSt17_Function_handlerIFbRN8opendnp312HeaderWriterEEZNS0_20RestartOperationTaskC4ERNS0_18IMasterApplicationENS0_11RestartTypeERKSt8functionIFvRKNS0_22RestartOperationResultEEEN7openpal6LoggerERKNS0_10TaskConfigEEUlS2_E_E10_M_managerERSt9_Any_dataRKSN_St18_Manager_operation
	.hidden	DW.ref.__gxx_personality_v0
	.weak	DW.ref.__gxx_personality_v0
	.section	.data.rel.local.DW.ref.__gxx_personality_v0,"awG",@progbits,DW.ref.__gxx_personality_v0,comdat
	.align 8
	.type	DW.ref.__gxx_personality_v0, @object
	.size	DW.ref.__gxx_personality_v0, 8
DW.ref.__gxx_personality_v0:
	.quad	__gxx_personality_v0
	.globl	__gxx_personality_v0
	.ident	"GCC: (Debian 15.2.0-4) 15.2.0"
	.section	.note.GNU-stack,"",@progbits
