	.file	"UserPollTask.cpp"
	.text
	.section	.text._ZNK8opendnp311IMasterTask10IsAuthTaskEv,"axG",@progbits,_ZNK8opendnp311IMasterTask10IsAuthTaskEv,comdat
	.align 2
	.p2align 4
	.weak	_ZNK8opendnp311IMasterTask10IsAuthTaskEv
	.type	_ZNK8opendnp311IMasterTask10IsAuthTaskEv, @function
_ZNK8opendnp311IMasterTask10IsAuthTaskEv:
.LFB2381:
	.cfi_startproc
	xorl	%eax, %eax
	ret
	.cfi_endproc
.LFE2381:
	.size	_ZNK8opendnp311IMasterTask10IsAuthTaskEv, .-_ZNK8opendnp311IMasterTask10IsAuthTaskEv
	.section	.rodata._ZNK8opendnp312PollTaskBase4NameEv.str1.1,"aMS",@progbits,1
.LC0:
	.string	"Application Poll"
	.section	.text._ZNK8opendnp312PollTaskBase4NameEv,"axG",@progbits,_ZNK8opendnp312PollTaskBase4NameEv,comdat
	.align 2
	.p2align 4
	.weak	_ZNK8opendnp312PollTaskBase4NameEv
	.type	_ZNK8opendnp312PollTaskBase4NameEv, @function
_ZNK8opendnp312PollTaskBase4NameEv:
.LFB2383:
	.cfi_startproc
	leaq	.LC0(%rip), %rax
	ret
	.cfi_endproc
.LFE2383:
	.size	_ZNK8opendnp312PollTaskBase4NameEv, .-_ZNK8opendnp312PollTaskBase4NameEv
	.section	.text._ZNK8opendnp312UserPollTask8PriorityEv,"axG",@progbits,_ZNK8opendnp312UserPollTask8PriorityEv,comdat
	.align 2
	.p2align 4
	.weak	_ZNK8opendnp312UserPollTask8PriorityEv
	.type	_ZNK8opendnp312UserPollTask8PriorityEv, @function
_ZNK8opendnp312UserPollTask8PriorityEv:
.LFB2384:
	.cfi_startproc
	movl	$190, %eax
	ret
	.cfi_endproc
.LFE2384:
	.size	_ZNK8opendnp312UserPollTask8PriorityEv, .-_ZNK8opendnp312UserPollTask8PriorityEv
	.section	.text._ZNK8opendnp312UserPollTask19BlocksLowerPriorityEv,"axG",@progbits,_ZNK8opendnp312UserPollTask19BlocksLowerPriorityEv,comdat
	.align 2
	.p2align 4
	.weak	_ZNK8opendnp312UserPollTask19BlocksLowerPriorityEv
	.type	_ZNK8opendnp312UserPollTask19BlocksLowerPriorityEv, @function
_ZNK8opendnp312UserPollTask19BlocksLowerPriorityEv:
.LFB2385:
	.cfi_startproc
	xorl	%eax, %eax
	ret
	.cfi_endproc
.LFE2385:
	.size	_ZNK8opendnp312UserPollTask19BlocksLowerPriorityEv, .-_ZNK8opendnp312UserPollTask19BlocksLowerPriorityEv
	.section	.text._ZNK8opendnp312UserPollTask11IsRecurringEv,"axG",@progbits,_ZNK8opendnp312UserPollTask11IsRecurringEv,comdat
	.align 2
	.p2align 4
	.weak	_ZNK8opendnp312UserPollTask11IsRecurringEv
	.type	_ZNK8opendnp312UserPollTask11IsRecurringEv, @function
_ZNK8opendnp312UserPollTask11IsRecurringEv:
.LFB2386:
	.cfi_startproc
	movzbl	136(%rdi), %eax
	ret
	.cfi_endproc
.LFE2386:
	.size	_ZNK8opendnp312UserPollTask11IsRecurringEv, .-_ZNK8opendnp312UserPollTask11IsRecurringEv
	.section	.text._ZNK8opendnp312UserPollTask9IsEnabledEv,"axG",@progbits,_ZNK8opendnp312UserPollTask9IsEnabledEv,comdat
	.align 2
	.p2align 4
	.weak	_ZNK8opendnp312UserPollTask9IsEnabledEv
	.type	_ZNK8opendnp312UserPollTask9IsEnabledEv, @function
_ZNK8opendnp312UserPollTask9IsEnabledEv:
.LFB2387:
	.cfi_startproc
	movl	$1, %eax
	ret
	.cfi_endproc
.LFE2387:
	.size	_ZNK8opendnp312UserPollTask9IsEnabledEv, .-_ZNK8opendnp312UserPollTask9IsEnabledEv
	.section	.text._ZNK8opendnp312UserPollTask11GetTaskTypeEv,"axG",@progbits,_ZNK8opendnp312UserPollTask11GetTaskTypeEv,comdat
	.align 2
	.p2align 4
	.weak	_ZNK8opendnp312UserPollTask11GetTaskTypeEv
	.type	_ZNK8opendnp312UserPollTask11GetTaskTypeEv, @function
_ZNK8opendnp312UserPollTask11GetTaskTypeEv:
.LFB2388:
	.cfi_startproc
	movl	$7, %eax
	ret
	.cfi_endproc
.LFE2388:
	.size	_ZNK8opendnp312UserPollTask11GetTaskTypeEv, .-_ZNK8opendnp312UserPollTask11GetTaskTypeEv
	.section	.text._ZN8opendnp312UserPollTaskD2Ev,"axG",@progbits,_ZN8opendnp312UserPollTaskD5Ev,comdat
	.align 2
	.p2align 4
	.weak	_ZN8opendnp312UserPollTaskD2Ev
	.type	_ZN8opendnp312UserPollTaskD2Ev, @function
_ZN8opendnp312UserPollTaskD2Ev:
.LFB3085:
	.cfi_startproc
	.cfi_personality 0x9b,DW.ref.__gxx_personality_v0
	.cfi_lsda 0x1b,.LLSDA3085
	movq	_ZTVN8opendnp312UserPollTaskE@GOTPCREL(%rip), %rax
	pushq	%rbx
	.cfi_def_cfa_offset 16
	.cfi_offset 3, -16
	movq	%rdi, %rbx
	addq	$16, %rax
	movq	%rax, (%rdi)
	movq	120(%rdi), %rax
	testq	%rax, %rax
	je	.L10
	leaq	104(%rdi), %rdi
	movl	$3, %edx
	movq	%rdi, %rsi
	call	*%rax
.L10:
	movq	_ZTVN8opendnp312PollTaskBaseE@GOTPCREL(%rip), %rax
	movq	%rbx, %rdi
	addq	$16, %rax
	movq	%rax, (%rbx)
	popq	%rbx
	.cfi_def_cfa_offset 8
.LEHB0:
	jmp	_ZN8opendnp311IMasterTaskD2Ev@PLT
.LEHE0:
	.cfi_endproc
.LFE3085:
	.section	.gcc_except_table._ZN8opendnp312UserPollTaskD2Ev,"aG",@progbits,_ZN8opendnp312UserPollTaskD5Ev,comdat
.LLSDA3085:
	.byte	0xff
	.byte	0xff
	.byte	0x1
	.uleb128 .LLSDACSE3085-.LLSDACSB3085
.LLSDACSB3085:
	.uleb128 .LEHB0-.LFB3085
	.uleb128 .LEHE0-.LEHB0
	.uleb128 0
	.uleb128 0
.LLSDACSE3085:
	.section	.text._ZN8opendnp312UserPollTaskD2Ev,"axG",@progbits,_ZN8opendnp312UserPollTaskD5Ev,comdat
	.size	_ZN8opendnp312UserPollTaskD2Ev, .-_ZN8opendnp312UserPollTaskD2Ev
	.weak	_ZN8opendnp312UserPollTaskD1Ev
	.set	_ZN8opendnp312UserPollTaskD1Ev,_ZN8opendnp312UserPollTaskD2Ev
	.section	.text.unlikely,"ax",@progbits
	.align 2
.LCOLDB1:
	.text
.LHOTB1:
	.align 2
	.p2align 4
	.globl	_ZN8opendnp312UserPollTask12BuildRequestERNS_11APDURequestEh
	.type	_ZN8opendnp312UserPollTask12BuildRequestERNS_11APDURequestEh, @function
_ZN8opendnp312UserPollTask12BuildRequestERNS_11APDURequestEh:
.LFB2399:
	.cfi_startproc
	pushq	%r12
	.cfi_def_cfa_offset 16
	.cfi_offset 12, -16
	xorl	%eax, %eax
	movl	%edx, %r12d
	pushq	%rbp
	.cfi_def_cfa_offset 24
	.cfi_offset 6, -24
	movq	%rsi, %rbp
	movl	$1, %esi
	pushq	%rbx
	.cfi_def_cfa_offset 32
	.cfi_offset 3, -32
	movq	%rdi, %rbx
	subq	$48, %rsp
	.cfi_def_cfa_offset 80
	movw	%ax, 88(%rdi)
	movq	%rbp, %rdi
	call	_ZN8opendnp311APDUWrapper11SetFunctionENS_12FunctionCodeE@PLT
	movzbl	%r12b, %edi
	call	_ZN8opendnp315AppControlField7RequestEh@PLT
	movq	%rbp, %rdi
	movabsq	$1099511627775, %rdx
	andq	%rdx, %rax
	movq	%rax, %rsi
	call	_ZN8opendnp311APDUWrapper10SetControlENS_15AppControlFieldE@PLT
	movq	%rbp, %rsi
	leaq	16(%rsp), %rdi
	call	_ZN8opendnp311APDUWrapper9GetWriterEv@PLT
	cmpq	$0, 120(%rbx)
	je	.L17
	leaq	104(%rbx), %rdi
	leaq	16(%rsp), %rsi
	call	*128(%rbx)
	addq	$48, %rsp
	.cfi_def_cfa_offset 32
	popq	%rbx
	.cfi_def_cfa_offset 24
	popq	%rbp
	.cfi_def_cfa_offset 16
	popq	%r12
	.cfi_def_cfa_offset 8
	ret
	.cfi_endproc
	.section	.text.unlikely
	.cfi_startproc
	.type	_ZN8opendnp312UserPollTask12BuildRequestERNS_11APDURequestEh.cold, @function
_ZN8opendnp312UserPollTask12BuildRequestERNS_11APDURequestEh.cold:
.LFSB2399:
.L17:
	.cfi_def_cfa_offset 80
	.cfi_offset 3, -32
	.cfi_offset 6, -24
	.cfi_offset 12, -16
	call	_ZSt25__throw_bad_function_callv@PLT
	.cfi_endproc
.LFE2399:
	.text
	.size	_ZN8opendnp312UserPollTask12BuildRequestERNS_11APDURequestEh, .-_ZN8opendnp312UserPollTask12BuildRequestERNS_11APDURequestEh
	.section	.text.unlikely
	.size	_ZN8opendnp312UserPollTask12BuildRequestERNS_11APDURequestEh.cold, .-_ZN8opendnp312UserPollTask12BuildRequestERNS_11APDURequestEh.cold
.LCOLDE1:
	.text
.LHOTE1:
	.align 2
	.p2align 4
	.globl	_ZN8opendnp312UserPollTask14OnTaskCompleteENS_14TaskCompletionEN7openpal18MonotonicTimestampE
	.type	_ZN8opendnp312UserPollTask14OnTaskCompleteENS_14TaskCompletionEN7openpal18MonotonicTimestampE, @function
_ZN8opendnp312UserPollTask14OnTaskCompleteENS_14TaskCompletionEN7openpal18MonotonicTimestampE:
.LFB2400:
	.cfi_startproc
	subq	$40, %rsp
	.cfi_def_cfa_offset 48
	movq	%rdx, 8(%rsp)
	cmpb	$1, %sil
	je	.L20
	cmpb	$-1, %sil
	jne	.L27
	leaq	24(%rsp), %rdi
	xorl	%esi, %esi
	call	_ZN7openpal18MonotonicTimestampC1El@PLT
	movq	24(%rsp), %rax
	xorl	%esi, %esi
	addq	$40, %rsp
	.cfi_remember_state
	.cfi_def_cfa_offset 8
	movq	%rax, %rdi
	movl	%esi, %eax
	movq	%rdi, %rdx
	ret
	.p2align 4,,10
	.p2align 3
.L27:
	.cfi_restore_state
	cmpq	$0, 144(%rdi)
	js	.L28
	leaq	144(%rdi), %rsi
	leaq	8(%rsp), %rdi
	call	_ZNK7openpal18MonotonicTimestamp3AddERKNS_12TimeDurationE@PLT
	xorl	%esi, %esi
	addq	$40, %rsp
	.cfi_remember_state
	.cfi_def_cfa_offset 8
	movq	%rax, %rdi
	movl	%esi, %eax
	movq	%rdi, %rdx
	ret
	.p2align 4,,10
	.p2align 3
.L20:
	.cfi_restore_state
	call	_ZN7openpal18MonotonicTimestamp3MaxEv@PLT
	movl	$1, %esi
	addq	$40, %rsp
	.cfi_remember_state
	.cfi_def_cfa_offset 8
	movq	%rax, %rdi
	movl	%esi, %eax
	movq	%rdi, %rdx
	ret
	.p2align 4,,10
	.p2align 3
.L28:
	.cfi_restore_state
	call	_ZN7openpal18MonotonicTimestamp3MaxEv@PLT
	xorl	%esi, %esi
	addq	$40, %rsp
	.cfi_def_cfa_offset 8
	movq	%rax, %rdi
	movl	%esi, %eax
	movq	%rdi, %rdx
	ret
	.cfi_endproc
.LFE2400:
	.size	_ZN8opendnp312UserPollTask14OnTaskCompleteENS_14TaskCompletionEN7openpal18MonotonicTimestampE, .-_ZN8opendnp312UserPollTask14OnTaskCompleteENS_14TaskCompletionEN7openpal18MonotonicTimestampE
	.section	.text._ZN8opendnp312UserPollTaskD0Ev,"axG",@progbits,_ZN8opendnp312UserPollTaskD5Ev,comdat
	.align 2
	.p2align 4
	.weak	_ZN8opendnp312UserPollTaskD0Ev
	.type	_ZN8opendnp312UserPollTaskD0Ev, @function
_ZN8opendnp312UserPollTaskD0Ev:
.LFB3087:
	.cfi_startproc
	.cfi_personality 0x9b,DW.ref.__gxx_personality_v0
	.cfi_lsda 0x1b,.LLSDA3087
	movq	_ZTVN8opendnp312UserPollTaskE@GOTPCREL(%rip), %rax
	pushq	%rbx
	.cfi_def_cfa_offset 16
	.cfi_offset 3, -16
	movq	%rdi, %rbx
	addq	$16, %rax
	movq	%rax, (%rdi)
	movq	120(%rdi), %rax
	testq	%rax, %rax
	je	.L30
	leaq	104(%rdi), %rdi
	movl	$3, %edx
	movq	%rdi, %rsi
	call	*%rax
.L30:
	movq	_ZTVN8opendnp312PollTaskBaseE@GOTPCREL(%rip), %rax
	movq	%rbx, %rdi
	addq	$16, %rax
	movq	%rax, (%rbx)
	call	_ZN8opendnp311IMasterTaskD2Ev@PLT
	movq	%rbx, %rdi
	movl	$160, %esi
	popq	%rbx
	.cfi_def_cfa_offset 8
.LEHB1:
	jmp	_ZdlPvm@PLT
.LEHE1:
	.cfi_endproc
.LFE3087:
	.section	.gcc_except_table._ZN8opendnp312UserPollTaskD0Ev,"aG",@progbits,_ZN8opendnp312UserPollTaskD5Ev,comdat
.LLSDA3087:
	.byte	0xff
	.byte	0xff
	.byte	0x1
	.uleb128 .LLSDACSE3087-.LLSDACSB3087
.LLSDACSB3087:
	.uleb128 .LEHB1-.LFB3087
	.uleb128 .LEHE1-.LEHB1
	.uleb128 0
	.uleb128 0
.LLSDACSE3087:
	.section	.text._ZN8opendnp312UserPollTaskD0Ev,"axG",@progbits,_ZN8opendnp312UserPollTaskD5Ev,comdat
	.size	_ZN8opendnp312UserPollTaskD0Ev, .-_ZN8opendnp312UserPollTaskD0Ev
	.section	.text._ZNSt16_Sp_counted_baseILN9__gnu_cxx12_Lock_policyE2EE24_M_release_last_use_coldEv,"axG",@progbits,_ZNSt16_Sp_counted_baseILN9__gnu_cxx12_Lock_policyE2EE24_M_release_last_use_coldEv,comdat
	.align 2
	.p2align 4
	.weak	_ZNSt16_Sp_counted_baseILN9__gnu_cxx12_Lock_policyE2EE24_M_release_last_use_coldEv
	.type	_ZNSt16_Sp_counted_baseILN9__gnu_cxx12_Lock_policyE2EE24_M_release_last_use_coldEv, @function
_ZNSt16_Sp_counted_baseILN9__gnu_cxx12_Lock_policyE2EE24_M_release_last_use_coldEv:
.LFB2407:
	.cfi_startproc
	pushq	%rbx
	.cfi_def_cfa_offset 16
	.cfi_offset 3, -16
	movq	(%rdi), %rax
	movq	%rdi, %rbx
	call	*16(%rax)
	movq	__libc_single_threaded@GOTPCREL(%rip), %rax
	cmpb	$0, (%rax)
	je	.L36
	movl	12(%rbx), %eax
	leal	-1(%rax), %edx
	movl	%edx, 12(%rbx)
.L37:
	cmpl	$1, %eax
	je	.L40
	popq	%rbx
	.cfi_remember_state
	.cfi_def_cfa_offset 8
	ret
	.p2align 4,,10
	.p2align 3
.L40:
	.cfi_restore_state
	movq	(%rbx), %rax
	movq	%rbx, %rdi
	popq	%rbx
	.cfi_remember_state
	.cfi_def_cfa_offset 8
	movq	24(%rax), %rax
	jmp	*%rax
	.p2align 4,,10
	.p2align 3
.L36:
	.cfi_restore_state
	movl	$-1, %eax
	lock xaddl	%eax, 12(%rbx)
	jmp	.L37
	.cfi_endproc
.LFE2407:
	.size	_ZNSt16_Sp_counted_baseILN9__gnu_cxx12_Lock_policyE2EE24_M_release_last_use_coldEv, .-_ZNSt16_Sp_counted_baseILN9__gnu_cxx12_Lock_policyE2EE24_M_release_last_use_coldEv
	.section	.text._ZN7openpal6LoggerD2Ev,"axG",@progbits,_ZN7openpal6LoggerD5Ev,comdat
	.align 2
	.p2align 4
	.weak	_ZN7openpal6LoggerD2Ev
	.type	_ZN7openpal6LoggerD2Ev, @function
_ZN7openpal6LoggerD2Ev:
.LFB1998:
	.cfi_startproc
	subq	$24, %rsp
	.cfi_def_cfa_offset 32
	movq	%rdi, %rax
	movq	24(%rdi), %rdi
	testq	%rdi, %rdi
	je	.L43
	movq	8(%rdi), %rcx
	leaq	8(%rdi), %rsi
	movabsq	$4294967297, %rdx
	cmpq	%rdx, %rcx
	je	.L55
	movq	__libc_single_threaded@GOTPCREL(%rip), %rdx
	cmpb	$0, (%rdx)
	je	.L45
	movl	8(%rdi), %edx
	leal	-1(%rdx), %ecx
	movl	%ecx, 8(%rdi)
.L46:
	cmpl	$1, %edx
	je	.L56
.L43:
	movq	8(%rax), %rdi
	testq	%rdi, %rdi
	je	.L41
	movq	8(%rdi), %rdx
	leaq	8(%rdi), %rcx
	movabsq	$4294967297, %rax
	cmpq	%rax, %rdx
	je	.L57
	movq	__libc_single_threaded@GOTPCREL(%rip), %rax
	cmpb	$0, (%rax)
	je	.L51
	movl	8(%rdi), %eax
	leal	-1(%rax), %edx
	movl	%edx, 8(%rdi)
.L52:
	cmpl	$1, %eax
	je	.L58
.L41:
	addq	$24, %rsp
	.cfi_remember_state
	.cfi_def_cfa_offset 8
	ret
	.p2align 4,,10
	.p2align 3
.L57:
	.cfi_restore_state
	movq	(%rdi), %rax
	movq	%rdi, (%rsp)
	movq	$0, 8(%rdi)
	call	*16(%rax)
	movq	(%rsp), %rdi
	movq	(%rdi), %rax
	movq	24(%rax), %rax
	addq	$24, %rsp
	.cfi_remember_state
	.cfi_def_cfa_offset 8
	jmp	*%rax
	.p2align 4,,10
	.p2align 3
.L55:
	.cfi_restore_state
	movq	(%rdi), %rdx
	movq	%rax, 8(%rsp)
	movq	$0, 8(%rdi)
	movq	%rdi, (%rsp)
	call	*16(%rdx)
	movq	(%rsp), %rdi
	movq	(%rdi), %rdx
	call	*24(%rdx)
	movq	8(%rsp), %rax
	jmp	.L43
	.p2align 4,,10
	.p2align 3
.L51:
	movl	$-1, %eax
	lock xaddl	%eax, (%rcx)
	jmp	.L52
	.p2align 4,,10
	.p2align 3
.L45:
	movl	$-1, %edx
	lock xaddl	%edx, (%rsi)
	jmp	.L46
	.p2align 4,,10
	.p2align 3
.L56:
	movq	%rax, (%rsp)
	call	_ZNSt16_Sp_counted_baseILN9__gnu_cxx12_Lock_policyE2EE24_M_release_last_use_coldEv@PLT
	movq	(%rsp), %rax
	jmp	.L43
	.p2align 4,,10
	.p2align 3
.L58:
	addq	$24, %rsp
	.cfi_def_cfa_offset 8
	jmp	_ZNSt16_Sp_counted_baseILN9__gnu_cxx12_Lock_policyE2EE24_M_release_last_use_coldEv@PLT
	.cfi_endproc
.LFE1998:
	.size	_ZN7openpal6LoggerD2Ev, .-_ZN7openpal6LoggerD2Ev
	.weak	_ZN7openpal6LoggerD1Ev
	.set	_ZN7openpal6LoggerD1Ev,_ZN7openpal6LoggerD2Ev
	.section	.text.unlikely
	.align 2
.LCOLDB2:
	.text
.LHOTB2:
	.align 2
	.p2align 4
	.globl	_ZN8opendnp312UserPollTaskC2ERKSt8functionIFbRNS_12HeaderWriterEEEbN7openpal12TimeDurationES9_RNS_18IMasterApplicationERNS_11ISOEHandlerENS8_6LoggerENS_10TaskConfigE
	.type	_ZN8opendnp312UserPollTaskC2ERKSt8functionIFbRNS_12HeaderWriterEEEbN7openpal12TimeDurationES9_RNS_18IMasterApplicationERNS_11ISOEHandlerENS8_6LoggerENS_10TaskConfigE, @function
_ZN8opendnp312UserPollTaskC2ERKSt8functionIFbRNS_12HeaderWriterEEEbN7openpal12TimeDurationES9_RNS_18IMasterApplicationERNS_11ISOEHandlerENS8_6LoggerENS_10TaskConfigE:
.LFB2397:
	.cfi_startproc
	.cfi_personality 0x9b,DW.ref.__gxx_personality_v0
	.cfi_lsda 0x1b,.LLSDA2397
	pushq	%rbp
	.cfi_def_cfa_offset 16
	.cfi_offset 6, -16
	movq	%rsp, %rbp
	.cfi_def_cfa_register 6
	pushq	%r15
	pushq	%r14
	.cfi_offset 15, -24
	.cfi_offset 14, -32
	movl	%edx, %r14d
	pushq	%r13
	.cfi_offset 13, -40
	movq	%rcx, %r13
	pushq	%r12
	.cfi_offset 12, -48
	movq	%r8, %r12
	pushq	%rbx
	.cfi_offset 3, -56
	movq	%rdi, %rbx
	subq	$88, %rsp
	movq	24(%rbp), %rdx
	movq	%rsi, -104(%rbp)
	movdqu	32(%rbp), %xmm1
	movdqu	(%rdx), %xmm0
	movhlps	%xmm0, %xmm2
	movaps	%xmm0, -80(%rbp)
	movq	%xmm2, %rax
	testq	%rax, %rax
	je	.L60
	movq	__libc_single_threaded@GOTPCREL(%rip), %rcx
	cmpb	$0, (%rcx)
	je	.L61
	addl	$1, 8(%rax)
.L60:
	movdqu	16(%rdx), %xmm0
	movhlps	%xmm0, %xmm3
	movaps	%xmm0, -64(%rbp)
	movq	%xmm3, %rax
	testq	%rax, %rax
	je	.L62
	movq	__libc_single_threaded@GOTPCREL(%rip), %rdx
	cmpb	$0, (%rdx)
	je	.L63
	addl	$1, 8(%rax)
.L62:
	leaq	-88(%rbp), %rdi
	xorl	%esi, %esi
	movq	%r9, -112(%rbp)
	movaps	%xmm1, -128(%rbp)
.LEHB2:
	call	_ZN7openpal18MonotonicTimestampC1El@PLT
	movdqa	-128(%rbp), %xmm1
	subq	$16, %rsp
	movq	-88(%rbp), %rcx
	movq	%rbx, %rdi
	movq	16(%rbp), %rdx
	movq	-112(%rbp), %rsi
	leaq	-80(%rbp), %r8
	movups	%xmm1, (%rsp)
	.cfi_escape 0x2e,0x10
	call	_ZN8opendnp312PollTaskBaseC2ERNS_18IMasterApplicationERNS_11ISOEHandlerEN7openpal18MonotonicTimestampENS5_6LoggerENS_10TaskConfigE@PLT
.LEHE2:
	movq	-56(%rbp), %r15
	popq	%rax
	popq	%rdx
	testq	%r15, %r15
	je	.L65
	movq	8(%r15), %rdx
	leaq	8(%r15), %rcx
	movabsq	$4294967297, %rax
	cmpq	%rax, %rdx
	je	.L96
	movq	__libc_single_threaded@GOTPCREL(%rip), %rax
	cmpb	$0, (%rax)
	je	.L67
	movl	8(%r15), %eax
	leal	-1(%rax), %edx
	movl	%edx, 8(%r15)
.L68:
	cmpl	$1, %eax
	je	.L97
.L65:
	movq	-72(%rbp), %r15
	testq	%r15, %r15
	je	.L71
	movq	8(%r15), %rdx
	leaq	8(%r15), %rcx
	movabsq	$4294967297, %rax
	cmpq	%rax, %rdx
	je	.L98
	movq	__libc_single_threaded@GOTPCREL(%rip), %rax
	cmpb	$0, (%rax)
	je	.L73
	movl	8(%r15), %eax
	leal	-1(%rax), %edx
	movl	%edx, 8(%r15)
.L74:
	cmpl	$1, %eax
	je	.L99
.L71:
	movq	_ZTVN8opendnp312UserPollTaskE@GOTPCREL(%rip), %rax
	movq	-104(%rbp), %rsi
	pxor	%xmm0, %xmm0
	movq	$0, 120(%rbx)
	movq	$0, 128(%rbx)
	addq	$16, %rax
	movups	%xmm0, 104(%rbx)
	movq	%rax, (%rbx)
	movq	16(%rsi), %rax
	testq	%rax, %rax
	je	.L76
	leaq	104(%rbx), %r15
	movl	$2, %edx
	movq	%r15, %rdi
.LEHB3:
	.cfi_escape 0x2e,0
	call	*%rax
.LEHE3:
	movq	-104(%rbp), %rsi
	movdqu	16(%rsi), %xmm0
	movups	%xmm0, 120(%rbx)
.L76:
	movb	%r14b, 136(%rbx)
	movq	%r13, 144(%rbx)
	movq	%r12, 152(%rbx)
	leaq	-40(%rbp), %rsp
	popq	%rbx
	popq	%r12
	popq	%r13
	popq	%r14
	popq	%r15
	popq	%rbp
	.cfi_remember_state
	.cfi_def_cfa 7, 8
	ret
	.p2align 4,,10
	.p2align 3
.L61:
	.cfi_restore_state
	lock addl	$1, 8(%rax)
	jmp	.L60
	.p2align 4,,10
	.p2align 3
.L63:
	lock addl	$1, 8(%rax)
	jmp	.L62
	.p2align 4,,10
	.p2align 3
.L98:
	movq	(%r15), %rax
	movq	%r15, %rdi
	movq	$0, 8(%r15)
	call	*16(%rax)
	movq	(%r15), %rax
	movq	%r15, %rdi
	call	*24(%rax)
	jmp	.L71
	.p2align 4,,10
	.p2align 3
.L96:
	movq	(%r15), %rax
	movq	%r15, %rdi
	movq	$0, 8(%r15)
	call	*16(%rax)
	movq	(%r15), %rax
	movq	%r15, %rdi
	call	*24(%rax)
	jmp	.L65
	.p2align 4,,10
	.p2align 3
.L67:
	movl	$-1, %eax
	lock xaddl	%eax, (%rcx)
	jmp	.L68
	.p2align 4,,10
	.p2align 3
.L73:
	movl	$-1, %eax
	lock xaddl	%eax, (%rcx)
	jmp	.L74
	.p2align 4,,10
	.p2align 3
.L99:
	movq	%r15, %rdi
	call	_ZNSt16_Sp_counted_baseILN9__gnu_cxx12_Lock_policyE2EE24_M_release_last_use_coldEv@PLT
	jmp	.L71
	.p2align 4,,10
	.p2align 3
.L97:
	movq	%r15, %rdi
	call	_ZNSt16_Sp_counted_baseILN9__gnu_cxx12_Lock_policyE2EE24_M_release_last_use_coldEv@PLT
	jmp	.L65
.L80:
	movq	%rax, %rbx
	jmp	.L79
.L81:
	movq	%rax, %r14
	jmp	.L77
	.section	.gcc_except_table,"a",@progbits
.LLSDA2397:
	.byte	0xff
	.byte	0xff
	.byte	0x1
	.uleb128 .LLSDACSE2397-.LLSDACSB2397
.LLSDACSB2397:
	.uleb128 .LEHB2-.LFB2397
	.uleb128 .LEHE2-.LEHB2
	.uleb128 .L80-.LFB2397
	.uleb128 0
	.uleb128 .LEHB3-.LFB2397
	.uleb128 .LEHE3-.LEHB3
	.uleb128 .L81-.LFB2397
	.uleb128 0
.LLSDACSE2397:
	.text
	.cfi_endproc
	.section	.text.unlikely
	.cfi_startproc
	.cfi_personality 0x9b,DW.ref.__gxx_personality_v0
	.cfi_lsda 0x1b,.LLSDAC2397
	.type	_ZN8opendnp312UserPollTaskC2ERKSt8functionIFbRNS_12HeaderWriterEEEbN7openpal12TimeDurationES9_RNS_18IMasterApplicationERNS_11ISOEHandlerENS8_6LoggerENS_10TaskConfigE.cold, @function
_ZN8opendnp312UserPollTaskC2ERKSt8functionIFbRNS_12HeaderWriterEEEbN7openpal12TimeDurationES9_RNS_18IMasterApplicationERNS_11ISOEHandlerENS8_6LoggerENS_10TaskConfigE.cold:
.LFSB2397:
.L79:
	.cfi_def_cfa 6, 16
	.cfi_offset 3, -56
	.cfi_offset 6, -16
	.cfi_offset 12, -48
	.cfi_offset 13, -40
	.cfi_offset 14, -32
	.cfi_offset 15, -24
	leaq	-80(%rbp), %rdi
	call	_ZN7openpal6LoggerD1Ev@PLT
	movq	%rbx, %rdi
.LEHB4:
	call	_Unwind_Resume@PLT
.LEHE4:
.L77:
	movq	120(%rbx), %rax
	testq	%rax, %rax
	je	.L78
	movl	$3, %edx
	movq	%r15, %rsi
	movq	%r15, %rdi
	call	*%rax
.L78:
	movq	_ZTVN8opendnp312PollTaskBaseE@GOTPCREL(%rip), %rax
	movq	%rbx, %rdi
	addq	$16, %rax
	movq	%rax, (%rbx)
	call	_ZN8opendnp311IMasterTaskD2Ev@PLT
	movq	%r14, %rdi
.LEHB5:
	call	_Unwind_Resume@PLT
.LEHE5:
	.cfi_endproc
.LFE2397:
	.section	.gcc_except_table
.LLSDAC2397:
	.byte	0xff
	.byte	0xff
	.byte	0x1
	.uleb128 .LLSDACSEC2397-.LLSDACSBC2397
.LLSDACSBC2397:
	.uleb128 .LEHB4-.LCOLDB2
	.uleb128 .LEHE4-.LEHB4
	.uleb128 0
	.uleb128 0
	.uleb128 .LEHB5-.LCOLDB2
	.uleb128 .LEHE5-.LEHB5
	.uleb128 0
	.uleb128 0
.LLSDACSEC2397:
	.section	.text.unlikely
	.text
	.size	_ZN8opendnp312UserPollTaskC2ERKSt8functionIFbRNS_12HeaderWriterEEEbN7openpal12TimeDurationES9_RNS_18IMasterApplicationERNS_11ISOEHandlerENS8_6LoggerENS_10TaskConfigE, .-_ZN8opendnp312UserPollTaskC2ERKSt8functionIFbRNS_12HeaderWriterEEEbN7openpal12TimeDurationES9_RNS_18IMasterApplicationERNS_11ISOEHandlerENS8_6LoggerENS_10TaskConfigE
	.section	.text.unlikely
	.size	_ZN8opendnp312UserPollTaskC2ERKSt8functionIFbRNS_12HeaderWriterEEEbN7openpal12TimeDurationES9_RNS_18IMasterApplicationERNS_11ISOEHandlerENS8_6LoggerENS_10TaskConfigE.cold, .-_ZN8opendnp312UserPollTaskC2ERKSt8functionIFbRNS_12HeaderWriterEEEbN7openpal12TimeDurationES9_RNS_18IMasterApplicationERNS_11ISOEHandlerENS8_6LoggerENS_10TaskConfigE.cold
.LCOLDE2:
	.text
.LHOTE2:
	.globl	_ZN8opendnp312UserPollTaskC1ERKSt8functionIFbRNS_12HeaderWriterEEEbN7openpal12TimeDurationES9_RNS_18IMasterApplicationERNS_11ISOEHandlerENS8_6LoggerENS_10TaskConfigE
	.set	_ZN8opendnp312UserPollTaskC1ERKSt8functionIFbRNS_12HeaderWriterEEEbN7openpal12TimeDurationES9_RNS_18IMasterApplicationERNS_11ISOEHandlerENS8_6LoggerENS_10TaskConfigE,_ZN8opendnp312UserPollTaskC2ERKSt8functionIFbRNS_12HeaderWriterEEEbN7openpal12TimeDurationES9_RNS_18IMasterApplicationERNS_11ISOEHandlerENS8_6LoggerENS_10TaskConfigE
	.weak	_ZTSN8opendnp312UserPollTaskE
	.section	.rodata._ZTSN8opendnp312UserPollTaskE,"aG",@progbits,_ZTSN8opendnp312UserPollTaskE,comdat
	.align 16
	.type	_ZTSN8opendnp312UserPollTaskE, @object
	.size	_ZTSN8opendnp312UserPollTaskE, 26
_ZTSN8opendnp312UserPollTaskE:
	.string	"N8opendnp312UserPollTaskE"
	.weak	_ZTIN8opendnp312UserPollTaskE
	.section	.data.rel.ro._ZTIN8opendnp312UserPollTaskE,"awG",@progbits,_ZTIN8opendnp312UserPollTaskE,comdat
	.align 8
	.type	_ZTIN8opendnp312UserPollTaskE, @object
	.size	_ZTIN8opendnp312UserPollTaskE, 24
_ZTIN8opendnp312UserPollTaskE:
	.quad	_ZTVN10__cxxabiv120__si_class_type_infoE+16
	.quad	_ZTSN8opendnp312UserPollTaskE
	.quad	_ZTIN8opendnp312PollTaskBaseE
	.weak	_ZTVN8opendnp312UserPollTaskE
	.section	.data.rel.ro._ZTVN8opendnp312UserPollTaskE,"awG",@progbits,_ZTVN8opendnp312UserPollTaskE,comdat
	.align 8
	.type	_ZTVN8opendnp312UserPollTaskE, @object
	.size	_ZTVN8opendnp312UserPollTaskE, 120
_ZTVN8opendnp312UserPollTaskE:
	.quad	0
	.quad	_ZTIN8opendnp312UserPollTaskE
	.quad	_ZN8opendnp312UserPollTaskD1Ev
	.quad	_ZN8opendnp312UserPollTaskD0Ev
	.quad	_ZNK8opendnp311IMasterTask10IsAuthTaskEv
	.quad	_ZNK8opendnp312PollTaskBase4NameEv
	.quad	_ZNK8opendnp312UserPollTask8PriorityEv
	.quad	_ZNK8opendnp312UserPollTask19BlocksLowerPriorityEv
	.quad	_ZNK8opendnp312UserPollTask11IsRecurringEv
	.quad	_ZN8opendnp312UserPollTask12BuildRequestERNS_11APDURequestEh
	.quad	_ZN8opendnp312PollTaskBase10InitializeEv
	.quad	_ZN8opendnp312PollTaskBase15ProcessResponseERKNS_18APDUResponseHeaderERKN7openpal6RSliceE
	.quad	_ZN8opendnp312UserPollTask14OnTaskCompleteENS_14TaskCompletionEN7openpal18MonotonicTimestampE
	.quad	_ZNK8opendnp312UserPollTask9IsEnabledEv
	.quad	_ZNK8opendnp312UserPollTask11GetTaskTypeEv
	.hidden	DW.ref.__gxx_personality_v0
	.weak	DW.ref.__gxx_personality_v0
	.section	.data.rel.local.DW.ref.__gxx_personality_v0,"awG",@progbits,DW.ref.__gxx_personality_v0,comdat
	.align 8
	.type	DW.ref.__gxx_personality_v0, @object
	.size	DW.ref.__gxx_personality_v0, 8
DW.ref.__gxx_personality_v0:
	.quad	__gxx_personality_v0
	.globl	__gxx_personality_v0
	.ident	"GCC: (Debian 15.2.0-4) 15.2.0"
	.section	.note.GNU-stack,"",@progbits
